; Listing generated by Microsoft (R) Optimizing Compiler Version 18.00.40629.0 

	TITLE	D:\Metin2\Metin2\client_source_clean\client_source_clean\source\UserInterface\InstanceBaseMovement.cpp
	.686P
	.XMM
	include listing.inc
	.model	flat

INCLUDELIB OLDNAMES

PUBLIC	??_C@_0CJ@ECOCCIHP@Failed?5to?5move?5next?5position?5?$CI?$CFf@ ; `string'
EXTRN	?SetWalkMode@CActorInstance@@QAEXXZ:PROC	; CActorInstance::SetWalkMode
EXTRN	?SetRunMode@CActorInstance@@QAEXXZ:PROC		; CActorInstance::SetRunMode
EXTRN	?isAttacking@CActorInstance@@QAEHXZ:PROC	; CActorInstance::isAttacking
EXTRN	?IsAttacked@CActorInstance@@QAEHXZ:PROC		; CActorInstance::IsAttacked
EXTRN	?IsMoving@CActorInstance@@QAEHXZ:PROC		; CActorInstance::IsMoving
EXTRN	?IsWaiting@CActorInstance@@QAEHXZ:PROC		; CActorInstance::IsWaiting
EXTRN	?Move@CActorInstance@@QAEXXZ:PROC		; CActorInstance::Move
EXTRN	?GetDegreeDifference@@YAMMM@Z:PROC		; GetDegreeDifference
EXTRN	?TEMP_Push@CActorInstance@@QAEXHH@Z:PROC	; CActorInstance::TEMP_Push
EXTRN	?__OnStop@CActorInstance@@QAEXXZ:PROC		; CActorInstance::__OnStop
;	COMDAT ??_C@_0CJ@ECOCCIHP@Failed?5to?5move?5next?5position?5?$CI?$CFf@
CONST	SEGMENT
??_C@_0CJ@ECOCCIHP@Failed?5to?5move?5next?5position?5?$CI?$CFf@ DB 'Faile'
	DB	'd to move next position (%f,%f, %f)', 00H	; `string'
PUBLIC	?floor@@YAMM@Z					; floor
PUBLIC	?D3DXVec3Scale@@YAPAUD3DXVECTOR3@@PAU1@PBU1@M@Z	; D3DXVec3Scale
PUBLIC	?D3DXVec3Add@@YAPAUD3DXVECTOR3@@PAU1@PBU1@1@Z	; D3DXVec3Add
PUBLIC	?SetWalkMode@CInstanceBase@@QAEXXZ		; CInstanceBase::SetWalkMode
PUBLIC	?SetRunMode@CInstanceBase@@QAEXXZ		; CInstanceBase::SetRunMode
PUBLIC	?NEW_MoveToDirection@CInstanceBase@@QAEXM@Z	; CInstanceBase::NEW_MoveToDirection
PUBLIC	?NEW_Goto@CInstanceBase@@QAE_NABUD3DXVECTOR3@@M@Z ; CInstanceBase::NEW_Goto
PUBLIC	?NEW_MoveToDestInstanceDirection@CInstanceBase@@QAEXAAV1@@Z ; CInstanceBase::NEW_MoveToDestInstanceDirection
PUBLIC	?IsActingEmotion@CInstanceBase@@QAEHXZ		; CInstanceBase::IsActingEmotion
PUBLIC	?IsAttacked@CInstanceBase@@QAEHXZ		; CInstanceBase::IsAttacked
PUBLIC	?IsPushing@CInstanceBase@@QAEHXZ		; CInstanceBase::IsPushing
PUBLIC	?NEW_SetAdvancingRotationFromPixelPosition@CInstanceBase@@QAEXABUD3DXVECTOR3@@0@Z ; CInstanceBase::NEW_SetAdvancingRotationFromPixelPosition
PUBLIC	?NEW_SetAdvancingRotationFromDirPixelPosition@CInstanceBase@@QAEXABUD3DXVECTOR3@@@Z ; CInstanceBase::NEW_SetAdvancingRotationFromDirPixelPosition
PUBLIC	?NEW_GetAdvancingRotationFromDirPixelPosition@CInstanceBase@@QAEMABUD3DXVECTOR3@@@Z ; CInstanceBase::NEW_GetAdvancingRotationFromDirPixelPosition
PUBLIC	?CInstanceBase_GetDegreeFromPosition@@YAMMM@Z	; CInstanceBase_GetDegreeFromPosition
PUBLIC	?NEW_CanMoveToDestPixelPosition@CInstanceBase@@QAE_NABUD3DXVECTOR3@@@Z ; CInstanceBase::NEW_CanMoveToDestPixelPosition
PUBLIC	?NEW_SyncPixelPosition@CInstanceBase@@QAEXAAJ0@Z ; CInstanceBase::NEW_SyncPixelPosition
PUBLIC	?ClampDegree@@YAMM@Z				; ClampDegree
PUBLIC	?IsKnockDown@CInstanceBase@@QAEHXZ		; CInstanceBase::IsKnockDown
PUBLIC	?EndGoing@CInstanceBase@@QAEXXZ			; CInstanceBase::EndGoing
PUBLIC	?IsAttacking@CInstanceBase@@QAEHXZ		; CInstanceBase::IsAttacking
PUBLIC	?NEW_MoveToDestPixelPositionDirection@CInstanceBase@@QAE_NABUD3DXVECTOR3@@@Z ; CInstanceBase::NEW_MoveToDestPixelPositionDirection
PUBLIC	?NEW_Stop@CInstanceBase@@QAEXXZ			; CInstanceBase::NEW_Stop
PUBLIC	?SetMoveSpeed@CInstanceBase@@QAEXI@Z		; CInstanceBase::SetMoveSpeed
PUBLIC	?SetAttackSpeed@CInstanceBase@@QAEXI@Z		; CInstanceBase::SetAttackSpeed
PUBLIC	?SetRotationSpeed@CInstanceBase@@QAEXM@Z	; CInstanceBase::SetRotationSpeed
PUBLIC	?IsWalking@CInstanceBase@@QAEHXZ		; CInstanceBase::IsWalking
PUBLIC	?StartWalking@CInstanceBase@@IAEXXZ		; CInstanceBase::StartWalking
PUBLIC	?IsWaiting@CInstanceBase@@QAEHXZ		; CInstanceBase::IsWaiting
PUBLIC	?EndWalking@CInstanceBase@@QAEXM@Z		; CInstanceBase::EndWalking
PUBLIC	?SetAdvancingRotation@CInstanceBase@@QAEXM@Z	; CInstanceBase::SetAdvancingRotation
PUBLIC	?NEW_GetAdvancingRotationFromPixelPosition@CInstanceBase@@QAEMABUD3DXVECTOR3@@0@Z ; CInstanceBase::NEW_GetAdvancingRotationFromPixelPosition
PUBLIC	?EndWalkingWithoutBlending@CInstanceBase@@QAEXXZ ; CInstanceBase::EndWalkingWithoutBlending
	ALIGN	4

_piecewise_construct DB 01H DUP (?)
_BSS	ENDS
; Function compile flags: /Ogtp
; File d:\metin2\metin2\client_source_clean\client_source_clean\source\userinterface\instancebasemovement.cpp
;	COMDAT ?EndWalkingWithoutBlending@CInstanceBase@@QAEXXZ
_TEXT	SEGMENT
?EndWalkingWithoutBlending@CInstanceBase@@QAEXXZ PROC	; CInstanceBase::EndWalkingWithoutBlending, COMDAT
; _this$ = ecx

; 185  : {

  00000	0f 57 c9	 xorps	 xmm1, xmm1

; 186  : 	EndWalking(0.0f);

  00003	e9 00 00 00 00	 jmp	 ?EndWalking@CInstanceBase@@QAEXM@Z ; CInstanceBase::EndWalking
?EndWalkingWithoutBlending@CInstanceBase@@QAEXXZ ENDP	; CInstanceBase::EndWalkingWithoutBlending
_TEXT	ENDS
; Function compile flags: /Ogtp
; File d:\metin2\metin2\client_source_clean\client_source_clean\source\userinterface\instancebasemovement.cpp
; File d:\metin2\metin2\client_source_clean\client_source_clean\extern\include\d3dx8math.inl
; File d:\metin2\metin2\client_source_clean\client_source_clean\source\userinterface\instancebasemovement.cpp
;	COMDAT ?NEW_GetAdvancingRotationFromPixelPosition@CInstanceBase@@QAEMABUD3DXVECTOR3@@0@Z
_TEXT	SEGMENT
$T1 = -24						; size = 12
_kPPosDelta$ = -12					; size = 12
_c_rkPPosSrc$ = 8					; size = 4
_c_rkPPosDst$ = 12					; size = 4
?NEW_GetAdvancingRotationFromPixelPosition@CInstanceBase@@QAEMABUD3DXVECTOR3@@0@Z PROC ; CInstanceBase::NEW_GetAdvancingRotationFromPixelPosition, COMDAT
; _this$dead$ = ecx

; 93   : {

  00000	55		 push	 ebp
  00001	8b ec		 mov	 ebp, esp
  00003	83 ec 18	 sub	 esp, 24			; 00000018H
; File d:\metin2\metin2\client_source_clean\client_source_clean\extern\include\d3dx8math.inl

; 263  :     return D3DXVECTOR3(x - v.x, y - v.y, z - v.z);

  00006	8b 4d 0c	 mov	 ecx, DWORD PTR _c_rkPPosDst$[ebp]
  00009	8b 45 08	 mov	 eax, DWORD PTR _c_rkPPosSrc$[ebp]
  0000c	f3 0f 10 41 08	 movss	 xmm0, DWORD PTR [ecx+8]
  00011	f3 0f 5c 40 08	 subss	 xmm0, DWORD PTR [eax+8]
  00016	f3 0f 10 11	 movss	 xmm2, DWORD PTR [ecx]
  0001a	f3 0f 5c 10	 subss	 xmm2, DWORD PTR [eax]
  0001e	f3 0f 10 49 04	 movss	 xmm1, DWORD PTR [ecx+4]
  00023	f3 0f 5c 48 04	 subss	 xmm1, DWORD PTR [eax+4]

; 182  :     z = fz;

  00028	f3 0f 11 45 f0	 movss	 DWORD PTR $T1[ebp+8], xmm0
; File d:\metin2\metin2\client_source_clean\client_source_clean\source\userinterface\instancebasemovement.cpp

; 95   : 	kPPosDelta=c_rkPPosDst-c_rkPPosSrc;

  0002d	8b 45 f0	 mov	 eax, DWORD PTR $T1[ebp+8]
  00030	89 45 fc	 mov	 DWORD PTR _kPPosDelta$[ebp+8], eax

; 96   : 	return NEW_GetAdvancingRotationFromDirPixelPosition(kPPosDelta);

  00033	8d 45 f4	 lea	 eax, DWORD PTR _kPPosDelta$[ebp]
  00036	50		 push	 eax
  00037	0f 14 d1	 unpcklps xmm2, xmm1
  0003a	66 0f d6 55 f4	 movq	 QWORD PTR _kPPosDelta$[ebp], xmm2
  0003f	e8 00 00 00 00	 call	 ?NEW_GetAdvancingRotationFromDirPixelPosition@CInstanceBase@@QAEMABUD3DXVECTOR3@@@Z ; CInstanceBase::NEW_GetAdvancingRotationFromDirPixelPosition

; 97   : }

  00044	8b e5		 mov	 esp, ebp
  00046	5d		 pop	 ebp
  00047	c2 08 00	 ret	 8
?NEW_GetAdvancingRotationFromPixelPosition@CInstanceBase@@QAEMABUD3DXVECTOR3@@0@Z ENDP ; CInstanceBase::NEW_GetAdvancingRotationFromPixelPosition
_TEXT	ENDS
; Function compile flags: /Ogtp
; File d:\metin2\metin2\client_source_clean\client_source_clean\source\userinterface\instancebasemovement.cpp
; File d:\metin2\metin2\client_source_clean\client_source_clean\source\eterlib\grpmath.h
; File d:\metin2\metin2\client_source_clean\client_source_clean\source\userinterface\instancebasemovement.cpp
;	COMDAT ?SetAdvancingRotation@CInstanceBase@@QAEXM@Z
_TEXT	SEGMENT
_fDegree$1$ = -8					; size = 4
tv184 = -4						; size = 4
?SetAdvancingRotation@CInstanceBase@@QAEXM@Z PROC	; CInstanceBase::SetAdvancingRotation, COMDAT
; _this$ = ecx
; _fRotation$ = xmm1s

; 136  : {

  00000	55		 push	 ebp
  00001	8b ec		 mov	 ebp, esp
  00003	83 ec 08	 sub	 esp, 8
  00006	56		 push	 esi
  00007	57		 push	 edi

; 137  : 	float frotDifference = GetDegreeDifference(GetRotation(), fRotation);

  00008	51		 push	 ecx
  00009	f3 0f 11 4d f8	 movss	 DWORD PTR _fDegree$1$[ebp], xmm1
  0000e	8b f9		 mov	 edi, ecx
  00010	f3 0f 11 0c 24	 movss	 DWORD PTR [esp], xmm1
  00015	e8 00 00 00 00	 call	 ?GetRotation@CInstanceBase@@QAEMXZ ; CInstanceBase::GetRotation
  0001a	51		 push	 ecx
  0001b	f3 0f 11 04 24	 movss	 DWORD PTR [esp], xmm0
  00020	e8 00 00 00 00	 call	 ?GetDegreeDifference@@YAMMM@Z ; GetDegreeDifference

; 138  : 
; 139  : 	if (frotDifference > 45.0f)

  00025	d9 5d fc	 fstp	 DWORD PTR tv184[ebp]
  00028	f3 0f 10 45 fc	 movss	 xmm0, DWORD PTR tv184[ebp]
  0002d	83 c4 08	 add	 esp, 8
  00030	0f 2f 05 00 00
	00 00		 comiss	 xmm0, DWORD PTR __real@42340000
  00037	76 0e		 jbe	 SHORT $LN2@SetAdvanci

; 140  : 		m_fRotSpd = m_fMaxRotSpd;

  00039	8b 87 cc 01 00
	00		 mov	 eax, DWORD PTR [edi+460]
  0003f	89 87 c8 01 00
	00		 mov	 DWORD PTR [edi+456], eax

; 141  : 	else

  00045	eb 20		 jmp	 SHORT $LN1@SetAdvanci
$LN2@SetAdvanci:

; 142  : 		m_fRotSpd = m_fMaxRotSpd * 5 / 12;

  00047	f3 0f 10 87 cc
	01 00 00	 movss	 xmm0, DWORD PTR [edi+460]
  0004f	f3 0f 59 05 00
	00 00 00	 mulss	 xmm0, DWORD PTR __real@40a00000
  00057	f3 0f 5e 05 00
	00 00 00	 divss	 xmm0, DWORD PTR __real@41400000
  0005f	f3 0f 11 87 c8
	01 00 00	 movss	 DWORD PTR [edi+456], xmm0
$LN1@SetAdvanci:
; File d:\metin2\metin2\client_source_clean\client_source_clean\source\eterlib\grpmath.h

; 34   : 	if (fDegree >= 360.0f)

  00067	f3 0f 10 15 00
	00 00 00	 movss	 xmm2, DWORD PTR __real@43b40000
  0006f	f3 0f 10 4d f8	 movss	 xmm1, DWORD PTR _fDegree$1$[ebp]
  00074	0f 2f ca	 comiss	 xmm1, xmm2
  00077	72 04		 jb	 SHORT $LN6@SetAdvanci

; 35   : 		fDegree -= 360.0f;

  00079	f3 0f 5c ca	 subss	 xmm1, xmm2
$LN6@SetAdvanci:
  0007d	0f 57 c0	 xorps	 xmm0, xmm0

; 36   : 	if (fDegree < 0.0f)

  00080	0f 2f c1	 comiss	 xmm0, xmm1
  00083	76 04		 jbe	 SHORT $LN5@SetAdvanci

; 37   : 		fDegree += 360.0f;

  00085	f3 0f 58 ca	 addss	 xmm1, xmm2
$LN5@SetAdvanci:
; File d:\metin2\metin2\client_source_clean\client_source_clean\source\userinterface\instancebasemovement.cpp

; 144  : 	m_GraphicThingInstance.SetAdvancingRotation(ClampDegree(fRotation));

  00089	51		 push	 ecx
  0008a	8d 8f d4 01 00
	00		 lea	 ecx, DWORD PTR [edi+468]
  00090	f3 0f 11 0c 24	 movss	 DWORD PTR [esp], xmm1
  00095	e8 00 00 00 00	 call	 ?SetAdvancingRotation@CActorInstance@@QAEXM@Z ; CActorInstance::SetAdvancingRotation

; 145  : 	m_iRotatingDirection = GetRotatingDirection(m_GraphicThingInstance.GetRotation(),
; 146  : 												m_GraphicThingInstance.GetAdvancingRotation());

  0009a	8d 8f d4 01 00
	00		 lea	 ecx, DWORD PTR [edi+468]
  000a0	e8 00 00 00 00	 call	 ?GetAdvancingRotation@CActorInstance@@QAEMXZ ; CActorInstance::GetAdvancingRotation
  000a5	51		 push	 ecx
  000a6	d9 1c 24	 fstp	 DWORD PTR [esp]
  000a9	8d 8f d4 01 00
	00		 lea	 ecx, DWORD PTR [edi+468]
  000af	e8 00 00 00 00	 call	 ?GetRotation@CActorInstance@@QAEMXZ ; CActorInstance::GetRotation
  000b4	51		 push	 ecx
  000b5	d9 1c 24	 fstp	 DWORD PTR [esp]
  000b8	e8 00 00 00 00	 call	 ?GetRotatingDirection@@YAHMM@Z ; GetRotatingDirection
  000bd	83 c4 08	 add	 esp, 8
  000c0	89 87 74 01 00
	00		 mov	 DWORD PTR [edi+372], eax
  000c6	5f		 pop	 edi
  000c7	5e		 pop	 esi

; 147  : }

  000c8	8b e5		 mov	 esp, ebp
  000ca	5d		 pop	 ebp
  000cb	c3		 ret	 0
?SetAdvancingRotation@CInstanceBase@@QAEXM@Z ENDP	; CInstanceBase::SetAdvancingRotation
_TEXT	ENDS
; Function compile flags: /Ogtp
; File d:\metin2\metin2\client_source_clean\client_source_clean\source\userinterface\instancebasemovement.cpp
;	COMDAT ?EndWalking@CInstanceBase@@QAEXM@Z
_TEXT	SEGMENT
_fBlendingTime$1$ = -4					; size = 4
?EndWalking@CInstanceBase@@QAEXM@Z PROC			; CInstanceBase::EndWalking, COMDAT
; _this$ = ecx
; _fBlendingTime$ = xmm1s

; 164  : {

  00000	55		 push	 ebp
  00001	8b ec		 mov	 ebp, esp
  00003	51		 push	 ecx
  00004	56		 push	 esi
  00005	8b f1		 mov	 esi, ecx
  00007	f3 0f 11 4d fc	 movss	 DWORD PTR _fBlendingTime$1$[ebp], xmm1

; 165  : 	assert (!IsWaiting() && "CInstanceBase::EndWalking");
; 166  : 
; 167  : 	m_isGoing = FALSE;

  0000c	c6 86 88 01 00
	00 00		 mov	 BYTE PTR [esi+392], 0

; 168  : 
; 169  : 	// 걷고 있을때는 무조건 멈추게 해야 한다
; 170  : 	if (IsWalking()||!IsAttacked())

  00013	e8 00 00 00 00	 call	 ?IsWalking@CInstanceBase@@QAEHXZ ; CInstanceBase::IsWalking
  00018	85 c0		 test	 eax, eax
  0001a	75 0b		 jne	 SHORT $LN4@EndWalking
  0001c	8b ce		 mov	 ecx, esi
  0001e	e8 00 00 00 00	 call	 ?IsAttacked@CInstanceBase@@QAEHXZ ; CInstanceBase::IsAttacked
  00023	85 c0		 test	 eax, eax
  00025	75 45		 jne	 SHORT $LN1@EndWalking
$LN4@EndWalking:

; 171  : 	{
; 172  : 		m_GraphicThingInstance.Stop(fBlendingTime);

  00027	f3 0f 10 45 fc	 movss	 xmm0, DWORD PTR _fBlendingTime$1$[ebp]
  0002c	51		 push	 ecx
  0002d	8d 8e d4 01 00
	00		 lea	 ecx, DWORD PTR [esi+468]
  00033	f3 0f 11 04 24	 movss	 DWORD PTR [esp], xmm0
  00038	e8 00 00 00 00	 call	 ?Stop@CActorInstance@@QAEXM@Z ; CActorInstance::Stop

; 173  : 		if (IsAffect(AFFECT_GYEONGGONG))

  0003d	6a 11		 push	 17			; 00000011H
  0003f	8b ce		 mov	 ecx, esi
  00041	e8 00 00 00 00	 call	 ?IsAffect@CInstanceBase@@QAE_NI@Z ; CInstanceBase::IsAffect

; 174  : 		{
; 175  : 			__EffectContainer_DetachEffect(EFFECT_AFFECT_GYEONGGONG);

  00046	8b ce		 mov	 ecx, esi
  00048	84 c0		 test	 al, al
  0004a	74 0c		 je	 SHORT $LN3@EndWalking
  0004c	6a 2c		 push	 44			; 0000002cH

; 178  : 		{
; 179  : 			__EffectContainer_DetachEffect(EFFECT_AFFECT_KWAESOK);

  0004e	e8 00 00 00 00	 call	 ?__EffectContainer_DetachEffect@CInstanceBase@@IAEXK@Z ; CInstanceBase::__EffectContainer_DetachEffect
  00053	5e		 pop	 esi

; 180  : 		}
; 181  : 	}
; 182  : }

  00054	8b e5		 mov	 esp, ebp
  00056	5d		 pop	 ebp
  00057	c3		 ret	 0
$LN3@EndWalking:

; 176  : 		}
; 177  : 		else if (IsAffect(AFFECT_KWAESOK))

  00058	6a 18		 push	 24			; 00000018H
  0005a	e8 00 00 00 00	 call	 ?IsAffect@CInstanceBase@@QAE_NI@Z ; CInstanceBase::IsAffect
  0005f	84 c0		 test	 al, al
  00061	74 09		 je	 SHORT $LN1@EndWalking

; 178  : 		{
; 179  : 			__EffectContainer_DetachEffect(EFFECT_AFFECT_KWAESOK);

  00063	6a 33		 push	 51			; 00000033H
  00065	8b ce		 mov	 ecx, esi
  00067	e8 00 00 00 00	 call	 ?__EffectContainer_DetachEffect@CInstanceBase@@IAEXK@Z ; CInstanceBase::__EffectContainer_DetachEffect
$LN1@EndWalking:
  0006c	5e		 pop	 esi

; 180  : 		}
; 181  : 	}
; 182  : }

  0006d	8b e5		 mov	 esp, ebp
  0006f	5d		 pop	 ebp
  00070	c3		 ret	 0
?EndWalking@CInstanceBase@@QAEXM@Z ENDP			; CInstanceBase::EndWalking
_TEXT	ENDS
; Function compile flags: /Ogtp
; File d:\metin2\metin2\client_source_clean\client_source_clean\source\userinterface\instancebasemovement.cpp
;	COMDAT ?IsWaiting@CInstanceBase@@QAEHXZ
_TEXT	SEGMENT
?IsWaiting@CInstanceBase@@QAEHXZ PROC			; CInstanceBase::IsWaiting, COMDAT
; _this$ = ecx

; 191  : 	return m_GraphicThingInstance.IsWaiting();

  00000	81 c1 d4 01 00
	00		 add	 ecx, 468		; 000001d4H
  00006	e9 00 00 00 00	 jmp	 ?IsWaiting@CActorInstance@@QAEHXZ ; CActorInstance::IsWaiting
?IsWaiting@CInstanceBase@@QAEHXZ ENDP			; CInstanceBase::IsWaiting
_TEXT	ENDS
; Function compile flags: /Ogtp
; File d:\metin2\metin2\client_source_clean\client_source_clean\source\userinterface\instancebasemovement.cpp
;	COMDAT ?StartWalking@CInstanceBase@@IAEXXZ
_TEXT	SEGMENT
?StartWalking@CInstanceBase@@IAEXXZ PROC		; CInstanceBase::StartWalking, COMDAT
; _this$ = ecx

; 150  : {

  00000	56		 push	 esi
  00001	8b f1		 mov	 esi, ecx

; 151  : 	m_GraphicThingInstance.Move();

  00003	8d 8e d4 01 00
	00		 lea	 ecx, DWORD PTR [esi+468]
  00009	e8 00 00 00 00	 call	 ?Move@CActorInstance@@QAEXXZ ; CActorInstance::Move

; 152  : 
; 153  : 	if (IsAffect(AFFECT_GYEONGGONG))

  0000e	6a 11		 push	 17			; 00000011H
  00010	8b ce		 mov	 ecx, esi
  00012	e8 00 00 00 00	 call	 ?IsAffect@CInstanceBase@@QAE_NI@Z ; CInstanceBase::IsAffect

; 154  : 	{
; 155  : 		m_adwCRCAffectEffect[AFFECT_GYEONGGONG] = __EffectContainer_AttachEffect(EFFECT_AFFECT_GYEONGGONG);

  00017	8b ce		 mov	 ecx, esi
  00019	84 c0		 test	 al, al
  0001b	74 0f		 je	 SHORT $LN3@StartWalki
  0001d	6a 2c		 push	 44			; 0000002cH
  0001f	e8 00 00 00 00	 call	 ?__EffectContainer_AttachEffect@CInstanceBase@@IAEKK@Z ; CInstanceBase::__EffectContainer_AttachEffect
  00024	89 86 94 00 00
	00		 mov	 DWORD PTR [esi+148], eax

; 160  : 	}
; 161  : }

  0002a	5e		 pop	 esi
  0002b	c3		 ret	 0
$LN3@StartWalki:

; 156  : 	}
; 157  : 	else if (IsAffect(AFFECT_KWAESOK))

  0002c	6a 18		 push	 24			; 00000018H
  0002e	e8 00 00 00 00	 call	 ?IsAffect@CInstanceBase@@QAE_NI@Z ; CInstanceBase::IsAffect
  00033	84 c0		 test	 al, al
  00035	74 0f		 je	 SHORT $LN1@StartWalki

; 158  : 	{
; 159  : 		m_adwCRCAffectEffect[AFFECT_KWAESOK] = __EffectContainer_AttachEffect(EFFECT_AFFECT_KWAESOK);

  00037	6a 33		 push	 51			; 00000033H
  00039	8b ce		 mov	 ecx, esi
  0003b	e8 00 00 00 00	 call	 ?__EffectContainer_AttachEffect@CInstanceBase@@IAEKK@Z ; CInstanceBase::__EffectContainer_AttachEffect
  00040	89 86 b0 00 00
	00		 mov	 DWORD PTR [esi+176], eax
$LN1@StartWalki:

; 160  : 	}
; 161  : }

  00046	5e		 pop	 esi
  00047	c3		 ret	 0
?StartWalking@CInstanceBase@@IAEXXZ ENDP		; CInstanceBase::StartWalking
_TEXT	ENDS
; Function compile flags: /Ogtp
; File d:\metin2\metin2\client_source_clean\client_source_clean\source\userinterface\instancebasemovement.cpp
;	COMDAT ?IsWalking@CInstanceBase@@QAEHXZ
_TEXT	SEGMENT
?IsWalking@CInstanceBase@@QAEHXZ PROC			; CInstanceBase::IsWalking, COMDAT
; _this$ = ecx

; 196  : 	return m_GraphicThingInstance.IsMoving();

  00000	81 c1 d4 01 00
	00		 add	 ecx, 468		; 000001d4H
  00006	e9 00 00 00 00	 jmp	 ?IsMoving@CActorInstance@@QAEHXZ ; CActorInstance::IsMoving
?IsWalking@CInstanceBase@@QAEHXZ ENDP			; CInstanceBase::IsWalking
_TEXT	ENDS
; Function compile flags: /Ogtp
; File d:\metin2\metin2\client_source_clean\client_source_clean\source\userinterface\instancebasemovement.cpp
;	COMDAT ?SetRotationSpeed@CInstanceBase@@QAEXM@Z
_TEXT	SEGMENT
?SetRotationSpeed@CInstanceBase@@QAEXM@Z PROC		; CInstanceBase::SetRotationSpeed, COMDAT
; _this$ = ecx
; _fRotSpd$ = xmm1s

; 27   : 	m_fMaxRotSpd = fRotSpd;

  00000	f3 0f 11 89 cc
	01 00 00	 movss	 DWORD PTR [ecx+460], xmm1

; 28   : }

  00008	c3		 ret	 0
?SetRotationSpeed@CInstanceBase@@QAEXM@Z ENDP		; CInstanceBase::SetRotationSpeed
_TEXT	ENDS
; Function compile flags: /Ogtp
; File d:\metin2\metin2\client_source_clean\client_source_clean\source\userinterface\instancebasemovement.cpp
;	COMDAT ?SetAttackSpeed@CInstanceBase@@QAEXI@Z
_TEXT	SEGMENT
_uAtkSpd$ = 8						; size = 4
?SetAttackSpeed@CInstanceBase@@QAEXI@Z PROC		; CInstanceBase::SetAttackSpeed, COMDAT
; _this$ = ecx

; 7    : {

  00000	55		 push	 ebp
  00001	8b ec		 mov	 ebp, esp
  00003	56		 push	 esi

; 8    : 	if (uAtkSpd > 1100)

  00004	8b 75 08	 mov	 esi, DWORD PTR _uAtkSpd$[ebp]
  00007	33 c0		 xor	 eax, eax
  00009	81 fe 4c 04 00
	00		 cmp	 esi, 1100		; 0000044cH
  0000f	57		 push	 edi
  00010	0f 47 f0	 cmova	 esi, eax
  00013	8b f9		 mov	 edi, ecx

; 9    : 		uAtkSpd = 0;
; 10   : 
; 11   : 	m_GraphicThingInstance.SetAttackSpeed(uAtkSpd/100.0f);	

  00015	8b c6		 mov	 eax, esi
  00017	c1 e8 1f	 shr	 eax, 31			; 0000001fH
  0001a	51		 push	 ecx
  0001b	66 0f 6e c6	 movd	 xmm0, esi
  0001f	8d 8f d4 01 00
	00		 lea	 ecx, DWORD PTR [edi+468]
  00025	f3 0f e6 c0	 cvtdq2pd xmm0, xmm0
  00029	f2 0f 58 04 c5
	00 00 00 00	 addsd	 xmm0, QWORD PTR __xmm@41f00000000000000000000000000000[eax*8]
  00032	66 0f 5a c0	 cvtpd2ps xmm0, xmm0
  00036	f3 0f 5e 05 00
	00 00 00	 divss	 xmm0, DWORD PTR __real@42c80000
  0003e	f3 0f 11 04 24	 movss	 DWORD PTR [esp], xmm0
  00043	e8 00 00 00 00	 call	 ?SetAttackSpeed@CActorInstance@@QAEXM@Z ; CActorInstance::SetAttackSpeed

; 12   : 	m_kHorse.SetAttackSpeed(uAtkSpd);

  00048	56		 push	 esi
  00049	8d 4f 04	 lea	 ecx, DWORD PTR [edi+4]
  0004c	e8 00 00 00 00	 call	 ?SetAttackSpeed@SHORSE@CInstanceBase@@QAEXI@Z ; CInstanceBase::SHORSE::SetAttackSpeed
  00051	5f		 pop	 edi
  00052	5e		 pop	 esi

; 13   : }

  00053	5d		 pop	 ebp
  00054	c2 04 00	 ret	 4
?SetAttackSpeed@CInstanceBase@@QAEXI@Z ENDP		; CInstanceBase::SetAttackSpeed
_TEXT	ENDS
; Function compile flags: /Ogtp
; File d:\metin2\metin2\client_source_clean\client_source_clean\source\userinterface\instancebasemovement.cpp
;	COMDAT ?SetMoveSpeed@CInstanceBase@@QAEXI@Z
_TEXT	SEGMENT
_uMovSpd$ = 8						; size = 4
?SetMoveSpeed@CInstanceBase@@QAEXI@Z PROC		; CInstanceBase::SetMoveSpeed, COMDAT
; _this$ = ecx

; 16   : {

  00000	55		 push	 ebp
  00001	8b ec		 mov	 ebp, esp
  00003	56		 push	 esi

; 17   : 	if (uMovSpd > 1100)

  00004	8b 75 08	 mov	 esi, DWORD PTR _uMovSpd$[ebp]
  00007	33 c0		 xor	 eax, eax
  00009	81 fe 4c 04 00
	00		 cmp	 esi, 1100		; 0000044cH
  0000f	57		 push	 edi
  00010	0f 47 f0	 cmova	 esi, eax
  00013	8b f9		 mov	 edi, ecx

; 18   : 		uMovSpd = 0;
; 19   : 
; 20   : 	m_GraphicThingInstance.SetMoveSpeed(uMovSpd/100.0f);	

  00015	8b c6		 mov	 eax, esi
  00017	c1 e8 1f	 shr	 eax, 31			; 0000001fH
  0001a	51		 push	 ecx
  0001b	66 0f 6e c6	 movd	 xmm0, esi
  0001f	8d 8f d4 01 00
	00		 lea	 ecx, DWORD PTR [edi+468]
  00025	f3 0f e6 c0	 cvtdq2pd xmm0, xmm0
  00029	f2 0f 58 04 c5
	00 00 00 00	 addsd	 xmm0, QWORD PTR __xmm@41f00000000000000000000000000000[eax*8]
  00032	66 0f 5a c0	 cvtpd2ps xmm0, xmm0
  00036	f3 0f 5e 05 00
	00 00 00	 divss	 xmm0, DWORD PTR __real@42c80000
  0003e	f3 0f 11 04 24	 movss	 DWORD PTR [esp], xmm0
  00043	e8 00 00 00 00	 call	 ?SetMoveSpeed@CActorInstance@@QAEXM@Z ; CActorInstance::SetMoveSpeed

; 21   : 	m_kHorse.SetMoveSpeed(uMovSpd);

  00048	56		 push	 esi
  00049	8d 4f 04	 lea	 ecx, DWORD PTR [edi+4]
  0004c	e8 00 00 00 00	 call	 ?SetMoveSpeed@SHORSE@CInstanceBase@@QAEXI@Z ; CInstanceBase::SHORSE::SetMoveSpeed
  00051	5f		 pop	 edi
  00052	5e		 pop	 esi

; 22   : }

  00053	5d		 pop	 ebp
  00054	c2 04 00	 ret	 4
?SetMoveSpeed@CInstanceBase@@QAEXI@Z ENDP		; CInstanceBase::SetMoveSpeed
_TEXT	ENDS
; Function compile flags: /Ogtp
; File d:\metin2\metin2\client_source_clean\client_source_clean\source\userinterface\instancebasemovement.cpp
;	COMDAT ?NEW_Stop@CInstanceBase@@QAEXXZ
_TEXT	SEGMENT
?NEW_Stop@CInstanceBase@@QAEXXZ PROC			; CInstanceBase::NEW_Stop, COMDAT
; _this$ = ecx

; 31   : {

  00000	56		 push	 esi
  00001	8b f1		 mov	 esi, ecx

; 32   : 	if (__IsSyncing())

  00003	e8 00 00 00 00	 call	 ?__IsSyncing@CInstanceBase@@QAEHXZ ; CInstanceBase::__IsSyncing
  00008	85 c0		 test	 eax, eax
  0000a	75 3c		 jne	 SHORT $LN5@NEW_Stop

; 33   : 		return;
; 34   : 
; 35   : 	if (isLock())

  0000c	8b ce		 mov	 ecx, esi
  0000e	e8 00 00 00 00	 call	 ?isLock@CInstanceBase@@QAEHXZ ; CInstanceBase::isLock
  00013	85 c0		 test	 eax, eax
  00015	75 31		 jne	 SHORT $LN5@NEW_Stop

; 36   : 		return;
; 37   : 
; 38   : 	if (IsUsingSkill())

  00017	8b ce		 mov	 ecx, esi
  00019	e8 00 00 00 00	 call	 ?IsUsingSkill@CInstanceBase@@QAEHXZ ; CInstanceBase::IsUsingSkill
  0001e	85 c0		 test	 eax, eax
  00020	75 26		 jne	 SHORT $LN5@NEW_Stop

; 39   : 		return;
; 40   : 
; 41   : 	if (!IsWaiting())

  00022	8b ce		 mov	 ecx, esi
  00024	e8 00 00 00 00	 call	 ?IsWaiting@CInstanceBase@@QAEHXZ ; CInstanceBase::IsWaiting
  00029	85 c0		 test	 eax, eax
  0002b	75 0f		 jne	 SHORT $LN1@NEW_Stop

; 42   : 		EndWalking();

  0002d	f3 0f 10 0d 00
	00 00 00	 movss	 xmm1, DWORD PTR __real@3e19999a
  00035	8b ce		 mov	 ecx, esi
  00037	e8 00 00 00 00	 call	 ?EndWalking@CInstanceBase@@QAEXM@Z ; CInstanceBase::EndWalking
$LN1@NEW_Stop:

; 43   : 
; 44   : 	m_GraphicThingInstance.__OnStop();

  0003c	8d 8e d4 01 00
	00		 lea	 ecx, DWORD PTR [esi+468]
  00042	5e		 pop	 esi
  00043	e9 00 00 00 00	 jmp	 ?__OnStop@CActorInstance@@QAEXXZ ; CActorInstance::__OnStop
$LN5@NEW_Stop:
  00048	5e		 pop	 esi

; 45   : }

  00049	c3		 ret	 0
?NEW_Stop@CInstanceBase@@QAEXXZ ENDP			; CInstanceBase::NEW_Stop
_TEXT	ENDS
; Function compile flags: /Ogtp
; File d:\metin2\metin2\client_source_clean\client_source_clean\source\userinterface\instancebasemovement.cpp
;	COMDAT ?NEW_MoveToDestPixelPositionDirection@CInstanceBase@@QAE_NABUD3DXVECTOR3@@@Z
_TEXT	SEGMENT
_kPPosCur$ = -12					; size = 12
_c_rkPPosDst$ = 8					; size = 4
?NEW_MoveToDestPixelPositionDirection@CInstanceBase@@QAE_NABUD3DXVECTOR3@@@Z PROC ; CInstanceBase::NEW_MoveToDestPixelPositionDirection, COMDAT
; _this$ = ecx

; 243  : {

  00000	55		 push	 ebp
  00001	8b ec		 mov	 ebp, esp
  00003	83 ec 10	 sub	 esp, 16			; 00000010H

; 244  : 	TPixelPosition kPPosCur;
; 245  : 	NEW_GetPixelPosition(&kPPosCur);

  00006	8d 45 f4	 lea	 eax, DWORD PTR _kPPosCur$[ebp]
  00009	57		 push	 edi
  0000a	50		 push	 eax
  0000b	8b f9		 mov	 edi, ecx
  0000d	e8 00 00 00 00	 call	 ?NEW_GetPixelPosition@CInstanceBase@@QAEXPAUD3DXVECTOR3@@@Z ; CInstanceBase::NEW_GetPixelPosition

; 246  : 	float fDstRot = NEW_GetAdvancingRotationFromPixelPosition(kPPosCur, c_rkPPosDst);

  00012	ff 75 08	 push	 DWORD PTR _c_rkPPosDst$[ebp]
  00015	8d 45 f4	 lea	 eax, DWORD PTR _kPPosCur$[ebp]
  00018	50		 push	 eax
  00019	e8 00 00 00 00	 call	 ?NEW_GetAdvancingRotationFromPixelPosition@CInstanceBase@@QAEMABUD3DXVECTOR3@@0@Z ; CInstanceBase::NEW_GetAdvancingRotationFromPixelPosition

; 247  : 
; 248  : 	return NEW_Goto(c_rkPPosDst, fDstRot);

  0001e	ff 75 08	 push	 DWORD PTR _c_rkPPosDst$[ebp]
  00021	0f 28 d0	 movaps	 xmm2, xmm0
  00024	8b cf		 mov	 ecx, edi
  00026	e8 00 00 00 00	 call	 ?NEW_Goto@CInstanceBase@@QAE_NABUD3DXVECTOR3@@M@Z ; CInstanceBase::NEW_Goto

; 249  : }

  0002b	5f		 pop	 edi
  0002c	8b e5		 mov	 esp, ebp
  0002e	5d		 pop	 ebp
  0002f	c2 04 00	 ret	 4
?NEW_MoveToDestPixelPositionDirection@CInstanceBase@@QAE_NABUD3DXVECTOR3@@@Z ENDP ; CInstanceBase::NEW_MoveToDestPixelPositionDirection
_TEXT	ENDS
; Function compile flags: /Ogtp
; File d:\metin2\metin2\client_source_clean\client_source_clean\source\userinterface\instancebasemovement.cpp
;	COMDAT ?IsAttacking@CInstanceBase@@QAEHXZ
_TEXT	SEGMENT
?IsAttacking@CInstanceBase@@QAEHXZ PROC			; CInstanceBase::IsAttacking, COMDAT
; _this$ = ecx

; 219  : 	return m_GraphicThingInstance.isAttacking();

  00000	81 c1 d4 01 00
	00		 add	 ecx, 468		; 000001d4H
  00006	e9 00 00 00 00	 jmp	 ?isAttacking@CActorInstance@@QAEHXZ ; CActorInstance::isAttacking
?IsAttacking@CInstanceBase@@QAEHXZ ENDP			; CInstanceBase::IsAttacking
_TEXT	ENDS
; Function compile flags: /Ogtp
; File d:\metin2\metin2\client_source_clean\client_source_clean\source\userinterface\instancebasemovement.cpp
;	COMDAT ?EndGoing@CInstanceBase@@QAEXXZ
_TEXT	SEGMENT
?EndGoing@CInstanceBase@@QAEXXZ PROC			; CInstanceBase::EndGoing, COMDAT
; _this$ = ecx

; 339  : {

  00000	56		 push	 esi
  00001	8b f1		 mov	 esi, ecx

; 340  : 	if (!IsWaiting())

  00003	e8 00 00 00 00	 call	 ?IsWaiting@CInstanceBase@@QAEHXZ ; CInstanceBase::IsWaiting
  00008	85 c0		 test	 eax, eax
  0000a	75 0f		 jne	 SHORT $LN4@EndGoing

; 341  : 		EndWalking();

  0000c	f3 0f 10 0d 00
	00 00 00	 movss	 xmm1, DWORD PTR __real@3e19999a
  00014	8b ce		 mov	 ecx, esi
  00016	e8 00 00 00 00	 call	 ?EndWalking@CInstanceBase@@QAEXM@Z ; CInstanceBase::EndWalking
$LN4@EndGoing:

; 342  : 
; 343  : 	//Tracen("EndGoing");
; 344  : 
; 345  : 	m_isGoing = FALSE;

  0001b	c6 86 88 01 00
	00 00		 mov	 BYTE PTR [esi+392], 0
  00022	5e		 pop	 esi

; 346  : }

  00023	c3		 ret	 0
?EndGoing@CInstanceBase@@QAEXXZ ENDP			; CInstanceBase::EndGoing
_TEXT	ENDS
; Function compile flags: /Ogtp
; File d:\metin2\metin2\client_source_clean\client_source_clean\source\userinterface\instancebasemovement.cpp
;	COMDAT ?IsKnockDown@CInstanceBase@@QAEHXZ
_TEXT	SEGMENT
?IsKnockDown@CInstanceBase@@QAEHXZ PROC			; CInstanceBase::IsKnockDown, COMDAT
; _this$ = ecx

; 211  : 	if (!m_GraphicThingInstance.IsKnockDown())

  00000	81 c1 d4 01 00
	00		 add	 ecx, 468		; 000001d4H
  00006	e8 00 00 00 00	 call	 ?IsKnockDown@CActorInstance@@QAEHXZ ; CActorInstance::IsKnockDown
  0000b	f7 d8		 neg	 eax
  0000d	1b c0		 sbb	 eax, eax
  0000f	f7 d8		 neg	 eax

; 212  : 		return FALSE;
; 213  : 
; 214  : 	return TRUE;
; 215  : }

  00011	c3		 ret	 0
?IsKnockDown@CInstanceBase@@QAEHXZ ENDP			; CInstanceBase::IsKnockDown
_TEXT	ENDS
; Function compile flags: /Ogtp
; File d:\metin2\metin2\client_source_clean\client_source_clean\source\eterlib\grpmath.h
;	COMDAT ?ClampDegree@@YAMM@Z
_TEXT	SEGMENT
?ClampDegree@@YAMM@Z PROC				; ClampDegree, COMDAT
; _fDegree$ = xmm0s

; 34   : 	if (fDegree >= 360.0f)

  00000	f3 0f 10 15 00
	00 00 00	 movss	 xmm2, DWORD PTR __real@43b40000
  00008	0f 2f c2	 comiss	 xmm0, xmm2
  0000b	72 04		 jb	 SHORT $LN2@ClampDegre

; 35   : 		fDegree -= 360.0f;

  0000d	f3 0f 5c c2	 subss	 xmm0, xmm2
$LN2@ClampDegre:
  00011	0f 57 c9	 xorps	 xmm1, xmm1

; 36   : 	if (fDegree < 0.0f)

  00014	0f 2f c8	 comiss	 xmm1, xmm0
  00017	76 04		 jbe	 SHORT $LN1@ClampDegre

; 37   : 		fDegree += 360.0f;

  00019	f3 0f 58 c2	 addss	 xmm0, xmm2
$LN1@ClampDegre:

; 38   : 
; 39   : 	return fDegree;
; 40   : }

  0001d	c3		 ret	 0
?ClampDegree@@YAMM@Z ENDP				; ClampDegree
_TEXT	ENDS
; Function compile flags: /Ogtp
; File d:\metin2\metin2\client_source_clean\client_source_clean\source\userinterface\instancebasemovement.cpp
;	COMDAT ?NEW_SyncPixelPosition@CInstanceBase@@QAEXAAJ0@Z
_TEXT	SEGMENT
_nPPosX$ = 8						; size = 4
_nPPosY$ = 12						; size = 4
?NEW_SyncPixelPosition@CInstanceBase@@QAEXAAJ0@Z PROC	; CInstanceBase::NEW_SyncPixelPosition, COMDAT
; _this$ = ecx

; 48   : {

  00000	55		 push	 ebp
  00001	8b ec		 mov	 ebp, esp

; 49   : 	m_GraphicThingInstance.TEMP_Push(nPPosX, nPPosY);

  00003	8b 45 0c	 mov	 eax, DWORD PTR _nPPosY$[ebp]
  00006	81 c1 d4 01 00
	00		 add	 ecx, 468		; 000001d4H
  0000c	ff 30		 push	 DWORD PTR [eax]
  0000e	8b 45 08	 mov	 eax, DWORD PTR _nPPosX$[ebp]
  00011	ff 30		 push	 DWORD PTR [eax]
  00013	e8 00 00 00 00	 call	 ?TEMP_Push@CActorInstance@@QAEXHH@Z ; CActorInstance::TEMP_Push

; 50   : }

  00018	5d		 pop	 ebp
  00019	c2 08 00	 ret	 8
?NEW_SyncPixelPosition@CInstanceBase@@QAEXAAJ0@Z ENDP	; CInstanceBase::NEW_SyncPixelPosition
_TEXT	ENDS
; Function compile flags: /Ogtp
; File d:\metin2\metin2\client_source_clean\client_source_clean\source\userinterface\instancebasemovement.cpp
;	COMDAT ?NEW_CanMoveToDestPixelPosition@CInstanceBase@@QAE_NABUD3DXVECTOR3@@@Z
_TEXT	SEGMENT
_kPPosCur$ = -12					; size = 12
_c_rkPPosDst$ = 8					; size = 4
?NEW_CanMoveToDestPixelPosition@CInstanceBase@@QAE_NABUD3DXVECTOR3@@@Z PROC ; CInstanceBase::NEW_CanMoveToDestPixelPosition, COMDAT
; _this$ = ecx

; 53   : {

  00000	55		 push	 ebp
  00001	8b ec		 mov	 ebp, esp
  00003	83 ec 0c	 sub	 esp, 12			; 0000000cH

; 54   : 	TPixelPosition kPPosCur;
; 55   : 	NEW_GetPixelPosition(&kPPosCur);

  00006	8d 45 f4	 lea	 eax, DWORD PTR _kPPosCur$[ebp]
  00009	50		 push	 eax
  0000a	e8 00 00 00 00	 call	 ?NEW_GetPixelPosition@CInstanceBase@@QAEXPAUD3DXVECTOR3@@@Z ; CInstanceBase::NEW_GetPixelPosition

; 56   : 
; 57   : 	if (kPPosCur.x==c_rkPPosDst.x && kPPosCur.y==c_rkPPosDst.y)

  0000f	8b 4d 08	 mov	 ecx, DWORD PTR _c_rkPPosDst$[ebp]
  00012	f3 0f 10 45 f4	 movss	 xmm0, DWORD PTR _kPPosCur$[ebp]
  00017	0f 2e 01	 ucomiss xmm0, DWORD PTR [ecx]
  0001a	9f		 lahf
  0001b	f6 c4 44	 test	 ah, 68			; 00000044H
  0001e	7a 17		 jp	 SHORT $LN1@NEW_CanMov
  00020	f3 0f 10 45 f8	 movss	 xmm0, DWORD PTR _kPPosCur$[ebp+4]
  00025	0f 2e 41 04	 ucomiss xmm0, DWORD PTR [ecx+4]
  00029	9f		 lahf
  0002a	f6 c4 44	 test	 ah, 68			; 00000044H
  0002d	7a 08		 jp	 SHORT $LN1@NEW_CanMov

; 58   : 		return false;

  0002f	32 c0		 xor	 al, al

; 61   : }

  00031	8b e5		 mov	 esp, ebp
  00033	5d		 pop	 ebp
  00034	c2 04 00	 ret	 4
$LN1@NEW_CanMov:

; 59   : 	
; 60   : 	return true;

  00037	b0 01		 mov	 al, 1

; 61   : }

  00039	8b e5		 mov	 esp, ebp
  0003b	5d		 pop	 ebp
  0003c	c2 04 00	 ret	 4
?NEW_CanMoveToDestPixelPosition@CInstanceBase@@QAE_NABUD3DXVECTOR3@@@Z ENDP ; CInstanceBase::NEW_CanMoveToDestPixelPosition
_TEXT	ENDS
; Function compile flags: /Ogtp
; File d:\metin2\metin2\client_source_clean\client_source_clean\source\userinterface\instancebasemovement.cpp
; File c:\program files (x86)\microsoft visual studio 12.0\vc\include\math.h
; File d:\metin2\metin2\client_source_clean\client_source_clean\source\userinterface\instancebasemovement.cpp
; File c:\program files (x86)\microsoft visual studio 12.0\vc\include\math.h
; File d:\metin2\metin2\client_source_clean\client_source_clean\extern\include\d3dx8math.inl
; File c:\program files (x86)\microsoft visual studio 12.0\vc\include\math.h
; File d:\metin2\metin2\client_source_clean\client_source_clean\source\userinterface\instancebasemovement.cpp
; File c:\program files (x86)\microsoft visual studio 12.0\vc\include\math.h
; File d:\metin2\metin2\client_source_clean\client_source_clean\extern\include\d3dx8math.inl
; File c:\program files (x86)\microsoft visual studio 12.0\vc\include\math.h
; File d:\metin2\metin2\client_source_clean\client_source_clean\source\userinterface\instancebasemovement.cpp
; File d:\metin2\metin2\client_source_clean\client_source_clean\extern\include\d3dx8math.inl
; File d:\metin2\metin2\client_source_clean\client_source_clean\source\userinterface\instancebasemovement.cpp
; File d:\metin2\metin2\client_source_clean\client_source_clean\extern\include\d3dx8math.inl
; File c:\program files (x86)\microsoft visual studio 12.0\vc\include\math.h
; File d:\metin2\metin2\client_source_clean\client_source_clean\source\userinterface\instancebasemovement.cpp
;	COMDAT ?CInstanceBase_GetDegreeFromPosition@@YAMMM@Z
_TEXT	SEGMENT
tv267 = -32						; size = 8
tv261 = -32						; size = 8
tv258 = -32						; size = 8
tv252 = -32						; size = 8
_y$1$ = -20						; size = 4
_vtDir$ = -16						; size = 12
__$ArrayPad$ = -4					; size = 4
?CInstanceBase_GetDegreeFromPosition@@YAMMM@Z PROC	; CInstanceBase_GetDegreeFromPosition, COMDAT
; _x$ = xmm0s
; _y$ = xmm1s

; 64   : {

  00000	55		 push	 ebp
  00001	8b ec		 mov	 ebp, esp
  00003	83 e4 c0	 and	 esp, -64		; ffffffc0H
  00006	83 ec 40	 sub	 esp, 64			; 00000040H
  00009	a1 00 00 00 00	 mov	 eax, DWORD PTR ___security_cookie
  0000e	33 c4		 xor	 eax, esp
  00010	89 44 24 3c	 mov	 DWORD PTR __$ArrayPad$[esp+64], eax
; File c:\program files (x86)\microsoft visual studio 12.0\vc\include\math.h

; 701  :     return (float)floor(_X);

  00014	f3 0f 5a c0	 cvtss2sd xmm0, xmm0
  00018	83 ec 08	 sub	 esp, 8
; File d:\metin2\metin2\client_source_clean\client_source_clean\source\userinterface\instancebasemovement.cpp

; 64   : {

  0001b	f3 0f 11 4c 24
	34		 movss	 DWORD PTR _y$1$[esp+72], xmm1
; File c:\program files (x86)\microsoft visual studio 12.0\vc\include\math.h

; 701  :     return (float)floor(_X);

  00021	f2 0f 11 44 24
	28		 movsd	 QWORD PTR tv267[esp+72], xmm0
  00027	dd 44 24 28	 fld	 QWORD PTR tv267[esp+72]
  0002b	dd 1c 24	 fstp	 QWORD PTR [esp]
  0002e	e8 00 00 00 00	 call	 _floor
  00033	dd 5c 24 28	 fstp	 QWORD PTR tv261[esp+72]
  00037	f2 0f 10 44 24
	28		 movsd	 xmm0, QWORD PTR tv261[esp+72]
  0003d	66 0f 5a c0	 cvtpd2ps xmm0, xmm0
; File d:\metin2\metin2\client_source_clean\client_source_clean\extern\include\d3dx8math.inl

; 180  :     x = fx;

  00041	f3 0f 11 44 24
	38		 movss	 DWORD PTR _vtDir$[esp+72], xmm0
  00047	f3 0f 10 44 24
	34		 movss	 xmm0, DWORD PTR _y$1$[esp+72]
; File c:\program files (x86)\microsoft visual studio 12.0\vc\include\math.h

; 701  :     return (float)floor(_X);

  0004d	0f 5a c0	 cvtps2pd xmm0, xmm0
  00050	f2 0f 11 44 24
	28		 movsd	 QWORD PTR tv258[esp+72], xmm0
  00056	dd 44 24 28	 fld	 QWORD PTR tv258[esp+72]
  0005a	dd 1c 24	 fstp	 QWORD PTR [esp]
  0005d	e8 00 00 00 00	 call	 _floor
  00062	dd 5c 24 28	 fstp	 QWORD PTR tv252[esp+72]
  00066	f2 0f 10 44 24
	28		 movsd	 xmm0, QWORD PTR tv252[esp+72]
; File d:\metin2\metin2\client_source_clean\client_source_clean\source\userinterface\instancebasemovement.cpp

; 66   : 	D3DXVec3Normalize(&vtDir, &vtDir);

  0006c	8d 44 24 38	 lea	 eax, DWORD PTR _vtDir$[esp+72]
; File c:\program files (x86)\microsoft visual studio 12.0\vc\include\math.h

; 701  :     return (float)floor(_X);

  00070	83 c4 08	 add	 esp, 8
; File d:\metin2\metin2\client_source_clean\client_source_clean\extern\include\d3dx8math.inl

; 182  :     z = fz;

  00073	c7 44 24 38 00
	00 00 00	 mov	 DWORD PTR _vtDir$[esp+72], 0
; File c:\program files (x86)\microsoft visual studio 12.0\vc\include\math.h

; 701  :     return (float)floor(_X);

  0007b	66 0f 5a c0	 cvtpd2ps xmm0, xmm0
; File d:\metin2\metin2\client_source_clean\client_source_clean\source\userinterface\instancebasemovement.cpp

; 66   : 	D3DXVec3Normalize(&vtDir, &vtDir);

  0007f	50		 push	 eax
  00080	50		 push	 eax
; File d:\metin2\metin2\client_source_clean\client_source_clean\extern\include\d3dx8math.inl

; 181  :     y = fy;

  00081	f3 0f 11 44 24
	3c		 movss	 DWORD PTR _vtDir$[esp+76], xmm0
; File d:\metin2\metin2\client_source_clean\client_source_clean\source\userinterface\instancebasemovement.cpp

; 66   : 	D3DXVec3Normalize(&vtDir, &vtDir);

  00087	e8 00 00 00 00	 call	 _D3DXVec3Normalize@8
; File d:\metin2\metin2\client_source_clean\client_source_clean\extern\include\d3dx8math.inl

; 1264 :     return pV1->x * pV2->x + pV1->y * pV2->y + pV1->z * pV2->z;

  0008c	f3 0f 10 4c 24
	30		 movss	 xmm1, DWORD PTR _vtDir$[esp+64]
  00092	0f 57 d2	 xorps	 xmm2, xmm2
  00095	f3 0f 10 44 24
	34		 movss	 xmm0, DWORD PTR _vtDir$[esp+68]
  0009b	f3 0f 59 05 00
	00 00 00	 mulss	 xmm0, DWORD PTR __real@3f800000
  000a3	f3 0f 59 ca	 mulss	 xmm1, xmm2
  000a7	f3 0f 5c c8	 subss	 xmm1, xmm0
  000ab	f3 0f 10 44 24
	38		 movss	 xmm0, DWORD PTR _vtDir$[esp+72]
  000b1	f3 0f 59 c2	 mulss	 xmm0, xmm2
  000b5	f3 0f 58 c8	 addss	 xmm1, xmm0
; File c:\program files (x86)\microsoft visual studio 12.0\vc\include\math.h

; 639  :     return (float)acos(_X);

  000b9	0f 5a c1	 cvtps2pd xmm0, xmm1
  000bc	e8 00 00 00 00	 call	 __libm_sse2_acos_precise
  000c1	0f 57 c9	 xorps	 xmm1, xmm1
  000c4	f2 0f 5a c8	 cvtsd2ss xmm1, xmm0
  000c8	0f 57 c0	 xorps	 xmm0, xmm0
; File d:\metin2\metin2\client_source_clean\client_source_clean\source\userinterface\instancebasemovement.cpp

; 71   : 	if (vtDir.x < 0.0f)

  000cb	0f 2f 44 24 30	 comiss	 xmm0, DWORD PTR _vtDir$[esp+64]
  000d0	f3 0f 59 0d 00
	00 00 00	 mulss	 xmm1, DWORD PTR __real@42652ee0
  000d8	76 1b		 jbe	 SHORT $LN20@CInstanceB

; 72   : 		ret = 360.0f - ret;

  000da	f3 0f 10 05 00
	00 00 00	 movss	 xmm0, DWORD PTR __real@43b40000
  000e2	f3 0f 5c c1	 subss	 xmm0, xmm1

; 73   : 
; 74   : 	return ret;
; 75   : }

  000e6	8b 4c 24 3c	 mov	 ecx, DWORD PTR __$ArrayPad$[esp+64]
  000ea	33 cc		 xor	 ecx, esp
  000ec	e8 00 00 00 00	 call	 @__security_check_cookie@4
  000f1	8b e5		 mov	 esp, ebp
  000f3	5d		 pop	 ebp
  000f4	c3		 ret	 0
$LN20@CInstanceB:
  000f5	8b 4c 24 3c	 mov	 ecx, DWORD PTR __$ArrayPad$[esp+64]
  000f9	0f 28 c1	 movaps	 xmm0, xmm1
  000fc	33 cc		 xor	 ecx, esp
  000fe	e8 00 00 00 00	 call	 @__security_check_cookie@4
  00103	8b e5		 mov	 esp, ebp
  00105	5d		 pop	 ebp
  00106	c3		 ret	 0
?CInstanceBase_GetDegreeFromPosition@@YAMMM@Z ENDP	; CInstanceBase_GetDegreeFromPosition
_TEXT	ENDS
; Function compile flags: /Ogtp
; File d:\metin2\metin2\client_source_clean\client_source_clean\source\userinterface\instancebasemovement.cpp
; File d:\metin2\metin2\client_source_clean\client_source_clean\source\eterlib\grpmath.h
; File d:\metin2\metin2\client_source_clean\client_source_clean\source\userinterface\instancebasemovement.cpp
;	COMDAT ?NEW_GetAdvancingRotationFromDirPixelPosition@CInstanceBase@@QAEMABUD3DXVECTOR3@@@Z
_TEXT	SEGMENT
_c_rkPPosDir$ = 8					; size = 4
?NEW_GetAdvancingRotationFromDirPixelPosition@CInstanceBase@@QAEMABUD3DXVECTOR3@@@Z PROC ; CInstanceBase::NEW_GetAdvancingRotationFromDirPixelPosition, COMDAT
; _this$dead$ = ecx

; 78   : {	

  00000	55		 push	 ebp
  00001	8b ec		 mov	 ebp, esp
  00003	51		 push	 ecx

; 79   : 	float fDirRot=CInstanceBase_GetDegreeFromPosition(c_rkPPosDir.x, -c_rkPPosDir.y);

  00004	8b 45 08	 mov	 eax, DWORD PTR _c_rkPPosDir$[ebp]
  00007	f3 0f 10 48 04	 movss	 xmm1, DWORD PTR [eax+4]
  0000c	0f 57 0d 00 00
	00 00		 xorps	 xmm1, DWORD PTR __xmm@80000000800000008000000080000000
  00013	f3 0f 10 00	 movss	 xmm0, DWORD PTR [eax]
  00017	e8 00 00 00 00	 call	 ?CInstanceBase_GetDegreeFromPosition@@YAMMM@Z ; CInstanceBase_GetDegreeFromPosition
; File d:\metin2\metin2\client_source_clean\client_source_clean\source\eterlib\grpmath.h

; 34   : 	if (fDegree >= 360.0f)

  0001c	f3 0f 10 15 00
	00 00 00	 movss	 xmm2, DWORD PTR __real@43b40000
  00024	0f 2f c2	 comiss	 xmm0, xmm2
  00027	72 04		 jb	 SHORT $LN4@NEW_GetAdv

; 35   : 		fDegree -= 360.0f;

  00029	f3 0f 5c c2	 subss	 xmm0, xmm2
$LN4@NEW_GetAdv:
  0002d	0f 57 c9	 xorps	 xmm1, xmm1

; 36   : 	if (fDegree < 0.0f)

  00030	0f 2f c8	 comiss	 xmm1, xmm0
  00033	76 04		 jbe	 SHORT $LN3@NEW_GetAdv

; 37   : 		fDegree += 360.0f;

  00035	f3 0f 58 c2	 addss	 xmm0, xmm2
$LN3@NEW_GetAdv:
  00039	59		 pop	 ecx
; File d:\metin2\metin2\client_source_clean\client_source_clean\source\userinterface\instancebasemovement.cpp

; 83   : }

  0003a	5d		 pop	 ebp
  0003b	c2 04 00	 ret	 4
?NEW_GetAdvancingRotationFromDirPixelPosition@CInstanceBase@@QAEMABUD3DXVECTOR3@@@Z ENDP ; CInstanceBase::NEW_GetAdvancingRotationFromDirPixelPosition
_TEXT	ENDS
; Function compile flags: /Ogtp
; File d:\metin2\metin2\client_source_clean\client_source_clean\source\userinterface\instancebasemovement.cpp
;	COMDAT ?NEW_SetAdvancingRotationFromDirPixelPosition@CInstanceBase@@QAEXABUD3DXVECTOR3@@@Z
_TEXT	SEGMENT
_fCurRot$ = -4						; size = 4
_fAdvRot$ = 8						; size = 4
_c_rkPPosDir$ = 8					; size = 4
?NEW_SetAdvancingRotationFromDirPixelPosition@CInstanceBase@@QAEXABUD3DXVECTOR3@@@Z PROC ; CInstanceBase::NEW_SetAdvancingRotationFromDirPixelPosition, COMDAT
; _this$ = ecx

; 101  : {

  00000	55		 push	 ebp
  00001	8b ec		 mov	 ebp, esp
  00003	51		 push	 ecx
  00004	56		 push	 esi
  00005	57		 push	 edi

; 102  : 	float fClampDirRot=NEW_GetAdvancingRotationFromDirPixelPosition(c_rkPPosDir);

  00006	ff 75 08	 push	 DWORD PTR _c_rkPPosDir$[ebp]
  00009	8b f9		 mov	 edi, ecx
  0000b	e8 00 00 00 00	 call	 ?NEW_GetAdvancingRotationFromDirPixelPosition@CInstanceBase@@QAEMABUD3DXVECTOR3@@@Z ; CInstanceBase::NEW_GetAdvancingRotationFromDirPixelPosition

; 103  : 	m_GraphicThingInstance.SetAdvancingRotation(fClampDirRot);

  00010	51		 push	 ecx
  00011	8d 8f d4 01 00
	00		 lea	 ecx, DWORD PTR [edi+468]
  00017	f3 0f 11 04 24	 movss	 DWORD PTR [esp], xmm0
  0001c	e8 00 00 00 00	 call	 ?SetAdvancingRotation@CActorInstance@@QAEXM@Z ; CActorInstance::SetAdvancingRotation

; 104  : 
; 105  : 	float fCurRot=m_GraphicThingInstance.GetRotation();

  00021	8d 8f d4 01 00
	00		 lea	 ecx, DWORD PTR [edi+468]
  00027	e8 00 00 00 00	 call	 ?GetRotation@CActorInstance@@QAEMXZ ; CActorInstance::GetRotation
  0002c	d9 5d fc	 fstp	 DWORD PTR _fCurRot$[ebp]

; 106  : 	float fAdvRot=m_GraphicThingInstance.GetAdvancingRotation();

  0002f	8d 8f d4 01 00
	00		 lea	 ecx, DWORD PTR [edi+468]
  00035	e8 00 00 00 00	 call	 ?GetAdvancingRotation@CActorInstance@@QAEMXZ ; CActorInstance::GetAdvancingRotation

; 107  : 
; 108  : 	m_iRotatingDirection = GetRotatingDirection(fCurRot, fAdvRot);

  0003a	83 ec 08	 sub	 esp, 8
  0003d	d9 5d 08	 fstp	 DWORD PTR _fAdvRot$[ebp]
  00040	f3 0f 10 45 08	 movss	 xmm0, DWORD PTR _fAdvRot$[ebp]
  00045	f3 0f 11 44 24
	04		 movss	 DWORD PTR [esp+4], xmm0
  0004b	f3 0f 10 45 fc	 movss	 xmm0, DWORD PTR _fCurRot$[ebp]
  00050	f3 0f 11 04 24	 movss	 DWORD PTR [esp], xmm0
  00055	e8 00 00 00 00	 call	 ?GetRotatingDirection@@YAHMM@Z ; GetRotatingDirection
  0005a	83 c4 08	 add	 esp, 8
  0005d	89 87 74 01 00
	00		 mov	 DWORD PTR [edi+372], eax

; 109  : }

  00063	5f		 pop	 edi
  00064	5e		 pop	 esi
  00065	8b e5		 mov	 esp, ebp
  00067	5d		 pop	 ebp
  00068	c2 04 00	 ret	 4
?NEW_SetAdvancingRotationFromDirPixelPosition@CInstanceBase@@QAEXABUD3DXVECTOR3@@@Z ENDP ; CInstanceBase::NEW_SetAdvancingRotationFromDirPixelPosition
_TEXT	ENDS
; Function compile flags: /Ogtp
; File d:\metin2\metin2\client_source_clean\client_source_clean\source\userinterface\instancebasemovement.cpp
; File d:\metin2\metin2\client_source_clean\client_source_clean\extern\include\d3dx8math.inl
; File d:\metin2\metin2\client_source_clean\client_source_clean\source\userinterface\instancebasemovement.cpp
;	COMDAT ?NEW_SetAdvancingRotationFromPixelPosition@CInstanceBase@@QAEXABUD3DXVECTOR3@@0@Z
_TEXT	SEGMENT
$T1 = -24						; size = 12
_kPPosDelta$ = -12					; size = 12
_c_rkPPosSrc$ = 8					; size = 4
_c_rkPPosDst$ = 12					; size = 4
?NEW_SetAdvancingRotationFromPixelPosition@CInstanceBase@@QAEXABUD3DXVECTOR3@@0@Z PROC ; CInstanceBase::NEW_SetAdvancingRotationFromPixelPosition, COMDAT
; _this$ = ecx

; 113  : {

  00000	55		 push	 ebp
  00001	8b ec		 mov	 ebp, esp
  00003	83 ec 18	 sub	 esp, 24			; 00000018H
; File d:\metin2\metin2\client_source_clean\client_source_clean\extern\include\d3dx8math.inl

; 263  :     return D3DXVECTOR3(x - v.x, y - v.y, z - v.z);

  00006	8b 55 0c	 mov	 edx, DWORD PTR _c_rkPPosDst$[ebp]
  00009	8b 45 08	 mov	 eax, DWORD PTR _c_rkPPosSrc$[ebp]
  0000c	f3 0f 10 42 08	 movss	 xmm0, DWORD PTR [edx+8]
  00011	f3 0f 5c 40 08	 subss	 xmm0, DWORD PTR [eax+8]
  00016	f3 0f 10 12	 movss	 xmm2, DWORD PTR [edx]
  0001a	f3 0f 5c 10	 subss	 xmm2, DWORD PTR [eax]
  0001e	f3 0f 10 4a 04	 movss	 xmm1, DWORD PTR [edx+4]
  00023	f3 0f 5c 48 04	 subss	 xmm1, DWORD PTR [eax+4]

; 182  :     z = fz;

  00028	f3 0f 11 45 f0	 movss	 DWORD PTR $T1[ebp+8], xmm0
; File d:\metin2\metin2\client_source_clean\client_source_clean\source\userinterface\instancebasemovement.cpp

; 115  : 	kPPosDelta=c_rkPPosDst-c_rkPPosSrc;

  0002d	8b 45 f0	 mov	 eax, DWORD PTR $T1[ebp+8]
  00030	89 45 fc	 mov	 DWORD PTR _kPPosDelta$[ebp+8], eax

; 116  : 
; 117  : 	NEW_SetAdvancingRotationFromDirPixelPosition(kPPosDelta);

  00033	8d 45 f4	 lea	 eax, DWORD PTR _kPPosDelta$[ebp]
  00036	50		 push	 eax
  00037	0f 14 d1	 unpcklps xmm2, xmm1
  0003a	66 0f d6 55 f4	 movq	 QWORD PTR _kPPosDelta$[ebp], xmm2
  0003f	e8 00 00 00 00	 call	 ?NEW_SetAdvancingRotationFromDirPixelPosition@CInstanceBase@@QAEXABUD3DXVECTOR3@@@Z ; CInstanceBase::NEW_SetAdvancingRotationFromDirPixelPosition

; 118  : }

  00044	8b e5		 mov	 esp, ebp
  00046	5d		 pop	 ebp
  00047	c2 08 00	 ret	 8
?NEW_SetAdvancingRotationFromPixelPosition@CInstanceBase@@QAEXABUD3DXVECTOR3@@0@Z ENDP ; CInstanceBase::NEW_SetAdvancingRotationFromPixelPosition
_TEXT	ENDS
; Function compile flags: /Ogtp
; File d:\metin2\metin2\client_source_clean\client_source_clean\source\userinterface\instancebasemovement.cpp
;	COMDAT ?IsPushing@CInstanceBase@@QAEHXZ
_TEXT	SEGMENT
?IsPushing@CInstanceBase@@QAEHXZ PROC			; CInstanceBase::IsPushing, COMDAT
; _this$ = ecx

; 201  : 	return m_GraphicThingInstance.IsPushing();

  00000	81 c1 d4 01 00
	00		 add	 ecx, 468		; 000001d4H
  00006	e8 00 00 00 00	 call	 ?IsPushing@CActorInstance@@QAE_NXZ ; CActorInstance::IsPushing
  0000b	0f b6 c0	 movzx	 eax, al

; 202  : }

  0000e	c3		 ret	 0
?IsPushing@CInstanceBase@@QAEHXZ ENDP			; CInstanceBase::IsPushing
_TEXT	ENDS
; Function compile flags: /Ogtp
; File d:\metin2\metin2\client_source_clean\client_source_clean\source\userinterface\instancebasemovement.cpp
;	COMDAT ?IsAttacked@CInstanceBase@@QAEHXZ
_TEXT	SEGMENT
?IsAttacked@CInstanceBase@@QAEHXZ PROC			; CInstanceBase::IsAttacked, COMDAT
; _this$ = ecx

; 206  : 	return m_GraphicThingInstance.IsAttacked();		

  00000	81 c1 d4 01 00
	00		 add	 ecx, 468		; 000001d4H
  00006	e9 00 00 00 00	 jmp	 ?IsAttacked@CActorInstance@@QAEHXZ ; CActorInstance::IsAttacked
?IsAttacked@CInstanceBase@@QAEHXZ ENDP			; CInstanceBase::IsAttacked
_TEXT	ENDS
; Function compile flags: /Ogtp
; File d:\metin2\metin2\client_source_clean\client_source_clean\source\userinterface\instancebasemovement.cpp
;	COMDAT ?IsActingEmotion@CInstanceBase@@QAEHXZ
_TEXT	SEGMENT
?IsActingEmotion@CInstanceBase@@QAEHXZ PROC		; CInstanceBase::IsActingEmotion, COMDAT
; _this$ = ecx

; 224  : 	return m_GraphicThingInstance.IsActEmotion();

  00000	81 c1 d4 01 00
	00		 add	 ecx, 468		; 000001d4H
  00006	e9 00 00 00 00	 jmp	 ?IsActEmotion@CActorInstance@@QAEHXZ ; CActorInstance::IsActEmotion
?IsActingEmotion@CInstanceBase@@QAEHXZ ENDP		; CInstanceBase::IsActingEmotion
_TEXT	ENDS
; Function compile flags: /Ogtp
; File d:\metin2\metin2\client_source_clean\client_source_clean\source\userinterface\instancebasemovement.cpp
;	COMDAT ?NEW_MoveToDestInstanceDirection@CInstanceBase@@QAEXAAV1@@Z
_TEXT	SEGMENT
_kPPosDst$ = -16					; size = 12
__$ArrayPad$ = -4					; size = 4
_rkInstDst$ = 8						; size = 4
?NEW_MoveToDestInstanceDirection@CInstanceBase@@QAEXAAV1@@Z PROC ; CInstanceBase::NEW_MoveToDestInstanceDirection, COMDAT
; _this$ = ecx

; 235  : {

  00000	55		 push	 ebp
  00001	8b ec		 mov	 ebp, esp
  00003	83 ec 10	 sub	 esp, 16			; 00000010H
  00006	a1 00 00 00 00	 mov	 eax, DWORD PTR ___security_cookie
  0000b	33 c5		 xor	 eax, ebp
  0000d	89 45 fc	 mov	 DWORD PTR __$ArrayPad$[ebp], eax
  00010	56		 push	 esi

; 236  : 	TPixelPosition kPPosDst;
; 237  : 	rkInstDst.NEW_GetPixelPosition(&kPPosDst);

  00011	8d 45 f0	 lea	 eax, DWORD PTR _kPPosDst$[ebp]
  00014	8b f1		 mov	 esi, ecx
  00016	8b 4d 08	 mov	 ecx, DWORD PTR _rkInstDst$[ebp]
  00019	50		 push	 eax
  0001a	e8 00 00 00 00	 call	 ?NEW_GetPixelPosition@CInstanceBase@@QAEXPAUD3DXVECTOR3@@@Z ; CInstanceBase::NEW_GetPixelPosition

; 238  : 
; 239  : 	NEW_MoveToDestPixelPositionDirection(kPPosDst);

  0001f	8d 45 f0	 lea	 eax, DWORD PTR _kPPosDst$[ebp]
  00022	8b ce		 mov	 ecx, esi
  00024	50		 push	 eax
  00025	e8 00 00 00 00	 call	 ?NEW_MoveToDestPixelPositionDirection@CInstanceBase@@QAE_NABUD3DXVECTOR3@@@Z ; CInstanceBase::NEW_MoveToDestPixelPositionDirection

; 240  : }

  0002a	8b 4d fc	 mov	 ecx, DWORD PTR __$ArrayPad$[ebp]
  0002d	33 cd		 xor	 ecx, ebp
  0002f	5e		 pop	 esi
  00030	e8 00 00 00 00	 call	 @__security_check_cookie@4
  00035	8b e5		 mov	 esp, ebp
  00037	5d		 pop	 ebp
  00038	c2 04 00	 ret	 4
?NEW_MoveToDestInstanceDirection@CInstanceBase@@QAEXAAV1@@Z ENDP ; CInstanceBase::NEW_MoveToDestInstanceDirection
_TEXT	ENDS
; Function compile flags: /Ogtp
; File d:\metin2\metin2\client_source_clean\client_source_clean\source\userinterface\instancebasemovement.cpp
;	COMDAT ?NEW_Goto@CInstanceBase@@QAE_NABUD3DXVECTOR3@@M@Z
_TEXT	SEGMENT
_fDstRot$1$ = -4					; size = 4
_c_rkPPosDst$ = 8					; size = 4
?NEW_Goto@CInstanceBase@@QAE_NABUD3DXVECTOR3@@M@Z PROC	; CInstanceBase::NEW_Goto, COMDAT
; _this$ = ecx
; _fDstRot$ = xmm2s

; 252  : {

  00000	55		 push	 ebp
  00001	8b ec		 mov	 ebp, esp
  00003	83 ec 08	 sub	 esp, 8
  00006	56		 push	 esi
  00007	f3 0f 11 55 fc	 movss	 DWORD PTR _fDstRot$1$[ebp], xmm2
  0000c	8b f1		 mov	 esi, ecx

; 253  : 	if (__IsSyncing())

  0000e	e8 00 00 00 00	 call	 ?__IsSyncing@CInstanceBase@@QAEHXZ ; CInstanceBase::__IsSyncing
  00013	85 c0		 test	 eax, eax
  00015	74 09		 je	 SHORT $LN6@NEW_Goto
$LN10@NEW_Goto:

; 254  : 	{
; 255  : 		return false;

  00017	32 c0		 xor	 al, al

; 291  : }

  00019	5e		 pop	 esi
  0001a	8b e5		 mov	 esp, ebp
  0001c	5d		 pop	 ebp
  0001d	c2 04 00	 ret	 4
$LN6@NEW_Goto:

; 256  : 	}
; 257  : 
; 258  : 	if (m_GraphicThingInstance.IsUsingMovingSkill())

  00020	8d 8e d4 01 00
	00		 lea	 ecx, DWORD PTR [esi+468]
  00026	e8 00 00 00 00	 call	 ?IsUsingMovingSkill@CActorInstance@@QAEHXZ ; CActorInstance::IsUsingMovingSkill

; 259  : 	{
; 260  : 		SetAdvancingRotation(fDstRot);

  0002b	8b ce		 mov	 ecx, esi
  0002d	85 c0		 test	 eax, eax
  0002f	74 13		 je	 SHORT $LN5@NEW_Goto
  00031	f3 0f 10 4d fc	 movss	 xmm1, DWORD PTR _fDstRot$1$[ebp]
  00036	e8 00 00 00 00	 call	 ?SetAdvancingRotation@CInstanceBase@@QAEXM@Z ; CInstanceBase::SetAdvancingRotation

; 289  : 
; 290  : 	return true;

  0003b	b0 01		 mov	 al, 1

; 291  : }

  0003d	5e		 pop	 esi
  0003e	8b e5		 mov	 esp, ebp
  00040	5d		 pop	 ebp
  00041	c2 04 00	 ret	 4
$LN5@NEW_Goto:

; 261  : 		return true;
; 262  : 	}
; 263  : 
; 264  : 	if (isLock())

  00044	e8 00 00 00 00	 call	 ?isLock@CInstanceBase@@QAEHXZ ; CInstanceBase::isLock
  00049	85 c0		 test	 eax, eax
  0004b	75 ca		 jne	 SHORT $LN10@NEW_Goto

; 265  : 	{
; 266  : 		return false;
; 267  : 	}
; 268  : 
; 269  : 	if (!NEW_CanMoveToDestPixelPosition(c_rkPPosDst))

  0004d	ff 75 08	 push	 DWORD PTR _c_rkPPosDst$[ebp]
  00050	8b ce		 mov	 ecx, esi
  00052	e8 00 00 00 00	 call	 ?NEW_CanMoveToDestPixelPosition@CInstanceBase@@QAE_NABUD3DXVECTOR3@@@Z ; CInstanceBase::NEW_CanMoveToDestPixelPosition

; 270  : 	{
; 271  : 		if (!IsWaiting())

  00057	8b ce		 mov	 ecx, esi
  00059	84 c0		 test	 al, al
  0005b	75 21		 jne	 SHORT $LN3@NEW_Goto
  0005d	e8 00 00 00 00	 call	 ?IsWaiting@CInstanceBase@@QAEHXZ ; CInstanceBase::IsWaiting
  00062	85 c0		 test	 eax, eax
  00064	75 7f		 jne	 SHORT $LN9@NEW_Goto

; 272  : 			EndWalking();

  00066	f3 0f 10 0d 00
	00 00 00	 movss	 xmm1, DWORD PTR __real@3e19999a
  0006e	8b ce		 mov	 ecx, esi
  00070	e8 00 00 00 00	 call	 ?EndWalking@CInstanceBase@@QAEXM@Z ; CInstanceBase::EndWalking

; 289  : 
; 290  : 	return true;

  00075	b0 01		 mov	 al, 1

; 291  : }

  00077	5e		 pop	 esi
  00078	8b e5		 mov	 esp, ebp
  0007a	5d		 pop	 ebp
  0007b	c2 04 00	 ret	 4
$LN3@NEW_Goto:

; 273  : 
; 274  : 		return true;
; 275  : 	}
; 276  : 
; 277  : 	NEW_SetSrcPixelPosition(NEW_GetCurPixelPositionRef());

  0007e	e8 00 00 00 00	 call	 ?NEW_GetCurPixelPositionRef@CInstanceBase@@IAEABUD3DXVECTOR3@@XZ ; CInstanceBase::NEW_GetCurPixelPositionRef
  00083	50		 push	 eax
  00084	8b ce		 mov	 ecx, esi
  00086	e8 00 00 00 00	 call	 ?NEW_SetSrcPixelPosition@CInstanceBase@@IAEXABUD3DXVECTOR3@@@Z ; CInstanceBase::NEW_SetSrcPixelPosition

; 278  : 	NEW_SetDstPixelPosition(c_rkPPosDst);

  0008b	ff 75 08	 push	 DWORD PTR _c_rkPPosDst$[ebp]
  0008e	8b ce		 mov	 ecx, esi
  00090	e8 00 00 00 00	 call	 ?NEW_SetDstPixelPosition@CInstanceBase@@IAEXABUD3DXVECTOR3@@@Z ; CInstanceBase::NEW_SetDstPixelPosition

; 279  : 	NEW_SetDstPixelPositionZ(NEW_GetSrcPixelPositionRef().z);

  00095	8b ce		 mov	 ecx, esi
  00097	e8 00 00 00 00	 call	 ?NEW_GetSrcPixelPositionRef@CInstanceBase@@IAEABUD3DXVECTOR3@@XZ ; CInstanceBase::NEW_GetSrcPixelPositionRef
  0009c	8b ce		 mov	 ecx, esi
  0009e	f3 0f 10 48 08	 movss	 xmm1, DWORD PTR [eax+8]
  000a3	e8 00 00 00 00	 call	 ?NEW_SetDstPixelPositionZ@CInstanceBase@@IAEXM@Z ; CInstanceBase::NEW_SetDstPixelPositionZ

; 280  : 	m_fDstRot=fDstRot;

  000a8	f3 0f 10 45 fc	 movss	 xmm0, DWORD PTR _fDstRot$1$[ebp]

; 281  : 	m_isGoing = TRUE;
; 282  : 
; 283  : 	if (!IsWalking())

  000ad	8b ce		 mov	 ecx, esi
  000af	f3 0f 11 86 c0
	01 00 00	 movss	 DWORD PTR [esi+448], xmm0
  000b7	c6 86 88 01 00
	00 01		 mov	 BYTE PTR [esi+392], 1
  000be	e8 00 00 00 00	 call	 ?IsWalking@CInstanceBase@@QAEHXZ ; CInstanceBase::IsWalking
  000c3	85 c0		 test	 eax, eax
  000c5	75 07		 jne	 SHORT $LN1@NEW_Goto

; 284  : 	{
; 285  : 		StartWalking();

  000c7	8b ce		 mov	 ecx, esi
  000c9	e8 00 00 00 00	 call	 ?StartWalking@CInstanceBase@@IAEXXZ ; CInstanceBase::StartWalking
$LN1@NEW_Goto:

; 286  : 	}
; 287  : 
; 288  : 	NEW_SetAdvancingRotationFromPixelPosition(NEW_GetSrcPixelPositionRef(), NEW_GetDstPixelPositionRef());

  000ce	8b ce		 mov	 ecx, esi
  000d0	e8 00 00 00 00	 call	 ?NEW_GetDstPixelPositionRef@CInstanceBase@@QAEABUD3DXVECTOR3@@XZ ; CInstanceBase::NEW_GetDstPixelPositionRef
  000d5	50		 push	 eax
  000d6	8b ce		 mov	 ecx, esi
  000d8	e8 00 00 00 00	 call	 ?NEW_GetSrcPixelPositionRef@CInstanceBase@@IAEABUD3DXVECTOR3@@XZ ; CInstanceBase::NEW_GetSrcPixelPositionRef
  000dd	50		 push	 eax
  000de	8b ce		 mov	 ecx, esi
  000e0	e8 00 00 00 00	 call	 ?NEW_SetAdvancingRotationFromPixelPosition@CInstanceBase@@QAEXABUD3DXVECTOR3@@0@Z ; CInstanceBase::NEW_SetAdvancingRotationFromPixelPosition
$LN9@NEW_Goto:

; 289  : 
; 290  : 	return true;

  000e5	b0 01		 mov	 al, 1

; 291  : }

  000e7	5e		 pop	 esi
  000e8	8b e5		 mov	 esp, ebp
  000ea	5d		 pop	 ebp
  000eb	c2 04 00	 ret	 4
?NEW_Goto@CInstanceBase@@QAE_NABUD3DXVECTOR3@@M@Z ENDP	; CInstanceBase::NEW_Goto
_TEXT	ENDS
; Function compile flags: /Ogtp
; File d:\metin2\metin2\client_source_clean\client_source_clean\source\userinterface\instancebasemovement.cpp
; File d:\metin2\metin2\client_source_clean\client_source_clean\extern\include\d3dx8math.inl
; File d:\metin2\metin2\client_source_clean\client_source_clean\source\userinterface\instancebasemovement.cpp
; File d:\metin2\metin2\client_source_clean\client_source_clean\extern\include\d3dx8math.inl
; File d:\metin2\metin2\client_source_clean\client_source_clean\source\userinterface\instancebasemovement.cpp
; File d:\metin2\metin2\client_source_clean\client_source_clean\extern\include\d3dx8math.inl
; File d:\metin2\metin2\client_source_clean\client_source_clean\source\userinterface\instancebasemovement.cpp
; File d:\metin2\metin2\client_source_clean\client_source_clean\extern\include\d3dx8math.inl
; File d:\metin2\metin2\client_source_clean\client_source_clean\source\userinterface\instancebasemovement.cpp
; File d:\metin2\metin2\client_source_clean\client_source_clean\extern\include\d3dx8math.inl
; File d:\metin2\metin2\client_source_clean\client_source_clean\source\userinterface\instancebasemovement.cpp
; File d:\metin2\metin2\client_source_clean\client_source_clean\extern\include\d3dx8math.inl
; File d:\metin2\metin2\client_source_clean\client_source_clean\source\userinterface\instancebasemovement.cpp
; File d:\metin2\metin2\client_source_clean\client_source_clean\extern\include\d3dx8math.inl
; File d:\metin2\metin2\client_source_clean\client_source_clean\source\userinterface\instancebasemovement.cpp
; File d:\metin2\metin2\client_source_clean\client_source_clean\extern\include\d3dx8math.inl
; File d:\metin2\metin2\client_source_clean\client_source_clean\source\userinterface\instancebasemovement.cpp
; File d:\metin2\metin2\client_source_clean\client_source_clean\extern\include\d3dx8math.inl
; File d:\metin2\metin2\client_source_clean\client_source_clean\source\userinterface\instancebasemovement.cpp
;	COMDAT ?NEW_MoveToDirection@CInstanceBase@@QAEXM@Z
_TEXT	SEGMENT
_fDirRot$1$ = -124					; size = 4
_kD3DVt3Cur$3$ = -120					; size = 4
_kD3DVt3Dst$2$ = -116					; size = 4
_kD3DVt3Cur$1$ = -112					; size = 4
_kD3DVt3AdvDir$ = -108					; size = 12
_kPPosCur$ = -96					; size = 12
_kPPosDst$ = -84					; size = 12
_kD3DMatAdv$ = -72					; size = 64
__$ArrayPad$ = -4					; size = 4
?NEW_MoveToDirection@CInstanceBase@@QAEXM@Z PROC	; CInstanceBase::NEW_MoveToDirection, COMDAT
; _this$ = ecx
; _fDirRot$ = xmm1s

; 294  : {

  00000	55		 push	 ebp
  00001	8b ec		 mov	 ebp, esp
  00003	83 e4 f8	 and	 esp, -8			; fffffff8H
  00006	83 ec 7c	 sub	 esp, 124		; 0000007cH
  00009	a1 00 00 00 00	 mov	 eax, DWORD PTR ___security_cookie
  0000e	33 c4		 xor	 eax, esp
  00010	89 44 24 78	 mov	 DWORD PTR __$ArrayPad$[esp+124], eax
  00014	56		 push	 esi
  00015	f3 0f 11 4c 24
	04		 movss	 DWORD PTR _fDirRot$1$[esp+128], xmm1
  0001b	8b f1		 mov	 esi, ecx

; 295  : 	if (__IsSyncing())

  0001d	e8 00 00 00 00	 call	 ?__IsSyncing@CInstanceBase@@QAEHXZ ; CInstanceBase::__IsSyncing
  00022	85 c0		 test	 eax, eax
  00024	0f 85 5a 01 00
	00		 jne	 $LN5@NEW_MoveTo

; 296  : 		return;
; 297  : 
; 298  : 	if (m_GraphicThingInstance.IsUsingMovingSkill())

  0002a	8d 8e d4 01 00
	00		 lea	 ecx, DWORD PTR [esi+468]
  00030	e8 00 00 00 00	 call	 ?IsUsingMovingSkill@CActorInstance@@QAEHXZ ; CActorInstance::IsUsingMovingSkill

; 299  : 	{
; 300  : 		SetAdvancingRotation(fDirRot);

  00035	8b ce		 mov	 ecx, esi
  00037	85 c0		 test	 eax, eax
  00039	74 1b		 je	 SHORT $LN3@NEW_MoveTo
  0003b	f3 0f 10 4c 24
	04		 movss	 xmm1, DWORD PTR _fDirRot$1$[esp+128]
  00041	e8 00 00 00 00	 call	 ?SetAdvancingRotation@CInstanceBase@@QAEXM@Z ; CInstanceBase::SetAdvancingRotation

; 336  : }

  00046	5e		 pop	 esi
  00047	8b 4c 24 78	 mov	 ecx, DWORD PTR __$ArrayPad$[esp+124]
  0004b	33 cc		 xor	 ecx, esp
  0004d	e8 00 00 00 00	 call	 @__security_check_cookie@4
  00052	8b e5		 mov	 esp, ebp
  00054	5d		 pop	 ebp
  00055	c3		 ret	 0
$LN3@NEW_MoveTo:

; 301  : 		return;
; 302  : 	}
; 303  : 
; 304  : 	if (isLock())

  00056	e8 00 00 00 00	 call	 ?isLock@CInstanceBase@@QAEHXZ ; CInstanceBase::isLock
  0005b	85 c0		 test	 eax, eax
  0005d	0f 85 21 01 00
	00		 jne	 $LN5@NEW_MoveTo

; 305  : 		return;
; 306  : 
; 307  : 	m_isGoing = FALSE;
; 308  : 
; 309  : 	SetAdvancingRotation(fDirRot);	

  00063	f3 0f 10 4c 24
	04		 movss	 xmm1, DWORD PTR _fDirRot$1$[esp+128]
  00069	8b ce		 mov	 ecx, esi
  0006b	88 86 88 01 00
	00		 mov	 BYTE PTR [esi+392], al
  00071	e8 00 00 00 00	 call	 ?SetAdvancingRotation@CInstanceBase@@QAEXM@Z ; CInstanceBase::SetAdvancingRotation

; 310  : 
; 311  : 	if (!IsWalking())

  00076	8b ce		 mov	 ecx, esi
  00078	e8 00 00 00 00	 call	 ?IsWalking@CInstanceBase@@QAEHXZ ; CInstanceBase::IsWalking
  0007d	85 c0		 test	 eax, eax
  0007f	75 07		 jne	 SHORT $LN1@NEW_MoveTo

; 312  : 	{ 
; 313  : 		StartWalking();

  00081	8b ce		 mov	 ecx, esi
  00083	e8 00 00 00 00	 call	 ?StartWalking@CInstanceBase@@IAEXXZ ; CInstanceBase::StartWalking
$LN1@NEW_MoveTo:

; 314  : 	}
; 315  : 
; 316  : 	TPixelPosition kPPosCur;
; 317  : 	NEW_GetPixelPosition(&kPPosCur);

  00088	8d 44 24 20	 lea	 eax, DWORD PTR _kPPosCur$[esp+128]
  0008c	8b ce		 mov	 ecx, esi
  0008e	50		 push	 eax
  0008f	e8 00 00 00 00	 call	 ?NEW_GetPixelPosition@CInstanceBase@@QAEXPAUD3DXVECTOR3@@@Z ; CInstanceBase::NEW_GetPixelPosition
; File d:\metin2\metin2\client_source_clean\client_source_clean\extern\include\d3dx8math.inl

; 180  :     x = fx;

  00094	f3 0f 10 44 24
	20		 movss	 xmm0, DWORD PTR _kPPosCur$[esp+128]
; File d:\metin2\metin2\client_source_clean\client_source_clean\source\userinterface\instancebasemovement.cpp

; 324  : 	D3DXMatrixRotationZ(&kD3DMatAdv, D3DXToRadian(fDirRot));

  0009a	8d 44 24 38	 lea	 eax, DWORD PTR _kD3DMatAdv$[esp+128]
; File d:\metin2\metin2\client_source_clean\client_source_clean\extern\include\d3dx8math.inl

; 180  :     x = fx;

  0009e	f3 0f 11 44 24
	10		 movss	 DWORD PTR _kD3DVt3Cur$1$[esp+128], xmm0
; File d:\metin2\metin2\client_source_clean\client_source_clean\source\userinterface\instancebasemovement.cpp

; 319  : 	D3DXVECTOR3 kD3DVt3Cur(kPPosCur.x, -kPPosCur.y, kPPosCur.z);		

  000a4	f3 0f 10 44 24
	24		 movss	 xmm0, DWORD PTR _kPPosCur$[esp+132]
  000aa	0f 57 05 00 00
	00 00		 xorps	 xmm0, DWORD PTR __xmm@80000000800000008000000080000000
  000b1	f3 0f 11 44 24
	0c		 movss	 DWORD PTR _kD3DVt3Dst$2$[esp+128], xmm0
; File d:\metin2\metin2\client_source_clean\client_source_clean\extern\include\d3dx8math.inl

; 182  :     z = fz;

  000b7	f3 0f 10 44 24
	28		 movss	 xmm0, DWORD PTR _kPPosCur$[esp+136]
  000bd	f3 0f 11 44 24
	08		 movss	 DWORD PTR _kD3DVt3Cur$3$[esp+128], xmm0
; File d:\metin2\metin2\client_source_clean\client_source_clean\source\userinterface\instancebasemovement.cpp

; 324  : 	D3DXMatrixRotationZ(&kD3DMatAdv, D3DXToRadian(fDirRot));

  000c3	f3 0f 10 44 24
	04		 movss	 xmm0, DWORD PTR _fDirRot$1$[esp+128]
  000c9	f3 0f 59 05 00
	00 00 00	 mulss	 xmm0, DWORD PTR __real@3c8efa35
  000d1	51		 push	 ecx
; File d:\metin2\metin2\client_source_clean\client_source_clean\extern\include\d3dx8math.inl

; 180  :     x = fx;

  000d2	c7 44 24 18 00
	00 00 00	 mov	 DWORD PTR _kD3DVt3AdvDir$[esp+132], 0

; 181  :     y = fy;

  000da	c7 44 24 1c 00
	00 80 bf	 mov	 DWORD PTR _kD3DVt3AdvDir$[esp+136], -1082130432 ; bf800000H
; File d:\metin2\metin2\client_source_clean\client_source_clean\source\userinterface\instancebasemovement.cpp

; 324  : 	D3DXMatrixRotationZ(&kD3DMatAdv, D3DXToRadian(fDirRot));

  000e2	f3 0f 11 04 24	 movss	 DWORD PTR [esp], xmm0
  000e7	50		 push	 eax
; File d:\metin2\metin2\client_source_clean\client_source_clean\extern\include\d3dx8math.inl

; 182  :     z = fz;

  000e8	c7 44 24 24 00
	00 00 00	 mov	 DWORD PTR _kD3DVt3AdvDir$[esp+144], 0
; File d:\metin2\metin2\client_source_clean\client_source_clean\source\userinterface\instancebasemovement.cpp

; 324  : 	D3DXMatrixRotationZ(&kD3DMatAdv, D3DXToRadian(fDirRot));

  000f0	e8 00 00 00 00	 call	 _D3DXMatrixRotationZ@8

; 325  : 	D3DXVec3TransformCoord(&kD3DVt3AdvDir, &kD3DVt3AdvDir, &kD3DMatAdv);

  000f5	8d 44 24 38	 lea	 eax, DWORD PTR _kD3DMatAdv$[esp+128]
  000f9	50		 push	 eax
  000fa	8d 44 24 18	 lea	 eax, DWORD PTR _kD3DVt3AdvDir$[esp+132]
  000fe	50		 push	 eax
  000ff	50		 push	 eax
  00100	e8 00 00 00 00	 call	 _D3DXVec3TransformCoord@12
; File d:\metin2\metin2\client_source_clean\client_source_clean\extern\include\d3dx8math.inl

; 1349 :     pOut->x = pV->x * s;

  00105	f3 0f 10 05 00
	00 00 00	 movss	 xmm0, DWORD PTR __real@43960000
; File d:\metin2\metin2\client_source_clean\client_source_clean\source\userinterface\instancebasemovement.cpp

; 334  : 	NEW_SetSrcPixelPosition(kPPosCur);

  0010d	8d 44 24 20	 lea	 eax, DWORD PTR _kPPosCur$[esp+128]
; File d:\metin2\metin2\client_source_clean\client_source_clean\extern\include\d3dx8math.inl

; 1350 :     pOut->y = pV->y * s;

  00111	f3 0f 10 4c 24
	18		 movss	 xmm1, DWORD PTR _kD3DVt3AdvDir$[esp+132]
; File d:\metin2\metin2\client_source_clean\client_source_clean\source\userinterface\instancebasemovement.cpp

; 334  : 	NEW_SetSrcPixelPosition(kPPosCur);

  00117	8b ce		 mov	 ecx, esi
; File d:\metin2\metin2\client_source_clean\client_source_clean\extern\include\d3dx8math.inl

; 1349 :     pOut->x = pV->x * s;

  00119	f3 0f 10 5c 24
	14		 movss	 xmm3, DWORD PTR _kD3DVt3AdvDir$[esp+128]

; 1351 :     pOut->z = pV->z * s;

  0011f	f3 0f 10 54 24
	1c		 movss	 xmm2, DWORD PTR _kD3DVt3AdvDir$[esp+136]
  00125	f3 0f 59 d8	 mulss	 xmm3, xmm0
; File d:\metin2\metin2\client_source_clean\client_source_clean\source\userinterface\instancebasemovement.cpp

; 334  : 	NEW_SetSrcPixelPosition(kPPosCur);

  00129	50		 push	 eax
; File d:\metin2\metin2\client_source_clean\client_source_clean\extern\include\d3dx8math.inl

; 1350 :     pOut->y = pV->y * s;

  0012a	f3 0f 59 c8	 mulss	 xmm1, xmm0

; 1351 :     pOut->z = pV->z * s;

  0012e	f3 0f 59 d0	 mulss	 xmm2, xmm0

; 1294 :     pOut->y = pV1->y + pV2->y;

  00132	f3 0f 10 44 24
	10		 movss	 xmm0, DWORD PTR _kD3DVt3Dst$2$[esp+132]
  00138	f3 0f 58 c1	 addss	 xmm0, xmm1

; 1349 :     pOut->x = pV->x * s;

  0013c	f3 0f 11 5c 24
	18		 movss	 DWORD PTR _kD3DVt3AdvDir$[esp+132], xmm3

; 183  : }
; 184  : 
; 185  : 
; 186  : // casting
; 187  : D3DXINLINE
; 188  : D3DXVECTOR3::operator FLOAT* ()
; 189  : {
; 190  :     return (FLOAT *) &x;
; 191  : }
; 192  : 
; 193  : D3DXINLINE
; 194  : D3DXVECTOR3::operator CONST FLOAT* () const
; 195  : {
; 196  :     return (CONST FLOAT *) &x;
; 197  : }
; 198  : 
; 199  : 
; 200  : // assignment operators
; 201  : D3DXINLINE D3DXVECTOR3&
; 202  : D3DXVECTOR3::operator += ( CONST D3DXVECTOR3& v )
; 203  : {
; 204  :     x += v.x;
; 205  :     y += v.y;
; 206  :     z += v.z;
; 207  :     return *this;
; 208  : }
; 209  : 
; 210  : D3DXINLINE D3DXVECTOR3&
; 211  : D3DXVECTOR3::operator -= ( CONST D3DXVECTOR3& v )
; 212  : {
; 213  :     x -= v.x;
; 214  :     y -= v.y;
; 215  :     z -= v.z;
; 216  :     return *this;
; 217  : }
; 218  : 
; 219  : D3DXINLINE D3DXVECTOR3&
; 220  : D3DXVECTOR3::operator *= ( FLOAT f )
; 221  : {
; 222  :     x *= f;
; 223  :     y *= f;
; 224  :     z *= f;
; 225  :     return *this;
; 226  : }
; 227  : 
; 228  : D3DXINLINE D3DXVECTOR3&
; 229  : D3DXVECTOR3::operator /= ( FLOAT f )
; 230  : {
; 231  :     FLOAT fInv = 1.0f / f;
; 232  :     x *= fInv;
; 233  :     y *= fInv;
; 234  :     z *= fInv;
; 235  :     return *this;
; 236  : }
; 237  : 
; 238  : 
; 239  : // unary operators
; 240  : D3DXINLINE D3DXVECTOR3
; 241  : D3DXVECTOR3::operator + () const
; 242  : {
; 243  :     return *this;
; 244  : }
; 245  : 
; 246  : D3DXINLINE D3DXVECTOR3
; 247  : D3DXVECTOR3::operator - () const
; 248  : {
; 249  :     return D3DXVECTOR3(-x, -y, -z);
; 250  : }
; 251  : 
; 252  : 
; 253  : // binary operators
; 254  : D3DXINLINE D3DXVECTOR3
; 255  : D3DXVECTOR3::operator + ( CONST D3DXVECTOR3& v ) const
; 256  : {
; 257  :     return D3DXVECTOR3(x + v.x, y + v.y, z + v.z);
; 258  : }
; 259  : 
; 260  : D3DXINLINE D3DXVECTOR3
; 261  : D3DXVECTOR3::operator - ( CONST D3DXVECTOR3& v ) const
; 262  : {
; 263  :     return D3DXVECTOR3(x - v.x, y - v.y, z - v.z);
; 264  : }
; 265  : 
; 266  : D3DXINLINE D3DXVECTOR3
; 267  : D3DXVECTOR3::operator * ( FLOAT f ) const
; 268  : {
; 269  :     return D3DXVECTOR3(x * f, y * f, z * f);
; 270  : }
; 271  : 
; 272  : D3DXINLINE D3DXVECTOR3
; 273  : D3DXVECTOR3::operator / ( FLOAT f ) const
; 274  : {
; 275  :     FLOAT fInv = 1.0f / f;
; 276  :     return D3DXVECTOR3(x * fInv, y * fInv, z * fInv);
; 277  : }
; 278  : 
; 279  : 
; 280  : D3DXINLINE D3DXVECTOR3
; 281  : operator * ( FLOAT f, CONST struct D3DXVECTOR3& v )
; 282  : {
; 283  :     return D3DXVECTOR3(f * v.x, f * v.y, f * v.z);
; 284  : }
; 285  : 
; 286  : 
; 287  : D3DXINLINE BOOL
; 288  : D3DXVECTOR3::operator == ( CONST D3DXVECTOR3& v ) const
; 289  : {
; 290  :     return x == v.x && y == v.y && z == v.z;
; 291  : }
; 292  : 
; 293  : D3DXINLINE BOOL
; 294  : D3DXVECTOR3::operator != ( CONST D3DXVECTOR3& v ) const
; 295  : {
; 296  :     return x != v.x || y != v.y || z != v.z;
; 297  : }
; 298  : 
; 299  : 
; 300  : 
; 301  : //--------------------------
; 302  : // 4D Vector
; 303  : //--------------------------
; 304  : D3DXINLINE
; 305  : D3DXVECTOR4::D3DXVECTOR4( CONST FLOAT *pf )
; 306  : {
; 307  : #ifdef D3DX_DEBUG
; 308  :     if(!pf)
; 309  :         return;
; 310  : #endif
; 311  : 
; 312  :     x = pf[0];
; 313  :     y = pf[1];
; 314  :     z = pf[2];
; 315  :     w = pf[3];
; 316  : }
; 317  : 
; 318  : D3DXINLINE
; 319  : D3DXVECTOR4::D3DXVECTOR4( FLOAT fx, FLOAT fy, FLOAT fz, FLOAT fw )
; 320  : {
; 321  :     x = fx;
; 322  :     y = fy;
; 323  :     z = fz;
; 324  :     w = fw;
; 325  : }
; 326  : 
; 327  : 
; 328  : // casting
; 329  : D3DXINLINE
; 330  : D3DXVECTOR4::operator FLOAT* ()
; 331  : {
; 332  :     return (FLOAT *) &x;
; 333  : }
; 334  : 
; 335  : D3DXINLINE
; 336  : D3DXVECTOR4::operator CONST FLOAT* () const
; 337  : {
; 338  :     return (CONST FLOAT *) &x;
; 339  : }
; 340  : 
; 341  : 
; 342  : // assignment operators
; 343  : D3DXINLINE D3DXVECTOR4&
; 344  : D3DXVECTOR4::operator += ( CONST D3DXVECTOR4& v )
; 345  : {
; 346  :     x += v.x;
; 347  :     y += v.y;
; 348  :     z += v.z;
; 349  :     w += v.w;
; 350  :     return *this;
; 351  : }
; 352  : 
; 353  : D3DXINLINE D3DXVECTOR4&
; 354  : D3DXVECTOR4::operator -= ( CONST D3DXVECTOR4& v )
; 355  : {
; 356  :     x -= v.x;
; 357  :     y -= v.y;
; 358  :     z -= v.z;
; 359  :     w -= v.w;
; 360  :     return *this;
; 361  : }
; 362  : 
; 363  : D3DXINLINE D3DXVECTOR4&
; 364  : D3DXVECTOR4::operator *= ( FLOAT f )
; 365  : {
; 366  :     x *= f;
; 367  :     y *= f;
; 368  :     z *= f;
; 369  :     w *= f;
; 370  :     return *this;
; 371  : }
; 372  : 
; 373  : D3DXINLINE D3DXVECTOR4&
; 374  : D3DXVECTOR4::operator /= ( FLOAT f )
; 375  : {
; 376  :     FLOAT fInv = 1.0f / f;
; 377  :     x *= fInv;
; 378  :     y *= fInv;
; 379  :     z *= fInv;
; 380  :     w *= fInv;
; 381  :     return *this;
; 382  : }
; 383  : 
; 384  : 
; 385  : // unary operators
; 386  : D3DXINLINE D3DXVECTOR4
; 387  : D3DXVECTOR4::operator + () const
; 388  : {
; 389  :     return *this;
; 390  : }
; 391  : 
; 392  : D3DXINLINE D3DXVECTOR4
; 393  : D3DXVECTOR4::operator - () const
; 394  : {
; 395  :     return D3DXVECTOR4(-x, -y, -z, -w);
; 396  : }
; 397  : 
; 398  : 
; 399  : // binary operators
; 400  : D3DXINLINE D3DXVECTOR4
; 401  : D3DXVECTOR4::operator + ( CONST D3DXVECTOR4& v ) const
; 402  : {
; 403  :     return D3DXVECTOR4(x + v.x, y + v.y, z + v.z, w + v.w);
; 404  : }
; 405  : 
; 406  : D3DXINLINE D3DXVECTOR4
; 407  : D3DXVECTOR4::operator - ( CONST D3DXVECTOR4& v ) const
; 408  : {
; 409  :     return D3DXVECTOR4(x - v.x, y - v.y, z - v.z, w - v.w);
; 410  : }
; 411  : 
; 412  : D3DXINLINE D3DXVECTOR4
; 413  : D3DXVECTOR4::operator * ( FLOAT f ) const
; 414  : {
; 415  :     return D3DXVECTOR4(x * f, y * f, z * f, w * f);
; 416  : }
; 417  : 
; 418  : D3DXINLINE D3DXVECTOR4
; 419  : D3DXVECTOR4::operator / ( FLOAT f ) const
; 420  : {
; 421  :     FLOAT fInv = 1.0f / f;
; 422  :     return D3DXVECTOR4(x * fInv, y * fInv, z * fInv, w * fInv);
; 423  : }
; 424  : 
; 425  : 
; 426  : D3DXINLINE D3DXVECTOR4
; 427  : operator * ( FLOAT f, CONST D3DXVECTOR4& v )
; 428  : {
; 429  :     return D3DXVECTOR4(f * v.x, f * v.y, f * v.z, f * v.w);
; 430  : }
; 431  : 
; 432  : 
; 433  : D3DXINLINE BOOL
; 434  : D3DXVECTOR4::operator == ( CONST D3DXVECTOR4& v ) const
; 435  : {
; 436  :     return x == v.x && y == v.y && z == v.z && w == v.w;
; 437  : }
; 438  : 
; 439  : D3DXINLINE BOOL
; 440  : D3DXVECTOR4::operator != ( CONST D3DXVECTOR4& v ) const
; 441  : {
; 442  :     return x != v.x || y != v.y || z != v.z || w != v.w;
; 443  : }
; 444  : 
; 445  : 
; 446  : //--------------------------
; 447  : // Matrix
; 448  : //--------------------------
; 449  : D3DXINLINE
; 450  : D3DXMATRIX::D3DXMATRIX( CONST FLOAT* pf )
; 451  : {
; 452  : #ifdef D3DX_DEBUG
; 453  :     if(!pf)
; 454  :         return;
; 455  : #endif
; 456  : 
; 457  :     memcpy(&_11, pf, sizeof(D3DXMATRIX));
; 458  : }
; 459  : 
; 460  : D3DXINLINE
; 461  : D3DXMATRIX::D3DXMATRIX( CONST D3DMATRIX& mat )
; 462  : {
; 463  :     memcpy(&_11, &mat, sizeof(D3DXMATRIX));
; 464  : }
; 465  : 
; 466  : D3DXINLINE
; 467  : D3DXMATRIX::D3DXMATRIX( FLOAT f11, FLOAT f12, FLOAT f13, FLOAT f14,
; 468  :                         FLOAT f21, FLOAT f22, FLOAT f23, FLOAT f24,
; 469  :                         FLOAT f31, FLOAT f32, FLOAT f33, FLOAT f34,
; 470  :                         FLOAT f41, FLOAT f42, FLOAT f43, FLOAT f44 )
; 471  : {
; 472  :     _11 = f11; _12 = f12; _13 = f13; _14 = f14;
; 473  :     _21 = f21; _22 = f22; _23 = f23; _24 = f24;
; 474  :     _31 = f31; _32 = f32; _33 = f33; _34 = f34;
; 475  :     _41 = f41; _42 = f42; _43 = f43; _44 = f44;
; 476  : }
; 477  : 
; 478  : 
; 479  : 
; 480  : // access grants
; 481  : D3DXINLINE FLOAT&
; 482  : D3DXMATRIX::operator () ( UINT iRow, UINT iCol )
; 483  : {
; 484  :     return m[iRow][iCol];
; 485  : }
; 486  : 
; 487  : D3DXINLINE FLOAT
; 488  : D3DXMATRIX::operator () ( UINT iRow, UINT iCol ) const
; 489  : {
; 490  :     return m[iRow][iCol];
; 491  : }
; 492  : 
; 493  : 
; 494  : // casting operators
; 495  : D3DXINLINE
; 496  : D3DXMATRIX::operator FLOAT* ()
; 497  : {
; 498  :     return (FLOAT *) &_11;
; 499  : }
; 500  : 
; 501  : D3DXINLINE
; 502  : D3DXMATRIX::operator CONST FLOAT* () const
; 503  : {
; 504  :     return (CONST FLOAT *) &_11;
; 505  : }
; 506  : 
; 507  : 
; 508  : // assignment operators
; 509  : D3DXINLINE D3DXMATRIX&
; 510  : D3DXMATRIX::operator *= ( CONST D3DXMATRIX& mat )
; 511  : {
; 512  :     D3DXMatrixMultiply(this, this, &mat);
; 513  :     return *this;
; 514  : }
; 515  : 
; 516  : D3DXINLINE D3DXMATRIX&
; 517  : D3DXMATRIX::operator += ( CONST D3DXMATRIX& mat )
; 518  : {
; 519  :     _11 += mat._11; _12 += mat._12; _13 += mat._13; _14 += mat._14;
; 520  :     _21 += mat._21; _22 += mat._22; _23 += mat._23; _24 += mat._24;
; 521  :     _31 += mat._31; _32 += mat._32; _33 += mat._33; _34 += mat._34;
; 522  :     _41 += mat._41; _42 += mat._42; _43 += mat._43; _44 += mat._44;
; 523  :     return *this;
; 524  : }
; 525  : 
; 526  : D3DXINLINE D3DXMATRIX&
; 527  : D3DXMATRIX::operator -= ( CONST D3DXMATRIX& mat )
; 528  : {
; 529  :     _11 -= mat._11; _12 -= mat._12; _13 -= mat._13; _14 -= mat._14;
; 530  :     _21 -= mat._21; _22 -= mat._22; _23 -= mat._23; _24 -= mat._24;
; 531  :     _31 -= mat._31; _32 -= mat._32; _33 -= mat._33; _34 -= mat._34;
; 532  :     _41 -= mat._41; _42 -= mat._42; _43 -= mat._43; _44 -= mat._44;
; 533  :     return *this;
; 534  : }
; 535  : 
; 536  : D3DXINLINE D3DXMATRIX&
; 537  : D3DXMATRIX::operator *= ( FLOAT f )
; 538  : {
; 539  :     _11 *= f; _12 *= f; _13 *= f; _14 *= f;
; 540  :     _21 *= f; _22 *= f; _23 *= f; _24 *= f;
; 541  :     _31 *= f; _32 *= f; _33 *= f; _34 *= f;
; 542  :     _41 *= f; _42 *= f; _43 *= f; _44 *= f;
; 543  :     return *this;
; 544  : }
; 545  : 
; 546  : D3DXINLINE D3DXMATRIX&
; 547  : D3DXMATRIX::operator /= ( FLOAT f )
; 548  : {
; 549  :     FLOAT fInv = 1.0f / f;
; 550  :     _11 *= fInv; _12 *= fInv; _13 *= fInv; _14 *= fInv;
; 551  :     _21 *= fInv; _22 *= fInv; _23 *= fInv; _24 *= fInv;
; 552  :     _31 *= fInv; _32 *= fInv; _33 *= fInv; _34 *= fInv;
; 553  :     _41 *= fInv; _42 *= fInv; _43 *= fInv; _44 *= fInv;
; 554  :     return *this;
; 555  : }
; 556  : 
; 557  : 
; 558  : // unary operators
; 559  : D3DXINLINE D3DXMATRIX
; 560  : D3DXMATRIX::operator + () const
; 561  : {
; 562  :     return *this;
; 563  : }
; 564  : 
; 565  : D3DXINLINE D3DXMATRIX
; 566  : D3DXMATRIX::operator - () const
; 567  : {
; 568  :     return D3DXMATRIX(-_11, -_12, -_13, -_14,
; 569  :                       -_21, -_22, -_23, -_24,
; 570  :                       -_31, -_32, -_33, -_34,
; 571  :                       -_41, -_42, -_43, -_44);
; 572  : }
; 573  : 
; 574  : 
; 575  : // binary operators
; 576  : D3DXINLINE D3DXMATRIX
; 577  : D3DXMATRIX::operator * ( CONST D3DXMATRIX& mat ) const
; 578  : {
; 579  :     D3DXMATRIX matT;
; 580  :     D3DXMatrixMultiply(&matT, this, &mat);
; 581  :     return matT;
; 582  : }
; 583  : 
; 584  : D3DXINLINE D3DXMATRIX
; 585  : D3DXMATRIX::operator + ( CONST D3DXMATRIX& mat ) const
; 586  : {
; 587  :     return D3DXMATRIX(_11 + mat._11, _12 + mat._12, _13 + mat._13, _14 + mat._14,
; 588  :                       _21 + mat._21, _22 + mat._22, _23 + mat._23, _24 + mat._24,
; 589  :                       _31 + mat._31, _32 + mat._32, _33 + mat._33, _34 + mat._34,
; 590  :                       _41 + mat._41, _42 + mat._42, _43 + mat._43, _44 + mat._44);
; 591  : }
; 592  : 
; 593  : D3DXINLINE D3DXMATRIX
; 594  : D3DXMATRIX::operator - ( CONST D3DXMATRIX& mat ) const
; 595  : {
; 596  :     return D3DXMATRIX(_11 - mat._11, _12 - mat._12, _13 - mat._13, _14 - mat._14,
; 597  :                       _21 - mat._21, _22 - mat._22, _23 - mat._23, _24 - mat._24,
; 598  :                       _31 - mat._31, _32 - mat._32, _33 - mat._33, _34 - mat._34,
; 599  :                       _41 - mat._41, _42 - mat._42, _43 - mat._43, _44 - mat._44);
; 600  : }
; 601  : 
; 602  : D3DXINLINE D3DXMATRIX
; 603  : D3DXMATRIX::operator * ( FLOAT f ) const
; 604  : {
; 605  :     return D3DXMATRIX(_11 * f, _12 * f, _13 * f, _14 * f,
; 606  :                       _21 * f, _22 * f, _23 * f, _24 * f,
; 607  :                       _31 * f, _32 * f, _33 * f, _34 * f,
; 608  :                       _41 * f, _42 * f, _43 * f, _44 * f);
; 609  : }
; 610  : 
; 611  : D3DXINLINE D3DXMATRIX
; 612  : D3DXMATRIX::operator / ( FLOAT f ) const
; 613  : {
; 614  :     FLOAT fInv = 1.0f / f;
; 615  :     return D3DXMATRIX(_11 * fInv, _12 * fInv, _13 * fInv, _14 * fInv,
; 616  :                       _21 * fInv, _22 * fInv, _23 * fInv, _24 * fInv,
; 617  :                       _31 * fInv, _32 * fInv, _33 * fInv, _34 * fInv,
; 618  :                       _41 * fInv, _42 * fInv, _43 * fInv, _44 * fInv);
; 619  : }
; 620  : 
; 621  : 
; 622  : D3DXINLINE D3DXMATRIX
; 623  : operator * ( FLOAT f, CONST D3DXMATRIX& mat )
; 624  : {
; 625  :     return D3DXMATRIX(f * mat._11, f * mat._12, f * mat._13, f * mat._14,
; 626  :                       f * mat._21, f * mat._22, f * mat._23, f * mat._24,
; 627  :                       f * mat._31, f * mat._32, f * mat._33, f * mat._34,
; 628  :                       f * mat._41, f * mat._42, f * mat._43, f * mat._44);
; 629  : }
; 630  : 
; 631  : 
; 632  : D3DXINLINE BOOL
; 633  : D3DXMATRIX::operator == ( CONST D3DXMATRIX& mat ) const
; 634  : {
; 635  :     return 0 == memcmp(this, &mat, sizeof(D3DXMATRIX));
; 636  : }
; 637  : 
; 638  : D3DXINLINE BOOL
; 639  : D3DXMATRIX::operator != ( CONST D3DXMATRIX& mat ) const
; 640  : {
; 641  :     return 0 != memcmp(this, &mat, sizeof(D3DXMATRIX));
; 642  : }
; 643  : 
; 644  : 
; 645  : 
; 646  : //--------------------------
; 647  : // Quaternion
; 648  : //--------------------------
; 649  : 
; 650  : D3DXINLINE
; 651  : D3DXQUATERNION::D3DXQUATERNION( CONST FLOAT* pf )
; 652  : {
; 653  : #ifdef D3DX_DEBUG
; 654  :     if(!pf)
; 655  :         return;
; 656  : #endif
; 657  : 
; 658  :     x = pf[0];
; 659  :     y = pf[1];
; 660  :     z = pf[2];
; 661  :     w = pf[3];
; 662  : }
; 663  : 
; 664  : D3DXINLINE
; 665  : D3DXQUATERNION::D3DXQUATERNION( FLOAT fx, FLOAT fy, FLOAT fz, FLOAT fw )
; 666  : {
; 667  :     x = fx;
; 668  :     y = fy;
; 669  :     z = fz;
; 670  :     w = fw;
; 671  : }
; 672  : 
; 673  : 
; 674  : // casting
; 675  : D3DXINLINE
; 676  : D3DXQUATERNION::operator FLOAT* ()
; 677  : {
; 678  :     return (FLOAT *) &x;
; 679  : }
; 680  : 
; 681  : D3DXINLINE
; 682  : D3DXQUATERNION::operator CONST FLOAT* () const
; 683  : {
; 684  :     return (CONST FLOAT *) &x;
; 685  : }
; 686  : 
; 687  : 
; 688  : // assignment operators
; 689  : D3DXINLINE D3DXQUATERNION&
; 690  : D3DXQUATERNION::operator += ( CONST D3DXQUATERNION& q )
; 691  : {
; 692  :     x += q.x;
; 693  :     y += q.y;
; 694  :     z += q.z;
; 695  :     w += q.w;
; 696  :     return *this;
; 697  : }
; 698  : 
; 699  : D3DXINLINE D3DXQUATERNION&
; 700  : D3DXQUATERNION::operator -= ( CONST D3DXQUATERNION& q )
; 701  : {
; 702  :     x -= q.x;
; 703  :     y -= q.y;
; 704  :     z -= q.z;
; 705  :     w -= q.w;
; 706  :     return *this;
; 707  : }
; 708  : 
; 709  : D3DXINLINE D3DXQUATERNION&
; 710  : D3DXQUATERNION::operator *= ( CONST D3DXQUATERNION& q )
; 711  : {
; 712  :     D3DXQuaternionMultiply(this, this, &q);
; 713  :     return *this;
; 714  : }
; 715  : 
; 716  : D3DXINLINE D3DXQUATERNION&
; 717  : D3DXQUATERNION::operator *= ( FLOAT f )
; 718  : {
; 719  :     x *= f;
; 720  :     y *= f;
; 721  :     z *= f;
; 722  :     w *= f;
; 723  :     return *this;
; 724  : }
; 725  : 
; 726  : D3DXINLINE D3DXQUATERNION&
; 727  : D3DXQUATERNION::operator /= ( FLOAT f )
; 728  : {
; 729  :     FLOAT fInv = 1.0f / f;
; 730  :     x *= fInv;
; 731  :     y *= fInv;
; 732  :     z *= fInv;
; 733  :     w *= fInv;
; 734  :     return *this;
; 735  : }
; 736  : 
; 737  : 
; 738  : // unary operators
; 739  : D3DXINLINE D3DXQUATERNION
; 740  : D3DXQUATERNION::operator + () const
; 741  : {
; 742  :     return *this;
; 743  : }
; 744  : 
; 745  : D3DXINLINE D3DXQUATERNION
; 746  : D3DXQUATERNION::operator - () const
; 747  : {
; 748  :     return D3DXQUATERNION(-x, -y, -z, -w);
; 749  : }
; 750  : 
; 751  : 
; 752  : // binary operators
; 753  : D3DXINLINE D3DXQUATERNION
; 754  : D3DXQUATERNION::operator + ( CONST D3DXQUATERNION& q ) const
; 755  : {
; 756  :     return D3DXQUATERNION(x + q.x, y + q.y, z + q.z, w + q.w);
; 757  : }
; 758  : 
; 759  : D3DXINLINE D3DXQUATERNION
; 760  : D3DXQUATERNION::operator - ( CONST D3DXQUATERNION& q ) const
; 761  : {
; 762  :     return D3DXQUATERNION(x - q.x, y - q.y, z - q.z, w - q.w);
; 763  : }
; 764  : 
; 765  : D3DXINLINE D3DXQUATERNION
; 766  : D3DXQUATERNION::operator * ( CONST D3DXQUATERNION& q ) const
; 767  : {
; 768  :     D3DXQUATERNION qT;
; 769  :     D3DXQuaternionMultiply(&qT, this, &q);
; 770  :     return qT;
; 771  : }
; 772  : 
; 773  : D3DXINLINE D3DXQUATERNION
; 774  : D3DXQUATERNION::operator * ( FLOAT f ) const
; 775  : {
; 776  :     return D3DXQUATERNION(x * f, y * f, z * f, w * f);
; 777  : }
; 778  : 
; 779  : D3DXINLINE D3DXQUATERNION
; 780  : D3DXQUATERNION::operator / ( FLOAT f ) const
; 781  : {
; 782  :     FLOAT fInv = 1.0f / f;
; 783  :     return D3DXQUATERNION(x * fInv, y * fInv, z * fInv, w * fInv);
; 784  : }
; 785  : 
; 786  : 
; 787  : D3DXINLINE D3DXQUATERNION
; 788  : operator * (FLOAT f, CONST D3DXQUATERNION& q )
; 789  : {
; 790  :     return D3DXQUATERNION(f * q.x, f * q.y, f * q.z, f * q.w);
; 791  : }
; 792  : 
; 793  : 
; 794  : D3DXINLINE BOOL
; 795  : D3DXQUATERNION::operator == ( CONST D3DXQUATERNION& q ) const
; 796  : {
; 797  :     return x == q.x && y == q.y && z == q.z && w == q.w;
; 798  : }
; 799  : 
; 800  : D3DXINLINE BOOL
; 801  : D3DXQUATERNION::operator != ( CONST D3DXQUATERNION& q ) const
; 802  : {
; 803  :     return x != q.x || y != q.y || z != q.z || w != q.w;
; 804  : }
; 805  : 
; 806  : 
; 807  : 
; 808  : //--------------------------
; 809  : // Plane
; 810  : //--------------------------
; 811  : 
; 812  : D3DXINLINE
; 813  : D3DXPLANE::D3DXPLANE( CONST FLOAT* pf )
; 814  : {
; 815  : #ifdef D3DX_DEBUG
; 816  :     if(!pf)
; 817  :         return;
; 818  : #endif
; 819  : 
; 820  :     a = pf[0];
; 821  :     b = pf[1];
; 822  :     c = pf[2];
; 823  :     d = pf[3];
; 824  : }
; 825  : 
; 826  : D3DXINLINE
; 827  : D3DXPLANE::D3DXPLANE( FLOAT fa, FLOAT fb, FLOAT fc, FLOAT fd )
; 828  : {
; 829  :     a = fa;
; 830  :     b = fb;
; 831  :     c = fc;
; 832  :     d = fd;
; 833  : }
; 834  : 
; 835  : 
; 836  : // casting
; 837  : D3DXINLINE
; 838  : D3DXPLANE::operator FLOAT* ()
; 839  : {
; 840  :     return (FLOAT *) &a;
; 841  : }
; 842  : 
; 843  : D3DXINLINE
; 844  : D3DXPLANE::operator CONST FLOAT* () const
; 845  : {
; 846  :     return (CONST FLOAT *) &a;
; 847  : }
; 848  : 
; 849  : 
; 850  : // unary operators
; 851  : D3DXINLINE D3DXPLANE
; 852  : D3DXPLANE::operator + () const
; 853  : {
; 854  :     return *this;
; 855  : }
; 856  : 
; 857  : D3DXINLINE D3DXPLANE
; 858  : D3DXPLANE::operator - () const
; 859  : {
; 860  :     return D3DXPLANE(-a, -b, -c, -d);
; 861  : }
; 862  : 
; 863  : 
; 864  : // binary operators
; 865  : D3DXINLINE BOOL
; 866  : D3DXPLANE::operator == ( CONST D3DXPLANE& p ) const
; 867  : {
; 868  :     return a == p.a && b == p.b && c == p.c && d == p.d;
; 869  : }
; 870  : 
; 871  : D3DXINLINE BOOL
; 872  : D3DXPLANE::operator != ( CONST D3DXPLANE& p ) const
; 873  : {
; 874  :     return a != p.a || b != p.b || c != p.c || d != p.d;
; 875  : }
; 876  : 
; 877  : 
; 878  : 
; 879  : 
; 880  : //--------------------------
; 881  : // Color
; 882  : //--------------------------
; 883  : 
; 884  : D3DXINLINE
; 885  : D3DXCOLOR::D3DXCOLOR( DWORD dw )
; 886  : {
; 887  :     CONST FLOAT f = 1.0f / 255.0f;
; 888  :     r = f * (FLOAT) (unsigned char) (dw >> 16);
; 889  :     g = f * (FLOAT) (unsigned char) (dw >>  8);
; 890  :     b = f * (FLOAT) (unsigned char) (dw >>  0);
; 891  :     a = f * (FLOAT) (unsigned char) (dw >> 24);
; 892  : }
; 893  : 
; 894  : D3DXINLINE
; 895  : D3DXCOLOR::D3DXCOLOR( CONST FLOAT* pf )
; 896  : {
; 897  : #ifdef D3DX_DEBUG
; 898  :     if(!pf)
; 899  :         return;
; 900  : #endif
; 901  : 
; 902  :     r = pf[0];
; 903  :     g = pf[1];
; 904  :     b = pf[2];
; 905  :     a = pf[3];
; 906  : }
; 907  : 
; 908  : D3DXINLINE
; 909  : D3DXCOLOR::D3DXCOLOR( CONST D3DCOLORVALUE& c )
; 910  : {
; 911  :     r = c.r;
; 912  :     g = c.g;
; 913  :     b = c.b;
; 914  :     a = c.a;
; 915  : }
; 916  : 
; 917  : D3DXINLINE
; 918  : D3DXCOLOR::D3DXCOLOR( FLOAT fr, FLOAT fg, FLOAT fb, FLOAT fa )
; 919  : {
; 920  :     r = fr;
; 921  :     g = fg;
; 922  :     b = fb;
; 923  :     a = fa;
; 924  : }
; 925  : 
; 926  : 
; 927  : // casting
; 928  : D3DXINLINE
; 929  : D3DXCOLOR::operator DWORD () const
; 930  : {
; 931  :     DWORD dwR = r >= 1.0f ? 0xff : r <= 0.0f ? 0x00 : (DWORD) (r * 255.0f + 0.5f);
; 932  :     DWORD dwG = g >= 1.0f ? 0xff : g <= 0.0f ? 0x00 : (DWORD) (g * 255.0f + 0.5f);
; 933  :     DWORD dwB = b >= 1.0f ? 0xff : b <= 0.0f ? 0x00 : (DWORD) (b * 255.0f + 0.5f);
; 934  :     DWORD dwA = a >= 1.0f ? 0xff : a <= 0.0f ? 0x00 : (DWORD) (a * 255.0f + 0.5f);
; 935  : 
; 936  :     return (dwA << 24) | (dwR << 16) | (dwG << 8) | dwB;
; 937  : }
; 938  : 
; 939  : 
; 940  : D3DXINLINE
; 941  : D3DXCOLOR::operator FLOAT * ()
; 942  : {
; 943  :     return (FLOAT *) &r;
; 944  : }
; 945  : 
; 946  : D3DXINLINE
; 947  : D3DXCOLOR::operator CONST FLOAT * () const
; 948  : {
; 949  :     return (CONST FLOAT *) &r;
; 950  : }
; 951  : 
; 952  : 
; 953  : D3DXINLINE
; 954  : D3DXCOLOR::operator D3DCOLORVALUE * ()
; 955  : {
; 956  :     return (D3DCOLORVALUE *) &r;
; 957  : }
; 958  : 
; 959  : D3DXINLINE
; 960  : D3DXCOLOR::operator CONST D3DCOLORVALUE * () const
; 961  : {
; 962  :     return (CONST D3DCOLORVALUE *) &r;
; 963  : }
; 964  : 
; 965  : 
; 966  : D3DXINLINE
; 967  : D3DXCOLOR::operator D3DCOLORVALUE& ()
; 968  : {
; 969  :     return *((D3DCOLORVALUE *) &r);
; 970  : }
; 971  : 
; 972  : D3DXINLINE
; 973  : D3DXCOLOR::operator CONST D3DCOLORVALUE& () const
; 974  : {
; 975  :     return *((CONST D3DCOLORVALUE *) &r);
; 976  : }
; 977  : 
; 978  : 
; 979  : // assignment operators
; 980  : D3DXINLINE D3DXCOLOR&
; 981  : D3DXCOLOR::operator += ( CONST D3DXCOLOR& c )
; 982  : {
; 983  :     r += c.r;
; 984  :     g += c.g;
; 985  :     b += c.b;
; 986  :     a += c.a;
; 987  :     return *this;
; 988  : }
; 989  : 
; 990  : D3DXINLINE D3DXCOLOR&
; 991  : D3DXCOLOR::operator -= ( CONST D3DXCOLOR& c )
; 992  : {
; 993  :     r -= c.r;
; 994  :     g -= c.g;
; 995  :     b -= c.b;
; 996  :     a -= c.a;
; 997  :     return *this;
; 998  : }
; 999  : 
; 1000 : D3DXINLINE D3DXCOLOR&
; 1001 : D3DXCOLOR::operator *= ( FLOAT f )
; 1002 : {
; 1003 :     r *= f;
; 1004 :     g *= f;
; 1005 :     b *= f;
; 1006 :     a *= f;
; 1007 :     return *this;
; 1008 : }
; 1009 : 
; 1010 : D3DXINLINE D3DXCOLOR&
; 1011 : D3DXCOLOR::operator /= ( FLOAT f )
; 1012 : {
; 1013 :     FLOAT fInv = 1.0f / f;
; 1014 :     r *= fInv;
; 1015 :     g *= fInv;
; 1016 :     b *= fInv;
; 1017 :     a *= fInv;
; 1018 :     return *this;
; 1019 : }
; 1020 : 
; 1021 : 
; 1022 : // unary operators
; 1023 : D3DXINLINE D3DXCOLOR
; 1024 : D3DXCOLOR::operator + () const
; 1025 : {
; 1026 :     return *this;
; 1027 : }
; 1028 : 
; 1029 : D3DXINLINE D3DXCOLOR
; 1030 : D3DXCOLOR::operator - () const
; 1031 : {
; 1032 :     return D3DXCOLOR(-r, -g, -b, -a);
; 1033 : }
; 1034 : 
; 1035 : 
; 1036 : // binary operators
; 1037 : D3DXINLINE D3DXCOLOR
; 1038 : D3DXCOLOR::operator + ( CONST D3DXCOLOR& c ) const
; 1039 : {
; 1040 :     return D3DXCOLOR(r + c.r, g + c.g, b + c.b, a + c.a);
; 1041 : }
; 1042 : 
; 1043 : D3DXINLINE D3DXCOLOR
; 1044 : D3DXCOLOR::operator - ( CONST D3DXCOLOR& c ) const
; 1045 : {
; 1046 :     return D3DXCOLOR(r - c.r, g - c.g, b - c.b, a - c.a);
; 1047 : }
; 1048 : 
; 1049 : D3DXINLINE D3DXCOLOR
; 1050 : D3DXCOLOR::operator * ( FLOAT f ) const
; 1051 : {
; 1052 :     return D3DXCOLOR(r * f, g * f, b * f, a * f);
; 1053 : }
; 1054 : 
; 1055 : D3DXINLINE D3DXCOLOR
; 1056 : D3DXCOLOR::operator / ( FLOAT f ) const
; 1057 : {
; 1058 :     FLOAT fInv = 1.0f / f;
; 1059 :     return D3DXCOLOR(r * fInv, g * fInv, b * fInv, a * fInv);
; 1060 : }
; 1061 : 
; 1062 : 
; 1063 : D3DXINLINE D3DXCOLOR
; 1064 : operator * (FLOAT f, CONST D3DXCOLOR& c )
; 1065 : {
; 1066 :     return D3DXCOLOR(f * c.r, f * c.g, f * c.b, f * c.a);
; 1067 : }
; 1068 : 
; 1069 : 
; 1070 : D3DXINLINE BOOL
; 1071 : D3DXCOLOR::operator == ( CONST D3DXCOLOR& c ) const
; 1072 : {
; 1073 :     return r == c.r && g == c.g && b == c.b && a == c.a;
; 1074 : }
; 1075 : 
; 1076 : D3DXINLINE BOOL
; 1077 : D3DXCOLOR::operator != ( CONST D3DXCOLOR& c ) const
; 1078 : {
; 1079 :     return r != c.r || g != c.g || b != c.b || a != c.a;
; 1080 : }
; 1081 : 
; 1082 : 
; 1083 : #endif //__cplusplus
; 1084 : 
; 1085 : 
; 1086 : 
; 1087 : //===========================================================================
; 1088 : //
; 1089 : // Inline functions
; 1090 : //
; 1091 : //===========================================================================
; 1092 : 
; 1093 : 
; 1094 : //--------------------------
; 1095 : // 2D Vector
; 1096 : //--------------------------
; 1097 : 
; 1098 : D3DXINLINE FLOAT D3DXVec2Length
; 1099 :     ( CONST D3DXVECTOR2 *pV )
; 1100 : {
; 1101 : #ifdef D3DX_DEBUG
; 1102 :     if(!pV)
; 1103 :         return 0.0f;
; 1104 : #endif
; 1105 : 
; 1106 : #ifdef __cplusplus
; 1107 :     return sqrtf(pV->x * pV->x + pV->y * pV->y);
; 1108 : #else
; 1109 :     return (FLOAT) sqrt(pV->x * pV->x + pV->y * pV->y);
; 1110 : #endif
; 1111 : }
; 1112 : 
; 1113 : D3DXINLINE FLOAT D3DXVec2LengthSq
; 1114 :     ( CONST D3DXVECTOR2 *pV )
; 1115 : {
; 1116 : #ifdef D3DX_DEBUG
; 1117 :     if(!pV)
; 1118 :         return 0.0f;
; 1119 : #endif
; 1120 : 
; 1121 :     return pV->x * pV->x + pV->y * pV->y;
; 1122 : }
; 1123 : 
; 1124 : D3DXINLINE FLOAT D3DXVec2Dot
; 1125 :     ( CONST D3DXVECTOR2 *pV1, CONST D3DXVECTOR2 *pV2 )
; 1126 : {
; 1127 : #ifdef D3DX_DEBUG
; 1128 :     if(!pV1 || !pV2)
; 1129 :         return 0.0f;
; 1130 : #endif
; 1131 : 
; 1132 :     return pV1->x * pV2->x + pV1->y * pV2->y;
; 1133 : }
; 1134 : 
; 1135 : D3DXINLINE FLOAT D3DXVec2CCW
; 1136 :     ( CONST D3DXVECTOR2 *pV1, CONST D3DXVECTOR2 *pV2 )
; 1137 : {
; 1138 : #ifdef D3DX_DEBUG
; 1139 :     if(!pV1 || !pV2)
; 1140 :         return 0.0f;
; 1141 : #endif
; 1142 : 
; 1143 :     return pV1->x * pV2->y - pV1->y * pV2->x;
; 1144 : }
; 1145 : 
; 1146 : D3DXINLINE D3DXVECTOR2* D3DXVec2Add
; 1147 :     ( D3DXVECTOR2 *pOut, CONST D3DXVECTOR2 *pV1, CONST D3DXVECTOR2 *pV2 )
; 1148 : {
; 1149 : #ifdef D3DX_DEBUG
; 1150 :     if(!pOut || !pV1 || !pV2)
; 1151 :         return NULL;
; 1152 : #endif
; 1153 : 
; 1154 :     pOut->x = pV1->x + pV2->x;
; 1155 :     pOut->y = pV1->y + pV2->y;
; 1156 :     return pOut;
; 1157 : }
; 1158 : 
; 1159 : D3DXINLINE D3DXVECTOR2* D3DXVec2Subtract
; 1160 :     ( D3DXVECTOR2 *pOut, CONST D3DXVECTOR2 *pV1, CONST D3DXVECTOR2 *pV2 )
; 1161 : {
; 1162 : #ifdef D3DX_DEBUG
; 1163 :     if(!pOut || !pV1 || !pV2)
; 1164 :         return NULL;
; 1165 : #endif
; 1166 : 
; 1167 :     pOut->x = pV1->x - pV2->x;
; 1168 :     pOut->y = pV1->y - pV2->y;
; 1169 :     return pOut;
; 1170 : }
; 1171 : 
; 1172 : D3DXINLINE D3DXVECTOR2* D3DXVec2Minimize
; 1173 :     ( D3DXVECTOR2 *pOut, CONST D3DXVECTOR2 *pV1, CONST D3DXVECTOR2 *pV2 )
; 1174 : {
; 1175 : #ifdef D3DX_DEBUG
; 1176 :     if(!pOut || !pV1 || !pV2)
; 1177 :         return NULL;
; 1178 : #endif
; 1179 : 
; 1180 :     pOut->x = pV1->x < pV2->x ? pV1->x : pV2->x;
; 1181 :     pOut->y = pV1->y < pV2->y ? pV1->y : pV2->y;
; 1182 :     return pOut;
; 1183 : }
; 1184 : 
; 1185 : D3DXINLINE D3DXVECTOR2* D3DXVec2Maximize
; 1186 :     ( D3DXVECTOR2 *pOut, CONST D3DXVECTOR2 *pV1, CONST D3DXVECTOR2 *pV2 )
; 1187 : {
; 1188 : #ifdef D3DX_DEBUG
; 1189 :     if(!pOut || !pV1 || !pV2)
; 1190 :         return NULL;
; 1191 : #endif
; 1192 : 
; 1193 :     pOut->x = pV1->x > pV2->x ? pV1->x : pV2->x;
; 1194 :     pOut->y = pV1->y > pV2->y ? pV1->y : pV2->y;
; 1195 :     return pOut;
; 1196 : }
; 1197 : 
; 1198 : D3DXINLINE D3DXVECTOR2* D3DXVec2Scale
; 1199 :     ( D3DXVECTOR2 *pOut, CONST D3DXVECTOR2 *pV, FLOAT s )
; 1200 : {
; 1201 : #ifdef D3DX_DEBUG
; 1202 :     if(!pOut || !pV)
; 1203 :         return NULL;
; 1204 : #endif
; 1205 : 
; 1206 :     pOut->x = pV->x * s;
; 1207 :     pOut->y = pV->y * s;
; 1208 :     return pOut;
; 1209 : }
; 1210 : 
; 1211 : D3DXINLINE D3DXVECTOR2* D3DXVec2Lerp
; 1212 :     ( D3DXVECTOR2 *pOut, CONST D3DXVECTOR2 *pV1, CONST D3DXVECTOR2 *pV2,
; 1213 :       FLOAT s )
; 1214 : {
; 1215 : #ifdef D3DX_DEBUG
; 1216 :     if(!pOut || !pV1 || !pV2)
; 1217 :         return NULL;
; 1218 : #endif
; 1219 : 
; 1220 :     pOut->x = pV1->x + s * (pV2->x - pV1->x);
; 1221 :     pOut->y = pV1->y + s * (pV2->y - pV1->y);
; 1222 :     return pOut;
; 1223 : }
; 1224 : 
; 1225 : 
; 1226 : //--------------------------
; 1227 : // 3D Vector
; 1228 : //--------------------------
; 1229 : 
; 1230 : D3DXINLINE FLOAT D3DXVec3Length
; 1231 :     ( CONST D3DXVECTOR3 *pV )
; 1232 : {
; 1233 : #ifdef D3DX_DEBUG
; 1234 :     if(!pV)
; 1235 :         return 0.0f;
; 1236 : #endif
; 1237 : 
; 1238 : #ifdef __cplusplus
; 1239 :     return sqrtf(pV->x * pV->x + pV->y * pV->y + pV->z * pV->z);
; 1240 : #else
; 1241 :     return (FLOAT) sqrt(pV->x * pV->x + pV->y * pV->y + pV->z * pV->z);
; 1242 : #endif
; 1243 : }
; 1244 : 
; 1245 : D3DXINLINE FLOAT D3DXVec3LengthSq
; 1246 :     ( CONST D3DXVECTOR3 *pV )
; 1247 : {
; 1248 : #ifdef D3DX_DEBUG
; 1249 :     if(!pV)
; 1250 :         return 0.0f;
; 1251 : #endif
; 1252 : 
; 1253 :     return pV->x * pV->x + pV->y * pV->y + pV->z * pV->z;
; 1254 : }
; 1255 : 
; 1256 : D3DXINLINE FLOAT D3DXVec3Dot
; 1257 :     ( CONST D3DXVECTOR3 *pV1, CONST D3DXVECTOR3 *pV2 )
; 1258 : {
; 1259 : #ifdef D3DX_DEBUG
; 1260 :     if(!pV1 || !pV2)
; 1261 :         return 0.0f;
; 1262 : #endif
; 1263 : 
; 1264 :     return pV1->x * pV2->x + pV1->y * pV2->y + pV1->z * pV2->z;
; 1265 : }
; 1266 : 
; 1267 : D3DXINLINE D3DXVECTOR3* D3DXVec3Cross
; 1268 :     ( D3DXVECTOR3 *pOut, CONST D3DXVECTOR3 *pV1, CONST D3DXVECTOR3 *pV2 )
; 1269 : {
; 1270 :     D3DXVECTOR3 v;
; 1271 : 
; 1272 : #ifdef D3DX_DEBUG
; 1273 :     if(!pOut || !pV1 || !pV2)
; 1274 :         return NULL;
; 1275 : #endif
; 1276 : 
; 1277 :     v.x = pV1->y * pV2->z - pV1->z * pV2->y;
; 1278 :     v.y = pV1->z * pV2->x - pV1->x * pV2->z;
; 1279 :     v.z = pV1->x * pV2->y - pV1->y * pV2->x;
; 1280 : 
; 1281 :     *pOut = v;
; 1282 :     return pOut;
; 1283 : }
; 1284 : 
; 1285 : D3DXINLINE D3DXVECTOR3* D3DXVec3Add
; 1286 :     ( D3DXVECTOR3 *pOut, CONST D3DXVECTOR3 *pV1, CONST D3DXVECTOR3 *pV2 )
; 1287 : {
; 1288 : #ifdef D3DX_DEBUG
; 1289 :     if(!pOut || !pV1 || !pV2)
; 1290 :         return NULL;
; 1291 : #endif
; 1292 : 
; 1293 :     pOut->x = pV1->x + pV2->x;

  00142	f3 0f 58 5c 24
	14		 addss	 xmm3, DWORD PTR _kD3DVt3Cur$1$[esp+132]

; 1351 :     pOut->z = pV->z * s;

  00148	f3 0f 11 54 24
	20		 movss	 DWORD PTR _kD3DVt3AdvDir$[esp+140], xmm2

; 1295 :     pOut->z = pV1->z + pV2->z;

  0014e	f3 0f 58 54 24
	0c		 addss	 xmm2, DWORD PTR _kD3DVt3Cur$3$[esp+132]

; 1350 :     pOut->y = pV->y * s;

  00154	f3 0f 11 4c 24
	1c		 movss	 DWORD PTR _kD3DVt3AdvDir$[esp+136], xmm1
; File d:\metin2\metin2\client_source_clean\client_source_clean\source\userinterface\instancebasemovement.cpp

; 331  : 	kPPosDst.y = -kD3DVt3Dst.y;

  0015a	0f 57 05 00 00
	00 00		 xorps	 xmm0, DWORD PTR __xmm@80000000800000008000000080000000
  00161	f3 0f 11 5c 24
	30		 movss	 DWORD PTR _kPPosDst$[esp+132], xmm3
  00167	f3 0f 11 44 24
	34		 movss	 DWORD PTR _kPPosDst$[esp+136], xmm0

; 332  : 	kPPosDst.z = +kD3DVt3Dst.z;

  0016d	f3 0f 11 54 24
	38		 movss	 DWORD PTR _kPPosDst$[esp+140], xmm2

; 334  : 	NEW_SetSrcPixelPosition(kPPosCur);

  00173	e8 00 00 00 00	 call	 ?NEW_SetSrcPixelPosition@CInstanceBase@@IAEXABUD3DXVECTOR3@@@Z ; CInstanceBase::NEW_SetSrcPixelPosition

; 335  : 	NEW_SetDstPixelPosition(kPPosDst);

  00178	8d 44 24 2c	 lea	 eax, DWORD PTR _kPPosDst$[esp+128]
  0017c	8b ce		 mov	 ecx, esi
  0017e	50		 push	 eax
  0017f	e8 00 00 00 00	 call	 ?NEW_SetDstPixelPosition@CInstanceBase@@IAEXABUD3DXVECTOR3@@@Z ; CInstanceBase::NEW_SetDstPixelPosition
$LN5@NEW_MoveTo:

; 336  : }

  00184	8b 4c 24 7c	 mov	 ecx, DWORD PTR __$ArrayPad$[esp+128]
  00188	5e		 pop	 esi
  00189	33 cc		 xor	 ecx, esp
  0018b	e8 00 00 00 00	 call	 @__security_check_cookie@4
  00190	8b e5		 mov	 esp, ebp
  00192	5d		 pop	 ebp
  00193	c3		 ret	 0
?NEW_MoveToDirection@CInstanceBase@@QAEXM@Z ENDP	; CInstanceBase::NEW_MoveToDirection
_TEXT	ENDS
; Function compile flags: /Ogtp
; File d:\metin2\metin2\client_source_clean\client_source_clean\source\userinterface\instancebasemovement.cpp
;	COMDAT ?SetRunMode@CInstanceBase@@QAEXXZ
_TEXT	SEGMENT
?SetRunMode@CInstanceBase@@QAEXXZ PROC			; CInstanceBase::SetRunMode, COMDAT
; _this$ = ecx

; 350  : 	m_GraphicThingInstance.SetRunMode();

  00000	81 c1 d4 01 00
	00		 add	 ecx, 468		; 000001d4H
  00006	e9 00 00 00 00	 jmp	 ?SetRunMode@CActorInstance@@QAEXXZ ; CActorInstance::SetRunMode
?SetRunMode@CInstanceBase@@QAEXXZ ENDP			; CInstanceBase::SetRunMode
_TEXT	ENDS
; Function compile flags: /Ogtp
; File d:\metin2\metin2\client_source_clean\client_source_clean\source\userinterface\instancebasemovement.cpp
;	COMDAT ?SetWalkMode@CInstanceBase@@QAEXXZ
_TEXT	SEGMENT
?SetWalkMode@CInstanceBase@@QAEXXZ PROC			; CInstanceBase::SetWalkMode, COMDAT
; _this$ = ecx

; 355  : 	m_GraphicThingInstance.SetWalkMode();

  00000	81 c1 d4 01 00
	00		 add	 ecx, 468		; 000001d4H
  00006	e9 00 00 00 00	 jmp	 ?SetWalkMode@CActorInstance@@QAEXXZ ; CActorInstance::SetWalkMode
?SetWalkMode@CInstanceBase@@QAEXXZ ENDP			; CInstanceBase::SetWalkMode
_TEXT	ENDS
; Function compile flags: /Ogtp
; File d:\metin2\metin2\client_source_clean\client_source_clean\extern\include\d3dx8math.inl
;	COMDAT ?D3DXVec3Add@@YAPAUD3DXVECTOR3@@PAU1@PBU1@1@Z
_TEXT	SEGMENT
_pOut$ = 8						; size = 4
_pV1$ = 12						; size = 4
_pV2$ = 16						; size = 4
?D3DXVec3Add@@YAPAUD3DXVECTOR3@@PAU1@PBU1@1@Z PROC	; D3DXVec3Add, COMDAT

; 1287 : {

  00000	55		 push	 ebp
  00001	8b ec		 mov	 ebp, esp

; 1288 : #ifdef D3DX_DEBUG
; 1289 :     if(!pOut || !pV1 || !pV2)
; 1290 :         return NULL;
; 1291 : #endif
; 1292 : 
; 1293 :     pOut->x = pV1->x + pV2->x;

  00003	8b 55 0c	 mov	 edx, DWORD PTR _pV1$[ebp]
  00006	8b 4d 10	 mov	 ecx, DWORD PTR _pV2$[ebp]
  00009	8b 45 08	 mov	 eax, DWORD PTR _pOut$[ebp]
  0000c	f3 0f 10 02	 movss	 xmm0, DWORD PTR [edx]
  00010	f3 0f 58 01	 addss	 xmm0, DWORD PTR [ecx]
  00014	f3 0f 11 00	 movss	 DWORD PTR [eax], xmm0

; 1294 :     pOut->y = pV1->y + pV2->y;

  00018	f3 0f 10 42 04	 movss	 xmm0, DWORD PTR [edx+4]
  0001d	f3 0f 58 41 04	 addss	 xmm0, DWORD PTR [ecx+4]
  00022	f3 0f 11 40 04	 movss	 DWORD PTR [eax+4], xmm0

; 1295 :     pOut->z = pV1->z + pV2->z;

  00027	f3 0f 10 42 08	 movss	 xmm0, DWORD PTR [edx+8]
  0002c	f3 0f 58 41 08	 addss	 xmm0, DWORD PTR [ecx+8]
  00031	f3 0f 11 40 08	 movss	 DWORD PTR [eax+8], xmm0

; 1296 :     return pOut;
; 1297 : }

  00036	5d		 pop	 ebp
  00037	c3		 ret	 0
?D3DXVec3Add@@YAPAUD3DXVECTOR3@@PAU1@PBU1@1@Z ENDP	; D3DXVec3Add
_TEXT	ENDS
; Function compile flags: /Ogtp
; File d:\metin2\metin2\client_source_clean\client_source_clean\extern\include\d3dx8math.inl
;	COMDAT ?D3DXVec3Scale@@YAPAUD3DXVECTOR3@@PAU1@PBU1@M@Z
_TEXT	SEGMENT
_pOut$ = 8						; size = 4
_pV$ = 12						; size = 4
_s$ = 16						; size = 4
?D3DXVec3Scale@@YAPAUD3DXVECTOR3@@PAU1@PBU1@M@Z PROC	; D3DXVec3Scale, COMDAT

; 1343 : {

  00000	55		 push	 ebp
  00001	8b ec		 mov	 ebp, esp

; 1344 : #ifdef D3DX_DEBUG
; 1345 :     if(!pOut || !pV)
; 1346 :         return NULL;
; 1347 : #endif
; 1348 : 
; 1349 :     pOut->x = pV->x * s;

  00003	8b 4d 0c	 mov	 ecx, DWORD PTR _pV$[ebp]
  00006	f3 0f 10 4d 10	 movss	 xmm1, DWORD PTR _s$[ebp]
  0000b	8b 45 08	 mov	 eax, DWORD PTR _pOut$[ebp]
  0000e	f3 0f 10 01	 movss	 xmm0, DWORD PTR [ecx]
  00012	f3 0f 59 c1	 mulss	 xmm0, xmm1
  00016	f3 0f 11 00	 movss	 DWORD PTR [eax], xmm0

; 1350 :     pOut->y = pV->y * s;

  0001a	f3 0f 10 41 04	 movss	 xmm0, DWORD PTR [ecx+4]
  0001f	f3 0f 59 c1	 mulss	 xmm0, xmm1
  00023	f3 0f 11 40 04	 movss	 DWORD PTR [eax+4], xmm0

; 1351 :     pOut->z = pV->z * s;

  00028	f3 0f 10 41 08	 movss	 xmm0, DWORD PTR [ecx+8]
  0002d	f3 0f 59 c1	 mulss	 xmm0, xmm1
  00031	f3 0f 11 40 08	 movss	 DWORD PTR [eax+8], xmm0

; 1352 :     return pOut;
; 1353 : }

  00036	5d		 pop	 ebp
  00037	c3		 ret	 0
?D3DXVec3Scale@@YAPAUD3DXVECTOR3@@PAU1@PBU1@M@Z ENDP	; D3DXVec3Scale
_TEXT	ENDS
; Function compile flags: /Ogtp
; File c:\program files (x86)\microsoft visual studio 12.0\vc\include\math.h
;	COMDAT ?floor@@YAMM@Z
_TEXT	SEGMENT
tv75 = -8						; size = 4
tv71 = -8						; size = 8
__X$ = 8						; size = 4
?floor@@YAMM@Z PROC					; floor, COMDAT

; 1070 :         {return (floorf(_X)); }

  00000	55		 push	 ebp
  00001	8b ec		 mov	 ebp, esp
  00003	83 e4 c0	 and	 esp, -64		; ffffffc0H
  00006	83 ec 40	 sub	 esp, 64			; 00000040H
  00009	f3 0f 10 45 08	 movss	 xmm0, DWORD PTR __X$[ebp]

; 701  :     return (float)floor(_X);

  0000e	83 ec 08	 sub	 esp, 8
  00011	0f 5a c0	 cvtps2pd xmm0, xmm0
  00014	f2 0f 11 44 24
	40		 movsd	 QWORD PTR tv71[esp+72], xmm0
  0001a	dd 44 24 40	 fld	 QWORD PTR tv71[esp+72]
  0001e	dd 1c 24	 fstp	 QWORD PTR [esp]
  00021	e8 00 00 00 00	 call	 _floor
  00026	d9 5c 24 40	 fstp	 DWORD PTR tv75[esp+72]
  0002a	d9 44 24 40	 fld	 DWORD PTR tv75[esp+72]
  0002e	83 c4 08	 add	 esp, 8

; 1070 :         {return (floorf(_X)); }

  00031	8b e5		 mov	 esp, ebp
  00033	5d		 pop	 ebp
  00034	c3		 ret	 0
?floor@@YAMM@Z ENDP					; floor
_TEXT	ENDS
END
