; Listing generated by Microsoft (R) Optimizing Compiler Version 18.00.40629.0 

	TITLE	D:\Metin2\Metin2\client_source_clean\client_source_clean\source\UserInterface\InstanceBaseBattle.cpp
	.686P
	.XMM
	include listing.inc
	.model	flat

INCLUDELIB OLDNAMES

PUBLIC	??_C@_0BE@JONHPENG@map?1set?$DMT?$DO?5too?5long?$AA@ ; `string'
EXTRN	?Die@CActorInstance@@QAEXXZ:PROC		; CActorInstance::Die
EXTRN	?Stun@CActorInstance@@QAEXXZ:PROC		; CActorInstance::Stun
EXTRN	?Revive@CActorInstance@@QAEXXZ:PROC		; CActorInstance::Revive
EXTRN	?SetBlendingPosition@CActorInstance@@QAEXABUD3DXVECTOR3@@M@Z:PROC ; CActorInstance::SetBlendingPosition
EXTRN	?GetBlendingPosition@CActorInstance@@QAEXPAUD3DXVECTOR3@@@Z:PROC ; CActorInstance::GetBlendingPosition
EXTRN	?GetAttackingElapsedTime@CActorInstance@@QAEMXZ:PROC ; CActorInstance::GetAttackingElapsedTime
EXTRN	?GetComboIndex@CActorInstance@@QAEKXZ:PROC	; CActorInstance::GetComboIndex
EXTRN	?GetNormalAttackIndex@CActorInstance@@QAEKXZ:PROC ; CActorInstance::GetNormalAttackIndex
EXTRN	?isComboAttacking@CActorInstance@@QAEHXZ:PROC	; CActorInstance::isComboAttacking
EXTRN	?isNormalAttacking@CActorInstance@@QAEHXZ:PROC	; CActorInstance::isNormalAttacking
EXTRN	?AttackingProcess@CActorInstance@@QAEHAAV1@@Z:PROC ; CActorInstance::AttackingProcess
EXTRN	?AdjustDynamicCollisionMovement@CActorInstance@@QAEXPBV1@@Z:PROC ; CActorInstance::AdjustDynamicCollisionMovement
EXTRN	?CanSkipCollision@CActorInstance@@QAE_NXZ:PROC	; CActorInstance::CanSkipCollision
EXTRN	?TestActorCollision@CActorInstance@@QAEHAAV1@@Z:PROC ; CActorInstance::TestActorCollision
EXTRN	?ComboAttack@CActorInstance@@QAEHKMM@Z:PROC	; CActorInstance::ComboAttack
EXTRN	?NormalAttack@CActorInstance@@QAEHMM@Z:PROC	; CActorInstance::NormalAttack
EXTRN	?InputComboAttackCommand@CActorInstance@@QAE_NM@Z:PROC ; CActorInstance::InputComboAttackCommand
EXTRN	?InputNormalAttackCommand@CActorInstance@@QAEXM@Z:PROC ; CActorInstance::InputNormalAttackCommand
EXTRN	?CanCheckAttacking@CActorInstance@@QAEHXZ:PROC	; CActorInstance::CanCheckAttacking
EXTRN	?SetMotionLoopCount@CActorInstance@@QAEXH@Z:PROC ; CActorInstance::SetMotionLoopCount
EXTRN	?__OnUseSkill@CActorInstance@@QAEXII_N@Z:PROC	; CActorInstance::__OnUseSkill
EXTRN	?IsClickableDistanceDestInstance@CActorInstance@@QAEHAAV1@M@Z:PROC ; CActorInstance::IsClickableDistanceDestInstance
EXTRN	_D3DXVec3TransformCoord@12:PROC
EXTRN	_D3DXMatrixRotationZ@8:PROC
EXTRN	?frandom@@YAMMM@Z:PROC				; frandom
EXTRN	??0CFlyTarget@@QAE@ABUD3DXVECTOR3@@@Z:PROC	; CFlyTarget::CFlyTarget
EXTRN	?AddFlyTarget@CActorInstance@@QAEXABVCFlyTarget@@@Z:PROC ; CActorInstance::AddFlyTarget
EXTRN	??1CFlyTarget@@UAE@XZ:PROC			; CFlyTarget::~CFlyTarget
EXTRN	??0CFlyTarget@@QAE@PAVIFlyTargetableObject@@@Z:PROC ; CFlyTarget::CFlyTarget
EXTRN	?SetFlyTarget@CActorInstance@@QAEXABVCFlyTarget@@@Z:PROC ; CActorInstance::SetFlyTarget
EXTRN	?ClearFlyTarget@CActorInstance@@QAEXXZ:PROC	; CActorInstance::ClearFlyTarget
EXTRN	?GetFlyTargetDistance@CActorInstance@@QAEMXZ:PROC ; CActorInstance::GetFlyTargetDistance
EXTRN	?IsFlyTargetObject@CActorInstance@@QAE_NXZ:PROC	; CActorInstance::IsFlyTargetObject
EXTRN	_D3DXVec3Normalize@8:PROC
;	COMDAT ??_C@_0BE@JONHPENG@map?1set?$DMT?$DO?5too?5long?$AA@
CONST	SEGMENT
??_C@_0BE@JONHPENG@map?1set?$DMT?$DO?5too?5long?$AA@ DB 'map/set<T> too l'
	DB	'ong', 00H					; `string'
PUBLIC	??0D3DXMATRIX@@QAE@XZ				; D3DXMATRIX::D3DXMATRIX
PUBLIC	_acosf
PUBLIC	??KD3DXVECTOR3@@QBE?AU0@M@Z			; D3DXVECTOR3::operator/
PUBLIC	??YD3DXVECTOR3@@QAEAAU0@ABU0@@Z			; D3DXVECTOR3::operator+=
PUBLIC	??$forward@$$CBM@std@@YA$$QBMABM@Z		; std::forward<float const >
PUBLIC	??$?0$$CBMPAVCInstanceBase@@X@?$pair@$$CBMPAVCInstanceBase@@@std@@QAE@$$QAU01@@Z ; std::pair<float const ,CInstanceBase *>::pair<float const ,CInstanceBase *><float const ,CInstanceBase *,void>
PUBLIC	??$construct@U?$pair@$$CBMPAVCInstanceBase@@@std@@U12@@?$allocator@U?$_Tree_node@U?$pair@$$CBMPAVCInstanceBase@@@std@@PAX@std@@@std@@QAEXPAU?$pair@$$CBMPAVCInstanceBase@@@1@$$QAU21@@Z ; std::allocator<std::_Tree_node<std::pair<float const ,CInstanceBase *>,void *> >::construct<std::pair<float const ,CInstanceBase *>,std::pair<float const ,CInstanceBase *> >
PUBLIC	??$forward@PAVCInstanceBase@@@std@@YA$$QAPAVCInstanceBase@@AAPAV1@@Z ; std::forward<CInstanceBase *>
PUBLIC	??$forward@M@std@@YA$$QAMAAM@Z			; std::forward<float>
PUBLIC	??$construct@U?$pair@$$CBMPAVCInstanceBase@@@std@@U12@@?$allocator_traits@V?$allocator@U?$_Tree_node@U?$pair@$$CBMPAVCInstanceBase@@@std@@PAX@std@@@std@@@std@@SAXAAV?$allocator@U?$_Tree_node@U?$pair@$$CBMPAVCInstanceBase@@@std@@PAX@std@@@1@PAU?$pair@$$CBMPAVCInstanceBase@@@1@$$QAU31@@Z ; std::allocator_traits<std::allocator<std::_Tree_node<std::pair<float const ,CInstanceBase *>,void *> > >::construct<std::pair<float const ,CInstanceBase *>,std::pair<float const ,CInstanceBase *> >
PUBLIC	??$?0MPAVCInstanceBase@@X@?$pair@$$CBMPAVCInstanceBase@@@std@@QAE@$$QAU?$pair@MPAVCInstanceBase@@@1@@Z ; std::pair<float const ,CInstanceBase *>::pair<float const ,CInstanceBase *><float,CInstanceBase *,void>
PUBLIC	??$construct@U?$pair@$$CBMPAVCInstanceBase@@@std@@U12@@?$_Wrap_alloc@V?$allocator@U?$_Tree_node@U?$pair@$$CBMPAVCInstanceBase@@@std@@PAX@std@@@std@@@std@@QAEXPAU?$pair@$$CBMPAVCInstanceBase@@@1@$$QAU21@@Z ; std::_Wrap_alloc<std::allocator<std::_Tree_node<std::pair<float const ,CInstanceBase *>,void *> > >::construct<std::pair<float const ,CInstanceBase *>,std::pair<float const ,CInstanceBase *> >
PUBLIC	??$construct@U?$pair@$$CBMPAVCInstanceBase@@@std@@U?$pair@MPAVCInstanceBase@@@2@@?$allocator@U?$_Tree_node@U?$pair@$$CBMPAVCInstanceBase@@@std@@PAX@std@@@std@@QAEXPAU?$pair@$$CBMPAVCInstanceBase@@@1@$$QAU?$pair@MPAVCInstanceBase@@@1@@Z ; std::allocator<std::_Tree_node<std::pair<float const ,CInstanceBase *>,void *> >::construct<std::pair<float const ,CInstanceBase *>,std::pair<float,CInstanceBase *> >
PUBLIC	??$_Buynode@U?$pair@$$CBMPAVCInstanceBase@@@std@@@?$_Tree_buy@U?$pair@$$CBMPAVCInstanceBase@@@std@@V?$allocator@U?$pair@$$CBMPAVCInstanceBase@@@std@@@2@@std@@QAEPAU?$_Tree_node@U?$pair@$$CBMPAVCInstanceBase@@@std@@PAX@1@$$QAU?$pair@$$CBMPAVCInstanceBase@@@1@@Z ; std::_Tree_buy<std::pair<float const ,CInstanceBase *>,std::allocator<std::pair<float const ,CInstanceBase *> > >::_Buynode<std::pair<float const ,CInstanceBase *> >
PUBLIC	??$_Buynode_if_nil@AAU?$pair@$$CBMPAVCInstanceBase@@@std@@@?$_Tree@V?$_Tmap_traits@MPAVCInstanceBase@@U?$less@M@std@@V?$allocator@U?$pair@$$CBMPAVCInstanceBase@@@std@@@3@$00@std@@@std@@IAEPAU?$_Tree_node@U?$pair@$$CBMPAVCInstanceBase@@@std@@PAX@1@PAU21@AAU?$pair@$$CBMPAVCInstanceBase@@@1@@Z ; std::_Tree<std::_Tmap_traits<float,CInstanceBase *,std::less<float>,std::allocator<std::pair<float const ,CInstanceBase *> >,1> >::_Buynode_if_nil<std::pair<float const ,CInstanceBase *> &>
PUBLIC	??$construct@U?$pair@$$CBMPAVCInstanceBase@@@std@@U?$pair@MPAVCInstanceBase@@@2@@?$allocator_traits@V?$allocator@U?$_Tree_node@U?$pair@$$CBMPAVCInstanceBase@@@std@@PAX@std@@@std@@@std@@SAXAAV?$allocator@U?$_Tree_node@U?$pair@$$CBMPAVCInstanceBase@@@std@@PAX@std@@@1@PAU?$pair@$$CBMPAVCInstanceBase@@@1@$$QAU?$pair@MPAVCInstanceBase@@@1@@Z ; std::allocator_traits<std::allocator<std::_Tree_node<std::pair<float const ,CInstanceBase *>,void *> > >::construct<std::pair<float const ,CInstanceBase *>,std::pair<float,CInstanceBase *> >
PUBLIC	??$forward@AAV?$_Tree_iterator@V?$_Tree_val@U?$_Tree_simple_types@U?$pair@$$CBMPAVCInstanceBase@@@std@@@std@@@std@@@std@@@std@@YAAAV?$_Tree_iterator@V?$_Tree_val@U?$_Tree_simple_types@U?$pair@$$CBMPAVCInstanceBase@@@std@@@std@@@std@@@0@AAV10@@Z ; std::forward<std::_Tree_iterator<std::_Tree_val<std::_Tree_simple_types<std::pair<float const ,CInstanceBase *> > > > &>
PUBLIC	??$forward@V?$_Tree_iterator@V?$_Tree_val@U?$_Tree_simple_types@U?$pair@$$CBMPAVCInstanceBase@@@std@@@std@@@std@@@std@@@std@@YA$$QAV?$_Tree_iterator@V?$_Tree_val@U?$_Tree_simple_types@U?$pair@$$CBMPAVCInstanceBase@@@std@@@std@@@std@@@0@AAV10@@Z ; std::forward<std::_Tree_iterator<std::_Tree_val<std::_Tree_simple_types<std::pair<float const ,CInstanceBase *> > > > >
PUBLIC	??$_Buynode_if_nil@U?$pair@$$CBMPAVCInstanceBase@@@std@@@?$_Tree@V?$_Tmap_traits@MPAVCInstanceBase@@U?$less@M@std@@V?$allocator@U?$pair@$$CBMPAVCInstanceBase@@@std@@@3@$00@std@@@std@@IAEPAU?$_Tree_node@U?$pair@$$CBMPAVCInstanceBase@@@std@@PAX@1@U_Nil@1@$$QAU?$pair@$$CBMPAVCInstanceBase@@@1@@Z ; std::_Tree<std::_Tmap_traits<float,CInstanceBase *,std::less<float>,std::allocator<std::pair<float const ,CInstanceBase *> >,1> >::_Buynode_if_nil<std::pair<float const ,CInstanceBase *> >
PUBLIC	??$_Insert_at@AAU?$pair@$$CBMPAVCInstanceBase@@@std@@PAU?$_Tree_node@U?$pair@$$CBMPAVCInstanceBase@@@std@@PAX@2@@?$_Tree@V?$_Tmap_traits@MPAVCInstanceBase@@U?$less@M@std@@V?$allocator@U?$pair@$$CBMPAVCInstanceBase@@@std@@@3@$00@std@@@std@@IAE?AV?$_Tree_iterator@V?$_Tree_val@U?$_Tree_simple_types@U?$pair@$$CBMPAVCInstanceBase@@@std@@@std@@@std@@@1@_NPAU?$_Tree_node@U?$pair@$$CBMPAVCInstanceBase@@@std@@PAX@1@AAU?$pair@$$CBMPAVCInstanceBase@@@1@1@Z ; std::_Tree<std::_Tmap_traits<float,CInstanceBase *,std::less<float>,std::allocator<std::pair<float const ,CInstanceBase *> >,1> >::_Insert_at<std::pair<float const ,CInstanceBase *> &,std::_Tree_node<std::pair<float const ,CInstanceBase *>,void *> *>
PUBLIC	??$forward@AAU?$pair@$$CBMPAVCInstanceBase@@@std@@@std@@YAAAU?$pair@$$CBMPAVCInstanceBase@@@0@AAU10@@Z ; std::forward<std::pair<float const ,CInstanceBase *> &>
PUBLIC	??$construct@U?$pair@$$CBMPAVCInstanceBase@@@std@@U?$pair@MPAVCInstanceBase@@@2@@?$_Wrap_alloc@V?$allocator@U?$_Tree_node@U?$pair@$$CBMPAVCInstanceBase@@@std@@PAX@std@@@std@@@std@@QAEXPAU?$pair@$$CBMPAVCInstanceBase@@@1@$$QAU?$pair@MPAVCInstanceBase@@@1@@Z ; std::_Wrap_alloc<std::allocator<std::_Tree_node<std::pair<float const ,CInstanceBase *>,void *> > >::construct<std::pair<float const ,CInstanceBase *>,std::pair<float,CInstanceBase *> >
PUBLIC	?max_size@?$allocator@U?$_Tree_node@U?$pair@$$CBMPAVCInstanceBase@@@std@@PAX@std@@@std@@QBEIXZ ; std::allocator<std::_Tree_node<std::pair<float const ,CInstanceBase *>,void *> >::max_size
PUBLIC	?max_size@?$allocator_traits@V?$allocator@U?$_Tree_node@U?$pair@$$CBMPAVCInstanceBase@@@std@@PAX@std@@@std@@@std@@SAIABV?$allocator@U?$_Tree_node@U?$pair@$$CBMPAVCInstanceBase@@@std@@PAX@std@@@2@@Z ; std::allocator_traits<std::allocator<std::_Tree_node<std::pair<float const ,CInstanceBase *>,void *> > >::max_size
PUBLIC	?max_size@?$_Wrap_alloc@V?$allocator@U?$_Tree_node@U?$pair@$$CBMPAVCInstanceBase@@@std@@PAX@std@@@std@@@std@@QBEIXZ ; std::_Wrap_alloc<std::allocator<std::_Tree_node<std::pair<float const ,CInstanceBase *>,void *> > >::max_size
PUBLIC	?_Freenode0@?$_Tree_buy@U?$pair@$$CBMPAVCInstanceBase@@@std@@V?$allocator@U?$pair@$$CBMPAVCInstanceBase@@@std@@@2@@std@@QAEXPAU?$_Tree_node@U?$pair@$$CBMPAVCInstanceBase@@@std@@PAX@2@@Z ; std::_Tree_buy<std::pair<float const ,CInstanceBase *>,std::allocator<std::pair<float const ,CInstanceBase *> > >::_Freenode0
PUBLIC	?_Buynode0@?$_Tree_buy@U?$pair@$$CBMPAVCInstanceBase@@@std@@V?$allocator@U?$pair@$$CBMPAVCInstanceBase@@@std@@@2@@std@@QAEPAU?$_Tree_node@U?$pair@$$CBMPAVCInstanceBase@@@std@@PAX@2@XZ ; std::_Tree_buy<std::pair<float const ,CInstanceBase *>,std::allocator<std::pair<float const ,CInstanceBase *> > >::_Buynode0
PUBLIC	?_Destroy_if_not_nil@?$_Tree@V?$_Tmap_traits@MPAVCInstanceBase@@U?$less@M@std@@V?$allocator@U?$pair@$$CBMPAVCInstanceBase@@@std@@@3@$00@std@@@std@@IAEXPAU?$_Tree_node@U?$pair@$$CBMPAVCInstanceBase@@@std@@PAX@2@@Z ; std::_Tree<std::_Tmap_traits<float,CInstanceBase *,std::less<float>,std::allocator<std::pair<float const ,CInstanceBase *> >,1> >::_Destroy_if_not_nil
PUBLIC	?max_size@?$_Tree@V?$_Tmap_traits@MPAVCInstanceBase@@U?$less@M@std@@V?$allocator@U?$pair@$$CBMPAVCInstanceBase@@@std@@@3@$00@std@@@std@@QBEIXZ ; std::_Tree<std::_Tmap_traits<float,CInstanceBase *,std::less<float>,std::allocator<std::pair<float const ,CInstanceBase *> >,1> >::max_size
PUBLIC	??$_Kfn@$$CBMPAVCInstanceBase@@@?$_Tmap_traits@MPAVCInstanceBase@@U?$less@M@std@@V?$allocator@U?$pair@$$CBMPAVCInstanceBase@@@std@@@3@$00@std@@SAABMABU?$pair@$$CBMPAVCInstanceBase@@@1@@Z ; std::_Tmap_traits<float,CInstanceBase *,std::less<float>,std::allocator<std::pair<float const ,CInstanceBase *> >,1>::_Kfn<float const ,CInstanceBase *>
PUBLIC	??$?0AAV?$_Tree_iterator@V?$_Tree_val@U?$_Tree_simple_types@U?$pair@$$CBMPAVCInstanceBase@@@std@@@std@@@std@@@std@@_NX@?$pair@V?$_Tree_iterator@V?$_Tree_val@U?$_Tree_simple_types@U?$pair@$$CBMPAVCInstanceBase@@@std@@@std@@@std@@@std@@_N@std@@QAE@AAV?$_Tree_iterator@V?$_Tree_val@U?$_Tree_simple_types@U?$pair@$$CBMPAVCInstanceBase@@@std@@@std@@@std@@@1@$$QA_N@Z ; std::pair<std::_Tree_iterator<std::_Tree_val<std::_Tree_simple_types<std::pair<float const ,CInstanceBase *> > > >,bool>::pair<std::_Tree_iterator<std::_Tree_val<std::_Tree_simple_types<std::pair<float const ,CInstanceBase *> > > >,bool><std::_Tree_iterator<std::_Tree_val<std::_Tree_simple_types<std::pair<float const ,CInstanceBase *> > > > &,bool,void>
PUBLIC	??$?0V?$_Tree_iterator@V?$_Tree_val@U?$_Tree_simple_types@U?$pair@$$CBMPAVCInstanceBase@@@std@@@std@@@std@@@std@@_NX@?$pair@V?$_Tree_iterator@V?$_Tree_val@U?$_Tree_simple_types@U?$pair@$$CBMPAVCInstanceBase@@@std@@@std@@@std@@@std@@_N@std@@QAE@$$QAV?$_Tree_iterator@V?$_Tree_val@U?$_Tree_simple_types@U?$pair@$$CBMPAVCInstanceBase@@@std@@@std@@@std@@@1@$$QA_N@Z ; std::pair<std::_Tree_iterator<std::_Tree_val<std::_Tree_simple_types<std::pair<float const ,CInstanceBase *> > > >,bool>::pair<std::_Tree_iterator<std::_Tree_val<std::_Tree_simple_types<std::pair<float const ,CInstanceBase *> > > >,bool><std::_Tree_iterator<std::_Tree_val<std::_Tree_simple_types<std::pair<float const ,CInstanceBase *> > > >,bool,void>
PUBLIC	??$_Insert_at@U?$pair@$$CBMPAVCInstanceBase@@@std@@U_Nil@2@@?$_Tree@V?$_Tmap_traits@MPAVCInstanceBase@@U?$less@M@std@@V?$allocator@U?$pair@$$CBMPAVCInstanceBase@@@std@@@3@$00@std@@@std@@IAE?AV?$_Tree_iterator@V?$_Tree_val@U?$_Tree_simple_types@U?$pair@$$CBMPAVCInstanceBase@@@std@@@std@@@std@@@1@_NPAU?$_Tree_node@U?$pair@$$CBMPAVCInstanceBase@@@std@@PAX@1@$$QAU?$pair@$$CBMPAVCInstanceBase@@@1@U_Nil@1@@Z ; std::_Tree<std::_Tmap_traits<float,CInstanceBase *,std::less<float>,std::allocator<std::pair<float const ,CInstanceBase *> >,1> >::_Insert_at<std::pair<float const ,CInstanceBase *>,std::_Nil>
PUBLIC	??$construct@PAU?$_Tree_node@U?$pair@$$CBMPAVCInstanceBase@@@std@@PAX@std@@AAPAU12@@?$allocator@U?$_Tree_node@U?$pair@$$CBMPAVCInstanceBase@@@std@@PAX@std@@@std@@QAEXPAPAU?$_Tree_node@U?$pair@$$CBMPAVCInstanceBase@@@std@@PAX@1@AAPAU21@@Z ; std::allocator<std::_Tree_node<std::pair<float const ,CInstanceBase *>,void *> >::construct<std::_Tree_node<std::pair<float const ,CInstanceBase *>,void *> *,std::_Tree_node<std::pair<float const ,CInstanceBase *>,void *> * &>
PUBLIC	??$destroy@U?$pair@$$CBMPAVCInstanceBase@@@std@@@?$allocator@U?$_Tree_node@U?$pair@$$CBMPAVCInstanceBase@@@std@@PAX@std@@@std@@QAEXPAU?$pair@$$CBMPAVCInstanceBase@@@1@@Z ; std::allocator<std::_Tree_node<std::pair<float const ,CInstanceBase *>,void *> >::destroy<std::pair<float const ,CInstanceBase *> >
PUBLIC	??$destroy@PAU?$_Tree_node@U?$pair@$$CBMPAVCInstanceBase@@@std@@PAX@std@@@?$allocator@U?$_Tree_node@U?$pair@$$CBMPAVCInstanceBase@@@std@@PAX@std@@@std@@QAEXPAPAU?$_Tree_node@U?$pair@$$CBMPAVCInstanceBase@@@std@@PAX@1@@Z ; std::allocator<std::_Tree_node<std::pair<float const ,CInstanceBase *>,void *> >::destroy<std::_Tree_node<std::pair<float const ,CInstanceBase *>,void *> *>
PUBLIC	??$forward@_N@std@@YA$$QA_NAA_N@Z		; std::forward<bool>
PUBLIC	??$_Insert_nohint@AAU?$pair@$$CBMPAVCInstanceBase@@@std@@PAU?$_Tree_node@U?$pair@$$CBMPAVCInstanceBase@@@std@@PAX@2@@?$_Tree@V?$_Tmap_traits@MPAVCInstanceBase@@U?$less@M@std@@V?$allocator@U?$pair@$$CBMPAVCInstanceBase@@@std@@@3@$00@std@@@std@@IAE?AU?$pair@V?$_Tree_iterator@V?$_Tree_val@U?$_Tree_simple_types@U?$pair@$$CBMPAVCInstanceBase@@@std@@@std@@@std@@@std@@_N@1@_NAAU?$pair@$$CBMPAVCInstanceBase@@@1@PAU?$_Tree_node@U?$pair@$$CBMPAVCInstanceBase@@@std@@PAX@1@@Z ; std::_Tree<std::_Tmap_traits<float,CInstanceBase *,std::less<float>,std::allocator<std::pair<float const ,CInstanceBase *> >,1> >::_Insert_nohint<std::pair<float const ,CInstanceBase *> &,std::_Tree_node<std::pair<float const ,CInstanceBase *>,void *> *>
PUBLIC	??$_Buynode@U?$pair@MPAVCInstanceBase@@@std@@@?$_Tree_buy@U?$pair@$$CBMPAVCInstanceBase@@@std@@V?$allocator@U?$pair@$$CBMPAVCInstanceBase@@@std@@@2@@std@@QAEPAU?$_Tree_node@U?$pair@$$CBMPAVCInstanceBase@@@std@@PAX@1@$$QAU?$pair@MPAVCInstanceBase@@@1@@Z ; std::_Tree_buy<std::pair<float const ,CInstanceBase *>,std::allocator<std::pair<float const ,CInstanceBase *> > >::_Buynode<std::pair<float,CInstanceBase *> >
PUBLIC	??F?$_Tree_unchecked_const_iterator@V?$_Tree_val@U?$_Tree_simple_types@U?$pair@$$CBMPAVCInstanceBase@@@std@@@std@@@std@@U_Iterator_base0@2@@std@@QAEAAV01@XZ ; std::_Tree_unchecked_const_iterator<std::_Tree_val<std::_Tree_simple_types<std::pair<float const ,CInstanceBase *> > >,std::_Iterator_base0>::operator--
PUBLIC	??F?$_Tree_const_iterator@V?$_Tree_val@U?$_Tree_simple_types@U?$pair@$$CBMPAVCInstanceBase@@@std@@@std@@@std@@@std@@QAEAAV01@XZ ; std::_Tree_const_iterator<std::_Tree_val<std::_Tree_simple_types<std::pair<float const ,CInstanceBase *> > > >::operator--
PUBLIC	??F?$_Tree_iterator@V?$_Tree_val@U?$_Tree_simple_types@U?$pair@$$CBMPAVCInstanceBase@@@std@@@std@@@std@@@std@@QAEAAV01@XZ ; std::_Tree_iterator<std::_Tree_val<std::_Tree_simple_types<std::pair<float const ,CInstanceBase *> > > >::operator--
PUBLIC	?_Getcomp@?$_Tree_comp@$0A@V?$_Tmap_traits@MPAVCInstanceBase@@U?$less@M@std@@V?$allocator@U?$pair@$$CBMPAVCInstanceBase@@@std@@@3@$00@std@@@std@@QBE?AU?$less@M@2@XZ ; std::_Tree_comp<0,std::_Tmap_traits<float,CInstanceBase *,std::less<float>,std::allocator<std::pair<float const ,CInstanceBase *> >,1> >::_Getcomp
PUBLIC	?_Key@?$_Tree@V?$_Tmap_traits@MPAVCInstanceBase@@U?$less@M@std@@V?$allocator@U?$pair@$$CBMPAVCInstanceBase@@@std@@@3@$00@std@@@std@@IBEABMPAU?$_Tree_node@U?$pair@$$CBMPAVCInstanceBase@@@std@@PAX@2@@Z ; std::_Tree<std::_Tmap_traits<float,CInstanceBase *,std::less<float>,std::allocator<std::pair<float const ,CInstanceBase *> >,1> >::_Key
PUBLIC	?_Kfn@?$_Tree@V?$_Tmap_traits@MPAVCInstanceBase@@U?$less@M@std@@V?$allocator@U?$pair@$$CBMPAVCInstanceBase@@@std@@@3@$00@std@@@std@@IBEABMABU?$pair@$$CBMPAVCInstanceBase@@@2@@Z ; std::_Tree<std::_Tmap_traits<float,CInstanceBase *,std::less<float>,std::allocator<std::pair<float const ,CInstanceBase *> >,1> >::_Kfn
PUBLIC	?_Destroy_if_not_nil@?$_Tree@V?$_Tmap_traits@MPAVCInstanceBase@@U?$less@M@std@@V?$allocator@U?$pair@$$CBMPAVCInstanceBase@@@std@@@3@$00@std@@@std@@IAEXU_Nil@2@@Z ; std::_Tree<std::_Tmap_traits<float,CInstanceBase *,std::less<float>,std::allocator<std::pair<float const ,CInstanceBase *> >,1> >::_Destroy_if_not_nil
PUBLIC	??R?$less@M@std@@QBE_NABM0@Z			; std::less<float>::operator()
PUBLIC	??$_Insert_nohint@U?$pair@$$CBMPAVCInstanceBase@@@std@@U_Nil@2@@?$_Tree@V?$_Tmap_traits@MPAVCInstanceBase@@U?$less@M@std@@V?$allocator@U?$pair@$$CBMPAVCInstanceBase@@@std@@@3@$00@std@@@std@@IAE?AU?$pair@V?$_Tree_iterator@V?$_Tree_val@U?$_Tree_simple_types@U?$pair@$$CBMPAVCInstanceBase@@@std@@@std@@@std@@@std@@_N@1@_N$$QAU?$pair@$$CBMPAVCInstanceBase@@@1@U_Nil@1@@Z ; std::_Tree<std::_Tmap_traits<float,CInstanceBase *,std::less<float>,std::allocator<std::pair<float const ,CInstanceBase *> >,1> >::_Insert_nohint<std::pair<float const ,CInstanceBase *>,std::_Nil>
PUBLIC	??$construct@PAU?$_Tree_node@U?$pair@$$CBMPAVCInstanceBase@@@std@@PAX@std@@AAPAU12@@?$allocator_traits@V?$allocator@U?$_Tree_node@U?$pair@$$CBMPAVCInstanceBase@@@std@@PAX@std@@@std@@@std@@SAXAAV?$allocator@U?$_Tree_node@U?$pair@$$CBMPAVCInstanceBase@@@std@@PAX@std@@@1@PAPAU?$_Tree_node@U?$pair@$$CBMPAVCInstanceBase@@@std@@PAX@1@AAPAU31@@Z ; std::allocator_traits<std::allocator<std::_Tree_node<std::pair<float const ,CInstanceBase *>,void *> > >::construct<std::_Tree_node<std::pair<float const ,CInstanceBase *>,void *> *,std::_Tree_node<std::pair<float const ,CInstanceBase *>,void *> * &>
PUBLIC	??$forward@AAPAU?$_Tree_node@U?$pair@$$CBMPAVCInstanceBase@@@std@@PAX@std@@@std@@YAAAPAU?$_Tree_node@U?$pair@$$CBMPAVCInstanceBase@@@std@@PAX@0@AAPAU10@@Z ; std::forward<std::_Tree_node<std::pair<float const ,CInstanceBase *>,void *> * &>
PUBLIC	??$destroy@U?$pair@$$CBMPAVCInstanceBase@@@std@@@?$allocator_traits@V?$allocator@U?$_Tree_node@U?$pair@$$CBMPAVCInstanceBase@@@std@@PAX@std@@@std@@@std@@SAXAAV?$allocator@U?$_Tree_node@U?$pair@$$CBMPAVCInstanceBase@@@std@@PAX@std@@@1@PAU?$pair@$$CBMPAVCInstanceBase@@@1@@Z ; std::allocator_traits<std::allocator<std::_Tree_node<std::pair<float const ,CInstanceBase *>,void *> > >::destroy<std::pair<float const ,CInstanceBase *> >
PUBLIC	??$destroy@PAU?$_Tree_node@U?$pair@$$CBMPAVCInstanceBase@@@std@@PAX@std@@@?$allocator_traits@V?$allocator@U?$_Tree_node@U?$pair@$$CBMPAVCInstanceBase@@@std@@PAX@std@@@std@@@std@@SAXAAV?$allocator@U?$_Tree_node@U?$pair@$$CBMPAVCInstanceBase@@@std@@PAX@std@@@1@PAPAU?$_Tree_node@U?$pair@$$CBMPAVCInstanceBase@@@std@@PAX@1@@Z ; std::allocator_traits<std::allocator<std::_Tree_node<std::pair<float const ,CInstanceBase *>,void *> > >::destroy<std::_Tree_node<std::pair<float const ,CInstanceBase *>,void *> *>
PUBLIC	??$insert@U?$pair@MPAVCInstanceBase@@@std@@@?$_Tree@V?$_Tmap_traits@MPAVCInstanceBase@@U?$less@M@std@@V?$allocator@U?$pair@$$CBMPAVCInstanceBase@@@std@@@3@$00@std@@@std@@QAE?AU?$pair@V?$_Tree_iterator@V?$_Tree_val@U?$_Tree_simple_types@U?$pair@$$CBMPAVCInstanceBase@@@std@@@std@@@std@@@std@@_N@1@$$QAU?$pair@MPAVCInstanceBase@@@1@@Z ; std::_Tree<std::_Tmap_traits<float,CInstanceBase *,std::less<float>,std::allocator<std::pair<float const ,CInstanceBase *> >,1> >::insert<std::pair<float,CInstanceBase *> >
PUBLIC	??$forward@U?$pair@MPAVCInstanceBase@@@std@@@std@@YA$$QAU?$pair@MPAVCInstanceBase@@@0@AAU10@@Z ; std::forward<std::pair<float,CInstanceBase *> >
PUBLIC	??$?0AAMAAPAVCInstanceBase@@X@?$pair@MPAVCInstanceBase@@@std@@QAE@AAMAAPAVCInstanceBase@@@Z ; std::pair<float,CInstanceBase *>::pair<float,CInstanceBase *><float &,CInstanceBase * &,void>
PUBLIC	??$forward@U?$pair@$$CBMPAVCInstanceBase@@@std@@@std@@YA$$QAU?$pair@$$CBMPAVCInstanceBase@@@0@AAU10@@Z ; std::forward<std::pair<float const ,CInstanceBase *> >
PUBLIC	??$forward@AAM@std@@YAAAMAAM@Z			; std::forward<float &>
PUBLIC	?insert@?$_Tree@V?$_Tmap_traits@MPAVCInstanceBase@@U?$less@M@std@@V?$allocator@U?$pair@$$CBMPAVCInstanceBase@@@std@@@3@$00@std@@@std@@QAE?AU?$pair@V?$_Tree_iterator@V?$_Tree_val@U?$_Tree_simple_types@U?$pair@$$CBMPAVCInstanceBase@@@std@@@std@@@std@@@std@@_N@2@$$QAU?$pair@$$CBMPAVCInstanceBase@@@2@@Z ; std::_Tree<std::_Tmap_traits<float,CInstanceBase *,std::less<float>,std::allocator<std::pair<float const ,CInstanceBase *> >,1> >::insert
PUBLIC	??$_Allocate@U?$_Tree_node@U?$pair@$$CBMPAVCInstanceBase@@@std@@PAX@std@@@std@@YAPAU?$_Tree_node@U?$pair@$$CBMPAVCInstanceBase@@@std@@PAX@0@IPAU10@@Z ; std::_Allocate<std::_Tree_node<std::pair<float const ,CInstanceBase *>,void *> >
PUBLIC	??$construct@PAU?$_Tree_node@U?$pair@$$CBMPAVCInstanceBase@@@std@@PAX@std@@AAPAU12@@?$_Wrap_alloc@V?$allocator@U?$_Tree_node@U?$pair@$$CBMPAVCInstanceBase@@@std@@PAX@std@@@std@@@std@@QAEXPAPAU?$_Tree_node@U?$pair@$$CBMPAVCInstanceBase@@@std@@PAX@1@AAPAU21@@Z ; std::_Wrap_alloc<std::allocator<std::_Tree_node<std::pair<float const ,CInstanceBase *>,void *> > >::construct<std::_Tree_node<std::pair<float const ,CInstanceBase *>,void *> *,std::_Tree_node<std::pair<float const ,CInstanceBase *>,void *> * &>
PUBLIC	??$destroy@U?$pair@$$CBMPAVCInstanceBase@@@std@@@?$_Wrap_alloc@V?$allocator@U?$_Tree_node@U?$pair@$$CBMPAVCInstanceBase@@@std@@PAX@std@@@std@@@std@@QAEXPAU?$pair@$$CBMPAVCInstanceBase@@@1@@Z ; std::_Wrap_alloc<std::allocator<std::_Tree_node<std::pair<float const ,CInstanceBase *>,void *> > >::destroy<std::pair<float const ,CInstanceBase *> >
PUBLIC	??$destroy@PAU?$_Tree_node@U?$pair@$$CBMPAVCInstanceBase@@@std@@PAX@std@@@?$_Wrap_alloc@V?$allocator@U?$_Tree_node@U?$pair@$$CBMPAVCInstanceBase@@@std@@PAX@std@@@std@@@std@@QAEXPAPAU?$_Tree_node@U?$pair@$$CBMPAVCInstanceBase@@@std@@PAX@1@@Z ; std::_Wrap_alloc<std::allocator<std::_Tree_node<std::pair<float const ,CInstanceBase *>,void *> > >::destroy<std::_Tree_node<std::pair<float const ,CInstanceBase *>,void *> *>
PUBLIC	??$addressof@PAU?$_Tree_node@U?$pair@$$CBMPAVCInstanceBase@@@std@@PAX@std@@@std@@YAPAPAU?$_Tree_node@U?$pair@$$CBMPAVCInstanceBase@@@std@@PAX@0@AAPAU10@@Z ; std::addressof<std::_Tree_node<std::pair<float const ,CInstanceBase *>,void *> *>
PUBLIC	??$addressof@U?$pair@$$CBMPAVCInstanceBase@@@std@@@std@@YAPAU?$pair@$$CBMPAVCInstanceBase@@@0@AAU10@@Z ; std::addressof<std::pair<float const ,CInstanceBase *> >
PUBLIC	??$addressof@U?$pair@$$CBKPAVCInstanceBase@@@std@@@std@@YAPAU?$pair@$$CBKPAVCInstanceBase@@@0@AAU10@@Z ; std::addressof<std::pair<unsigned long const ,CInstanceBase *> >
PUBLIC	??$insert@U?$pair@MPAVCInstanceBase@@@std@@@?$multimap@MPAVCInstanceBase@@U?$less@M@std@@V?$allocator@U?$pair@$$CBMPAVCInstanceBase@@@std@@@3@@std@@QAE?AV?$_Tree_iterator@V?$_Tree_val@U?$_Tree_simple_types@U?$pair@$$CBMPAVCInstanceBase@@@std@@@std@@@std@@@1@$$QAU?$pair@MPAVCInstanceBase@@@1@@Z ; std::multimap<float,CInstanceBase *,std::less<float>,std::allocator<std::pair<float const ,CInstanceBase *> > >::insert<std::pair<float,CInstanceBase *> >
PUBLIC	??$make_pair@AAMAAPAVCInstanceBase@@@std@@YA?AU?$pair@MPAVCInstanceBase@@@0@AAMAAPAVCInstanceBase@@@Z ; std::make_pair<float &,CInstanceBase * &>
PUBLIC	??$insert@U?$pair@$$CBMPAVCInstanceBase@@@std@@@?$multimap@MPAVCInstanceBase@@U?$less@M@std@@V?$allocator@U?$pair@$$CBMPAVCInstanceBase@@@std@@@3@@std@@QAE?AV?$_Tree_iterator@V?$_Tree_val@U?$_Tree_simple_types@U?$pair@$$CBMPAVCInstanceBase@@@std@@@std@@@std@@@1@$$QAU?$pair@$$CBMPAVCInstanceBase@@@1@@Z ; std::multimap<float,CInstanceBase *,std::less<float>,std::allocator<std::pair<float const ,CInstanceBase *> > >::insert<std::pair<float const ,CInstanceBase *> >
PUBLIC	??$?0AAMAAPAVCInstanceBase@@X@?$pair@$$CBMPAVCInstanceBase@@@std@@QAE@AAMAAPAVCInstanceBase@@@Z ; std::pair<float const ,CInstanceBase *>::pair<float const ,CInstanceBase *><float &,CInstanceBase * &,void>
PUBLIC	?allocate@?$allocator@U?$_Tree_node@U?$pair@$$CBMPAVCInstanceBase@@@std@@PAX@std@@@std@@QAEPAU?$_Tree_node@U?$pair@$$CBMPAVCInstanceBase@@@std@@PAX@2@I@Z ; std::allocator<std::_Tree_node<std::pair<float const ,CInstanceBase *>,void *> >::allocate
PUBLIC	?allocate@?$_Wrap_alloc@V?$allocator@U?$_Tree_node@U?$pair@$$CBMPAVCInstanceBase@@@std@@PAX@std@@@std@@@std@@QAEPAU?$_Tree_node@U?$pair@$$CBMPAVCInstanceBase@@@std@@PAX@2@I@Z ; std::_Wrap_alloc<std::allocator<std::_Tree_node<std::pair<float const ,CInstanceBase *>,void *> > >::allocate
PUBLIC	??0?$_Tree_val@U?$_Tree_simple_types@U?$pair@$$CBMPAVCInstanceBase@@@std@@@std@@@std@@QAE@XZ ; std::_Tree_val<std::_Tree_simple_types<std::pair<float const ,CInstanceBase *> > >::_Tree_val<std::_Tree_simple_types<std::pair<float const ,CInstanceBase *> > >
PUBLIC	??0?$allocator@U?$_Tree_node@U?$pair@$$CBMPAVCInstanceBase@@@std@@PAX@std@@@std@@QAE@XZ ; std::allocator<std::_Tree_node<std::pair<float const ,CInstanceBase *>,void *> >::allocator<std::_Tree_node<std::pair<float const ,CInstanceBase *>,void *> >
PUBLIC	?_Buyheadnode@?$_Tree_alloc@$0A@U?$_Tree_base_types@U?$pair@$$CBMPAVCInstanceBase@@@std@@V?$allocator@U?$pair@$$CBMPAVCInstanceBase@@@std@@@2@@std@@@std@@QAEPAU?$_Tree_node@U?$pair@$$CBMPAVCInstanceBase@@@std@@PAX@2@XZ ; std::_Tree_alloc<0,std::_Tree_base_types<std::pair<float const ,CInstanceBase *>,std::allocator<std::pair<float const ,CInstanceBase *> > > >::_Buyheadnode
PUBLIC	?_Mynode@?$_Tree_unchecked_const_iterator@V?$_Tree_val@U?$_Tree_simple_types@U?$pair@$$CBMPAVCInstanceBase@@@std@@@std@@@std@@U_Iterator_base0@2@@std@@QBEPAU?$_Tree_node@U?$pair@$$CBMPAVCInstanceBase@@@std@@PAX@2@XZ ; std::_Tree_unchecked_const_iterator<std::_Tree_val<std::_Tree_simple_types<std::pair<float const ,CInstanceBase *> > >,std::_Iterator_base0>::_Mynode
PUBLIC	?_Max@?$_Tree_val@U?$_Tree_simple_types@U?$pair@$$CBMPAVCInstanceBase@@@std@@@std@@@std@@SAPAU?$_Tree_node@U?$pair@$$CBMPAVCInstanceBase@@@std@@PAX@2@PAU32@@Z ; std::_Tree_val<std::_Tree_simple_types<std::pair<float const ,CInstanceBase *> > >::_Max
PUBLIC	?_Color@?$_Tree_val@U?$_Tree_simple_types@U?$pair@$$CBMPAVCInstanceBase@@@std@@@std@@@std@@SAAADPAU?$_Tree_node@U?$pair@$$CBMPAVCInstanceBase@@@std@@PAX@2@@Z ; std::_Tree_val<std::_Tree_simple_types<std::pair<float const ,CInstanceBase *> > >::_Color
PUBLIC	?deallocate@?$allocator@U?$_Tree_node@U?$pair@$$CBMPAVCInstanceBase@@@std@@PAX@std@@@std@@QAEXPAU?$_Tree_node@U?$pair@$$CBMPAVCInstanceBase@@@std@@PAX@2@I@Z ; std::allocator<std::_Tree_node<std::pair<float const ,CInstanceBase *>,void *> >::deallocate
PUBLIC	??0?$_Wrap_alloc@V?$allocator@U?$_Tree_node@U?$pair@$$CBMPAVCInstanceBase@@@std@@PAX@std@@@std@@@std@@QAE@XZ ; std::_Wrap_alloc<std::allocator<std::_Tree_node<std::pair<float const ,CInstanceBase *>,void *> > >::_Wrap_alloc<std::allocator<std::_Tree_node<std::pair<float const ,CInstanceBase *>,void *> > >
PUBLIC	??0?$_Tree_alloc@$0A@U?$_Tree_base_types@U?$pair@$$CBMPAVCInstanceBase@@@std@@V?$allocator@U?$pair@$$CBMPAVCInstanceBase@@@std@@@2@@std@@@std@@QAE@ABV?$allocator@U?$pair@$$CBMPAVCInstanceBase@@@std@@@1@@Z ; std::_Tree_alloc<0,std::_Tree_base_types<std::pair<float const ,CInstanceBase *>,std::allocator<std::pair<float const ,CInstanceBase *> > > >::_Tree_alloc<0,std::_Tree_base_types<std::pair<float const ,CInstanceBase *>,std::allocator<std::pair<float const ,CInstanceBase *> > > >
PUBLIC	?_Rrotate@?$_Tree@V?$_Tmap_traits@MPAVCInstanceBase@@U?$less@M@std@@V?$allocator@U?$pair@$$CBMPAVCInstanceBase@@@std@@@3@$00@std@@@std@@IAEXPAU?$_Tree_node@U?$pair@$$CBMPAVCInstanceBase@@@std@@PAX@2@@Z ; std::_Tree<std::_Tmap_traits<float,CInstanceBase *,std::less<float>,std::allocator<std::pair<float const ,CInstanceBase *> >,1> >::_Rrotate
PUBLIC	?_Root@?$_Tree@V?$_Tmap_traits@MPAVCInstanceBase@@U?$less@M@std@@V?$allocator@U?$pair@$$CBMPAVCInstanceBase@@@std@@@3@$00@std@@@std@@IBEAAPAU?$_Tree_node@U?$pair@$$CBMPAVCInstanceBase@@@std@@PAX@2@XZ ; std::_Tree<std::_Tmap_traits<float,CInstanceBase *,std::less<float>,std::allocator<std::pair<float const ,CInstanceBase *> >,1> >::_Root
PUBLIC	?_Rmost@?$_Tree@V?$_Tmap_traits@MPAVCInstanceBase@@U?$less@M@std@@V?$allocator@U?$pair@$$CBMPAVCInstanceBase@@@std@@@3@$00@std@@@std@@IBEAAPAU?$_Tree_node@U?$pair@$$CBMPAVCInstanceBase@@@std@@PAX@2@XZ ; std::_Tree<std::_Tmap_traits<float,CInstanceBase *,std::less<float>,std::allocator<std::pair<float const ,CInstanceBase *> >,1> >::_Rmost
PUBLIC	?_Lrotate@?$_Tree@V?$_Tmap_traits@MPAVCInstanceBase@@U?$less@M@std@@V?$allocator@U?$pair@$$CBMPAVCInstanceBase@@@std@@@3@$00@std@@@std@@IAEXPAU?$_Tree_node@U?$pair@$$CBMPAVCInstanceBase@@@std@@PAX@2@@Z ; std::_Tree<std::_Tmap_traits<float,CInstanceBase *,std::less<float>,std::allocator<std::pair<float const ,CInstanceBase *> >,1> >::_Lrotate
PUBLIC	?_Erase@?$_Tree@V?$_Tmap_traits@MPAVCInstanceBase@@U?$less@M@std@@V?$allocator@U?$pair@$$CBMPAVCInstanceBase@@@std@@@3@$00@std@@@std@@IAEXPAU?$_Tree_node@U?$pair@$$CBMPAVCInstanceBase@@@std@@PAX@2@@Z ; std::_Tree<std::_Tmap_traits<float,CInstanceBase *,std::less<float>,std::allocator<std::pair<float const ,CInstanceBase *> >,1> >::_Erase
PUBLIC	??0?$_Tree_unchecked_const_iterator@V?$_Tree_val@U?$_Tree_simple_types@U?$pair@$$CBMPAVCInstanceBase@@@std@@@std@@@std@@U_Iterator_base0@2@@std@@QAE@PAU?$_Tree_node@U?$pair@$$CBMPAVCInstanceBase@@@std@@PAX@1@PBV?$_Tree_val@U?$_Tree_simple_types@U?$pair@$$CBMPAVCInstanceBase@@@std@@@std@@@1@@Z ; std::_Tree_unchecked_const_iterator<std::_Tree_val<std::_Tree_simple_types<std::pair<float const ,CInstanceBase *> > >,std::_Iterator_base0>::_Tree_unchecked_const_iterator<std::_Tree_val<std::_Tree_simple_types<std::pair<float const ,CInstanceBase *> > >,std::_Iterator_base0>
PUBLIC	??E?$_Tree_const_iterator@V?$_Tree_val@U?$_Tree_simple_types@U?$pair@$$CBMPAVCInstanceBase@@@std@@@std@@@std@@@std@@QAE?AV01@H@Z ; std::_Tree_const_iterator<std::_Tree_val<std::_Tree_simple_types<std::pair<float const ,CInstanceBase *> > > >::operator++
PUBLIC	?_Min@?$_Tree_val@U?$_Tree_simple_types@U?$pair@$$CBMPAVCInstanceBase@@@std@@@std@@@std@@SAPAU?$_Tree_node@U?$pair@$$CBMPAVCInstanceBase@@@std@@PAX@2@PAU32@@Z ; std::_Tree_val<std::_Tree_simple_types<std::pair<float const ,CInstanceBase *> > >::_Min
PUBLIC	?_Myval@?$_Tree_val@U?$_Tree_simple_types@U?$pair@$$CBMPAVCInstanceBase@@@std@@@std@@@std@@SAAAU?$pair@$$CBMPAVCInstanceBase@@@2@PAU?$_Tree_node@U?$pair@$$CBMPAVCInstanceBase@@@std@@PAX@2@@Z ; std::_Tree_val<std::_Tree_simple_types<std::pair<float const ,CInstanceBase *> > >::_Myval
PUBLIC	?_Right@?$_Tree_val@U?$_Tree_simple_types@U?$pair@$$CBMPAVCInstanceBase@@@std@@@std@@@std@@SAAAPAU?$_Tree_node@U?$pair@$$CBMPAVCInstanceBase@@@std@@PAX@2@PAU32@@Z ; std::_Tree_val<std::_Tree_simple_types<std::pair<float const ,CInstanceBase *> > >::_Right
PUBLIC	?_Parent@?$_Tree_val@U?$_Tree_simple_types@U?$pair@$$CBMPAVCInstanceBase@@@std@@@std@@@std@@SAAAPAU?$_Tree_node@U?$pair@$$CBMPAVCInstanceBase@@@std@@PAX@2@PAU32@@Z ; std::_Tree_val<std::_Tree_simple_types<std::pair<float const ,CInstanceBase *> > >::_Parent
PUBLIC	?_Isnil@?$_Tree_val@U?$_Tree_simple_types@U?$pair@$$CBMPAVCInstanceBase@@@std@@@std@@@std@@SAAADPAU?$_Tree_node@U?$pair@$$CBMPAVCInstanceBase@@@std@@PAX@2@@Z ; std::_Tree_val<std::_Tree_simple_types<std::pair<float const ,CInstanceBase *> > >::_Isnil
PUBLIC	?deallocate@?$_Wrap_alloc@V?$allocator@U?$_Tree_node@U?$pair@$$CBMPAVCInstanceBase@@@std@@PAX@std@@@std@@@std@@QAEXPAU?$_Tree_node@U?$pair@$$CBMPAVCInstanceBase@@@std@@PAX@2@I@Z ; std::_Wrap_alloc<std::allocator<std::_Tree_node<std::pair<float const ,CInstanceBase *>,void *> > >::deallocate
PUBLIC	?_Getal@?$_Tree_alloc@$0A@U?$_Tree_base_types@U?$pair@$$CBMPAVCInstanceBase@@@std@@V?$allocator@U?$pair@$$CBMPAVCInstanceBase@@@std@@@2@@std@@@std@@QBE?AU?$_Wrap_alloc@V?$allocator@U?$_Tree_node@U?$pair@$$CBMPAVCInstanceBase@@@std@@PAX@std@@@std@@@2@XZ ; std::_Tree_alloc<0,std::_Tree_base_types<std::pair<float const ,CInstanceBase *>,std::allocator<std::pair<float const ,CInstanceBase *> > > >::_Getal
PUBLIC	??0?$_Tree_buy@U?$pair@$$CBMPAVCInstanceBase@@@std@@V?$allocator@U?$pair@$$CBMPAVCInstanceBase@@@std@@@2@@std@@QAE@ABV?$allocator@U?$pair@$$CBMPAVCInstanceBase@@@std@@@1@@Z ; std::_Tree_buy<std::pair<float const ,CInstanceBase *>,std::allocator<std::pair<float const ,CInstanceBase *> > >::_Tree_buy<std::pair<float const ,CInstanceBase *>,std::allocator<std::pair<float const ,CInstanceBase *> > >
PUBLIC	?clear@?$_Tree@V?$_Tmap_traits@MPAVCInstanceBase@@U?$less@M@std@@V?$allocator@U?$pair@$$CBMPAVCInstanceBase@@@std@@@3@$00@std@@@std@@QAEXXZ ; std::_Tree<std::_Tmap_traits<float,CInstanceBase *,std::less<float>,std::allocator<std::pair<float const ,CInstanceBase *> >,1> >::clear
PUBLIC	?erase@?$_Tree@V?$_Tmap_traits@MPAVCInstanceBase@@U?$less@M@std@@V?$allocator@U?$pair@$$CBMPAVCInstanceBase@@@std@@@3@$00@std@@@std@@QAE?AV?$_Tree_iterator@V?$_Tree_val@U?$_Tree_simple_types@U?$pair@$$CBMPAVCInstanceBase@@@std@@@std@@@std@@@2@V?$_Tree_const_iterator@V?$_Tree_val@U?$_Tree_simple_types@U?$pair@$$CBMPAVCInstanceBase@@@std@@@std@@@std@@@2@@Z ; std::_Tree<std::_Tmap_traits<float,CInstanceBase *,std::less<float>,std::allocator<std::pair<float const ,CInstanceBase *> >,1> >::erase
PUBLIC	??0?$_Tree_unchecked_const_iterator@V?$_Tree_val@U?$_Tree_simple_types@U?$pair@$$CBKPAVCInstanceBase@@@std@@@std@@@std@@U_Iterator_base0@2@@std@@QAE@PAU?$_Tree_node@U?$pair@$$CBKPAVCInstanceBase@@@std@@PAX@1@PBV?$_Tree_val@U?$_Tree_simple_types@U?$pair@$$CBKPAVCInstanceBase@@@std@@@std@@@1@@Z ; std::_Tree_unchecked_const_iterator<std::_Tree_val<std::_Tree_simple_types<std::pair<unsigned long const ,CInstanceBase *> > >,std::_Iterator_base0>::_Tree_unchecked_const_iterator<std::_Tree_val<std::_Tree_simple_types<std::pair<unsigned long const ,CInstanceBase *> > >,std::_Iterator_base0>
PUBLIC	?_Min@?$_Tree_val@U?$_Tree_simple_types@U?$pair@$$CBKPAVCInstanceBase@@@std@@@std@@@std@@SAPAU?$_Tree_node@U?$pair@$$CBKPAVCInstanceBase@@@std@@PAX@2@PAU32@@Z ; std::_Tree_val<std::_Tree_simple_types<std::pair<unsigned long const ,CInstanceBase *> > >::_Min
PUBLIC	?_Myval@?$_Tree_val@U?$_Tree_simple_types@U?$pair@$$CBKPAVCInstanceBase@@@std@@@std@@@std@@SAAAU?$pair@$$CBKPAVCInstanceBase@@@2@PAU?$_Tree_node@U?$pair@$$CBKPAVCInstanceBase@@@std@@PAX@2@@Z ; std::_Tree_val<std::_Tree_simple_types<std::pair<unsigned long const ,CInstanceBase *> > >::_Myval
PUBLIC	?_Right@?$_Tree_val@U?$_Tree_simple_types@U?$pair@$$CBKPAVCInstanceBase@@@std@@@std@@@std@@SAAAPAU?$_Tree_node@U?$pair@$$CBKPAVCInstanceBase@@@std@@PAX@2@PAU32@@Z ; std::_Tree_val<std::_Tree_simple_types<std::pair<unsigned long const ,CInstanceBase *> > >::_Right
PUBLIC	?_Parent@?$_Tree_val@U?$_Tree_simple_types@U?$pair@$$CBKPAVCInstanceBase@@@std@@@std@@@std@@SAAAPAU?$_Tree_node@U?$pair@$$CBKPAVCInstanceBase@@@std@@PAX@2@PAU32@@Z ; std::_Tree_val<std::_Tree_simple_types<std::pair<unsigned long const ,CInstanceBase *> > >::_Parent
PUBLIC	?_Isnil@?$_Tree_val@U?$_Tree_simple_types@U?$pair@$$CBKPAVCInstanceBase@@@std@@@std@@@std@@SAAADPAU?$_Tree_node@U?$pair@$$CBKPAVCInstanceBase@@@std@@PAX@2@@Z ; std::_Tree_val<std::_Tree_simple_types<std::pair<unsigned long const ,CInstanceBase *> > >::_Isnil
PUBLIC	??E?$_Tree_unchecked_const_iterator@V?$_Tree_val@U?$_Tree_simple_types@U?$pair@$$CBMPAVCInstanceBase@@@std@@@std@@@std@@U_Iterator_base0@2@@std@@QAEAAV01@XZ ; std::_Tree_unchecked_const_iterator<std::_Tree_val<std::_Tree_simple_types<std::pair<float const ,CInstanceBase *> > >,std::_Iterator_base0>::operator++
PUBLIC	??D?$_Tree_const_iterator@V?$_Tree_val@U?$_Tree_simple_types@U?$pair@$$CBMPAVCInstanceBase@@@std@@@std@@@std@@@std@@QBEABU?$pair@$$CBMPAVCInstanceBase@@@1@XZ ; std::_Tree_const_iterator<std::_Tree_val<std::_Tree_simple_types<std::pair<float const ,CInstanceBase *> > > >::operator*
PUBLIC	??0?$_Tree_const_iterator@V?$_Tree_val@U?$_Tree_simple_types@U?$pair@$$CBMPAVCInstanceBase@@@std@@@std@@@std@@@std@@QAE@PAU?$_Tree_node@U?$pair@$$CBMPAVCInstanceBase@@@std@@PAX@1@PBV?$_Tree_val@U?$_Tree_simple_types@U?$pair@$$CBMPAVCInstanceBase@@@std@@@std@@@1@@Z ; std::_Tree_const_iterator<std::_Tree_val<std::_Tree_simple_types<std::pair<float const ,CInstanceBase *> > > >::_Tree_const_iterator<std::_Tree_val<std::_Tree_simple_types<std::pair<float const ,CInstanceBase *> > > >
PUBLIC	?_Left@?$_Tree_val@U?$_Tree_simple_types@U?$pair@$$CBMPAVCInstanceBase@@@std@@@std@@@std@@SAAAPAU?$_Tree_node@U?$pair@$$CBMPAVCInstanceBase@@@std@@PAX@2@PAU32@@Z ; std::_Tree_val<std::_Tree_simple_types<std::pair<float const ,CInstanceBase *> > >::_Left
PUBLIC	?_Freeheadnode@?$_Tree_alloc@$0A@U?$_Tree_base_types@U?$pair@$$CBMPAVCInstanceBase@@@std@@V?$allocator@U?$pair@$$CBMPAVCInstanceBase@@@std@@@2@@std@@@std@@QAEXPAU?$_Tree_node@U?$pair@$$CBMPAVCInstanceBase@@@std@@PAX@2@@Z ; std::_Tree_alloc<0,std::_Tree_base_types<std::pair<float const ,CInstanceBase *>,std::allocator<std::pair<float const ,CInstanceBase *> > > >::_Freeheadnode
PUBLIC	??0?$_Tree_comp@$0A@V?$_Tmap_traits@MPAVCInstanceBase@@U?$less@M@std@@V?$allocator@U?$pair@$$CBMPAVCInstanceBase@@@std@@@3@$00@std@@@std@@QAE@ABU?$less@M@1@ABV?$allocator@U?$pair@$$CBMPAVCInstanceBase@@@std@@@1@@Z ; std::_Tree_comp<0,std::_Tmap_traits<float,CInstanceBase *,std::less<float>,std::allocator<std::pair<float const ,CInstanceBase *> >,1> >::_Tree_comp<0,std::_Tmap_traits<float,CInstanceBase *,std::less<float>,std::allocator<std::pair<float const ,CInstanceBase *> >,1> >
PUBLIC	?erase@?$_Tree@V?$_Tmap_traits@MPAVCInstanceBase@@U?$less@M@std@@V?$allocator@U?$pair@$$CBMPAVCInstanceBase@@@std@@@3@$00@std@@@std@@QAE?AV?$_Tree_iterator@V?$_Tree_val@U?$_Tree_simple_types@U?$pair@$$CBMPAVCInstanceBase@@@std@@@std@@@std@@@2@V?$_Tree_const_iterator@V?$_Tree_val@U?$_Tree_simple_types@U?$pair@$$CBMPAVCInstanceBase@@@std@@@std@@@std@@@2@0@Z ; std::_Tree<std::_Tmap_traits<float,CInstanceBase *,std::less<float>,std::allocator<std::pair<float const ,CInstanceBase *> >,1> >::erase
PUBLIC	??E?$_Tree_unchecked_const_iterator@V?$_Tree_val@U?$_Tree_simple_types@U?$pair@$$CBKPAVCInstanceBase@@@std@@@std@@@std@@U_Iterator_base0@2@@std@@QAEAAV01@XZ ; std::_Tree_unchecked_const_iterator<std::_Tree_val<std::_Tree_simple_types<std::pair<unsigned long const ,CInstanceBase *> > >,std::_Iterator_base0>::operator++
PUBLIC	??0?$_Tree_unchecked_const_iterator@V?$_Tree_val@U?$_Tree_simple_types@U?$pair@$$CBKPAVCInstanceBase@@@std@@@std@@@std@@U_Iterator_base0@2@@std@@QAE@XZ ; std::_Tree_unchecked_const_iterator<std::_Tree_val<std::_Tree_simple_types<std::pair<unsigned long const ,CInstanceBase *> > >,std::_Iterator_base0>::_Tree_unchecked_const_iterator<std::_Tree_val<std::_Tree_simple_types<std::pair<unsigned long const ,CInstanceBase *> > >,std::_Iterator_base0>
PUBLIC	??D?$_Tree_const_iterator@V?$_Tree_val@U?$_Tree_simple_types@U?$pair@$$CBKPAVCInstanceBase@@@std@@@std@@@std@@@std@@QBEABU?$pair@$$CBKPAVCInstanceBase@@@1@XZ ; std::_Tree_const_iterator<std::_Tree_val<std::_Tree_simple_types<std::pair<unsigned long const ,CInstanceBase *> > > >::operator*
PUBLIC	??0?$_Tree_const_iterator@V?$_Tree_val@U?$_Tree_simple_types@U?$pair@$$CBKPAVCInstanceBase@@@std@@@std@@@std@@@std@@QAE@PAU?$_Tree_node@U?$pair@$$CBKPAVCInstanceBase@@@std@@PAX@1@PBV?$_Tree_val@U?$_Tree_simple_types@U?$pair@$$CBKPAVCInstanceBase@@@std@@@std@@@1@@Z ; std::_Tree_const_iterator<std::_Tree_val<std::_Tree_simple_types<std::pair<unsigned long const ,CInstanceBase *> > > >::_Tree_const_iterator<std::_Tree_val<std::_Tree_simple_types<std::pair<unsigned long const ,CInstanceBase *> > > >
PUBLIC	?_Left@?$_Tree_val@U?$_Tree_simple_types@U?$pair@$$CBKPAVCInstanceBase@@@std@@@std@@@std@@SAAAPAU?$_Tree_node@U?$pair@$$CBKPAVCInstanceBase@@@std@@PAX@2@PAU32@@Z ; std::_Tree_val<std::_Tree_simple_types<std::pair<unsigned long const ,CInstanceBase *> > >::_Left
PUBLIC	?pointer_to@?$pointer_traits@PAU?$pair@$$CBMPAVCInstanceBase@@@std@@@std@@SAPAU?$pair@$$CBMPAVCInstanceBase@@@2@AAU32@@Z ; std::pointer_traits<std::pair<float const ,CInstanceBase *> *>::pointer_to
PUBLIC	?pointer_to@?$pointer_traits@PAU?$pair@$$CBKPAVCInstanceBase@@@std@@@std@@SAPAU?$pair@$$CBKPAVCInstanceBase@@@2@AAU32@@Z ; std::pointer_traits<std::pair<unsigned long const ,CInstanceBase *> *>::pointer_to
PUBLIC	??8?$_Tree_const_iterator@V?$_Tree_val@U?$_Tree_simple_types@U?$pair@$$CBMPAVCInstanceBase@@@std@@@std@@@std@@@std@@QBE_NABV01@@Z ; std::_Tree_const_iterator<std::_Tree_val<std::_Tree_simple_types<std::pair<float const ,CInstanceBase *> > > >::operator==
PUBLIC	??E?$_Tree_const_iterator@V?$_Tree_val@U?$_Tree_simple_types@U?$pair@$$CBMPAVCInstanceBase@@@std@@@std@@@std@@@std@@QAEAAV01@XZ ; std::_Tree_const_iterator<std::_Tree_val<std::_Tree_simple_types<std::pair<float const ,CInstanceBase *> > > >::operator++
PUBLIC	??D?$_Tree_iterator@V?$_Tree_val@U?$_Tree_simple_types@U?$pair@$$CBMPAVCInstanceBase@@@std@@@std@@@std@@@std@@QBEAAU?$pair@$$CBMPAVCInstanceBase@@@1@XZ ; std::_Tree_iterator<std::_Tree_val<std::_Tree_simple_types<std::pair<float const ,CInstanceBase *> > > >::operator*
PUBLIC	??0?$_Tree_iterator@V?$_Tree_val@U?$_Tree_simple_types@U?$pair@$$CBMPAVCInstanceBase@@@std@@@std@@@std@@@std@@QAE@PAU?$_Tree_node@U?$pair@$$CBMPAVCInstanceBase@@@std@@PAX@1@PBV?$_Tree_val@U?$_Tree_simple_types@U?$pair@$$CBMPAVCInstanceBase@@@std@@@std@@@1@@Z ; std::_Tree_iterator<std::_Tree_val<std::_Tree_simple_types<std::pair<float const ,CInstanceBase *> > > >::_Tree_iterator<std::_Tree_val<std::_Tree_simple_types<std::pair<float const ,CInstanceBase *> > > >
PUBLIC	??1?$_Tree_alloc@$0A@U?$_Tree_base_types@U?$pair@$$CBMPAVCInstanceBase@@@std@@V?$allocator@U?$pair@$$CBMPAVCInstanceBase@@@std@@@2@@std@@@std@@QAE@XZ ; std::_Tree_alloc<0,std::_Tree_base_types<std::pair<float const ,CInstanceBase *>,std::allocator<std::pair<float const ,CInstanceBase *> > > >::~_Tree_alloc<0,std::_Tree_base_types<std::pair<float const ,CInstanceBase *>,std::allocator<std::pair<float const ,CInstanceBase *> > > >
PUBLIC	??0?$allocator@U?$pair@$$CBMPAVCInstanceBase@@@std@@@std@@QAE@XZ ; std::allocator<std::pair<float const ,CInstanceBase *> >::allocator<std::pair<float const ,CInstanceBase *> >
PUBLIC	?_Tidy@?$_Tree@V?$_Tmap_traits@MPAVCInstanceBase@@U?$less@M@std@@V?$allocator@U?$pair@$$CBMPAVCInstanceBase@@@std@@@3@$00@std@@@std@@IAEXXZ ; std::_Tree<std::_Tmap_traits<float,CInstanceBase *,std::less<float>,std::allocator<std::pair<float const ,CInstanceBase *> >,1> >::_Tidy
PUBLIC	?_Lmost@?$_Tree@V?$_Tmap_traits@MPAVCInstanceBase@@U?$less@M@std@@V?$allocator@U?$pair@$$CBMPAVCInstanceBase@@@std@@@3@$00@std@@@std@@IBEAAPAU?$_Tree_node@U?$pair@$$CBMPAVCInstanceBase@@@std@@PAX@2@XZ ; std::_Tree<std::_Tmap_traits<float,CInstanceBase *,std::less<float>,std::allocator<std::pair<float const ,CInstanceBase *> >,1> >::_Lmost
PUBLIC	?size@?$_Tree@V?$_Tmap_traits@MPAVCInstanceBase@@U?$less@M@std@@V?$allocator@U?$pair@$$CBMPAVCInstanceBase@@@std@@@3@$00@std@@@std@@QBEIXZ ; std::_Tree<std::_Tmap_traits<float,CInstanceBase *,std::less<float>,std::allocator<std::pair<float const ,CInstanceBase *> >,1> >::size
PUBLIC	??0?$_Tree@V?$_Tmap_traits@MPAVCInstanceBase@@U?$less@M@std@@V?$allocator@U?$pair@$$CBMPAVCInstanceBase@@@std@@@3@$00@std@@@std@@QAE@ABU?$less@M@1@ABV?$allocator@U?$pair@$$CBMPAVCInstanceBase@@@std@@@1@@Z ; std::_Tree<std::_Tmap_traits<float,CInstanceBase *,std::less<float>,std::allocator<std::pair<float const ,CInstanceBase *> >,1> >::_Tree<std::_Tmap_traits<float,CInstanceBase *,std::less<float>,std::allocator<std::pair<float const ,CInstanceBase *> >,1> >
PUBLIC	??E?$_Tree_const_iterator@V?$_Tree_val@U?$_Tree_simple_types@U?$pair@$$CBKPAVCInstanceBase@@@std@@@std@@@std@@@std@@QAEAAV01@XZ ; std::_Tree_const_iterator<std::_Tree_val<std::_Tree_simple_types<std::pair<unsigned long const ,CInstanceBase *> > > >::operator++
PUBLIC	??0?$_Tree_const_iterator@V?$_Tree_val@U?$_Tree_simple_types@U?$pair@$$CBKPAVCInstanceBase@@@std@@@std@@@std@@@std@@QAE@XZ ; std::_Tree_const_iterator<std::_Tree_val<std::_Tree_simple_types<std::pair<unsigned long const ,CInstanceBase *> > > >::_Tree_const_iterator<std::_Tree_val<std::_Tree_simple_types<std::pair<unsigned long const ,CInstanceBase *> > > >
PUBLIC	??D?$_Tree_iterator@V?$_Tree_val@U?$_Tree_simple_types@U?$pair@$$CBKPAVCInstanceBase@@@std@@@std@@@std@@@std@@QBEAAU?$pair@$$CBKPAVCInstanceBase@@@1@XZ ; std::_Tree_iterator<std::_Tree_val<std::_Tree_simple_types<std::pair<unsigned long const ,CInstanceBase *> > > >::operator*
PUBLIC	??0?$_Tree_iterator@V?$_Tree_val@U?$_Tree_simple_types@U?$pair@$$CBKPAVCInstanceBase@@@std@@@std@@@std@@@std@@QAE@PAU?$_Tree_node@U?$pair@$$CBKPAVCInstanceBase@@@std@@PAX@1@PBV?$_Tree_val@U?$_Tree_simple_types@U?$pair@$$CBKPAVCInstanceBase@@@std@@@std@@@1@@Z ; std::_Tree_iterator<std::_Tree_val<std::_Tree_simple_types<std::pair<unsigned long const ,CInstanceBase *> > > >::_Tree_iterator<std::_Tree_val<std::_Tree_simple_types<std::pair<unsigned long const ,CInstanceBase *> > > >
PUBLIC	?_Lmost@?$_Tree@V?$_Tmap_traits@KPAVCInstanceBase@@U?$less@K@std@@V?$allocator@U?$pair@$$CBKPAVCInstanceBase@@@std@@@3@$0A@@std@@@std@@IBEAAPAU?$_Tree_node@U?$pair@$$CBKPAVCInstanceBase@@@std@@PAX@2@XZ ; std::_Tree<std::_Tmap_traits<unsigned long,CInstanceBase *,std::less<unsigned long>,std::allocator<std::pair<unsigned long const ,CInstanceBase *> >,0> >::_Lmost
PUBLIC	??1?$_Tree_buy@U?$pair@$$CBMPAVCInstanceBase@@@std@@V?$allocator@U?$pair@$$CBMPAVCInstanceBase@@@std@@@2@@std@@QAE@XZ ; std::_Tree_buy<std::pair<float const ,CInstanceBase *>,std::allocator<std::pair<float const ,CInstanceBase *> > >::~_Tree_buy<std::pair<float const ,CInstanceBase *>,std::allocator<std::pair<float const ,CInstanceBase *> > >
PUBLIC	??1?$_Tree_comp@$0A@V?$_Tmap_traits@MPAVCInstanceBase@@U?$less@M@std@@V?$allocator@U?$pair@$$CBMPAVCInstanceBase@@@std@@@3@$00@std@@@std@@QAE@XZ ; std::_Tree_comp<0,std::_Tmap_traits<float,CInstanceBase *,std::less<float>,std::allocator<std::pair<float const ,CInstanceBase *> >,1> >::~_Tree_comp<0,std::_Tmap_traits<float,CInstanceBase *,std::less<float>,std::allocator<std::pair<float const ,CInstanceBase *> >,1> >
PUBLIC	??9?$_Tree_const_iterator@V?$_Tree_val@U?$_Tree_simple_types@U?$pair@$$CBMPAVCInstanceBase@@@std@@@std@@@std@@@std@@QBE_NABV01@@Z ; std::_Tree_const_iterator<std::_Tree_val<std::_Tree_simple_types<std::pair<float const ,CInstanceBase *> > > >::operator!=
PUBLIC	??E?$_Tree_iterator@V?$_Tree_val@U?$_Tree_simple_types@U?$pair@$$CBMPAVCInstanceBase@@@std@@@std@@@std@@@std@@QAEAAV01@XZ ; std::_Tree_iterator<std::_Tree_val<std::_Tree_simple_types<std::pair<float const ,CInstanceBase *> > > >::operator++
PUBLIC	??C?$_Tree_iterator@V?$_Tree_val@U?$_Tree_simple_types@U?$pair@$$CBMPAVCInstanceBase@@@std@@@std@@@std@@@std@@QBEPAU?$pair@$$CBMPAVCInstanceBase@@@1@XZ ; std::_Tree_iterator<std::_Tree_val<std::_Tree_simple_types<std::pair<float const ,CInstanceBase *> > > >::operator->
PUBLIC	?empty@?$_Tree@V?$_Tmap_traits@MPAVCInstanceBase@@U?$less@M@std@@V?$allocator@U?$pair@$$CBMPAVCInstanceBase@@@std@@@3@$00@std@@@std@@QBE_NXZ ; std::_Tree<std::_Tmap_traits<float,CInstanceBase *,std::less<float>,std::allocator<std::pair<float const ,CInstanceBase *> >,1> >::empty
PUBLIC	?end@?$_Tree@V?$_Tmap_traits@MPAVCInstanceBase@@U?$less@M@std@@V?$allocator@U?$pair@$$CBMPAVCInstanceBase@@@std@@@3@$00@std@@@std@@QAE?AV?$_Tree_iterator@V?$_Tree_val@U?$_Tree_simple_types@U?$pair@$$CBMPAVCInstanceBase@@@std@@@std@@@std@@@2@XZ ; std::_Tree<std::_Tmap_traits<float,CInstanceBase *,std::less<float>,std::allocator<std::pair<float const ,CInstanceBase *> >,1> >::end
PUBLIC	?begin@?$_Tree@V?$_Tmap_traits@MPAVCInstanceBase@@U?$less@M@std@@V?$allocator@U?$pair@$$CBMPAVCInstanceBase@@@std@@@3@$00@std@@@std@@QAE?AV?$_Tree_iterator@V?$_Tree_val@U?$_Tree_simple_types@U?$pair@$$CBMPAVCInstanceBase@@@std@@@std@@@std@@@2@XZ ; std::_Tree<std::_Tmap_traits<float,CInstanceBase *,std::less<float>,std::allocator<std::pair<float const ,CInstanceBase *> >,1> >::begin
PUBLIC	??1?$_Tree@V?$_Tmap_traits@MPAVCInstanceBase@@U?$less@M@std@@V?$allocator@U?$pair@$$CBMPAVCInstanceBase@@@std@@@3@$00@std@@@std@@QAE@XZ ; std::_Tree<std::_Tmap_traits<float,CInstanceBase *,std::less<float>,std::allocator<std::pair<float const ,CInstanceBase *> >,1> >::~_Tree<std::_Tmap_traits<float,CInstanceBase *,std::less<float>,std::allocator<std::pair<float const ,CInstanceBase *> >,1> >
PUBLIC	??0?$multimap@MPAVCInstanceBase@@U?$less@M@std@@V?$allocator@U?$pair@$$CBMPAVCInstanceBase@@@std@@@3@@std@@QAE@XZ ; std::multimap<float,CInstanceBase *,std::less<float>,std::allocator<std::pair<float const ,CInstanceBase *> > >::multimap<float,CInstanceBase *,std::less<float>,std::allocator<std::pair<float const ,CInstanceBase *> > >
PUBLIC	??9?$_Tree_const_iterator@V?$_Tree_val@U?$_Tree_simple_types@U?$pair@$$CBKPAVCInstanceBase@@@std@@@std@@@std@@@std@@QBE_NABV01@@Z ; std::_Tree_const_iterator<std::_Tree_val<std::_Tree_simple_types<std::pair<unsigned long const ,CInstanceBase *> > > >::operator!=
PUBLIC	??8?$_Tree_const_iterator@V?$_Tree_val@U?$_Tree_simple_types@U?$pair@$$CBKPAVCInstanceBase@@@std@@@std@@@std@@@std@@QBE_NABV01@@Z ; std::_Tree_const_iterator<std::_Tree_val<std::_Tree_simple_types<std::pair<unsigned long const ,CInstanceBase *> > > >::operator==
PUBLIC	??E?$_Tree_iterator@V?$_Tree_val@U?$_Tree_simple_types@U?$pair@$$CBKPAVCInstanceBase@@@std@@@std@@@std@@@std@@QAEAAV01@XZ ; std::_Tree_iterator<std::_Tree_val<std::_Tree_simple_types<std::pair<unsigned long const ,CInstanceBase *> > > >::operator++
PUBLIC	??C?$_Tree_iterator@V?$_Tree_val@U?$_Tree_simple_types@U?$pair@$$CBKPAVCInstanceBase@@@std@@@std@@@std@@@std@@QBEPAU?$pair@$$CBKPAVCInstanceBase@@@1@XZ ; std::_Tree_iterator<std::_Tree_val<std::_Tree_simple_types<std::pair<unsigned long const ,CInstanceBase *> > > >::operator->
PUBLIC	??0?$_Tree_iterator@V?$_Tree_val@U?$_Tree_simple_types@U?$pair@$$CBKPAVCInstanceBase@@@std@@@std@@@std@@@std@@QAE@XZ ; std::_Tree_iterator<std::_Tree_val<std::_Tree_simple_types<std::pair<unsigned long const ,CInstanceBase *> > > >::_Tree_iterator<std::_Tree_val<std::_Tree_simple_types<std::pair<unsigned long const ,CInstanceBase *> > > >
PUBLIC	?end@?$_Tree@V?$_Tmap_traits@KPAVCInstanceBase@@U?$less@K@std@@V?$allocator@U?$pair@$$CBKPAVCInstanceBase@@@std@@@3@$0A@@std@@@std@@QAE?AV?$_Tree_iterator@V?$_Tree_val@U?$_Tree_simple_types@U?$pair@$$CBKPAVCInstanceBase@@@std@@@std@@@std@@@2@XZ ; std::_Tree<std::_Tmap_traits<unsigned long,CInstanceBase *,std::less<unsigned long>,std::allocator<std::pair<unsigned long const ,CInstanceBase *> >,0> >::end
PUBLIC	?begin@?$_Tree@V?$_Tmap_traits@KPAVCInstanceBase@@U?$less@K@std@@V?$allocator@U?$pair@$$CBKPAVCInstanceBase@@@std@@@3@$0A@@std@@@std@@QAE?AV?$_Tree_iterator@V?$_Tree_val@U?$_Tree_simple_types@U?$pair@$$CBKPAVCInstanceBase@@@std@@@std@@@std@@@2@XZ ; std::_Tree<std::_Tmap_traits<unsigned long,CInstanceBase *,std::less<unsigned long>,std::allocator<std::pair<unsigned long const ,CInstanceBase *> >,0> >::begin
PUBLIC	?Show@CInstanceBase@@QAEXXZ			; CInstanceBase::Show
PUBLIC	?Hide@CInstanceBase@@QAEXXZ			; CInstanceBase::Hide
PUBLIC	?Die@CInstanceBase@@QAEXXZ			; CInstanceBase::Die
PUBLIC	?Stun@CInstanceBase@@QAEXXZ			; CInstanceBase::Stun
PUBLIC	?Revive@CInstanceBase@@QAEXXZ			; CInstanceBase::Revive
PUBLIC	?GetComboIndex@CInstanceBase@@QAEKXZ		; CInstanceBase::GetComboIndex
PUBLIC	?CanAttackHorseLevel@CInstanceBase@@QAEHXZ	; CInstanceBase::CanAttackHorseLevel
PUBLIC	?IsUsingMovingSkill@CInstanceBase@@QAEHXZ	; CInstanceBase::IsUsingMovingSkill
PUBLIC	?IsUsingSkill@CInstanceBase@@QAEHXZ		; CInstanceBase::IsUsingSkill
PUBLIC	?CheckAttacking@CInstanceBase@@QAEHAAV1@@Z	; CInstanceBase::CheckAttacking
PUBLIC	?CheckAdvancing@CInstanceBase@@QAEHXZ		; CInstanceBase::CheckAdvancing
PUBLIC	?InputComboAttack@CInstanceBase@@QAEXM@Z	; CInstanceBase::InputComboAttack
PUBLIC	?InputNormalAttack@CInstanceBase@@QAEXM@Z	; CInstanceBase::InputNormalAttack
PUBLIC	?NEW_AttackToDestInstanceDirection@CInstanceBase@@QAE_NAAV1@@Z ; CInstanceBase::NEW_AttackToDestInstanceDirection
PUBLIC	?NEW_AttackToDestInstanceDirection@CInstanceBase@@QAE_NAAV1@PAVIFlyEventHandler@@@Z ; CInstanceBase::NEW_AttackToDestInstanceDirection
PUBLIC	?NEW_AttackToDestPixelPositionDirection@CInstanceBase@@QAEXABUD3DXVECTOR3@@@Z ; CInstanceBase::NEW_AttackToDestPixelPositionDirection
PUBLIC	?NEW_Attack@CInstanceBase@@QAEXM@Z		; CInstanceBase::NEW_Attack
PUBLIC	?NEW_Attack@CInstanceBase@@QAEXXZ		; CInstanceBase::NEW_Attack
PUBLIC	?NEW_IsClickableDistanceDestInstance@CInstanceBase@@QAEHAAV1@@Z ; CInstanceBase::NEW_IsClickableDistanceDestInstance
PUBLIC	?NEW_IsClickableDistanceDestPixelPosition@CInstanceBase@@QAEHABUD3DXVECTOR3@@@Z ; CInstanceBase::NEW_IsClickableDistanceDestPixelPosition
PUBLIC	?NEW_GetInstanceVectorInCircleRange@CInstanceBase@@QAE_NMPAV?$vector@PAVCInstanceBase@@V?$allocator@PAVCInstanceBase@@@std@@@std@@@Z ; CInstanceBase::NEW_GetInstanceVectorInCircleRange
PUBLIC	?NEW_GetInstanceVectorInFanRange@CInstanceBase@@QAE_NMAAV1@PAV?$vector@PAVCInstanceBase@@V?$allocator@PAVCInstanceBase@@@std@@@std@@@Z ; CInstanceBase::NEW_GetInstanceVectorInFanRange
PUBLIC	??1?$multimap@MPAVCInstanceBase@@U?$less@M@std@@V?$allocator@U?$pair@$$CBMPAVCInstanceBase@@@std@@@3@@std@@QAE@XZ ; std::multimap<float,CInstanceBase *,std::less<float>,std::allocator<std::pair<float const ,CInstanceBase *> > >::~multimap<float,CInstanceBase *,std::less<float>,std::allocator<std::pair<float const ,CInstanceBase *> > >
PUBLIC	?NEW_GetFrontInstance@CInstanceBase@@QAE_NPAPAV1@M@Z ; CInstanceBase::NEW_GetFrontInstance
PUBLIC	?NEW_GetRandomPositionInFanRange@CInstanceBase@@QAEXAAV1@PAUD3DXVECTOR3@@@Z ; CInstanceBase::NEW_GetRandomPositionInFanRange
PUBLIC	?NEW_GetRotationFromDestInstance@CInstanceBase@@QAEMAAV1@@Z ; CInstanceBase::NEW_GetRotationFromDestInstance
PUBLIC	?NEW_GetRotationFromDestPixelPosition@CInstanceBase@@QAEMABUD3DXVECTOR3@@@Z ; CInstanceBase::NEW_GetRotationFromDestPixelPosition
PUBLIC	?NEW_GetRotationFromDirPixelPosition@CInstanceBase@@QAEMABUD3DXVECTOR3@@@Z ; CInstanceBase::NEW_GetRotationFromDirPixelPosition
PUBLIC	?NEW_GetRotation@CInstanceBase@@QAEMXZ		; CInstanceBase::NEW_GetRotation
PUBLIC	?NEW_GetDistanceFromDirPixelPosition@CInstanceBase@@QAEMABUD3DXVECTOR3@@@Z ; CInstanceBase::NEW_GetDistanceFromDirPixelPosition
PUBLIC	?AddFlyTargetInstance@CInstanceBase@@QAEXAAV1@@Z ; CInstanceBase::AddFlyTargetInstance
PUBLIC	?AddFlyTargetPosition@CInstanceBase@@QAEXABUD3DXVECTOR3@@@Z ; CInstanceBase::AddFlyTargetPosition
PUBLIC	?SetFlyTargetInstance@CInstanceBase@@QAEXAAV1@@Z ; CInstanceBase::SetFlyTargetInstance
PUBLIC	?ClearFlyTargetInstance@CInstanceBase@@QAEXXZ	; CInstanceBase::ClearFlyTargetInstance
PUBLIC	?IsFlyTargetObject@CInstanceBase@@QAE_NXZ	; CInstanceBase::IsFlyTargetObject
PUBLIC	?NEW_GetSignedDegreeFromDirPixelPosition@@YAMABUD3DXVECTOR3@@@Z ; NEW_GetSignedDegreeFromDirPixelPosition
PUBLIC	?NEW_UnsignedDegreeToSignedDegree@@YAMM@Z	; NEW_UnsignedDegreeToSignedDegree
PUBLIC	??9CharacterIterator@CPythonCharacterManager@@QBE_NABV01@@Z ; CPythonCharacterManager::CharacterIterator::operator!=
PUBLIC	??4CharacterIterator@CPythonCharacterManager@@QAEAAV01@ABV01@@Z ; CPythonCharacterManager::CharacterIterator::operator=
PUBLIC	??ECharacterIterator@CPythonCharacterManager@@QAEAAV01@XZ ; CPythonCharacterManager::CharacterIterator::operator++
PUBLIC	??DCharacterIterator@CPythonCharacterManager@@QAEPAVCInstanceBase@@XZ ; CPythonCharacterManager::CharacterIterator::operator*
PUBLIC	??0CharacterIterator@CPythonCharacterManager@@QAE@ABV?$_Tree_iterator@V?$_Tree_val@U?$_Tree_simple_types@U?$pair@$$CBKPAVCInstanceBase@@@std@@@std@@@std@@@std@@@Z ; CPythonCharacterManager::CharacterIterator::CharacterIterator
PUBLIC	??0CharacterIterator@CPythonCharacterManager@@QAE@XZ ; CPythonCharacterManager::CharacterIterator::CharacterIterator
PUBLIC	?CharacterInstanceEnd@CPythonCharacterManager@@QAE?AVCharacterIterator@1@XZ ; CPythonCharacterManager::CharacterInstanceEnd
PUBLIC	?CharacterInstanceBegin@CPythonCharacterManager@@QAE?AVCharacterIterator@1@XZ ; CPythonCharacterManager::CharacterInstanceBegin
PUBLIC	?NEW_GetDistanceFromDestInstance@CInstanceBase@@QAEMAAV1@@Z ; CInstanceBase::NEW_GetDistanceFromDestInstance
PUBLIC	?IsAffect@CInstanceBase@@QAE_NI@Z		; CInstanceBase::IsAffect
PUBLIC	?RunComboAttack@CInstanceBase@@QAEXMK@Z		; CInstanceBase::RunComboAttack
PUBLIC	?RunNormalAttack@CInstanceBase@@QAEXM@Z		; CInstanceBase::RunNormalAttack
PUBLIC	?NEW_UseSkill@CInstanceBase@@QAE_NIII_N@Z	; CInstanceBase::NEW_UseSkill
PUBLIC	?NEW_GetDistanceFromDestPixelPosition@CInstanceBase@@QAEMABUD3DXVECTOR3@@@Z ; CInstanceBase::NEW_GetDistanceFromDestPixelPosition
PUBLIC	?AttackProcess@CInstanceBase@@IAEXXZ		; CInstanceBase::AttackProcess
	ALIGN	4

_piecewise_construct DB 01H DUP (?)
	ALIGN	4

__Nil_obj DB	01H DUP (?)
_BSS	ENDS
;	COMDAT xdata$x
xdata$x	SEGMENT
__ehfuncinfo$?SetFlyTargetInstance@CInstanceBase@@QAEXAAV1@@Z DD 019930522H
	DD	01H
	DD	FLAT:__unwindtable$?SetFlyTargetInstance@CInstanceBase@@QAEXAAV1@@Z
	DD	2 DUP(00H)
	DD	2 DUP(00H)
	DD	00H
	DD	01H
__unwindtable$?SetFlyTargetInstance@CInstanceBase@@QAEXAAV1@@Z DD 0ffffffffH
	DD	FLAT:__unwindfunclet$?SetFlyTargetInstance@CInstanceBase@@QAEXAAV1@@Z$0
xdata$x	ENDS
;	COMDAT xdata$x
xdata$x	SEGMENT
__ehfuncinfo$?AddFlyTargetPosition@CInstanceBase@@QAEXABUD3DXVECTOR3@@@Z DD 019930522H
	DD	01H
	DD	FLAT:__unwindtable$?AddFlyTargetPosition@CInstanceBase@@QAEXABUD3DXVECTOR3@@@Z
	DD	2 DUP(00H)
	DD	2 DUP(00H)
	DD	00H
	DD	01H
__unwindtable$?AddFlyTargetPosition@CInstanceBase@@QAEXABUD3DXVECTOR3@@@Z DD 0ffffffffH
	DD	FLAT:__unwindfunclet$?AddFlyTargetPosition@CInstanceBase@@QAEXABUD3DXVECTOR3@@@Z$0
xdata$x	ENDS
;	COMDAT xdata$x
xdata$x	SEGMENT
__ehfuncinfo$?AddFlyTargetInstance@CInstanceBase@@QAEXAAV1@@Z DD 019930522H
	DD	01H
	DD	FLAT:__unwindtable$?AddFlyTargetInstance@CInstanceBase@@QAEXAAV1@@Z
	DD	2 DUP(00H)
	DD	2 DUP(00H)
	DD	00H
	DD	01H
__unwindtable$?AddFlyTargetInstance@CInstanceBase@@QAEXAAV1@@Z DD 0ffffffffH
	DD	FLAT:__unwindfunclet$?AddFlyTargetInstance@CInstanceBase@@QAEXAAV1@@Z$0
xdata$x	ENDS
;	COMDAT xdata$x
xdata$x	SEGMENT
__ehfuncinfo$?NEW_GetFrontInstance@CInstanceBase@@QAE_NPAPAV1@M@Z DD 019930522H
	DD	01H
	DD	FLAT:__unwindtable$?NEW_GetFrontInstance@CInstanceBase@@QAE_NPAPAV1@M@Z
	DD	2 DUP(00H)
	DD	2 DUP(00H)
	DD	00H
	DD	01H
__unwindtable$?NEW_GetFrontInstance@CInstanceBase@@QAE_NPAPAV1@M@Z DD 0ffffffffH
	DD	FLAT:__unwindfunclet$?NEW_GetFrontInstance@CInstanceBase@@QAE_NPAPAV1@M@Z$0
xdata$x	ENDS
;	COMDAT xdata$x
xdata$x	SEGMENT
__ehfuncinfo$?NEW_GetInstanceVectorInFanRange@CInstanceBase@@QAE_NMAAV1@PAV?$vector@PAVCInstanceBase@@V?$allocator@PAVCInstanceBase@@@std@@@std@@@Z DD 019930522H
	DD	01H
	DD	FLAT:__unwindtable$?NEW_GetInstanceVectorInFanRange@CInstanceBase@@QAE_NMAAV1@PAV?$vector@PAVCInstanceBase@@V?$allocator@PAVCInstanceBase@@@std@@@std@@@Z
	DD	2 DUP(00H)
	DD	2 DUP(00H)
	DD	00H
	DD	01H
__unwindtable$?NEW_GetInstanceVectorInFanRange@CInstanceBase@@QAE_NMAAV1@PAV?$vector@PAVCInstanceBase@@V?$allocator@PAVCInstanceBase@@@std@@@std@@@Z DD 0ffffffffH
	DD	FLAT:__unwindfunclet$?NEW_GetInstanceVectorInFanRange@CInstanceBase@@QAE_NMAAV1@PAV?$vector@PAVCInstanceBase@@V?$allocator@PAVCInstanceBase@@@std@@@std@@@Z$0
xdata$x	ENDS
;	COMDAT xdata$x
xdata$x	SEGMENT
__ehfuncinfo$?NEW_GetInstanceVectorInCircleRange@CInstanceBase@@QAE_NMPAV?$vector@PAVCInstanceBase@@V?$allocator@PAVCInstanceBase@@@std@@@std@@@Z DD 019930522H
	DD	01H
	DD	FLAT:__unwindtable$?NEW_GetInstanceVectorInCircleRange@CInstanceBase@@QAE_NMPAV?$vector@PAVCInstanceBase@@V?$allocator@PAVCInstanceBase@@@std@@@std@@@Z
	DD	2 DUP(00H)
	DD	2 DUP(00H)
	DD	00H
	DD	01H
__unwindtable$?NEW_GetInstanceVectorInCircleRange@CInstanceBase@@QAE_NMPAV?$vector@PAVCInstanceBase@@V?$allocator@PAVCInstanceBase@@@std@@@std@@@Z DD 0ffffffffH
	DD	FLAT:__unwindfunclet$?NEW_GetInstanceVectorInCircleRange@CInstanceBase@@QAE_NMPAV?$vector@PAVCInstanceBase@@V?$allocator@PAVCInstanceBase@@@std@@@std@@@Z$0
xdata$x	ENDS
;	COMDAT xdata$x
xdata$x	SEGMENT
__ehfuncinfo$??$_Insert_nohint@U?$pair@$$CBMPAVCInstanceBase@@@std@@U_Nil@2@@?$_Tree@V?$_Tmap_traits@MPAVCInstanceBase@@U?$less@M@std@@V?$allocator@U?$pair@$$CBMPAVCInstanceBase@@@std@@@3@$00@std@@@std@@IAE?AU?$pair@V?$_Tree_iterator@V?$_Tree_val@U?$_Tree_simple_types@U?$pair@$$CBMPAVCInstanceBase@@@std@@@std@@@std@@@std@@_N@1@_N$$QAU?$pair@$$CBMPAVCInstanceBase@@@1@U_Nil@1@@Z DD 019930522H
	DD	02H
	DD	FLAT:__unwindtable$??$_Insert_nohint@U?$pair@$$CBMPAVCInstanceBase@@@std@@U_Nil@2@@?$_Tree@V?$_Tmap_traits@MPAVCInstanceBase@@U?$less@M@std@@V?$allocator@U?$pair@$$CBMPAVCInstanceBase@@@std@@@3@$00@std@@@std@@IAE?AU?$pair@V?$_Tree_iterator@V?$_Tree_val@U?$_Tree_simple_types@U?$pair@$$CBMPAVCInstanceBase@@@std@@@std@@@std@@@std@@_N@1@_N$$QAU?$pair@$$CBMPAVCInstanceBase@@@1@U_Nil@1@@Z
	DD	01H
	DD	FLAT:__tryblocktable$??$_Insert_nohint@U?$pair@$$CBMPAVCInstanceBase@@@std@@U_Nil@2@@?$_Tree@V?$_Tmap_traits@MPAVCInstanceBase@@U?$less@M@std@@V?$allocator@U?$pair@$$CBMPAVCInstanceBase@@@std@@@3@$00@std@@@std@@IAE?AU?$pair@V?$_Tree_iterator@V?$_Tree_val@U?$_Tree_simple_types@U?$pair@$$CBMPAVCInstanceBase@@@std@@@std@@@std@@@std@@_N@1@_N$$QAU?$pair@$$CBMPAVCInstanceBase@@@1@U_Nil@1@@Z
	DD	2 DUP(00H)
	DD	00H
	DD	01H
__unwindtable$??$_Insert_nohint@U?$pair@$$CBMPAVCInstanceBase@@@std@@U_Nil@2@@?$_Tree@V?$_Tmap_traits@MPAVCInstanceBase@@U?$less@M@std@@V?$allocator@U?$pair@$$CBMPAVCInstanceBase@@@std@@@3@$00@std@@@std@@IAE?AU?$pair@V?$_Tree_iterator@V?$_Tree_val@U?$_Tree_simple_types@U?$pair@$$CBMPAVCInstanceBase@@@std@@@std@@@std@@@std@@_N@1@_N$$QAU?$pair@$$CBMPAVCInstanceBase@@@1@U_Nil@1@@Z DD 0ffffffffH
	DD	00H
	DD	0ffffffffH
	DD	00H
__tryblocktable$??$_Insert_nohint@U?$pair@$$CBMPAVCInstanceBase@@@std@@U_Nil@2@@?$_Tree@V?$_Tmap_traits@MPAVCInstanceBase@@U?$less@M@std@@V?$allocator@U?$pair@$$CBMPAVCInstanceBase@@@std@@@3@$00@std@@@std@@IAE?AU?$pair@V?$_Tree_iterator@V?$_Tree_val@U?$_Tree_simple_types@U?$pair@$$CBMPAVCInstanceBase@@@std@@@std@@@std@@@std@@_N@1@_N$$QAU?$pair@$$CBMPAVCInstanceBase@@@1@U_Nil@1@@Z DD 00H
	DD	00H
	DD	01H
	DD	01H
	DD	FLAT:__catchsym$??$_Insert_nohint@U?$pair@$$CBMPAVCInstanceBase@@@std@@U_Nil@2@@?$_Tree@V?$_Tmap_traits@MPAVCInstanceBase@@U?$less@M@std@@V?$allocator@U?$pair@$$CBMPAVCInstanceBase@@@std@@@3@$00@std@@@std@@IAE?AU?$pair@V?$_Tree_iterator@V?$_Tree_val@U?$_Tree_simple_types@U?$pair@$$CBMPAVCInstanceBase@@@std@@@std@@@std@@@std@@_N@1@_N$$QAU?$pair@$$CBMPAVCInstanceBase@@@1@U_Nil@1@@Z$2
__catchsym$??$_Insert_nohint@U?$pair@$$CBMPAVCInstanceBase@@@std@@U_Nil@2@@?$_Tree@V?$_Tmap_traits@MPAVCInstanceBase@@U?$less@M@std@@V?$allocator@U?$pair@$$CBMPAVCInstanceBase@@@std@@@3@$00@std@@@std@@IAE?AU?$pair@V?$_Tree_iterator@V?$_Tree_val@U?$_Tree_simple_types@U?$pair@$$CBMPAVCInstanceBase@@@std@@@std@@@std@@@std@@_N@1@_N$$QAU?$pair@$$CBMPAVCInstanceBase@@@1@U_Nil@1@@Z$2 DD 040H
	DD	00H
	DD	00H
	DD	FLAT:__catch$??$_Insert_nohint@U?$pair@$$CBMPAVCInstanceBase@@@std@@U_Nil@2@@?$_Tree@V?$_Tmap_traits@MPAVCInstanceBase@@U?$less@M@std@@V?$allocator@U?$pair@$$CBMPAVCInstanceBase@@@std@@@3@$00@std@@@std@@IAE?AU?$pair@V?$_Tree_iterator@V?$_Tree_val@U?$_Tree_simple_types@U?$pair@$$CBMPAVCInstanceBase@@@std@@@std@@@std@@@std@@_N@1@_N$$QAU?$pair@$$CBMPAVCInstanceBase@@@1@U_Nil@1@@Z$0
xdata$x	ENDS
;	COMDAT xdata$x
xdata$x	SEGMENT
__ehfuncinfo$??$_Insert_nohint@AAU?$pair@$$CBMPAVCInstanceBase@@@std@@PAU?$_Tree_node@U?$pair@$$CBMPAVCInstanceBase@@@std@@PAX@2@@?$_Tree@V?$_Tmap_traits@MPAVCInstanceBase@@U?$less@M@std@@V?$allocator@U?$pair@$$CBMPAVCInstanceBase@@@std@@@3@$00@std@@@std@@IAE?AU?$pair@V?$_Tree_iterator@V?$_Tree_val@U?$_Tree_simple_types@U?$pair@$$CBMPAVCInstanceBase@@@std@@@std@@@std@@@std@@_N@1@_NAAU?$pair@$$CBMPAVCInstanceBase@@@1@PAU?$_Tree_node@U?$pair@$$CBMPAVCInstanceBase@@@std@@PAX@1@@Z DD 019930522H
	DD	02H
	DD	FLAT:__unwindtable$??$_Insert_nohint@AAU?$pair@$$CBMPAVCInstanceBase@@@std@@PAU?$_Tree_node@U?$pair@$$CBMPAVCInstanceBase@@@std@@PAX@2@@?$_Tree@V?$_Tmap_traits@MPAVCInstanceBase@@U?$less@M@std@@V?$allocator@U?$pair@$$CBMPAVCInstanceBase@@@std@@@3@$00@std@@@std@@IAE?AU?$pair@V?$_Tree_iterator@V?$_Tree_val@U?$_Tree_simple_types@U?$pair@$$CBMPAVCInstanceBase@@@std@@@std@@@std@@@std@@_N@1@_NAAU?$pair@$$CBMPAVCInstanceBase@@@1@PAU?$_Tree_node@U?$pair@$$CBMPAVCInstanceBase@@@std@@PAX@1@@Z
	DD	01H
	DD	FLAT:__tryblocktable$??$_Insert_nohint@AAU?$pair@$$CBMPAVCInstanceBase@@@std@@PAU?$_Tree_node@U?$pair@$$CBMPAVCInstanceBase@@@std@@PAX@2@@?$_Tree@V?$_Tmap_traits@MPAVCInstanceBase@@U?$less@M@std@@V?$allocator@U?$pair@$$CBMPAVCInstanceBase@@@std@@@3@$00@std@@@std@@IAE?AU?$pair@V?$_Tree_iterator@V?$_Tree_val@U?$_Tree_simple_types@U?$pair@$$CBMPAVCInstanceBase@@@std@@@std@@@std@@@std@@_N@1@_NAAU?$pair@$$CBMPAVCInstanceBase@@@1@PAU?$_Tree_node@U?$pair@$$CBMPAVCInstanceBase@@@std@@PAX@1@@Z
	DD	2 DUP(00H)
	DD	00H
	DD	01H
__unwindtable$??$_Insert_nohint@AAU?$pair@$$CBMPAVCInstanceBase@@@std@@PAU?$_Tree_node@U?$pair@$$CBMPAVCInstanceBase@@@std@@PAX@2@@?$_Tree@V?$_Tmap_traits@MPAVCInstanceBase@@U?$less@M@std@@V?$allocator@U?$pair@$$CBMPAVCInstanceBase@@@std@@@3@$00@std@@@std@@IAE?AU?$pair@V?$_Tree_iterator@V?$_Tree_val@U?$_Tree_simple_types@U?$pair@$$CBMPAVCInstanceBase@@@std@@@std@@@std@@@std@@_N@1@_NAAU?$pair@$$CBMPAVCInstanceBase@@@1@PAU?$_Tree_node@U?$pair@$$CBMPAVCInstanceBase@@@std@@PAX@1@@Z DD 0ffffffffH
	DD	00H
	DD	0ffffffffH
	DD	00H
__tryblocktable$??$_Insert_nohint@AAU?$pair@$$CBMPAVCInstanceBase@@@std@@PAU?$_Tree_node@U?$pair@$$CBMPAVCInstanceBase@@@std@@PAX@2@@?$_Tree@V?$_Tmap_traits@MPAVCInstanceBase@@U?$less@M@std@@V?$allocator@U?$pair@$$CBMPAVCInstanceBase@@@std@@@3@$00@std@@@std@@IAE?AU?$pair@V?$_Tree_iterator@V?$_Tree_val@U?$_Tree_simple_types@U?$pair@$$CBMPAVCInstanceBase@@@std@@@std@@@std@@@std@@_N@1@_NAAU?$pair@$$CBMPAVCInstanceBase@@@1@PAU?$_Tree_node@U?$pair@$$CBMPAVCInstanceBase@@@std@@PAX@1@@Z DD 00H
	DD	00H
	DD	01H
	DD	01H
	DD	FLAT:__catchsym$??$_Insert_nohint@AAU?$pair@$$CBMPAVCInstanceBase@@@std@@PAU?$_Tree_node@U?$pair@$$CBMPAVCInstanceBase@@@std@@PAX@2@@?$_Tree@V?$_Tmap_traits@MPAVCInstanceBase@@U?$less@M@std@@V?$allocator@U?$pair@$$CBMPAVCInstanceBase@@@std@@@3@$00@std@@@std@@IAE?AU?$pair@V?$_Tree_iterator@V?$_Tree_val@U?$_Tree_simple_types@U?$pair@$$CBMPAVCInstanceBase@@@std@@@std@@@std@@@std@@_N@1@_NAAU?$pair@$$CBMPAVCInstanceBase@@@1@PAU?$_Tree_node@U?$pair@$$CBMPAVCInstanceBase@@@std@@PAX@1@@Z$2
__catchsym$??$_Insert_nohint@AAU?$pair@$$CBMPAVCInstanceBase@@@std@@PAU?$_Tree_node@U?$pair@$$CBMPAVCInstanceBase@@@std@@PAX@2@@?$_Tree@V?$_Tmap_traits@MPAVCInstanceBase@@U?$less@M@std@@V?$allocator@U?$pair@$$CBMPAVCInstanceBase@@@std@@@3@$00@std@@@std@@IAE?AU?$pair@V?$_Tree_iterator@V?$_Tree_val@U?$_Tree_simple_types@U?$pair@$$CBMPAVCInstanceBase@@@std@@@std@@@std@@@std@@_N@1@_NAAU?$pair@$$CBMPAVCInstanceBase@@@1@PAU?$_Tree_node@U?$pair@$$CBMPAVCInstanceBase@@@std@@PAX@1@@Z$2 DD 040H
	DD	00H
	DD	00H
	DD	FLAT:__catch$??$_Insert_nohint@AAU?$pair@$$CBMPAVCInstanceBase@@@std@@PAU?$_Tree_node@U?$pair@$$CBMPAVCInstanceBase@@@std@@PAX@2@@?$_Tree@V?$_Tmap_traits@MPAVCInstanceBase@@U?$less@M@std@@V?$allocator@U?$pair@$$CBMPAVCInstanceBase@@@std@@@3@$00@std@@@std@@IAE?AU?$pair@V?$_Tree_iterator@V?$_Tree_val@U?$_Tree_simple_types@U?$pair@$$CBMPAVCInstanceBase@@@std@@@std@@@std@@@std@@_N@1@_NAAU?$pair@$$CBMPAVCInstanceBase@@@1@PAU?$_Tree_node@U?$pair@$$CBMPAVCInstanceBase@@@std@@PAX@1@@Z$0
; Function compile flags: /Ogtp
; File d:\metin2\metin2\client_source_clean\client_source_clean\source\userinterface\instancebasebattle.cpp
; File c:\program files (x86)\microsoft visual studio 12.0\vc\include\xtree
; File d:\metin2\metin2\client_source_clean\client_source_clean\source\userinterface\pythoncharactermanager.h
; File c:\program files (x86)\microsoft visual studio 12.0\vc\include\xtree
; File d:\metin2\metin2\client_source_clean\client_source_clean\source\userinterface\instancebasebattle.cpp
; File c:\program files (x86)\microsoft visual studio 12.0\vc\include\xtree
; File d:\metin2\metin2\client_source_clean\client_source_clean\source\userinterface\pythoncharactermanager.h
; File c:\program files (x86)\microsoft visual studio 12.0\vc\include\xtree
; File d:\metin2\metin2\client_source_clean\client_source_clean\source\userinterface\instancebasebattle.cpp
; File c:\program files (x86)\microsoft visual studio 12.0\vc\include\xtree
; File d:\metin2\metin2\client_source_clean\client_source_clean\source\userinterface\instancebasebattle.cpp
;	COMDAT ?AttackProcess@CInstanceBase@@IAEXXZ
_TEXT	SEGMENT
_rkChrMgr$1$ = -8					; size = 4
_pkInstLast$1$ = -4					; size = 4
?AttackProcess@CInstanceBase@@IAEXXZ PROC		; CInstanceBase::AttackProcess, COMDAT
; _this$ = ecx

; 414  : {

  00000	55		 push	 ebp
  00001	8b ec		 mov	 ebp, esp
  00003	83 ec 08	 sub	 esp, 8
  00006	53		 push	 ebx
  00007	8b d9		 mov	 ebx, ecx

; 415  : 	if (!m_GraphicThingInstance.CanCheckAttacking())

  00009	8d 8b d4 01 00
	00		 lea	 ecx, DWORD PTR [ebx+468]
  0000f	e8 00 00 00 00	 call	 ?CanCheckAttacking@CActorInstance@@QAEHXZ ; CActorInstance::CanCheckAttacking
  00014	85 c0		 test	 eax, eax
  00016	0f 84 ac 00 00
	00		 je	 $LN1@AttackProc

; 416  : 		return;
; 417  :    
; 418  : 	CInstanceBase * pkInstLast = NULL;
; 419  : 	CPythonCharacterManager& rkChrMgr = CPythonCharacterManager::Instance();

  0001c	a1 00 00 00 00	 mov	 eax, DWORD PTR ?ms_singleton@?$CSingleton@VCPythonCharacterManager@@@@0PAVCPythonCharacterManager@@A ; CSingleton<CPythonCharacterManager>::ms_singleton
  00021	89 45 f8	 mov	 DWORD PTR _rkChrMgr$1$[ebp], eax
  00024	56		 push	 esi
  00025	c7 45 fc 00 00
	00 00		 mov	 DWORD PTR _pkInstLast$1$[ebp], 0
; File c:\program files (x86)\microsoft visual studio 12.0\vc\include\xtree

; 589  : 		return ((_Nodepref)_Pnode->_Left);

  0002c	8b 40 20	 mov	 eax, DWORD PTR [eax+32]
; File d:\metin2\metin2\client_source_clean\client_source_clean\source\userinterface\pythoncharactermanager.h

; 132  : 			CharacterIterator(const TCharacterInstanceMap::iterator & it) : m_it(it) {}

  0002f	8b 30		 mov	 esi, DWORD PTR [eax]
; File c:\program files (x86)\microsoft visual studio 12.0\vc\include\xtree

; 336  : 		return (this->_Ptr == _Right._Ptr);

  00031	3b c6		 cmp	 eax, esi
; File d:\metin2\metin2\client_source_clean\client_source_clean\source\userinterface\instancebasebattle.cpp

; 421  : 	while (rkChrMgr.CharacterInstanceEnd()!=i)

  00033	0f 84 8e 00 00
	00		 je	 $LN117@AttackProc
  00039	57		 push	 edi
  0003a	8d 9b 00 00 00
	00		 npad	 6
$LL6@AttackProc:
; File c:\program files (x86)\microsoft visual studio 12.0\vc\include\xtree

; 60   : 		if (_Mytree::_Isnil(_Ptr))

  00040	80 7e 0d 00	 cmp	 BYTE PTR [esi+13], 0
; File d:\metin2\metin2\client_source_clean\client_source_clean\source\userinterface\pythoncharactermanager.h

; 134  : 			inline CInstanceBase * operator * () {	return m_it->second; }

  00044	8b 7e 14	 mov	 edi, DWORD PTR [esi+20]
; File c:\program files (x86)\microsoft visual studio 12.0\vc\include\xtree

; 60   : 		if (_Mytree::_Isnil(_Ptr))

  00047	75 3e		 jne	 SHORT $LN72@AttackProc

; 337  : 		}
; 338  : 
; 339  : 	bool operator!=(const _Myiter& _Right) const
; 340  : 		{	// test for iterator inequality
; 341  : 		return (!(*this == _Right));
; 342  : 		}
; 343  : 	};
; 344  : 
; 345  : template<class _Mytree> inline
; 346  : 	typename _Tree_const_iterator<_Mytree>::_Unchecked_type
; 347  : 		_Unchecked(_Tree_const_iterator<_Mytree> _Iter)
; 348  : 	{	// convert to unchecked
; 349  : 	return (_Iter._Unchecked());
; 350  : 	}
; 351  : 
; 352  : template<class _Mytree> inline
; 353  : 	_Tree_const_iterator<_Mytree>&
; 354  : 		_Rechecked(_Tree_const_iterator<_Mytree>& _Iter,
; 355  : 			typename _Tree_const_iterator<_Mytree>
; 356  : 				::_Unchecked_type _Right)
; 357  : 	{	// convert to checked
; 358  : 	return (_Iter._Rechecked(_Right));
; 359  : 	}
; 360  : 
; 361  : 	// TEMPLATE CLASS _Tree_iterator
; 362  : template<class _Mytree>
; 363  : 	class _Tree_iterator
; 364  : 		: public _Tree_const_iterator<_Mytree>
; 365  : 	{	// iterator for mutable tree
; 366  : public:
; 367  : 	typedef _Tree_iterator<_Mytree> _Myiter;
; 368  : 	typedef _Tree_const_iterator<_Mytree> _Mybase;
; 369  : 	typedef bidirectional_iterator_tag iterator_category;
; 370  : 
; 371  : 	typedef typename _Mytree::_Nodeptr _Nodeptr;
; 372  : 	typedef typename _Mytree::value_type value_type;
; 373  : 	typedef typename _Mytree::difference_type difference_type;
; 374  : 
; 375  : 	typedef typename _Mytree::pointer pointer;
; 376  : 	typedef typename _Mytree::reference reference;
; 377  : 
; 378  : 	_Tree_iterator()
; 379  : 		{	// construct with null node
; 380  : 		}
; 381  : 
; 382  : 	_Tree_iterator(_Nodeptr _Pnode, const _Mytree *_Plist)
; 383  : 		: _Mybase(_Pnode, _Plist)
; 384  : 		{	// construct with node pointer _Pnode
; 385  : 		}
; 386  : 
; 387  : 	typedef _Tree_unchecked_iterator<_Mytree> _Unchecked_type;
; 388  : 
; 389  : 	_Myiter& _Rechecked(_Unchecked_type _Right)
; 390  : 		{	// reset from unchecked iterator
; 391  : 		this->_Ptr = _Right._Ptr;
; 392  : 		return (*this);
; 393  : 		}
; 394  : 
; 395  : 	_Unchecked_type _Unchecked() const
; 396  : 		{	// make an unchecked iterator
; 397  : 		return (_Unchecked_type(this->_Ptr, (_Mytree *)this->_Getcont()));
; 398  : 		}
; 399  : 
; 400  : 	reference operator*() const
; 401  : 		{	// return designated value
; 402  : 		return ((reference)**(_Mybase *)this);
; 403  : 		}
; 404  : 
; 405  : 	pointer operator->() const
; 406  : 		{	// return pointer to class object
; 407  : 		return (_STD pointer_traits<pointer>::pointer_to(**this));
; 408  : 		}
; 409  : 
; 410  : 	_Myiter& operator++()
; 411  : 		{	// preincrement
; 412  : 		++(*(_Mybase *)this);
; 413  : 		return (*this);
; 414  : 		}
; 415  : 
; 416  : 	_Myiter operator++(int)
; 417  : 		{	// postincrement
; 418  : 		_Myiter _Tmp = *this;
; 419  : 		++*this;
; 420  : 		return (_Tmp);
; 421  : 		}
; 422  : 
; 423  : 	_Myiter& operator--()
; 424  : 		{	// predecrement
; 425  : 		--(*(_Mybase *)this);
; 426  : 		return (*this);
; 427  : 		}
; 428  : 
; 429  : 	_Myiter operator--(int)
; 430  : 		{	// postdecrement
; 431  : 		_Myiter _Tmp = *this;
; 432  : 		--*this;
; 433  : 		return (_Tmp);
; 434  : 		}
; 435  : 	};
; 436  : 
; 437  : template<class _Mytree> inline
; 438  : 	typename _Tree_iterator<_Mytree>::_Unchecked_type
; 439  : 		_Unchecked(_Tree_iterator<_Mytree> _Iter)
; 440  : 	{	// convert to unchecked
; 441  : 	return (_Iter._Unchecked());
; 442  : 	}
; 443  : 
; 444  : template<class _Mytree> inline
; 445  : 	_Tree_iterator<_Mytree>&
; 446  : 		_Rechecked(_Tree_iterator<_Mytree>& _Iter,
; 447  : 			typename _Tree_iterator<_Mytree>
; 448  : 				::_Unchecked_type _Right)
; 449  : 	{	// convert to checked
; 450  : 	return (_Iter._Rechecked(_Right));
; 451  : 	}
; 452  : 
; 453  : 		// tree TYPE WRAPPERS
; 454  : template<class _Value_type,
; 455  : 	class _Size_type,
; 456  : 	class _Difference_type,
; 457  : 	class _Pointer,
; 458  : 	class _Const_pointer,
; 459  : 	class _Reference,
; 460  : 	class _Const_reference,
; 461  : 	class _Nodeptr_type>
; 462  : 	struct _Tree_iter_types
; 463  : 	{	// wraps types needed by iterators
; 464  : 	typedef _Value_type value_type;
; 465  : 	typedef _Size_type size_type;
; 466  : 	typedef _Difference_type difference_type;
; 467  : 	typedef _Pointer pointer;
; 468  : 	typedef _Const_pointer const_pointer;
; 469  : 	typedef _Reference reference;
; 470  : 	typedef _Const_reference const_reference;
; 471  : 	typedef _Nodeptr_type _Nodeptr;
; 472  : 	};
; 473  : 
; 474  : template<class _Value_type,
; 475  : 	class _Voidptr>
; 476  : 	struct _Tree_node
; 477  : 		{	// tree node
; 478  : 		_Voidptr _Left;	// left subtree, or smallest element if head
; 479  : 		_Voidptr _Parent;	// parent, or root of tree if head
; 480  : 		_Voidptr _Right;	// right subtree, or largest element if head
; 481  : 		char _Color;	// _Red or _Black, _Black if head
; 482  : 		char _Isnil;	// true only if head (also nil) node
; 483  : 		_Value_type _Myval;	// the stored value, unused if head
; 484  : 
; 485  : 	private:
; 486  : 		_Tree_node& operator=(const _Tree_node&);
; 487  : 		};
; 488  : 
; 489  : template<class _Value_type>
; 490  : 	struct _Tree_node<_Value_type, void *>
; 491  : 		{	// tree node
; 492  : 		typedef _Tree_node<_Value_type, void *> *_Nodeptr;
; 493  : 		_Nodeptr _Left;	// left subtree, or smallest element if head
; 494  : 		_Nodeptr _Parent;	// parent, or root of tree if head
; 495  : 		_Nodeptr _Right;	// right subtree, or largest element if head
; 496  : 		char _Color;	// _Red or _Black, _Black if head
; 497  : 		char _Isnil;	// true only if head (also nil) node
; 498  : 		_Value_type _Myval;	// the stored value, unused if head
; 499  : 
; 500  : 	private:
; 501  : 		_Tree_node& operator=(const _Tree_node&);
; 502  : 		};
; 503  : 
; 504  : template<class _Ty>
; 505  : 	struct _Tree_simple_types
; 506  : 		: public _Simple_types<_Ty>
; 507  : 	{	// wraps types needed by iterators
; 508  : 	typedef _Tree_node<_Ty, void *> _Node;
; 509  : 	typedef _Node *_Nodeptr;
; 510  : 	};
; 511  : 
; 512  : template<class _Ty,
; 513  : 	class _Alloc0>
; 514  : 	struct _Tree_base_types
; 515  : 	{	// types needed for a container base
; 516  : 	typedef _Alloc0 _Alloc;
; 517  : 	typedef _Tree_base_types<_Ty, _Alloc> _Myt;
; 518  : 
; 519  : 	typedef _Wrap_alloc<_Alloc> _Alty0;
; 520  : 	typedef typename _Alty0::template rebind<_Ty>::other _Alty;
; 521  : 
; 522  : 
; 523  : 	typedef typename _Get_voidptr<_Alty, typename _Alty::pointer>::type
; 524  : 		_Voidptr;
; 525  : 	typedef _Tree_node<typename _Alty::value_type,
; 526  : 		_Voidptr> _Node;
; 527  : 
; 528  : 	typedef typename _Alty::template rebind<_Node>::other _Alnod_type;
; 529  : 	typedef typename _Alnod_type::pointer _Nodeptr;
; 530  : 	typedef _Nodeptr& _Nodepref;
; 531  : 
; 532  : 	typedef typename _If<_Is_simple_alloc<_Alty>::value,
; 533  : 		_Tree_simple_types<typename _Alty::value_type>,
; 534  : 		_Tree_iter_types<typename _Alty::value_type,
; 535  : 			typename _Alty::size_type,
; 536  : 			typename _Alty::difference_type,
; 537  : 			typename _Alty::pointer,
; 538  : 			typename _Alty::const_pointer,
; 539  : 			typename _Alty::reference,
; 540  : 			typename _Alty::const_reference,
; 541  : 			_Nodeptr> >::type
; 542  : 		_Val_types;
; 543  : 	};
; 544  : 
; 545  : 		// TEMPLATE CLASS _Tree_val
; 546  : template<class _Val_types>
; 547  : 	class _Tree_val
; 548  : 		: public _Container_base
; 549  : 	{	// base class for tree to hold data
; 550  : public:
; 551  : 	typedef _Tree_val<_Val_types> _Myt;
; 552  : 
; 553  : 	typedef typename _Val_types::_Nodeptr _Nodeptr;
; 554  : 	typedef _Nodeptr& _Nodepref;
; 555  : 
; 556  : 	typedef typename _Val_types::value_type value_type;
; 557  : 	typedef typename _Val_types::size_type size_type;
; 558  : 	typedef typename _Val_types::difference_type difference_type;
; 559  : 	typedef typename _Val_types::pointer pointer;
; 560  : 	typedef typename _Val_types::const_pointer const_pointer;
; 561  : 	typedef typename _Val_types::reference reference;
; 562  : 	typedef typename _Val_types::const_reference const_reference;
; 563  : 
; 564  : 	typedef _Tree_const_iterator<_Myt> const_iterator;
; 565  : 	typedef _Tree_iterator<_Myt> iterator;
; 566  : 
; 567  : 	_Tree_val()
; 568  : 		{	// initialize data
; 569  : 		this->_Myhead = 0;
; 570  : 		this->_Mysize = 0;
; 571  : 		}
; 572  : 
; 573  : 	enum _Redbl
; 574  : 		{	// colors for link to parent
; 575  : 		_Red, _Black};
; 576  : 
; 577  : 	static char& _Color(_Nodeptr _Pnode)
; 578  : 		{	// return reference to color in node
; 579  : 		return ((char&)_Pnode->_Color);
; 580  : 		}
; 581  : 
; 582  : 	static char& _Isnil(_Nodeptr _Pnode)
; 583  : 		{	// return reference to nil flag in node
; 584  : 		return ((char&)_Pnode->_Isnil);

  00049	8b 46 08	 mov	 eax, DWORD PTR [esi+8]

; 61   : 			;	// end() shouldn't be incremented, don't move
; 62   : 		else if (!_Mytree::_Isnil(_Mytree::_Right(_Ptr)))

  0004c	80 78 0d 00	 cmp	 BYTE PTR [eax+13], 0
  00050	75 1a		 jne	 SHORT $LN105@AttackProc

; 63   : 			_Ptr = _Mytree::_Min(
; 64   : 				_Mytree::_Right(_Ptr));	// ==> smallest of right subtree

  00052	8b f0		 mov	 esi, eax

; 337  : 		}
; 338  : 
; 339  : 	bool operator!=(const _Myiter& _Right) const
; 340  : 		{	// test for iterator inequality
; 341  : 		return (!(*this == _Right));
; 342  : 		}
; 343  : 	};
; 344  : 
; 345  : template<class _Mytree> inline
; 346  : 	typename _Tree_const_iterator<_Mytree>::_Unchecked_type
; 347  : 		_Unchecked(_Tree_const_iterator<_Mytree> _Iter)
; 348  : 	{	// convert to unchecked
; 349  : 	return (_Iter._Unchecked());
; 350  : 	}
; 351  : 
; 352  : template<class _Mytree> inline
; 353  : 	_Tree_const_iterator<_Mytree>&
; 354  : 		_Rechecked(_Tree_const_iterator<_Mytree>& _Iter,
; 355  : 			typename _Tree_const_iterator<_Mytree>
; 356  : 				::_Unchecked_type _Right)
; 357  : 	{	// convert to checked
; 358  : 	return (_Iter._Rechecked(_Right));
; 359  : 	}
; 360  : 
; 361  : 	// TEMPLATE CLASS _Tree_iterator
; 362  : template<class _Mytree>
; 363  : 	class _Tree_iterator
; 364  : 		: public _Tree_const_iterator<_Mytree>
; 365  : 	{	// iterator for mutable tree
; 366  : public:
; 367  : 	typedef _Tree_iterator<_Mytree> _Myiter;
; 368  : 	typedef _Tree_const_iterator<_Mytree> _Mybase;
; 369  : 	typedef bidirectional_iterator_tag iterator_category;
; 370  : 
; 371  : 	typedef typename _Mytree::_Nodeptr _Nodeptr;
; 372  : 	typedef typename _Mytree::value_type value_type;
; 373  : 	typedef typename _Mytree::difference_type difference_type;
; 374  : 
; 375  : 	typedef typename _Mytree::pointer pointer;
; 376  : 	typedef typename _Mytree::reference reference;
; 377  : 
; 378  : 	_Tree_iterator()
; 379  : 		{	// construct with null node
; 380  : 		}
; 381  : 
; 382  : 	_Tree_iterator(_Nodeptr _Pnode, const _Mytree *_Plist)
; 383  : 		: _Mybase(_Pnode, _Plist)
; 384  : 		{	// construct with node pointer _Pnode
; 385  : 		}
; 386  : 
; 387  : 	typedef _Tree_unchecked_iterator<_Mytree> _Unchecked_type;
; 388  : 
; 389  : 	_Myiter& _Rechecked(_Unchecked_type _Right)
; 390  : 		{	// reset from unchecked iterator
; 391  : 		this->_Ptr = _Right._Ptr;
; 392  : 		return (*this);
; 393  : 		}
; 394  : 
; 395  : 	_Unchecked_type _Unchecked() const
; 396  : 		{	// make an unchecked iterator
; 397  : 		return (_Unchecked_type(this->_Ptr, (_Mytree *)this->_Getcont()));
; 398  : 		}
; 399  : 
; 400  : 	reference operator*() const
; 401  : 		{	// return designated value
; 402  : 		return ((reference)**(_Mybase *)this);
; 403  : 		}
; 404  : 
; 405  : 	pointer operator->() const
; 406  : 		{	// return pointer to class object
; 407  : 		return (_STD pointer_traits<pointer>::pointer_to(**this));
; 408  : 		}
; 409  : 
; 410  : 	_Myiter& operator++()
; 411  : 		{	// preincrement
; 412  : 		++(*(_Mybase *)this);
; 413  : 		return (*this);
; 414  : 		}
; 415  : 
; 416  : 	_Myiter operator++(int)
; 417  : 		{	// postincrement
; 418  : 		_Myiter _Tmp = *this;
; 419  : 		++*this;
; 420  : 		return (_Tmp);
; 421  : 		}
; 422  : 
; 423  : 	_Myiter& operator--()
; 424  : 		{	// predecrement
; 425  : 		--(*(_Mybase *)this);
; 426  : 		return (*this);
; 427  : 		}
; 428  : 
; 429  : 	_Myiter operator--(int)
; 430  : 		{	// postdecrement
; 431  : 		_Myiter _Tmp = *this;
; 432  : 		--*this;
; 433  : 		return (_Tmp);
; 434  : 		}
; 435  : 	};
; 436  : 
; 437  : template<class _Mytree> inline
; 438  : 	typename _Tree_iterator<_Mytree>::_Unchecked_type
; 439  : 		_Unchecked(_Tree_iterator<_Mytree> _Iter)
; 440  : 	{	// convert to unchecked
; 441  : 	return (_Iter._Unchecked());
; 442  : 	}
; 443  : 
; 444  : template<class _Mytree> inline
; 445  : 	_Tree_iterator<_Mytree>&
; 446  : 		_Rechecked(_Tree_iterator<_Mytree>& _Iter,
; 447  : 			typename _Tree_iterator<_Mytree>
; 448  : 				::_Unchecked_type _Right)
; 449  : 	{	// convert to checked
; 450  : 	return (_Iter._Rechecked(_Right));
; 451  : 	}
; 452  : 
; 453  : 		// tree TYPE WRAPPERS
; 454  : template<class _Value_type,
; 455  : 	class _Size_type,
; 456  : 	class _Difference_type,
; 457  : 	class _Pointer,
; 458  : 	class _Const_pointer,
; 459  : 	class _Reference,
; 460  : 	class _Const_reference,
; 461  : 	class _Nodeptr_type>
; 462  : 	struct _Tree_iter_types
; 463  : 	{	// wraps types needed by iterators
; 464  : 	typedef _Value_type value_type;
; 465  : 	typedef _Size_type size_type;
; 466  : 	typedef _Difference_type difference_type;
; 467  : 	typedef _Pointer pointer;
; 468  : 	typedef _Const_pointer const_pointer;
; 469  : 	typedef _Reference reference;
; 470  : 	typedef _Const_reference const_reference;
; 471  : 	typedef _Nodeptr_type _Nodeptr;
; 472  : 	};
; 473  : 
; 474  : template<class _Value_type,
; 475  : 	class _Voidptr>
; 476  : 	struct _Tree_node
; 477  : 		{	// tree node
; 478  : 		_Voidptr _Left;	// left subtree, or smallest element if head
; 479  : 		_Voidptr _Parent;	// parent, or root of tree if head
; 480  : 		_Voidptr _Right;	// right subtree, or largest element if head
; 481  : 		char _Color;	// _Red or _Black, _Black if head
; 482  : 		char _Isnil;	// true only if head (also nil) node
; 483  : 		_Value_type _Myval;	// the stored value, unused if head
; 484  : 
; 485  : 	private:
; 486  : 		_Tree_node& operator=(const _Tree_node&);
; 487  : 		};
; 488  : 
; 489  : template<class _Value_type>
; 490  : 	struct _Tree_node<_Value_type, void *>
; 491  : 		{	// tree node
; 492  : 		typedef _Tree_node<_Value_type, void *> *_Nodeptr;
; 493  : 		_Nodeptr _Left;	// left subtree, or smallest element if head
; 494  : 		_Nodeptr _Parent;	// parent, or root of tree if head
; 495  : 		_Nodeptr _Right;	// right subtree, or largest element if head
; 496  : 		char _Color;	// _Red or _Black, _Black if head
; 497  : 		char _Isnil;	// true only if head (also nil) node
; 498  : 		_Value_type _Myval;	// the stored value, unused if head
; 499  : 
; 500  : 	private:
; 501  : 		_Tree_node& operator=(const _Tree_node&);
; 502  : 		};
; 503  : 
; 504  : template<class _Ty>
; 505  : 	struct _Tree_simple_types
; 506  : 		: public _Simple_types<_Ty>
; 507  : 	{	// wraps types needed by iterators
; 508  : 	typedef _Tree_node<_Ty, void *> _Node;
; 509  : 	typedef _Node *_Nodeptr;
; 510  : 	};
; 511  : 
; 512  : template<class _Ty,
; 513  : 	class _Alloc0>
; 514  : 	struct _Tree_base_types
; 515  : 	{	// types needed for a container base
; 516  : 	typedef _Alloc0 _Alloc;
; 517  : 	typedef _Tree_base_types<_Ty, _Alloc> _Myt;
; 518  : 
; 519  : 	typedef _Wrap_alloc<_Alloc> _Alty0;
; 520  : 	typedef typename _Alty0::template rebind<_Ty>::other _Alty;
; 521  : 
; 522  : 
; 523  : 	typedef typename _Get_voidptr<_Alty, typename _Alty::pointer>::type
; 524  : 		_Voidptr;
; 525  : 	typedef _Tree_node<typename _Alty::value_type,
; 526  : 		_Voidptr> _Node;
; 527  : 
; 528  : 	typedef typename _Alty::template rebind<_Node>::other _Alnod_type;
; 529  : 	typedef typename _Alnod_type::pointer _Nodeptr;
; 530  : 	typedef _Nodeptr& _Nodepref;
; 531  : 
; 532  : 	typedef typename _If<_Is_simple_alloc<_Alty>::value,
; 533  : 		_Tree_simple_types<typename _Alty::value_type>,
; 534  : 		_Tree_iter_types<typename _Alty::value_type,
; 535  : 			typename _Alty::size_type,
; 536  : 			typename _Alty::difference_type,
; 537  : 			typename _Alty::pointer,
; 538  : 			typename _Alty::const_pointer,
; 539  : 			typename _Alty::reference,
; 540  : 			typename _Alty::const_reference,
; 541  : 			_Nodeptr> >::type
; 542  : 		_Val_types;
; 543  : 	};
; 544  : 
; 545  : 		// TEMPLATE CLASS _Tree_val
; 546  : template<class _Val_types>
; 547  : 	class _Tree_val
; 548  : 		: public _Container_base
; 549  : 	{	// base class for tree to hold data
; 550  : public:
; 551  : 	typedef _Tree_val<_Val_types> _Myt;
; 552  : 
; 553  : 	typedef typename _Val_types::_Nodeptr _Nodeptr;
; 554  : 	typedef _Nodeptr& _Nodepref;
; 555  : 
; 556  : 	typedef typename _Val_types::value_type value_type;
; 557  : 	typedef typename _Val_types::size_type size_type;
; 558  : 	typedef typename _Val_types::difference_type difference_type;
; 559  : 	typedef typename _Val_types::pointer pointer;
; 560  : 	typedef typename _Val_types::const_pointer const_pointer;
; 561  : 	typedef typename _Val_types::reference reference;
; 562  : 	typedef typename _Val_types::const_reference const_reference;
; 563  : 
; 564  : 	typedef _Tree_const_iterator<_Myt> const_iterator;
; 565  : 	typedef _Tree_iterator<_Myt> iterator;
; 566  : 
; 567  : 	_Tree_val()
; 568  : 		{	// initialize data
; 569  : 		this->_Myhead = 0;
; 570  : 		this->_Mysize = 0;
; 571  : 		}
; 572  : 
; 573  : 	enum _Redbl
; 574  : 		{	// colors for link to parent
; 575  : 		_Red, _Black};
; 576  : 
; 577  : 	static char& _Color(_Nodeptr _Pnode)
; 578  : 		{	// return reference to color in node
; 579  : 		return ((char&)_Pnode->_Color);
; 580  : 		}
; 581  : 
; 582  : 	static char& _Isnil(_Nodeptr _Pnode)
; 583  : 		{	// return reference to nil flag in node
; 584  : 		return ((char&)_Pnode->_Isnil);

  00054	8b 06		 mov	 eax, DWORD PTR [esi]

; 590  : 		}
; 591  : 
; 592  : 	static _Nodepref _Parent(_Nodeptr _Pnode)
; 593  : 		{	// return reference to parent pointer in node
; 594  : 		return ((_Nodepref)_Pnode->_Parent);
; 595  : 		}
; 596  : 
; 597  : 	static _Nodepref _Right(_Nodeptr _Pnode)
; 598  : 		{	// return reference to right pointer in node
; 599  : 		return ((_Nodepref)_Pnode->_Right);
; 600  : 		}
; 601  : 
; 602  : 	static reference _Myval(_Nodeptr _Pnode)
; 603  : 		{	// return reference to value in node
; 604  : 		return ((reference)_Pnode->_Myval);
; 605  : 		}
; 606  : 
; 607  : 	static _Nodeptr _Max(_Nodeptr _Pnode)
; 608  : 		{	// return rightmost node in subtree at _Pnode
; 609  : 		while (!_Isnil(_Right(_Pnode)))
; 610  : 			_Pnode = _Right(_Pnode);
; 611  : 		return (_Pnode);
; 612  : 		}
; 613  : 
; 614  : 	static _Nodeptr _Min(_Nodeptr _Pnode)
; 615  : 		{	// return leftmost node in subtree at _Pnode
; 616  : 		while (!_Isnil(_Left(_Pnode)))

  00056	80 78 0d 00	 cmp	 BYTE PTR [eax+13], 0
  0005a	75 2b		 jne	 SHORT $LN72@AttackProc
  0005c	8d 64 24 00	 npad	 4
$LL87@AttackProc:

; 617  : 			_Pnode = _Left(_Pnode);

  00060	8b f0		 mov	 esi, eax

; 337  : 		}
; 338  : 
; 339  : 	bool operator!=(const _Myiter& _Right) const
; 340  : 		{	// test for iterator inequality
; 341  : 		return (!(*this == _Right));
; 342  : 		}
; 343  : 	};
; 344  : 
; 345  : template<class _Mytree> inline
; 346  : 	typename _Tree_const_iterator<_Mytree>::_Unchecked_type
; 347  : 		_Unchecked(_Tree_const_iterator<_Mytree> _Iter)
; 348  : 	{	// convert to unchecked
; 349  : 	return (_Iter._Unchecked());
; 350  : 	}
; 351  : 
; 352  : template<class _Mytree> inline
; 353  : 	_Tree_const_iterator<_Mytree>&
; 354  : 		_Rechecked(_Tree_const_iterator<_Mytree>& _Iter,
; 355  : 			typename _Tree_const_iterator<_Mytree>
; 356  : 				::_Unchecked_type _Right)
; 357  : 	{	// convert to checked
; 358  : 	return (_Iter._Rechecked(_Right));
; 359  : 	}
; 360  : 
; 361  : 	// TEMPLATE CLASS _Tree_iterator
; 362  : template<class _Mytree>
; 363  : 	class _Tree_iterator
; 364  : 		: public _Tree_const_iterator<_Mytree>
; 365  : 	{	// iterator for mutable tree
; 366  : public:
; 367  : 	typedef _Tree_iterator<_Mytree> _Myiter;
; 368  : 	typedef _Tree_const_iterator<_Mytree> _Mybase;
; 369  : 	typedef bidirectional_iterator_tag iterator_category;
; 370  : 
; 371  : 	typedef typename _Mytree::_Nodeptr _Nodeptr;
; 372  : 	typedef typename _Mytree::value_type value_type;
; 373  : 	typedef typename _Mytree::difference_type difference_type;
; 374  : 
; 375  : 	typedef typename _Mytree::pointer pointer;
; 376  : 	typedef typename _Mytree::reference reference;
; 377  : 
; 378  : 	_Tree_iterator()
; 379  : 		{	// construct with null node
; 380  : 		}
; 381  : 
; 382  : 	_Tree_iterator(_Nodeptr _Pnode, const _Mytree *_Plist)
; 383  : 		: _Mybase(_Pnode, _Plist)
; 384  : 		{	// construct with node pointer _Pnode
; 385  : 		}
; 386  : 
; 387  : 	typedef _Tree_unchecked_iterator<_Mytree> _Unchecked_type;
; 388  : 
; 389  : 	_Myiter& _Rechecked(_Unchecked_type _Right)
; 390  : 		{	// reset from unchecked iterator
; 391  : 		this->_Ptr = _Right._Ptr;
; 392  : 		return (*this);
; 393  : 		}
; 394  : 
; 395  : 	_Unchecked_type _Unchecked() const
; 396  : 		{	// make an unchecked iterator
; 397  : 		return (_Unchecked_type(this->_Ptr, (_Mytree *)this->_Getcont()));
; 398  : 		}
; 399  : 
; 400  : 	reference operator*() const
; 401  : 		{	// return designated value
; 402  : 		return ((reference)**(_Mybase *)this);
; 403  : 		}
; 404  : 
; 405  : 	pointer operator->() const
; 406  : 		{	// return pointer to class object
; 407  : 		return (_STD pointer_traits<pointer>::pointer_to(**this));
; 408  : 		}
; 409  : 
; 410  : 	_Myiter& operator++()
; 411  : 		{	// preincrement
; 412  : 		++(*(_Mybase *)this);
; 413  : 		return (*this);
; 414  : 		}
; 415  : 
; 416  : 	_Myiter operator++(int)
; 417  : 		{	// postincrement
; 418  : 		_Myiter _Tmp = *this;
; 419  : 		++*this;
; 420  : 		return (_Tmp);
; 421  : 		}
; 422  : 
; 423  : 	_Myiter& operator--()
; 424  : 		{	// predecrement
; 425  : 		--(*(_Mybase *)this);
; 426  : 		return (*this);
; 427  : 		}
; 428  : 
; 429  : 	_Myiter operator--(int)
; 430  : 		{	// postdecrement
; 431  : 		_Myiter _Tmp = *this;
; 432  : 		--*this;
; 433  : 		return (_Tmp);
; 434  : 		}
; 435  : 	};
; 436  : 
; 437  : template<class _Mytree> inline
; 438  : 	typename _Tree_iterator<_Mytree>::_Unchecked_type
; 439  : 		_Unchecked(_Tree_iterator<_Mytree> _Iter)
; 440  : 	{	// convert to unchecked
; 441  : 	return (_Iter._Unchecked());
; 442  : 	}
; 443  : 
; 444  : template<class _Mytree> inline
; 445  : 	_Tree_iterator<_Mytree>&
; 446  : 		_Rechecked(_Tree_iterator<_Mytree>& _Iter,
; 447  : 			typename _Tree_iterator<_Mytree>
; 448  : 				::_Unchecked_type _Right)
; 449  : 	{	// convert to checked
; 450  : 	return (_Iter._Rechecked(_Right));
; 451  : 	}
; 452  : 
; 453  : 		// tree TYPE WRAPPERS
; 454  : template<class _Value_type,
; 455  : 	class _Size_type,
; 456  : 	class _Difference_type,
; 457  : 	class _Pointer,
; 458  : 	class _Const_pointer,
; 459  : 	class _Reference,
; 460  : 	class _Const_reference,
; 461  : 	class _Nodeptr_type>
; 462  : 	struct _Tree_iter_types
; 463  : 	{	// wraps types needed by iterators
; 464  : 	typedef _Value_type value_type;
; 465  : 	typedef _Size_type size_type;
; 466  : 	typedef _Difference_type difference_type;
; 467  : 	typedef _Pointer pointer;
; 468  : 	typedef _Const_pointer const_pointer;
; 469  : 	typedef _Reference reference;
; 470  : 	typedef _Const_reference const_reference;
; 471  : 	typedef _Nodeptr_type _Nodeptr;
; 472  : 	};
; 473  : 
; 474  : template<class _Value_type,
; 475  : 	class _Voidptr>
; 476  : 	struct _Tree_node
; 477  : 		{	// tree node
; 478  : 		_Voidptr _Left;	// left subtree, or smallest element if head
; 479  : 		_Voidptr _Parent;	// parent, or root of tree if head
; 480  : 		_Voidptr _Right;	// right subtree, or largest element if head
; 481  : 		char _Color;	// _Red or _Black, _Black if head
; 482  : 		char _Isnil;	// true only if head (also nil) node
; 483  : 		_Value_type _Myval;	// the stored value, unused if head
; 484  : 
; 485  : 	private:
; 486  : 		_Tree_node& operator=(const _Tree_node&);
; 487  : 		};
; 488  : 
; 489  : template<class _Value_type>
; 490  : 	struct _Tree_node<_Value_type, void *>
; 491  : 		{	// tree node
; 492  : 		typedef _Tree_node<_Value_type, void *> *_Nodeptr;
; 493  : 		_Nodeptr _Left;	// left subtree, or smallest element if head
; 494  : 		_Nodeptr _Parent;	// parent, or root of tree if head
; 495  : 		_Nodeptr _Right;	// right subtree, or largest element if head
; 496  : 		char _Color;	// _Red or _Black, _Black if head
; 497  : 		char _Isnil;	// true only if head (also nil) node
; 498  : 		_Value_type _Myval;	// the stored value, unused if head
; 499  : 
; 500  : 	private:
; 501  : 		_Tree_node& operator=(const _Tree_node&);
; 502  : 		};
; 503  : 
; 504  : template<class _Ty>
; 505  : 	struct _Tree_simple_types
; 506  : 		: public _Simple_types<_Ty>
; 507  : 	{	// wraps types needed by iterators
; 508  : 	typedef _Tree_node<_Ty, void *> _Node;
; 509  : 	typedef _Node *_Nodeptr;
; 510  : 	};
; 511  : 
; 512  : template<class _Ty,
; 513  : 	class _Alloc0>
; 514  : 	struct _Tree_base_types
; 515  : 	{	// types needed for a container base
; 516  : 	typedef _Alloc0 _Alloc;
; 517  : 	typedef _Tree_base_types<_Ty, _Alloc> _Myt;
; 518  : 
; 519  : 	typedef _Wrap_alloc<_Alloc> _Alty0;
; 520  : 	typedef typename _Alty0::template rebind<_Ty>::other _Alty;
; 521  : 
; 522  : 
; 523  : 	typedef typename _Get_voidptr<_Alty, typename _Alty::pointer>::type
; 524  : 		_Voidptr;
; 525  : 	typedef _Tree_node<typename _Alty::value_type,
; 526  : 		_Voidptr> _Node;
; 527  : 
; 528  : 	typedef typename _Alty::template rebind<_Node>::other _Alnod_type;
; 529  : 	typedef typename _Alnod_type::pointer _Nodeptr;
; 530  : 	typedef _Nodeptr& _Nodepref;
; 531  : 
; 532  : 	typedef typename _If<_Is_simple_alloc<_Alty>::value,
; 533  : 		_Tree_simple_types<typename _Alty::value_type>,
; 534  : 		_Tree_iter_types<typename _Alty::value_type,
; 535  : 			typename _Alty::size_type,
; 536  : 			typename _Alty::difference_type,
; 537  : 			typename _Alty::pointer,
; 538  : 			typename _Alty::const_pointer,
; 539  : 			typename _Alty::reference,
; 540  : 			typename _Alty::const_reference,
; 541  : 			_Nodeptr> >::type
; 542  : 		_Val_types;
; 543  : 	};
; 544  : 
; 545  : 		// TEMPLATE CLASS _Tree_val
; 546  : template<class _Val_types>
; 547  : 	class _Tree_val
; 548  : 		: public _Container_base
; 549  : 	{	// base class for tree to hold data
; 550  : public:
; 551  : 	typedef _Tree_val<_Val_types> _Myt;
; 552  : 
; 553  : 	typedef typename _Val_types::_Nodeptr _Nodeptr;
; 554  : 	typedef _Nodeptr& _Nodepref;
; 555  : 
; 556  : 	typedef typename _Val_types::value_type value_type;
; 557  : 	typedef typename _Val_types::size_type size_type;
; 558  : 	typedef typename _Val_types::difference_type difference_type;
; 559  : 	typedef typename _Val_types::pointer pointer;
; 560  : 	typedef typename _Val_types::const_pointer const_pointer;
; 561  : 	typedef typename _Val_types::reference reference;
; 562  : 	typedef typename _Val_types::const_reference const_reference;
; 563  : 
; 564  : 	typedef _Tree_const_iterator<_Myt> const_iterator;
; 565  : 	typedef _Tree_iterator<_Myt> iterator;
; 566  : 
; 567  : 	_Tree_val()
; 568  : 		{	// initialize data
; 569  : 		this->_Myhead = 0;
; 570  : 		this->_Mysize = 0;
; 571  : 		}
; 572  : 
; 573  : 	enum _Redbl
; 574  : 		{	// colors for link to parent
; 575  : 		_Red, _Black};
; 576  : 
; 577  : 	static char& _Color(_Nodeptr _Pnode)
; 578  : 		{	// return reference to color in node
; 579  : 		return ((char&)_Pnode->_Color);
; 580  : 		}
; 581  : 
; 582  : 	static char& _Isnil(_Nodeptr _Pnode)
; 583  : 		{	// return reference to nil flag in node
; 584  : 		return ((char&)_Pnode->_Isnil);

  00062	8b 06		 mov	 eax, DWORD PTR [esi]

; 590  : 		}
; 591  : 
; 592  : 	static _Nodepref _Parent(_Nodeptr _Pnode)
; 593  : 		{	// return reference to parent pointer in node
; 594  : 		return ((_Nodepref)_Pnode->_Parent);
; 595  : 		}
; 596  : 
; 597  : 	static _Nodepref _Right(_Nodeptr _Pnode)
; 598  : 		{	// return reference to right pointer in node
; 599  : 		return ((_Nodepref)_Pnode->_Right);
; 600  : 		}
; 601  : 
; 602  : 	static reference _Myval(_Nodeptr _Pnode)
; 603  : 		{	// return reference to value in node
; 604  : 		return ((reference)_Pnode->_Myval);
; 605  : 		}
; 606  : 
; 607  : 	static _Nodeptr _Max(_Nodeptr _Pnode)
; 608  : 		{	// return rightmost node in subtree at _Pnode
; 609  : 		while (!_Isnil(_Right(_Pnode)))
; 610  : 			_Pnode = _Right(_Pnode);
; 611  : 		return (_Pnode);
; 612  : 		}
; 613  : 
; 614  : 	static _Nodeptr _Min(_Nodeptr _Pnode)
; 615  : 		{	// return leftmost node in subtree at _Pnode
; 616  : 		while (!_Isnil(_Left(_Pnode)))

  00064	80 78 0d 00	 cmp	 BYTE PTR [eax+13], 0
  00068	74 f6		 je	 SHORT $LL87@AttackProc

; 65   : 		else

  0006a	eb 1b		 jmp	 SHORT $LN72@AttackProc
$LN105@AttackProc:

; 66   : 			{	// climb looking for right subtree
; 67   : 			_Nodeptr _Pnode;
; 68   : 			while (!_Mytree::_Isnil(_Pnode = _Mytree::_Parent(_Ptr))
; 69   : 				&& _Ptr == _Mytree::_Right(_Pnode))

  0006c	8b 46 04	 mov	 eax, DWORD PTR [esi+4]
  0006f	80 78 0d 00	 cmp	 BYTE PTR [eax+13], 0
  00073	75 10		 jne	 SHORT $LN114@AttackProc
$LL71@AttackProc:
  00075	3b 70 08	 cmp	 esi, DWORD PTR [eax+8]
  00078	75 0b		 jne	 SHORT $LN114@AttackProc

; 70   : 				_Ptr = _Pnode;	// ==> parent while right subtree

  0007a	8b f0		 mov	 esi, eax
  0007c	8b 40 04	 mov	 eax, DWORD PTR [eax+4]
  0007f	80 78 0d 00	 cmp	 BYTE PTR [eax+13], 0
  00083	74 f0		 je	 SHORT $LL71@AttackProc
$LN114@AttackProc:

; 71   : 			_Ptr = _Pnode;	// ==> parent (head if end())

  00085	8b f0		 mov	 esi, eax
$LN72@AttackProc:
; File d:\metin2\metin2\client_source_clean\client_source_clean\source\userinterface\instancebasebattle.cpp

; 427  : 		if (!IsAttackableInstance(*pkInstEach))

  00087	57		 push	 edi
  00088	8b cb		 mov	 ecx, ebx
  0008a	e8 00 00 00 00	 call	 ?IsAttackableInstance@CInstanceBase@@QAE_NAAV1@@Z ; CInstanceBase::IsAttackableInstance
  0008f	84 c0		 test	 al, al
  00091	74 19		 je	 SHORT $LN116@AttackProc

; 428  : 			continue;
; 429  : 
; 430  : 		if (pkInstEach!=this)

  00093	3b fb		 cmp	 edi, ebx
  00095	74 15		 je	 SHORT $LN116@AttackProc

; 431  : 		{
; 432  : 			if (CheckAttacking(*pkInstEach))

  00097	57		 push	 edi
  00098	8b cb		 mov	 ecx, ebx
  0009a	e8 00 00 00 00	 call	 ?CheckAttacking@CInstanceBase@@QAEHAAV1@@Z ; CInstanceBase::CheckAttacking
  0009f	8b 4d fc	 mov	 ecx, DWORD PTR _pkInstLast$1$[ebp]
  000a2	85 c0		 test	 eax, eax
  000a4	0f 45 cf	 cmovne	 ecx, edi
  000a7	89 4d fc	 mov	 DWORD PTR _pkInstLast$1$[ebp], ecx
  000aa	eb 03		 jmp	 SHORT $LN2@AttackProc
$LN116@AttackProc:
  000ac	8b 4d fc	 mov	 ecx, DWORD PTR _pkInstLast$1$[ebp]
$LN2@AttackProc:
; File c:\program files (x86)\microsoft visual studio 12.0\vc\include\xtree

; 336  : 		return (this->_Ptr == _Right._Ptr);

  000af	8b 45 f8	 mov	 eax, DWORD PTR _rkChrMgr$1$[ebp]
  000b2	39 70 20	 cmp	 DWORD PTR [eax+32], esi
; File d:\metin2\metin2\client_source_clean\client_source_clean\source\userinterface\instancebasebattle.cpp

; 421  : 	while (rkChrMgr.CharacterInstanceEnd()!=i)

  000b5	75 89		 jne	 SHORT $LL6@AttackProc

; 433  : 			{
; 434  : 				pkInstLast=pkInstEach;
; 435  : 			}
; 436  : 		}
; 437  : 	}
; 438  : 
; 439  : 	if (pkInstLast)

  000b7	5f		 pop	 edi
  000b8	85 c9		 test	 ecx, ecx
  000ba	74 0b		 je	 SHORT $LN117@AttackProc

; 440  : 	{
; 441  : 		m_dwLastDmgActorVID=pkInstLast->GetVirtualID();

  000bc	e8 00 00 00 00	 call	 ?GetVirtualID@CInstanceBase@@QAEKXZ ; CInstanceBase::GetVirtualID
  000c1	89 83 7c 01 00
	00		 mov	 DWORD PTR [ebx+380], eax
$LN117@AttackProc:
  000c7	5e		 pop	 esi
$LN1@AttackProc:
  000c8	5b		 pop	 ebx

; 442  : 	}
; 443  : }

  000c9	8b e5		 mov	 esp, ebp
  000cb	5d		 pop	 ebp
  000cc	c3		 ret	 0
?AttackProcess@CInstanceBase@@IAEXXZ ENDP		; CInstanceBase::AttackProcess
_TEXT	ENDS
; Function compile flags: /Ogtp
; File d:\metin2\metin2\client_source_clean\client_source_clean\source\userinterface\instancebasebattle.cpp
; File d:\metin2\metin2\client_source_clean\client_source_clean\extern\include\d3dx8math.inl
; File d:\metin2\metin2\client_source_clean\client_source_clean\source\userinterface\instancebasebattle.cpp
;	COMDAT ?NEW_GetDistanceFromDestPixelPosition@CInstanceBase@@QAEMABUD3DXVECTOR3@@@Z
_TEXT	SEGMENT
$T1 = -28						; size = 12
_kPPosDir$ = -16					; size = 12
_kPPosCur$ = -16					; size = 12
_c_rkPPosDst$ = 8					; size = 4
?NEW_GetDistanceFromDestPixelPosition@CInstanceBase@@QAEMABUD3DXVECTOR3@@@Z PROC ; CInstanceBase::NEW_GetDistanceFromDestPixelPosition, COMDAT
; _this$ = ecx

; 79   : {

  00000	55		 push	 ebp
  00001	8b ec		 mov	 ebp, esp
  00003	83 ec 1c	 sub	 esp, 28			; 0000001cH

; 80   : 	TPixelPosition kPPosCur;
; 81   : 	NEW_GetPixelPosition(&kPPosCur);

  00006	8d 45 f0	 lea	 eax, DWORD PTR _kPPosCur$[ebp]
  00009	50		 push	 eax
  0000a	e8 00 00 00 00	 call	 ?NEW_GetPixelPosition@CInstanceBase@@QAEXPAUD3DXVECTOR3@@@Z ; CInstanceBase::NEW_GetPixelPosition
; File d:\metin2\metin2\client_source_clean\client_source_clean\extern\include\d3dx8math.inl

; 263  :     return D3DXVECTOR3(x - v.x, y - v.y, z - v.z);

  0000f	8b 45 08	 mov	 eax, DWORD PTR _c_rkPPosDst$[ebp]
  00012	f3 0f 10 40 08	 movss	 xmm0, DWORD PTR [eax+8]
  00017	f3 0f 10 10	 movss	 xmm2, DWORD PTR [eax]
  0001b	f3 0f 5c 45 f8	 subss	 xmm0, DWORD PTR _kPPosCur$[ebp+8]
  00020	f3 0f 10 48 04	 movss	 xmm1, DWORD PTR [eax+4]
  00025	f3 0f 5c 55 f0	 subss	 xmm2, DWORD PTR _kPPosCur$[ebp]
  0002a	f3 0f 5c 4d f4	 subss	 xmm1, DWORD PTR _kPPosCur$[ebp+4]

; 182  :     z = fz;

  0002f	f3 0f 11 45 ec	 movss	 DWORD PTR $T1[ebp+8], xmm0
; File d:\metin2\metin2\client_source_clean\client_source_clean\source\userinterface\instancebasebattle.cpp

; 84   : 	kPPosDir=c_rkPPosDst-kPPosCur;

  00034	8b 45 ec	 mov	 eax, DWORD PTR $T1[ebp+8]
  00037	89 45 f8	 mov	 DWORD PTR _kPPosDir$[ebp+8], eax

; 85   : 
; 86   : 	return NEW_GetDistanceFromDirPixelPosition(kPPosDir);

  0003a	8d 45 f0	 lea	 eax, DWORD PTR _kPPosDir$[ebp]
  0003d	0f 14 d1	 unpcklps xmm2, xmm1
  00040	50		 push	 eax
  00041	66 0f d6 55 f0	 movq	 QWORD PTR _kPPosDir$[ebp], xmm2
  00046	e8 00 00 00 00	 call	 ?NEW_GetDistanceFromDirPixelPosition@CInstanceBase@@QAEMABUD3DXVECTOR3@@@Z ; CInstanceBase::NEW_GetDistanceFromDirPixelPosition

; 87   : }

  0004b	8b e5		 mov	 esp, ebp
  0004d	5d		 pop	 ebp
  0004e	c2 04 00	 ret	 4
?NEW_GetDistanceFromDestPixelPosition@CInstanceBase@@QAEMABUD3DXVECTOR3@@@Z ENDP ; CInstanceBase::NEW_GetDistanceFromDestPixelPosition
_TEXT	ENDS
; Function compile flags: /Ogtp
; File d:\metin2\metin2\client_source_clean\client_source_clean\source\userinterface\instancebasebattle.cpp
;	COMDAT ?NEW_UseSkill@CInstanceBase@@QAE_NIII_N@Z
_TEXT	SEGMENT
_uSkill$ = 8						; size = 4
_uMot$ = 12						; size = 4
_uMotLoopCount$ = 16					; size = 4
_isMovingSkill$ = 20					; size = 1
_fCurRot$ = 20						; size = 4
?NEW_UseSkill@CInstanceBase@@QAE_NIII_N@Z PROC		; CInstanceBase::NEW_UseSkill, COMDAT
; _this$ = ecx

; 311  : {

  00000	55		 push	 ebp
  00001	8b ec		 mov	 ebp, esp
  00003	51		 push	 ecx
  00004	53		 push	 ebx
  00005	56		 push	 esi
  00006	57		 push	 edi
  00007	8b f1		 mov	 esi, ecx

; 312  : 	if (IsDead())

  00009	e8 00 00 00 00	 call	 ?IsDead@CInstanceBase@@QAEHXZ ; CInstanceBase::IsDead
  0000e	85 c0		 test	 eax, eax
  00010	74 0a		 je	 SHORT $LN8@NEW_UseSki
$LN11@NEW_UseSki:

; 313  : 		return false;

  00012	32 c0		 xor	 al, al

; 345  : 
; 346  : 	return true;
; 347  : }

  00014	5f		 pop	 edi
  00015	5e		 pop	 esi
  00016	5b		 pop	 ebx
  00017	59		 pop	 ecx
  00018	5d		 pop	 ebp
  00019	c2 10 00	 ret	 16			; 00000010H
$LN8@NEW_UseSki:

; 314  : 
; 315  : 	if (IsStun())

  0001c	8b ce		 mov	 ecx, esi
  0001e	e8 00 00 00 00	 call	 ?IsStun@CInstanceBase@@QAEHXZ ; CInstanceBase::IsStun
  00023	85 c0		 test	 eax, eax
  00025	75 eb		 jne	 SHORT $LN11@NEW_UseSki

; 316  : 		return false;
; 317  : 
; 318  : 	if (IsKnockDown())

  00027	8b ce		 mov	 ecx, esi
  00029	e8 00 00 00 00	 call	 ?IsKnockDown@CInstanceBase@@QAEHXZ ; CInstanceBase::IsKnockDown
  0002e	85 c0		 test	 eax, eax
  00030	75 e0		 jne	 SHORT $LN11@NEW_UseSki

; 319  : 		return false;
; 320  : 
; 321  : 	if (isMovingSkill)

  00032	8b 5d 14	 mov	 ebx, DWORD PTR _isMovingSkill$[ebp]

; 322  : 	{
; 323  : 		if (!IsWalking())

  00035	8b ce		 mov	 ecx, esi
  00037	e8 00 00 00 00	 call	 ?IsWalking@CInstanceBase@@QAEHXZ ; CInstanceBase::IsWalking
  0003c	84 db		 test	 bl, bl
  0003e	74 14		 je	 SHORT $LN5@NEW_UseSki
  00040	85 c0		 test	 eax, eax
  00042	75 07		 jne	 SHORT $LN4@NEW_UseSki

; 324  : 			StartWalking();

  00044	8b ce		 mov	 ecx, esi
  00046	e8 00 00 00 00	 call	 ?StartWalking@CInstanceBase@@IAEXXZ ; CInstanceBase::StartWalking
$LN4@NEW_UseSki:

; 325  : 
; 326  : 		m_isGoing = TRUE;

  0004b	c6 86 88 01 00
	00 01		 mov	 BYTE PTR [esi+392], 1

; 327  : 	}
; 328  : 	else

  00052	eb 1a		 jmp	 SHORT $LN3@NEW_UseSki
$LN5@NEW_UseSki:

; 329  : 	{
; 330  : 		if (IsWalking())

  00054	85 c0		 test	 eax, eax
  00056	74 0f		 je	 SHORT $LN2@NEW_UseSki

; 331  : 			EndWalking();

  00058	f3 0f 10 0d 00
	00 00 00	 movss	 xmm1, DWORD PTR __real@3e19999a
  00060	8b ce		 mov	 ecx, esi
  00062	e8 00 00 00 00	 call	 ?EndWalking@CInstanceBase@@QAEXM@Z ; CInstanceBase::EndWalking
$LN2@NEW_UseSki:

; 332  : 
; 333  : 		m_isGoing = FALSE;

  00067	c6 86 88 01 00
	00 00		 mov	 BYTE PTR [esi+392], 0
$LN3@NEW_UseSki:

; 334  : 	}
; 335  : 
; 336  : 	float fCurRot=m_GraphicThingInstance.GetTargetRotation();

  0006e	8d be d4 01 00
	00		 lea	 edi, DWORD PTR [esi+468]
  00074	8b cf		 mov	 ecx, edi
  00076	e8 00 00 00 00	 call	 ?GetTargetRotation@CActorInstance@@QAEMXZ ; CActorInstance::GetTargetRotation
  0007b	d9 5d 14	 fstp	 DWORD PTR _fCurRot$[ebp]

; 337  : 	SetAdvancingRotation(fCurRot);

  0007e	f3 0f 10 4d 14	 movss	 xmm1, DWORD PTR _fCurRot$[ebp]
  00083	8b ce		 mov	 ecx, esi
  00085	e8 00 00 00 00	 call	 ?SetAdvancingRotation@CInstanceBase@@QAEXM@Z ; CInstanceBase::SetAdvancingRotation

; 338  : 
; 339  : 	m_GraphicThingInstance.InterceptOnceMotion(CRaceMotionData::NAME_SKILL + uMot, 0.1f, uSkill, 1.0f);

  0008a	8b 75 0c	 mov	 esi, DWORD PTR _uMot$[ebp]
  0008d	51		 push	 ecx
  0008e	c7 04 24 00 00
	80 3f		 mov	 DWORD PTR [esp], 1065353216 ; 3f800000H
  00095	ff 75 08	 push	 DWORD PTR _uSkill$[ebp]
  00098	8d 46 32	 lea	 eax, DWORD PTR [esi+50]
  0009b	51		 push	 ecx
  0009c	c7 04 24 cd cc
	cc 3d		 mov	 DWORD PTR [esp], 1036831949 ; 3dcccccdH
  000a3	8b cf		 mov	 ecx, edi
  000a5	50		 push	 eax
  000a6	e8 00 00 00 00	 call	 ?InterceptOnceMotion@CActorInstance@@QAE_NKMIM@Z ; CActorInstance::InterceptOnceMotion

; 340  : 
; 341  : 	m_GraphicThingInstance.__OnUseSkill(uMot, uMotLoopCount, isMovingSkill);

  000ab	53		 push	 ebx
  000ac	8b 5d 10	 mov	 ebx, DWORD PTR _uMotLoopCount$[ebp]
  000af	8b cf		 mov	 ecx, edi
  000b1	53		 push	 ebx
  000b2	56		 push	 esi
  000b3	e8 00 00 00 00	 call	 ?__OnUseSkill@CActorInstance@@QAEXII_N@Z ; CActorInstance::__OnUseSkill

; 342  : 
; 343  : 	if (uMotLoopCount > 0)

  000b8	85 db		 test	 ebx, ebx
  000ba	74 08		 je	 SHORT $LN1@NEW_UseSki

; 344  : 		m_GraphicThingInstance.SetMotionLoopCount(uMotLoopCount);

  000bc	53		 push	 ebx
  000bd	8b cf		 mov	 ecx, edi
  000bf	e8 00 00 00 00	 call	 ?SetMotionLoopCount@CActorInstance@@QAEXH@Z ; CActorInstance::SetMotionLoopCount
$LN1@NEW_UseSki:

; 345  : 
; 346  : 	return true;
; 347  : }

  000c4	5f		 pop	 edi
  000c5	5e		 pop	 esi
  000c6	b0 01		 mov	 al, 1
  000c8	5b		 pop	 ebx
  000c9	59		 pop	 ecx
  000ca	5d		 pop	 ebp
  000cb	c2 10 00	 ret	 16			; 00000010H
?NEW_UseSkill@CInstanceBase@@QAE_NIII_N@Z ENDP		; CInstanceBase::NEW_UseSkill
_TEXT	ENDS
; Function compile flags: /Ogtp
; File d:\metin2\metin2\client_source_clean\client_source_clean\source\userinterface\instancebasebattle.cpp
;	COMDAT ?RunNormalAttack@CInstanceBase@@QAEXM@Z
_TEXT	SEGMENT
_fAtkDirRot$1$ = -4					; size = 4
?RunNormalAttack@CInstanceBase@@QAEXM@Z PROC		; CInstanceBase::RunNormalAttack, COMDAT
; _this$ = ecx
; _fAtkDirRot$ = xmm1s

; 457  : {

  00000	55		 push	 ebp
  00001	8b ec		 mov	 ebp, esp
  00003	51		 push	 ecx
  00004	56		 push	 esi
  00005	f3 0f 11 4d fc	 movss	 DWORD PTR _fAtkDirRot$1$[ebp], xmm1
  0000a	8b f1		 mov	 esi, ecx

; 458  : 	EndGoing();

  0000c	e8 00 00 00 00	 call	 ?EndGoing@CInstanceBase@@QAEXXZ ; CInstanceBase::EndGoing

; 459  : 	m_GraphicThingInstance.NormalAttack(fAtkDirRot);

  00011	f3 0f 10 45 fc	 movss	 xmm0, DWORD PTR _fAtkDirRot$1$[ebp]
  00016	8d 8e d4 01 00
	00		 lea	 ecx, DWORD PTR [esi+468]
  0001c	83 ec 08	 sub	 esp, 8
  0001f	c7 44 24 04 cd
	cc cc 3d	 mov	 DWORD PTR [esp+4], 1036831949 ; 3dcccccdH
  00027	f3 0f 11 04 24	 movss	 DWORD PTR [esp], xmm0
  0002c	e8 00 00 00 00	 call	 ?NormalAttack@CActorInstance@@QAEHMM@Z ; CActorInstance::NormalAttack
  00031	5e		 pop	 esi

; 460  : }

  00032	8b e5		 mov	 esp, ebp
  00034	5d		 pop	 ebp
  00035	c3		 ret	 0
?RunNormalAttack@CInstanceBase@@QAEXM@Z ENDP		; CInstanceBase::RunNormalAttack
_TEXT	ENDS
; Function compile flags: /Ogtp
; File d:\metin2\metin2\client_source_clean\client_source_clean\source\userinterface\instancebasebattle.cpp
;	COMDAT ?RunComboAttack@CInstanceBase@@QAEXMK@Z
_TEXT	SEGMENT
_fAtkDirRot$1$ = -4					; size = 4
_wMotionIndex$ = 8					; size = 4
?RunComboAttack@CInstanceBase@@QAEXMK@Z PROC		; CInstanceBase::RunComboAttack, COMDAT
; _this$ = ecx
; _fAtkDirRot$ = xmm1s

; 463  : {

  00000	55		 push	 ebp
  00001	8b ec		 mov	 ebp, esp
  00003	51		 push	 ecx
  00004	56		 push	 esi
  00005	f3 0f 11 4d fc	 movss	 DWORD PTR _fAtkDirRot$1$[ebp], xmm1
  0000a	8b f1		 mov	 esi, ecx

; 464  : 	EndGoing();

  0000c	e8 00 00 00 00	 call	 ?EndGoing@CInstanceBase@@QAEXXZ ; CInstanceBase::EndGoing

; 465  : 	m_GraphicThingInstance.ComboAttack(wMotionIndex, fAtkDirRot);

  00011	f3 0f 10 45 fc	 movss	 xmm0, DWORD PTR _fAtkDirRot$1$[ebp]
  00016	8d 8e d4 01 00
	00		 lea	 ecx, DWORD PTR [esi+468]
  0001c	83 ec 08	 sub	 esp, 8
  0001f	c7 44 24 04 cd
	cc cc 3d	 mov	 DWORD PTR [esp+4], 1036831949 ; 3dcccccdH
  00027	f3 0f 11 04 24	 movss	 DWORD PTR [esp], xmm0
  0002c	ff 75 08	 push	 DWORD PTR _wMotionIndex$[ebp]
  0002f	e8 00 00 00 00	 call	 ?ComboAttack@CActorInstance@@QAEHKMM@Z ; CActorInstance::ComboAttack
  00034	5e		 pop	 esi

; 466  : }

  00035	8b e5		 mov	 esp, ebp
  00037	5d		 pop	 ebp
  00038	c2 04 00	 ret	 4
?RunComboAttack@CInstanceBase@@QAEXMK@Z ENDP		; CInstanceBase::RunComboAttack
_TEXT	ENDS
; Function compile flags: /Ogtp
; File d:\metin2\metin2\client_source_clean\client_source_clean\source\userinterface\instancebasebattle.cpp
;	COMDAT ?IsAffect@CInstanceBase@@QAE_NI@Z
_TEXT	SEGMENT
_uAffect$ = 8						; size = 4
?IsAffect@CInstanceBase@@QAE_NI@Z PROC			; CInstanceBase::IsAffect, COMDAT
; _this$ = ecx

; 632  : {

  00000	55		 push	 ebp
  00001	8b ec		 mov	 ebp, esp

; 633  : 	return m_kAffectFlagContainer.IsSet(uAffect);

  00003	83 c1 48	 add	 ecx, 72			; 00000048H

; 634  : }

  00006	5d		 pop	 ebp

; 633  : 	return m_kAffectFlagContainer.IsSet(uAffect);

  00007	e9 00 00 00 00	 jmp	 ?IsSet@CAffectFlagContainer@@QBE_NI@Z ; CAffectFlagContainer::IsSet
?IsAffect@CInstanceBase@@QAE_NI@Z ENDP			; CInstanceBase::IsAffect
_TEXT	ENDS
; Function compile flags: /Ogtp
; File d:\metin2\metin2\client_source_clean\client_source_clean\source\userinterface\instancebasebattle.cpp
;	COMDAT ?NEW_GetDistanceFromDestInstance@CInstanceBase@@QAEMAAV1@@Z
_TEXT	SEGMENT
_kPPosDst$ = -12					; size = 12
_rkInstDst$ = 8						; size = 4
?NEW_GetDistanceFromDestInstance@CInstanceBase@@QAEMAAV1@@Z PROC ; CInstanceBase::NEW_GetDistanceFromDestInstance, COMDAT
; _this$ = ecx

; 71   : {

  00000	55		 push	 ebp
  00001	8b ec		 mov	 ebp, esp
  00003	83 ec 0c	 sub	 esp, 12			; 0000000cH

; 72   : 	TPixelPosition kPPosDst;
; 73   : 	rkInstDst.NEW_GetPixelPosition(&kPPosDst);

  00006	8d 45 f4	 lea	 eax, DWORD PTR _kPPosDst$[ebp]
  00009	56		 push	 esi
  0000a	8b f1		 mov	 esi, ecx
  0000c	8b 4d 08	 mov	 ecx, DWORD PTR _rkInstDst$[ebp]
  0000f	50		 push	 eax
  00010	e8 00 00 00 00	 call	 ?NEW_GetPixelPosition@CInstanceBase@@QAEXPAUD3DXVECTOR3@@@Z ; CInstanceBase::NEW_GetPixelPosition

; 74   : 
; 75   : 	return NEW_GetDistanceFromDestPixelPosition(kPPosDst);

  00015	8d 45 f4	 lea	 eax, DWORD PTR _kPPosDst$[ebp]
  00018	8b ce		 mov	 ecx, esi
  0001a	50		 push	 eax
  0001b	e8 00 00 00 00	 call	 ?NEW_GetDistanceFromDestPixelPosition@CInstanceBase@@QAEMABUD3DXVECTOR3@@@Z ; CInstanceBase::NEW_GetDistanceFromDestPixelPosition
  00020	5e		 pop	 esi

; 76   : }

  00021	8b e5		 mov	 esp, ebp
  00023	5d		 pop	 ebp
  00024	c2 04 00	 ret	 4
?NEW_GetDistanceFromDestInstance@CInstanceBase@@QAEMAAV1@@Z ENDP ; CInstanceBase::NEW_GetDistanceFromDestInstance
_TEXT	ENDS
; Function compile flags: /Ogtp
; File d:\metin2\metin2\client_source_clean\client_source_clean\source\userinterface\pythoncharactermanager.h
; File c:\program files (x86)\microsoft visual studio 12.0\vc\include\xtree
; File d:\metin2\metin2\client_source_clean\client_source_clean\source\userinterface\pythoncharactermanager.h
;	COMDAT ?CharacterInstanceBegin@CPythonCharacterManager@@QAE?AVCharacterIterator@1@XZ
_TEXT	SEGMENT
___$ReturnUdt$ = 8					; size = 4
?CharacterInstanceBegin@CPythonCharacterManager@@QAE?AVCharacterIterator@1@XZ PROC ; CPythonCharacterManager::CharacterInstanceBegin, COMDAT
; _this$ = ecx

; 77   : 		inline CharacterIterator			CharacterInstanceBegin() { return CharacterIterator(m_kAliveInstMap.begin());}

  00000	55		 push	 ebp
  00001	8b ec		 mov	 ebp, esp
; File c:\program files (x86)\microsoft visual studio 12.0\vc\include\xtree

; 589  : 		return ((_Nodepref)_Pnode->_Left);

  00003	8b 41 20	 mov	 eax, DWORD PTR [ecx+32]
; File d:\metin2\metin2\client_source_clean\client_source_clean\source\userinterface\pythoncharactermanager.h

; 132  : 			CharacterIterator(const TCharacterInstanceMap::iterator & it) : m_it(it) {}

  00006	8b 08		 mov	 ecx, DWORD PTR [eax]
  00008	8b 45 08	 mov	 eax, DWORD PTR ___$ReturnUdt$[ebp]
  0000b	89 08		 mov	 DWORD PTR [eax], ecx

; 77   : 		inline CharacterIterator			CharacterInstanceBegin() { return CharacterIterator(m_kAliveInstMap.begin());}

  0000d	5d		 pop	 ebp
  0000e	c2 04 00	 ret	 4
?CharacterInstanceBegin@CPythonCharacterManager@@QAE?AVCharacterIterator@1@XZ ENDP ; CPythonCharacterManager::CharacterInstanceBegin
_TEXT	ENDS
; Function compile flags: /Ogtp
; File d:\metin2\metin2\client_source_clean\client_source_clean\source\userinterface\pythoncharactermanager.h
;	COMDAT ?CharacterInstanceEnd@CPythonCharacterManager@@QAE?AVCharacterIterator@1@XZ
_TEXT	SEGMENT
___$ReturnUdt$ = 8					; size = 4
?CharacterInstanceEnd@CPythonCharacterManager@@QAE?AVCharacterIterator@1@XZ PROC ; CPythonCharacterManager::CharacterInstanceEnd, COMDAT
; _this$ = ecx

; 78   : 		inline CharacterIterator			CharacterInstanceEnd() { return CharacterIterator(m_kAliveInstMap.end());}

  00000	55		 push	 ebp
  00001	8b ec		 mov	 ebp, esp

; 79   : 
; 80   : 		// Access Instance
; 81   : 		void								SelectInstance(DWORD VirtualID);
; 82   : 		CInstanceBase *						GetSelectedInstancePtr();
; 83   : 
; 84   : 		CInstanceBase *						GetInstancePtr(DWORD VirtualID);
; 85   : 		CInstanceBase *						GetInstancePtrByName(const char *name);
; 86   : 
; 87   : 		// Pick		
; 88   : 		int									PickAll();
; 89   : 		CInstanceBase *						GetCloseInstance(CInstanceBase * pInstance);
; 90   : 
; 91   : 		// Refresh TextTail
; 92   : 		void								RefreshAllPCTextTail();
; 93   : 		void								RefreshAllGuildMark();
; 94   : 
; 95   : 	protected:
; 96   : 		void								UpdateTransform();
; 97   : 		void								UpdateDeleting();
; 98   : 
; 99   : 	protected:
; 100  : 		void __Initialize();
; 101  : 
; 102  : 		void __DeleteBlendOutInstance(CInstanceBase* pkInstDel);
; 103  : 
; 104  : 		void __OLD_Pick();
; 105  : 		void __NEW_Pick();
; 106  : 
; 107  : 		void __UpdateSortPickedActorList();
; 108  : 		void __UpdatePickedActorList();
; 109  : 		void __SortPickedActorList();
; 110  : 
; 111  : 		void __RenderSortedAliveActorList();
; 112  : 		void __RenderSortedDeadActorList();
; 113  : 
; 114  : 	protected:
; 115  : 		CInstanceBase *						m_pkInstMain;
; 116  : 		CInstanceBase *						m_pkInstPick;
; 117  : 		CInstanceBase *						m_pkInstBind;
; 118  : 		D3DXVECTOR2							m_v2PickedInstProjPos;
; 119  : 
; 120  : 		TCharacterInstanceMap				m_kAliveInstMap;
; 121  : 		TCharacterInstanceList				m_kDeadInstList;
; 122  : 
; 123  : 		std::vector<CInstanceBase*>			m_kVct_pkInstPicked;
; 124  : 
; 125  : 		DWORD								m_adwPointEffect[POINT_MAX_NUM];
; 126  : 
; 127  : 	public:
; 128  : 		class CharacterIterator
; 129  : 		{
; 130  : 		public:
; 131  : 			CharacterIterator(){}
; 132  : 			CharacterIterator(const TCharacterInstanceMap::iterator & it) : m_it(it) {}

  00003	8b 45 08	 mov	 eax, DWORD PTR ___$ReturnUdt$[ebp]
  00006	8b 49 20	 mov	 ecx, DWORD PTR [ecx+32]
  00009	89 08		 mov	 DWORD PTR [eax], ecx

; 78   : 		inline CharacterIterator			CharacterInstanceEnd() { return CharacterIterator(m_kAliveInstMap.end());}

  0000b	5d		 pop	 ebp
  0000c	c2 04 00	 ret	 4
?CharacterInstanceEnd@CPythonCharacterManager@@QAE?AVCharacterIterator@1@XZ ENDP ; CPythonCharacterManager::CharacterInstanceEnd
_TEXT	ENDS
; Function compile flags: /Ogtp
; File d:\metin2\metin2\client_source_clean\client_source_clean\source\userinterface\pythoncharactermanager.h
; File c:\program files (x86)\microsoft visual studio 12.0\vc\include\xtree
; File d:\metin2\metin2\client_source_clean\client_source_clean\source\userinterface\pythoncharactermanager.h
;	COMDAT ??0CharacterIterator@CPythonCharacterManager@@QAE@XZ
_TEXT	SEGMENT
??0CharacterIterator@CPythonCharacterManager@@QAE@XZ PROC ; CPythonCharacterManager::CharacterIterator::CharacterIterator, COMDAT
; _this$ = ecx
; File c:\program files (x86)\microsoft visual studio 12.0\vc\include\xtree

; 39   : 		{	// construct with null node pointer

  00000	c7 01 00 00 00
	00		 mov	 DWORD PTR [ecx], 0
; File d:\metin2\metin2\client_source_clean\client_source_clean\source\userinterface\pythoncharactermanager.h

; 131  : 			CharacterIterator(){}

  00006	8b c1		 mov	 eax, ecx
  00008	c3		 ret	 0
??0CharacterIterator@CPythonCharacterManager@@QAE@XZ ENDP ; CPythonCharacterManager::CharacterIterator::CharacterIterator
_TEXT	ENDS
; Function compile flags: /Ogtp
; File d:\metin2\metin2\client_source_clean\client_source_clean\source\userinterface\pythoncharactermanager.h
;	COMDAT ??0CharacterIterator@CPythonCharacterManager@@QAE@ABV?$_Tree_iterator@V?$_Tree_val@U?$_Tree_simple_types@U?$pair@$$CBKPAVCInstanceBase@@@std@@@std@@@std@@@std@@@Z
_TEXT	SEGMENT
_it$ = 8						; size = 4
??0CharacterIterator@CPythonCharacterManager@@QAE@ABV?$_Tree_iterator@V?$_Tree_val@U?$_Tree_simple_types@U?$pair@$$CBKPAVCInstanceBase@@@std@@@std@@@std@@@std@@@Z PROC ; CPythonCharacterManager::CharacterIterator::CharacterIterator, COMDAT
; _this$ = ecx

; 132  : 			CharacterIterator(const TCharacterInstanceMap::iterator & it) : m_it(it) {}

  00000	55		 push	 ebp
  00001	8b ec		 mov	 ebp, esp
  00003	8b 45 08	 mov	 eax, DWORD PTR _it$[ebp]
  00006	8b 00		 mov	 eax, DWORD PTR [eax]
  00008	89 01		 mov	 DWORD PTR [ecx], eax
  0000a	8b c1		 mov	 eax, ecx
  0000c	5d		 pop	 ebp
  0000d	c2 04 00	 ret	 4
??0CharacterIterator@CPythonCharacterManager@@QAE@ABV?$_Tree_iterator@V?$_Tree_val@U?$_Tree_simple_types@U?$pair@$$CBKPAVCInstanceBase@@@std@@@std@@@std@@@std@@@Z ENDP ; CPythonCharacterManager::CharacterIterator::CharacterIterator
_TEXT	ENDS
; Function compile flags: /Ogtp
; File d:\metin2\metin2\client_source_clean\client_source_clean\source\userinterface\pythoncharactermanager.h
;	COMDAT ??DCharacterIterator@CPythonCharacterManager@@QAEPAVCInstanceBase@@XZ
_TEXT	SEGMENT
??DCharacterIterator@CPythonCharacterManager@@QAEPAVCInstanceBase@@XZ PROC ; CPythonCharacterManager::CharacterIterator::operator*, COMDAT
; _this$ = ecx

; 134  : 			inline CInstanceBase * operator * () {	return m_it->second; }

  00000	8b 01		 mov	 eax, DWORD PTR [ecx]
  00002	8b 40 14	 mov	 eax, DWORD PTR [eax+20]
  00005	c3		 ret	 0
??DCharacterIterator@CPythonCharacterManager@@QAEPAVCInstanceBase@@XZ ENDP ; CPythonCharacterManager::CharacterIterator::operator*
_TEXT	ENDS
; Function compile flags: /Ogtp
; File d:\metin2\metin2\client_source_clean\client_source_clean\source\userinterface\pythoncharactermanager.h
; File c:\program files (x86)\microsoft visual studio 12.0\vc\include\xtree
; File d:\metin2\metin2\client_source_clean\client_source_clean\source\userinterface\pythoncharactermanager.h
;	COMDAT ??ECharacterIterator@CPythonCharacterManager@@QAEAAV01@XZ
_TEXT	SEGMENT
??ECharacterIterator@CPythonCharacterManager@@QAEAAV01@XZ PROC ; CPythonCharacterManager::CharacterIterator::operator++, COMDAT
; _this$ = ecx

; 137  : 			{

  00000	56		 push	 esi
  00001	8b f1		 mov	 esi, ecx
; File c:\program files (x86)\microsoft visual studio 12.0\vc\include\xtree

; 271  : 		++(*(_Mybase *)this);

  00003	e8 00 00 00 00	 call	 ??E?$_Tree_unchecked_const_iterator@V?$_Tree_val@U?$_Tree_simple_types@U?$pair@$$CBKPAVCInstanceBase@@@std@@@std@@@std@@U_Iterator_base0@2@@std@@QAEAAV01@XZ ; std::_Tree_unchecked_const_iterator<std::_Tree_val<std::_Tree_simple_types<std::pair<unsigned long const ,CInstanceBase *> > >,std::_Iterator_base0>::operator++
; File d:\metin2\metin2\client_source_clean\client_source_clean\source\userinterface\pythoncharactermanager.h

; 139  : 				return *this;

  00008	8b c6		 mov	 eax, esi
  0000a	5e		 pop	 esi

; 140  : 			}

  0000b	c3		 ret	 0
??ECharacterIterator@CPythonCharacterManager@@QAEAAV01@XZ ENDP ; CPythonCharacterManager::CharacterIterator::operator++
_TEXT	ENDS
; Function compile flags: /Ogtp
; File d:\metin2\metin2\client_source_clean\client_source_clean\source\userinterface\pythoncharactermanager.h
;	COMDAT ??4CharacterIterator@CPythonCharacterManager@@QAEAAV01@ABV01@@Z
_TEXT	SEGMENT
_rhs$ = 8						; size = 4
??4CharacterIterator@CPythonCharacterManager@@QAEAAV01@ABV01@@Z PROC ; CPythonCharacterManager::CharacterIterator::operator=, COMDAT
; _this$ = ecx

; 150  : 			{

  00000	55		 push	 ebp
  00001	8b ec		 mov	 ebp, esp

; 151  : 				m_it = rhs.m_it;

  00003	8b 45 08	 mov	 eax, DWORD PTR _rhs$[ebp]
  00006	8b 00		 mov	 eax, DWORD PTR [eax]
  00008	89 01		 mov	 DWORD PTR [ecx], eax

; 152  : 				return (*this);

  0000a	8b c1		 mov	 eax, ecx

; 153  : 			}

  0000c	5d		 pop	 ebp
  0000d	c2 04 00	 ret	 4
??4CharacterIterator@CPythonCharacterManager@@QAEAAV01@ABV01@@Z ENDP ; CPythonCharacterManager::CharacterIterator::operator=
_TEXT	ENDS
; Function compile flags: /Ogtp
; File d:\metin2\metin2\client_source_clean\client_source_clean\source\userinterface\pythoncharactermanager.h
; File c:\program files (x86)\microsoft visual studio 12.0\vc\include\xtree
; File d:\metin2\metin2\client_source_clean\client_source_clean\source\userinterface\pythoncharactermanager.h
;	COMDAT ??9CharacterIterator@CPythonCharacterManager@@QBE_NABV01@@Z
_TEXT	SEGMENT
_rhs$ = 8						; size = 4
??9CharacterIterator@CPythonCharacterManager@@QBE_NABV01@@Z PROC ; CPythonCharacterManager::CharacterIterator::operator!=, COMDAT
; _this$ = ecx

; 161  : 			{

  00000	55		 push	 ebp
  00001	8b ec		 mov	 ebp, esp
; File c:\program files (x86)\microsoft visual studio 12.0\vc\include\xtree

; 336  : 		return (this->_Ptr == _Right._Ptr);

  00003	8b 11		 mov	 edx, DWORD PTR [ecx]

; 337  : 		}
; 338  : 
; 339  : 	bool operator!=(const _Myiter& _Right) const
; 340  : 		{	// test for iterator inequality
; 341  : 		return (!(*this == _Right));

  00005	33 c0		 xor	 eax, eax

; 336  : 		return (this->_Ptr == _Right._Ptr);

  00007	8b 4d 08	 mov	 ecx, DWORD PTR _rhs$[ebp]
  0000a	3b 11		 cmp	 edx, DWORD PTR [ecx]

; 337  : 		}
; 338  : 
; 339  : 	bool operator!=(const _Myiter& _Right) const
; 340  : 		{	// test for iterator inequality
; 341  : 		return (!(*this == _Right));

  0000c	0f 95 c0	 setne	 al
; File d:\metin2\metin2\client_source_clean\client_source_clean\source\userinterface\pythoncharactermanager.h

; 163  : 			}

  0000f	5d		 pop	 ebp
  00010	c2 04 00	 ret	 4
??9CharacterIterator@CPythonCharacterManager@@QBE_NABV01@@Z ENDP ; CPythonCharacterManager::CharacterIterator::operator!=
_TEXT	ENDS
; Function compile flags: /Ogtp
; File d:\metin2\metin2\client_source_clean\client_source_clean\source\userinterface\instancebasebattle.cpp
;	COMDAT ?NEW_UnsignedDegreeToSignedDegree@@YAMM@Z
_TEXT	SEGMENT
?NEW_UnsignedDegreeToSignedDegree@@YAMM@Z PROC		; NEW_UnsignedDegreeToSignedDegree, COMDAT
; _fUD$ = xmm0s

; 8    : {

  00000	0f 28 c8	 movaps	 xmm1, xmm0

; 9    : 	float fSD;
; 10   : 	if (fUD>180.0f)

  00003	0f 2f 0d 00 00
	00 00		 comiss	 xmm1, DWORD PTR __real@43340000
  0000a	76 14		 jbe	 SHORT $LN4@NEW_Unsign

; 11   : 		fSD=-(360.0f-fUD);

  0000c	f3 0f 10 05 00
	00 00 00	 movss	 xmm0, DWORD PTR __real@43b40000
  00014	f3 0f 5c c1	 subss	 xmm0, xmm1
  00018	0f 57 05 00 00
	00 00		 xorps	 xmm0, DWORD PTR __xmm@80000000800000008000000080000000

; 18   : }

  0001f	c3		 ret	 0
$LN4@NEW_Unsign:

; 12   : 	else if (fUD<-180.0f)

  00020	f3 0f 10 05 00
	00 00 00	 movss	 xmm0, DWORD PTR __real@c3340000
  00028	0f 2f c1	 comiss	 xmm0, xmm1
  0002b	76 08		 jbe	 SHORT $LN2@NEW_Unsign

; 13   : 		fSD=+(360.0f+fUD);

  0002d	f3 0f 58 0d 00
	00 00 00	 addss	 xmm1, DWORD PTR __real@43b40000
$LN2@NEW_Unsign:

; 14   : 	else
; 15   : 		fSD=fUD;
; 16   : 
; 17   : 	return fSD;

  00035	0f 28 c1	 movaps	 xmm0, xmm1

; 18   : }

  00038	c3		 ret	 0
?NEW_UnsignedDegreeToSignedDegree@@YAMM@Z ENDP		; NEW_UnsignedDegreeToSignedDegree
_TEXT	ENDS
; Function compile flags: /Ogtp
; File d:\metin2\metin2\client_source_clean\client_source_clean\source\userinterface\instancebasebattle.cpp
; File d:\metin2\metin2\client_source_clean\client_source_clean\extern\include\d3dx8math.inl
; File d:\metin2\metin2\client_source_clean\client_source_clean\source\userinterface\instancebasebattle.cpp
; File d:\metin2\metin2\client_source_clean\client_source_clean\extern\include\d3dx8math.inl
; File d:\metin2\metin2\client_source_clean\client_source_clean\source\userinterface\instancebasebattle.cpp
; File d:\metin2\metin2\client_source_clean\client_source_clean\extern\include\d3dx8math.inl
; File d:\metin2\metin2\client_source_clean\client_source_clean\source\userinterface\instancebasebattle.cpp
; File d:\metin2\metin2\client_source_clean\client_source_clean\extern\include\d3dx8math.inl
; File d:\metin2\metin2\client_source_clean\client_source_clean\source\userinterface\instancebasebattle.cpp
; File d:\metin2\metin2\client_source_clean\client_source_clean\extern\include\d3dx8math.inl
; File d:\metin2\metin2\client_source_clean\client_source_clean\source\userinterface\instancebasebattle.cpp
; File d:\metin2\metin2\client_source_clean\client_source_clean\extern\include\d3dx8math.inl
; File c:\program files (x86)\microsoft visual studio 12.0\vc\include\math.h
; File d:\metin2\metin2\client_source_clean\client_source_clean\source\userinterface\instancebasebattle.cpp
;	COMDAT ?NEW_GetSignedDegreeFromDirPixelPosition@@YAMABUD3DXVECTOR3@@@Z
_TEXT	SEGMENT
_vtDirNormal$ = -28					; size = 12
_vtDir$ = -16						; size = 12
__$ArrayPad$ = -4					; size = 4
?NEW_GetSignedDegreeFromDirPixelPosition@@YAMABUD3DXVECTOR3@@@Z PROC ; NEW_GetSignedDegreeFromDirPixelPosition, COMDAT
; _kPPosDir$ = ecx

; 21   : {

  00000	55		 push	 ebp
  00001	8b ec		 mov	 ebp, esp
  00003	83 e4 f8	 and	 esp, -8			; fffffff8H
  00006	83 ec 20	 sub	 esp, 32			; 00000020H
  00009	a1 00 00 00 00	 mov	 eax, DWORD PTR ___security_cookie
  0000e	33 c4		 xor	 eax, esp
  00010	89 44 24 1c	 mov	 DWORD PTR __$ArrayPad$[esp+32], eax
; File d:\metin2\metin2\client_source_clean\client_source_clean\extern\include\d3dx8math.inl

; 180  :     x = fx;

  00014	f3 0f 10 01	 movss	 xmm0, DWORD PTR [ecx]
; File d:\metin2\metin2\client_source_clean\client_source_clean\source\userinterface\instancebasebattle.cpp

; 24   : 	D3DXVec3Normalize(&vtDirNormal, &vtDir);

  00018	8d 44 24 10	 lea	 eax, DWORD PTR _vtDir$[esp+32]
; File d:\metin2\metin2\client_source_clean\client_source_clean\extern\include\d3dx8math.inl

; 180  :     x = fx;

  0001c	f3 0f 11 44 24
	10		 movss	 DWORD PTR _vtDir$[esp+32], xmm0
; File d:\metin2\metin2\client_source_clean\client_source_clean\source\userinterface\instancebasebattle.cpp

; 22   : 	D3DXVECTOR3 vtDir(kPPosDir.x, -kPPosDir.y, kPPosDir.z);

  00022	f3 0f 10 41 04	 movss	 xmm0, DWORD PTR [ecx+4]
  00027	0f 57 05 00 00
	00 00		 xorps	 xmm0, DWORD PTR __xmm@80000000800000008000000080000000

; 24   : 	D3DXVec3Normalize(&vtDirNormal, &vtDir);

  0002e	50		 push	 eax
; File d:\metin2\metin2\client_source_clean\client_source_clean\extern\include\d3dx8math.inl

; 181  :     y = fy;

  0002f	f3 0f 11 44 24
	18		 movss	 DWORD PTR _vtDir$[esp+40], xmm0
; File d:\metin2\metin2\client_source_clean\client_source_clean\source\userinterface\instancebasebattle.cpp

; 24   : 	D3DXVec3Normalize(&vtDirNormal, &vtDir);

  00035	8d 44 24 08	 lea	 eax, DWORD PTR _vtDirNormal$[esp+36]
; File d:\metin2\metin2\client_source_clean\client_source_clean\extern\include\d3dx8math.inl

; 182  :     z = fz;

  00039	f3 0f 10 41 08	 movss	 xmm0, DWORD PTR [ecx+8]
; File d:\metin2\metin2\client_source_clean\client_source_clean\source\userinterface\instancebasebattle.cpp

; 24   : 	D3DXVec3Normalize(&vtDirNormal, &vtDir);

  0003e	50		 push	 eax
; File d:\metin2\metin2\client_source_clean\client_source_clean\extern\include\d3dx8math.inl

; 182  :     z = fz;

  0003f	f3 0f 11 44 24
	20		 movss	 DWORD PTR _vtDir$[esp+48], xmm0
; File d:\metin2\metin2\client_source_clean\client_source_clean\source\userinterface\instancebasebattle.cpp

; 24   : 	D3DXVec3Normalize(&vtDirNormal, &vtDir);

  00045	e8 00 00 00 00	 call	 _D3DXVec3Normalize@8
; File d:\metin2\metin2\client_source_clean\client_source_clean\extern\include\d3dx8math.inl

; 1264 :     return pV1->x * pV2->x + pV1->y * pV2->y + pV1->z * pV2->z;

  0004a	f3 0f 10 4c 24
	04		 movss	 xmm1, DWORD PTR _vtDirNormal$[esp+32]
  00050	0f 57 d2	 xorps	 xmm2, xmm2
  00053	f3 0f 10 44 24
	08		 movss	 xmm0, DWORD PTR _vtDirNormal$[esp+36]
  00059	f3 0f 59 05 00
	00 00 00	 mulss	 xmm0, DWORD PTR __real@3f800000
  00061	f3 0f 59 ca	 mulss	 xmm1, xmm2
  00065	f3 0f 5c c8	 subss	 xmm1, xmm0
  00069	f3 0f 10 44 24
	0c		 movss	 xmm0, DWORD PTR _vtDirNormal$[esp+40]
  0006f	f3 0f 59 c2	 mulss	 xmm0, xmm2
  00073	f3 0f 58 c8	 addss	 xmm1, xmm0
; File c:\program files (x86)\microsoft visual studio 12.0\vc\include\math.h

; 639  :     return (float)acos(_X);

  00077	0f 5a c1	 cvtps2pd xmm0, xmm1
  0007a	e8 00 00 00 00	 call	 __libm_sse2_acos_precise
  0007f	f2 0f 5a c0	 cvtsd2ss xmm0, xmm0
  00083	0f 57 c9	 xorps	 xmm1, xmm1
; File d:\metin2\metin2\client_source_clean\client_source_clean\source\userinterface\instancebasebattle.cpp

; 29   : 	if (vtDirNormal.x<0.0f)

  00086	0f 2f 4c 24 04	 comiss	 xmm1, DWORD PTR _vtDirNormal$[esp+32]
  0008b	f3 0f 59 05 00
	00 00 00	 mulss	 xmm0, DWORD PTR __real@42652ee0
  00093	76 07		 jbe	 SHORT $LN1@NEW_GetSig

; 30   : 		fDirRot=-fDirRot;

  00095	0f 57 05 00 00
	00 00		 xorps	 xmm0, DWORD PTR __xmm@80000000800000008000000080000000
$LN1@NEW_GetSig:

; 31   : 
; 32   : 	return fDirRot;
; 33   : }

  0009c	8b 4c 24 1c	 mov	 ecx, DWORD PTR __$ArrayPad$[esp+32]
  000a0	33 cc		 xor	 ecx, esp
  000a2	e8 00 00 00 00	 call	 @__security_check_cookie@4
  000a7	8b e5		 mov	 esp, ebp
  000a9	5d		 pop	 ebp
  000aa	c3		 ret	 0
?NEW_GetSignedDegreeFromDirPixelPosition@@YAMABUD3DXVECTOR3@@@Z ENDP ; NEW_GetSignedDegreeFromDirPixelPosition
_TEXT	ENDS
; Function compile flags: /Ogtp
; File d:\metin2\metin2\client_source_clean\client_source_clean\source\userinterface\instancebasebattle.cpp
;	COMDAT ?IsFlyTargetObject@CInstanceBase@@QAE_NXZ
_TEXT	SEGMENT
?IsFlyTargetObject@CInstanceBase@@QAE_NXZ PROC		; CInstanceBase::IsFlyTargetObject, COMDAT
; _this$ = ecx

; 37   : 	return m_GraphicThingInstance.IsFlyTargetObject();

  00000	81 c1 d4 01 00
	00		 add	 ecx, 468		; 000001d4H
  00006	e9 00 00 00 00	 jmp	 ?IsFlyTargetObject@CActorInstance@@QAE_NXZ ; CActorInstance::IsFlyTargetObject
?IsFlyTargetObject@CInstanceBase@@QAE_NXZ ENDP		; CInstanceBase::IsFlyTargetObject
_TEXT	ENDS
; Function compile flags: /Ogtp
; File d:\metin2\metin2\client_source_clean\client_source_clean\source\userinterface\instancebasebattle.cpp
;	COMDAT ?ClearFlyTargetInstance@CInstanceBase@@QAEXXZ
_TEXT	SEGMENT
?ClearFlyTargetInstance@CInstanceBase@@QAEXXZ PROC	; CInstanceBase::ClearFlyTargetInstance, COMDAT
; _this$ = ecx

; 47   : 	m_GraphicThingInstance.ClearFlyTarget();

  00000	81 c1 d4 01 00
	00		 add	 ecx, 468		; 000001d4H
  00006	e9 00 00 00 00	 jmp	 ?ClearFlyTarget@CActorInstance@@QAEXXZ ; CActorInstance::ClearFlyTarget
?ClearFlyTargetInstance@CInstanceBase@@QAEXXZ ENDP	; CInstanceBase::ClearFlyTargetInstance
_TEXT	ENDS
; Function compile flags: /Ogtp
; File d:\metin2\metin2\client_source_clean\client_source_clean\source\userinterface\instancebasebattle.cpp
;	COMDAT ?SetFlyTargetInstance@CInstanceBase@@QAEXAAV1@@Z
_TEXT	SEGMENT
$T2 = -44						; size = 24
__$ArrayPad$ = -20					; size = 4
__$EHRec$ = -12						; size = 12
_rkInstDst$ = 8						; size = 4
?SetFlyTargetInstance@CInstanceBase@@QAEXAAV1@@Z PROC	; CInstanceBase::SetFlyTargetInstance, COMDAT
; _this$ = ecx

; 51   : {

  00000	55		 push	 ebp
  00001	8b ec		 mov	 ebp, esp
  00003	83 e4 f8	 and	 esp, -8			; fffffff8H
  00006	6a ff		 push	 -1
  00008	68 00 00 00 00	 push	 __ehhandler$?SetFlyTargetInstance@CInstanceBase@@QAEXAAV1@@Z
  0000d	64 a1 00 00 00
	00		 mov	 eax, DWORD PTR fs:0
  00013	50		 push	 eax
  00014	83 ec 20	 sub	 esp, 32			; 00000020H
  00017	a1 00 00 00 00	 mov	 eax, DWORD PTR ___security_cookie
  0001c	33 c4		 xor	 eax, esp
  0001e	89 44 24 18	 mov	 DWORD PTR __$ArrayPad$[esp+44], eax
  00022	56		 push	 esi
  00023	a1 00 00 00 00	 mov	 eax, DWORD PTR ___security_cookie
  00028	33 c4		 xor	 eax, esp
  0002a	50		 push	 eax
  0002b	8d 44 24 28	 lea	 eax, DWORD PTR __$EHRec$[esp+52]
  0002f	64 a3 00 00 00
	00		 mov	 DWORD PTR fs:0, eax
  00035	8b f1		 mov	 esi, ecx
  00037	8b 4d 08	 mov	 ecx, DWORD PTR _rkInstDst$[ebp]

; 52   : // NOTE : NEW_Attack  Target     - [levites]
; 53   : //	if (isLock())
; 54   : //		return;
; 55   : 
; 56   : 	m_GraphicThingInstance.SetFlyTarget(rkInstDst.GetGraphicThingInstancePtr());

  0003a	e8 00 00 00 00	 call	 ?GetGraphicThingInstancePtr@CInstanceBase@@QAEPAVCActorInstance@@XZ ; CInstanceBase::GetGraphicThingInstancePtr
  0003f	85 c0		 test	 eax, eax
  00041	74 07		 je	 SHORT $LN3@SetFlyTarg
  00043	05 dc 01 00 00	 add	 eax, 476		; 000001dcH
  00048	eb 02		 jmp	 SHORT $LN4@SetFlyTarg
$LN3@SetFlyTarg:
  0004a	33 c0		 xor	 eax, eax
$LN4@SetFlyTarg:
  0004c	50		 push	 eax
  0004d	8d 4c 24 0c	 lea	 ecx, DWORD PTR $T2[esp+56]
  00051	e8 00 00 00 00	 call	 ??0CFlyTarget@@QAE@PAVIFlyTargetableObject@@@Z ; CFlyTarget::CFlyTarget
  00056	8d 44 24 08	 lea	 eax, DWORD PTR $T2[esp+52]
  0005a	c7 44 24 30 00
	00 00 00	 mov	 DWORD PTR __$EHRec$[esp+60], 0
  00062	50		 push	 eax
  00063	8d 8e d4 01 00
	00		 lea	 ecx, DWORD PTR [esi+468]
  00069	e8 00 00 00 00	 call	 ?SetFlyTarget@CActorInstance@@QAEXABVCFlyTarget@@@Z ; CActorInstance::SetFlyTarget
  0006e	8d 4c 24 08	 lea	 ecx, DWORD PTR $T2[esp+52]
  00072	c7 44 24 30 ff
	ff ff ff	 mov	 DWORD PTR __$EHRec$[esp+60], -1
  0007a	e8 00 00 00 00	 call	 ??1CFlyTarget@@UAE@XZ	; CFlyTarget::~CFlyTarget

; 57   : }

  0007f	8b 4c 24 28	 mov	 ecx, DWORD PTR __$EHRec$[esp+52]
  00083	64 89 0d 00 00
	00 00		 mov	 DWORD PTR fs:0, ecx
  0008a	59		 pop	 ecx
  0008b	5e		 pop	 esi
  0008c	8b 4c 24 18	 mov	 ecx, DWORD PTR __$ArrayPad$[esp+44]
  00090	33 cc		 xor	 ecx, esp
  00092	e8 00 00 00 00	 call	 @__security_check_cookie@4
  00097	8b e5		 mov	 esp, ebp
  00099	5d		 pop	 ebp
  0009a	c2 04 00	 ret	 4
_TEXT	ENDS
;	COMDAT text$x
text$x	SEGMENT
__unwindfunclet$?SetFlyTargetInstance@CInstanceBase@@QAEXAAV1@@Z$0:
  00000	8d 4d d4	 lea	 ecx, DWORD PTR $T2[ebp]
  00003	e9 00 00 00 00	 jmp	 ??1CFlyTarget@@UAE@XZ	; CFlyTarget::~CFlyTarget
__ehhandler$?SetFlyTargetInstance@CInstanceBase@@QAEXAAV1@@Z:
  00008	8b 54 24 08	 mov	 edx, DWORD PTR [esp+8]
  0000c	8d 42 dc	 lea	 eax, DWORD PTR [edx-36]
  0000f	8b 4a d8	 mov	 ecx, DWORD PTR [edx-40]
  00012	33 c8		 xor	 ecx, eax
  00014	e8 00 00 00 00	 call	 @__security_check_cookie@4
  00019	83 c0 04	 add	 eax, 4
  0001c	8b 4a f8	 mov	 ecx, DWORD PTR [edx-8]
  0001f	33 c8		 xor	 ecx, eax
  00021	e8 00 00 00 00	 call	 @__security_check_cookie@4
  00026	b8 00 00 00 00	 mov	 eax, OFFSET __ehfuncinfo$?SetFlyTargetInstance@CInstanceBase@@QAEXAAV1@@Z
  0002b	e9 00 00 00 00	 jmp	 ___CxxFrameHandler3
text$x	ENDS
?SetFlyTargetInstance@CInstanceBase@@QAEXAAV1@@Z ENDP	; CInstanceBase::SetFlyTargetInstance
; Function compile flags: /Ogtp
; File d:\metin2\metin2\client_source_clean\client_source_clean\source\userinterface\instancebasebattle.cpp
;	COMDAT ?AddFlyTargetPosition@CInstanceBase@@QAEXABUD3DXVECTOR3@@@Z
_TEXT	SEGMENT
$T2 = -44						; size = 24
__$ArrayPad$ = -20					; size = 4
__$EHRec$ = -12						; size = 12
_c_rkPPosDst$ = 8					; size = 4
?AddFlyTargetPosition@CInstanceBase@@QAEXABUD3DXVECTOR3@@@Z PROC ; CInstanceBase::AddFlyTargetPosition, COMDAT
; _this$ = ecx

; 60   : {

  00000	55		 push	 ebp
  00001	8b ec		 mov	 ebp, esp
  00003	6a ff		 push	 -1
  00005	68 00 00 00 00	 push	 __ehhandler$?AddFlyTargetPosition@CInstanceBase@@QAEXABUD3DXVECTOR3@@@Z
  0000a	64 a1 00 00 00
	00		 mov	 eax, DWORD PTR fs:0
  00010	50		 push	 eax
  00011	83 ec 20	 sub	 esp, 32			; 00000020H
  00014	a1 00 00 00 00	 mov	 eax, DWORD PTR ___security_cookie
  00019	33 c5		 xor	 eax, ebp
  0001b	89 45 ec	 mov	 DWORD PTR __$ArrayPad$[ebp], eax
  0001e	56		 push	 esi
  0001f	50		 push	 eax
  00020	8d 45 f4	 lea	 eax, DWORD PTR __$EHRec$[ebp]
  00023	64 a3 00 00 00
	00		 mov	 DWORD PTR fs:0, eax
  00029	8b f1		 mov	 esi, ecx
  0002b	8b 45 08	 mov	 eax, DWORD PTR _c_rkPPosDst$[ebp]

; 61   : 	m_GraphicThingInstance.AddFlyTarget(c_rkPPosDst);

  0002e	8d 4d d4	 lea	 ecx, DWORD PTR $T2[ebp]
  00031	50		 push	 eax
  00032	e8 00 00 00 00	 call	 ??0CFlyTarget@@QAE@ABUD3DXVECTOR3@@@Z ; CFlyTarget::CFlyTarget
  00037	8d 45 d4	 lea	 eax, DWORD PTR $T2[ebp]
  0003a	c7 45 fc 00 00
	00 00		 mov	 DWORD PTR __$EHRec$[ebp+8], 0
  00041	50		 push	 eax
  00042	8d 8e d4 01 00
	00		 lea	 ecx, DWORD PTR [esi+468]
  00048	e8 00 00 00 00	 call	 ?AddFlyTarget@CActorInstance@@QAEXABVCFlyTarget@@@Z ; CActorInstance::AddFlyTarget
  0004d	8d 4d d4	 lea	 ecx, DWORD PTR $T2[ebp]
  00050	c7 45 fc ff ff
	ff ff		 mov	 DWORD PTR __$EHRec$[ebp+8], -1
  00057	e8 00 00 00 00	 call	 ??1CFlyTarget@@UAE@XZ	; CFlyTarget::~CFlyTarget

; 62   : }

  0005c	8b 4d f4	 mov	 ecx, DWORD PTR __$EHRec$[ebp]
  0005f	64 89 0d 00 00
	00 00		 mov	 DWORD PTR fs:0, ecx
  00066	59		 pop	 ecx
  00067	5e		 pop	 esi
  00068	8b 4d ec	 mov	 ecx, DWORD PTR __$ArrayPad$[ebp]
  0006b	33 cd		 xor	 ecx, ebp
  0006d	e8 00 00 00 00	 call	 @__security_check_cookie@4
  00072	8b e5		 mov	 esp, ebp
  00074	5d		 pop	 ebp
  00075	c2 04 00	 ret	 4
_TEXT	ENDS
;	COMDAT text$x
text$x	SEGMENT
__unwindfunclet$?AddFlyTargetPosition@CInstanceBase@@QAEXABUD3DXVECTOR3@@@Z$0:
  00000	8d 4d d4	 lea	 ecx, DWORD PTR $T2[ebp]
  00003	e9 00 00 00 00	 jmp	 ??1CFlyTarget@@UAE@XZ	; CFlyTarget::~CFlyTarget
__ehhandler$?AddFlyTargetPosition@CInstanceBase@@QAEXABUD3DXVECTOR3@@@Z:
  00008	8b 54 24 08	 mov	 edx, DWORD PTR [esp+8]
  0000c	8d 42 0c	 lea	 eax, DWORD PTR [edx+12]
  0000f	8b 4a d8	 mov	 ecx, DWORD PTR [edx-40]
  00012	33 c8		 xor	 ecx, eax
  00014	e8 00 00 00 00	 call	 @__security_check_cookie@4
  00019	8b 4a f8	 mov	 ecx, DWORD PTR [edx-8]
  0001c	33 c8		 xor	 ecx, eax
  0001e	e8 00 00 00 00	 call	 @__security_check_cookie@4
  00023	b8 00 00 00 00	 mov	 eax, OFFSET __ehfuncinfo$?AddFlyTargetPosition@CInstanceBase@@QAEXABUD3DXVECTOR3@@@Z
  00028	e9 00 00 00 00	 jmp	 ___CxxFrameHandler3
text$x	ENDS
?AddFlyTargetPosition@CInstanceBase@@QAEXABUD3DXVECTOR3@@@Z ENDP ; CInstanceBase::AddFlyTargetPosition
; Function compile flags: /Ogtp
; File d:\metin2\metin2\client_source_clean\client_source_clean\source\userinterface\instancebasebattle.cpp
;	COMDAT ?AddFlyTargetInstance@CInstanceBase@@QAEXAAV1@@Z
_TEXT	SEGMENT
$T2 = -44						; size = 24
__$ArrayPad$ = -20					; size = 4
__$EHRec$ = -12						; size = 12
_rkInstDst$ = 8						; size = 4
?AddFlyTargetInstance@CInstanceBase@@QAEXAAV1@@Z PROC	; CInstanceBase::AddFlyTargetInstance, COMDAT
; _this$ = ecx

; 65   : {

  00000	55		 push	 ebp
  00001	8b ec		 mov	 ebp, esp
  00003	6a ff		 push	 -1
  00005	68 00 00 00 00	 push	 __ehhandler$?AddFlyTargetInstance@CInstanceBase@@QAEXAAV1@@Z
  0000a	64 a1 00 00 00
	00		 mov	 eax, DWORD PTR fs:0
  00010	50		 push	 eax
  00011	83 ec 20	 sub	 esp, 32			; 00000020H
  00014	a1 00 00 00 00	 mov	 eax, DWORD PTR ___security_cookie
  00019	33 c5		 xor	 eax, ebp
  0001b	89 45 ec	 mov	 DWORD PTR __$ArrayPad$[ebp], eax
  0001e	56		 push	 esi
  0001f	50		 push	 eax
  00020	8d 45 f4	 lea	 eax, DWORD PTR __$EHRec$[ebp]
  00023	64 a3 00 00 00
	00		 mov	 DWORD PTR fs:0, eax
  00029	8b f1		 mov	 esi, ecx
  0002b	8b 4d 08	 mov	 ecx, DWORD PTR _rkInstDst$[ebp]

; 66   : 	m_GraphicThingInstance.AddFlyTarget(rkInstDst.GetGraphicThingInstancePtr());

  0002e	e8 00 00 00 00	 call	 ?GetGraphicThingInstancePtr@CInstanceBase@@QAEPAVCActorInstance@@XZ ; CInstanceBase::GetGraphicThingInstancePtr
  00033	85 c0		 test	 eax, eax
  00035	74 07		 je	 SHORT $LN3@AddFlyTarg
  00037	05 dc 01 00 00	 add	 eax, 476		; 000001dcH
  0003c	eb 02		 jmp	 SHORT $LN4@AddFlyTarg
$LN3@AddFlyTarg:
  0003e	33 c0		 xor	 eax, eax
$LN4@AddFlyTarg:
  00040	50		 push	 eax
  00041	8d 4d d4	 lea	 ecx, DWORD PTR $T2[ebp]
  00044	e8 00 00 00 00	 call	 ??0CFlyTarget@@QAE@PAVIFlyTargetableObject@@@Z ; CFlyTarget::CFlyTarget
  00049	8d 45 d4	 lea	 eax, DWORD PTR $T2[ebp]
  0004c	c7 45 fc 00 00
	00 00		 mov	 DWORD PTR __$EHRec$[ebp+8], 0
  00053	50		 push	 eax
  00054	8d 8e d4 01 00
	00		 lea	 ecx, DWORD PTR [esi+468]
  0005a	e8 00 00 00 00	 call	 ?AddFlyTarget@CActorInstance@@QAEXABVCFlyTarget@@@Z ; CActorInstance::AddFlyTarget
  0005f	8d 4d d4	 lea	 ecx, DWORD PTR $T2[ebp]
  00062	c7 45 fc ff ff
	ff ff		 mov	 DWORD PTR __$EHRec$[ebp+8], -1
  00069	e8 00 00 00 00	 call	 ??1CFlyTarget@@UAE@XZ	; CFlyTarget::~CFlyTarget

; 67   : }

  0006e	8b 4d f4	 mov	 ecx, DWORD PTR __$EHRec$[ebp]
  00071	64 89 0d 00 00
	00 00		 mov	 DWORD PTR fs:0, ecx
  00078	59		 pop	 ecx
  00079	5e		 pop	 esi
  0007a	8b 4d ec	 mov	 ecx, DWORD PTR __$ArrayPad$[ebp]
  0007d	33 cd		 xor	 ecx, ebp
  0007f	e8 00 00 00 00	 call	 @__security_check_cookie@4
  00084	8b e5		 mov	 esp, ebp
  00086	5d		 pop	 ebp
  00087	c2 04 00	 ret	 4
_TEXT	ENDS
;	COMDAT text$x
text$x	SEGMENT
__unwindfunclet$?AddFlyTargetInstance@CInstanceBase@@QAEXAAV1@@Z$0:
  00000	8d 4d d4	 lea	 ecx, DWORD PTR $T2[ebp]
  00003	e9 00 00 00 00	 jmp	 ??1CFlyTarget@@UAE@XZ	; CFlyTarget::~CFlyTarget
__ehhandler$?AddFlyTargetInstance@CInstanceBase@@QAEXAAV1@@Z:
  00008	8b 54 24 08	 mov	 edx, DWORD PTR [esp+8]
  0000c	8d 42 0c	 lea	 eax, DWORD PTR [edx+12]
  0000f	8b 4a d8	 mov	 ecx, DWORD PTR [edx-40]
  00012	33 c8		 xor	 ecx, eax
  00014	e8 00 00 00 00	 call	 @__security_check_cookie@4
  00019	8b 4a f8	 mov	 ecx, DWORD PTR [edx-8]
  0001c	33 c8		 xor	 ecx, eax
  0001e	e8 00 00 00 00	 call	 @__security_check_cookie@4
  00023	b8 00 00 00 00	 mov	 eax, OFFSET __ehfuncinfo$?AddFlyTargetInstance@CInstanceBase@@QAEXAAV1@@Z
  00028	e9 00 00 00 00	 jmp	 ___CxxFrameHandler3
text$x	ENDS
?AddFlyTargetInstance@CInstanceBase@@QAEXAAV1@@Z ENDP	; CInstanceBase::AddFlyTargetInstance
; Function compile flags: /Ogtp
; File d:\metin2\metin2\client_source_clean\client_source_clean\source\userinterface\instancebasebattle.cpp
; File c:\program files (x86)\microsoft visual studio 12.0\vc\include\math.h
; File d:\metin2\metin2\client_source_clean\client_source_clean\source\userinterface\instancebasebattle.cpp
;	COMDAT ?NEW_GetDistanceFromDirPixelPosition@CInstanceBase@@QAEMABUD3DXVECTOR3@@@Z
_TEXT	SEGMENT
_c_rkPPosDir$ = 8					; size = 4
?NEW_GetDistanceFromDirPixelPosition@CInstanceBase@@QAEMABUD3DXVECTOR3@@@Z PROC ; CInstanceBase::NEW_GetDistanceFromDirPixelPosition, COMDAT
; _this$dead$ = ecx

; 90   : {

  00000	55		 push	 ebp
  00001	8b ec		 mov	 ebp, esp
  00003	83 e4 f8	 and	 esp, -8			; fffffff8H

; 91   : 	return sqrtf(c_rkPPosDir.x*c_rkPPosDir.x+c_rkPPosDir.y*c_rkPPosDir.y);

  00006	8b 45 08	 mov	 eax, DWORD PTR _c_rkPPosDir$[ebp]
  00009	f3 0f 10 00	 movss	 xmm0, DWORD PTR [eax]
  0000d	f3 0f 10 48 04	 movss	 xmm1, DWORD PTR [eax+4]
  00012	f3 0f 59 c0	 mulss	 xmm0, xmm0
  00016	f3 0f 59 c9	 mulss	 xmm1, xmm1
  0001a	f3 0f 58 c1	 addss	 xmm0, xmm1
; File c:\program files (x86)\microsoft visual studio 12.0\vc\include\math.h

; 775  :     return (float)sqrt(_X);

  0001e	0f 5a c0	 cvtps2pd xmm0, xmm0
  00021	e8 00 00 00 00	 call	 __libm_sse2_sqrt_precise
  00026	f2 0f 5a c0	 cvtsd2ss xmm0, xmm0
; File d:\metin2\metin2\client_source_clean\client_source_clean\source\userinterface\instancebasebattle.cpp

; 92   : }

  0002a	8b e5		 mov	 esp, ebp
  0002c	5d		 pop	 ebp
  0002d	c2 04 00	 ret	 4
?NEW_GetDistanceFromDirPixelPosition@CInstanceBase@@QAEMABUD3DXVECTOR3@@@Z ENDP ; CInstanceBase::NEW_GetDistanceFromDirPixelPosition
_TEXT	ENDS
; Function compile flags: /Ogtp
; File d:\metin2\metin2\client_source_clean\client_source_clean\source\userinterface\instancebasebattle.cpp
;	COMDAT ?NEW_GetRotation@CInstanceBase@@QAEMXZ
_TEXT	SEGMENT
?NEW_GetRotation@CInstanceBase@@QAEMXZ PROC		; CInstanceBase::NEW_GetRotation, COMDAT
; _this$ = ecx

; 96   : 	float fCurRot=GetRotation();

  00000	e8 00 00 00 00	 call	 ?GetRotation@CInstanceBase@@QAEMXZ ; CInstanceBase::GetRotation

; 97   : 	return NEW_UnsignedDegreeToSignedDegree(fCurRot);

  00005	e9 00 00 00 00	 jmp	 ?NEW_UnsignedDegreeToSignedDegree@@YAMM@Z ; NEW_UnsignedDegreeToSignedDegree
?NEW_GetRotation@CInstanceBase@@QAEMXZ ENDP		; CInstanceBase::NEW_GetRotation
_TEXT	ENDS
; Function compile flags: /Ogtp
; File d:\metin2\metin2\client_source_clean\client_source_clean\source\userinterface\instancebasebattle.cpp
;	COMDAT ?NEW_GetRotationFromDirPixelPosition@CInstanceBase@@QAEMABUD3DXVECTOR3@@@Z
_TEXT	SEGMENT
_c_rkPPosDir$ = 8					; size = 4
?NEW_GetRotationFromDirPixelPosition@CInstanceBase@@QAEMABUD3DXVECTOR3@@@Z PROC ; CInstanceBase::NEW_GetRotationFromDirPixelPosition, COMDAT
; _this$dead$ = ecx

; 101  : {

  00000	55		 push	 ebp
  00001	8b ec		 mov	 ebp, esp

; 102  : 	return NEW_GetSignedDegreeFromDirPixelPosition(c_rkPPosDir);

  00003	8b 4d 08	 mov	 ecx, DWORD PTR _c_rkPPosDir$[ebp]
  00006	e8 00 00 00 00	 call	 ?NEW_GetSignedDegreeFromDirPixelPosition@@YAMABUD3DXVECTOR3@@@Z ; NEW_GetSignedDegreeFromDirPixelPosition

; 103  : }

  0000b	5d		 pop	 ebp
  0000c	c2 04 00	 ret	 4
?NEW_GetRotationFromDirPixelPosition@CInstanceBase@@QAEMABUD3DXVECTOR3@@@Z ENDP ; CInstanceBase::NEW_GetRotationFromDirPixelPosition
_TEXT	ENDS
; Function compile flags: /Ogtp
; File d:\metin2\metin2\client_source_clean\client_source_clean\source\userinterface\instancebasebattle.cpp
; File d:\metin2\metin2\client_source_clean\client_source_clean\extern\include\d3dx8math.inl
; File d:\metin2\metin2\client_source_clean\client_source_clean\source\userinterface\instancebasebattle.cpp
;	COMDAT ?NEW_GetRotationFromDestPixelPosition@CInstanceBase@@QAEMABUD3DXVECTOR3@@@Z
_TEXT	SEGMENT
$T1 = -24						; size = 12
_kPPosDir$ = -12					; size = 12
_kPPosCur$ = -12					; size = 12
_c_rkPPosDst$ = 8					; size = 4
?NEW_GetRotationFromDestPixelPosition@CInstanceBase@@QAEMABUD3DXVECTOR3@@@Z PROC ; CInstanceBase::NEW_GetRotationFromDestPixelPosition, COMDAT
; _this$ = ecx

; 106  : {

  00000	55		 push	 ebp
  00001	8b ec		 mov	 ebp, esp
  00003	83 ec 18	 sub	 esp, 24			; 00000018H

; 107  : 	TPixelPosition kPPosCur;
; 108  : 	NEW_GetPixelPosition(&kPPosCur);

  00006	8d 45 f4	 lea	 eax, DWORD PTR _kPPosCur$[ebp]
  00009	50		 push	 eax
  0000a	e8 00 00 00 00	 call	 ?NEW_GetPixelPosition@CInstanceBase@@QAEXPAUD3DXVECTOR3@@@Z ; CInstanceBase::NEW_GetPixelPosition
; File d:\metin2\metin2\client_source_clean\client_source_clean\extern\include\d3dx8math.inl

; 263  :     return D3DXVECTOR3(x - v.x, y - v.y, z - v.z);

  0000f	8b 45 08	 mov	 eax, DWORD PTR _c_rkPPosDst$[ebp]
  00012	f3 0f 10 40 08	 movss	 xmm0, DWORD PTR [eax+8]
  00017	f3 0f 10 10	 movss	 xmm2, DWORD PTR [eax]
  0001b	f3 0f 5c 45 fc	 subss	 xmm0, DWORD PTR _kPPosCur$[ebp+8]
  00020	f3 0f 10 48 04	 movss	 xmm1, DWORD PTR [eax+4]
  00025	f3 0f 5c 55 f4	 subss	 xmm2, DWORD PTR _kPPosCur$[ebp]
  0002a	f3 0f 5c 4d f8	 subss	 xmm1, DWORD PTR _kPPosCur$[ebp+4]

; 182  :     z = fz;

  0002f	f3 0f 11 45 f0	 movss	 DWORD PTR $T1[ebp+8], xmm0
; File d:\metin2\metin2\client_source_clean\client_source_clean\source\userinterface\instancebasebattle.cpp

; 111  : 	kPPosDir=c_rkPPosDst-kPPosCur;

  00034	8b 45 f0	 mov	 eax, DWORD PTR $T1[ebp+8]
  00037	89 45 fc	 mov	 DWORD PTR _kPPosDir$[ebp+8], eax

; 112  : 
; 113  : 	return NEW_GetRotationFromDirPixelPosition(kPPosDir);

  0003a	8d 45 f4	 lea	 eax, DWORD PTR _kPPosDir$[ebp]
  0003d	0f 14 d1	 unpcklps xmm2, xmm1
  00040	50		 push	 eax
  00041	66 0f d6 55 f4	 movq	 QWORD PTR _kPPosDir$[ebp], xmm2
  00046	e8 00 00 00 00	 call	 ?NEW_GetRotationFromDirPixelPosition@CInstanceBase@@QAEMABUD3DXVECTOR3@@@Z ; CInstanceBase::NEW_GetRotationFromDirPixelPosition

; 114  : }

  0004b	8b e5		 mov	 esp, ebp
  0004d	5d		 pop	 ebp
  0004e	c2 04 00	 ret	 4
?NEW_GetRotationFromDestPixelPosition@CInstanceBase@@QAEMABUD3DXVECTOR3@@@Z ENDP ; CInstanceBase::NEW_GetRotationFromDestPixelPosition
_TEXT	ENDS
; Function compile flags: /Ogtp
; File d:\metin2\metin2\client_source_clean\client_source_clean\source\userinterface\instancebasebattle.cpp
;	COMDAT ?NEW_GetRotationFromDestInstance@CInstanceBase@@QAEMAAV1@@Z
_TEXT	SEGMENT
_kPPosDst$ = -12					; size = 12
_rkInstDst$ = 8						; size = 4
?NEW_GetRotationFromDestInstance@CInstanceBase@@QAEMAAV1@@Z PROC ; CInstanceBase::NEW_GetRotationFromDestInstance, COMDAT
; _this$ = ecx

; 117  : {

  00000	55		 push	 ebp
  00001	8b ec		 mov	 ebp, esp
  00003	83 ec 0c	 sub	 esp, 12			; 0000000cH

; 118  : 	TPixelPosition kPPosDst;
; 119  : 	rkInstDst.NEW_GetPixelPosition(&kPPosDst);

  00006	8d 45 f4	 lea	 eax, DWORD PTR _kPPosDst$[ebp]
  00009	56		 push	 esi
  0000a	8b f1		 mov	 esi, ecx
  0000c	8b 4d 08	 mov	 ecx, DWORD PTR _rkInstDst$[ebp]
  0000f	50		 push	 eax
  00010	e8 00 00 00 00	 call	 ?NEW_GetPixelPosition@CInstanceBase@@QAEXPAUD3DXVECTOR3@@@Z ; CInstanceBase::NEW_GetPixelPosition

; 120  : 
; 121  : 	return NEW_GetRotationFromDestPixelPosition(kPPosDst);

  00015	8d 45 f4	 lea	 eax, DWORD PTR _kPPosDst$[ebp]
  00018	8b ce		 mov	 ecx, esi
  0001a	50		 push	 eax
  0001b	e8 00 00 00 00	 call	 ?NEW_GetRotationFromDestPixelPosition@CInstanceBase@@QAEMABUD3DXVECTOR3@@@Z ; CInstanceBase::NEW_GetRotationFromDestPixelPosition
  00020	5e		 pop	 esi

; 122  : }

  00021	8b e5		 mov	 esp, ebp
  00023	5d		 pop	 ebp
  00024	c2 04 00	 ret	 4
?NEW_GetRotationFromDestInstance@CInstanceBase@@QAEMAAV1@@Z ENDP ; CInstanceBase::NEW_GetRotationFromDestInstance
_TEXT	ENDS
; Function compile flags: /Ogtp
; File d:\metin2\metin2\client_source_clean\client_source_clean\source\userinterface\instancebasebattle.cpp
; File d:\metin2\metin2\client_source_clean\client_source_clean\extern\include\d3dx8math.inl
; File d:\metin2\metin2\client_source_clean\client_source_clean\source\userinterface\instancebasebattle.cpp
; File d:\metin2\metin2\client_source_clean\client_source_clean\extern\include\d3dx8math.inl
; File d:\metin2\metin2\client_source_clean\client_source_clean\source\userinterface\instancebasebattle.cpp
; File d:\metin2\metin2\client_source_clean\client_source_clean\extern\include\d3dx8math.inl
; File d:\metin2\metin2\client_source_clean\client_source_clean\source\userinterface\instancebasebattle.cpp
;	COMDAT ?NEW_GetRandomPositionInFanRange@CInstanceBase@@QAEXAAV1@PAUD3DXVECTOR3@@@Z
_TEXT	SEGMENT
_fRot$ = -100						; size = 4
_kMatRot$ = -96						; size = 64
_v3Pos$ = -28						; size = 12
_v3Src$ = -16						; size = 12
__$ArrayPad$ = -4					; size = 4
_rkInstTarget$ = 8					; size = 4
_pkPPosDst$ = 12					; size = 4
?NEW_GetRandomPositionInFanRange@CInstanceBase@@QAEXAAV1@PAUD3DXVECTOR3@@@Z PROC ; CInstanceBase::NEW_GetRandomPositionInFanRange, COMDAT
; _this$ = ecx

; 125  : {

  00000	55		 push	 ebp
  00001	8b ec		 mov	 ebp, esp
  00003	83 ec 68	 sub	 esp, 104		; 00000068H
  00006	a1 00 00 00 00	 mov	 eax, DWORD PTR ___security_cookie
  0000b	33 c5		 xor	 eax, ebp
  0000d	89 45 fc	 mov	 DWORD PTR __$ArrayPad$[ebp], eax
  00010	8b 45 08	 mov	 eax, DWORD PTR _rkInstTarget$[ebp]
  00013	56		 push	 esi
  00014	57		 push	 edi
  00015	8b 7d 0c	 mov	 edi, DWORD PTR _pkPPosDst$[ebp]
  00018	8b f1		 mov	 esi, ecx

; 126  : 	float fDstDirRot=NEW_GetRotationFromDestInstance(rkInstTarget);	

  0001a	50		 push	 eax
  0001b	e8 00 00 00 00	 call	 ?NEW_GetRotationFromDestInstance@CInstanceBase@@QAEMAAV1@@Z ; CInstanceBase::NEW_GetRotationFromDestInstance

; 127  : 
; 128  : 	float fRot=frandom(fDstDirRot-10.0f, fDstDirRot+10.0f);

  00020	0f 28 c8	 movaps	 xmm1, xmm0
  00023	83 ec 08	 sub	 esp, 8
  00026	f3 0f 58 0d 00
	00 00 00	 addss	 xmm1, DWORD PTR __real@41200000
  0002e	f3 0f 5c 05 00
	00 00 00	 subss	 xmm0, DWORD PTR __real@41200000
  00036	f3 0f 11 4c 24
	04		 movss	 DWORD PTR [esp+4], xmm1
  0003c	f3 0f 11 04 24	 movss	 DWORD PTR [esp], xmm0
  00041	e8 00 00 00 00	 call	 ?frandom@@YAMMM@Z	; frandom
  00046	d9 5d 9c	 fstp	 DWORD PTR _fRot$[ebp]

; 129  : 
; 130  : 	D3DXMATRIX kMatRot;
; 131  : 	D3DXMatrixRotationZ(&kMatRot, D3DXToRadian(-fRot));

  00049	f3 0f 10 45 9c	 movss	 xmm0, DWORD PTR _fRot$[ebp]
  0004e	8d 45 a0	 lea	 eax, DWORD PTR _kMatRot$[ebp]
  00051	0f 57 05 00 00
	00 00		 xorps	 xmm0, DWORD PTR __xmm@80000000800000008000000080000000
  00058	83 c4 04	 add	 esp, 4
  0005b	f3 0f 59 05 00
	00 00 00	 mulss	 xmm0, DWORD PTR __real@3c8efa35
  00063	f3 0f 11 04 24	 movss	 DWORD PTR [esp], xmm0
  00068	50		 push	 eax
  00069	e8 00 00 00 00	 call	 _D3DXMatrixRotationZ@8

; 135  : 	D3DXVec3TransformCoord(&v3Pos, &v3Src, &kMatRot);

  0006e	8d 45 a0	 lea	 eax, DWORD PTR _kMatRot$[ebp]
; File d:\metin2\metin2\client_source_clean\client_source_clean\extern\include\d3dx8math.inl

; 180  :     x = fx;

  00071	c7 45 f0 00 00
	00 00		 mov	 DWORD PTR _v3Src$[ebp], 0
; File d:\metin2\metin2\client_source_clean\client_source_clean\source\userinterface\instancebasebattle.cpp

; 135  : 	D3DXVec3TransformCoord(&v3Pos, &v3Src, &kMatRot);

  00078	50		 push	 eax
  00079	8d 45 f0	 lea	 eax, DWORD PTR _v3Src$[ebp]
; File d:\metin2\metin2\client_source_clean\client_source_clean\extern\include\d3dx8math.inl

; 181  :     y = fy;

  0007c	c7 45 f4 00 00
	fa 45		 mov	 DWORD PTR _v3Src$[ebp+4], 1174011904 ; 45fa0000H
; File d:\metin2\metin2\client_source_clean\client_source_clean\source\userinterface\instancebasebattle.cpp

; 135  : 	D3DXVec3TransformCoord(&v3Pos, &v3Src, &kMatRot);

  00083	50		 push	 eax
  00084	8d 45 e4	 lea	 eax, DWORD PTR _v3Pos$[ebp]
; File d:\metin2\metin2\client_source_clean\client_source_clean\extern\include\d3dx8math.inl

; 182  :     z = fz;

  00087	c7 45 f8 00 00
	00 00		 mov	 DWORD PTR _v3Src$[ebp+8], 0
; File d:\metin2\metin2\client_source_clean\client_source_clean\source\userinterface\instancebasebattle.cpp

; 135  : 	D3DXVec3TransformCoord(&v3Pos, &v3Src, &kMatRot);

  0008e	50		 push	 eax
  0008f	e8 00 00 00 00	 call	 _D3DXVec3TransformCoord@12

; 136  : 
; 137  : 	const TPixelPosition& c_rkPPosCur=NEW_GetCurPixelPositionRef();

  00094	8b ce		 mov	 ecx, esi
  00096	e8 00 00 00 00	 call	 ?NEW_GetCurPixelPositionRef@CInstanceBase@@IAEABUD3DXVECTOR3@@XZ ; CInstanceBase::NEW_GetCurPixelPositionRef

; 138  : 	//const TPixelPosition& c_rkPPosFront=rkInstTarget.NEW_GetCurPixelPositionRef();
; 139  : 
; 140  : 	pkPPosDst->x=c_rkPPosCur.x+v3Pos.x;

  0009b	f3 0f 10 00	 movss	 xmm0, DWORD PTR [eax]
  0009f	f3 0f 58 45 e4	 addss	 xmm0, DWORD PTR _v3Pos$[ebp]
  000a4	f3 0f 11 07	 movss	 DWORD PTR [edi], xmm0

; 141  : 	pkPPosDst->y=c_rkPPosCur.y+v3Pos.y;

  000a8	f3 0f 10 40 04	 movss	 xmm0, DWORD PTR [eax+4]
  000ad	f3 0f 58 45 e8	 addss	 xmm0, DWORD PTR _v3Pos$[ebp+4]
  000b2	f3 0f 11 47 04	 movss	 DWORD PTR [edi+4], xmm0

; 142  : 	pkPPosDst->z=__GetBackgroundHeight(c_rkPPosCur.x, c_rkPPosCur.y);

  000b7	f3 0f 10 48 04	 movss	 xmm1, DWORD PTR [eax+4]
  000bc	f3 0f 10 00	 movss	 xmm0, DWORD PTR [eax]
  000c0	e8 00 00 00 00	 call	 ?__GetBackgroundHeight@CInstanceBase@@KAMMM@Z ; CInstanceBase::__GetBackgroundHeight

; 143  : }

  000c5	8b 4d fc	 mov	 ecx, DWORD PTR __$ArrayPad$[ebp]
  000c8	f3 0f 11 47 08	 movss	 DWORD PTR [edi+8], xmm0
  000cd	33 cd		 xor	 ecx, ebp
  000cf	5f		 pop	 edi
  000d0	5e		 pop	 esi
  000d1	e8 00 00 00 00	 call	 @__security_check_cookie@4
  000d6	8b e5		 mov	 esp, ebp
  000d8	5d		 pop	 ebp
  000d9	c2 08 00	 ret	 8
?NEW_GetRandomPositionInFanRange@CInstanceBase@@QAEXAAV1@PAUD3DXVECTOR3@@@Z ENDP ; CInstanceBase::NEW_GetRandomPositionInFanRange
_TEXT	ENDS
; Function compile flags: /Ogtp
; File d:\metin2\metin2\client_source_clean\client_source_clean\source\userinterface\instancebasebattle.cpp
; File c:\program files (x86)\microsoft visual studio 12.0\vc\include\xtree
; File d:\metin2\metin2\client_source_clean\client_source_clean\source\userinterface\instancebasebattle.cpp
; File c:\program files (x86)\microsoft visual studio 12.0\vc\include\xtree
; File d:\metin2\metin2\client_source_clean\client_source_clean\source\userinterface\pythoncharactermanager.h
; File c:\program files (x86)\microsoft visual studio 12.0\vc\include\xtree
; File d:\metin2\metin2\client_source_clean\client_source_clean\source\userinterface\instancebasebattle.cpp
; File c:\program files (x86)\microsoft visual studio 12.0\vc\include\xtree
; File c:\program files (x86)\microsoft visual studio 12.0\vc\include\utility
; File c:\program files (x86)\microsoft visual studio 12.0\vc\include\xtree
; File c:\program files (x86)\microsoft visual studio 12.0\vc\include\utility
; File c:\program files (x86)\microsoft visual studio 12.0\vc\include\xtree
; File d:\metin2\metin2\client_source_clean\client_source_clean\source\userinterface\instancebasebattle.cpp
; File c:\program files (x86)\microsoft visual studio 12.0\vc\include\xtree
; File d:\metin2\metin2\client_source_clean\client_source_clean\source\userinterface\instancebasebattle.cpp
; File c:\program files (x86)\microsoft visual studio 12.0\vc\include\xtree
; File c:\program files (x86)\microsoft visual studio 12.0\vc\include\xmemory0
; File d:\metin2\metin2\client_source_clean\client_source_clean\source\userinterface\instancebasebattle.cpp
;	COMDAT ?NEW_GetFrontInstance@CInstanceBase@@QAE_NPAPAV1@M@Z
_TEXT	SEGMENT
$T2 = -56						; size = 8
$T3 = -48						; size = 8
_kMap_pkInstNear$ = -40					; size = 8
_fDstRot$1$ = -32					; size = 4
_fDistance$1$ = -28					; size = 4
_fEachInstDistance$1$ = -24				; size = 4
_rkChrMgr$1$ = -20					; size = 4
__$EHRec$ = -12						; size = 12
$T4 = 8							; size = 4
_ppoutTargetInstance$ = 8				; size = 4
?NEW_GetFrontInstance@CInstanceBase@@QAE_NPAPAV1@M@Z PROC ; CInstanceBase::NEW_GetFrontInstance, COMDAT
; _this$ = ecx
; _fDistance$ = xmm2s

; 146  : {

  00000	55		 push	 ebp
  00001	8b ec		 mov	 ebp, esp
  00003	6a ff		 push	 -1
  00005	68 00 00 00 00	 push	 __ehhandler$?NEW_GetFrontInstance@CInstanceBase@@QAE_NPAPAV1@M@Z
  0000a	64 a1 00 00 00
	00		 mov	 eax, DWORD PTR fs:0
  00010	50		 push	 eax
  00011	83 ec 30	 sub	 esp, 48			; 00000030H
  00014	53		 push	 ebx
  00015	56		 push	 esi
  00016	57		 push	 edi
  00017	a1 00 00 00 00	 mov	 eax, DWORD PTR ___security_cookie
  0001c	33 c5		 xor	 eax, ebp
  0001e	50		 push	 eax
  0001f	8d 45 f4	 lea	 eax, DWORD PTR __$EHRec$[ebp]
  00022	64 a3 00 00 00
	00		 mov	 DWORD PTR fs:0, eax
  00028	f3 0f 11 55 e4	 movss	 DWORD PTR _fDistance$1$[ebp], xmm2
  0002d	8b d9		 mov	 ebx, ecx

; 147  : 	const float HALF_FAN_ROT_MIN = 10.0f;
; 148  : 	const float HALF_FAN_ROT_MAX = 50.0f;
; 149  : 	const float HALF_FAN_ROT_MIN_DISTANCE = 1000.0f;
; 150  : 	const float RPM = (HALF_FAN_ROT_MAX-HALF_FAN_ROT_MIN)/HALF_FAN_ROT_MIN_DISTANCE;
; 151  : 
; 152  : 	float fDstRot=NEW_GetRotation();

  0002f	e8 00 00 00 00	 call	 ?NEW_GetRotation@CInstanceBase@@QAEMXZ ; CInstanceBase::NEW_GetRotation
  00034	f3 0f 11 45 e0	 movss	 DWORD PTR _fDstRot$1$[ebp], xmm0
; File c:\program files (x86)\microsoft visual studio 12.0\vc\include\xtree

; 569  : 		this->_Myhead = 0;

  00039	c7 45 d8 00 00
	00 00		 mov	 DWORD PTR _kMap_pkInstNear$[ebp], 0

; 570  : 		this->_Mysize = 0;

  00040	c7 45 dc 00 00
	00 00		 mov	 DWORD PTR _kMap_pkInstNear$[ebp+4], 0

; 618  : 		return (_Pnode);
; 619  : 		}
; 620  : 
; 621  : 	_Nodeptr _Myhead;	// pointer to head node
; 622  : 	size_type _Mysize;	// number of elements
; 623  : 	};
; 624  : 
; 625  : 		// TEMPLATE CLASS _Tree_alloc
; 626  : template<bool _Al_has_storage,
; 627  : 	class _Alloc_types>
; 628  : 	class _Tree_alloc
; 629  : 		: public _Tree_val<typename _Alloc_types::_Val_types>
; 630  : 	{	// base class for tree to hold allocator with storage
; 631  : public:
; 632  : 	typename _Alloc_types::_Alnod_type _Alnod;	// allocator object
; 633  : 
; 634  : 	typedef _Tree_alloc<_Al_has_storage, _Alloc_types> _Myt;
; 635  : 	typedef typename _Alloc_types::_Alloc _Alloc;
; 636  : 	typedef typename _Alloc_types::_Alnod_type _Alty;
; 637  : 	typedef typename _Alloc_types::_Node _Node;
; 638  : 	typedef typename _Alloc_types::_Nodeptr _Nodeptr;
; 639  : 
; 640  :  #if _ITERATOR_DEBUG_LEVEL == 0
; 641  : 	_Tree_alloc(const _Alloc& _Al = _Alloc())
; 642  : 		: _Alnod(_Al)
; 643  : 		{	// construct head node, allocator from _Al
; 644  : 		this->_Myhead = _Buyheadnode();
; 645  : 		}
; 646  : 
; 647  : 	~_Tree_alloc() _NOEXCEPT
; 648  : 		{	// destroy head node
; 649  : 		_Freeheadnode(this->_Myhead);
; 650  : 		}
; 651  : 
; 652  : 	void _Change_alloc(const _Alty& _Al)
; 653  : 		{	// replace old allocator
; 654  : 		this->_Alnod = _Al;
; 655  : 		}
; 656  : 
; 657  : 	void _Swap_alloc(_Myt& _Right)
; 658  : 		{	// swap allocators
; 659  : 		_Swap_adl(this->_Alnod, _Right._Alnod);
; 660  : 		}
; 661  : 
; 662  :  #else /* _ITERATOR_DEBUG_LEVEL == 0 */
; 663  : 	_Tree_alloc(const _Alloc& _Al = _Alloc())
; 664  : 		: _Alnod(_Al)
; 665  : 		{	// construct allocators from _Al
; 666  : 		this->_Myhead = _Buyheadnode();
; 667  : 		_TRY_BEGIN
; 668  : 		_Alloc_proxy();
; 669  : 		_CATCH_ALL
; 670  : 		_Freeheadnode(this->_Myhead);
; 671  : 		_RERAISE;
; 672  : 		_CATCH_END
; 673  : 		}
; 674  : 
; 675  : 	~_Tree_alloc() _NOEXCEPT
; 676  : 		{	// destroy proxy
; 677  : 		_Freeheadnode(this->_Myhead);
; 678  : 		_Free_proxy();
; 679  : 		}
; 680  : 
; 681  : 	void _Change_alloc(const _Alty& _Al)
; 682  : 		{	// replace old allocator
; 683  : 		_Free_proxy();
; 684  : 		this->_Alnod = _Al;
; 685  : 		_Alloc_proxy();
; 686  : 		}
; 687  : 
; 688  : 	void _Swap_alloc(_Myt& _Right)
; 689  : 		{	// swap allocators
; 690  : 		_Swap_adl(this->_Alnod, _Right._Alnod);
; 691  : 		_Swap_adl(this->_Myproxy, _Right._Myproxy);
; 692  : 		}
; 693  : 
; 694  : 	void _Alloc_proxy()
; 695  : 		{	// construct proxy from _Alnod
; 696  : 		typename _Alty::template rebind<_Container_proxy>::other
; 697  : 			_Alproxy(this->_Alnod);
; 698  : 		this->_Myproxy = _Alproxy.allocate(1);
; 699  : 		_Alproxy.construct(this->_Myproxy, _Container_proxy());
; 700  : 		this->_Myproxy->_Mycont = this;
; 701  : 		}
; 702  : 
; 703  : 	void _Free_proxy()
; 704  : 		{	// destroy proxy
; 705  : 		typename _Alty::template rebind<_Container_proxy>::other
; 706  : 			_Alproxy(this->_Alnod);
; 707  : 		this->_Orphan_all();
; 708  : 		_Alproxy.destroy(this->_Myproxy);
; 709  : 		_Alproxy.deallocate(this->_Myproxy, 1);
; 710  : 		this->_Myproxy = 0;
; 711  : 		}
; 712  :  #endif /* _ITERATOR_DEBUG_LEVEL == 0 */
; 713  : 
; 714  : 	_Nodeptr _Buyheadnode()
; 715  : 		{	// get head node using current allocator
; 716  : 		_Nodeptr _Pnode = this->_Alnod.allocate(1);
; 717  : 
; 718  : 		_TRY_BEGIN
; 719  : 		this->_Alnod.construct(
; 720  : 			_STD addressof(this->_Left(_Pnode)), _Pnode);
; 721  : 		this->_Alnod.construct(
; 722  : 			_STD addressof(this->_Parent(_Pnode)), _Pnode);
; 723  : 		this->_Alnod.construct(
; 724  : 			_STD addressof(this->_Right(_Pnode)), _Pnode);
; 725  : 		_CATCH_ALL
; 726  : 		this->_Alnod.deallocate(_Pnode, 1);
; 727  : 		_RERAISE;
; 728  : 		_CATCH_END
; 729  : 
; 730  : 		this->_Color(_Pnode) = this->_Black;
; 731  : 		this->_Isnil(_Pnode) = true;
; 732  : 		return (_Pnode);
; 733  : 		}
; 734  : 
; 735  : 	void _Freeheadnode(_Nodeptr _Pnode)
; 736  : 		{	// free head node using current allocator
; 737  : 		this->_Alnod.destroy(
; 738  : 			_STD addressof(this->_Left(_Pnode)));
; 739  : 		this->_Alnod.destroy(
; 740  : 			_STD addressof(this->_Parent(_Pnode)));
; 741  : 		this->_Alnod.destroy(
; 742  : 			_STD addressof(this->_Right(_Pnode)));
; 743  : 		this->_Alnod.deallocate(_Pnode, 1);
; 744  : 		}
; 745  : 
; 746  : 	_Alty& _Getal()
; 747  : 		{	// get reference to allocator
; 748  : 		return (this->_Alnod);
; 749  : 		}
; 750  : 
; 751  : 	const _Alty& _Getal() const
; 752  : 		{	// get reference to allocator
; 753  : 		return (this->_Alnod);
; 754  : 		}
; 755  : 	};
; 756  : 
; 757  : 		// TEMPLATE CLASS _Tree_alloc
; 758  : template<class _Alloc_types>
; 759  : 	class _Tree_alloc<false, _Alloc_types>
; 760  : 		: public _Tree_val<typename _Alloc_types::_Val_types>
; 761  : 	{	// base class for tree to hold allocator with no storage
; 762  : public:
; 763  : 	typedef _Tree_alloc<false, _Alloc_types> _Myt;
; 764  : 	typedef _Tree_val<typename _Alloc_types::_Val_types> _Mybase;
; 765  : 	typedef typename _Alloc_types::_Alloc _Alloc;
; 766  : 	typedef typename _Alloc_types::_Alnod_type _Alty;
; 767  : 	typedef typename _Alloc_types::_Node _Node;
; 768  : 	typedef typename _Alloc_types::_Nodeptr _Nodeptr;
; 769  : 
; 770  :  #if _ITERATOR_DEBUG_LEVEL == 0
; 771  : 	_Tree_alloc(const _Alloc& = _Alloc())
; 772  : 		{	// construct head node, allocator from _Al
; 773  : 		this->_Myhead = _Buyheadnode();

  00047	e8 00 00 00 00	 call	 ?_Buyheadnode@?$_Tree_alloc@$0A@U?$_Tree_base_types@U?$pair@$$CBMPAVCInstanceBase@@@std@@V?$allocator@U?$pair@$$CBMPAVCInstanceBase@@@std@@@2@@std@@@std@@QAEPAU?$_Tree_node@U?$pair@$$CBMPAVCInstanceBase@@@std@@PAX@2@XZ ; std::_Tree_alloc<0,std::_Tree_base_types<std::pair<float const ,CInstanceBase *>,std::allocator<std::pair<float const ,CInstanceBase *> > > >::_Buyheadnode
  0004c	8b d0		 mov	 edx, eax
  0004e	89 55 d8	 mov	 DWORD PTR _kMap_pkInstNear$[ebp], edx
; File d:\metin2\metin2\client_source_clean\client_source_clean\source\userinterface\instancebasebattle.cpp

; 154  : 	std::multimap<float, CInstanceBase*> kMap_pkInstNear;

  00051	c7 45 fc 00 00
	00 00		 mov	 DWORD PTR __$EHRec$[ebp+8], 0

; 155  : 	{
; 156  : 		CPythonCharacterManager& rkChrMgr=CPythonCharacterManager::Instance();

  00058	a1 00 00 00 00	 mov	 eax, DWORD PTR ?ms_singleton@?$CSingleton@VCPythonCharacterManager@@@@0PAVCPythonCharacterManager@@A ; CSingleton<CPythonCharacterManager>::ms_singleton
  0005d	89 45 ec	 mov	 DWORD PTR _rkChrMgr$1$[ebp], eax
; File c:\program files (x86)\microsoft visual studio 12.0\vc\include\xtree

; 589  : 		return ((_Nodepref)_Pnode->_Left);

  00060	8b 48 20	 mov	 ecx, DWORD PTR [eax+32]
; File d:\metin2\metin2\client_source_clean\client_source_clean\source\userinterface\pythoncharactermanager.h

; 151  : 				m_it = rhs.m_it;

  00063	8b 31		 mov	 esi, DWORD PTR [ecx]
; File c:\program files (x86)\microsoft visual studio 12.0\vc\include\xtree

; 336  : 		return (this->_Ptr == _Right._Ptr);

  00065	3b f1		 cmp	 esi, ecx
; File d:\metin2\metin2\client_source_clean\client_source_clean\source\userinterface\instancebasebattle.cpp

; 158  : 		for(i = rkChrMgr.CharacterInstanceBegin(); i!=rkChrMgr.CharacterInstanceEnd(); ++i)

  00067	0f 84 19 01 00
	00		 je	 $LN6@NEW_GetFro
  0006d	8d 49 00	 npad	 3
$LL71@NEW_GetFro:

; 159  : 		{
; 160  : 			CInstanceBase* pkInstEach=*i;

  00070	8b 7e 14	 mov	 edi, DWORD PTR [esi+20]

; 161  : 			if (pkInstEach==this)

  00073	3b fb		 cmp	 edi, ebx
  00075	0f 84 b8 00 00
	00		 je	 $LN7@NEW_GetFro

; 162  : 				continue;
; 163  : 
; 164  : 			if (!IsAttackableInstance(*pkInstEach))

  0007b	57		 push	 edi
  0007c	8b cb		 mov	 ecx, ebx
  0007e	e8 00 00 00 00	 call	 ?IsAttackableInstance@CInstanceBase@@QAE_NAAV1@@Z ; CInstanceBase::IsAttackableInstance
  00083	84 c0		 test	 al, al
  00085	0f 84 a5 00 00
	00		 je	 $LN257@NEW_GetFro

; 165  : 				continue;
; 166  : 
; 167  : 			if (NEW_GetDistanceFromDestInstance(*pkInstEach) > fDistance)

  0008b	57		 push	 edi
  0008c	8b cb		 mov	 ecx, ebx
  0008e	e8 00 00 00 00	 call	 ?NEW_GetDistanceFromDestInstance@CInstanceBase@@QAEMAAV1@@Z ; CInstanceBase::NEW_GetDistanceFromDestInstance
  00093	0f 2f 45 e4	 comiss	 xmm0, DWORD PTR _fDistance$1$[ebp]
  00097	0f 87 93 00 00
	00		 ja	 $LN257@NEW_GetFro

; 168  : 				continue;
; 169  : 
; 170  : 			float fEachInstDistance=min(NEW_GetDistanceFromDestInstance(*pkInstEach), HALF_FAN_ROT_MIN_DISTANCE);

  0009d	57		 push	 edi
  0009e	8b cb		 mov	 ecx, ebx
  000a0	e8 00 00 00 00	 call	 ?NEW_GetDistanceFromDestInstance@CInstanceBase@@QAEMAAV1@@Z ; CInstanceBase::NEW_GetDistanceFromDestInstance
  000a5	f3 0f 10 0d 00
	00 00 00	 movss	 xmm1, DWORD PTR __real@447a0000
  000ad	0f 2f c8	 comiss	 xmm1, xmm0
  000b0	76 0f		 jbe	 SHORT $LN11@NEW_GetFro
  000b2	57		 push	 edi
  000b3	8b cb		 mov	 ecx, ebx
  000b5	e8 00 00 00 00	 call	 ?NEW_GetDistanceFromDestInstance@CInstanceBase@@QAEMAAV1@@Z ; CInstanceBase::NEW_GetDistanceFromDestInstance
  000ba	f3 0f 11 45 e8	 movss	 DWORD PTR _fEachInstDistance$1$[ebp], xmm0
  000bf	eb 05		 jmp	 SHORT $LN12@NEW_GetFro
$LN11@NEW_GetFro:
  000c1	f3 0f 11 4d e8	 movss	 DWORD PTR _fEachInstDistance$1$[ebp], xmm1
$LN12@NEW_GetFro:

; 171  : 			float fEachInstDirRot=NEW_GetRotationFromDestInstance(*pkInstEach);

  000c6	57		 push	 edi
  000c7	8b cb		 mov	 ecx, ebx
  000c9	e8 00 00 00 00	 call	 ?NEW_GetRotationFromDestInstance@CInstanceBase@@QAEMAAV1@@Z ; CInstanceBase::NEW_GetRotationFromDestInstance

; 172  : 
; 173  : 			float fHalfFanRot=(HALF_FAN_ROT_MAX-HALF_FAN_ROT_MIN)-RPM*fEachInstDistance+HALF_FAN_ROT_MIN;

  000ce	f3 0f 10 15 00
	00 00 00	 movss	 xmm2, DWORD PTR __real@42200000
  000d6	0f 28 d8	 movaps	 xmm3, xmm0
  000d9	f3 0f 10 45 e8	 movss	 xmm0, DWORD PTR _fEachInstDistance$1$[ebp]

; 174  : 
; 175  : 			float fMinDstDirRot=fDstRot-fHalfFanRot;

  000de	f3 0f 10 65 e0	 movss	 xmm4, DWORD PTR _fDstRot$1$[ebp]
  000e3	0f 28 c8	 movaps	 xmm1, xmm0
  000e6	f3 0f 59 0d 00
	00 00 00	 mulss	 xmm1, DWORD PTR __real@3d23d70a
  000ee	f3 0f 5c d1	 subss	 xmm2, xmm1
  000f2	0f 28 cc	 movaps	 xmm1, xmm4
  000f5	f3 0f 58 15 00
	00 00 00	 addss	 xmm2, DWORD PTR __real@41200000
  000fd	f3 0f 5c ca	 subss	 xmm1, xmm2

; 176  : 			float fMaxDstDirRot=fDstRot+fHalfFanRot;
; 177  : 
; 178  : 			if (fEachInstDirRot>=fMinDstDirRot && fEachInstDirRot<=fMaxDstDirRot)

  00101	0f 2f d9	 comiss	 xmm3, xmm1
  00104	72 2a		 jb	 SHORT $LN257@NEW_GetFro
  00106	f3 0f 58 d4	 addss	 xmm2, xmm4
  0010a	0f 2f d3	 comiss	 xmm2, xmm3
  0010d	72 21		 jb	 SHORT $LN257@NEW_GetFro
; File c:\program files (x86)\microsoft visual studio 12.0\vc\include\xtree

; 1144 : 			_STD forward<value_type>(_Val), _Nil_obj));

  0010f	0f b6 05 00 00
	00 00		 movzx	 eax, BYTE PTR __Nil_obj
  00116	50		 push	 eax
  00117	8d 45 d0	 lea	 eax, DWORD PTR $T3[ebp]
; File c:\program files (x86)\microsoft visual studio 12.0\vc\include\utility

; 144  : 		{	// construct from moved values

  0011a	f3 0f 11 45 d0	 movss	 DWORD PTR $T3[ebp], xmm0
; File c:\program files (x86)\microsoft visual studio 12.0\vc\include\xtree

; 1144 : 			_STD forward<value_type>(_Val), _Nil_obj));

  0011f	50		 push	 eax
  00120	51		 push	 ecx
  00121	8d 45 c8	 lea	 eax, DWORD PTR $T2[ebp]
; File c:\program files (x86)\microsoft visual studio 12.0\vc\include\utility

; 144  : 		{	// construct from moved values

  00124	89 7d d4	 mov	 DWORD PTR $T3[ebp+4], edi
; File c:\program files (x86)\microsoft visual studio 12.0\vc\include\xtree

; 1144 : 			_STD forward<value_type>(_Val), _Nil_obj));

  00127	50		 push	 eax
  00128	8d 4d d8	 lea	 ecx, DWORD PTR _kMap_pkInstNear$[ebp]
  0012b	e8 00 00 00 00	 call	 ??$_Insert_nohint@U?$pair@$$CBMPAVCInstanceBase@@@std@@U_Nil@2@@?$_Tree@V?$_Tmap_traits@MPAVCInstanceBase@@U?$less@M@std@@V?$allocator@U?$pair@$$CBMPAVCInstanceBase@@@std@@@3@$00@std@@@std@@IAE?AU?$pair@V?$_Tree_iterator@V?$_Tree_val@U?$_Tree_simple_types@U?$pair@$$CBMPAVCInstanceBase@@@std@@@std@@@std@@@std@@_N@1@_N$$QAU?$pair@$$CBMPAVCInstanceBase@@@1@U_Nil@1@@Z ; std::_Tree<std::_Tmap_traits<float,CInstanceBase *,std::less<float>,std::allocator<std::pair<float const ,CInstanceBase *> >,1> >::_Insert_nohint<std::pair<float const ,CInstanceBase *>,std::_Nil>
$LN257@NEW_GetFro:
  00130	8b 45 ec	 mov	 eax, DWORD PTR _rkChrMgr$1$[ebp]
$LN7@NEW_GetFro:

; 60   : 		if (_Mytree::_Isnil(_Ptr))

  00133	80 7e 0d 00	 cmp	 BYTE PTR [esi+13], 0
  00137	75 41		 jne	 SHORT $LN246@NEW_GetFro

; 571  : 		}
; 572  : 
; 573  : 	enum _Redbl
; 574  : 		{	// colors for link to parent
; 575  : 		_Red, _Black};
; 576  : 
; 577  : 	static char& _Color(_Nodeptr _Pnode)
; 578  : 		{	// return reference to color in node
; 579  : 		return ((char&)_Pnode->_Color);
; 580  : 		}
; 581  : 
; 582  : 	static char& _Isnil(_Nodeptr _Pnode)
; 583  : 		{	// return reference to nil flag in node
; 584  : 		return ((char&)_Pnode->_Isnil);

  00139	8b 46 08	 mov	 eax, DWORD PTR [esi+8]

; 61   : 			;	// end() shouldn't be incremented, don't move
; 62   : 		else if (!_Mytree::_Isnil(_Mytree::_Right(_Ptr)))

  0013c	80 78 0d 00	 cmp	 BYTE PTR [eax+13], 0
  00140	75 1a		 jne	 SHORT $LN243@NEW_GetFro

; 63   : 			_Ptr = _Mytree::_Min(
; 64   : 				_Mytree::_Right(_Ptr));	// ==> smallest of right subtree

  00142	8b f0		 mov	 esi, eax

; 571  : 		}
; 572  : 
; 573  : 	enum _Redbl
; 574  : 		{	// colors for link to parent
; 575  : 		_Red, _Black};
; 576  : 
; 577  : 	static char& _Color(_Nodeptr _Pnode)
; 578  : 		{	// return reference to color in node
; 579  : 		return ((char&)_Pnode->_Color);
; 580  : 		}
; 581  : 
; 582  : 	static char& _Isnil(_Nodeptr _Pnode)
; 583  : 		{	// return reference to nil flag in node
; 584  : 		return ((char&)_Pnode->_Isnil);

  00144	8b 06		 mov	 eax, DWORD PTR [esi]

; 590  : 		}
; 591  : 
; 592  : 	static _Nodepref _Parent(_Nodeptr _Pnode)
; 593  : 		{	// return reference to parent pointer in node
; 594  : 		return ((_Nodepref)_Pnode->_Parent);
; 595  : 		}
; 596  : 
; 597  : 	static _Nodepref _Right(_Nodeptr _Pnode)
; 598  : 		{	// return reference to right pointer in node
; 599  : 		return ((_Nodepref)_Pnode->_Right);
; 600  : 		}
; 601  : 
; 602  : 	static reference _Myval(_Nodeptr _Pnode)
; 603  : 		{	// return reference to value in node
; 604  : 		return ((reference)_Pnode->_Myval);
; 605  : 		}
; 606  : 
; 607  : 	static _Nodeptr _Max(_Nodeptr _Pnode)
; 608  : 		{	// return rightmost node in subtree at _Pnode
; 609  : 		while (!_Isnil(_Right(_Pnode)))
; 610  : 			_Pnode = _Right(_Pnode);
; 611  : 		return (_Pnode);
; 612  : 		}
; 613  : 
; 614  : 	static _Nodeptr _Min(_Nodeptr _Pnode)
; 615  : 		{	// return leftmost node in subtree at _Pnode
; 616  : 		while (!_Isnil(_Left(_Pnode)))

  00146	80 78 0d 00	 cmp	 BYTE PTR [eax+13], 0
  0014a	75 2b		 jne	 SHORT $LN85@NEW_GetFro
  0014c	8d 64 24 00	 npad	 4
$LL86@NEW_GetFro:

; 617  : 			_Pnode = _Left(_Pnode);

  00150	8b f0		 mov	 esi, eax

; 571  : 		}
; 572  : 
; 573  : 	enum _Redbl
; 574  : 		{	// colors for link to parent
; 575  : 		_Red, _Black};
; 576  : 
; 577  : 	static char& _Color(_Nodeptr _Pnode)
; 578  : 		{	// return reference to color in node
; 579  : 		return ((char&)_Pnode->_Color);
; 580  : 		}
; 581  : 
; 582  : 	static char& _Isnil(_Nodeptr _Pnode)
; 583  : 		{	// return reference to nil flag in node
; 584  : 		return ((char&)_Pnode->_Isnil);

  00152	8b 06		 mov	 eax, DWORD PTR [esi]

; 590  : 		}
; 591  : 
; 592  : 	static _Nodepref _Parent(_Nodeptr _Pnode)
; 593  : 		{	// return reference to parent pointer in node
; 594  : 		return ((_Nodepref)_Pnode->_Parent);
; 595  : 		}
; 596  : 
; 597  : 	static _Nodepref _Right(_Nodeptr _Pnode)
; 598  : 		{	// return reference to right pointer in node
; 599  : 		return ((_Nodepref)_Pnode->_Right);
; 600  : 		}
; 601  : 
; 602  : 	static reference _Myval(_Nodeptr _Pnode)
; 603  : 		{	// return reference to value in node
; 604  : 		return ((reference)_Pnode->_Myval);
; 605  : 		}
; 606  : 
; 607  : 	static _Nodeptr _Max(_Nodeptr _Pnode)
; 608  : 		{	// return rightmost node in subtree at _Pnode
; 609  : 		while (!_Isnil(_Right(_Pnode)))
; 610  : 			_Pnode = _Right(_Pnode);
; 611  : 		return (_Pnode);
; 612  : 		}
; 613  : 
; 614  : 	static _Nodeptr _Min(_Nodeptr _Pnode)
; 615  : 		{	// return leftmost node in subtree at _Pnode
; 616  : 		while (!_Isnil(_Left(_Pnode)))

  00154	80 78 0d 00	 cmp	 BYTE PTR [eax+13], 0
  00158	74 f6		 je	 SHORT $LL86@NEW_GetFro

; 65   : 		else

  0015a	eb 1b		 jmp	 SHORT $LN85@NEW_GetFro
$LN243@NEW_GetFro:

; 66   : 			{	// climb looking for right subtree
; 67   : 			_Nodeptr _Pnode;
; 68   : 			while (!_Mytree::_Isnil(_Pnode = _Mytree::_Parent(_Ptr))
; 69   : 				&& _Ptr == _Mytree::_Right(_Pnode))

  0015c	8b 46 04	 mov	 eax, DWORD PTR [esi+4]
  0015f	80 78 0d 00	 cmp	 BYTE PTR [eax+13], 0
  00163	75 10		 jne	 SHORT $LN253@NEW_GetFro
$LL70@NEW_GetFro:
  00165	3b 70 08	 cmp	 esi, DWORD PTR [eax+8]
  00168	75 0b		 jne	 SHORT $LN253@NEW_GetFro

; 70   : 				_Ptr = _Pnode;	// ==> parent while right subtree

  0016a	8b f0		 mov	 esi, eax
  0016c	8b 40 04	 mov	 eax, DWORD PTR [eax+4]
  0016f	80 78 0d 00	 cmp	 BYTE PTR [eax+13], 0
  00173	74 f0		 je	 SHORT $LL70@NEW_GetFro
$LN253@NEW_GetFro:

; 71   : 			_Ptr = _Pnode;	// ==> parent (head if end())

  00175	8b f0		 mov	 esi, eax
$LN85@NEW_GetFro:
  00177	8b 45 ec	 mov	 eax, DWORD PTR _rkChrMgr$1$[ebp]
$LN246@NEW_GetFro:

; 336  : 		return (this->_Ptr == _Right._Ptr);

  0017a	3b 70 20	 cmp	 esi, DWORD PTR [eax+32]
; File d:\metin2\metin2\client_source_clean\client_source_clean\source\userinterface\instancebasebattle.cpp

; 158  : 		for(i = rkChrMgr.CharacterInstanceBegin(); i!=rkChrMgr.CharacterInstanceEnd(); ++i)

  0017d	0f 85 ed fe ff
	ff		 jne	 $LL71@NEW_GetFro
  00183	8b 55 d8	 mov	 edx, DWORD PTR _kMap_pkInstNear$[ebp]
$LN6@NEW_GetFro:
; File c:\program files (x86)\microsoft visual studio 12.0\vc\include\xtree

; 1282 : 		return (size() == 0);

  00186	83 7d dc 00	 cmp	 DWORD PTR _kMap_pkInstNear$[ebp+4], 0
; File d:\metin2\metin2\client_source_clean\client_source_clean\source\userinterface\instancebasebattle.cpp

; 183  : 	if (kMap_pkInstNear.empty())

  0018a	75 04		 jne	 SHORT $LN1@NEW_GetFro
  0018c	32 db		 xor	 bl, bl
  0018e	eb 0c		 jmp	 SHORT $LN14@NEW_GetFro
$LN1@NEW_GetFro:

; 184  : 		return false;
; 185  : 
; 186  : 	*ppoutTargetInstance = kMap_pkInstNear.begin()->second;

  00190	8b 02		 mov	 eax, DWORD PTR [edx]

; 188  : 	return true;

  00192	b3 01		 mov	 bl, 1
  00194	8b 48 14	 mov	 ecx, DWORD PTR [eax+20]
  00197	8b 45 08	 mov	 eax, DWORD PTR _ppoutTargetInstance$[ebp]
  0019a	89 08		 mov	 DWORD PTR [eax], ecx
$LN14@NEW_GetFro:
; File c:\program files (x86)\microsoft visual studio 12.0\vc\include\xtree

; 2230 : 		erase(begin(), end());

  0019c	52		 push	 edx
  0019d	ff 32		 push	 DWORD PTR [edx]
  0019f	8d 45 08	 lea	 eax, DWORD PTR $T4[ebp]
  001a2	50		 push	 eax
  001a3	8d 4d d8	 lea	 ecx, DWORD PTR _kMap_pkInstNear$[ebp]
  001a6	e8 00 00 00 00	 call	 ?erase@?$_Tree@V?$_Tmap_traits@MPAVCInstanceBase@@U?$less@M@std@@V?$allocator@U?$pair@$$CBMPAVCInstanceBase@@@std@@@3@$00@std@@@std@@QAE?AV?$_Tree_iterator@V?$_Tree_val@U?$_Tree_simple_types@U?$pair@$$CBMPAVCInstanceBase@@@std@@@std@@@std@@@2@V?$_Tree_const_iterator@V?$_Tree_val@U?$_Tree_simple_types@U?$pair@$$CBMPAVCInstanceBase@@@std@@@std@@@std@@@2@0@Z ; std::_Tree<std::_Tmap_traits<float,CInstanceBase *,std::less<float>,std::allocator<std::pair<float const ,CInstanceBase *> >,1> >::erase
; File c:\program files (x86)\microsoft visual studio 12.0\vc\include\xmemory0

; 573  : 		::operator delete(_Ptr);

  001ab	ff 75 d8	 push	 DWORD PTR _kMap_pkInstNear$[ebp]
  001ae	e8 00 00 00 00	 call	 ??3@YAXPAX@Z		; operator delete
  001b3	83 c4 04	 add	 esp, 4
; File d:\metin2\metin2\client_source_clean\client_source_clean\source\userinterface\instancebasebattle.cpp

; 188  : 	return true;

  001b6	8a c3		 mov	 al, bl

; 189  : }

  001b8	8b 4d f4	 mov	 ecx, DWORD PTR __$EHRec$[ebp]
  001bb	64 89 0d 00 00
	00 00		 mov	 DWORD PTR fs:0, ecx
  001c2	59		 pop	 ecx
  001c3	5f		 pop	 edi
  001c4	5e		 pop	 esi
  001c5	5b		 pop	 ebx
  001c6	8b e5		 mov	 esp, ebp
  001c8	5d		 pop	 ebp
  001c9	c2 04 00	 ret	 4
_TEXT	ENDS
;	COMDAT text$x
text$x	SEGMENT
__unwindfunclet$?NEW_GetFrontInstance@CInstanceBase@@QAE_NPAPAV1@M@Z$0:
  00000	8d 4d d8	 lea	 ecx, DWORD PTR _kMap_pkInstNear$[ebp]
  00003	e9 00 00 00 00	 jmp	 ??1?$multimap@MPAVCInstanceBase@@U?$less@M@std@@V?$allocator@U?$pair@$$CBMPAVCInstanceBase@@@std@@@3@@std@@QAE@XZ
__ehhandler$?NEW_GetFrontInstance@CInstanceBase@@QAE_NPAPAV1@M@Z:
  00008	8b 54 24 08	 mov	 edx, DWORD PTR [esp+8]
  0000c	8d 42 0c	 lea	 eax, DWORD PTR [edx+12]
  0000f	8b 4a c0	 mov	 ecx, DWORD PTR [edx-64]
  00012	33 c8		 xor	 ecx, eax
  00014	e8 00 00 00 00	 call	 @__security_check_cookie@4
  00019	b8 00 00 00 00	 mov	 eax, OFFSET __ehfuncinfo$?NEW_GetFrontInstance@CInstanceBase@@QAE_NPAPAV1@M@Z
  0001e	e9 00 00 00 00	 jmp	 ___CxxFrameHandler3
text$x	ENDS
?NEW_GetFrontInstance@CInstanceBase@@QAE_NPAPAV1@M@Z ENDP ; CInstanceBase::NEW_GetFrontInstance
; Function compile flags: /Ogtp
; File c:\program files (x86)\microsoft visual studio 12.0\vc\include\xtree
; File c:\program files (x86)\microsoft visual studio 12.0\vc\include\xmemory0
;	COMDAT ??1?$multimap@MPAVCInstanceBase@@U?$less@M@std@@V?$allocator@U?$pair@$$CBMPAVCInstanceBase@@@std@@@3@@std@@QAE@XZ
_TEXT	SEGMENT
$T1 = -4						; size = 4
??1?$multimap@MPAVCInstanceBase@@U?$less@M@std@@V?$allocator@U?$pair@$$CBMPAVCInstanceBase@@@std@@@3@@std@@QAE@XZ PROC ; std::multimap<float,CInstanceBase *,std::less<float>,std::allocator<std::pair<float const ,CInstanceBase *> > >::~multimap<float,CInstanceBase *,std::less<float>,std::allocator<std::pair<float const ,CInstanceBase *> > >, COMDAT
; _this$ = ecx
  00000	55		 push	 ebp
  00001	8b ec		 mov	 ebp, esp
  00003	51		 push	 ecx
  00004	56		 push	 esi
  00005	8b f1		 mov	 esi, ecx
; File c:\program files (x86)\microsoft visual studio 12.0\vc\include\xtree

; 2230 : 		erase(begin(), end());

  00007	8b 06		 mov	 eax, DWORD PTR [esi]
  00009	50		 push	 eax
  0000a	ff 30		 push	 DWORD PTR [eax]
  0000c	8d 45 fc	 lea	 eax, DWORD PTR $T1[ebp]
  0000f	50		 push	 eax
  00010	e8 00 00 00 00	 call	 ?erase@?$_Tree@V?$_Tmap_traits@MPAVCInstanceBase@@U?$less@M@std@@V?$allocator@U?$pair@$$CBMPAVCInstanceBase@@@std@@@3@$00@std@@@std@@QAE?AV?$_Tree_iterator@V?$_Tree_val@U?$_Tree_simple_types@U?$pair@$$CBMPAVCInstanceBase@@@std@@@std@@@std@@@2@V?$_Tree_const_iterator@V?$_Tree_val@U?$_Tree_simple_types@U?$pair@$$CBMPAVCInstanceBase@@@std@@@std@@@std@@@2@0@Z ; std::_Tree<std::_Tmap_traits<float,CInstanceBase *,std::less<float>,std::allocator<std::pair<float const ,CInstanceBase *> >,1> >::erase
; File c:\program files (x86)\microsoft visual studio 12.0\vc\include\xmemory0

; 573  : 		::operator delete(_Ptr);

  00015	ff 36		 push	 DWORD PTR [esi]
  00017	e8 00 00 00 00	 call	 ??3@YAXPAX@Z		; operator delete
  0001c	83 c4 04	 add	 esp, 4
  0001f	5e		 pop	 esi
  00020	8b e5		 mov	 esp, ebp
  00022	5d		 pop	 ebp
  00023	c3		 ret	 0
??1?$multimap@MPAVCInstanceBase@@U?$less@M@std@@V?$allocator@U?$pair@$$CBMPAVCInstanceBase@@@std@@@3@@std@@QAE@XZ ENDP ; std::multimap<float,CInstanceBase *,std::less<float>,std::allocator<std::pair<float const ,CInstanceBase *> > >::~multimap<float,CInstanceBase *,std::less<float>,std::allocator<std::pair<float const ,CInstanceBase *> > >
_TEXT	ENDS
; Function compile flags: /Ogtp
; File d:\metin2\metin2\client_source_clean\client_source_clean\source\userinterface\instancebasebattle.cpp
; File c:\program files (x86)\microsoft visual studio 12.0\vc\include\xtree
; File d:\metin2\metin2\client_source_clean\client_source_clean\source\userinterface\instancebasebattle.cpp
; File c:\program files (x86)\microsoft visual studio 12.0\vc\include\xtree
; File d:\metin2\metin2\client_source_clean\client_source_clean\source\userinterface\pythoncharactermanager.h
; File c:\program files (x86)\microsoft visual studio 12.0\vc\include\xtree
; File d:\metin2\metin2\client_source_clean\client_source_clean\source\userinterface\instancebasebattle.cpp
; File c:\program files (x86)\microsoft visual studio 12.0\vc\include\xtree
; File c:\program files (x86)\microsoft visual studio 12.0\vc\include\utility
; File c:\program files (x86)\microsoft visual studio 12.0\vc\include\xtree
; File c:\program files (x86)\microsoft visual studio 12.0\vc\include\utility
; File c:\program files (x86)\microsoft visual studio 12.0\vc\include\xtree
; File d:\metin2\metin2\client_source_clean\client_source_clean\source\userinterface\instancebasebattle.cpp
; File c:\program files (x86)\microsoft visual studio 12.0\vc\include\xtree
; File d:\metin2\metin2\client_source_clean\client_source_clean\source\userinterface\instancebasebattle.cpp
; File c:\program files (x86)\microsoft visual studio 12.0\vc\include\vector
; File d:\metin2\metin2\client_source_clean\client_source_clean\source\userinterface\instancebasebattle.cpp
; File c:\program files (x86)\microsoft visual studio 12.0\vc\include\vector
; File c:\program files (x86)\microsoft visual studio 12.0\vc\include\xmemory0
; File c:\program files (x86)\microsoft visual studio 12.0\vc\include\vector
; File c:\program files (x86)\microsoft visual studio 12.0\vc\include\xmemory0
; File c:\program files (x86)\microsoft visual studio 12.0\vc\include\vector
; File c:\program files (x86)\microsoft visual studio 12.0\vc\include\xtree
; File d:\metin2\metin2\client_source_clean\client_source_clean\source\userinterface\instancebasebattle.cpp
; File c:\program files (x86)\microsoft visual studio 12.0\vc\include\vector
; File c:\program files (x86)\microsoft visual studio 12.0\vc\include\xtree
; File c:\program files (x86)\microsoft visual studio 12.0\vc\include\vector
; File c:\program files (x86)\microsoft visual studio 12.0\vc\include\xtree
; File d:\metin2\metin2\client_source_clean\client_source_clean\source\userinterface\instancebasebattle.cpp
; File c:\program files (x86)\microsoft visual studio 12.0\vc\include\xtree
; File c:\program files (x86)\microsoft visual studio 12.0\vc\include\xmemory0
; File d:\metin2\metin2\client_source_clean\client_source_clean\source\userinterface\instancebasebattle.cpp
; File c:\program files (x86)\microsoft visual studio 12.0\vc\include\vector
; File d:\metin2\metin2\client_source_clean\client_source_clean\source\userinterface\instancebasebattle.cpp
;	COMDAT ?NEW_GetInstanceVectorInFanRange@CInstanceBase@@QAE_NMAAV1@PAV?$vector@PAVCInstanceBase@@V?$allocator@PAVCInstanceBase@@@std@@@std@@@Z
_TEXT	SEGMENT
$T2 = -48						; size = 8
$T3 = -40						; size = 8
_kMap_pkInstNear$ = -32					; size = 8
_fDstDirRot$1$ = -24					; size = 4
_fSkillDistance$1$ = -20				; size = 4
_fEachInstDistance$1$ = -16				; size = 4
__$EHRec$ = -12						; size = 12
__Count$1$ = 8						; size = 4
__Count$1$ = 8						; size = 4
_rkChrMgr$1$ = 8					; size = 4
$T4 = 8							; size = 4
_rkInstTarget$ = 8					; size = 4
_pkVct_pkInst$ = 12					; size = 4
?NEW_GetInstanceVectorInFanRange@CInstanceBase@@QAE_NMAAV1@PAV?$vector@PAVCInstanceBase@@V?$allocator@PAVCInstanceBase@@@std@@@std@@@Z PROC ; CInstanceBase::NEW_GetInstanceVectorInFanRange, COMDAT
; _this$ = ecx
; _fSkillDistance$ = xmm1s

; 193  : {

  00000	55		 push	 ebp
  00001	8b ec		 mov	 ebp, esp
  00003	6a ff		 push	 -1
  00005	68 00 00 00 00	 push	 __ehhandler$?NEW_GetInstanceVectorInFanRange@CInstanceBase@@QAE_NMAAV1@PAV?$vector@PAVCInstanceBase@@V?$allocator@PAVCInstanceBase@@@std@@@std@@@Z
  0000a	64 a1 00 00 00
	00		 mov	 eax, DWORD PTR fs:0
  00010	50		 push	 eax
  00011	83 ec 24	 sub	 esp, 36			; 00000024H
  00014	53		 push	 ebx
  00015	56		 push	 esi
  00016	57		 push	 edi
  00017	a1 00 00 00 00	 mov	 eax, DWORD PTR ___security_cookie
  0001c	33 c5		 xor	 eax, ebp
  0001e	50		 push	 eax
  0001f	8d 45 f4	 lea	 eax, DWORD PTR __$EHRec$[ebp]
  00022	64 a3 00 00 00
	00		 mov	 DWORD PTR fs:0, eax
  00028	f3 0f 11 4d ec	 movss	 DWORD PTR _fSkillDistance$1$[ebp], xmm1
  0002d	8b d9		 mov	 ebx, ecx

; 194  : 	const float HALF_FAN_ROT_MIN = 20.0f;
; 195  : 	const float HALF_FAN_ROT_MAX = 40.0f;
; 196  : 	const float HALF_FAN_ROT_MIN_DISTANCE = 1000.0f;
; 197  : 	const float RPM = (HALF_FAN_ROT_MAX-HALF_FAN_ROT_MIN)/HALF_FAN_ROT_MIN_DISTANCE;
; 198  : 
; 199  : 	float fDstDirRot=NEW_GetRotationFromDestInstance(rkInstTarget);

  0002f	ff 75 08	 push	 DWORD PTR _rkInstTarget$[ebp]
  00032	e8 00 00 00 00	 call	 ?NEW_GetRotationFromDestInstance@CInstanceBase@@QAEMAAV1@@Z ; CInstanceBase::NEW_GetRotationFromDestInstance
  00037	f3 0f 11 45 e8	 movss	 DWORD PTR _fDstDirRot$1$[ebp], xmm0
; File c:\program files (x86)\microsoft visual studio 12.0\vc\include\xtree

; 569  : 		this->_Myhead = 0;

  0003c	c7 45 e0 00 00
	00 00		 mov	 DWORD PTR _kMap_pkInstNear$[ebp], 0

; 570  : 		this->_Mysize = 0;

  00043	c7 45 e4 00 00
	00 00		 mov	 DWORD PTR _kMap_pkInstNear$[ebp+4], 0

; 618  : 		return (_Pnode);
; 619  : 		}
; 620  : 
; 621  : 	_Nodeptr _Myhead;	// pointer to head node
; 622  : 	size_type _Mysize;	// number of elements
; 623  : 	};
; 624  : 
; 625  : 		// TEMPLATE CLASS _Tree_alloc
; 626  : template<bool _Al_has_storage,
; 627  : 	class _Alloc_types>
; 628  : 	class _Tree_alloc
; 629  : 		: public _Tree_val<typename _Alloc_types::_Val_types>
; 630  : 	{	// base class for tree to hold allocator with storage
; 631  : public:
; 632  : 	typename _Alloc_types::_Alnod_type _Alnod;	// allocator object
; 633  : 
; 634  : 	typedef _Tree_alloc<_Al_has_storage, _Alloc_types> _Myt;
; 635  : 	typedef typename _Alloc_types::_Alloc _Alloc;
; 636  : 	typedef typename _Alloc_types::_Alnod_type _Alty;
; 637  : 	typedef typename _Alloc_types::_Node _Node;
; 638  : 	typedef typename _Alloc_types::_Nodeptr _Nodeptr;
; 639  : 
; 640  :  #if _ITERATOR_DEBUG_LEVEL == 0
; 641  : 	_Tree_alloc(const _Alloc& _Al = _Alloc())
; 642  : 		: _Alnod(_Al)
; 643  : 		{	// construct head node, allocator from _Al
; 644  : 		this->_Myhead = _Buyheadnode();
; 645  : 		}
; 646  : 
; 647  : 	~_Tree_alloc() _NOEXCEPT
; 648  : 		{	// destroy head node
; 649  : 		_Freeheadnode(this->_Myhead);
; 650  : 		}
; 651  : 
; 652  : 	void _Change_alloc(const _Alty& _Al)
; 653  : 		{	// replace old allocator
; 654  : 		this->_Alnod = _Al;
; 655  : 		}
; 656  : 
; 657  : 	void _Swap_alloc(_Myt& _Right)
; 658  : 		{	// swap allocators
; 659  : 		_Swap_adl(this->_Alnod, _Right._Alnod);
; 660  : 		}
; 661  : 
; 662  :  #else /* _ITERATOR_DEBUG_LEVEL == 0 */
; 663  : 	_Tree_alloc(const _Alloc& _Al = _Alloc())
; 664  : 		: _Alnod(_Al)
; 665  : 		{	// construct allocators from _Al
; 666  : 		this->_Myhead = _Buyheadnode();
; 667  : 		_TRY_BEGIN
; 668  : 		_Alloc_proxy();
; 669  : 		_CATCH_ALL
; 670  : 		_Freeheadnode(this->_Myhead);
; 671  : 		_RERAISE;
; 672  : 		_CATCH_END
; 673  : 		}
; 674  : 
; 675  : 	~_Tree_alloc() _NOEXCEPT
; 676  : 		{	// destroy proxy
; 677  : 		_Freeheadnode(this->_Myhead);
; 678  : 		_Free_proxy();
; 679  : 		}
; 680  : 
; 681  : 	void _Change_alloc(const _Alty& _Al)
; 682  : 		{	// replace old allocator
; 683  : 		_Free_proxy();
; 684  : 		this->_Alnod = _Al;
; 685  : 		_Alloc_proxy();
; 686  : 		}
; 687  : 
; 688  : 	void _Swap_alloc(_Myt& _Right)
; 689  : 		{	// swap allocators
; 690  : 		_Swap_adl(this->_Alnod, _Right._Alnod);
; 691  : 		_Swap_adl(this->_Myproxy, _Right._Myproxy);
; 692  : 		}
; 693  : 
; 694  : 	void _Alloc_proxy()
; 695  : 		{	// construct proxy from _Alnod
; 696  : 		typename _Alty::template rebind<_Container_proxy>::other
; 697  : 			_Alproxy(this->_Alnod);
; 698  : 		this->_Myproxy = _Alproxy.allocate(1);
; 699  : 		_Alproxy.construct(this->_Myproxy, _Container_proxy());
; 700  : 		this->_Myproxy->_Mycont = this;
; 701  : 		}
; 702  : 
; 703  : 	void _Free_proxy()
; 704  : 		{	// destroy proxy
; 705  : 		typename _Alty::template rebind<_Container_proxy>::other
; 706  : 			_Alproxy(this->_Alnod);
; 707  : 		this->_Orphan_all();
; 708  : 		_Alproxy.destroy(this->_Myproxy);
; 709  : 		_Alproxy.deallocate(this->_Myproxy, 1);
; 710  : 		this->_Myproxy = 0;
; 711  : 		}
; 712  :  #endif /* _ITERATOR_DEBUG_LEVEL == 0 */
; 713  : 
; 714  : 	_Nodeptr _Buyheadnode()
; 715  : 		{	// get head node using current allocator
; 716  : 		_Nodeptr _Pnode = this->_Alnod.allocate(1);
; 717  : 
; 718  : 		_TRY_BEGIN
; 719  : 		this->_Alnod.construct(
; 720  : 			_STD addressof(this->_Left(_Pnode)), _Pnode);
; 721  : 		this->_Alnod.construct(
; 722  : 			_STD addressof(this->_Parent(_Pnode)), _Pnode);
; 723  : 		this->_Alnod.construct(
; 724  : 			_STD addressof(this->_Right(_Pnode)), _Pnode);
; 725  : 		_CATCH_ALL
; 726  : 		this->_Alnod.deallocate(_Pnode, 1);
; 727  : 		_RERAISE;
; 728  : 		_CATCH_END
; 729  : 
; 730  : 		this->_Color(_Pnode) = this->_Black;
; 731  : 		this->_Isnil(_Pnode) = true;
; 732  : 		return (_Pnode);
; 733  : 		}
; 734  : 
; 735  : 	void _Freeheadnode(_Nodeptr _Pnode)
; 736  : 		{	// free head node using current allocator
; 737  : 		this->_Alnod.destroy(
; 738  : 			_STD addressof(this->_Left(_Pnode)));
; 739  : 		this->_Alnod.destroy(
; 740  : 			_STD addressof(this->_Parent(_Pnode)));
; 741  : 		this->_Alnod.destroy(
; 742  : 			_STD addressof(this->_Right(_Pnode)));
; 743  : 		this->_Alnod.deallocate(_Pnode, 1);
; 744  : 		}
; 745  : 
; 746  : 	_Alty& _Getal()
; 747  : 		{	// get reference to allocator
; 748  : 		return (this->_Alnod);
; 749  : 		}
; 750  : 
; 751  : 	const _Alty& _Getal() const
; 752  : 		{	// get reference to allocator
; 753  : 		return (this->_Alnod);
; 754  : 		}
; 755  : 	};
; 756  : 
; 757  : 		// TEMPLATE CLASS _Tree_alloc
; 758  : template<class _Alloc_types>
; 759  : 	class _Tree_alloc<false, _Alloc_types>
; 760  : 		: public _Tree_val<typename _Alloc_types::_Val_types>
; 761  : 	{	// base class for tree to hold allocator with no storage
; 762  : public:
; 763  : 	typedef _Tree_alloc<false, _Alloc_types> _Myt;
; 764  : 	typedef _Tree_val<typename _Alloc_types::_Val_types> _Mybase;
; 765  : 	typedef typename _Alloc_types::_Alloc _Alloc;
; 766  : 	typedef typename _Alloc_types::_Alnod_type _Alty;
; 767  : 	typedef typename _Alloc_types::_Node _Node;
; 768  : 	typedef typename _Alloc_types::_Nodeptr _Nodeptr;
; 769  : 
; 770  :  #if _ITERATOR_DEBUG_LEVEL == 0
; 771  : 	_Tree_alloc(const _Alloc& = _Alloc())
; 772  : 		{	// construct head node, allocator from _Al
; 773  : 		this->_Myhead = _Buyheadnode();

  0004a	e8 00 00 00 00	 call	 ?_Buyheadnode@?$_Tree_alloc@$0A@U?$_Tree_base_types@U?$pair@$$CBMPAVCInstanceBase@@@std@@V?$allocator@U?$pair@$$CBMPAVCInstanceBase@@@std@@@2@@std@@@std@@QAEPAU?$_Tree_node@U?$pair@$$CBMPAVCInstanceBase@@@std@@PAX@2@XZ ; std::_Tree_alloc<0,std::_Tree_base_types<std::pair<float const ,CInstanceBase *>,std::allocator<std::pair<float const ,CInstanceBase *> > > >::_Buyheadnode
  0004f	89 45 e0	 mov	 DWORD PTR _kMap_pkInstNear$[ebp], eax
; File d:\metin2\metin2\client_source_clean\client_source_clean\source\userinterface\instancebasebattle.cpp

; 202  : 	std::multimap<float, CInstanceBase*> kMap_pkInstNear;

  00052	c7 45 fc 00 00
	00 00		 mov	 DWORD PTR __$EHRec$[ebp+8], 0

; 203  : 	{
; 204  : 		CPythonCharacterManager& rkChrMgr=CPythonCharacterManager::Instance();

  00059	8b 0d 00 00 00
	00		 mov	 ecx, DWORD PTR ?ms_singleton@?$CSingleton@VCPythonCharacterManager@@@@0PAVCPythonCharacterManager@@A ; CSingleton<CPythonCharacterManager>::ms_singleton
  0005f	89 4d 08	 mov	 DWORD PTR _rkChrMgr$1$[ebp], ecx
; File c:\program files (x86)\microsoft visual studio 12.0\vc\include\xtree

; 589  : 		return ((_Nodepref)_Pnode->_Left);

  00062	8b 41 20	 mov	 eax, DWORD PTR [ecx+32]
; File d:\metin2\metin2\client_source_clean\client_source_clean\source\userinterface\pythoncharactermanager.h

; 151  : 				m_it = rhs.m_it;

  00065	8b 30		 mov	 esi, DWORD PTR [eax]
; File c:\program files (x86)\microsoft visual studio 12.0\vc\include\xtree

; 336  : 		return (this->_Ptr == _Right._Ptr);

  00067	3b f0		 cmp	 esi, eax
; File d:\metin2\metin2\client_source_clean\client_source_clean\source\userinterface\instancebasebattle.cpp

; 206  : 		for(i = rkChrMgr.CharacterInstanceBegin(); i!=rkChrMgr.CharacterInstanceEnd(); ++i)

  00069	0f 84 21 01 00
	00		 je	 $LN9@NEW_GetIns
  0006f	90		 npad	 1
$LL74@NEW_GetIns:

; 207  : 		{
; 208  : 			CInstanceBase* pkInstEach=*i;

  00070	8b 7e 14	 mov	 edi, DWORD PTR [esi+20]

; 209  : 			if (pkInstEach==this)

  00073	3b fb		 cmp	 edi, ebx
  00075	0f 84 cb 00 00
	00		 je	 $LN10@NEW_GetIns

; 210  : 				continue;
; 211  : 
; 212  : 			// 2004.07.25.myevan -   
; 213  : 			if (!IsAttackableInstance(*pkInstEach))

  0007b	57		 push	 edi
  0007c	8b cb		 mov	 ecx, ebx
  0007e	e8 00 00 00 00	 call	 ?IsAttackableInstance@CInstanceBase@@QAE_NAAV1@@Z ; CInstanceBase::IsAttackableInstance
  00083	84 c0		 test	 al, al
  00085	0f 84 b8 00 00
	00		 je	 $LN473@NEW_GetIns

; 214  : 				continue;
; 215  : 
; 216  : 			// 2004.07.21.levites -    
; 217  : 			if (m_GraphicThingInstance.IsClickableDistanceDestInstance(pkInstEach->m_GraphicThingInstance, fSkillDistance))

  0008b	f3 0f 10 45 ec	 movss	 xmm0, DWORD PTR _fSkillDistance$1$[ebp]
  00090	8d 87 d4 01 00
	00		 lea	 eax, DWORD PTR [edi+468]
  00096	51		 push	 ecx
  00097	f3 0f 11 04 24	 movss	 DWORD PTR [esp], xmm0
  0009c	8d 8b d4 01 00
	00		 lea	 ecx, DWORD PTR [ebx+468]
  000a2	50		 push	 eax
  000a3	e8 00 00 00 00	 call	 ?IsClickableDistanceDestInstance@CActorInstance@@QAEHAAV1@M@Z ; CActorInstance::IsClickableDistanceDestInstance
  000a8	85 c0		 test	 eax, eax
  000aa	0f 84 93 00 00
	00		 je	 $LN473@NEW_GetIns

; 218  : 			{
; 219  : 				float fEachInstDistance=min(NEW_GetDistanceFromDestInstance(*pkInstEach), HALF_FAN_ROT_MIN_DISTANCE);

  000b0	57		 push	 edi
  000b1	8b cb		 mov	 ecx, ebx
  000b3	e8 00 00 00 00	 call	 ?NEW_GetDistanceFromDestInstance@CInstanceBase@@QAEMAAV1@@Z ; CInstanceBase::NEW_GetDistanceFromDestInstance
  000b8	f3 0f 10 0d 00
	00 00 00	 movss	 xmm1, DWORD PTR __real@447a0000
  000c0	0f 2f c8	 comiss	 xmm1, xmm0
  000c3	76 0f		 jbe	 SHORT $LN14@NEW_GetIns
  000c5	57		 push	 edi
  000c6	8b cb		 mov	 ecx, ebx
  000c8	e8 00 00 00 00	 call	 ?NEW_GetDistanceFromDestInstance@CInstanceBase@@QAEMAAV1@@Z ; CInstanceBase::NEW_GetDistanceFromDestInstance
  000cd	f3 0f 11 45 f0	 movss	 DWORD PTR _fEachInstDistance$1$[ebp], xmm0
  000d2	eb 05		 jmp	 SHORT $LN15@NEW_GetIns
$LN14@NEW_GetIns:
  000d4	f3 0f 11 4d f0	 movss	 DWORD PTR _fEachInstDistance$1$[ebp], xmm1
$LN15@NEW_GetIns:

; 220  : 				float fEachInstDirRot=NEW_GetRotationFromDestInstance(*pkInstEach);

  000d9	57		 push	 edi
  000da	8b cb		 mov	 ecx, ebx
  000dc	e8 00 00 00 00	 call	 ?NEW_GetRotationFromDestInstance@CInstanceBase@@QAEMAAV1@@Z ; CInstanceBase::NEW_GetRotationFromDestInstance

; 221  : 
; 222  : 				float fHalfFanRot=(HALF_FAN_ROT_MAX-HALF_FAN_ROT_MIN)-RPM*fEachInstDistance+HALF_FAN_ROT_MIN;

  000e1	f3 0f 10 15 00
	00 00 00	 movss	 xmm2, DWORD PTR __real@41a00000
  000e9	0f 28 d8	 movaps	 xmm3, xmm0
  000ec	f3 0f 10 45 f0	 movss	 xmm0, DWORD PTR _fEachInstDistance$1$[ebp]

; 223  : 
; 224  : 				float fMinDstDirRot=fDstDirRot-fHalfFanRot;

  000f1	f3 0f 10 65 e8	 movss	 xmm4, DWORD PTR _fDstDirRot$1$[ebp]
  000f6	0f 28 c8	 movaps	 xmm1, xmm0
  000f9	f3 0f 59 0d 00
	00 00 00	 mulss	 xmm1, DWORD PTR __real@3ca3d70a
  00101	f3 0f 5c d1	 subss	 xmm2, xmm1
  00105	0f 28 cc	 movaps	 xmm1, xmm4
  00108	f3 0f 58 15 00
	00 00 00	 addss	 xmm2, DWORD PTR __real@41a00000
  00110	f3 0f 5c ca	 subss	 xmm1, xmm2

; 225  : 				float fMaxDstDirRot=fDstDirRot+fHalfFanRot;
; 226  : 
; 227  : 				if (fEachInstDirRot>=fMinDstDirRot && fEachInstDirRot<=fMaxDstDirRot)

  00114	0f 2f d9	 comiss	 xmm3, xmm1
  00117	72 2a		 jb	 SHORT $LN473@NEW_GetIns
  00119	f3 0f 58 d4	 addss	 xmm2, xmm4
  0011d	0f 2f d3	 comiss	 xmm2, xmm3
  00120	72 21		 jb	 SHORT $LN473@NEW_GetIns
; File c:\program files (x86)\microsoft visual studio 12.0\vc\include\xtree

; 1144 : 			_STD forward<value_type>(_Val), _Nil_obj));

  00122	0f b6 05 00 00
	00 00		 movzx	 eax, BYTE PTR __Nil_obj
  00129	50		 push	 eax
  0012a	8d 45 d8	 lea	 eax, DWORD PTR $T3[ebp]
; File c:\program files (x86)\microsoft visual studio 12.0\vc\include\utility

; 144  : 		{	// construct from moved values

  0012d	f3 0f 11 45 d8	 movss	 DWORD PTR $T3[ebp], xmm0
; File c:\program files (x86)\microsoft visual studio 12.0\vc\include\xtree

; 1144 : 			_STD forward<value_type>(_Val), _Nil_obj));

  00132	50		 push	 eax
  00133	51		 push	 ecx
  00134	8d 45 d0	 lea	 eax, DWORD PTR $T2[ebp]
; File c:\program files (x86)\microsoft visual studio 12.0\vc\include\utility

; 144  : 		{	// construct from moved values

  00137	89 7d dc	 mov	 DWORD PTR $T3[ebp+4], edi
; File c:\program files (x86)\microsoft visual studio 12.0\vc\include\xtree

; 1144 : 			_STD forward<value_type>(_Val), _Nil_obj));

  0013a	50		 push	 eax
  0013b	8d 4d e0	 lea	 ecx, DWORD PTR _kMap_pkInstNear$[ebp]
  0013e	e8 00 00 00 00	 call	 ??$_Insert_nohint@U?$pair@$$CBMPAVCInstanceBase@@@std@@U_Nil@2@@?$_Tree@V?$_Tmap_traits@MPAVCInstanceBase@@U?$less@M@std@@V?$allocator@U?$pair@$$CBMPAVCInstanceBase@@@std@@@3@$00@std@@@std@@IAE?AU?$pair@V?$_Tree_iterator@V?$_Tree_val@U?$_Tree_simple_types@U?$pair@$$CBMPAVCInstanceBase@@@std@@@std@@@std@@@std@@_N@1@_N$$QAU?$pair@$$CBMPAVCInstanceBase@@@1@U_Nil@1@@Z ; std::_Tree<std::_Tmap_traits<float,CInstanceBase *,std::less<float>,std::allocator<std::pair<float const ,CInstanceBase *> >,1> >::_Insert_nohint<std::pair<float const ,CInstanceBase *>,std::_Nil>
$LN473@NEW_GetIns:
  00143	8b 4d 08	 mov	 ecx, DWORD PTR _rkChrMgr$1$[ebp]
$LN10@NEW_GetIns:

; 60   : 		if (_Mytree::_Isnil(_Ptr))

  00146	80 7e 0d 00	 cmp	 BYTE PTR [esi+13], 0
  0014a	75 3b		 jne	 SHORT $LN450@NEW_GetIns

; 571  : 		}
; 572  : 
; 573  : 	enum _Redbl
; 574  : 		{	// colors for link to parent
; 575  : 		_Red, _Black};
; 576  : 
; 577  : 	static char& _Color(_Nodeptr _Pnode)
; 578  : 		{	// return reference to color in node
; 579  : 		return ((char&)_Pnode->_Color);
; 580  : 		}
; 581  : 
; 582  : 	static char& _Isnil(_Nodeptr _Pnode)
; 583  : 		{	// return reference to nil flag in node
; 584  : 		return ((char&)_Pnode->_Isnil);

  0014c	8b 46 08	 mov	 eax, DWORD PTR [esi+8]

; 61   : 			;	// end() shouldn't be incremented, don't move
; 62   : 		else if (!_Mytree::_Isnil(_Mytree::_Right(_Ptr)))

  0014f	80 78 0d 00	 cmp	 BYTE PTR [eax+13], 0
  00153	75 17		 jne	 SHORT $LN442@NEW_GetIns

; 63   : 			_Ptr = _Mytree::_Min(
; 64   : 				_Mytree::_Right(_Ptr));	// ==> smallest of right subtree

  00155	8b f0		 mov	 esi, eax

; 571  : 		}
; 572  : 
; 573  : 	enum _Redbl
; 574  : 		{	// colors for link to parent
; 575  : 		_Red, _Black};
; 576  : 
; 577  : 	static char& _Color(_Nodeptr _Pnode)
; 578  : 		{	// return reference to color in node
; 579  : 		return ((char&)_Pnode->_Color);
; 580  : 		}
; 581  : 
; 582  : 	static char& _Isnil(_Nodeptr _Pnode)
; 583  : 		{	// return reference to nil flag in node
; 584  : 		return ((char&)_Pnode->_Isnil);

  00157	8b 06		 mov	 eax, DWORD PTR [esi]

; 590  : 		}
; 591  : 
; 592  : 	static _Nodepref _Parent(_Nodeptr _Pnode)
; 593  : 		{	// return reference to parent pointer in node
; 594  : 		return ((_Nodepref)_Pnode->_Parent);
; 595  : 		}
; 596  : 
; 597  : 	static _Nodepref _Right(_Nodeptr _Pnode)
; 598  : 		{	// return reference to right pointer in node
; 599  : 		return ((_Nodepref)_Pnode->_Right);
; 600  : 		}
; 601  : 
; 602  : 	static reference _Myval(_Nodeptr _Pnode)
; 603  : 		{	// return reference to value in node
; 604  : 		return ((reference)_Pnode->_Myval);
; 605  : 		}
; 606  : 
; 607  : 	static _Nodeptr _Max(_Nodeptr _Pnode)
; 608  : 		{	// return rightmost node in subtree at _Pnode
; 609  : 		while (!_Isnil(_Right(_Pnode)))
; 610  : 			_Pnode = _Right(_Pnode);
; 611  : 		return (_Pnode);
; 612  : 		}
; 613  : 
; 614  : 	static _Nodeptr _Min(_Nodeptr _Pnode)
; 615  : 		{	// return leftmost node in subtree at _Pnode
; 616  : 		while (!_Isnil(_Left(_Pnode)))

  00159	80 78 0d 00	 cmp	 BYTE PTR [eax+13], 0
  0015d	75 28		 jne	 SHORT $LN450@NEW_GetIns
  0015f	90		 npad	 1
$LL89@NEW_GetIns:

; 617  : 			_Pnode = _Left(_Pnode);

  00160	8b f0		 mov	 esi, eax

; 571  : 		}
; 572  : 
; 573  : 	enum _Redbl
; 574  : 		{	// colors for link to parent
; 575  : 		_Red, _Black};
; 576  : 
; 577  : 	static char& _Color(_Nodeptr _Pnode)
; 578  : 		{	// return reference to color in node
; 579  : 		return ((char&)_Pnode->_Color);
; 580  : 		}
; 581  : 
; 582  : 	static char& _Isnil(_Nodeptr _Pnode)
; 583  : 		{	// return reference to nil flag in node
; 584  : 		return ((char&)_Pnode->_Isnil);

  00162	8b 06		 mov	 eax, DWORD PTR [esi]

; 590  : 		}
; 591  : 
; 592  : 	static _Nodepref _Parent(_Nodeptr _Pnode)
; 593  : 		{	// return reference to parent pointer in node
; 594  : 		return ((_Nodepref)_Pnode->_Parent);
; 595  : 		}
; 596  : 
; 597  : 	static _Nodepref _Right(_Nodeptr _Pnode)
; 598  : 		{	// return reference to right pointer in node
; 599  : 		return ((_Nodepref)_Pnode->_Right);
; 600  : 		}
; 601  : 
; 602  : 	static reference _Myval(_Nodeptr _Pnode)
; 603  : 		{	// return reference to value in node
; 604  : 		return ((reference)_Pnode->_Myval);
; 605  : 		}
; 606  : 
; 607  : 	static _Nodeptr _Max(_Nodeptr _Pnode)
; 608  : 		{	// return rightmost node in subtree at _Pnode
; 609  : 		while (!_Isnil(_Right(_Pnode)))
; 610  : 			_Pnode = _Right(_Pnode);
; 611  : 		return (_Pnode);
; 612  : 		}
; 613  : 
; 614  : 	static _Nodeptr _Min(_Nodeptr _Pnode)
; 615  : 		{	// return leftmost node in subtree at _Pnode
; 616  : 		while (!_Isnil(_Left(_Pnode)))

  00164	80 78 0d 00	 cmp	 BYTE PTR [eax+13], 0
  00168	74 f6		 je	 SHORT $LL89@NEW_GetIns

; 65   : 		else

  0016a	eb 1b		 jmp	 SHORT $LN450@NEW_GetIns
$LN442@NEW_GetIns:

; 66   : 			{	// climb looking for right subtree
; 67   : 			_Nodeptr _Pnode;
; 68   : 			while (!_Mytree::_Isnil(_Pnode = _Mytree::_Parent(_Ptr))
; 69   : 				&& _Ptr == _Mytree::_Right(_Pnode))

  0016c	8b 46 04	 mov	 eax, DWORD PTR [esi+4]
  0016f	80 78 0d 00	 cmp	 BYTE PTR [eax+13], 0
  00173	75 10		 jne	 SHORT $LN468@NEW_GetIns
$LL73@NEW_GetIns:
  00175	3b 70 08	 cmp	 esi, DWORD PTR [eax+8]
  00178	75 0b		 jne	 SHORT $LN468@NEW_GetIns

; 70   : 				_Ptr = _Pnode;	// ==> parent while right subtree

  0017a	8b f0		 mov	 esi, eax
  0017c	8b 40 04	 mov	 eax, DWORD PTR [eax+4]
  0017f	80 78 0d 00	 cmp	 BYTE PTR [eax+13], 0
  00183	74 f0		 je	 SHORT $LL73@NEW_GetIns
$LN468@NEW_GetIns:

; 71   : 			_Ptr = _Pnode;	// ==> parent (head if end())

  00185	8b f0		 mov	 esi, eax
$LN450@NEW_GetIns:

; 336  : 		return (this->_Ptr == _Right._Ptr);

  00187	3b 71 20	 cmp	 esi, DWORD PTR [ecx+32]
; File d:\metin2\metin2\client_source_clean\client_source_clean\source\userinterface\instancebasebattle.cpp

; 206  : 		for(i = rkChrMgr.CharacterInstanceBegin(); i!=rkChrMgr.CharacterInstanceEnd(); ++i)

  0018a	0f 85 e0 fe ff
	ff		 jne	 $LL74@NEW_GetIns
$LN9@NEW_GetIns:

; 235  : 		for (i=kMap_pkInstNear.begin(); i!=kMap_pkInstNear.end(); ++i)

  00190	8b 45 e0	 mov	 eax, DWORD PTR _kMap_pkInstNear$[ebp]
  00193	8b 7d 0c	 mov	 edi, DWORD PTR _pkVct_pkInst$[ebp]
  00196	8b 30		 mov	 esi, DWORD PTR [eax]
; File c:\program files (x86)\microsoft visual studio 12.0\vc\include\xtree

; 336  : 		return (this->_Ptr == _Right._Ptr);

  00198	3b f0		 cmp	 esi, eax
; File d:\metin2\metin2\client_source_clean\client_source_clean\source\userinterface\instancebasebattle.cpp

; 235  : 		for (i=kMap_pkInstNear.begin(); i!=kMap_pkInstNear.end(); ++i)

  0019a	0f 84 2b 01 00
	00		 je	 $LN467@NEW_GetIns
$LL186@NEW_GetIns:
; File c:\program files (x86)\microsoft visual studio 12.0\vc\include\vector

; 1583 : 		return (_Ptr < this->_Mylast && this->_Myfirst <= _Ptr);

  001a0	8b 4f 04	 mov	 ecx, DWORD PTR [edi+4]
; File d:\metin2\metin2\client_source_clean\client_source_clean\source\userinterface\instancebasebattle.cpp

; 236  : 			pkVct_pkInst->push_back(i->second);

  001a3	8d 5e 14	 lea	 ebx, DWORD PTR [esi+20]
; File c:\program files (x86)\microsoft visual studio 12.0\vc\include\vector

; 1583 : 		return (_Ptr < this->_Mylast && this->_Myfirst <= _Ptr);

  001a6	3b d9		 cmp	 ebx, ecx
  001a8	73 6e		 jae	 SHORT $LN245@NEW_GetIns
  001aa	8b 07		 mov	 eax, DWORD PTR [edi]
  001ac	3b c3		 cmp	 eax, ebx
  001ae	77 68		 ja	 SHORT $LN245@NEW_GetIns

; 1159 : 		}
; 1160 : 
; 1161 : 	_Alloc get_allocator() const _NOEXCEPT
; 1162 : 		{	// return allocator object for values
; 1163 : 		return (this->_Getal());
; 1164 : 		}
; 1165 : 
; 1166 : 	const_reference at(size_type _Pos) const
; 1167 : 		{	// subscript nonmutable sequence with checking
; 1168 : 		if (size() <= _Pos)
; 1169 : 			_Xran();
; 1170 : 		return (*(this->_Myfirst + _Pos));
; 1171 : 		}
; 1172 : 
; 1173 : 	reference at(size_type _Pos)
; 1174 : 		{	// subscript mutable sequence with checking
; 1175 : 		if (size() <= _Pos)
; 1176 : 			_Xran();
; 1177 : 		return (*(this->_Myfirst + _Pos));
; 1178 : 		}
; 1179 : 
; 1180 : 	const_reference operator[](size_type _Pos) const
; 1181 : 		{	// subscript nonmutable sequence
; 1182 :  #if _ITERATOR_DEBUG_LEVEL == 2
; 1183 : 		if (size() <= _Pos)
; 1184 : 			{	// report error
; 1185 : 			_DEBUG_ERROR("vector subscript out of range");
; 1186 : 			_SCL_SECURE_OUT_OF_RANGE;
; 1187 : 			}
; 1188 : 
; 1189 :  #elif _ITERATOR_DEBUG_LEVEL == 1
; 1190 : 		_SCL_SECURE_VALIDATE_RANGE(_Pos < size());
; 1191 :  #endif /* _ITERATOR_DEBUG_LEVEL */
; 1192 : 
; 1193 : 		return (*(this->_Myfirst + _Pos));
; 1194 : 		}
; 1195 : 
; 1196 : 	reference operator[](size_type _Pos)
; 1197 : 		{	// subscript mutable sequence
; 1198 :  #if _ITERATOR_DEBUG_LEVEL == 2
; 1199 : 		if (size() <= _Pos)
; 1200 : 			{	// report error
; 1201 : 			_DEBUG_ERROR("vector subscript out of range");
; 1202 : 			_SCL_SECURE_OUT_OF_RANGE;
; 1203 : 			}
; 1204 : 
; 1205 :  #elif _ITERATOR_DEBUG_LEVEL == 1
; 1206 : 		_SCL_SECURE_VALIDATE_RANGE(_Pos < size());
; 1207 :  #endif /* _ITERATOR_DEBUG_LEVEL */
; 1208 : 
; 1209 : 		return (*(this->_Myfirst + _Pos));
; 1210 : 		}
; 1211 : 
; 1212 : 	pointer data() _NOEXCEPT
; 1213 : 		{	// return address of first element
; 1214 : 		return (this->_Myfirst);
; 1215 : 		}
; 1216 : 
; 1217 : 	const_pointer data() const _NOEXCEPT
; 1218 : 		{	// return address of first element
; 1219 : 		return (this->_Myfirst);
; 1220 : 		}
; 1221 : 
; 1222 : 	reference front()
; 1223 : 		{	// return first element of mutable sequence
; 1224 : 		return (*begin());
; 1225 : 		}
; 1226 : 
; 1227 : 	const_reference front() const
; 1228 : 		{	// return first element of nonmutable sequence
; 1229 : 		return (*begin());
; 1230 : 		}
; 1231 : 
; 1232 : 	reference back()
; 1233 : 		{	// return last element of mutable sequence
; 1234 : 		return (*(end() - 1));
; 1235 : 		}
; 1236 : 
; 1237 : 	const_reference back() const
; 1238 : 		{	// return last element of nonmutable sequence
; 1239 : 		return (*(end() - 1));
; 1240 : 		}
; 1241 : 
; 1242 : 	void push_back(const value_type& _Val)
; 1243 : 		{	// insert element at end
; 1244 : 		if (_Inside(_STD addressof(_Val)))
; 1245 : 			{	// push back an element
; 1246 : 			size_type _Idx = _STD addressof(_Val) - this->_Myfirst;

  001b0	8b 57 08	 mov	 edx, DWORD PTR [edi+8]
  001b3	2b d8		 sub	 ebx, eax
  001b5	c1 fb 02	 sar	 ebx, 2

; 1247 : 			if (this->_Mylast == this->_Myend)

  001b8	3b ca		 cmp	 ecx, edx
  001ba	75 4e		 jne	 SHORT $LN257@NEW_GetIns

; 1011 : 		}
; 1012 : 
; 1013 : 	size_type _Unused_capacity() const _NOEXCEPT
; 1014 : 		{	// micro-optimization for capacity() - size()
; 1015 : 		return (this->_Myend - this->_Mylast);

  001bc	8b c2		 mov	 eax, edx
  001be	2b c1		 sub	 eax, ecx
  001c0	c1 f8 02	 sar	 eax, 2

; 1584 : 		}
; 1585 : 
; 1586 : 	void _Reallocate(size_type _Count)
; 1587 : 		{	// move to array of exactly _Count elements
; 1588 : 		pointer _Ptr = this->_Getal().allocate(_Count);
; 1589 : 
; 1590 : 		_TRY_BEGIN
; 1591 : 		_Umove(this->_Myfirst, this->_Mylast, _Ptr);
; 1592 : 		_CATCH_ALL
; 1593 : 		this->_Getal().deallocate(_Ptr, _Count);
; 1594 : 		_RERAISE;
; 1595 : 		_CATCH_END
; 1596 : 
; 1597 : 		size_type _Size = size();
; 1598 : 		if (this->_Myfirst != pointer())
; 1599 : 			{	// destroy and deallocate old array
; 1600 : 			_Destroy(this->_Myfirst, this->_Mylast);
; 1601 : 			this->_Getal().deallocate(this->_Myfirst,
; 1602 : 				this->_Myend - this->_Myfirst);
; 1603 : 			}
; 1604 : 
; 1605 : 		this->_Orphan_all();
; 1606 : 		this->_Myend = _Ptr + _Count;
; 1607 : 		this->_Mylast = _Ptr + _Size;
; 1608 : 		this->_Myfirst = _Ptr;
; 1609 : 		}
; 1610 : 
; 1611 : 	void _Reserve(size_type _Count)
; 1612 : 		{	// ensure room for _Count new elements, grow exponentially
; 1613 : 		if (_Unused_capacity() < _Count)

  001c3	83 f8 01	 cmp	 eax, 1
  001c6	73 42		 jae	 SHORT $LN257@NEW_GetIns

; 1016 : 		}
; 1017 : 
; 1018 : 	size_type _Has_unused_capacity() const _NOEXCEPT
; 1019 : 		{	// micro-optimization for capacity() != size()
; 1020 : 		return (this->_Myend != this->_Mylast);
; 1021 : 		}
; 1022 : 
; 1023 : 	iterator begin() _NOEXCEPT
; 1024 : 		{	// return iterator for beginning of mutable sequence
; 1025 : 		return (iterator(this->_Myfirst, this));
; 1026 : 		}
; 1027 : 
; 1028 : 	const_iterator begin() const _NOEXCEPT
; 1029 : 		{	// return iterator for beginning of nonmutable sequence
; 1030 : 		return (const_iterator(this->_Myfirst, this));
; 1031 : 		}
; 1032 : 
; 1033 : 	iterator end() _NOEXCEPT
; 1034 : 		{	// return iterator for end of mutable sequence
; 1035 : 		return (iterator(this->_Mylast, this));
; 1036 : 		}
; 1037 : 
; 1038 : 	const_iterator end() const _NOEXCEPT
; 1039 : 		{	// return iterator for end of nonmutable sequence
; 1040 : 		return (const_iterator(this->_Mylast, this));
; 1041 : 		}
; 1042 : 
; 1043 : 	iterator _Make_iter(const_iterator _Where) const
; 1044 : 		{	// make iterator from const_iterator
; 1045 : 		return (iterator(_Where._Ptr, this));
; 1046 : 		}
; 1047 : 
; 1048 : 	reverse_iterator rbegin() _NOEXCEPT
; 1049 : 		{	// return iterator for beginning of reversed mutable sequence
; 1050 : 		return (reverse_iterator(end()));
; 1051 : 		}
; 1052 : 
; 1053 : 	const_reverse_iterator rbegin() const _NOEXCEPT
; 1054 : 		{	// return iterator for beginning of reversed nonmutable sequence
; 1055 : 		return (const_reverse_iterator(end()));
; 1056 : 		}
; 1057 : 
; 1058 : 	reverse_iterator rend() _NOEXCEPT
; 1059 : 		{	// return iterator for end of reversed mutable sequence
; 1060 : 		return (reverse_iterator(begin()));
; 1061 : 		}
; 1062 : 
; 1063 : 	const_reverse_iterator rend() const _NOEXCEPT
; 1064 : 		{	// return iterator for end of reversed nonmutable sequence
; 1065 : 		return (const_reverse_iterator(begin()));
; 1066 : 		}
; 1067 : 
; 1068 : 	const_iterator cbegin() const _NOEXCEPT
; 1069 : 		{	// return iterator for beginning of nonmutable sequence
; 1070 : 		return (((const _Myt *)this)->begin());
; 1071 : 		}
; 1072 : 
; 1073 : 	const_iterator cend() const _NOEXCEPT
; 1074 : 		{	// return iterator for end of nonmutable sequence
; 1075 : 		return (((const _Myt *)this)->end());
; 1076 : 		}
; 1077 : 
; 1078 : 	const_reverse_iterator crbegin() const _NOEXCEPT
; 1079 : 		{	// return iterator for beginning of reversed nonmutable sequence
; 1080 : 		return (((const _Myt *)this)->rbegin());
; 1081 : 		}
; 1082 : 
; 1083 : 	const_reverse_iterator crend() const _NOEXCEPT
; 1084 : 		{	// return iterator for end of reversed nonmutable sequence
; 1085 : 		return (((const _Myt *)this)->rend());
; 1086 : 		}
; 1087 : 
; 1088 : 	void shrink_to_fit()
; 1089 : 		{	// reduce capacity
; 1090 : 		if (_Has_unused_capacity())
; 1091 : 			{	// worth shrinking, do it
; 1092 : 			if (empty())
; 1093 : 				_Tidy();
; 1094 : 			else
; 1095 : 				_Reallocate(size());
; 1096 : 			}
; 1097 : 		}
; 1098 : 
; 1099 : 	void resize(size_type _Newsize)
; 1100 : 		{	// determine new length, padding as needed
; 1101 : 		if (_Newsize < size())
; 1102 : 			_Pop_back_n(size() - _Newsize);
; 1103 : 		else if (size() < _Newsize)
; 1104 : 			{	// pad as needed
; 1105 : 			_Alty _Alval(this->_Getal());
; 1106 : 			_Reserve(_Newsize - size());
; 1107 : 			_TRY_BEGIN
; 1108 : 			_Uninitialized_default_fill_n(this->_Mylast, _Newsize - size(),
; 1109 : 				_Alval);
; 1110 : 			_CATCH_ALL
; 1111 : 			_Tidy();
; 1112 : 			_RERAISE;
; 1113 : 			_CATCH_END
; 1114 : 			this->_Mylast += _Newsize - size();
; 1115 : 			}
; 1116 : 		}
; 1117 : 
; 1118 : 	void resize(size_type _Newsize, const value_type& _Val)
; 1119 : 		{	// determine new length, padding with _Val elements as needed
; 1120 : 		if (_Newsize < size())
; 1121 : 			_Pop_back_n(size() - _Newsize);
; 1122 : 		else if (size() < _Newsize)
; 1123 : 			{	// pad as needed
; 1124 : 			const value_type *_Ptr = _STD addressof(_Val);
; 1125 : 
; 1126 : 			if (_Inside(_Ptr))
; 1127 : 				{	// padding is inside vector, recompute _Ptr after reserve
; 1128 : 				const difference_type _Idx = _Ptr
; 1129 : 					- _STD addressof(*this->_Myfirst);
; 1130 : 				_Reserve(_Newsize - size());
; 1131 : 				_Ptr = _STD addressof(*this->_Myfirst) + _Idx;
; 1132 : 				}
; 1133 : 			else
; 1134 : 				_Reserve(_Newsize - size());
; 1135 : 
; 1136 : 			_TRY_BEGIN
; 1137 : 			_Ufill(this->_Mylast, _Newsize - size(), _Ptr);
; 1138 : 			_CATCH_ALL
; 1139 : 			_Tidy();
; 1140 : 			_RERAISE;
; 1141 : 			_CATCH_END
; 1142 : 			this->_Mylast += _Newsize - size();
; 1143 : 			}
; 1144 : 		}
; 1145 : 
; 1146 : 	size_type size() const _NOEXCEPT
; 1147 : 		{	// return length of sequence
; 1148 : 		return (this->_Mylast - this->_Myfirst);

  001c8	2b 0f		 sub	 ecx, DWORD PTR [edi]

; 1614 : 			{	// need more room, try to get it
; 1615 : 			if (max_size() - size() < _Count)

  001ca	b8 ff ff ff 3f	 mov	 eax, 1073741823		; 3fffffffH

; 1016 : 		}
; 1017 : 
; 1018 : 	size_type _Has_unused_capacity() const _NOEXCEPT
; 1019 : 		{	// micro-optimization for capacity() != size()
; 1020 : 		return (this->_Myend != this->_Mylast);
; 1021 : 		}
; 1022 : 
; 1023 : 	iterator begin() _NOEXCEPT
; 1024 : 		{	// return iterator for beginning of mutable sequence
; 1025 : 		return (iterator(this->_Myfirst, this));
; 1026 : 		}
; 1027 : 
; 1028 : 	const_iterator begin() const _NOEXCEPT
; 1029 : 		{	// return iterator for beginning of nonmutable sequence
; 1030 : 		return (const_iterator(this->_Myfirst, this));
; 1031 : 		}
; 1032 : 
; 1033 : 	iterator end() _NOEXCEPT
; 1034 : 		{	// return iterator for end of mutable sequence
; 1035 : 		return (iterator(this->_Mylast, this));
; 1036 : 		}
; 1037 : 
; 1038 : 	const_iterator end() const _NOEXCEPT
; 1039 : 		{	// return iterator for end of nonmutable sequence
; 1040 : 		return (const_iterator(this->_Mylast, this));
; 1041 : 		}
; 1042 : 
; 1043 : 	iterator _Make_iter(const_iterator _Where) const
; 1044 : 		{	// make iterator from const_iterator
; 1045 : 		return (iterator(_Where._Ptr, this));
; 1046 : 		}
; 1047 : 
; 1048 : 	reverse_iterator rbegin() _NOEXCEPT
; 1049 : 		{	// return iterator for beginning of reversed mutable sequence
; 1050 : 		return (reverse_iterator(end()));
; 1051 : 		}
; 1052 : 
; 1053 : 	const_reverse_iterator rbegin() const _NOEXCEPT
; 1054 : 		{	// return iterator for beginning of reversed nonmutable sequence
; 1055 : 		return (const_reverse_iterator(end()));
; 1056 : 		}
; 1057 : 
; 1058 : 	reverse_iterator rend() _NOEXCEPT
; 1059 : 		{	// return iterator for end of reversed mutable sequence
; 1060 : 		return (reverse_iterator(begin()));
; 1061 : 		}
; 1062 : 
; 1063 : 	const_reverse_iterator rend() const _NOEXCEPT
; 1064 : 		{	// return iterator for end of reversed nonmutable sequence
; 1065 : 		return (const_reverse_iterator(begin()));
; 1066 : 		}
; 1067 : 
; 1068 : 	const_iterator cbegin() const _NOEXCEPT
; 1069 : 		{	// return iterator for beginning of nonmutable sequence
; 1070 : 		return (((const _Myt *)this)->begin());
; 1071 : 		}
; 1072 : 
; 1073 : 	const_iterator cend() const _NOEXCEPT
; 1074 : 		{	// return iterator for end of nonmutable sequence
; 1075 : 		return (((const _Myt *)this)->end());
; 1076 : 		}
; 1077 : 
; 1078 : 	const_reverse_iterator crbegin() const _NOEXCEPT
; 1079 : 		{	// return iterator for beginning of reversed nonmutable sequence
; 1080 : 		return (((const _Myt *)this)->rbegin());
; 1081 : 		}
; 1082 : 
; 1083 : 	const_reverse_iterator crend() const _NOEXCEPT
; 1084 : 		{	// return iterator for end of reversed nonmutable sequence
; 1085 : 		return (((const _Myt *)this)->rend());
; 1086 : 		}
; 1087 : 
; 1088 : 	void shrink_to_fit()
; 1089 : 		{	// reduce capacity
; 1090 : 		if (_Has_unused_capacity())
; 1091 : 			{	// worth shrinking, do it
; 1092 : 			if (empty())
; 1093 : 				_Tidy();
; 1094 : 			else
; 1095 : 				_Reallocate(size());
; 1096 : 			}
; 1097 : 		}
; 1098 : 
; 1099 : 	void resize(size_type _Newsize)
; 1100 : 		{	// determine new length, padding as needed
; 1101 : 		if (_Newsize < size())
; 1102 : 			_Pop_back_n(size() - _Newsize);
; 1103 : 		else if (size() < _Newsize)
; 1104 : 			{	// pad as needed
; 1105 : 			_Alty _Alval(this->_Getal());
; 1106 : 			_Reserve(_Newsize - size());
; 1107 : 			_TRY_BEGIN
; 1108 : 			_Uninitialized_default_fill_n(this->_Mylast, _Newsize - size(),
; 1109 : 				_Alval);
; 1110 : 			_CATCH_ALL
; 1111 : 			_Tidy();
; 1112 : 			_RERAISE;
; 1113 : 			_CATCH_END
; 1114 : 			this->_Mylast += _Newsize - size();
; 1115 : 			}
; 1116 : 		}
; 1117 : 
; 1118 : 	void resize(size_type _Newsize, const value_type& _Val)
; 1119 : 		{	// determine new length, padding with _Val elements as needed
; 1120 : 		if (_Newsize < size())
; 1121 : 			_Pop_back_n(size() - _Newsize);
; 1122 : 		else if (size() < _Newsize)
; 1123 : 			{	// pad as needed
; 1124 : 			const value_type *_Ptr = _STD addressof(_Val);
; 1125 : 
; 1126 : 			if (_Inside(_Ptr))
; 1127 : 				{	// padding is inside vector, recompute _Ptr after reserve
; 1128 : 				const difference_type _Idx = _Ptr
; 1129 : 					- _STD addressof(*this->_Myfirst);
; 1130 : 				_Reserve(_Newsize - size());
; 1131 : 				_Ptr = _STD addressof(*this->_Myfirst) + _Idx;
; 1132 : 				}
; 1133 : 			else
; 1134 : 				_Reserve(_Newsize - size());
; 1135 : 
; 1136 : 			_TRY_BEGIN
; 1137 : 			_Ufill(this->_Mylast, _Newsize - size(), _Ptr);
; 1138 : 			_CATCH_ALL
; 1139 : 			_Tidy();
; 1140 : 			_RERAISE;
; 1141 : 			_CATCH_END
; 1142 : 			this->_Mylast += _Newsize - size();
; 1143 : 			}
; 1144 : 		}
; 1145 : 
; 1146 : 	size_type size() const _NOEXCEPT
; 1147 : 		{	// return length of sequence
; 1148 : 		return (this->_Mylast - this->_Myfirst);

  001cf	c1 f9 02	 sar	 ecx, 2

; 1614 : 			{	// need more room, try to get it
; 1615 : 			if (max_size() - size() < _Count)

  001d2	2b c1		 sub	 eax, ecx
  001d4	83 f8 01	 cmp	 eax, 1
  001d7	0f 82 29 01 00
	00		 jb	 $LN446@NEW_GetIns

; 1010 : 		return (this->_Myend - this->_Myfirst);

  001dd	2b 17		 sub	 edx, DWORD PTR [edi]

; 1616 : 				_Xlen();
; 1617 : 			_Reallocate(_Grow_to(size() + _Count));

  001df	41		 inc	 ecx

; 1010 : 		return (this->_Myend - this->_Myfirst);

  001e0	c1 fa 02	 sar	 edx, 2

; 1262 : 			}
; 1263 : 		}
; 1264 : 
; 1265 :  #if _ITERATOR_DEBUG_LEVEL == 2
; 1266 : 	void pop_back()
; 1267 : 		{	// erase element at end
; 1268 : 		if (empty())
; 1269 : 			_DEBUG_ERROR("vector empty before pop");
; 1270 : 		else
; 1271 : 			{	// erase last element
; 1272 : 			_Orphan_range(this->_Mylast - 1, this->_Mylast);
; 1273 : 			this->_Getal().destroy(this->_Mylast - 1);
; 1274 : 			--this->_Mylast;
; 1275 : 			}
; 1276 : 		}
; 1277 : 
; 1278 :  #else /* _ITERATOR_DEBUG_LEVEL == 2 */
; 1279 : 	void pop_back()
; 1280 : 		{	// erase element at end
; 1281 : 		this->_Getal().destroy(this->_Mylast - 1);
; 1282 : 		--this->_Mylast;
; 1283 : 		}
; 1284 :  #endif /* _ITERATOR_DEBUG_LEVEL == 2 */
; 1285 : 
; 1286 : 	template<class _Iter>
; 1287 : 		typename enable_if<_Is_iterator<_Iter>::value,
; 1288 : 			void>::type
; 1289 : 		assign(_Iter _First, _Iter _Last)
; 1290 : 		{	// assign [_First, _Last)
; 1291 : 		clear();
; 1292 : 		_Assign(_First, _Last, _Iter_cat(_First));
; 1293 : 		}
; 1294 : 
; 1295 : 	template<class _Iter>
; 1296 : 		void _Assign(_Iter _First, _Iter _Last, input_iterator_tag)
; 1297 : 		{	// assign [_First, _Last), input iterators
; 1298 : 		for (; _First != _Last; ++_First)
; 1299 : 			emplace_back(*_First);
; 1300 : 		}
; 1301 : 
; 1302 : 	template<class _Iter>
; 1303 : 		void _Assign(_Iter _First, _Iter _Last, forward_iterator_tag)
; 1304 : 		{	// assign [_First, _Last), forward iterators
; 1305 : 		if (_First == _Last)
; 1306 : 			return;	// nothing to do
; 1307 : 
; 1308 : 		size_type _Newsize = _STD distance(_First, _Last);
; 1309 : 
; 1310 : 		if (capacity() < _Newsize)
; 1311 : 			{	// need more room, try to get it
; 1312 : 			size_type _Newcapacity = _Grow_to(_Newsize);
; 1313 : 			_Tidy();
; 1314 : 			_Buy(_Newcapacity);
; 1315 : 			}
; 1316 : 
; 1317 : 		this->_Mylast = _Ucopy(_First, _Last, this->_Myfirst);
; 1318 : 		}
; 1319 : 
; 1320 : 	void assign(size_type _Count, const value_type& _Val)
; 1321 : 		{	// assign _Count * _Val
; 1322 : 		clear();
; 1323 : 		insert(begin(), _Count, _Val);
; 1324 : 		}
; 1325 : 
; 1326 : 	iterator insert(const_iterator _Where, const _Ty& _Val)
; 1327 : 		{	// insert _Val at _Where
; 1328 : 		return (_Insert_n(_Where, (size_type)1, _Val));
; 1329 : 		}
; 1330 : 
; 1331 : 	iterator insert(const_iterator _Where, size_type _Count,
; 1332 : 		const _Ty& _Val)
; 1333 : 		{	// insert _Count * _Val at _Where
; 1334 : 		return (_Insert_n(_Where, _Count, _Val));
; 1335 : 		}
; 1336 : 
; 1337 : 	template<class _Iter>
; 1338 : 		typename enable_if<_Is_iterator<_Iter>::value,
; 1339 : 			iterator>::type
; 1340 : 		insert(const_iterator _Where, _Iter _First, _Iter _Last)
; 1341 : 		{	// insert [_First, _Last) at _Where
; 1342 : 		size_type _Off = _VIPTR(_Where) - this->_Myfirst;
; 1343 : 		_Insert(_Where, _First, _Last, _Iter_cat(_First));
; 1344 : 		return (begin() + _Off);
; 1345 : 		}
; 1346 : 
; 1347 : 	template<class _Iter>
; 1348 : 		void _Insert(const_iterator _Where, _Iter _First, _Iter _Last,
; 1349 : 			input_iterator_tag)
; 1350 : 		{	// insert [_First, _Last) at _Where, input iterators
; 1351 : 		size_type _Off = _VIPTR(_Where) - this->_Myfirst;
; 1352 : 
; 1353 :  #if _ITERATOR_DEBUG_LEVEL == 2
; 1354 : 		if (size() < _Off)
; 1355 : 			_DEBUG_ERROR("vector insert iterator outside range");
; 1356 :  #endif /* _ITERATOR_DEBUG_LEVEL == 2 */
; 1357 : 
; 1358 : 		if (_First != _Last)
; 1359 : 			{	// worth doing, gather at end and rotate into place
; 1360 : 			size_type _Oldsize = size();
; 1361 : 
; 1362 : 			_TRY_BEGIN
; 1363 : 			for (; _First != _Last; ++_First)
; 1364 : 				push_back(*_First);	// append
; 1365 : 
; 1366 : 			_CATCH_ALL
; 1367 : 			erase(begin() + _Oldsize, end());
; 1368 : 			_RERAISE;
; 1369 : 			_CATCH_END
; 1370 : 
; 1371 : 			_STD rotate(begin() + _Off, begin() + _Oldsize, end());
; 1372 : 			}
; 1373 : 		}
; 1374 : 
; 1375 : 	template<class _Iter>
; 1376 : 		void _Insert(const_iterator _Where, _Iter _First, _Iter _Last,
; 1377 : 			forward_iterator_tag)
; 1378 : 		{	// insert [_First, _Last) at _Where, forward iterators
; 1379 :  #if _ITERATOR_DEBUG_LEVEL == 2
; 1380 : 		if (_VICONT(_Where) != this
; 1381 : 			|| _VIPTR(_Where) < this->_Myfirst
; 1382 : 			|| this->_Mylast < _VIPTR(_Where))
; 1383 : 			_DEBUG_ERROR("vector insert iterator outside range");
; 1384 : 		_DEBUG_RANGE(_First, _Last);
; 1385 :  #endif /* _ITERATOR_DEBUG_LEVEL == 2 */
; 1386 : 
; 1387 : 		size_type _Count = 0;
; 1388 : 		_Distance(_First, _Last, _Count);
; 1389 : 
; 1390 : 		if (_Count == 0)
; 1391 : 			;
; 1392 : 		else if (_Unused_capacity() < _Count)
; 1393 : 			{	// not enough room, reallocate
; 1394 : 			if (max_size() - size() < _Count)
; 1395 : 				_Xlen();	// result too long
; 1396 : 
; 1397 : 			size_type _Capacity = _Grow_to(size() + _Count);
; 1398 : 			pointer _Newvec = this->_Getal().allocate(_Capacity);
; 1399 : 			pointer _Ptr = _Newvec;
; 1400 : 
; 1401 : 			_TRY_BEGIN
; 1402 : 			_Ptr = _Umove(this->_Myfirst, _VIPTR(_Where),
; 1403 : 				_Newvec);	// copy prefix
; 1404 : 			_Ptr = _Ucopy(_First, _Last, _Ptr);	// add new stuff
; 1405 : 			_Umove(_VIPTR(_Where), this->_Mylast,
; 1406 : 				_Ptr);	// copy suffix
; 1407 : 			_CATCH_ALL
; 1408 : 			_Destroy(_Newvec, _Ptr);
; 1409 : 			this->_Getal().deallocate(_Newvec, _Capacity);
; 1410 : 			_RERAISE;
; 1411 : 			_CATCH_END
; 1412 : 
; 1413 : 			_Count += size();
; 1414 : 			if (this->_Myfirst != pointer())
; 1415 : 				{	// destroy and deallocate old array
; 1416 : 				_Destroy(this->_Myfirst, this->_Mylast);
; 1417 : 				this->_Getal().deallocate(this->_Myfirst,
; 1418 : 					this->_Myend - this->_Myfirst);
; 1419 : 				}
; 1420 : 
; 1421 : 			this->_Orphan_all();
; 1422 : 			this->_Myend = _Newvec + _Capacity;
; 1423 : 			this->_Mylast = _Newvec + _Count;
; 1424 : 			this->_Myfirst = _Newvec;
; 1425 : 			}
; 1426 : 		else
; 1427 : 			{	// new stuff fits, append and rotate into place
; 1428 : 			_Ucopy(_First, _Last, this->_Mylast);
; 1429 : 			_STD rotate(_VIPTR(_Where), this->_Mylast,
; 1430 : 				this->_Mylast + _Count);
; 1431 : 			this->_Mylast += _Count;
; 1432 : 			_Orphan_range(_VIPTR(_Where), this->_Mylast);
; 1433 : 			}
; 1434 : 		}
; 1435 : 
; 1436 :  #if _ITERATOR_DEBUG_LEVEL == 2
; 1437 : 	iterator erase(const_iterator _Where)
; 1438 : 		{	// erase element at where
; 1439 : 		if (_VICONT(_Where) != this
; 1440 : 			|| _VIPTR(_Where) < this->_Myfirst
; 1441 : 			|| this->_Mylast <= _VIPTR(_Where))
; 1442 : 			_DEBUG_ERROR("vector erase iterator outside range");
; 1443 : 		_Move(_VIPTR(_Where) + 1, this->_Mylast, _VIPTR(_Where));
; 1444 : 		_Destroy(this->_Mylast - 1, this->_Mylast);
; 1445 : 		_Orphan_range(_VIPTR(_Where), this->_Mylast);
; 1446 : 		--this->_Mylast;
; 1447 : 		return (_Make_iter(_Where));
; 1448 : 		}
; 1449 : 
; 1450 :  #else /* _ITERATOR_DEBUG_LEVEL == 2 */
; 1451 : 	iterator erase(const_iterator _Where)
; 1452 : 		{	// erase element at where
; 1453 : 		_Move(_VIPTR(_Where) + 1, this->_Mylast,
; 1454 : 			_VIPTR(_Where));
; 1455 : 		_Destroy(this->_Mylast - 1, this->_Mylast);
; 1456 : 		--this->_Mylast;
; 1457 : 		return (_Make_iter(_Where));
; 1458 : 		}
; 1459 :  #endif /* _ITERATOR_DEBUG_LEVEL == 2 */
; 1460 : 
; 1461 : 	iterator erase(const_iterator _First_arg,
; 1462 : 		const_iterator _Last_arg)
; 1463 : 		{	// erase [_First, _Last)
; 1464 : 		if (_First_arg == begin() && _Last_arg == end())
; 1465 : 			clear();
; 1466 : 		else if (_First_arg != _Last_arg)
; 1467 : 			{	// clear partial
; 1468 : 			iterator _First = _Make_iter(_First_arg);
; 1469 : 			iterator _Last = _Make_iter(_Last_arg);
; 1470 : 
; 1471 : 			if (_First != _Last)
; 1472 : 				{	// worth doing, copy down over hole
; 1473 :  #if _ITERATOR_DEBUG_LEVEL == 2
; 1474 : 				if (_Last < _First || _VICONT(_First) != this
; 1475 : 					|| _VIPTR(_First) < this->_Myfirst
; 1476 : 					|| this->_Mylast < _VIPTR(_Last))
; 1477 : 					_DEBUG_ERROR("vector erase iterator outside range");
; 1478 : 				pointer _Ptr = _Move(_VIPTR(_Last), this->_Mylast,
; 1479 : 					_VIPTR(_First));
; 1480 : 				_Orphan_range(_VIPTR(_First), this->_Mylast);
; 1481 : 
; 1482 :  #else /* _ITERATOR_DEBUG_LEVEL == 2 */
; 1483 : 				pointer _Ptr = _Move(_VIPTR(_Last), this->_Mylast,
; 1484 : 					_VIPTR(_First));
; 1485 :  #endif /* _ITERATOR_DEBUG_LEVEL == 2 */
; 1486 : 
; 1487 : 				_Destroy(_Ptr, this->_Mylast);
; 1488 : 				this->_Mylast = _Ptr;
; 1489 : 				}
; 1490 : 			}
; 1491 : 		return (_Make_iter(_First_arg));
; 1492 : 		}
; 1493 : 
; 1494 : 	void _Pop_back_n(size_type _Count)
; 1495 : 		{	// erase _Count elements at end
; 1496 : 		pointer _Ptr = this->_Mylast - _Count;
; 1497 : 
; 1498 :  #if _ITERATOR_DEBUG_LEVEL == 2
; 1499 : 		_Orphan_range(_Ptr, this->_Mylast);
; 1500 :  #endif /* _ITERATOR_DEBUG_LEVEL == 2 */
; 1501 : 
; 1502 : 		_Destroy(_Ptr, this->_Mylast);
; 1503 : 		this->_Mylast = _Ptr;
; 1504 : 		}
; 1505 : 
; 1506 : 	void clear() _NOEXCEPT
; 1507 : 		{	// erase all
; 1508 : 		this->_Orphan_all();
; 1509 : 		_Destroy(this->_Myfirst, this->_Mylast);
; 1510 : 		this->_Mylast = this->_Myfirst;
; 1511 : 		}
; 1512 : 
; 1513 : 	void swap(_Myt& _Right)
; 1514 : 		{	// exchange contents with _Right
; 1515 : 		if (this == &_Right)
; 1516 : 			;	// same object, do nothing
; 1517 : 		else if (this->_Getal() == _Right._Getal())
; 1518 : 			{	// same allocator, swap control information
; 1519 : 			this->_Swap_all(_Right);
; 1520 : 			_Swap_adl(this->_Myfirst, _Right._Myfirst);
; 1521 : 			_Swap_adl(this->_Mylast, _Right._Mylast);
; 1522 : 			_Swap_adl(this->_Myend, _Right._Myend);
; 1523 : 			}
; 1524 : 
; 1525 : 		else if (_Alty::propagate_on_container_swap::value)
; 1526 : 			{	// swap allocators and control information
; 1527 : 			this->_Swap_alloc(_Right);
; 1528 : 			_Swap_adl(this->_Myfirst, _Right._Myfirst);
; 1529 : 			_Swap_adl(this->_Mylast, _Right._Mylast);
; 1530 : 			_Swap_adl(this->_Myend, _Right._Myend);
; 1531 : 			}
; 1532 : 
; 1533 : 		else
; 1534 : 			{	// containers are incompatible
; 1535 :  #if _ITERATOR_DEBUG_LEVEL == 2
; 1536 : 			_DEBUG_ERROR("vector containers incompatible for swap");
; 1537 : 
; 1538 :  #else /* ITERATOR_DEBUG_LEVEL == 2 */
; 1539 : 			_XSTD terminate();
; 1540 :  #endif /* ITERATOR_DEBUG_LEVEL == 2 */
; 1541 : 			}
; 1542 : 		}
; 1543 : 
; 1544 : protected:
; 1545 : 	bool _Buy(size_type _Capacity)
; 1546 : 		{	// allocate array with _Capacity elements
; 1547 : 		this->_Myfirst = pointer();
; 1548 : 		this->_Mylast = pointer();
; 1549 : 		this->_Myend = pointer();
; 1550 : 
; 1551 : 		if (_Capacity == 0)
; 1552 : 			return (false);
; 1553 : 		else if (max_size() < _Capacity)
; 1554 : 			_Xlen();	// result too long
; 1555 : 		else
; 1556 : 			{	// nonempty array, allocate storage
; 1557 : 			this->_Myfirst = this->_Getal().allocate(_Capacity);
; 1558 : 			this->_Mylast = this->_Myfirst;
; 1559 : 			this->_Myend = this->_Myfirst + _Capacity;
; 1560 : 			}
; 1561 : 		return (true);
; 1562 : 		}
; 1563 : 
; 1564 : 	void _Destroy(pointer _First, pointer _Last)
; 1565 : 		{	// destroy [_First, _Last) using allocator
; 1566 : 		_Alty _Alval(this->_Getal());
; 1567 : 		_Destroy_range(_First, _Last, _Alval);
; 1568 : 		}
; 1569 : 
; 1570 : 	size_type _Grow_to(size_type _Count) const
; 1571 : 		{	// grow by 50% or at least to _Count
; 1572 : 		size_type _Capacity = capacity();
; 1573 : 
; 1574 : 		_Capacity = max_size() - _Capacity / 2 < _Capacity
; 1575 : 			? 0 : _Capacity + _Capacity / 2;	// try to grow by 50%

  001e3	b8 ff ff ff 3f	 mov	 eax, 1073741823		; 3fffffffH

; 1616 : 				_Xlen();
; 1617 : 			_Reallocate(_Grow_to(size() + _Count));

  001e8	89 4d 08	 mov	 DWORD PTR __Count$1$[ebp], ecx

; 1262 : 			}
; 1263 : 		}
; 1264 : 
; 1265 :  #if _ITERATOR_DEBUG_LEVEL == 2
; 1266 : 	void pop_back()
; 1267 : 		{	// erase element at end
; 1268 : 		if (empty())
; 1269 : 			_DEBUG_ERROR("vector empty before pop");
; 1270 : 		else
; 1271 : 			{	// erase last element
; 1272 : 			_Orphan_range(this->_Mylast - 1, this->_Mylast);
; 1273 : 			this->_Getal().destroy(this->_Mylast - 1);
; 1274 : 			--this->_Mylast;
; 1275 : 			}
; 1276 : 		}
; 1277 : 
; 1278 :  #else /* _ITERATOR_DEBUG_LEVEL == 2 */
; 1279 : 	void pop_back()
; 1280 : 		{	// erase element at end
; 1281 : 		this->_Getal().destroy(this->_Mylast - 1);
; 1282 : 		--this->_Mylast;
; 1283 : 		}
; 1284 :  #endif /* _ITERATOR_DEBUG_LEVEL == 2 */
; 1285 : 
; 1286 : 	template<class _Iter>
; 1287 : 		typename enable_if<_Is_iterator<_Iter>::value,
; 1288 : 			void>::type
; 1289 : 		assign(_Iter _First, _Iter _Last)
; 1290 : 		{	// assign [_First, _Last)
; 1291 : 		clear();
; 1292 : 		_Assign(_First, _Last, _Iter_cat(_First));
; 1293 : 		}
; 1294 : 
; 1295 : 	template<class _Iter>
; 1296 : 		void _Assign(_Iter _First, _Iter _Last, input_iterator_tag)
; 1297 : 		{	// assign [_First, _Last), input iterators
; 1298 : 		for (; _First != _Last; ++_First)
; 1299 : 			emplace_back(*_First);
; 1300 : 		}
; 1301 : 
; 1302 : 	template<class _Iter>
; 1303 : 		void _Assign(_Iter _First, _Iter _Last, forward_iterator_tag)
; 1304 : 		{	// assign [_First, _Last), forward iterators
; 1305 : 		if (_First == _Last)
; 1306 : 			return;	// nothing to do
; 1307 : 
; 1308 : 		size_type _Newsize = _STD distance(_First, _Last);
; 1309 : 
; 1310 : 		if (capacity() < _Newsize)
; 1311 : 			{	// need more room, try to get it
; 1312 : 			size_type _Newcapacity = _Grow_to(_Newsize);
; 1313 : 			_Tidy();
; 1314 : 			_Buy(_Newcapacity);
; 1315 : 			}
; 1316 : 
; 1317 : 		this->_Mylast = _Ucopy(_First, _Last, this->_Myfirst);
; 1318 : 		}
; 1319 : 
; 1320 : 	void assign(size_type _Count, const value_type& _Val)
; 1321 : 		{	// assign _Count * _Val
; 1322 : 		clear();
; 1323 : 		insert(begin(), _Count, _Val);
; 1324 : 		}
; 1325 : 
; 1326 : 	iterator insert(const_iterator _Where, const _Ty& _Val)
; 1327 : 		{	// insert _Val at _Where
; 1328 : 		return (_Insert_n(_Where, (size_type)1, _Val));
; 1329 : 		}
; 1330 : 
; 1331 : 	iterator insert(const_iterator _Where, size_type _Count,
; 1332 : 		const _Ty& _Val)
; 1333 : 		{	// insert _Count * _Val at _Where
; 1334 : 		return (_Insert_n(_Where, _Count, _Val));
; 1335 : 		}
; 1336 : 
; 1337 : 	template<class _Iter>
; 1338 : 		typename enable_if<_Is_iterator<_Iter>::value,
; 1339 : 			iterator>::type
; 1340 : 		insert(const_iterator _Where, _Iter _First, _Iter _Last)
; 1341 : 		{	// insert [_First, _Last) at _Where
; 1342 : 		size_type _Off = _VIPTR(_Where) - this->_Myfirst;
; 1343 : 		_Insert(_Where, _First, _Last, _Iter_cat(_First));
; 1344 : 		return (begin() + _Off);
; 1345 : 		}
; 1346 : 
; 1347 : 	template<class _Iter>
; 1348 : 		void _Insert(const_iterator _Where, _Iter _First, _Iter _Last,
; 1349 : 			input_iterator_tag)
; 1350 : 		{	// insert [_First, _Last) at _Where, input iterators
; 1351 : 		size_type _Off = _VIPTR(_Where) - this->_Myfirst;
; 1352 : 
; 1353 :  #if _ITERATOR_DEBUG_LEVEL == 2
; 1354 : 		if (size() < _Off)
; 1355 : 			_DEBUG_ERROR("vector insert iterator outside range");
; 1356 :  #endif /* _ITERATOR_DEBUG_LEVEL == 2 */
; 1357 : 
; 1358 : 		if (_First != _Last)
; 1359 : 			{	// worth doing, gather at end and rotate into place
; 1360 : 			size_type _Oldsize = size();
; 1361 : 
; 1362 : 			_TRY_BEGIN
; 1363 : 			for (; _First != _Last; ++_First)
; 1364 : 				push_back(*_First);	// append
; 1365 : 
; 1366 : 			_CATCH_ALL
; 1367 : 			erase(begin() + _Oldsize, end());
; 1368 : 			_RERAISE;
; 1369 : 			_CATCH_END
; 1370 : 
; 1371 : 			_STD rotate(begin() + _Off, begin() + _Oldsize, end());
; 1372 : 			}
; 1373 : 		}
; 1374 : 
; 1375 : 	template<class _Iter>
; 1376 : 		void _Insert(const_iterator _Where, _Iter _First, _Iter _Last,
; 1377 : 			forward_iterator_tag)
; 1378 : 		{	// insert [_First, _Last) at _Where, forward iterators
; 1379 :  #if _ITERATOR_DEBUG_LEVEL == 2
; 1380 : 		if (_VICONT(_Where) != this
; 1381 : 			|| _VIPTR(_Where) < this->_Myfirst
; 1382 : 			|| this->_Mylast < _VIPTR(_Where))
; 1383 : 			_DEBUG_ERROR("vector insert iterator outside range");
; 1384 : 		_DEBUG_RANGE(_First, _Last);
; 1385 :  #endif /* _ITERATOR_DEBUG_LEVEL == 2 */
; 1386 : 
; 1387 : 		size_type _Count = 0;
; 1388 : 		_Distance(_First, _Last, _Count);
; 1389 : 
; 1390 : 		if (_Count == 0)
; 1391 : 			;
; 1392 : 		else if (_Unused_capacity() < _Count)
; 1393 : 			{	// not enough room, reallocate
; 1394 : 			if (max_size() - size() < _Count)
; 1395 : 				_Xlen();	// result too long
; 1396 : 
; 1397 : 			size_type _Capacity = _Grow_to(size() + _Count);
; 1398 : 			pointer _Newvec = this->_Getal().allocate(_Capacity);
; 1399 : 			pointer _Ptr = _Newvec;
; 1400 : 
; 1401 : 			_TRY_BEGIN
; 1402 : 			_Ptr = _Umove(this->_Myfirst, _VIPTR(_Where),
; 1403 : 				_Newvec);	// copy prefix
; 1404 : 			_Ptr = _Ucopy(_First, _Last, _Ptr);	// add new stuff
; 1405 : 			_Umove(_VIPTR(_Where), this->_Mylast,
; 1406 : 				_Ptr);	// copy suffix
; 1407 : 			_CATCH_ALL
; 1408 : 			_Destroy(_Newvec, _Ptr);
; 1409 : 			this->_Getal().deallocate(_Newvec, _Capacity);
; 1410 : 			_RERAISE;
; 1411 : 			_CATCH_END
; 1412 : 
; 1413 : 			_Count += size();
; 1414 : 			if (this->_Myfirst != pointer())
; 1415 : 				{	// destroy and deallocate old array
; 1416 : 				_Destroy(this->_Myfirst, this->_Mylast);
; 1417 : 				this->_Getal().deallocate(this->_Myfirst,
; 1418 : 					this->_Myend - this->_Myfirst);
; 1419 : 				}
; 1420 : 
; 1421 : 			this->_Orphan_all();
; 1422 : 			this->_Myend = _Newvec + _Capacity;
; 1423 : 			this->_Mylast = _Newvec + _Count;
; 1424 : 			this->_Myfirst = _Newvec;
; 1425 : 			}
; 1426 : 		else
; 1427 : 			{	// new stuff fits, append and rotate into place
; 1428 : 			_Ucopy(_First, _Last, this->_Mylast);
; 1429 : 			_STD rotate(_VIPTR(_Where), this->_Mylast,
; 1430 : 				this->_Mylast + _Count);
; 1431 : 			this->_Mylast += _Count;
; 1432 : 			_Orphan_range(_VIPTR(_Where), this->_Mylast);
; 1433 : 			}
; 1434 : 		}
; 1435 : 
; 1436 :  #if _ITERATOR_DEBUG_LEVEL == 2
; 1437 : 	iterator erase(const_iterator _Where)
; 1438 : 		{	// erase element at where
; 1439 : 		if (_VICONT(_Where) != this
; 1440 : 			|| _VIPTR(_Where) < this->_Myfirst
; 1441 : 			|| this->_Mylast <= _VIPTR(_Where))
; 1442 : 			_DEBUG_ERROR("vector erase iterator outside range");
; 1443 : 		_Move(_VIPTR(_Where) + 1, this->_Mylast, _VIPTR(_Where));
; 1444 : 		_Destroy(this->_Mylast - 1, this->_Mylast);
; 1445 : 		_Orphan_range(_VIPTR(_Where), this->_Mylast);
; 1446 : 		--this->_Mylast;
; 1447 : 		return (_Make_iter(_Where));
; 1448 : 		}
; 1449 : 
; 1450 :  #else /* _ITERATOR_DEBUG_LEVEL == 2 */
; 1451 : 	iterator erase(const_iterator _Where)
; 1452 : 		{	// erase element at where
; 1453 : 		_Move(_VIPTR(_Where) + 1, this->_Mylast,
; 1454 : 			_VIPTR(_Where));
; 1455 : 		_Destroy(this->_Mylast - 1, this->_Mylast);
; 1456 : 		--this->_Mylast;
; 1457 : 		return (_Make_iter(_Where));
; 1458 : 		}
; 1459 :  #endif /* _ITERATOR_DEBUG_LEVEL == 2 */
; 1460 : 
; 1461 : 	iterator erase(const_iterator _First_arg,
; 1462 : 		const_iterator _Last_arg)
; 1463 : 		{	// erase [_First, _Last)
; 1464 : 		if (_First_arg == begin() && _Last_arg == end())
; 1465 : 			clear();
; 1466 : 		else if (_First_arg != _Last_arg)
; 1467 : 			{	// clear partial
; 1468 : 			iterator _First = _Make_iter(_First_arg);
; 1469 : 			iterator _Last = _Make_iter(_Last_arg);
; 1470 : 
; 1471 : 			if (_First != _Last)
; 1472 : 				{	// worth doing, copy down over hole
; 1473 :  #if _ITERATOR_DEBUG_LEVEL == 2
; 1474 : 				if (_Last < _First || _VICONT(_First) != this
; 1475 : 					|| _VIPTR(_First) < this->_Myfirst
; 1476 : 					|| this->_Mylast < _VIPTR(_Last))
; 1477 : 					_DEBUG_ERROR("vector erase iterator outside range");
; 1478 : 				pointer _Ptr = _Move(_VIPTR(_Last), this->_Mylast,
; 1479 : 					_VIPTR(_First));
; 1480 : 				_Orphan_range(_VIPTR(_First), this->_Mylast);
; 1481 : 
; 1482 :  #else /* _ITERATOR_DEBUG_LEVEL == 2 */
; 1483 : 				pointer _Ptr = _Move(_VIPTR(_Last), this->_Mylast,
; 1484 : 					_VIPTR(_First));
; 1485 :  #endif /* _ITERATOR_DEBUG_LEVEL == 2 */
; 1486 : 
; 1487 : 				_Destroy(_Ptr, this->_Mylast);
; 1488 : 				this->_Mylast = _Ptr;
; 1489 : 				}
; 1490 : 			}
; 1491 : 		return (_Make_iter(_First_arg));
; 1492 : 		}
; 1493 : 
; 1494 : 	void _Pop_back_n(size_type _Count)
; 1495 : 		{	// erase _Count elements at end
; 1496 : 		pointer _Ptr = this->_Mylast - _Count;
; 1497 : 
; 1498 :  #if _ITERATOR_DEBUG_LEVEL == 2
; 1499 : 		_Orphan_range(_Ptr, this->_Mylast);
; 1500 :  #endif /* _ITERATOR_DEBUG_LEVEL == 2 */
; 1501 : 
; 1502 : 		_Destroy(_Ptr, this->_Mylast);
; 1503 : 		this->_Mylast = _Ptr;
; 1504 : 		}
; 1505 : 
; 1506 : 	void clear() _NOEXCEPT
; 1507 : 		{	// erase all
; 1508 : 		this->_Orphan_all();
; 1509 : 		_Destroy(this->_Myfirst, this->_Mylast);
; 1510 : 		this->_Mylast = this->_Myfirst;
; 1511 : 		}
; 1512 : 
; 1513 : 	void swap(_Myt& _Right)
; 1514 : 		{	// exchange contents with _Right
; 1515 : 		if (this == &_Right)
