; Listing generated by Microsoft (R) Optimizing Compiler Version 18.00.40629.0 

	TITLE	D:\Metin2\Metin2\client_source_clean\client_source_clean\source\UserInterface\MarkManager.cpp
	.686P
	.XMM
	include listing.inc
	.model	flat

INCLUDELIB OLDNAMES

PUBLIC	??_C@_04KJJCFCK@mark?$AA@			; `string'
PUBLIC	??_C@_0BA@BKPHNHHG@mark?1?$CFs_?$CFlu?4tga?$AA@	; `string'
PUBLIC	??_C@_0O@OILHOJMF@mark?1?$CFs_index?$AA@	; `string'
PUBLIC	??_C@_01KDCPPGHE@r?$AA@				; `string'
PUBLIC	??_C@_07HJBKDJLI@?$CFlu?5?$CFlu?$AA@		; `string'
PUBLIC	??_C@_01NOFIACDB@w?$AA@				; `string'
PUBLIC	??_C@_0DD@DCHMIIOP@MarkManager?3?3SaveMarkData?3?5canno@ ; `string'
PUBLIC	??_C@_06IPGPIAII@?$CFd?5?$CFd?6?$AA@		; `string'
PUBLIC	??_C@_0CK@IKDHOBNC@MarkManager?3?3SaveMarkData?3?5index@ ; `string'
PUBLIC	??_C@_0BA@PBMNNCMH@?$CFs?5Save?5failed?6?$AA@	; `string'
PUBLIC	??_C@_0CL@HBDGKDCJ@CGuildMarkManager?3?5cannot?5alloc?5@ ; `string'
PUBLIC	??_C@_0BL@FIGDHGGB@SaveMark?3?5mark?5id?5alloc?5?$CFu?$AA@ ; `string'
PUBLIC	??_C@_0BL@DJLHMKOD@SaveMark?3?5mark?5id?5found?5?$CFu?$AA@ ; `string'
PUBLIC	??_C@_0L@GFEFCHNI@imgidx?5?$CFu?5?$AA@		; `string'
PUBLIC	??_C@_0P@PFBACHEK@invalid?5idx?5?$CFu?$AA@	; `string'
PUBLIC	??_C@_0CD@OFIJIOEB@Cannot?5open?5Symbol?5file?5?$CIname?3?5?$CF@ ; `string'
PUBLIC	??_C@_0CG@NOAPOIFA@GuildSymbolUpload?5guildID?5?$CFlu?5Si@ ; `string'
PUBLIC	??_R2CGuildMarkManager@@8			; CGuildMarkManager::`RTTI Base Class Array'
PUBLIC	??_R2?$singleton@VCGuildMarkManager@@@@8	; singleton<CGuildMarkManager>::`RTTI Base Class Array'
PUBLIC	??_R1A@?0A@EA@CGuildMarkManager@@8		; CGuildMarkManager::`RTTI Base Class Descriptor at (0,-1,0,64)'
PUBLIC	??_R1A@?0A@EA@?$singleton@VCGuildMarkManager@@@@8 ; singleton<CGuildMarkManager>::`RTTI Base Class Descriptor at (0,-1,0,64)'
PUBLIC	??_R3?$singleton@VCGuildMarkManager@@@@8	; singleton<CGuildMarkManager>::`RTTI Class Hierarchy Descriptor'
PUBLIC	??_R0?AV?$singleton@VCGuildMarkManager@@@@@8	; singleton<CGuildMarkManager> `RTTI Type Descriptor'
PUBLIC	??_R3CGuildMarkManager@@8			; CGuildMarkManager::`RTTI Class Hierarchy Descriptor'
PUBLIC	??_R0?AVCGuildMarkManager@@@8			; CGuildMarkManager `RTTI Type Descriptor'
PUBLIC	??_R4?$singleton@VCGuildMarkManager@@@@6B@	; singleton<CGuildMarkManager>::`RTTI Complete Object Locator'
PUBLIC	??_R4CGuildMarkManager@@6B@			; CGuildMarkManager::`RTTI Complete Object Locator'
PUBLIC	??_7?$singleton@VCGuildMarkManager@@@@6B@	; singleton<CGuildMarkManager>::`vftable'
PUBLIC	??_7CGuildMarkManager@@6B@			; CGuildMarkManager::`vftable'
EXTRN	_fprintf:PROC
EXTRN	__snprintf:PROC
EXTRN	__mkdir:PROC
;	COMDAT ??_7CGuildMarkManager@@6B@
CONST	SEGMENT
??_7CGuildMarkManager@@6B@ DD FLAT:??_R4CGuildMarkManager@@6B@ ; CGuildMarkManager::`vftable'
	DD	FLAT:??_ECGuildMarkManager@@UAEPAXI@Z
CONST	ENDS
;	COMDAT ??_7?$singleton@VCGuildMarkManager@@@@6B@
CONST	SEGMENT
??_7?$singleton@VCGuildMarkManager@@@@6B@ DD FLAT:??_R4?$singleton@VCGuildMarkManager@@@@6B@ ; singleton<CGuildMarkManager>::`vftable'
	DD	FLAT:??_E?$singleton@VCGuildMarkManager@@@@UAEPAXI@Z
CONST	ENDS
;	COMDAT ??_R4CGuildMarkManager@@6B@
rdata$r	SEGMENT
??_R4CGuildMarkManager@@6B@ DD 00H			; CGuildMarkManager::`RTTI Complete Object Locator'
	DD	00H
	DD	00H
	DD	FLAT:??_R0?AVCGuildMarkManager@@@8
	DD	FLAT:??_R3CGuildMarkManager@@8
rdata$r	ENDS
;	COMDAT ??_R4?$singleton@VCGuildMarkManager@@@@6B@
rdata$r	SEGMENT
??_R4?$singleton@VCGuildMarkManager@@@@6B@ DD 00H	; singleton<CGuildMarkManager>::`RTTI Complete Object Locator'
	DD	00H
	DD	00H
	DD	FLAT:??_R0?AV?$singleton@VCGuildMarkManager@@@@@8
	DD	FLAT:??_R3?$singleton@VCGuildMarkManager@@@@8
rdata$r	ENDS
;	COMDAT ??_R0?AVCGuildMarkManager@@@8
data$r	SEGMENT
??_R0?AVCGuildMarkManager@@@8 DD FLAT:??_7type_info@@6B@ ; CGuildMarkManager `RTTI Type Descriptor'
	DD	00H
	DB	'.?AVCGuildMarkManager@@', 00H
data$r	ENDS
;	COMDAT ??_R3CGuildMarkManager@@8
rdata$r	SEGMENT
??_R3CGuildMarkManager@@8 DD 00H			; CGuildMarkManager::`RTTI Class Hierarchy Descriptor'
	DD	00H
	DD	02H
	DD	FLAT:??_R2CGuildMarkManager@@8
rdata$r	ENDS
;	COMDAT ??_R0?AV?$singleton@VCGuildMarkManager@@@@@8
data$r	SEGMENT
??_R0?AV?$singleton@VCGuildMarkManager@@@@@8 DD FLAT:??_7type_info@@6B@ ; singleton<CGuildMarkManager> `RTTI Type Descriptor'
	DD	00H
	DB	'.?AV?$singleton@VCGuildMarkManager@@@@', 00H
data$r	ENDS
;	COMDAT ??_R3?$singleton@VCGuildMarkManager@@@@8
rdata$r	SEGMENT
??_R3?$singleton@VCGuildMarkManager@@@@8 DD 00H		; singleton<CGuildMarkManager>::`RTTI Class Hierarchy Descriptor'
	DD	00H
	DD	01H
	DD	FLAT:??_R2?$singleton@VCGuildMarkManager@@@@8
rdata$r	ENDS
;	COMDAT ??_R1A@?0A@EA@?$singleton@VCGuildMarkManager@@@@8
rdata$r	SEGMENT
??_R1A@?0A@EA@?$singleton@VCGuildMarkManager@@@@8 DD FLAT:??_R0?AV?$singleton@VCGuildMarkManager@@@@@8 ; singleton<CGuildMarkManager>::`RTTI Base Class Descriptor at (0,-1,0,64)'
	DD	00H
	DD	00H
	DD	0ffffffffH
	DD	00H
	DD	040H
	DD	FLAT:??_R3?$singleton@VCGuildMarkManager@@@@8
rdata$r	ENDS
;	COMDAT ??_R1A@?0A@EA@CGuildMarkManager@@8
rdata$r	SEGMENT
??_R1A@?0A@EA@CGuildMarkManager@@8 DD FLAT:??_R0?AVCGuildMarkManager@@@8 ; CGuildMarkManager::`RTTI Base Class Descriptor at (0,-1,0,64)'
	DD	01H
	DD	00H
	DD	0ffffffffH
	DD	00H
	DD	040H
	DD	FLAT:??_R3CGuildMarkManager@@8
rdata$r	ENDS
;	COMDAT ??_R2?$singleton@VCGuildMarkManager@@@@8
rdata$r	SEGMENT
??_R2?$singleton@VCGuildMarkManager@@@@8 DD FLAT:??_R1A@?0A@EA@?$singleton@VCGuildMarkManager@@@@8 ; singleton<CGuildMarkManager>::`RTTI Base Class Array'
rdata$r	ENDS
;	COMDAT ??_R2CGuildMarkManager@@8
rdata$r	SEGMENT
??_R2CGuildMarkManager@@8 DD FLAT:??_R1A@?0A@EA@CGuildMarkManager@@8 ; CGuildMarkManager::`RTTI Base Class Array'
	DD	FLAT:??_R1A@?0A@EA@?$singleton@VCGuildMarkManager@@@@8
rdata$r	ENDS
;	COMDAT ??_C@_0CG@NOAPOIFA@GuildSymbolUpload?5guildID?5?$CFlu?5Si@
CONST	SEGMENT
??_C@_0CG@NOAPOIFA@GuildSymbolUpload?5guildID?5?$CFlu?5Si@ DB 'GuildSymbo'
	DB	'lUpload guildID %lu Size %d', 00H		; `string'
CONST	ENDS
;	COMDAT ??_C@_0CD@OFIJIOEB@Cannot?5open?5Symbol?5file?5?$CIname?3?5?$CF@
CONST	SEGMENT
??_C@_0CD@OFIJIOEB@Cannot?5open?5Symbol?5file?5?$CIname?3?5?$CF@ DB 'Cann'
	DB	'ot open Symbol file (name: %s)', 00H	; `string'
CONST	ENDS
;	COMDAT ??_C@_0P@PFBACHEK@invalid?5idx?5?$CFu?$AA@
CONST	SEGMENT
??_C@_0P@PFBACHEK@invalid?5idx?5?$CFu?$AA@ DB 'invalid idx %u', 00H ; `string'
CONST	ENDS
;	COMDAT ??_C@_0L@GFEFCHNI@imgidx?5?$CFu?5?$AA@
CONST	SEGMENT
??_C@_0L@GFEFCHNI@imgidx?5?$CFu?5?$AA@ DB 'imgidx %u ', 00H ; `string'
CONST	ENDS
;	COMDAT ??_C@_0BL@DJLHMKOD@SaveMark?3?5mark?5id?5found?5?$CFu?$AA@
CONST	SEGMENT
??_C@_0BL@DJLHMKOD@SaveMark?3?5mark?5id?5found?5?$CFu?$AA@ DB 'SaveMark: '
	DB	'mark id found %u', 00H			; `string'
CONST	ENDS
;	COMDAT ??_C@_0BL@FIGDHGGB@SaveMark?3?5mark?5id?5alloc?5?$CFu?$AA@
CONST	SEGMENT
??_C@_0BL@FIGDHGGB@SaveMark?3?5mark?5id?5alloc?5?$CFu?$AA@ DB 'SaveMark: '
	DB	'mark id alloc %u', 00H			; `string'
CONST	ENDS
;	COMDAT ??_C@_0CL@HBDGKDCJ@CGuildMarkManager?3?5cannot?5alloc?5@
CONST	SEGMENT
??_C@_0CL@HBDGKDCJ@CGuildMarkManager?3?5cannot?5alloc?5@ DB 'CGuildMarkMa'
	DB	'nager: cannot alloc mark id %u', 00H	; `string'
CONST	ENDS
;	COMDAT ??_C@_0BA@PBMNNCMH@?$CFs?5Save?5failed?6?$AA@
CONST	SEGMENT
??_C@_0BA@PBMNNCMH@?$CFs?5Save?5failed?6?$AA@ DB '%s Save failed', 0aH, 00H ; `string'
CONST	ENDS
;	COMDAT ??_C@_0CK@IKDHOBNC@MarkManager?3?3SaveMarkData?3?5index@
CONST	SEGMENT
??_C@_0CK@IKDHOBNC@MarkManager?3?3SaveMarkData?3?5index@ DB 'MarkManager:'
	DB	':SaveMarkData: index count %d', 00H		; `string'
CONST	ENDS
;	COMDAT ??_C@_06IPGPIAII@?$CFd?5?$CFd?6?$AA@
CONST	SEGMENT
??_C@_06IPGPIAII@?$CFd?5?$CFd?6?$AA@ DB '%d %d', 0aH, 00H ; `string'
CONST	ENDS
;	COMDAT ??_C@_0DD@DCHMIIOP@MarkManager?3?3SaveMarkData?3?5canno@
CONST	SEGMENT
??_C@_0DD@DCHMIIOP@MarkManager?3?3SaveMarkData?3?5canno@ DB 'MarkManager:'
	DB	':SaveMarkData: cannot open index file.', 00H ; `string'
CONST	ENDS
;	COMDAT ??_C@_01NOFIACDB@w?$AA@
CONST	SEGMENT
??_C@_01NOFIACDB@w?$AA@ DB 'w', 00H			; `string'
CONST	ENDS
;	COMDAT ??_C@_07HJBKDJLI@?$CFlu?5?$CFlu?$AA@
CONST	SEGMENT
??_C@_07HJBKDJLI@?$CFlu?5?$CFlu?$AA@ DB '%lu %lu', 00H	; `string'
CONST	ENDS
;	COMDAT ??_C@_01KDCPPGHE@r?$AA@
CONST	SEGMENT
??_C@_01KDCPPGHE@r?$AA@ DB 'r', 00H			; `string'
CONST	ENDS
;	COMDAT ??_C@_0O@OILHOJMF@mark?1?$CFs_index?$AA@
CONST	SEGMENT
??_C@_0O@OILHOJMF@mark?1?$CFs_index?$AA@ DB 'mark/%s_index', 00H ; `string'
CONST	ENDS
;	COMDAT ??_C@_0BA@BKPHNHHG@mark?1?$CFs_?$CFlu?4tga?$AA@
CONST	SEGMENT
??_C@_0BA@BKPHNHHG@mark?1?$CFs_?$CFlu?4tga?$AA@ DB 'mark/%s_%lu.tga', 00H ; `string'
CONST	ENDS
;	COMDAT ??_C@_04KJJCFCK@mark?$AA@
CONST	SEGMENT
??_C@_04KJJCFCK@mark?$AA@ DB 'mark', 00H		; `string'
PUBLIC	??0?$tuple@$$$V@std@@QAE@XZ			; std::tuple<>::tuple<>
PUBLIC	?_Fill_n@std@@YAPAEPAEIE@Z			; std::_Fill_n
PUBLIC	??0?$tuple@$$$V@std@@QAE@ABV01@@Z		; std::tuple<>::tuple<>
PUBLIC	??$forward@PAVCGuildMarkImage@@@std@@YA$$QAPAVCGuildMarkImage@@AAPAV1@@Z ; std::forward<CGuildMarkImage *>
PUBLIC	??$get@$0A@ABK@std@@YAABK$$QAV?$tuple@ABK@0@@Z	; std::get<0,unsigned long const &>
PUBLIC	??$move@AAV?$tuple@ABK@std@@@std@@YA$$QAV?$tuple@ABK@0@AAV10@@Z ; std::move<std::tuple<unsigned long const &> &>
PUBLIC	??$?0$$CBKPAVCGuildMarkImage@@X@?$pair@$$CBKPAVCGuildMarkImage@@@std@@QAE@$$QAU01@@Z ; std::pair<unsigned long const ,CGuildMarkImage *>::pair<unsigned long const ,CGuildMarkImage *><unsigned long const ,CGuildMarkImage *,void>
PUBLIC	??$construct@U?$pair@$$CBKPAVCGuildMarkImage@@@std@@U12@@?$allocator@U?$_Tree_node@U?$pair@$$CBKPAVCGuildMarkImage@@@std@@PAX@std@@@std@@QAEXPAU?$pair@$$CBKPAVCGuildMarkImage@@@1@$$QAU21@@Z ; std::allocator<std::_Tree_node<std::pair<unsigned long const ,CGuildMarkImage *>,void *> >::construct<std::pair<unsigned long const ,CGuildMarkImage *>,std::pair<unsigned long const ,CGuildMarkImage *> >
PUBLIC	?_Get_rest@?$tuple@ABK@std@@QAEAAV?$tuple@$$$V@2@XZ ; std::tuple<unsigned long const &>::_Get_rest
PUBLIC	??$?0ABKPAPAX@?$tuple@ABK@std@@QAE@$$QAV01@@Z	; std::tuple<unsigned long const &>::tuple<unsigned long const &><unsigned long const &,void * *>
PUBLIC	??$construct@U?$pair@$$CBKPAVCGuildMarkImage@@@std@@U12@@?$allocator_traits@V?$allocator@U?$_Tree_node@U?$pair@$$CBKPAVCGuildMarkImage@@@std@@PAX@std@@@std@@@std@@SAXAAV?$allocator@U?$_Tree_node@U?$pair@$$CBKPAVCGuildMarkImage@@@std@@PAX@std@@@1@PAU?$pair@$$CBKPAVCGuildMarkImage@@@1@$$QAU31@@Z ; std::allocator_traits<std::allocator<std::_Tree_node<std::pair<unsigned long const ,CGuildMarkImage *>,void *> > >::construct<std::pair<unsigned long const ,CGuildMarkImage *>,std::pair<unsigned long const ,CGuildMarkImage *> >
PUBLIC	??$forward@ABE@std@@YAABEABE@Z			; std::forward<unsigned char const &>
PUBLIC	??$construct@U?$pair@$$CBKPAVCGuildMarkImage@@@std@@U12@@?$_Wrap_alloc@V?$allocator@U?$_Tree_node@U?$pair@$$CBKPAVCGuildMarkImage@@@std@@PAX@std@@@std@@@std@@QAEXPAU?$pair@$$CBKPAVCGuildMarkImage@@@1@$$QAU21@@Z ; std::_Wrap_alloc<std::allocator<std::_Tree_node<std::pair<unsigned long const ,CGuildMarkImage *>,void *> > >::construct<std::pair<unsigned long const ,CGuildMarkImage *>,std::pair<unsigned long const ,CGuildMarkImage *> >
PUBLIC	?_Freenode0@?$_Tree_buy@U?$pair@$$CBKPAVCGuildMarkImage@@@std@@V?$allocator@U?$pair@$$CBKPAVCGuildMarkImage@@@std@@@2@@std@@QAEXPAU?$_Tree_node@U?$pair@$$CBKPAVCGuildMarkImage@@@std@@PAX@2@@Z ; std::_Tree_buy<std::pair<unsigned long const ,CGuildMarkImage *>,std::allocator<std::pair<unsigned long const ,CGuildMarkImage *> > >::_Freenode0
PUBLIC	?_Buynode0@?$_Tree_buy@U?$pair@$$CBKPAVCGuildMarkImage@@@std@@V?$allocator@U?$pair@$$CBKPAVCGuildMarkImage@@@std@@@2@@std@@QAEPAU?$_Tree_node@U?$pair@$$CBKPAVCGuildMarkImage@@@std@@PAX@2@XZ ; std::_Tree_buy<std::pair<unsigned long const ,CGuildMarkImage *>,std::allocator<std::pair<unsigned long const ,CGuildMarkImage *> > >::_Buynode0
PUBLIC	??$_Uninit_move@EEE@std@@YAPAEPAE00AAU?$_Wrap_alloc@V?$allocator@E@std@@@0@0U_Scalar_ptr_iterator_tag@0@@Z ; std::_Uninit_move<unsigned char,unsigned char,unsigned char>
PUBLIC	??$_Buynode@U?$pair@$$CBKPAVCGuildMarkImage@@@std@@@?$_Tree_buy@U?$pair@$$CBKPAVCGuildMarkImage@@@std@@V?$allocator@U?$pair@$$CBKPAVCGuildMarkImage@@@std@@@2@@std@@QAEPAU?$_Tree_node@U?$pair@$$CBKPAVCGuildMarkImage@@@std@@PAX@1@$$QAU?$pair@$$CBKPAVCGuildMarkImage@@@1@@Z ; std::_Tree_buy<std::pair<unsigned long const ,CGuildMarkImage *>,std::allocator<std::pair<unsigned long const ,CGuildMarkImage *> > >::_Buynode<std::pair<unsigned long const ,CGuildMarkImage *> >
PUBLIC	??1?$pair@$$CBKUTGuildSymbol@CGuildMarkManager@@@std@@QAE@XZ ; std::pair<unsigned long const ,CGuildMarkManager::TGuildSymbol>::~pair<unsigned long const ,CGuildMarkManager::TGuildSymbol>
PUBLIC	??_G?$pair@$$CBKUTGuildSymbol@CGuildMarkManager@@@std@@QAEPAXI@Z ; std::pair<unsigned long const ,CGuildMarkManager::TGuildSymbol>::`scalar deleting destructor'
PUBLIC	??$construct@PAU?$_Tree_node@U?$pair@$$CBKUTGuildSymbol@CGuildMarkManager@@@std@@PAX@std@@AAPAU12@@?$allocator@U?$_Tree_node@U?$pair@$$CBKUTGuildSymbol@CGuildMarkManager@@@std@@PAX@std@@@std@@QAEXPAPAU?$_Tree_node@U?$pair@$$CBKUTGuildSymbol@CGuildMarkManager@@@std@@PAX@1@AAPAU21@@Z ; std::allocator<std::_Tree_node<std::pair<unsigned long const ,CGuildMarkManager::TGuildSymbol>,void *> >::construct<std::_Tree_node<std::pair<unsigned long const ,CGuildMarkManager::TGuildSymbol>,void *> *,std::_Tree_node<std::pair<unsigned long const ,CGuildMarkManager::TGuildSymbol>,void *> * &>
PUBLIC	??$construct@PAU?$_Tree_node@U?$pair@$$CBKPAVCGuildMarkImage@@@std@@PAX@std@@AAPAU12@@?$allocator@U?$_Tree_node@U?$pair@$$CBKPAVCGuildMarkImage@@@std@@PAX@std@@@std@@QAEXPAPAU?$_Tree_node@U?$pair@$$CBKPAVCGuildMarkImage@@@std@@PAX@1@AAPAU21@@Z ; std::allocator<std::_Tree_node<std::pair<unsigned long const ,CGuildMarkImage *>,void *> >::construct<std::_Tree_node<std::pair<unsigned long const ,CGuildMarkImage *>,void *> *,std::_Tree_node<std::pair<unsigned long const ,CGuildMarkImage *>,void *> * &>
PUBLIC	??$destroy@U?$pair@$$CBKUTGuildSymbol@CGuildMarkManager@@@std@@@?$allocator@U?$_Tree_node@U?$pair@$$CBKUTGuildSymbol@CGuildMarkManager@@@std@@PAX@std@@@std@@QAEXPAU?$pair@$$CBKUTGuildSymbol@CGuildMarkManager@@@1@@Z ; std::allocator<std::_Tree_node<std::pair<unsigned long const ,CGuildMarkManager::TGuildSymbol>,void *> >::destroy<std::pair<unsigned long const ,CGuildMarkManager::TGuildSymbol> >
PUBLIC	??$destroy@PAU?$_Tree_node@U?$pair@$$CBKUTGuildSymbol@CGuildMarkManager@@@std@@PAX@std@@@?$allocator@U?$_Tree_node@U?$pair@$$CBKUTGuildSymbol@CGuildMarkManager@@@std@@PAX@std@@@std@@QAEXPAPAU?$_Tree_node@U?$pair@$$CBKUTGuildSymbol@CGuildMarkManager@@@std@@PAX@1@@Z ; std::allocator<std::_Tree_node<std::pair<unsigned long const ,CGuildMarkManager::TGuildSymbol>,void *> >::destroy<std::_Tree_node<std::pair<unsigned long const ,CGuildMarkManager::TGuildSymbol>,void *> *>
PUBLIC	??$destroy@PAU?$_Tree_node@U?$pair@$$CBKPAVCGuildMarkImage@@@std@@PAX@std@@@?$allocator@U?$_Tree_node@U?$pair@$$CBKPAVCGuildMarkImage@@@std@@PAX@std@@@std@@QAEXPAPAU?$_Tree_node@U?$pair@$$CBKPAVCGuildMarkImage@@@std@@PAX@1@@Z ; std::allocator<std::_Tree_node<std::pair<unsigned long const ,CGuildMarkImage *>,void *> >::destroy<std::_Tree_node<std::pair<unsigned long const ,CGuildMarkImage *>,void *> *>
PUBLIC	??$destroy@U?$pair@$$CBKPAVCGuildMarkImage@@@std@@@?$allocator@U?$_Tree_node@U?$pair@$$CBKPAVCGuildMarkImage@@@std@@PAX@std@@@std@@QAEXPAU?$pair@$$CBKPAVCGuildMarkImage@@@1@@Z ; std::allocator<std::_Tree_node<std::pair<unsigned long const ,CGuildMarkImage *>,void *> >::destroy<std::pair<unsigned long const ,CGuildMarkImage *> >
PUBLIC	??$_Rechecked@PAEPAE@std@@YAAAPAEAAPAEPAE@Z	; std::_Rechecked<unsigned char *,unsigned char *>
PUBLIC	??$_Uninit_move@PAEPAEU?$_Wrap_alloc@V?$allocator@E@std@@@std@@@std@@YAPAEPAE00AAU?$_Wrap_alloc@V?$allocator@E@std@@@0@@Z ; std::_Uninit_move<unsigned char *,unsigned char *,std::_Wrap_alloc<std::allocator<unsigned char> > >
PUBLIC	??$_Unchecked@PAE@std@@YAPAEPAE@Z		; std::_Unchecked<unsigned char *>
PUBLIC	??$forward@AAV?$_Tree_iterator@V?$_Tree_val@U?$_Tree_simple_types@U?$pair@$$CBKPAVCGuildMarkImage@@@std@@@std@@@std@@@std@@@std@@YAAAV?$_Tree_iterator@V?$_Tree_val@U?$_Tree_simple_types@U?$pair@$$CBKPAVCGuildMarkImage@@@std@@@std@@@std@@@0@AAV10@@Z ; std::forward<std::_Tree_iterator<std::_Tree_val<std::_Tree_simple_types<std::pair<unsigned long const ,CGuildMarkImage *> > > > &>
PUBLIC	??$forward@V?$_Tree_iterator@V?$_Tree_val@U?$_Tree_simple_types@U?$pair@$$CBKPAVCGuildMarkImage@@@std@@@std@@@std@@@std@@@std@@YA$$QAV?$_Tree_iterator@V?$_Tree_val@U?$_Tree_simple_types@U?$pair@$$CBKPAVCGuildMarkImage@@@std@@@std@@@std@@@0@AAV10@@Z ; std::forward<std::_Tree_iterator<std::_Tree_val<std::_Tree_simple_types<std::pair<unsigned long const ,CGuildMarkImage *> > > > >
PUBLIC	??$_Buynode_if_nil@U?$pair@$$CBKPAVCGuildMarkImage@@@std@@@?$_Tree@V?$_Tmap_traits@KPAVCGuildMarkImage@@U?$less@K@std@@V?$allocator@U?$pair@$$CBKPAVCGuildMarkImage@@@std@@@3@$0A@@std@@@std@@IAEPAU?$_Tree_node@U?$pair@$$CBKPAVCGuildMarkImage@@@std@@PAX@1@U_Nil@1@$$QAU?$pair@$$CBKPAVCGuildMarkImage@@@1@@Z ; std::_Tree<std::_Tmap_traits<unsigned long,CGuildMarkImage *,std::less<unsigned long>,std::allocator<std::pair<unsigned long const ,CGuildMarkImage *> >,0> >::_Buynode_if_nil<std::pair<unsigned long const ,CGuildMarkImage *> >
PUBLIC	?max_size@?$allocator@U?$_Tree_node@U?$pair@$$CBKPAVCGuildMarkImage@@@std@@PAX@std@@@std@@QBEIXZ ; std::allocator<std::_Tree_node<std::pair<unsigned long const ,CGuildMarkImage *>,void *> >::max_size
PUBLIC	?max_size@?$allocator_traits@V?$allocator@U?$_Tree_node@U?$pair@$$CBKPAVCGuildMarkImage@@@std@@PAX@std@@@std@@@std@@SAIABV?$allocator@U?$_Tree_node@U?$pair@$$CBKPAVCGuildMarkImage@@@std@@PAX@std@@@2@@Z ; std::allocator_traits<std::allocator<std::_Tree_node<std::pair<unsigned long const ,CGuildMarkImage *>,void *> > >::max_size
PUBLIC	?max_size@?$_Wrap_alloc@V?$allocator@U?$_Tree_node@U?$pair@$$CBKPAVCGuildMarkImage@@@std@@PAX@std@@@std@@@std@@QBEIXZ ; std::_Wrap_alloc<std::allocator<std::_Tree_node<std::pair<unsigned long const ,CGuildMarkImage *>,void *> > >::max_size
PUBLIC	?_Buy@?$vector@EV?$allocator@E@std@@@std@@IAE_NI@Z ; std::vector<unsigned char,std::allocator<unsigned char> >::_Buy
PUBLIC	?max_size@?$_Tree@V?$_Tmap_traits@KPAVCGuildMarkImage@@U?$less@K@std@@V?$allocator@U?$pair@$$CBKPAVCGuildMarkImage@@@std@@@3@$0A@@std@@@std@@QBEIXZ ; std::_Tree<std::_Tmap_traits<unsigned long,CGuildMarkImage *,std::less<unsigned long>,std::allocator<std::pair<unsigned long const ,CGuildMarkImage *> >,0> >::max_size
PUBLIC	??$?0ABK@?$_Tuple_val@ABK@std@@QAE@ABK@Z	; std::_Tuple_val<unsigned long const &>::_Tuple_val<unsigned long const &><unsigned long const &>
PUBLIC	??$construct@PAU?$_Tree_node@U?$pair@$$CBKUTGuildSymbol@CGuildMarkManager@@@std@@PAX@std@@AAPAU12@@?$allocator_traits@V?$allocator@U?$_Tree_node@U?$pair@$$CBKUTGuildSymbol@CGuildMarkManager@@@std@@PAX@std@@@std@@@std@@SAXAAV?$allocator@U?$_Tree_node@U?$pair@$$CBKUTGuildSymbol@CGuildMarkManager@@@std@@PAX@std@@@1@PAPAU?$_Tree_node@U?$pair@$$CBKUTGuildSymbol@CGuildMarkManager@@@std@@PAX@1@AAPAU31@@Z ; std::allocator_traits<std::allocator<std::_Tree_node<std::pair<unsigned long const ,CGuildMarkManager::TGuildSymbol>,void *> > >::construct<std::_Tree_node<std::pair<unsigned long const ,CGuildMarkManager::TGuildSymbol>,void *> *,std::_Tree_node<std::pair<unsigned long const ,CGuildMarkManager::TGuildSymbol>,void *> * &>
PUBLIC	??$forward@AAPAU?$_Tree_node@U?$pair@$$CBKUTGuildSymbol@CGuildMarkManager@@@std@@PAX@std@@@std@@YAAAPAU?$_Tree_node@U?$pair@$$CBKUTGuildSymbol@CGuildMarkManager@@@std@@PAX@0@AAPAU10@@Z ; std::forward<std::_Tree_node<std::pair<unsigned long const ,CGuildMarkManager::TGuildSymbol>,void *> * &>
PUBLIC	??$construct@PAU?$_Tree_node@U?$pair@$$CBKPAVCGuildMarkImage@@@std@@PAX@std@@AAPAU12@@?$allocator_traits@V?$allocator@U?$_Tree_node@U?$pair@$$CBKPAVCGuildMarkImage@@@std@@PAX@std@@@std@@@std@@SAXAAV?$allocator@U?$_Tree_node@U?$pair@$$CBKPAVCGuildMarkImage@@@std@@PAX@std@@@1@PAPAU?$_Tree_node@U?$pair@$$CBKPAVCGuildMarkImage@@@std@@PAX@1@AAPAU31@@Z ; std::allocator_traits<std::allocator<std::_Tree_node<std::pair<unsigned long const ,CGuildMarkImage *>,void *> > >::construct<std::_Tree_node<std::pair<unsigned long const ,CGuildMarkImage *>,void *> *,std::_Tree_node<std::pair<unsigned long const ,CGuildMarkImage *>,void *> * &>
PUBLIC	??$forward@AAPAU?$_Tree_node@U?$pair@$$CBKPAVCGuildMarkImage@@@std@@PAX@std@@@std@@YAAAPAU?$_Tree_node@U?$pair@$$CBKPAVCGuildMarkImage@@@std@@PAX@0@AAPAU10@@Z ; std::forward<std::_Tree_node<std::pair<unsigned long const ,CGuildMarkImage *>,void *> * &>
PUBLIC	??$destroy@U?$pair@$$CBKUTGuildSymbol@CGuildMarkManager@@@std@@@?$allocator_traits@V?$allocator@U?$_Tree_node@U?$pair@$$CBKUTGuildSymbol@CGuildMarkManager@@@std@@PAX@std@@@std@@@std@@SAXAAV?$allocator@U?$_Tree_node@U?$pair@$$CBKUTGuildSymbol@CGuildMarkManager@@@std@@PAX@std@@@1@PAU?$pair@$$CBKUTGuildSymbol@CGuildMarkManager@@@1@@Z ; std::allocator_traits<std::allocator<std::_Tree_node<std::pair<unsigned long const ,CGuildMarkManager::TGuildSymbol>,void *> > >::destroy<std::pair<unsigned long const ,CGuildMarkManager::TGuildSymbol> >
PUBLIC	??$destroy@PAU?$_Tree_node@U?$pair@$$CBKUTGuildSymbol@CGuildMarkManager@@@std@@PAX@std@@@?$allocator_traits@V?$allocator@U?$_Tree_node@U?$pair@$$CBKUTGuildSymbol@CGuildMarkManager@@@std@@PAX@std@@@std@@@std@@SAXAAV?$allocator@U?$_Tree_node@U?$pair@$$CBKUTGuildSymbol@CGuildMarkManager@@@std@@PAX@std@@@1@PAPAU?$_Tree_node@U?$pair@$$CBKUTGuildSymbol@CGuildMarkManager@@@std@@PAX@1@@Z ; std::allocator_traits<std::allocator<std::_Tree_node<std::pair<unsigned long const ,CGuildMarkManager::TGuildSymbol>,void *> > >::destroy<std::_Tree_node<std::pair<unsigned long const ,CGuildMarkManager::TGuildSymbol>,void *> *>
PUBLIC	??$destroy@PAU?$_Tree_node@U?$pair@$$CBKPAVCGuildMarkImage@@@std@@PAX@std@@@?$allocator_traits@V?$allocator@U?$_Tree_node@U?$pair@$$CBKPAVCGuildMarkImage@@@std@@PAX@std@@@std@@@std@@SAXAAV?$allocator@U?$_Tree_node@U?$pair@$$CBKPAVCGuildMarkImage@@@std@@PAX@std@@@1@PAPAU?$_Tree_node@U?$pair@$$CBKPAVCGuildMarkImage@@@std@@PAX@1@@Z ; std::allocator_traits<std::allocator<std::_Tree_node<std::pair<unsigned long const ,CGuildMarkImage *>,void *> > >::destroy<std::_Tree_node<std::pair<unsigned long const ,CGuildMarkImage *>,void *> *>
PUBLIC	??$destroy@U?$pair@$$CBKPAVCGuildMarkImage@@@std@@@?$allocator_traits@V?$allocator@U?$_Tree_node@U?$pair@$$CBKPAVCGuildMarkImage@@@std@@PAX@std@@@std@@@std@@SAXAAV?$allocator@U?$_Tree_node@U?$pair@$$CBKPAVCGuildMarkImage@@@std@@PAX@std@@@1@PAU?$pair@$$CBKPAVCGuildMarkImage@@@1@@Z ; std::allocator_traits<std::allocator<std::_Tree_node<std::pair<unsigned long const ,CGuildMarkImage *>,void *> > >::destroy<std::pair<unsigned long const ,CGuildMarkImage *> >
PUBLIC	??$_Uninitialized_move@PAEPAEU?$_Wrap_alloc@V?$allocator@E@std@@@std@@@std@@YAPAEPAE00AAU?$_Wrap_alloc@V?$allocator@E@std@@@0@@Z ; std::_Uninitialized_move<unsigned char *,unsigned char *,std::_Wrap_alloc<std::allocator<unsigned char> > >
PUBLIC	??$_Destroy_range@U?$_Wrap_alloc@V?$allocator@E@std@@@std@@@std@@YAXPAE0AAU?$_Wrap_alloc@V?$allocator@E@std@@@0@U_Scalar_ptr_iterator_tag@0@@Z ; std::_Destroy_range<std::_Wrap_alloc<std::allocator<unsigned char> > >
PUBLIC	??$forward@V?$tuple@$$$V@std@@@std@@YA$$QAV?$tuple@$$$V@0@AAV10@@Z ; std::forward<std::tuple<> >
PUBLIC	??$forward@V?$tuple@ABK@std@@@std@@YA$$QAV?$tuple@ABK@0@AAV10@@Z ; std::forward<std::tuple<unsigned long const &> >
PUBLIC	??$forward@ABUpiecewise_construct_t@std@@@std@@YAABUpiecewise_construct_t@0@ABU10@@Z ; std::forward<std::piecewise_construct_t const &>
PUBLIC	??$?0AAV?$_Tree_iterator@V?$_Tree_val@U?$_Tree_simple_types@U?$pair@$$CBKPAVCGuildMarkImage@@@std@@@std@@@std@@@std@@_NX@?$pair@V?$_Tree_iterator@V?$_Tree_val@U?$_Tree_simple_types@U?$pair@$$CBKPAVCGuildMarkImage@@@std@@@std@@@std@@@std@@_N@std@@QAE@AAV?$_Tree_iterator@V?$_Tree_val@U?$_Tree_simple_types@U?$pair@$$CBKPAVCGuildMarkImage@@@std@@@std@@@std@@@1@$$QA_N@Z ; std::pair<std::_Tree_iterator<std::_Tree_val<std::_Tree_simple_types<std::pair<unsigned long const ,CGuildMarkImage *> > > >,bool>::pair<std::_Tree_iterator<std::_Tree_val<std::_Tree_simple_types<std::pair<unsigned long const ,CGuildMarkImage *> > > >,bool><std::_Tree_iterator<std::_Tree_val<std::_Tree_simple_types<std::pair<unsigned long const ,CGuildMarkImage *> > > > &,bool,void>
PUBLIC	??$?0V?$_Tree_iterator@V?$_Tree_val@U?$_Tree_simple_types@U?$pair@$$CBKPAVCGuildMarkImage@@@std@@@std@@@std@@@std@@_NX@?$pair@V?$_Tree_iterator@V?$_Tree_val@U?$_Tree_simple_types@U?$pair@$$CBKPAVCGuildMarkImage@@@std@@@std@@@std@@@std@@_N@std@@QAE@$$QAV?$_Tree_iterator@V?$_Tree_val@U?$_Tree_simple_types@U?$pair@$$CBKPAVCGuildMarkImage@@@std@@@std@@@std@@@1@$$QA_N@Z ; std::pair<std::_Tree_iterator<std::_Tree_val<std::_Tree_simple_types<std::pair<unsigned long const ,CGuildMarkImage *> > > >,bool>::pair<std::_Tree_iterator<std::_Tree_val<std::_Tree_simple_types<std::pair<unsigned long const ,CGuildMarkImage *> > > >,bool><std::_Tree_iterator<std::_Tree_val<std::_Tree_simple_types<std::pair<unsigned long const ,CGuildMarkImage *> > > >,bool,void>
PUBLIC	??$_Insert_at@U?$pair@$$CBKPAVCGuildMarkImage@@@std@@U_Nil@2@@?$_Tree@V?$_Tmap_traits@KPAVCGuildMarkImage@@U?$less@K@std@@V?$allocator@U?$pair@$$CBKPAVCGuildMarkImage@@@std@@@3@$0A@@std@@@std@@IAE?AV?$_Tree_iterator@V?$_Tree_val@U?$_Tree_simple_types@U?$pair@$$CBKPAVCGuildMarkImage@@@std@@@std@@@std@@@1@_NPAU?$_Tree_node@U?$pair@$$CBKPAVCGuildMarkImage@@@std@@PAX@1@$$QAU?$pair@$$CBKPAVCGuildMarkImage@@@1@U_Nil@1@@Z ; std::_Tree<std::_Tmap_traits<unsigned long,CGuildMarkImage *,std::less<unsigned long>,std::allocator<std::pair<unsigned long const ,CGuildMarkImage *> >,0> >::_Insert_at<std::pair<unsigned long const ,CGuildMarkImage *>,std::_Nil>
PUBLIC	??$_Uninit_def_fill_n@EIE@std@@YAXPAEIAAU?$_Wrap_alloc@V?$allocator@E@std@@@0@0U_Scalar_ptr_iterator_tag@0@@Z ; std::_Uninit_def_fill_n<unsigned char,unsigned int,unsigned char>
PUBLIC	??$_Ptr_cat@EE@std@@YA?AU_Scalar_ptr_iterator_tag@0@PAE0@Z ; std::_Ptr_cat<unsigned char,unsigned char>
PUBLIC	??$_Val_type@PAE@std@@YAPAEPAE@Z		; std::_Val_type<unsigned char *>
PUBLIC	??$forward@AAPAVCGuildMarkImage@@@std@@YAAAPAVCGuildMarkImage@@AAPAV1@@Z ; std::forward<CGuildMarkImage * &>
PUBLIC	??F?$_Tree_unchecked_const_iterator@V?$_Tree_val@U?$_Tree_simple_types@U?$pair@$$CBKPAVCGuildMarkImage@@@std@@@std@@@std@@U_Iterator_base0@2@@std@@QAEAAV01@XZ ; std::_Tree_unchecked_const_iterator<std::_Tree_val<std::_Tree_simple_types<std::pair<unsigned long const ,CGuildMarkImage *> > >,std::_Iterator_base0>::operator--
PUBLIC	??F?$_Tree_const_iterator@V?$_Tree_val@U?$_Tree_simple_types@U?$pair@$$CBKPAVCGuildMarkImage@@@std@@@std@@@std@@@std@@QAEAAV01@XZ ; std::_Tree_const_iterator<std::_Tree_val<std::_Tree_simple_types<std::pair<unsigned long const ,CGuildMarkImage *> > > >::operator--
PUBLIC	??0?$tuple@ABK@std@@QAE@ABK@Z			; std::tuple<unsigned long const &>::tuple<unsigned long const &>
PUBLIC	??F?$_Tree_iterator@V?$_Tree_val@U?$_Tree_simple_types@U?$pair@$$CBKPAVCGuildMarkImage@@@std@@@std@@@std@@@std@@QAEAAV01@XZ ; std::_Tree_iterator<std::_Tree_val<std::_Tree_simple_types<std::pair<unsigned long const ,CGuildMarkImage *> > > >::operator--
PUBLIC	?_Destroy_if_not_nil@?$_Tree@V?$_Tmap_traits@KPAVCGuildMarkImage@@U?$less@K@std@@V?$allocator@U?$pair@$$CBKPAVCGuildMarkImage@@@std@@@3@$0A@@std@@@std@@IAEXU_Nil@2@@Z ; std::_Tree<std::_Tmap_traits<unsigned long,CGuildMarkImage *,std::less<unsigned long>,std::allocator<std::pair<unsigned long const ,CGuildMarkImage *> >,0> >::_Destroy_if_not_nil
PUBLIC	??$_Allocate@U?$_Tree_node@U?$pair@$$CBKUTGuildSymbol@CGuildMarkManager@@@std@@PAX@std@@@std@@YAPAU?$_Tree_node@U?$pair@$$CBKUTGuildSymbol@CGuildMarkManager@@@std@@PAX@0@IPAU10@@Z ; std::_Allocate<std::_Tree_node<std::pair<unsigned long const ,CGuildMarkManager::TGuildSymbol>,void *> >
PUBLIC	??$_Allocate@U?$_Tree_node@U?$pair@$$CBKPAVCGuildMarkImage@@@std@@PAX@std@@@std@@YAPAU?$_Tree_node@U?$pair@$$CBKPAVCGuildMarkImage@@@std@@PAX@0@IPAU10@@Z ; std::_Allocate<std::_Tree_node<std::pair<unsigned long const ,CGuildMarkImage *>,void *> >
PUBLIC	??$construct@PAU?$_Tree_node@U?$pair@$$CBKUTGuildSymbol@CGuildMarkManager@@@std@@PAX@std@@AAPAU12@@?$_Wrap_alloc@V?$allocator@U?$_Tree_node@U?$pair@$$CBKUTGuildSymbol@CGuildMarkManager@@@std@@PAX@std@@@std@@@std@@QAEXPAPAU?$_Tree_node@U?$pair@$$CBKUTGuildSymbol@CGuildMarkManager@@@std@@PAX@1@AAPAU21@@Z ; std::_Wrap_alloc<std::allocator<std::_Tree_node<std::pair<unsigned long const ,CGuildMarkManager::TGuildSymbol>,void *> > >::construct<std::_Tree_node<std::pair<unsigned long const ,CGuildMarkManager::TGuildSymbol>,void *> *,std::_Tree_node<std::pair<unsigned long const ,CGuildMarkManager::TGuildSymbol>,void *> * &>
PUBLIC	??$construct@PAU?$_Tree_node@U?$pair@$$CBKPAVCGuildMarkImage@@@std@@PAX@std@@AAPAU12@@?$_Wrap_alloc@V?$allocator@U?$_Tree_node@U?$pair@$$CBKPAVCGuildMarkImage@@@std@@PAX@std@@@std@@@std@@QAEXPAPAU?$_Tree_node@U?$pair@$$CBKPAVCGuildMarkImage@@@std@@PAX@1@AAPAU21@@Z ; std::_Wrap_alloc<std::allocator<std::_Tree_node<std::pair<unsigned long const ,CGuildMarkImage *>,void *> > >::construct<std::_Tree_node<std::pair<unsigned long const ,CGuildMarkImage *>,void *> *,std::_Tree_node<std::pair<unsigned long const ,CGuildMarkImage *>,void *> * &>
PUBLIC	??$destroy@U?$pair@$$CBKUTGuildSymbol@CGuildMarkManager@@@std@@@?$_Wrap_alloc@V?$allocator@U?$_Tree_node@U?$pair@$$CBKUTGuildSymbol@CGuildMarkManager@@@std@@PAX@std@@@std@@@std@@QAEXPAU?$pair@$$CBKUTGuildSymbol@CGuildMarkManager@@@1@@Z ; std::_Wrap_alloc<std::allocator<std::_Tree_node<std::pair<unsigned long const ,CGuildMarkManager::TGuildSymbol>,void *> > >::destroy<std::pair<unsigned long const ,CGuildMarkManager::TGuildSymbol> >
PUBLIC	??$_Allocate@E@std@@YAPAEIPAE@Z			; std::_Allocate<unsigned char>
PUBLIC	??$destroy@PAU?$_Tree_node@U?$pair@$$CBKUTGuildSymbol@CGuildMarkManager@@@std@@PAX@std@@@?$_Wrap_alloc@V?$allocator@U?$_Tree_node@U?$pair@$$CBKUTGuildSymbol@CGuildMarkManager@@@std@@PAX@std@@@std@@@std@@QAEXPAPAU?$_Tree_node@U?$pair@$$CBKUTGuildSymbol@CGuildMarkManager@@@std@@PAX@1@@Z ; std::_Wrap_alloc<std::allocator<std::_Tree_node<std::pair<unsigned long const ,CGuildMarkManager::TGuildSymbol>,void *> > >::destroy<std::_Tree_node<std::pair<unsigned long const ,CGuildMarkManager::TGuildSymbol>,void *> *>
PUBLIC	??$addressof@PAU?$_Tree_node@U?$pair@$$CBKUTGuildSymbol@CGuildMarkManager@@@std@@PAX@std@@@std@@YAPAPAU?$_Tree_node@U?$pair@$$CBKUTGuildSymbol@CGuildMarkManager@@@std@@PAX@0@AAPAU10@@Z ; std::addressof<std::_Tree_node<std::pair<unsigned long const ,CGuildMarkManager::TGuildSymbol>,void *> *>
PUBLIC	??$destroy@PAU?$_Tree_node@U?$pair@$$CBKPAVCGuildMarkImage@@@std@@PAX@std@@@?$_Wrap_alloc@V?$allocator@U?$_Tree_node@U?$pair@$$CBKPAVCGuildMarkImage@@@std@@PAX@std@@@std@@@std@@QAEXPAPAU?$_Tree_node@U?$pair@$$CBKPAVCGuildMarkImage@@@std@@PAX@1@@Z ; std::_Wrap_alloc<std::allocator<std::_Tree_node<std::pair<unsigned long const ,CGuildMarkImage *>,void *> > >::destroy<std::_Tree_node<std::pair<unsigned long const ,CGuildMarkImage *>,void *> *>
PUBLIC	??$addressof@PAU?$_Tree_node@U?$pair@$$CBKPAVCGuildMarkImage@@@std@@PAX@std@@@std@@YAPAPAU?$_Tree_node@U?$pair@$$CBKPAVCGuildMarkImage@@@std@@PAX@0@AAPAU10@@Z ; std::addressof<std::_Tree_node<std::pair<unsigned long const ,CGuildMarkImage *>,void *> *>
PUBLIC	??$_Kfn@$$CBKPAVCGuildMarkImage@@@?$_Tmap_traits@KPAVCGuildMarkImage@@U?$less@K@std@@V?$allocator@U?$pair@$$CBKPAVCGuildMarkImage@@@std@@@3@$0A@@std@@SAABKABU?$pair@$$CBKPAVCGuildMarkImage@@@1@@Z ; std::_Tmap_traits<unsigned long,CGuildMarkImage *,std::less<unsigned long>,std::allocator<std::pair<unsigned long const ,CGuildMarkImage *> >,0>::_Kfn<unsigned long const ,CGuildMarkImage *>
PUBLIC	??$addressof@U?$pair@$$CBKUTGuildSymbol@CGuildMarkManager@@@std@@@std@@YAPAU?$pair@$$CBKUTGuildSymbol@CGuildMarkManager@@@0@AAU10@@Z ; std::addressof<std::pair<unsigned long const ,CGuildMarkManager::TGuildSymbol> >
PUBLIC	??$destroy@U?$pair@$$CBKPAVCGuildMarkImage@@@std@@@?$_Wrap_alloc@V?$allocator@U?$_Tree_node@U?$pair@$$CBKPAVCGuildMarkImage@@@std@@PAX@std@@@std@@@std@@QAEXPAU?$pair@$$CBKPAVCGuildMarkImage@@@1@@Z ; std::_Wrap_alloc<std::allocator<std::_Tree_node<std::pair<unsigned long const ,CGuildMarkImage *>,void *> > >::destroy<std::pair<unsigned long const ,CGuildMarkImage *> >
PUBLIC	??$addressof@U?$pair@$$CBKPAVCGuildMarkImage@@@std@@@std@@YAPAU?$pair@$$CBKPAVCGuildMarkImage@@@0@AAU10@@Z ; std::addressof<std::pair<unsigned long const ,CGuildMarkImage *> >
PUBLIC	??$_Umove@PAE@?$vector@EV?$allocator@E@std@@@std@@IAEPAEPAE00@Z ; std::vector<unsigned char,std::allocator<unsigned char> >::_Umove<unsigned char *>
PUBLIC	??$_Destroy_range@U?$_Wrap_alloc@V?$allocator@E@std@@@std@@@std@@YAXPAE0AAU?$_Wrap_alloc@V?$allocator@E@std@@@0@@Z ; std::_Destroy_range<std::_Wrap_alloc<std::allocator<unsigned char> > >
PUBLIC	??$forward_as_tuple@ABK@std@@YA?AV?$tuple@ABK@0@ABK@Z ; std::forward_as_tuple<unsigned long const &>
PUBLIC	??$_Insert_nohint@U?$pair@$$CBKPAVCGuildMarkImage@@@std@@U_Nil@2@@?$_Tree@V?$_Tmap_traits@KPAVCGuildMarkImage@@U?$less@K@std@@V?$allocator@U?$pair@$$CBKPAVCGuildMarkImage@@@std@@@3@$0A@@std@@@std@@IAE?AU?$pair@V?$_Tree_iterator@V?$_Tree_val@U?$_Tree_simple_types@U?$pair@$$CBKPAVCGuildMarkImage@@@std@@@std@@@std@@@std@@_N@1@_N$$QAU?$pair@$$CBKPAVCGuildMarkImage@@@1@U_Nil@1@@Z ; std::_Tree<std::_Tmap_traits<unsigned long,CGuildMarkImage *,std::less<unsigned long>,std::allocator<std::pair<unsigned long const ,CGuildMarkImage *> >,0> >::_Insert_nohint<std::pair<unsigned long const ,CGuildMarkImage *>,std::_Nil>
PUBLIC	??$forward@U?$pair@$$CBKPAVCGuildMarkImage@@@std@@@std@@YA$$QAU?$pair@$$CBKPAVCGuildMarkImage@@@0@AAU10@@Z ; std::forward<std::pair<unsigned long const ,CGuildMarkImage *> >
PUBLIC	??$_Uninitialized_default_fill_n@PAEIU?$_Wrap_alloc@V?$allocator@E@std@@@std@@@std@@YAXPAEIAAU?$_Wrap_alloc@V?$allocator@E@std@@@0@@Z ; std::_Uninitialized_default_fill_n<unsigned char *,unsigned int,std::_Wrap_alloc<std::allocator<unsigned char> > >
PUBLIC	??$?0AAKAAPAVCGuildMarkImage@@X@?$pair@$$CBKPAVCGuildMarkImage@@@std@@QAE@AAKAAPAVCGuildMarkImage@@@Z ; std::pair<unsigned long const ,CGuildMarkImage *>::pair<unsigned long const ,CGuildMarkImage *><unsigned long &,CGuildMarkImage * &,void>
PUBLIC	?allocate@?$allocator@U?$_Tree_node@U?$pair@$$CBKUTGuildSymbol@CGuildMarkManager@@@std@@PAX@std@@@std@@QAEPAU?$_Tree_node@U?$pair@$$CBKUTGuildSymbol@CGuildMarkManager@@@std@@PAX@2@I@Z ; std::allocator<std::_Tree_node<std::pair<unsigned long const ,CGuildMarkManager::TGuildSymbol>,void *> >::allocate
PUBLIC	?allocate@?$allocator@U?$_Tree_node@U?$pair@$$CBKPAVCGuildMarkImage@@@std@@PAX@std@@@std@@QAEPAU?$_Tree_node@U?$pair@$$CBKPAVCGuildMarkImage@@@std@@PAX@2@I@Z ; std::allocator<std::_Tree_node<std::pair<unsigned long const ,CGuildMarkImage *>,void *> >::allocate
PUBLIC	?allocate@?$_Wrap_alloc@V?$allocator@U?$_Tree_node@U?$pair@$$CBKUTGuildSymbol@CGuildMarkManager@@@std@@PAX@std@@@std@@@std@@QAEPAU?$_Tree_node@U?$pair@$$CBKUTGuildSymbol@CGuildMarkManager@@@std@@PAX@2@I@Z ; std::_Wrap_alloc<std::allocator<std::_Tree_node<std::pair<unsigned long const ,CGuildMarkManager::TGuildSymbol>,void *> > >::allocate
PUBLIC	?allocate@?$_Wrap_alloc@V?$allocator@U?$_Tree_node@U?$pair@$$CBKPAVCGuildMarkImage@@@std@@PAX@std@@@std@@@std@@QAEPAU?$_Tree_node@U?$pair@$$CBKPAVCGuildMarkImage@@@std@@PAX@2@I@Z ; std::_Wrap_alloc<std::allocator<std::_Tree_node<std::pair<unsigned long const ,CGuildMarkImage *>,void *> > >::allocate
PUBLIC	??0?$_Tree_val@U?$_Tree_simple_types@U?$pair@$$CBKUTGuildSymbol@CGuildMarkManager@@@std@@@std@@@std@@QAE@XZ ; std::_Tree_val<std::_Tree_simple_types<std::pair<unsigned long const ,CGuildMarkManager::TGuildSymbol> > >::_Tree_val<std::_Tree_simple_types<std::pair<unsigned long const ,CGuildMarkManager::TGuildSymbol> > >
PUBLIC	??0?$allocator@U?$_Tree_node@U?$pair@$$CBKUTGuildSymbol@CGuildMarkManager@@@std@@PAX@std@@@std@@QAE@XZ ; std::allocator<std::_Tree_node<std::pair<unsigned long const ,CGuildMarkManager::TGuildSymbol>,void *> >::allocator<std::_Tree_node<std::pair<unsigned long const ,CGuildMarkManager::TGuildSymbol>,void *> >
PUBLIC	?_Buyheadnode@?$_Tree_alloc@$0A@U?$_Tree_base_types@U?$pair@$$CBKUTGuildSymbol@CGuildMarkManager@@@std@@V?$allocator@U?$pair@$$CBKUTGuildSymbol@CGuildMarkManager@@@std@@@2@@std@@@std@@QAEPAU?$_Tree_node@U?$pair@$$CBKUTGuildSymbol@CGuildMarkManager@@@std@@PAX@2@XZ ; std::_Tree_alloc<0,std::_Tree_base_types<std::pair<unsigned long const ,CGuildMarkManager::TGuildSymbol>,std::allocator<std::pair<unsigned long const ,CGuildMarkManager::TGuildSymbol> > > >::_Buyheadnode
PUBLIC	??0?$_Tree_val@U?$_Tree_simple_types@U?$pair@$$CBKPAVCGuildMarkImage@@@std@@@std@@@std@@QAE@XZ ; std::_Tree_val<std::_Tree_simple_types<std::pair<unsigned long const ,CGuildMarkImage *> > >::_Tree_val<std::_Tree_simple_types<std::pair<unsigned long const ,CGuildMarkImage *> > >
PUBLIC	?_Buyheadnode@?$_Tree_alloc@$0A@U?$_Tree_base_types@U?$pair@$$CBKPAVCGuildMarkImage@@@std@@V?$allocator@U?$pair@$$CBKPAVCGuildMarkImage@@@std@@@2@@std@@@std@@QAEPAU?$_Tree_node@U?$pair@$$CBKPAVCGuildMarkImage@@@std@@PAX@2@XZ ; std::_Tree_alloc<0,std::_Tree_base_types<std::pair<unsigned long const ,CGuildMarkImage *>,std::allocator<std::pair<unsigned long const ,CGuildMarkImage *> > > >::_Buyheadnode
PUBLIC	?_Max@?$_Tree_val@U?$_Tree_simple_types@U?$pair@$$CBKUTGuildSymbol@CGuildMarkManager@@@std@@@std@@@std@@SAPAU?$_Tree_node@U?$pair@$$CBKUTGuildSymbol@CGuildMarkManager@@@std@@PAX@2@PAU32@@Z ; std::_Tree_val<std::_Tree_simple_types<std::pair<unsigned long const ,CGuildMarkManager::TGuildSymbol> > >::_Max
PUBLIC	?_Color@?$_Tree_val@U?$_Tree_simple_types@U?$pair@$$CBKUTGuildSymbol@CGuildMarkManager@@@std@@@std@@@std@@SAAADPAU?$_Tree_node@U?$pair@$$CBKUTGuildSymbol@CGuildMarkManager@@@std@@PAX@2@@Z ; std::_Tree_val<std::_Tree_simple_types<std::pair<unsigned long const ,CGuildMarkManager::TGuildSymbol> > >::_Color
PUBLIC	?deallocate@?$allocator@U?$_Tree_node@U?$pair@$$CBKUTGuildSymbol@CGuildMarkManager@@@std@@PAX@std@@@std@@QAEXPAU?$_Tree_node@U?$pair@$$CBKUTGuildSymbol@CGuildMarkManager@@@std@@PAX@2@I@Z ; std::allocator<std::_Tree_node<std::pair<unsigned long const ,CGuildMarkManager::TGuildSymbol>,void *> >::deallocate
PUBLIC	??0?$_Wrap_alloc@V?$allocator@U?$_Tree_node@U?$pair@$$CBKUTGuildSymbol@CGuildMarkManager@@@std@@PAX@std@@@std@@@std@@QAE@XZ ; std::_Wrap_alloc<std::allocator<std::_Tree_node<std::pair<unsigned long const ,CGuildMarkManager::TGuildSymbol>,void *> > >::_Wrap_alloc<std::allocator<std::_Tree_node<std::pair<unsigned long const ,CGuildMarkManager::TGuildSymbol>,void *> > >
PUBLIC	??0?$_Tree_alloc@$0A@U?$_Tree_base_types@U?$pair@$$CBKUTGuildSymbol@CGuildMarkManager@@@std@@V?$allocator@U?$pair@$$CBKUTGuildSymbol@CGuildMarkManager@@@std@@@2@@std@@@std@@QAE@ABV?$allocator@U?$pair@$$CBKUTGuildSymbol@CGuildMarkManager@@@std@@@1@@Z ; std::_Tree_alloc<0,std::_Tree_base_types<std::pair<unsigned long const ,CGuildMarkManager::TGuildSymbol>,std::allocator<std::pair<unsigned long const ,CGuildMarkManager::TGuildSymbol> > > >::_Tree_alloc<0,std::_Tree_base_types<std::pair<unsigned long const ,CGuildMarkManager::TGuildSymbol>,std::allocator<std::pair<unsigned long const ,CGuildMarkManager::TGuildSymbol> > > >
PUBLIC	?_Rrotate@?$_Tree@V?$_Tmap_traits@KUTGuildSymbol@CGuildMarkManager@@U?$less@K@std@@V?$allocator@U?$pair@$$CBKUTGuildSymbol@CGuildMarkManager@@@std@@@4@$0A@@std@@@std@@IAEXPAU?$_Tree_node@U?$pair@$$CBKUTGuildSymbol@CGuildMarkManager@@@std@@PAX@2@@Z ; std::_Tree<std::_Tmap_traits<unsigned long,CGuildMarkManager::TGuildSymbol,std::less<unsigned long>,std::allocator<std::pair<unsigned long const ,CGuildMarkManager::TGuildSymbol> >,0> >::_Rrotate
PUBLIC	?_Rmost@?$_Tree@V?$_Tmap_traits@KUTGuildSymbol@CGuildMarkManager@@U?$less@K@std@@V?$allocator@U?$pair@$$CBKUTGuildSymbol@CGuildMarkManager@@@std@@@4@$0A@@std@@@std@@IBEAAPAU?$_Tree_node@U?$pair@$$CBKUTGuildSymbol@CGuildMarkManager@@@std@@PAX@2@XZ ; std::_Tree<std::_Tmap_traits<unsigned long,CGuildMarkManager::TGuildSymbol,std::less<unsigned long>,std::allocator<std::pair<unsigned long const ,CGuildMarkManager::TGuildSymbol> >,0> >::_Rmost
PUBLIC	?_Lrotate@?$_Tree@V?$_Tmap_traits@KUTGuildSymbol@CGuildMarkManager@@U?$less@K@std@@V?$allocator@U?$pair@$$CBKUTGuildSymbol@CGuildMarkManager@@@std@@@4@$0A@@std@@@std@@IAEXPAU?$_Tree_node@U?$pair@$$CBKUTGuildSymbol@CGuildMarkManager@@@std@@PAX@2@@Z ; std::_Tree<std::_Tmap_traits<unsigned long,CGuildMarkManager::TGuildSymbol,std::less<unsigned long>,std::allocator<std::pair<unsigned long const ,CGuildMarkManager::TGuildSymbol> >,0> >::_Lrotate
PUBLIC	?_Erase@?$_Tree@V?$_Tmap_traits@KUTGuildSymbol@CGuildMarkManager@@U?$less@K@std@@V?$allocator@U?$pair@$$CBKUTGuildSymbol@CGuildMarkManager@@@std@@@4@$0A@@std@@@std@@IAEXPAU?$_Tree_node@U?$pair@$$CBKUTGuildSymbol@CGuildMarkManager@@@std@@PAX@2@@Z ; std::_Tree<std::_Tmap_traits<unsigned long,CGuildMarkManager::TGuildSymbol,std::less<unsigned long>,std::allocator<std::pair<unsigned long const ,CGuildMarkManager::TGuildSymbol> >,0> >::_Erase
PUBLIC	?_Max@?$_Tree_val@U?$_Tree_simple_types@U?$pair@$$CBKPAVCGuildMarkImage@@@std@@@std@@@std@@SAPAU?$_Tree_node@U?$pair@$$CBKPAVCGuildMarkImage@@@std@@PAX@2@PAU32@@Z ; std::_Tree_val<std::_Tree_simple_types<std::pair<unsigned long const ,CGuildMarkImage *> > >::_Max
PUBLIC	?_Color@?$_Tree_val@U?$_Tree_simple_types@U?$pair@$$CBKPAVCGuildMarkImage@@@std@@@std@@@std@@SAAADPAU?$_Tree_node@U?$pair@$$CBKPAVCGuildMarkImage@@@std@@PAX@2@@Z ; std::_Tree_val<std::_Tree_simple_types<std::pair<unsigned long const ,CGuildMarkImage *> > >::_Color
PUBLIC	??0?$allocator@U?$_Tree_node@U?$pair@$$CBKPAVCGuildMarkImage@@@std@@PAX@std@@@std@@QAE@XZ ; std::allocator<std::_Tree_node<std::pair<unsigned long const ,CGuildMarkImage *>,void *> >::allocator<std::_Tree_node<std::pair<unsigned long const ,CGuildMarkImage *>,void *> >
PUBLIC	??0?$_Tree_alloc@$0A@U?$_Tree_base_types@U?$pair@$$CBKPAVCGuildMarkImage@@@std@@V?$allocator@U?$pair@$$CBKPAVCGuildMarkImage@@@std@@@2@@std@@@std@@QAE@ABV?$allocator@U?$pair@$$CBKPAVCGuildMarkImage@@@std@@@1@@Z ; std::_Tree_alloc<0,std::_Tree_base_types<std::pair<unsigned long const ,CGuildMarkImage *>,std::allocator<std::pair<unsigned long const ,CGuildMarkImage *> > > >::_Tree_alloc<0,std::_Tree_base_types<std::pair<unsigned long const ,CGuildMarkImage *>,std::allocator<std::pair<unsigned long const ,CGuildMarkImage *> > > >
PUBLIC	?_Rrotate@?$_Tree@V?$_Tmap_traits@KPAVCGuildMarkImage@@U?$less@K@std@@V?$allocator@U?$pair@$$CBKPAVCGuildMarkImage@@@std@@@3@$0A@@std@@@std@@IAEXPAU?$_Tree_node@U?$pair@$$CBKPAVCGuildMarkImage@@@std@@PAX@2@@Z ; std::_Tree<std::_Tmap_traits<unsigned long,CGuildMarkImage *,std::less<unsigned long>,std::allocator<std::pair<unsigned long const ,CGuildMarkImage *> >,0> >::_Rrotate
PUBLIC	?_Lrotate@?$_Tree@V?$_Tmap_traits@KPAVCGuildMarkImage@@U?$less@K@std@@V?$allocator@U?$pair@$$CBKPAVCGuildMarkImage@@@std@@@3@$0A@@std@@@std@@IAEXPAU?$_Tree_node@U?$pair@$$CBKPAVCGuildMarkImage@@@std@@PAX@2@@Z ; std::_Tree<std::_Tmap_traits<unsigned long,CGuildMarkImage *,std::less<unsigned long>,std::allocator<std::pair<unsigned long const ,CGuildMarkImage *> >,0> >::_Lrotate
PUBLIC	?max_size@?$allocator@E@std@@QBEIXZ		; std::allocator<unsigned char>::max_size
PUBLIC	??0?$_Tree_unchecked_const_iterator@V?$_Tree_val@U?$_Tree_simple_types@U?$pair@$$CBKUTGuildSymbol@CGuildMarkManager@@@std@@@std@@@std@@U_Iterator_base0@2@@std@@QAE@PAU?$_Tree_node@U?$pair@$$CBKUTGuildSymbol@CGuildMarkManager@@@std@@PAX@1@PBV?$_Tree_val@U?$_Tree_simple_types@U?$pair@$$CBKUTGuildSymbol@CGuildMarkManager@@@std@@@std@@@1@@Z ; std::_Tree_unchecked_const_iterator<std::_Tree_val<std::_Tree_simple_types<std::pair<unsigned long const ,CGuildMarkManager::TGuildSymbol> > >,std::_Iterator_base0>::_Tree_unchecked_const_iterator<std::_Tree_val<std::_Tree_simple_types<std::pair<unsigned long const ,CGuildMarkManager::TGuildSymbol> > >,std::_Iterator_base0>
PUBLIC	??E?$_Tree_const_iterator@V?$_Tree_val@U?$_Tree_simple_types@U?$pair@$$CBKUTGuildSymbol@CGuildMarkManager@@@std@@@std@@@std@@@std@@QAE?AV01@H@Z ; std::_Tree_const_iterator<std::_Tree_val<std::_Tree_simple_types<std::pair<unsigned long const ,CGuildMarkManager::TGuildSymbol> > > >::operator++
PUBLIC	??0?$_Tree_unchecked_const_iterator@V?$_Tree_val@U?$_Tree_simple_types@U?$pair@$$CBKPAVCGuildMarkImage@@@std@@@std@@@std@@U_Iterator_base0@2@@std@@QAE@PAU?$_Tree_node@U?$pair@$$CBKPAVCGuildMarkImage@@@std@@PAX@1@PBV?$_Tree_val@U?$_Tree_simple_types@U?$pair@$$CBKPAVCGuildMarkImage@@@std@@@std@@@1@@Z ; std::_Tree_unchecked_const_iterator<std::_Tree_val<std::_Tree_simple_types<std::pair<unsigned long const ,CGuildMarkImage *> > >,std::_Iterator_base0>::_Tree_unchecked_const_iterator<std::_Tree_val<std::_Tree_simple_types<std::pair<unsigned long const ,CGuildMarkImage *> > >,std::_Iterator_base0>
PUBLIC	??E?$_Tree_const_iterator@V?$_Tree_val@U?$_Tree_simple_types@U?$pair@$$CBKPAVCGuildMarkImage@@@std@@@std@@@std@@@std@@QAE?AV01@H@Z ; std::_Tree_const_iterator<std::_Tree_val<std::_Tree_simple_types<std::pair<unsigned long const ,CGuildMarkImage *> > > >::operator++
PUBLIC	?_Min@?$_Tree_val@U?$_Tree_simple_types@U?$pair@$$CBKUTGuildSymbol@CGuildMarkManager@@@std@@@std@@@std@@SAPAU?$_Tree_node@U?$pair@$$CBKUTGuildSymbol@CGuildMarkManager@@@std@@PAX@2@PAU32@@Z ; std::_Tree_val<std::_Tree_simple_types<std::pair<unsigned long const ,CGuildMarkManager::TGuildSymbol> > >::_Min
PUBLIC	?_Right@?$_Tree_val@U?$_Tree_simple_types@U?$pair@$$CBKUTGuildSymbol@CGuildMarkManager@@@std@@@std@@@std@@SAAAPAU?$_Tree_node@U?$pair@$$CBKUTGuildSymbol@CGuildMarkManager@@@std@@PAX@2@PAU32@@Z ; std::_Tree_val<std::_Tree_simple_types<std::pair<unsigned long const ,CGuildMarkManager::TGuildSymbol> > >::_Right
PUBLIC	?_Parent@?$_Tree_val@U?$_Tree_simple_types@U?$pair@$$CBKUTGuildSymbol@CGuildMarkManager@@@std@@@std@@@std@@SAAAPAU?$_Tree_node@U?$pair@$$CBKUTGuildSymbol@CGuildMarkManager@@@std@@PAX@2@PAU32@@Z ; std::_Tree_val<std::_Tree_simple_types<std::pair<unsigned long const ,CGuildMarkManager::TGuildSymbol> > >::_Parent
PUBLIC	?_Isnil@?$_Tree_val@U?$_Tree_simple_types@U?$pair@$$CBKUTGuildSymbol@CGuildMarkManager@@@std@@@std@@@std@@SAAADPAU?$_Tree_node@U?$pair@$$CBKUTGuildSymbol@CGuildMarkManager@@@std@@PAX@2@@Z ; std::_Tree_val<std::_Tree_simple_types<std::pair<unsigned long const ,CGuildMarkManager::TGuildSymbol> > >::_Isnil
PUBLIC	?deallocate@?$_Wrap_alloc@V?$allocator@U?$_Tree_node@U?$pair@$$CBKUTGuildSymbol@CGuildMarkManager@@@std@@PAX@std@@@std@@@std@@QAEXPAU?$_Tree_node@U?$pair@$$CBKUTGuildSymbol@CGuildMarkManager@@@std@@PAX@2@I@Z ; std::_Wrap_alloc<std::allocator<std::_Tree_node<std::pair<unsigned long const ,CGuildMarkManager::TGuildSymbol>,void *> > >::deallocate
PUBLIC	?_Getal@?$_Tree_alloc@$0A@U?$_Tree_base_types@U?$pair@$$CBKUTGuildSymbol@CGuildMarkManager@@@std@@V?$allocator@U?$pair@$$CBKUTGuildSymbol@CGuildMarkManager@@@std@@@2@@std@@@std@@QBE?AU?$_Wrap_alloc@V?$allocator@U?$_Tree_node@U?$pair@$$CBKUTGuildSymbol@CGuildMarkManager@@@std@@PAX@std@@@std@@@2@XZ ; std::_Tree_alloc<0,std::_Tree_base_types<std::pair<unsigned long const ,CGuildMarkManager::TGuildSymbol>,std::allocator<std::pair<unsigned long const ,CGuildMarkManager::TGuildSymbol> > > >::_Getal
PUBLIC	??0?$_Tree_buy@U?$pair@$$CBKUTGuildSymbol@CGuildMarkManager@@@std@@V?$allocator@U?$pair@$$CBKUTGuildSymbol@CGuildMarkManager@@@std@@@2@@std@@QAE@ABV?$allocator@U?$pair@$$CBKUTGuildSymbol@CGuildMarkManager@@@std@@@1@@Z ; std::_Tree_buy<std::pair<unsigned long const ,CGuildMarkManager::TGuildSymbol>,std::allocator<std::pair<unsigned long const ,CGuildMarkManager::TGuildSymbol> > >::_Tree_buy<std::pair<unsigned long const ,CGuildMarkManager::TGuildSymbol>,std::allocator<std::pair<unsigned long const ,CGuildMarkManager::TGuildSymbol> > >
PUBLIC	?_Root@?$_Tree@V?$_Tmap_traits@KUTGuildSymbol@CGuildMarkManager@@U?$less@K@std@@V?$allocator@U?$pair@$$CBKUTGuildSymbol@CGuildMarkManager@@@std@@@4@$0A@@std@@@std@@IBEAAPAU?$_Tree_node@U?$pair@$$CBKUTGuildSymbol@CGuildMarkManager@@@std@@PAX@2@XZ ; std::_Tree<std::_Tmap_traits<unsigned long,CGuildMarkManager::TGuildSymbol,std::less<unsigned long>,std::allocator<std::pair<unsigned long const ,CGuildMarkManager::TGuildSymbol> >,0> >::_Root
PUBLIC	?clear@?$_Tree@V?$_Tmap_traits@KUTGuildSymbol@CGuildMarkManager@@U?$less@K@std@@V?$allocator@U?$pair@$$CBKUTGuildSymbol@CGuildMarkManager@@@std@@@4@$0A@@std@@@std@@QAEXXZ ; std::_Tree<std::_Tmap_traits<unsigned long,CGuildMarkManager::TGuildSymbol,std::less<unsigned long>,std::allocator<std::pair<unsigned long const ,CGuildMarkManager::TGuildSymbol> >,0> >::clear
PUBLIC	?erase@?$_Tree@V?$_Tmap_traits@KUTGuildSymbol@CGuildMarkManager@@U?$less@K@std@@V?$allocator@U?$pair@$$CBKUTGuildSymbol@CGuildMarkManager@@@std@@@4@$0A@@std@@@std@@QAE?AV?$_Tree_iterator@V?$_Tree_val@U?$_Tree_simple_types@U?$pair@$$CBKUTGuildSymbol@CGuildMarkManager@@@std@@@std@@@std@@@2@V?$_Tree_const_iterator@V?$_Tree_val@U?$_Tree_simple_types@U?$pair@$$CBKUTGuildSymbol@CGuildMarkManager@@@std@@@std@@@std@@@2@@Z ; std::_Tree<std::_Tmap_traits<unsigned long,CGuildMarkManager::TGuildSymbol,std::less<unsigned long>,std::allocator<std::pair<unsigned long const ,CGuildMarkManager::TGuildSymbol> >,0> >::erase
PUBLIC	?_Min@?$_Tree_val@U?$_Tree_simple_types@U?$pair@$$CBKPAVCGuildMarkImage@@@std@@@std@@@std@@SAPAU?$_Tree_node@U?$pair@$$CBKPAVCGuildMarkImage@@@std@@PAX@2@PAU32@@Z ; std::_Tree_val<std::_Tree_simple_types<std::pair<unsigned long const ,CGuildMarkImage *> > >::_Min
PUBLIC	?deallocate@?$allocator@U?$_Tree_node@U?$pair@$$CBKPAVCGuildMarkImage@@@std@@PAX@std@@@std@@QAEXPAU?$_Tree_node@U?$pair@$$CBKPAVCGuildMarkImage@@@std@@PAX@2@I@Z ; std::allocator<std::_Tree_node<std::pair<unsigned long const ,CGuildMarkImage *>,void *> >::deallocate
PUBLIC	??0?$_Wrap_alloc@V?$allocator@U?$_Tree_node@U?$pair@$$CBKPAVCGuildMarkImage@@@std@@PAX@std@@@std@@@std@@QAE@XZ ; std::_Wrap_alloc<std::allocator<std::_Tree_node<std::pair<unsigned long const ,CGuildMarkImage *>,void *> > >::_Wrap_alloc<std::allocator<std::_Tree_node<std::pair<unsigned long const ,CGuildMarkImage *>,void *> > >
PUBLIC	??0?$_Tree_buy@U?$pair@$$CBKPAVCGuildMarkImage@@@std@@V?$allocator@U?$pair@$$CBKPAVCGuildMarkImage@@@std@@@2@@std@@QAE@ABV?$allocator@U?$pair@$$CBKPAVCGuildMarkImage@@@std@@@1@@Z ; std::_Tree_buy<std::pair<unsigned long const ,CGuildMarkImage *>,std::allocator<std::pair<unsigned long const ,CGuildMarkImage *> > >::_Tree_buy<std::pair<unsigned long const ,CGuildMarkImage *>,std::allocator<std::pair<unsigned long const ,CGuildMarkImage *> > >
PUBLIC	?erase@?$_Tree@V?$_Tmap_traits@KPAVCGuildMarkImage@@U?$less@K@std@@V?$allocator@U?$pair@$$CBKPAVCGuildMarkImage@@@std@@@3@$0A@@std@@@std@@QAE?AV?$_Tree_iterator@V?$_Tree_val@U?$_Tree_simple_types@U?$pair@$$CBKPAVCGuildMarkImage@@@std@@@std@@@std@@@2@V?$_Tree_const_iterator@V?$_Tree_val@U?$_Tree_simple_types@U?$pair@$$CBKPAVCGuildMarkImage@@@std@@@std@@@std@@@2@@Z ; std::_Tree<std::_Tmap_traits<unsigned long,CGuildMarkImage *,std::less<unsigned long>,std::allocator<std::pair<unsigned long const ,CGuildMarkImage *> >,0> >::erase
PUBLIC	?max_size@?$allocator_traits@V?$allocator@E@std@@@std@@SAIABV?$allocator@E@2@@Z ; std::allocator_traits<std::allocator<unsigned char> >::max_size
PUBLIC	?allocate@?$allocator@E@std@@QAEPAEI@Z		; std::allocator<unsigned char>::allocate
PUBLIC	?deallocate@?$allocator@E@std@@QAEXPAEI@Z	; std::allocator<unsigned char>::deallocate
PUBLIC	??E?$_Tree_unchecked_const_iterator@V?$_Tree_val@U?$_Tree_simple_types@U?$pair@$$CBKUTGuildSymbol@CGuildMarkManager@@@std@@@std@@@std@@U_Iterator_base0@2@@std@@QAEAAV01@XZ ; std::_Tree_unchecked_const_iterator<std::_Tree_val<std::_Tree_simple_types<std::pair<unsigned long const ,CGuildMarkManager::TGuildSymbol> > >,std::_Iterator_base0>::operator++
PUBLIC	??0?$_Tree_const_iterator@V?$_Tree_val@U?$_Tree_simple_types@U?$pair@$$CBKUTGuildSymbol@CGuildMarkManager@@@std@@@std@@@std@@@std@@QAE@PAU?$_Tree_node@U?$pair@$$CBKUTGuildSymbol@CGuildMarkManager@@@std@@PAX@1@PBV?$_Tree_val@U?$_Tree_simple_types@U?$pair@$$CBKUTGuildSymbol@CGuildMarkManager@@@std@@@std@@@1@@Z ; std::_Tree_const_iterator<std::_Tree_val<std::_Tree_simple_types<std::pair<unsigned long const ,CGuildMarkManager::TGuildSymbol> > > >::_Tree_const_iterator<std::_Tree_val<std::_Tree_simple_types<std::pair<unsigned long const ,CGuildMarkManager::TGuildSymbol> > > >
PUBLIC	??E?$_Tree_unchecked_const_iterator@V?$_Tree_val@U?$_Tree_simple_types@U?$pair@$$CBKPAVCGuildMarkImage@@@std@@@std@@@std@@U_Iterator_base0@2@@std@@QAEAAV01@XZ ; std::_Tree_unchecked_const_iterator<std::_Tree_val<std::_Tree_simple_types<std::pair<unsigned long const ,CGuildMarkImage *> > >,std::_Iterator_base0>::operator++
PUBLIC	??D?$_Tree_const_iterator@V?$_Tree_val@U?$_Tree_simple_types@U?$pair@$$CBKPAVCGuildMarkImage@@@std@@@std@@@std@@@std@@QBEABU?$pair@$$CBKPAVCGuildMarkImage@@@1@XZ ; std::_Tree_const_iterator<std::_Tree_val<std::_Tree_simple_types<std::pair<unsigned long const ,CGuildMarkImage *> > > >::operator*
PUBLIC	??0?$_Tree_const_iterator@V?$_Tree_val@U?$_Tree_simple_types@U?$pair@$$CBKPAVCGuildMarkImage@@@std@@@std@@@std@@@std@@QAE@PAU?$_Tree_node@U?$pair@$$CBKPAVCGuildMarkImage@@@std@@PAX@1@PBV?$_Tree_val@U?$_Tree_simple_types@U?$pair@$$CBKPAVCGuildMarkImage@@@std@@@std@@@1@@Z ; std::_Tree_const_iterator<std::_Tree_val<std::_Tree_simple_types<std::pair<unsigned long const ,CGuildMarkImage *> > > >::_Tree_const_iterator<std::_Tree_val<std::_Tree_simple_types<std::pair<unsigned long const ,CGuildMarkImage *> > > >
PUBLIC	?_Myval@?$_Tree_val@U?$_Tree_simple_types@U?$pair@$$CBKUTGuildSymbol@CGuildMarkManager@@@std@@@std@@@std@@SAAAU?$pair@$$CBKUTGuildSymbol@CGuildMarkManager@@@2@PAU?$_Tree_node@U?$pair@$$CBKUTGuildSymbol@CGuildMarkManager@@@std@@PAX@2@@Z ; std::_Tree_val<std::_Tree_simple_types<std::pair<unsigned long const ,CGuildMarkManager::TGuildSymbol> > >::_Myval
PUBLIC	?_Left@?$_Tree_val@U?$_Tree_simple_types@U?$pair@$$CBKUTGuildSymbol@CGuildMarkManager@@@std@@@std@@@std@@SAAAPAU?$_Tree_node@U?$pair@$$CBKUTGuildSymbol@CGuildMarkManager@@@std@@PAX@2@PAU32@@Z ; std::_Tree_val<std::_Tree_simple_types<std::pair<unsigned long const ,CGuildMarkManager::TGuildSymbol> > >::_Left
PUBLIC	?_Freeheadnode@?$_Tree_alloc@$0A@U?$_Tree_base_types@U?$pair@$$CBKUTGuildSymbol@CGuildMarkManager@@@std@@V?$allocator@U?$pair@$$CBKUTGuildSymbol@CGuildMarkManager@@@std@@@2@@std@@@std@@QAEXPAU?$_Tree_node@U?$pair@$$CBKUTGuildSymbol@CGuildMarkManager@@@std@@PAX@2@@Z ; std::_Tree_alloc<0,std::_Tree_base_types<std::pair<unsigned long const ,CGuildMarkManager::TGuildSymbol>,std::allocator<std::pair<unsigned long const ,CGuildMarkManager::TGuildSymbol> > > >::_Freeheadnode
PUBLIC	??0?$_Tree_comp@$0A@V?$_Tmap_traits@KUTGuildSymbol@CGuildMarkManager@@U?$less@K@std@@V?$allocator@U?$pair@$$CBKUTGuildSymbol@CGuildMarkManager@@@std@@@4@$0A@@std@@@std@@QAE@ABU?$less@K@1@ABV?$allocator@U?$pair@$$CBKUTGuildSymbol@CGuildMarkManager@@@std@@@1@@Z ; std::_Tree_comp<0,std::_Tmap_traits<unsigned long,CGuildMarkManager::TGuildSymbol,std::less<unsigned long>,std::allocator<std::pair<unsigned long const ,CGuildMarkManager::TGuildSymbol> >,0> >::_Tree_comp<0,std::_Tmap_traits<unsigned long,CGuildMarkManager::TGuildSymbol,std::less<unsigned long>,std::allocator<std::pair<unsigned long const ,CGuildMarkManager::TGuildSymbol> >,0> >
PUBLIC	?erase@?$_Tree@V?$_Tmap_traits@KUTGuildSymbol@CGuildMarkManager@@U?$less@K@std@@V?$allocator@U?$pair@$$CBKUTGuildSymbol@CGuildMarkManager@@@std@@@4@$0A@@std@@@std@@QAE?AV?$_Tree_iterator@V?$_Tree_val@U?$_Tree_simple_types@U?$pair@$$CBKUTGuildSymbol@CGuildMarkManager@@@std@@@std@@@std@@@2@V?$_Tree_const_iterator@V?$_Tree_val@U?$_Tree_simple_types@U?$pair@$$CBKUTGuildSymbol@CGuildMarkManager@@@std@@@std@@@std@@@2@0@Z ; std::_Tree<std::_Tmap_traits<unsigned long,CGuildMarkManager::TGuildSymbol,std::less<unsigned long>,std::allocator<std::pair<unsigned long const ,CGuildMarkManager::TGuildSymbol> >,0> >::erase
PUBLIC	?_Myval@?$_Tree_val@U?$_Tree_simple_types@U?$pair@$$CBKPAVCGuildMarkImage@@@std@@@std@@@std@@SAAAU?$pair@$$CBKPAVCGuildMarkImage@@@2@PAU?$_Tree_node@U?$pair@$$CBKPAVCGuildMarkImage@@@std@@PAX@2@@Z ; std::_Tree_val<std::_Tree_simple_types<std::pair<unsigned long const ,CGuildMarkImage *> > >::_Myval
PUBLIC	?_Right@?$_Tree_val@U?$_Tree_simple_types@U?$pair@$$CBKPAVCGuildMarkImage@@@std@@@std@@@std@@SAAAPAU?$_Tree_node@U?$pair@$$CBKPAVCGuildMarkImage@@@std@@PAX@2@PAU32@@Z ; std::_Tree_val<std::_Tree_simple_types<std::pair<unsigned long const ,CGuildMarkImage *> > >::_Right
PUBLIC	?_Parent@?$_Tree_val@U?$_Tree_simple_types@U?$pair@$$CBKPAVCGuildMarkImage@@@std@@@std@@@std@@SAAAPAU?$_Tree_node@U?$pair@$$CBKPAVCGuildMarkImage@@@std@@PAX@2@PAU32@@Z ; std::_Tree_val<std::_Tree_simple_types<std::pair<unsigned long const ,CGuildMarkImage *> > >::_Parent
PUBLIC	?_Left@?$_Tree_val@U?$_Tree_simple_types@U?$pair@$$CBKPAVCGuildMarkImage@@@std@@@std@@@std@@SAAAPAU?$_Tree_node@U?$pair@$$CBKPAVCGuildMarkImage@@@std@@PAX@2@PAU32@@Z ; std::_Tree_val<std::_Tree_simple_types<std::pair<unsigned long const ,CGuildMarkImage *> > >::_Left
PUBLIC	?_Isnil@?$_Tree_val@U?$_Tree_simple_types@U?$pair@$$CBKPAVCGuildMarkImage@@@std@@@std@@@std@@SAAADPAU?$_Tree_node@U?$pair@$$CBKPAVCGuildMarkImage@@@std@@PAX@2@@Z ; std::_Tree_val<std::_Tree_simple_types<std::pair<unsigned long const ,CGuildMarkImage *> > >::_Isnil
PUBLIC	?deallocate@?$_Wrap_alloc@V?$allocator@U?$_Tree_node@U?$pair@$$CBKPAVCGuildMarkImage@@@std@@PAX@std@@@std@@@std@@QAEXPAU?$_Tree_node@U?$pair@$$CBKPAVCGuildMarkImage@@@std@@PAX@2@I@Z ; std::_Wrap_alloc<std::allocator<std::_Tree_node<std::pair<unsigned long const ,CGuildMarkImage *>,void *> > >::deallocate
PUBLIC	?_Getal@?$_Tree_alloc@$0A@U?$_Tree_base_types@U?$pair@$$CBKPAVCGuildMarkImage@@@std@@V?$allocator@U?$pair@$$CBKPAVCGuildMarkImage@@@std@@@2@@std@@@std@@QBE?AU?$_Wrap_alloc@V?$allocator@U?$_Tree_node@U?$pair@$$CBKPAVCGuildMarkImage@@@std@@PAX@std@@@std@@@2@XZ ; std::_Tree_alloc<0,std::_Tree_base_types<std::pair<unsigned long const ,CGuildMarkImage *>,std::allocator<std::pair<unsigned long const ,CGuildMarkImage *> > > >::_Getal
PUBLIC	?_Freeheadnode@?$_Tree_alloc@$0A@U?$_Tree_base_types@U?$pair@$$CBKPAVCGuildMarkImage@@@std@@V?$allocator@U?$pair@$$CBKPAVCGuildMarkImage@@@std@@@2@@std@@@std@@QAEXPAU?$_Tree_node@U?$pair@$$CBKPAVCGuildMarkImage@@@std@@PAX@2@@Z ; std::_Tree_alloc<0,std::_Tree_base_types<std::pair<unsigned long const ,CGuildMarkImage *>,std::allocator<std::pair<unsigned long const ,CGuildMarkImage *> > > >::_Freeheadnode
PUBLIC	??0?$_Tree_comp@$0A@V?$_Tmap_traits@KPAVCGuildMarkImage@@U?$less@K@std@@V?$allocator@U?$pair@$$CBKPAVCGuildMarkImage@@@std@@@3@$0A@@std@@@std@@QAE@ABU?$less@K@1@ABV?$allocator@U?$pair@$$CBKPAVCGuildMarkImage@@@std@@@1@@Z ; std::_Tree_comp<0,std::_Tmap_traits<unsigned long,CGuildMarkImage *,std::less<unsigned long>,std::allocator<std::pair<unsigned long const ,CGuildMarkImage *> >,0> >::_Tree_comp<0,std::_Tmap_traits<unsigned long,CGuildMarkImage *,std::less<unsigned long>,std::allocator<std::pair<unsigned long const ,CGuildMarkImage *> >,0> >
PUBLIC	?_Kfn@?$_Tree@V?$_Tmap_traits@KPAVCGuildMarkImage@@U?$less@K@std@@V?$allocator@U?$pair@$$CBKPAVCGuildMarkImage@@@std@@@3@$0A@@std@@@std@@IBEABKABU?$pair@$$CBKPAVCGuildMarkImage@@@2@@Z ; std::_Tree<std::_Tmap_traits<unsigned long,CGuildMarkImage *,std::less<unsigned long>,std::allocator<std::pair<unsigned long const ,CGuildMarkImage *> >,0> >::_Kfn
PUBLIC	?_Lbound@?$_Tree@V?$_Tmap_traits@KPAVCGuildMarkImage@@U?$less@K@std@@V?$allocator@U?$pair@$$CBKPAVCGuildMarkImage@@@std@@@3@$0A@@std@@@std@@IAEPAU?$_Tree_node@U?$pair@$$CBKPAVCGuildMarkImage@@@std@@PAX@2@ABK@Z ; std::_Tree<std::_Tmap_traits<unsigned long,CGuildMarkImage *,std::less<unsigned long>,std::allocator<std::pair<unsigned long const ,CGuildMarkImage *> >,0> >::_Lbound
PUBLIC	?erase@?$_Tree@V?$_Tmap_traits@KPAVCGuildMarkImage@@U?$less@K@std@@V?$allocator@U?$pair@$$CBKPAVCGuildMarkImage@@@std@@@3@$0A@@std@@@std@@QAE?AV?$_Tree_iterator@V?$_Tree_val@U?$_Tree_simple_types@U?$pair@$$CBKPAVCGuildMarkImage@@@std@@@std@@@std@@@2@V?$_Tree_const_iterator@V?$_Tree_val@U?$_Tree_simple_types@U?$pair@$$CBKPAVCGuildMarkImage@@@std@@@std@@@std@@@2@0@Z ; std::_Tree<std::_Tmap_traits<unsigned long,CGuildMarkImage *,std::less<unsigned long>,std::allocator<std::pair<unsigned long const ,CGuildMarkImage *> >,0> >::erase
PUBLIC	??0?$_Vector_val@U?$_Simple_types@E@std@@@std@@QAE@XZ ; std::_Vector_val<std::_Simple_types<unsigned char> >::_Vector_val<std::_Simple_types<unsigned char> >
PUBLIC	?max_size@?$_Wrap_alloc@V?$allocator@E@std@@@std@@QBEIXZ ; std::_Wrap_alloc<std::allocator<unsigned char> >::max_size
PUBLIC	?deallocate@?$_Wrap_alloc@V?$allocator@E@std@@@std@@QAEXPAEI@Z ; std::_Wrap_alloc<std::allocator<unsigned char> >::deallocate
PUBLIC	?allocate@?$_Wrap_alloc@V?$allocator@E@std@@@std@@QAEPAEI@Z ; std::_Wrap_alloc<std::allocator<unsigned char> >::allocate
PUBLIC	??0?$_Wrap_alloc@V?$allocator@E@std@@@std@@QAE@XZ ; std::_Wrap_alloc<std::allocator<unsigned char> >::_Wrap_alloc<std::allocator<unsigned char> >
PUBLIC	?_Grow_to@?$vector@EV?$allocator@E@std@@@std@@IBEII@Z ; std::vector<unsigned char,std::allocator<unsigned char> >::_Grow_to
PUBLIC	?_Unused_capacity@?$vector@EV?$allocator@E@std@@@std@@QBEIXZ ; std::vector<unsigned char,std::allocator<unsigned char> >::_Unused_capacity
PUBLIC	?pointer_to@?$pointer_traits@PAU?$pair@$$CBKPAVCGuildMarkImage@@@std@@@std@@SAPAU?$pair@$$CBKPAVCGuildMarkImage@@@2@AAU32@@Z ; std::pointer_traits<std::pair<unsigned long const ,CGuildMarkImage *> *>::pointer_to
PUBLIC	?_Mynode@?$_Tree_unchecked_const_iterator@V?$_Tree_val@U?$_Tree_simple_types@U?$pair@$$CBKUTGuildSymbol@CGuildMarkManager@@@std@@@std@@@std@@U_Iterator_base0@2@@std@@QBEPAU?$_Tree_node@U?$pair@$$CBKUTGuildSymbol@CGuildMarkManager@@@std@@PAX@2@XZ ; std::_Tree_unchecked_const_iterator<std::_Tree_val<std::_Tree_simple_types<std::pair<unsigned long const ,CGuildMarkManager::TGuildSymbol> > >,std::_Iterator_base0>::_Mynode
PUBLIC	??E?$_Tree_const_iterator@V?$_Tree_val@U?$_Tree_simple_types@U?$pair@$$CBKUTGuildSymbol@CGuildMarkManager@@@std@@@std@@@std@@@std@@QAEAAV01@XZ ; std::_Tree_const_iterator<std::_Tree_val<std::_Tree_simple_types<std::pair<unsigned long const ,CGuildMarkManager::TGuildSymbol> > > >::operator++
PUBLIC	??0?$_Tree_iterator@V?$_Tree_val@U?$_Tree_simple_types@U?$pair@$$CBKUTGuildSymbol@CGuildMarkManager@@@std@@@std@@@std@@@std@@QAE@PAU?$_Tree_node@U?$pair@$$CBKUTGuildSymbol@CGuildMarkManager@@@std@@PAX@1@PBV?$_Tree_val@U?$_Tree_simple_types@U?$pair@$$CBKUTGuildSymbol@CGuildMarkManager@@@std@@@std@@@1@@Z ; std::_Tree_iterator<std::_Tree_val<std::_Tree_simple_types<std::pair<unsigned long const ,CGuildMarkManager::TGuildSymbol> > > >::_Tree_iterator<std::_Tree_val<std::_Tree_simple_types<std::pair<unsigned long const ,CGuildMarkManager::TGuildSymbol> > > >
PUBLIC	?_Mynode@?$_Tree_unchecked_const_iterator@V?$_Tree_val@U?$_Tree_simple_types@U?$pair@$$CBKPAVCGuildMarkImage@@@std@@@std@@@std@@U_Iterator_base0@2@@std@@QBEPAU?$_Tree_node@U?$pair@$$CBKPAVCGuildMarkImage@@@std@@PAX@2@XZ ; std::_Tree_unchecked_const_iterator<std::_Tree_val<std::_Tree_simple_types<std::pair<unsigned long const ,CGuildMarkImage *> > >,std::_Iterator_base0>::_Mynode
PUBLIC	??E?$_Tree_const_iterator@V?$_Tree_val@U?$_Tree_simple_types@U?$pair@$$CBKPAVCGuildMarkImage@@@std@@@std@@@std@@@std@@QAEAAV01@XZ ; std::_Tree_const_iterator<std::_Tree_val<std::_Tree_simple_types<std::pair<unsigned long const ,CGuildMarkImage *> > > >::operator++
PUBLIC	??D?$_Tree_iterator@V?$_Tree_val@U?$_Tree_simple_types@U?$pair@$$CBKPAVCGuildMarkImage@@@std@@@std@@@std@@@std@@QBEAAU?$pair@$$CBKPAVCGuildMarkImage@@@1@XZ ; std::_Tree_iterator<std::_Tree_val<std::_Tree_simple_types<std::pair<unsigned long const ,CGuildMarkImage *> > > >::operator*
PUBLIC	??0?$_Tree_iterator@V?$_Tree_val@U?$_Tree_simple_types@U?$pair@$$CBKPAVCGuildMarkImage@@@std@@@std@@@std@@@std@@QAE@PAU?$_Tree_node@U?$pair@$$CBKPAVCGuildMarkImage@@@std@@PAX@1@PBV?$_Tree_val@U?$_Tree_simple_types@U?$pair@$$CBKPAVCGuildMarkImage@@@std@@@std@@@1@@Z ; std::_Tree_iterator<std::_Tree_val<std::_Tree_simple_types<std::pair<unsigned long const ,CGuildMarkImage *> > > >::_Tree_iterator<std::_Tree_val<std::_Tree_simple_types<std::pair<unsigned long const ,CGuildMarkImage *> > > >
PUBLIC	??1?$_Tree_alloc@$0A@U?$_Tree_base_types@U?$pair@$$CBKUTGuildSymbol@CGuildMarkManager@@@std@@V?$allocator@U?$pair@$$CBKUTGuildSymbol@CGuildMarkManager@@@std@@@2@@std@@@std@@QAE@XZ ; std::_Tree_alloc<0,std::_Tree_base_types<std::pair<unsigned long const ,CGuildMarkManager::TGuildSymbol>,std::allocator<std::pair<unsigned long const ,CGuildMarkManager::TGuildSymbol> > > >::~_Tree_alloc<0,std::_Tree_base_types<std::pair<unsigned long const ,CGuildMarkManager::TGuildSymbol>,std::allocator<std::pair<unsigned long const ,CGuildMarkManager::TGuildSymbol> > > >
PUBLIC	??0?$allocator@U?$pair@$$CBKUTGuildSymbol@CGuildMarkManager@@@std@@@std@@QAE@XZ ; std::allocator<std::pair<unsigned long const ,CGuildMarkManager::TGuildSymbol> >::allocator<std::pair<unsigned long const ,CGuildMarkManager::TGuildSymbol> >
PUBLIC	?_Tidy@?$_Tree@V?$_Tmap_traits@KUTGuildSymbol@CGuildMarkManager@@U?$less@K@std@@V?$allocator@U?$pair@$$CBKUTGuildSymbol@CGuildMarkManager@@@std@@@4@$0A@@std@@@std@@IAEXXZ ; std::_Tree<std::_Tmap_traits<unsigned long,CGuildMarkManager::TGuildSymbol,std::less<unsigned long>,std::allocator<std::pair<unsigned long const ,CGuildMarkManager::TGuildSymbol> >,0> >::_Tidy
PUBLIC	?_Lmost@?$_Tree@V?$_Tmap_traits@KUTGuildSymbol@CGuildMarkManager@@U?$less@K@std@@V?$allocator@U?$pair@$$CBKUTGuildSymbol@CGuildMarkManager@@@std@@@4@$0A@@std@@@std@@IBEAAPAU?$_Tree_node@U?$pair@$$CBKUTGuildSymbol@CGuildMarkManager@@@std@@PAX@2@XZ ; std::_Tree<std::_Tmap_traits<unsigned long,CGuildMarkManager::TGuildSymbol,std::less<unsigned long>,std::allocator<std::pair<unsigned long const ,CGuildMarkManager::TGuildSymbol> >,0> >::_Lmost
PUBLIC	??0?$_Tree@V?$_Tmap_traits@KUTGuildSymbol@CGuildMarkManager@@U?$less@K@std@@V?$allocator@U?$pair@$$CBKUTGuildSymbol@CGuildMarkManager@@@std@@@4@$0A@@std@@@std@@QAE@ABU?$less@K@1@ABV?$allocator@U?$pair@$$CBKUTGuildSymbol@CGuildMarkManager@@@std@@@1@@Z ; std::_Tree<std::_Tmap_traits<unsigned long,CGuildMarkManager::TGuildSymbol,std::less<unsigned long>,std::allocator<std::pair<unsigned long const ,CGuildMarkManager::TGuildSymbol> >,0> >::_Tree<std::_Tmap_traits<unsigned long,CGuildMarkManager::TGuildSymbol,std::less<unsigned long>,std::allocator<std::pair<unsigned long const ,CGuildMarkManager::TGuildSymbol> >,0> >
PUBLIC	??1?$_Tree_alloc@$0A@U?$_Tree_base_types@U?$pair@$$CBKPAVCGuildMarkImage@@@std@@V?$allocator@U?$pair@$$CBKPAVCGuildMarkImage@@@std@@@2@@std@@@std@@QAE@XZ ; std::_Tree_alloc<0,std::_Tree_base_types<std::pair<unsigned long const ,CGuildMarkImage *>,std::allocator<std::pair<unsigned long const ,CGuildMarkImage *> > > >::~_Tree_alloc<0,std::_Tree_base_types<std::pair<unsigned long const ,CGuildMarkImage *>,std::allocator<std::pair<unsigned long const ,CGuildMarkImage *> > > >
PUBLIC	??0?$allocator@U?$pair@$$CBKPAVCGuildMarkImage@@@std@@@std@@QAE@XZ ; std::allocator<std::pair<unsigned long const ,CGuildMarkImage *> >::allocator<std::pair<unsigned long const ,CGuildMarkImage *> >
PUBLIC	?_Getcomp@?$_Tree_comp@$0A@V?$_Tmap_traits@KPAVCGuildMarkImage@@U?$less@K@std@@V?$allocator@U?$pair@$$CBKPAVCGuildMarkImage@@@std@@@3@$0A@@std@@@std@@QBE?AU?$less@K@2@XZ ; std::_Tree_comp<0,std::_Tmap_traits<unsigned long,CGuildMarkImage *,std::less<unsigned long>,std::allocator<std::pair<unsigned long const ,CGuildMarkImage *> >,0> >::_Getcomp
PUBLIC	?_Key@?$_Tree@V?$_Tmap_traits@KPAVCGuildMarkImage@@U?$less@K@std@@V?$allocator@U?$pair@$$CBKPAVCGuildMarkImage@@@std@@@3@$0A@@std@@@std@@IBEABKPAU?$_Tree_node@U?$pair@$$CBKPAVCGuildMarkImage@@@std@@PAX@2@@Z ; std::_Tree<std::_Tmap_traits<unsigned long,CGuildMarkImage *,std::less<unsigned long>,std::allocator<std::pair<unsigned long const ,CGuildMarkImage *> >,0> >::_Key
PUBLIC	?_Tidy@?$_Tree@V?$_Tmap_traits@KPAVCGuildMarkImage@@U?$less@K@std@@V?$allocator@U?$pair@$$CBKPAVCGuildMarkImage@@@std@@@3@$0A@@std@@@std@@IAEXXZ ; std::_Tree<std::_Tmap_traits<unsigned long,CGuildMarkImage *,std::less<unsigned long>,std::allocator<std::pair<unsigned long const ,CGuildMarkImage *> >,0> >::_Tidy
PUBLIC	?_Root@?$_Tree@V?$_Tmap_traits@KPAVCGuildMarkImage@@U?$less@K@std@@V?$allocator@U?$pair@$$CBKPAVCGuildMarkImage@@@std@@@3@$0A@@std@@@std@@IBEAAPAU?$_Tree_node@U?$pair@$$CBKPAVCGuildMarkImage@@@std@@PAX@2@XZ ; std::_Tree<std::_Tmap_traits<unsigned long,CGuildMarkImage *,std::less<unsigned long>,std::allocator<std::pair<unsigned long const ,CGuildMarkImage *> >,0> >::_Root
PUBLIC	?_Rmost@?$_Tree@V?$_Tmap_traits@KPAVCGuildMarkImage@@U?$less@K@std@@V?$allocator@U?$pair@$$CBKPAVCGuildMarkImage@@@std@@@3@$0A@@std@@@std@@IBEAAPAU?$_Tree_node@U?$pair@$$CBKPAVCGuildMarkImage@@@std@@PAX@2@XZ ; std::_Tree<std::_Tmap_traits<unsigned long,CGuildMarkImage *,std::less<unsigned long>,std::allocator<std::pair<unsigned long const ,CGuildMarkImage *> >,0> >::_Rmost
PUBLIC	?_Lmost@?$_Tree@V?$_Tmap_traits@KPAVCGuildMarkImage@@U?$less@K@std@@V?$allocator@U?$pair@$$CBKPAVCGuildMarkImage@@@std@@@3@$0A@@std@@@std@@IBEAAPAU?$_Tree_node@U?$pair@$$CBKPAVCGuildMarkImage@@@std@@PAX@2@XZ ; std::_Tree<std::_Tmap_traits<unsigned long,CGuildMarkImage *,std::less<unsigned long>,std::allocator<std::pair<unsigned long const ,CGuildMarkImage *> >,0> >::_Lmost
PUBLIC	?_Erase@?$_Tree@V?$_Tmap_traits@KPAVCGuildMarkImage@@U?$less@K@std@@V?$allocator@U?$pair@$$CBKPAVCGuildMarkImage@@@std@@@3@$0A@@std@@@std@@IAEXPAU?$_Tree_node@U?$pair@$$CBKPAVCGuildMarkImage@@@std@@PAX@2@@Z ; std::_Tree<std::_Tmap_traits<unsigned long,CGuildMarkImage *,std::less<unsigned long>,std::allocator<std::pair<unsigned long const ,CGuildMarkImage *> >,0> >::_Erase
PUBLIC	?lower_bound@?$_Tree@V?$_Tmap_traits@KPAVCGuildMarkImage@@U?$less@K@std@@V?$allocator@U?$pair@$$CBKPAVCGuildMarkImage@@@std@@@3@$0A@@std@@@std@@QAE?AV?$_Tree_iterator@V?$_Tree_val@U?$_Tree_simple_types@U?$pair@$$CBKPAVCGuildMarkImage@@@std@@@std@@@std@@@2@ABK@Z ; std::_Tree<std::_Tmap_traits<unsigned long,CGuildMarkImage *,std::less<unsigned long>,std::allocator<std::pair<unsigned long const ,CGuildMarkImage *> >,0> >::lower_bound
PUBLIC	??0?$_Tree@V?$_Tmap_traits@KPAVCGuildMarkImage@@U?$less@K@std@@V?$allocator@U?$pair@$$CBKPAVCGuildMarkImage@@@std@@@3@$0A@@std@@@std@@QAE@ABU?$less@K@1@ABV?$allocator@U?$pair@$$CBKPAVCGuildMarkImage@@@std@@@1@@Z ; std::_Tree<std::_Tmap_traits<unsigned long,CGuildMarkImage *,std::less<unsigned long>,std::allocator<std::pair<unsigned long const ,CGuildMarkImage *> >,0> >::_Tree<std::_Tmap_traits<unsigned long,CGuildMarkImage *,std::less<unsigned long>,std::allocator<std::pair<unsigned long const ,CGuildMarkImage *> >,0> >
PUBLIC	?_Getal@?$_Vector_alloc@$0A@U?$_Vec_base_types@EV?$allocator@E@std@@@std@@@std@@QBE?AU?$_Wrap_alloc@V?$allocator@E@std@@@2@XZ ; std::_Vector_alloc<0,std::_Vec_base_types<unsigned char,std::allocator<unsigned char> > >::_Getal
PUBLIC	??0?$_Vector_alloc@$0A@U?$_Vec_base_types@EV?$allocator@E@std@@@std@@@std@@QAE@ABV?$allocator@E@1@@Z ; std::_Vector_alloc<0,std::_Vec_base_types<unsigned char,std::allocator<unsigned char> > >::_Vector_alloc<0,std::_Vec_base_types<unsigned char,std::allocator<unsigned char> > >
PUBLIC	??0?$allocator@E@std@@QAE@XZ			; std::allocator<unsigned char>::allocator<unsigned char>
PUBLIC	?_Xlen@?$vector@EV?$allocator@E@std@@@std@@IBEXXZ ; std::vector<unsigned char,std::allocator<unsigned char> >::_Xlen
PUBLIC	?_Tidy@?$vector@EV?$allocator@E@std@@@std@@IAEXXZ ; std::vector<unsigned char,std::allocator<unsigned char> >::_Tidy
PUBLIC	?_Reserve@?$vector@EV?$allocator@E@std@@@std@@IAEXI@Z ; std::vector<unsigned char,std::allocator<unsigned char> >::_Reserve
PUBLIC	?_Reallocate@?$vector@EV?$allocator@E@std@@@std@@IAEXI@Z ; std::vector<unsigned char,std::allocator<unsigned char> >::_Reallocate
PUBLIC	?_Destroy@?$vector@EV?$allocator@E@std@@@std@@IAEXPAE0@Z ; std::vector<unsigned char,std::allocator<unsigned char> >::_Destroy
PUBLIC	?_Pop_back_n@?$vector@EV?$allocator@E@std@@@std@@QAEXI@Z ; std::vector<unsigned char,std::allocator<unsigned char> >::_Pop_back_n
PUBLIC	?max_size@?$vector@EV?$allocator@E@std@@@std@@QBEIXZ ; std::vector<unsigned char,std::allocator<unsigned char> >::max_size
PUBLIC	?capacity@?$vector@EV?$allocator@E@std@@@std@@QBEIXZ ; std::vector<unsigned char,std::allocator<unsigned char> >::capacity
PUBLIC	??1?$_Tree_buy@U?$pair@$$CBKUTGuildSymbol@CGuildMarkManager@@@std@@V?$allocator@U?$pair@$$CBKUTGuildSymbol@CGuildMarkManager@@@std@@@2@@std@@QAE@XZ ; std::_Tree_buy<std::pair<unsigned long const ,CGuildMarkManager::TGuildSymbol>,std::allocator<std::pair<unsigned long const ,CGuildMarkManager::TGuildSymbol> > >::~_Tree_buy<std::pair<unsigned long const ,CGuildMarkManager::TGuildSymbol>,std::allocator<std::pair<unsigned long const ,CGuildMarkManager::TGuildSymbol> > >
PUBLIC	??1?$_Tree_buy@U?$pair@$$CBKPAVCGuildMarkImage@@@std@@V?$allocator@U?$pair@$$CBKPAVCGuildMarkImage@@@std@@@2@@std@@QAE@XZ ; std::_Tree_buy<std::pair<unsigned long const ,CGuildMarkImage *>,std::allocator<std::pair<unsigned long const ,CGuildMarkImage *> > >::~_Tree_buy<std::pair<unsigned long const ,CGuildMarkImage *>,std::allocator<std::pair<unsigned long const ,CGuildMarkImage *> > >
PUBLIC	??1?$_Tree_comp@$0A@V?$_Tmap_traits@KUTGuildSymbol@CGuildMarkManager@@U?$less@K@std@@V?$allocator@U?$pair@$$CBKUTGuildSymbol@CGuildMarkManager@@@std@@@4@$0A@@std@@@std@@QAE@XZ ; std::_Tree_comp<0,std::_Tmap_traits<unsigned long,CGuildMarkManager::TGuildSymbol,std::less<unsigned long>,std::allocator<std::pair<unsigned long const ,CGuildMarkManager::TGuildSymbol> >,0> >::~_Tree_comp<0,std::_Tmap_traits<unsigned long,CGuildMarkManager::TGuildSymbol,std::less<unsigned long>,std::allocator<std::pair<unsigned long const ,CGuildMarkManager::TGuildSymbol> >,0> >
PUBLIC	??1?$_Tree_comp@$0A@V?$_Tmap_traits@KPAVCGuildMarkImage@@U?$less@K@std@@V?$allocator@U?$pair@$$CBKPAVCGuildMarkImage@@@std@@@3@$0A@@std@@@std@@QAE@XZ ; std::_Tree_comp<0,std::_Tmap_traits<unsigned long,CGuildMarkImage *,std::less<unsigned long>,std::allocator<std::pair<unsigned long const ,CGuildMarkImage *> >,0> >::~_Tree_comp<0,std::_Tmap_traits<unsigned long,CGuildMarkImage *,std::less<unsigned long>,std::allocator<std::pair<unsigned long const ,CGuildMarkImage *> >,0> >
PUBLIC	??_G?$singleton@VCGuildMarkManager@@@@UAEPAXI@Z	; singleton<CGuildMarkManager>::`scalar deleting destructor'
PUBLIC	??9?$_Tree_const_iterator@V?$_Tree_val@U?$_Tree_simple_types@U?$pair@$$CBKUTGuildSymbol@CGuildMarkManager@@@std@@@std@@@std@@@std@@QBE_NABV01@@Z ; std::_Tree_const_iterator<std::_Tree_val<std::_Tree_simple_types<std::pair<unsigned long const ,CGuildMarkManager::TGuildSymbol> > > >::operator!=
PUBLIC	??8?$_Tree_const_iterator@V?$_Tree_val@U?$_Tree_simple_types@U?$pair@$$CBKUTGuildSymbol@CGuildMarkManager@@@std@@@std@@@std@@@std@@QBE_NABV01@@Z ; std::_Tree_const_iterator<std::_Tree_val<std::_Tree_simple_types<std::pair<unsigned long const ,CGuildMarkManager::TGuildSymbol> > > >::operator==
PUBLIC	??9?$_Tree_const_iterator@V?$_Tree_val@U?$_Tree_simple_types@U?$pair@$$CBKPAVCGuildMarkImage@@@std@@@std@@@std@@@std@@QBE_NABV01@@Z ; std::_Tree_const_iterator<std::_Tree_val<std::_Tree_simple_types<std::pair<unsigned long const ,CGuildMarkImage *> > > >::operator!=
PUBLIC	??8?$_Tree_const_iterator@V?$_Tree_val@U?$_Tree_simple_types@U?$pair@$$CBKPAVCGuildMarkImage@@@std@@@std@@@std@@@std@@QBE_NABV01@@Z ; std::_Tree_const_iterator<std::_Tree_val<std::_Tree_simple_types<std::pair<unsigned long const ,CGuildMarkImage *> > > >::operator==
PUBLIC	??E?$_Tree_iterator@V?$_Tree_val@U?$_Tree_simple_types@U?$pair@$$CBKPAVCGuildMarkImage@@@std@@@std@@@std@@@std@@QAEAAV01@XZ ; std::_Tree_iterator<std::_Tree_val<std::_Tree_simple_types<std::pair<unsigned long const ,CGuildMarkImage *> > > >::operator++
PUBLIC	??C?$_Tree_iterator@V?$_Tree_val@U?$_Tree_simple_types@U?$pair@$$CBKPAVCGuildMarkImage@@@std@@@std@@@std@@@std@@QBEPAU?$pair@$$CBKPAVCGuildMarkImage@@@1@XZ ; std::_Tree_iterator<std::_Tree_val<std::_Tree_simple_types<std::pair<unsigned long const ,CGuildMarkImage *> > > >::operator->
PUBLIC	?end@?$_Tree@V?$_Tmap_traits@KUTGuildSymbol@CGuildMarkManager@@U?$less@K@std@@V?$allocator@U?$pair@$$CBKUTGuildSymbol@CGuildMarkManager@@@std@@@4@$0A@@std@@@std@@QAE?AV?$_Tree_iterator@V?$_Tree_val@U?$_Tree_simple_types@U?$pair@$$CBKUTGuildSymbol@CGuildMarkManager@@@std@@@std@@@std@@@2@XZ ; std::_Tree<std::_Tmap_traits<unsigned long,CGuildMarkManager::TGuildSymbol,std::less<unsigned long>,std::allocator<std::pair<unsigned long const ,CGuildMarkManager::TGuildSymbol> >,0> >::end
PUBLIC	?begin@?$_Tree@V?$_Tmap_traits@KUTGuildSymbol@CGuildMarkManager@@U?$less@K@std@@V?$allocator@U?$pair@$$CBKUTGuildSymbol@CGuildMarkManager@@@std@@@4@$0A@@std@@@std@@QAE?AV?$_Tree_iterator@V?$_Tree_val@U?$_Tree_simple_types@U?$pair@$$CBKUTGuildSymbol@CGuildMarkManager@@@std@@@std@@@std@@@2@XZ ; std::_Tree<std::_Tmap_traits<unsigned long,CGuildMarkManager::TGuildSymbol,std::less<unsigned long>,std::allocator<std::pair<unsigned long const ,CGuildMarkManager::TGuildSymbol> >,0> >::begin
PUBLIC	??1?$_Tree@V?$_Tmap_traits@KUTGuildSymbol@CGuildMarkManager@@U?$less@K@std@@V?$allocator@U?$pair@$$CBKUTGuildSymbol@CGuildMarkManager@@@std@@@4@$0A@@std@@@std@@QAE@XZ ; std::_Tree<std::_Tmap_traits<unsigned long,CGuildMarkManager::TGuildSymbol,std::less<unsigned long>,std::allocator<std::pair<unsigned long const ,CGuildMarkManager::TGuildSymbol> >,0> >::~_Tree<std::_Tmap_traits<unsigned long,CGuildMarkManager::TGuildSymbol,std::less<unsigned long>,std::allocator<std::pair<unsigned long const ,CGuildMarkManager::TGuildSymbol> >,0> >
PUBLIC	??0?$map@KUTGuildSymbol@CGuildMarkManager@@U?$less@K@std@@V?$allocator@U?$pair@$$CBKUTGuildSymbol@CGuildMarkManager@@@std@@@4@@std@@QAE@XZ ; std::map<unsigned long,CGuildMarkManager::TGuildSymbol,std::less<unsigned long>,std::allocator<std::pair<unsigned long const ,CGuildMarkManager::TGuildSymbol> > >::map<unsigned long,CGuildMarkManager::TGuildSymbol,std::less<unsigned long>,std::allocator<std::pair<unsigned long const ,CGuildMarkManager::TGuildSymbol> > >
PUBLIC	?size@?$_Tree@V?$_Tmap_traits@KKU?$less@K@std@@V?$allocator@U?$pair@$$CBKK@std@@@2@$0A@@std@@@std@@QBEIXZ ; std::_Tree<std::_Tmap_traits<unsigned long,unsigned long,std::less<unsigned long>,std::allocator<std::pair<unsigned long const ,unsigned long> >,0> >::size
PUBLIC	?find@?$_Tree@V?$_Tmap_traits@KPAVCGuildMarkImage@@U?$less@K@std@@V?$allocator@U?$pair@$$CBKPAVCGuildMarkImage@@@std@@@3@$0A@@std@@@std@@QAE?AV?$_Tree_iterator@V?$_Tree_val@U?$_Tree_simple_types@U?$pair@$$CBKPAVCGuildMarkImage@@@std@@@std@@@std@@@2@ABK@Z ; std::_Tree<std::_Tmap_traits<unsigned long,CGuildMarkImage *,std::less<unsigned long>,std::allocator<std::pair<unsigned long const ,CGuildMarkImage *> >,0> >::find
PUBLIC	?clear@?$_Tree@V?$_Tmap_traits@KPAVCGuildMarkImage@@U?$less@K@std@@V?$allocator@U?$pair@$$CBKPAVCGuildMarkImage@@@std@@@3@$0A@@std@@@std@@QAEXXZ ; std::_Tree<std::_Tmap_traits<unsigned long,CGuildMarkImage *,std::less<unsigned long>,std::allocator<std::pair<unsigned long const ,CGuildMarkImage *> >,0> >::clear
PUBLIC	?size@?$_Tree@V?$_Tmap_traits@KPAVCGuildMarkImage@@U?$less@K@std@@V?$allocator@U?$pair@$$CBKPAVCGuildMarkImage@@@std@@@3@$0A@@std@@@std@@QBEIXZ ; std::_Tree<std::_Tmap_traits<unsigned long,CGuildMarkImage *,std::less<unsigned long>,std::allocator<std::pair<unsigned long const ,CGuildMarkImage *> >,0> >::size
PUBLIC	?end@?$_Tree@V?$_Tmap_traits@KPAVCGuildMarkImage@@U?$less@K@std@@V?$allocator@U?$pair@$$CBKPAVCGuildMarkImage@@@std@@@3@$0A@@std@@@std@@QAE?AV?$_Tree_iterator@V?$_Tree_val@U?$_Tree_simple_types@U?$pair@$$CBKPAVCGuildMarkImage@@@std@@@std@@@std@@@2@XZ ; std::_Tree<std::_Tmap_traits<unsigned long,CGuildMarkImage *,std::less<unsigned long>,std::allocator<std::pair<unsigned long const ,CGuildMarkImage *> >,0> >::end
PUBLIC	?begin@?$_Tree@V?$_Tmap_traits@KPAVCGuildMarkImage@@U?$less@K@std@@V?$allocator@U?$pair@$$CBKPAVCGuildMarkImage@@@std@@@3@$0A@@std@@@std@@QAE?AV?$_Tree_iterator@V?$_Tree_val@U?$_Tree_simple_types@U?$pair@$$CBKPAVCGuildMarkImage@@@std@@@std@@@std@@@2@XZ ; std::_Tree<std::_Tmap_traits<unsigned long,CGuildMarkImage *,std::less<unsigned long>,std::allocator<std::pair<unsigned long const ,CGuildMarkImage *> >,0> >::begin
PUBLIC	??1?$_Tree@V?$_Tmap_traits@KPAVCGuildMarkImage@@U?$less@K@std@@V?$allocator@U?$pair@$$CBKPAVCGuildMarkImage@@@std@@@3@$0A@@std@@@std@@QAE@XZ ; std::_Tree<std::_Tmap_traits<unsigned long,CGuildMarkImage *,std::less<unsigned long>,std::allocator<std::pair<unsigned long const ,CGuildMarkImage *> >,0> >::~_Tree<std::_Tmap_traits<unsigned long,CGuildMarkImage *,std::less<unsigned long>,std::allocator<std::pair<unsigned long const ,CGuildMarkImage *> >,0> >
PUBLIC	?insert@?$_Tree@V?$_Tmap_traits@KPAVCGuildMarkImage@@U?$less@K@std@@V?$allocator@U?$pair@$$CBKPAVCGuildMarkImage@@@std@@@3@$0A@@std@@@std@@QAE?AU?$pair@V?$_Tree_iterator@V?$_Tree_val@U?$_Tree_simple_types@U?$pair@$$CBKPAVCGuildMarkImage@@@std@@@std@@@std@@@std@@_N@2@$$QAU?$pair@$$CBKPAVCGuildMarkImage@@@2@@Z ; std::_Tree<std::_Tmap_traits<unsigned long,CGuildMarkImage *,std::less<unsigned long>,std::allocator<std::pair<unsigned long const ,CGuildMarkImage *> >,0> >::insert
PUBLIC	??0?$map@KPAVCGuildMarkImage@@U?$less@K@std@@V?$allocator@U?$pair@$$CBKPAVCGuildMarkImage@@@std@@@3@@std@@QAE@XZ ; std::map<unsigned long,CGuildMarkImage *,std::less<unsigned long>,std::allocator<std::pair<unsigned long const ,CGuildMarkImage *> > >::map<unsigned long,CGuildMarkImage *,std::less<unsigned long>,std::allocator<std::pair<unsigned long const ,CGuildMarkImage *> > >
PUBLIC	??1?$singleton@VCGuildMarkManager@@@@UAE@XZ	; singleton<CGuildMarkManager>::~singleton<CGuildMarkManager>
PUBLIC	??0?$singleton@VCGuildMarkManager@@@@QAE@XZ	; singleton<CGuildMarkManager>::singleton<CGuildMarkManager>
PUBLIC	?size@?$vector@EV?$allocator@E@std@@@std@@QBEIXZ ; std::vector<unsigned char,std::allocator<unsigned char> >::size
PUBLIC	?resize@?$vector@EV?$allocator@E@std@@@std@@QAEXI@Z ; std::vector<unsigned char,std::allocator<unsigned char> >::resize
PUBLIC	??1?$vector@EV?$allocator@E@std@@@std@@QAE@XZ	; std::vector<unsigned char,std::allocator<unsigned char> >::~vector<unsigned char,std::allocator<unsigned char> >
PUBLIC	??0?$vector@EV?$allocator@E@std@@@std@@QAE@XZ	; std::vector<unsigned char,std::allocator<unsigned char> >::vector<unsigned char,std::allocator<unsigned char> >
PUBLIC	??1TGuildSymbol@CGuildMarkManager@@QAE@XZ	; CGuildMarkManager::TGuildSymbol::~TGuildSymbol
PUBLIC	?GetMarkID@CGuildMarkManager@@QAEKK@Z		; CGuildMarkManager::GetMarkID
PUBLIC	?__GetImage@CGuildMarkManager@@AAEPAVCGuildMarkImage@@K@Z ; CGuildMarkManager::__GetImage
PUBLIC	?SetMarkPathPrefix@CGuildMarkManager@@QAEXPBD@Z	; CGuildMarkManager::SetMarkPathPrefix
PUBLIC	??1CGuildMarkManager@@UAE@XZ			; CGuildMarkManager::~CGuildMarkManager
PUBLIC	??1?$map@KUTGuildSymbol@CGuildMarkManager@@U?$less@K@std@@V?$allocator@U?$pair@$$CBKUTGuildSymbol@CGuildMarkManager@@@std@@@4@@std@@QAE@XZ ; std::map<unsigned long,CGuildMarkManager::TGuildSymbol,std::less<unsigned long>,std::allocator<std::pair<unsigned long const ,CGuildMarkManager::TGuildSymbol> > >::~map<unsigned long,CGuildMarkManager::TGuildSymbol,std::less<unsigned long>,std::allocator<std::pair<unsigned long const ,CGuildMarkManager::TGuildSymbol> > >
PUBLIC	??1?$map@KPAVCGuildMarkImage@@U?$less@K@std@@V?$allocator@U?$pair@$$CBKPAVCGuildMarkImage@@@std@@@3@@std@@QAE@XZ ; std::map<unsigned long,CGuildMarkImage *,std::less<unsigned long>,std::allocator<std::pair<unsigned long const ,CGuildMarkImage *> > >::~map<unsigned long,CGuildMarkImage *,std::less<unsigned long>,std::allocator<std::pair<unsigned long const ,CGuildMarkImage *> > >
PUBLIC	??_GCGuildMarkManager@@UAEPAXI@Z		; CGuildMarkManager::`scalar deleting destructor'
PUBLIC	??0CGuildMarkManager@@QAE@XZ			; CGuildMarkManager::CGuildMarkManager
PUBLIC	?__DeleteImage@CGuildMarkManager@@AAEXPAVCGuildMarkImage@@@Z ; CGuildMarkManager::__DeleteImage
PUBLIC	?__NewImage@CGuildMarkManager@@AAEPAVCGuildMarkImage@@XZ ; CGuildMarkManager::__NewImage
PUBLIC	?AddMarkIDByGuildID@CGuildMarkManager@@QAE_NKK@Z ; CGuildMarkManager::AddMarkIDByGuildID
PUBLIC	?LoadMarkImages@CGuildMarkManager@@QAEXXZ	; CGuildMarkManager::LoadMarkImages
PUBLIC	?GetBlockCRCList@CGuildMarkManager@@QAE_NKPAK@Z	; CGuildMarkManager::GetBlockCRCList
PUBLIC	?SaveBlockFromCompressedData@CGuildMarkManager@@QAE_NKKPBEK@Z ; CGuildMarkManager::SaveBlockFromCompressedData
PUBLIC	?SaveMarkImage@CGuildMarkManager@@QAEXK@Z	; CGuildMarkManager::SaveMarkImage
PUBLIC	?GetMarkImageFilename@CGuildMarkManager@@QBE_NKAAV?$basic_string@DU?$char_traits@D@std@@V?$allocator@D@2@@std@@@Z ; CGuildMarkManager::GetMarkImageFilename
PUBLIC	?GetMarkImageCount@CGuildMarkManager@@QBEKXZ	; CGuildMarkManager::GetMarkImageCount
EXTRN	??_ECGuildMarkManager@@UAEPAXI@Z:PROC		; CGuildMarkManager::`vector deleting destructor'
EXTRN	??_E?$singleton@VCGuildMarkManager@@@@UAEPAXI@Z:PROC ; singleton<CGuildMarkManager>::`vector deleting destructor'
	ALIGN	4

__Nil_obj DB	01H DUP (?)
	ALIGN	4

_piecewise_construct DB 01H DUP (?)
_BSS	ENDS
;	COMDAT xdata$x
xdata$x	SEGMENT
__ehfuncinfo$?SaveMarkImage@CGuildMarkManager@@QAEXK@Z DD 019930522H
	DD	01H
	DD	FLAT:__unwindtable$?SaveMarkImage@CGuildMarkManager@@QAEXK@Z
	DD	2 DUP(00H)
	DD	2 DUP(00H)
	DD	00H
	DD	01H
__unwindtable$?SaveMarkImage@CGuildMarkManager@@QAEXK@Z DD 0ffffffffH
	DD	FLAT:__unwindfunclet$?SaveMarkImage@CGuildMarkManager@@QAEXK@Z$0
xdata$x	ENDS
;	COMDAT xdata$x
xdata$x	SEGMENT
__ehfuncinfo$??0CGuildMarkManager@@QAE@XZ DD 019930522H
	DD	06H
	DD	FLAT:__unwindtable$??0CGuildMarkManager@@QAE@XZ
	DD	2 DUP(00H)
	DD	2 DUP(00H)
	DD	00H
	DD	01H
__unwindtable$??0CGuildMarkManager@@QAE@XZ DD 0ffffffffH
	DD	FLAT:__unwindfunclet$??0CGuildMarkManager@@QAE@XZ$0
	DD	00H
	DD	FLAT:__unwindfunclet$??0CGuildMarkManager@@QAE@XZ$1
	DD	01H
	DD	FLAT:__unwindfunclet$??0CGuildMarkManager@@QAE@XZ$2
	DD	02H
	DD	FLAT:__unwindfunclet$??0CGuildMarkManager@@QAE@XZ$3
	DD	03H
	DD	FLAT:__unwindfunclet$??0CGuildMarkManager@@QAE@XZ$4
	DD	04H
	DD	FLAT:__unwindfunclet$??0CGuildMarkManager@@QAE@XZ$5
xdata$x	ENDS
;	COMDAT xdata$x
xdata$x	SEGMENT
__ehfuncinfo$??1CGuildMarkManager@@UAE@XZ DD 019930522H
	DD	06H
	DD	FLAT:__unwindtable$??1CGuildMarkManager@@UAE@XZ
	DD	2 DUP(00H)
	DD	2 DUP(00H)
	DD	00H
	DD	01H
__unwindtable$??1CGuildMarkManager@@UAE@XZ DD 0ffffffffH
	DD	FLAT:__unwindfunclet$??1CGuildMarkManager@@UAE@XZ$0
	DD	00H
	DD	FLAT:__unwindfunclet$??1CGuildMarkManager@@UAE@XZ$1
	DD	01H
	DD	FLAT:__unwindfunclet$??1CGuildMarkManager@@UAE@XZ$2
	DD	02H
	DD	FLAT:__unwindfunclet$??1CGuildMarkManager@@UAE@XZ$3
	DD	03H
	DD	FLAT:__unwindfunclet$??1CGuildMarkManager@@UAE@XZ$4
	DD	04H
	DD	FLAT:__unwindfunclet$??1CGuildMarkManager@@UAE@XZ$5
xdata$x	ENDS
;	COMDAT xdata$x
xdata$x	SEGMENT
__ehfuncinfo$?__GetImage@CGuildMarkManager@@AAEPAVCGuildMarkImage@@K@Z DD 019930522H
	DD	01H
	DD	FLAT:__unwindtable$?__GetImage@CGuildMarkManager@@AAEPAVCGuildMarkImage@@K@Z
	DD	2 DUP(00H)
	DD	2 DUP(00H)
	DD	00H
	DD	01H
__unwindtable$?__GetImage@CGuildMarkManager@@AAEPAVCGuildMarkImage@@K@Z DD 0ffffffffH
	DD	FLAT:__unwindfunclet$?__GetImage@CGuildMarkManager@@AAEPAVCGuildMarkImage@@K@Z$0
xdata$x	ENDS
;	COMDAT xdata$x
xdata$x	SEGMENT
__ehfuncinfo$??$_Insert_nohint@U?$pair@$$CBKPAVCGuildMarkImage@@@std@@U_Nil@2@@?$_Tree@V?$_Tmap_traits@KPAVCGuildMarkImage@@U?$less@K@std@@V?$allocator@U?$pair@$$CBKPAVCGuildMarkImage@@@std@@@3@$0A@@std@@@std@@IAE?AU?$pair@V?$_Tree_iterator@V?$_Tree_val@U?$_Tree_simple_types@U?$pair@$$CBKPAVCGuildMarkImage@@@std@@@std@@@std@@@std@@_N@1@_N$$QAU?$pair@$$CBKPAVCGuildMarkImage@@@1@U_Nil@1@@Z DD 019930522H
	DD	02H
	DD	FLAT:__unwindtable$??$_Insert_nohint@U?$pair@$$CBKPAVCGuildMarkImage@@@std@@U_Nil@2@@?$_Tree@V?$_Tmap_traits@KPAVCGuildMarkImage@@U?$less@K@std@@V?$allocator@U?$pair@$$CBKPAVCGuildMarkImage@@@std@@@3@$0A@@std@@@std@@IAE?AU?$pair@V?$_Tree_iterator@V?$_Tree_val@U?$_Tree_simple_types@U?$pair@$$CBKPAVCGuildMarkImage@@@std@@@std@@@std@@@std@@_N@1@_N$$QAU?$pair@$$CBKPAVCGuildMarkImage@@@1@U_Nil@1@@Z
	DD	01H
	DD	FLAT:__tryblocktable$??$_Insert_nohint@U?$pair@$$CBKPAVCGuildMarkImage@@@std@@U_Nil@2@@?$_Tree@V?$_Tmap_traits@KPAVCGuildMarkImage@@U?$less@K@std@@V?$allocator@U?$pair@$$CBKPAVCGuildMarkImage@@@std@@@3@$0A@@std@@@std@@IAE?AU?$pair@V?$_Tree_iterator@V?$_Tree_val@U?$_Tree_simple_types@U?$pair@$$CBKPAVCGuildMarkImage@@@std@@@std@@@std@@@std@@_N@1@_N$$QAU?$pair@$$CBKPAVCGuildMarkImage@@@1@U_Nil@1@@Z
	DD	2 DUP(00H)
	DD	00H
	DD	01H
__unwindtable$??$_Insert_nohint@U?$pair@$$CBKPAVCGuildMarkImage@@@std@@U_Nil@2@@?$_Tree@V?$_Tmap_traits@KPAVCGuildMarkImage@@U?$less@K@std@@V?$allocator@U?$pair@$$CBKPAVCGuildMarkImage@@@std@@@3@$0A@@std@@@std@@IAE?AU?$pair@V?$_Tree_iterator@V?$_Tree_val@U?$_Tree_simple_types@U?$pair@$$CBKPAVCGuildMarkImage@@@std@@@std@@@std@@@std@@_N@1@_N$$QAU?$pair@$$CBKPAVCGuildMarkImage@@@1@U_Nil@1@@Z DD 0ffffffffH
	DD	00H
	DD	0ffffffffH
	DD	00H
__tryblocktable$??$_Insert_nohint@U?$pair@$$CBKPAVCGuildMarkImage@@@std@@U_Nil@2@@?$_Tree@V?$_Tmap_traits@KPAVCGuildMarkImage@@U?$less@K@std@@V?$allocator@U?$pair@$$CBKPAVCGuildMarkImage@@@std@@@3@$0A@@std@@@std@@IAE?AU?$pair@V?$_Tree_iterator@V?$_Tree_val@U?$_Tree_simple_types@U?$pair@$$CBKPAVCGuildMarkImage@@@std@@@std@@@std@@@std@@_N@1@_N$$QAU?$pair@$$CBKPAVCGuildMarkImage@@@1@U_Nil@1@@Z DD 00H
	DD	00H
	DD	01H
	DD	01H
	DD	FLAT:__catchsym$??$_Insert_nohint@U?$pair@$$CBKPAVCGuildMarkImage@@@std@@U_Nil@2@@?$_Tree@V?$_Tmap_traits@KPAVCGuildMarkImage@@U?$less@K@std@@V?$allocator@U?$pair@$$CBKPAVCGuildMarkImage@@@std@@@3@$0A@@std@@@std@@IAE?AU?$pair@V?$_Tree_iterator@V?$_Tree_val@U?$_Tree_simple_types@U?$pair@$$CBKPAVCGuildMarkImage@@@std@@@std@@@std@@@std@@_N@1@_N$$QAU?$pair@$$CBKPAVCGuildMarkImage@@@1@U_Nil@1@@Z$2
__catchsym$??$_Insert_nohint@U?$pair@$$CBKPAVCGuildMarkImage@@@std@@U_Nil@2@@?$_Tree@V?$_Tmap_traits@KPAVCGuildMarkImage@@U?$less@K@std@@V?$allocator@U?$pair@$$CBKPAVCGuildMarkImage@@@std@@@3@$0A@@std@@@std@@IAE?AU?$pair@V?$_Tree_iterator@V?$_Tree_val@U?$_Tree_simple_types@U?$pair@$$CBKPAVCGuildMarkImage@@@std@@@std@@@std@@@std@@_N@1@_N$$QAU?$pair@$$CBKPAVCGuildMarkImage@@@1@U_Nil@1@@Z$2 DD 040H
	DD	00H
	DD	00H
	DD	FLAT:__catch$??$_Insert_nohint@U?$pair@$$CBKPAVCGuildMarkImage@@@std@@U_Nil@2@@?$_Tree@V?$_Tmap_traits@KPAVCGuildMarkImage@@U?$less@K@std@@V?$allocator@U?$pair@$$CBKPAVCGuildMarkImage@@@std@@@3@$0A@@std@@@std@@IAE?AU?$pair@V?$_Tree_iterator@V?$_Tree_val@U?$_Tree_simple_types@U?$pair@$$CBKPAVCGuildMarkImage@@@std@@@std@@@std@@@std@@_N@1@_N$$QAU?$pair@$$CBKPAVCGuildMarkImage@@@1@U_Nil@1@@Z$0
; Function compile flags: /Ogtp
; File d:\metin2\metin2\client_source_clean\client_source_clean\source\userinterface\markmanager.cpp
;	COMDAT ?GetMarkImageCount@CGuildMarkManager@@QBEKXZ
_TEXT	SEGMENT
?GetMarkImageCount@CGuildMarkManager@@QBEKXZ PROC	; CGuildMarkManager::GetMarkImageCount, COMDAT
; _this$ = ecx

; 195  : 	return m_mapIdx_Image.size();

  00000	8b 41 08	 mov	 eax, DWORD PTR [ecx+8]

; 196  : }

  00003	c3		 ret	 0
?GetMarkImageCount@CGuildMarkManager@@QBEKXZ ENDP	; CGuildMarkManager::GetMarkImageCount
_TEXT	ENDS
; Function compile flags: /Ogtp
; File d:\metin2\metin2\client_source_clean\client_source_clean\source\userinterface\markmanager.cpp
; File c:\program files (x86)\microsoft visual studio 12.0\vc\include\xstring
; File d:\metin2\metin2\client_source_clean\client_source_clean\source\userinterface\markmanager.cpp
; File c:\program files (x86)\microsoft visual studio 12.0\vc\include\xstring
; File c:\program files (x86)\microsoft visual studio 12.0\vc\include\xstddef
; File d:\metin2\metin2\client_source_clean\client_source_clean\source\userinterface\markmanager.cpp
; File c:\program files (x86)\microsoft visual studio 12.0\vc\include\iosfwd
; File c:\program files (x86)\microsoft visual studio 12.0\vc\include\xstring
; File d:\metin2\metin2\client_source_clean\client_source_clean\source\userinterface\markmanager.cpp
;	COMDAT ?GetMarkImageFilename@CGuildMarkManager@@QBE_NKAAV?$basic_string@DU?$char_traits@D@std@@V?$allocator@D@2@@std@@@Z
_TEXT	SEGMENT
_buf$ = -68						; size = 64
__$ArrayPad$ = -4					; size = 4
_imgIdx$ = 8						; size = 4
_path$ = 12						; size = 4
?GetMarkImageFilename@CGuildMarkManager@@QBE_NKAAV?$basic_string@DU?$char_traits@D@std@@V?$allocator@D@2@@std@@@Z PROC ; CGuildMarkManager::GetMarkImageFilename, COMDAT
; _this$ = ecx

; 42   : {

  00000	55		 push	 ebp
  00001	8b ec		 mov	 ebp, esp
  00003	83 ec 44	 sub	 esp, 68			; 00000044H
  00006	a1 00 00 00 00	 mov	 eax, DWORD PTR ___security_cookie
  0000b	33 c5		 xor	 eax, ebp
  0000d	89 45 fc	 mov	 DWORD PTR __$ArrayPad$[ebp], eax

; 43   : 	if (imgIdx >= MAX_IMAGE_COUNT)

  00010	8b 55 08	 mov	 edx, DWORD PTR _imgIdx$[ebp]
  00013	56		 push	 esi
  00014	8b 75 0c	 mov	 esi, DWORD PTR _path$[ebp]
  00017	83 fa 05	 cmp	 edx, 5
  0001a	72 13		 jb	 SHORT $LN1@GetMarkIma

; 44   : 		return false;

  0001c	32 c0		 xor	 al, al
  0001e	5e		 pop	 esi

; 50   : }

  0001f	8b 4d fc	 mov	 ecx, DWORD PTR __$ArrayPad$[ebp]
  00022	33 cd		 xor	 ecx, ebp
  00024	e8 00 00 00 00	 call	 @__security_check_cookie@4
  00029	8b e5		 mov	 esp, ebp
  0002b	5d		 pop	 ebp
  0002c	c2 08 00	 ret	 8
$LN1@GetMarkIma:
; File c:\program files (x86)\microsoft visual studio 12.0\vc\include\xstring

; 520  : 			: this->_Bx._Buf);

  0002f	83 79 30 10	 cmp	 DWORD PTR [ecx+48], 16	; 00000010H
; File d:\metin2\metin2\client_source_clean\client_source_clean\source\userinterface\markmanager.cpp

; 47   : 	snprintf(buf, sizeof(buf), "mark/%s_%lu.tga", m_pathPrefix.c_str(), imgIdx);

  00033	8d 41 1c	 lea	 eax, DWORD PTR [ecx+28]
; File c:\program files (x86)\microsoft visual studio 12.0\vc\include\xstring

; 520  : 			: this->_Bx._Buf);

  00036	72 02		 jb	 SHORT $LN8@GetMarkIma
; File c:\program files (x86)\microsoft visual studio 12.0\vc\include\xstddef

; 95   : 		reinterpret_cast<const volatile char&>(_Val)))));

  00038	8b 00		 mov	 eax, DWORD PTR [eax]
$LN8@GetMarkIma:
; File d:\metin2\metin2\client_source_clean\client_source_clean\source\userinterface\markmanager.cpp

; 47   : 	snprintf(buf, sizeof(buf), "mark/%s_%lu.tga", m_pathPrefix.c_str(), imgIdx);

  0003a	52		 push	 edx
  0003b	50		 push	 eax
  0003c	68 00 00 00 00	 push	 OFFSET ??_C@_0BA@BKPHNHHG@mark?1?$CFs_?$CFlu?4tga?$AA@
  00041	8d 45 bc	 lea	 eax, DWORD PTR _buf$[ebp]
  00044	6a 40		 push	 64			; 00000040H
  00046	50		 push	 eax
  00047	e8 00 00 00 00	 call	 __snprintf
  0004c	83 c4 14	 add	 esp, 20			; 00000014H
; File c:\program files (x86)\microsoft visual studio 12.0\vc\include\iosfwd

; 523  : 			: _CSTD strlen(_First));

  0004f	80 7d bc 00	 cmp	 BYTE PTR _buf$[ebp], 0
  00053	75 04		 jne	 SHORT $LN18@GetMarkIma
  00055	33 c9		 xor	 ecx, ecx
  00057	eb 10		 jmp	 SHORT $LN19@GetMarkIma
$LN18@GetMarkIma:
  00059	8d 4d bc	 lea	 ecx, DWORD PTR _buf$[ebp]
  0005c	8d 51 01	 lea	 edx, DWORD PTR [ecx+1]
  0005f	90		 npad	 1
$LL20@GetMarkIma:
  00060	8a 01		 mov	 al, BYTE PTR [ecx]
  00062	41		 inc	 ecx
  00063	84 c0		 test	 al, al
  00065	75 f9		 jne	 SHORT $LL20@GetMarkIma
  00067	2b ca		 sub	 ecx, edx
$LN19@GetMarkIma:
; File c:\program files (x86)\microsoft visual studio 12.0\vc\include\xstring

; 1169 : 		return (assign(_Ptr, _Traits::length(_Ptr)));

  00069	51		 push	 ecx
  0006a	8d 45 bc	 lea	 eax, DWORD PTR _buf$[ebp]
  0006d	8b ce		 mov	 ecx, esi
  0006f	50		 push	 eax
  00070	e8 00 00 00 00	 call	 ?assign@?$basic_string@DU?$char_traits@D@std@@V?$allocator@D@2@@std@@QAEAAV12@PBDI@Z ; std::basic_string<char,std::char_traits<char>,std::allocator<char> >::assign
; File d:\metin2\metin2\client_source_clean\client_source_clean\source\userinterface\markmanager.cpp

; 50   : }

  00075	8b 4d fc	 mov	 ecx, DWORD PTR __$ArrayPad$[ebp]
  00078	b0 01		 mov	 al, 1
  0007a	33 cd		 xor	 ecx, ebp
  0007c	5e		 pop	 esi
  0007d	e8 00 00 00 00	 call	 @__security_check_cookie@4
  00082	8b e5		 mov	 esp, ebp
  00084	5d		 pop	 ebp
  00085	c2 08 00	 ret	 8
?GetMarkImageFilename@CGuildMarkManager@@QBE_NKAAV?$basic_string@DU?$char_traits@D@std@@V?$allocator@D@2@@std@@@Z ENDP ; CGuildMarkManager::GetMarkImageFilename
_TEXT	ENDS
; Function compile flags: /Ogtp
; File d:\metin2\metin2\client_source_clean\client_source_clean\source\userinterface\markmanager.cpp
; File c:\program files (x86)\microsoft visual studio 12.0\vc\include\xstring
; File c:\program files (x86)\microsoft visual studio 12.0\vc\include\iosfwd
; File d:\metin2\metin2\client_source_clean\client_source_clean\source\userinterface\markmanager.cpp
; File c:\program files (x86)\microsoft visual studio 12.0\vc\include\xstring
; File d:\metin2\metin2\client_source_clean\client_source_clean\source\userinterface\markmanager.cpp
; File c:\program files (x86)\microsoft visual studio 12.0\vc\include\xstring
; File d:\metin2\metin2\client_source_clean\client_source_clean\source\userinterface\markmanager.cpp
; File c:\program files (x86)\microsoft visual studio 12.0\vc\include\xstring
; File c:\program files (x86)\microsoft visual studio 12.0\vc\include\xmemory0
; File d:\metin2\metin2\client_source_clean\client_source_clean\source\userinterface\markmanager.cpp
;	COMDAT ?SaveMarkImage@CGuildMarkManager@@QAEXK@Z
_TEXT	SEGMENT
_path$ = -44						; size = 24
__$ArrayPad$ = -20					; size = 4
__$EHRec$ = -12						; size = 12
_imgIdx$ = 8						; size = 4
?SaveMarkImage@CGuildMarkManager@@QAEXK@Z PROC		; CGuildMarkManager::SaveMarkImage, COMDAT
; _this$ = ecx

; 124  : {

  00000	55		 push	 ebp
  00001	8b ec		 mov	 ebp, esp
  00003	6a ff		 push	 -1
  00005	68 00 00 00 00	 push	 __ehhandler$?SaveMarkImage@CGuildMarkManager@@QAEXK@Z
  0000a	64 a1 00 00 00
	00		 mov	 eax, DWORD PTR fs:0
  00010	50		 push	 eax
  00011	83 ec 24	 sub	 esp, 36			; 00000024H
  00014	a1 00 00 00 00	 mov	 eax, DWORD PTR ___security_cookie
  00019	33 c5		 xor	 eax, ebp
  0001b	89 45 ec	 mov	 DWORD PTR __$ArrayPad$[ebp], eax
  0001e	56		 push	 esi
  0001f	57		 push	 edi
  00020	50		 push	 eax
  00021	8d 45 f4	 lea	 eax, DWORD PTR __$EHRec$[ebp]
  00024	64 a3 00 00 00
	00		 mov	 DWORD PTR fs:0, eax
  0002a	8b f1		 mov	 esi, ecx
  0002c	8b 7d 08	 mov	 edi, DWORD PTR _imgIdx$[ebp]
; File c:\program files (x86)\microsoft visual studio 12.0\vc\include\xstring

; 2284 : 		this->_Myres = this->_BUF_SIZE - 1;

  0002f	c7 45 e8 0f 00
	00 00		 mov	 DWORD PTR _path$[ebp+20], 15 ; 0000000fH

; 521  : 		}
; 522  : 
; 523  : 	union _Bxty
; 524  : 		{	// storage for small buffer or pointer to larger one
; 525  : 		value_type _Buf[_BUF_SIZE];
; 526  : 		pointer _Ptr;
; 527  : 		char _Alias[_BUF_SIZE];	// to permit aliasing
; 528  : 		} _Bx;
; 529  : 
; 530  : 	size_type _Mysize;	// current length of string
; 531  : 	size_type _Myres;	// current storage reserved for string
; 532  : 	};
; 533  : 
; 534  : 		// TEMPLATE CLASS _String_alloc
; 535  : template<bool _Al_has_storage,
; 536  : 	class _Alloc_types>
; 537  : 	class _String_alloc
; 538  : 		: public _String_val<typename _Alloc_types::_Val_types>
; 539  : 	{	// base class for basic_string to hold allocator with storage
; 540  : public:
; 541  : 	typename _Alloc_types::_Alty _Alval;	// allocator object
; 542  : 
; 543  : 	typedef _String_alloc<_Al_has_storage, _Alloc_types> _Myt;
; 544  : 	typedef typename _Alloc_types::_Alloc _Alloc;
; 545  : 	typedef typename _Alloc_types::_Alty _Alty;
; 546  : 
; 547  :  #if _ITERATOR_DEBUG_LEVEL == 0
; 548  : 	_String_alloc(const _Alloc& _Al = _Alloc())
; 549  : 		: _Alval(_Al)
; 550  : 		{	// construct allocator from _Al
; 551  : 		}
; 552  : 
; 553  : 	void _Change_alloc(const _Alty& _Al)
; 554  : 		{	// replace old allocator
; 555  : 		this->_Alval = _Al;
; 556  : 		}
; 557  : 
; 558  : 	void _Swap_alloc(_Myt& _Right)
; 559  : 		{	// swap allocators
; 560  : 		_Swap_adl(this->_Alval, _Right._Alval);
; 561  : 		}
; 562  : 
; 563  :  #else /* _ITERATOR_DEBUG_LEVEL == 0 */
; 564  : 	_String_alloc(const _Alloc& _Al = _Alloc())
; 565  : 		: _Alval(_Al)
; 566  : 		{	// construct allocator from _Al
; 567  : 		_Alloc_proxy();
; 568  : 		}
; 569  : 
; 570  : 	~_String_alloc() _NOEXCEPT
; 571  : 		{	// destroy the object
; 572  : 		_Free_proxy();
; 573  : 		}
; 574  : 
; 575  : 	void _Change_alloc(const _Alty& _Al)
; 576  : 		{	// replace old allocator
; 577  : 		_Free_proxy();
; 578  : 		this->_Alval = _Al;
; 579  : 		_Alloc_proxy();
; 580  : 		}
; 581  : 
; 582  : 	void _Swap_alloc(_Myt& _Right)
; 583  : 		{	// swap allocators
; 584  : 		_Swap_adl(this->_Alval, _Right._Alval);
; 585  : 		_Swap_adl(this->_Myproxy, _Right._Myproxy);
; 586  : 		}
; 587  : 
; 588  : 	void _Alloc_proxy()
; 589  : 		{	// construct proxy from _Alval
; 590  : 		typename _Alloc::template rebind<_Container_proxy>::other
; 591  : 			_Alproxy(this->_Alval);
; 592  : 		this->_Myproxy = _Alproxy.allocate(1);
; 593  : 		_Alproxy.construct(this->_Myproxy, _Container_proxy());
; 594  : 		this->_Myproxy->_Mycont = this;
; 595  : 		}
; 596  : 
; 597  : 	void _Free_proxy()
; 598  : 		{	// destroy proxy
; 599  : 		typename _Alloc::template rebind<_Container_proxy>::other
; 600  : 			_Alproxy(this->_Alval);
; 601  : 		this->_Orphan_all();
; 602  : 		_Alproxy.destroy(this->_Myproxy);
; 603  : 		_Alproxy.deallocate(this->_Myproxy, 1);
; 604  : 		this->_Myproxy = 0;
; 605  : 		}
; 606  :  #endif /* _ITERATOR_DEBUG_LEVEL == 0 */
; 607  : 
; 608  : 	_Alty& _Getal()
; 609  : 		{	// get reference to allocator
; 610  : 		return (this->_Alval);
; 611  : 		}
; 612  : 
; 613  : 	const _Alty& _Getal() const
; 614  : 		{	// get reference to allocator
; 615  : 		return (this->_Alval);
; 616  : 		}
; 617  : 	};
; 618  : 
; 619  : template<class _Alloc_types>
; 620  : 	class _String_alloc<false, _Alloc_types>
; 621  : 		: public _String_val<typename _Alloc_types::_Val_types>
; 622  : 	{	// base class for basic_string to hold allocator with no storage
; 623  : public:
; 624  : 	typedef _String_alloc<false, _Alloc_types> _Myt;
; 625  : 	typedef typename _Alloc_types::_Alloc _Alloc;
; 626  : 
; 627  : 	typedef typename _Alloc_types::_Alty _Alty;
; 628  : 
; 629  :  #if _ITERATOR_DEBUG_LEVEL == 0
; 630  : 	_String_alloc(const _Alloc& = _Alloc())
; 631  : 		{	// construct allocator from _Al
; 632  : 		}
; 633  : 
; 634  : 	void _Change_alloc(const _Alty&)
; 635  : 		{	// replace old allocator
; 636  : 		}
; 637  : 
; 638  : 	void _Swap_alloc(_Myt&)
; 639  : 		{	// swap allocators
; 640  : 		}
; 641  : 
; 642  :  #else /* _ITERATOR_DEBUG_LEVEL == 0 */
; 643  : 	_String_alloc(const _Alloc& = _Alloc())
; 644  : 		{	// construct allocator from _Al
; 645  : 		_Alloc_proxy();
; 646  : 		}
; 647  : 
; 648  : 	~_String_alloc() _NOEXCEPT
; 649  : 		{	// destroy the object
; 650  : 		_Free_proxy();
; 651  : 		}
; 652  : 
; 653  : 	void _Change_alloc(const _Alty&)
; 654  : 		{	// replace old allocator
; 655  : 		}
; 656  : 
; 657  : 	void _Swap_alloc(_Myt& _Right)
; 658  : 		{	// swap allocators
; 659  : 		_Swap_adl(this->_Myproxy, _Right._Myproxy);
; 660  : 		}
; 661  : 
; 662  : 	void _Alloc_proxy()
; 663  : 		{	// construct proxy from _Alval
; 664  : 		typename _Alloc::template rebind<_Container_proxy>::other
; 665  : 			_Alproxy;
; 666  : 		this->_Myproxy = _Alproxy.allocate(1);
; 667  : 		_Alproxy.construct(this->_Myproxy, _Container_proxy());
; 668  : 		this->_Myproxy->_Mycont = this;
; 669  : 		}
; 670  : 
; 671  : 	void _Free_proxy()
; 672  : 		{	// destroy proxy
; 673  : 		typename _Alloc::template rebind<_Container_proxy>::other
; 674  : 			_Alproxy;
; 675  : 		this->_Orphan_all();
; 676  : 		_Alproxy.destroy(this->_Myproxy);
; 677  : 		_Alproxy.deallocate(this->_Myproxy, 1);
; 678  : 		this->_Myproxy = 0;
; 679  : 		}
; 680  :  #endif /* _ITERATOR_DEBUG_LEVEL == 0 */
; 681  : 
; 682  : 	_Alty _Getal() const
; 683  : 		{	// get reference to allocator
; 684  : 		return (_Alty());
; 685  : 		}
; 686  : 	};
; 687  : 
; 688  : 		// TEMPLATE CLASS basic_string
; 689  : template<class _Elem,
; 690  : 	class _Traits,
; 691  : 	class _Alloc>
; 692  : 	class basic_string
; 693  : 		: public _String_alloc<!is_empty<_Alloc>::value,
; 694  : 			_String_base_types<_Elem, _Alloc> >
; 695  : 	{	// null-terminated transparent array of elements
; 696  : public:
; 697  : 	typedef basic_string<_Elem, _Traits, _Alloc> _Myt;
; 698  : 	typedef _String_alloc<!is_empty<_Alloc>::value,
; 699  : 		_String_base_types<_Elem, _Alloc> > _Mybase;
; 700  : 	typedef _Traits traits_type;
; 701  : 	typedef _Alloc allocator_type;
; 702  : 
; 703  : 	typedef typename _Mybase::_Alty _Alty;
; 704  : 
; 705  : 	typedef typename _Mybase::value_type value_type;
; 706  : 	typedef typename _Mybase::size_type size_type;
; 707  : 	typedef typename _Mybase::difference_type difference_type;
; 708  : 	typedef typename _Mybase::pointer pointer;
; 709  : 	typedef typename _Mybase::const_pointer const_pointer;
; 710  : 	typedef typename _Mybase::reference reference;
; 711  : 	typedef typename _Mybase::const_reference const_reference;
; 712  : 
; 713  : 	typedef typename _Mybase::iterator iterator;
; 714  : 	typedef typename _Mybase::const_iterator const_iterator;
; 715  : 
; 716  : 	typedef _STD reverse_iterator<iterator> reverse_iterator;
; 717  : 	typedef _STD reverse_iterator<const_iterator> const_reverse_iterator;
; 718  : 
; 719  : 	basic_string(const _Myt& _Right)
; 720  : 
; 721  : 		: _Mybase(_Right._Getal().select_on_container_copy_construction())
; 722  : 
; 723  : 
; 724  : 		{	// construct by copying _Right
; 725  : 		_Tidy();
; 726  : 		assign(_Right, 0, npos);
; 727  : 		}
; 728  : 
; 729  : 	basic_string(const _Myt& _Right, const _Alloc& _Al)
; 730  : 		: _Mybase(_Al)
; 731  : 		{	// construct by copying with allocator
; 732  : 		_Tidy();
; 733  : 		assign(_Right, 0, npos);
; 734  : 		}
; 735  : 
; 736  : 	basic_string()
; 737  : 		: _Mybase()
; 738  : 		{	// construct empty string
; 739  : 		_Tidy();
; 740  : 		}
; 741  : 
; 742  : 	explicit basic_string(const _Alloc& _Al)
; 743  : 		: _Mybase(_Al)
; 744  : 		{	// construct empty string with allocator
; 745  : 		_Tidy();
; 746  : 		}
; 747  : 
; 748  : 	basic_string(const _Myt& _Right, size_type _Roff,
; 749  : 		size_type _Count = npos)
; 750  : 		: _Mybase(_Right._Getal())
; 751  : 		{	// construct from _Right [_Roff, _Roff + _Count)
; 752  : 		_Tidy();
; 753  : 		assign(_Right, _Roff, _Count);
; 754  : 		}
; 755  : 
; 756  : 	basic_string(const _Myt& _Right, size_type _Roff, size_type _Count,
; 757  : 		const _Alloc& _Al)
; 758  : 		: _Mybase(_Al)
; 759  : 		{	// construct from _Right [_Roff, _Roff + _Count) with allocator
; 760  : 		_Tidy();
; 761  : 		assign(_Right, _Roff, _Count);
; 762  : 		}
; 763  : 
; 764  : 	basic_string(const _Elem *_Ptr, size_type _Count)
; 765  : 		: _Mybase()
; 766  : 		{	// construct from [_Ptr, _Ptr + _Count)
; 767  : 		_Tidy();
; 768  : 		assign(_Ptr, _Count);
; 769  : 		}
; 770  : 
; 771  : 	basic_string(const _Elem *_Ptr, size_type _Count, const _Alloc& _Al)
; 772  : 		: _Mybase(_Al)
; 773  : 		{	// construct from [_Ptr, _Ptr + _Count) with allocator
; 774  : 		_Tidy();
; 775  : 		assign(_Ptr, _Count);
; 776  : 		}
; 777  : 
; 778  : 	basic_string(const _Elem *_Ptr)
; 779  : 		: _Mybase()
; 780  : 		{	// construct from [_Ptr, <null>)
; 781  : 		_Tidy();
; 782  : 		assign(_Ptr);
; 783  : 		}
; 784  : 
; 785  : 	basic_string(const _Elem *_Ptr, const _Alloc& _Al)
; 786  : 		: _Mybase(_Al)
; 787  : 		{	// construct from [_Ptr, <null>) with allocator
; 788  : 		_Tidy();
; 789  : 		assign(_Ptr);
; 790  : 		}
; 791  : 
; 792  : 	basic_string(size_type _Count, _Elem _Ch)
; 793  : 		: _Mybase()
; 794  : 		{	// construct from _Count * _Ch
; 795  : 		_Tidy();
; 796  : 		assign(_Count, _Ch);
; 797  : 		}
; 798  : 
; 799  : 	basic_string(size_type _Count, _Elem _Ch, const _Alloc& _Al)
; 800  : 		: _Mybase(_Al)
; 801  : 		{	// construct from _Count * _Ch with allocator
; 802  : 		_Tidy();
; 803  : 		assign(_Count, _Ch);
; 804  : 		}
; 805  : 
; 806  : 	template<class _Iter,
; 807  : 		class = typename enable_if<_Is_iterator<_Iter>::value,
; 808  : 			void>::type>
; 809  : 		basic_string(_Iter _First, _Iter _Last)
; 810  : 		: _Mybase()
; 811  : 		{	// construct from [_First, _Last)
; 812  : 		_Tidy();
; 813  : 		_Construct(_First, _Last, _Iter_cat(_First));
; 814  : 		}
; 815  : 
; 816  : 	template<class _Iter,
; 817  : 		class = typename enable_if<_Is_iterator<_Iter>::value,
; 818  : 			void>::type>
; 819  : 		basic_string(_Iter _First, _Iter _Last, const _Alloc& _Al)
; 820  : 		: _Mybase(_Al)
; 821  : 		{	// construct from [_First, _Last) with allocator
; 822  : 		_Tidy();
; 823  : 		_Construct(_First, _Last, _Iter_cat(_First));
; 824  : 		}
; 825  : 
; 826  : 	template<class _Iter>
; 827  : 		void _Construct(_Iter _First,
; 828  : 			_Iter _Last, input_iterator_tag)
; 829  : 		{	// initialize from [_First, _Last), input iterators
; 830  : 		_TRY_BEGIN
; 831  : 		for (; _First != _Last; ++_First)
; 832  : 			append((size_type)1, (_Elem)*_First);
; 833  : 		_CATCH_ALL
; 834  : 		_Tidy(true);
; 835  : 		_RERAISE;
; 836  : 		_CATCH_END
; 837  : 		}
; 838  : 
; 839  : 	template<class _Iter>
; 840  : 		void _Construct(_Iter _First,
; 841  : 			_Iter _Last, forward_iterator_tag)
; 842  : 		{	// initialize from [_First, _Last), forward iterators
; 843  : 		_DEBUG_RANGE(_First, _Last);
; 844  : 		size_type _Count = 0;
; 845  : 		_Distance(_First, _Last, _Count);
; 846  : 		reserve(_Count);
; 847  : 
; 848  : 		_TRY_BEGIN
; 849  : 		for (; _First != _Last; ++_First)
; 850  : 			append((size_type)1, (_Elem)*_First);
; 851  : 		_CATCH_ALL
; 852  : 		_Tidy(true);
; 853  : 		_RERAISE;
; 854  : 		_CATCH_END
; 855  : 		}
; 856  : 
; 857  : 	basic_string(const_pointer _First, const_pointer _Last)
; 858  : 		: _Mybase()
; 859  : 		{	// construct from [_First, _Last), const pointers
; 860  : 		_DEBUG_RANGE(_First, _Last);
; 861  : 		_Tidy();
; 862  : 		if (_First != _Last)
; 863  : 			assign(&*_First, _Last - _First);
; 864  : 		}
; 865  : 
; 866  : 	basic_string(const_pointer _First, const_pointer _Last,
; 867  : 		const _Alloc& _Al)
; 868  : 		: _Mybase(_Al)
; 869  : 		{	// construct from [_First, _Last), const pointers
; 870  : 		_DEBUG_RANGE(_First, _Last);
; 871  : 		_Tidy();
; 872  : 		if (_First != _Last)
; 873  : 			assign(&*_First, _Last - _First);
; 874  : 		}
; 875  : 
; 876  : 	basic_string(const_iterator _First, const_iterator _Last)
; 877  : 		: _Mybase()
; 878  : 		{	// construct from [_First, _Last), const_iterators
; 879  : 		_DEBUG_RANGE(_First, _Last);
; 880  : 		_Tidy();
; 881  : 		if (_First != _Last)
; 882  : 			assign(&*_First, _Last - _First);
; 883  : 		}
; 884  : 
; 885  : 	basic_string(_Myt&& _Right) _NOEXCEPT
; 886  : 		: _Mybase(_Right._Getal())
; 887  : 		{	// construct by moving _Right
; 888  : 		_Tidy();
; 889  : 		_Assign_rv(_STD forward<_Myt>(_Right));
; 890  : 		}
; 891  : 
; 892  : 	basic_string(_Myt&& _Right, const _Alloc& _Al)
; 893  : 		: _Mybase(_Al)
; 894  : 		{	// construct by moving _Right, allocator
; 895  : 		if (this->_Getal() != _Right._Getal())
; 896  : 			assign(_Right.begin(), _Right.end());
; 897  : 		else
; 898  : 			_Assign_rv(_STD forward<_Myt>(_Right));
; 899  : 		}
; 900  : 
; 901  : 	_Myt& operator=(_Myt&& _Right) _NOEXCEPT
; 902  : 		{	// assign by moving _Right
; 903  : 		if (this != &_Right)
; 904  : 			{	// different, assign it
; 905  : 			_Tidy(true);
; 906  : 
; 907  : 			if (_Alty::propagate_on_container_move_assignment::value
; 908  : 				&& this->_Getal() != _Right._Getal())
; 909  : 				this->_Change_alloc(_Right._Getal());
; 910  : 
; 911  : 			if (this->_Getal() != _Right._Getal())
; 912  : 				assign(_Right.begin(), _Right.end());
; 913  : 			else
; 914  : 				_Assign_rv(_STD forward<_Myt>(_Right));
; 915  : 			}
; 916  : 		return (*this);
; 917  : 		}
; 918  : 
; 919  : 	_Myt& assign(_Myt&& _Right) _NOEXCEPT
; 920  : 		{	// assign by moving _Right
; 921  : 		if (this == &_Right)
; 922  : 			;
; 923  : 		else if (get_allocator() != _Right.get_allocator()
; 924  : 			&& this->_BUF_SIZE <= _Right._Myres)
; 925  : 			*this = _Right;
; 926  : 		else
; 927  : 			{	// not same, clear this and steal from _Right
; 928  : 			_Tidy(true);
; 929  : 			_Assign_rv(_STD forward<_Myt>(_Right));
; 930  : 			}
; 931  : 		return (*this);
; 932  : 		}
; 933  : 
; 934  : 	void _Assign_rv(_Myt&& _Right)
; 935  : 		{	// assign by moving _Right
; 936  : 		if (_Right._Myres < this->_BUF_SIZE)
; 937  : 			_Traits::move(this->_Bx._Buf, _Right._Bx._Buf,
; 938  : 				_Right._Mysize + 1);
; 939  : 		else
; 940  : 			{	// copy pointer
; 941  : 			this->_Getal().construct(&this->_Bx._Ptr, _Right._Bx._Ptr);
; 942  : 			_Right._Bx._Ptr = pointer();
; 943  : 			}
; 944  : 		this->_Mysize = _Right._Mysize;
; 945  : 		this->_Myres = _Right._Myres;
; 946  : 		_Right._Tidy();
; 947  : 		}
; 948  : 
; 949  : 	basic_string(_XSTD initializer_list<_Elem> _Ilist,
; 950  : 		const _Alloc& _Al = allocator_type())
; 951  : 		: _Mybase(_Al)
; 952  : 		{	// construct from initializer_list
; 953  : 		_Tidy();
; 954  : 		assign(_Ilist.begin(), _Ilist.end());
; 955  : 		}
; 956  : 
; 957  : 	_Myt& operator=(_XSTD initializer_list<_Elem> _Ilist)
; 958  : 		{	// assign initializer_list
; 959  : 		return (assign(_Ilist.begin(), _Ilist.end()));
; 960  : 		}
; 961  : 
; 962  : 	_Myt& operator+=(_XSTD initializer_list<_Elem> _Ilist)
; 963  : 		{	// append initializer_list
; 964  : 		return (append(_Ilist.begin(), _Ilist.end()));
; 965  : 		}
; 966  : 
; 967  : 	_Myt& assign(_XSTD initializer_list<_Elem> _Ilist)
; 968  : 		{	// assign initializer_list
; 969  : 		return (assign(_Ilist.begin(), _Ilist.end()));
; 970  : 		}
; 971  : 
; 972  : 	_Myt& append(_XSTD initializer_list<_Elem> _Ilist)
; 973  : 		{	// append initializer_list
; 974  : 		return (append(_Ilist.begin(), _Ilist.end()));
; 975  : 		}
; 976  : 
; 977  : 	iterator insert(const_iterator _Where,
; 978  : 		_XSTD initializer_list<_Elem> _Ilist)
; 979  : 		{	// insert initializer_list
; 980  : 		return (insert(_Where, _Ilist.begin(), _Ilist.end()));
; 981  : 		}
; 982  : 
; 983  : 	_Myt& replace(const_iterator _First, const_iterator _Last,
; 984  : 		_XSTD initializer_list<_Elem> _Ilist)
; 985  : 		{	// replace with initializer_list
; 986  : 		return (replace(_First, _Last, _Ilist.begin(), _Ilist.end()));
; 987  : 		}
; 988  : 
; 989  : 	~basic_string() _NOEXCEPT
; 990  : 		{	// destroy the string
; 991  : 		_Tidy(true);
; 992  : 		}
; 993  : 
; 994  : 	_PGLOBAL static const size_type npos;	// bad/missing length/position
; 995  : 
; 996  : 	_Myt& operator=(const _Myt& _Right)
; 997  : 		{	// assign _Right
; 998  : 		if (this != &_Right)
; 999  : 			{	// different, assign it
; 1000 : 			if (this->_Getal() != _Right._Getal()
; 1001 : 				&& _Alty::propagate_on_container_copy_assignment::value)
; 1002 : 				{	// change allocator before copying
; 1003 : 				_Tidy(true);
; 1004 : 				this->_Change_alloc(_Right._Getal());
; 1005 : 				}
; 1006 : 
; 1007 : 			assign(_Right);
; 1008 : 			}
; 1009 : 		return (*this);
; 1010 : 		}
; 1011 : 
; 1012 : 	_Myt& operator=(const _Elem *_Ptr)
; 1013 : 		{	// assign [_Ptr, <null>)
; 1014 : 		return (assign(_Ptr));
; 1015 : 		}
; 1016 : 
; 1017 : 	_Myt& operator=(_Elem _Ch)
; 1018 : 		{	// assign 1 * _Ch
; 1019 : 		return (assign(1, _Ch));
; 1020 : 		}
; 1021 : 
; 1022 : 	_Myt& operator+=(const _Myt& _Right)
; 1023 : 		{	// append _Right
; 1024 : 		return (append(_Right));
; 1025 : 		}
; 1026 : 
; 1027 : 	_Myt& operator+=(const _Elem *_Ptr)
; 1028 : 		{	// append [_Ptr, <null>)
; 1029 : 		return (append(_Ptr));
; 1030 : 		}
; 1031 : 
; 1032 : 	_Myt& operator+=(_Elem _Ch)
; 1033 : 		{	// append 1 * _Ch
; 1034 : 		return (append((size_type)1, _Ch));
; 1035 : 		}
; 1036 : 
; 1037 : 	_Myt& append(const _Myt& _Right)
; 1038 : 		{	// append _Right
; 1039 : 		return (append(_Right, 0, npos));
; 1040 : 		}
; 1041 : 
; 1042 : 	_Myt& append(const _Myt& _Right,
; 1043 : 		size_type _Roff, size_type _Count)
; 1044 : 		{	// append _Right [_Roff, _Roff + _Count)
; 1045 : 		if (_Right.size() < _Roff)
; 1046 : 			_Xran();	// _Roff off end
; 1047 : 		size_type _Num = _Right.size() - _Roff;
; 1048 : 		if (_Num < _Count)
; 1049 : 			_Count = _Num;	// trim _Count to size
; 1050 : 		if (npos - this->_Mysize <= _Count)
; 1051 : 			_Xlen();	// result too long
; 1052 : 
; 1053 : 		if (0 < _Count && _Grow(_Num = this->_Mysize + _Count))
; 1054 : 			{	// make room and append new stuff
; 1055 : 			_Traits::copy(this->_Myptr() + this->_Mysize,
; 1056 : 				_Right._Myptr() + _Roff, _Count);
; 1057 : 			_Eos(_Num);
; 1058 : 			}
; 1059 : 		return (*this);
; 1060 : 		}
; 1061 : 
; 1062 : 	_Myt& append(const _Elem *_Ptr, size_type _Count)
; 1063 : 		{	// append [_Ptr, _Ptr + _Count)
; 1064 :  #if _ITERATOR_DEBUG_LEVEL == 2
; 1065 : 		if (_Count != 0)
; 1066 : 			_DEBUG_POINTER(_Ptr);
; 1067 :  #endif /* _ITERATOR_DEBUG_LEVEL == 2 */
; 1068 : 
; 1069 : 		if (_Inside(_Ptr))
; 1070 : 			return (append(*this,
; 1071 : 				_Ptr - this->_Myptr(), _Count));	// substring
; 1072 : 		if (npos - this->_Mysize <= _Count)
; 1073 : 			_Xlen();	// result too long
; 1074 : 
; 1075 : 		size_type _Num;
; 1076 : 		if (0 < _Count && _Grow(_Num = this->_Mysize + _Count))
; 1077 : 			{	// make room and append new stuff
; 1078 : 			_Traits::copy(this->_Myptr() + this->_Mysize, _Ptr, _Count);
; 1079 : 			_Eos(_Num);
; 1080 : 			}
; 1081 : 		return (*this);
; 1082 : 		}
; 1083 : 
; 1084 : 	_Myt& append(const _Elem *_Ptr)
; 1085 : 		{	// append [_Ptr, <null>)
; 1086 : 		_DEBUG_POINTER(_Ptr);
; 1087 : 		return (append(_Ptr, _Traits::length(_Ptr)));
; 1088 : 		}
; 1089 : 
; 1090 : 	_Myt& append(size_type _Count, _Elem _Ch)
; 1091 : 		{	// append _Count * _Ch
; 1092 : 		if (npos - this->_Mysize <= _Count)
; 1093 : 			_Xlen();	// result too long
; 1094 : 
; 1095 : 		size_type _Num;
; 1096 : 		if (0 < _Count && _Grow(_Num = this->_Mysize + _Count))
; 1097 : 			{	// make room and append new stuff using assign
; 1098 : 			_Chassign(this->_Mysize, _Count, _Ch);
; 1099 : 			_Eos(_Num);
; 1100 : 			}
; 1101 : 		return (*this);
; 1102 : 		}
; 1103 : 
; 1104 : 	template<class _Iter>
; 1105 : 		typename enable_if<_Is_iterator<_Iter>::value,
; 1106 : 			_Myt&>::type
; 1107 : 		append(_Iter _First, _Iter _Last)
; 1108 : 		{	// append [_First, _Last), input iterators
; 1109 : 		return (replace(end(), end(), _First, _Last));
; 1110 : 		}
; 1111 : 
; 1112 : 	_Myt& append(const_pointer _First, const_pointer _Last)
; 1113 : 		{	// append [_First, _Last), const pointers
; 1114 : 		return (replace(end(), end(), _First, _Last));
; 1115 : 		}
; 1116 : 
; 1117 : 	_Myt& append(const_iterator _First, const_iterator _Last)
; 1118 : 		{	// append [_First, _Last), const_iterators
; 1119 : 		return (replace(end(), end(), _First, _Last));
; 1120 : 		}
; 1121 : 
; 1122 : 	_Myt& assign(const _Myt& _Right)
; 1123 : 		{	// assign _Right
; 1124 : 		return (assign(_Right, 0, npos));
; 1125 : 		}
; 1126 : 
; 1127 : 	_Myt& assign(const _Myt& _Right,
; 1128 : 		size_type _Roff, size_type _Count)
; 1129 : 		{	// assign _Right [_Roff, _Roff + _Count)
; 1130 : 		if (_Right.size() < _Roff)
; 1131 : 			_Xran();	// _Roff off end
; 1132 : 		size_type _Num = _Right.size() - _Roff;
; 1133 : 		if (_Count < _Num)
; 1134 : 			_Num = _Count;	// trim _Num to size
; 1135 : 
; 1136 : 		if (this == &_Right)
; 1137 : 			erase((size_type)(_Roff + _Num)), erase(0, _Roff);	// substring
; 1138 : 		else if (_Grow(_Num))
; 1139 : 			{	// make room and assign new stuff
; 1140 : 			_Traits::copy(this->_Myptr(),
; 1141 : 				_Right._Myptr() + _Roff, _Num);
; 1142 : 			_Eos(_Num);
; 1143 : 			}
; 1144 : 		return (*this);
; 1145 : 		}
; 1146 : 
; 1147 : 	_Myt& assign(const _Elem *_Ptr, size_type _Count)
; 1148 : 		{	// assign [_Ptr, _Ptr + _Count)
; 1149 :  #if _ITERATOR_DEBUG_LEVEL == 2
; 1150 : 		if (_Count != 0)
; 1151 : 			_DEBUG_POINTER(_Ptr);
; 1152 :  #endif /* _ITERATOR_DEBUG_LEVEL == 2 */
; 1153 : 
; 1154 : 		if (_Inside(_Ptr))
; 1155 : 			return (assign(*this,
; 1156 : 				_Ptr - this->_Myptr(), _Count));	// substring
; 1157 : 
; 1158 : 		if (_Grow(_Count))
; 1159 : 			{	// make room and assign new stuff
; 1160 : 			_Traits::copy(this->_Myptr(), _Ptr, _Count);
; 1161 : 			_Eos(_Count);
; 1162 : 			}
; 1163 : 		return (*this);
; 1164 : 		}
; 1165 : 
; 1166 : 	_Myt& assign(const _Elem *_Ptr)
; 1167 : 		{	// assign [_Ptr, <null>)
; 1168 : 		_DEBUG_POINTER(_Ptr);
; 1169 : 		return (assign(_Ptr, _Traits::length(_Ptr)));
; 1170 : 		}
; 1171 : 
; 1172 : 	_Myt& assign(size_type _Count, _Elem _Ch)
; 1173 : 		{	// assign _Count * _Ch
; 1174 : 		if (_Count == npos)
; 1175 : 			_Xlen();	// result too long
; 1176 : 
; 1177 : 		if (_Grow(_Count))
; 1178 : 			{	// make room and assign new stuff
; 1179 : 			_Chassign(0, _Count, _Ch);
; 1180 : 			_Eos(_Count);
; 1181 : 			}
; 1182 : 		return (*this);
; 1183 : 		}
; 1184 : 
; 1185 : 	template<class _Iter>
; 1186 : 		typename enable_if<_Is_iterator<_Iter>::value,
; 1187 : 			_Myt&>::type
; 1188 : 		assign(_Iter _First, _Iter _Last)
; 1189 : 		{	// assign [_First, _Last), input iterators
; 1190 : 		return (replace(begin(), end(), _First, _Last));
; 1191 : 		}
; 1192 : 
; 1193 : 	_Myt& assign(const_pointer _First, const_pointer _Last)
; 1194 : 		{	// assign [_First, _Last), const pointers
; 1195 : 		return (replace(begin(), end(), _First, _Last));
; 1196 : 		}
; 1197 : 
; 1198 : 	_Myt& assign(const_iterator _First, const_iterator _Last)
; 1199 : 		{	// assign [_First, _Last), const_iterators
; 1200 : 		return (replace(begin(), end(), _First, _Last));
; 1201 : 		}
; 1202 : 
; 1203 : 	_Myt& insert(size_type _Off, const _Myt& _Right)
; 1204 : 		{	// insert _Right at _Off
; 1205 : 		return (insert(_Off, _Right, 0, npos));
; 1206 : 		}
; 1207 : 
; 1208 : 	_Myt& insert(size_type _Off,
; 1209 : 		const _Myt& _Right, size_type _Roff, size_type _Count)
; 1210 : 		{	// insert _Right [_Roff, _Roff + _Count) at _Off
; 1211 : 		if (this->_Mysize < _Off || _Right.size() < _Roff)
; 1212 : 			_Xran();	// _Off or _Roff off end
; 1213 : 		size_type _Num = _Right.size() - _Roff;
; 1214 : 		if (_Num < _Count)
; 1215 : 			_Count = _Num;	// trim _Count to size
; 1216 : 		if (npos - this->_Mysize <= _Count)
; 1217 : 			_Xlen();	// result too long
; 1218 : 
; 1219 : 		if (0 < _Count && _Grow(_Num = this->_Mysize + _Count))
; 1220 : 			{	// make room and insert new stuff
; 1221 : 			_Traits::move(this->_Myptr() + _Off + _Count,
; 1222 : 				this->_Myptr() + _Off,
; 1223 : 				this->_Mysize - _Off);	// empty out hole
; 1224 : 			if (this == &_Right)
; 1225 : 				_Traits::move(this->_Myptr() + _Off,
; 1226 : 					this->_Myptr() + (_Off < _Roff ? _Roff + _Count : _Roff),
; 1227 : 						_Count);	// substring
; 1228 : 			else
; 1229 : 				_Traits::copy(this->_Myptr() + _Off,
; 1230 : 					_Right._Myptr() + _Roff, _Count);	// fill hole
; 1231 : 			_Eos(_Num);
; 1232 : 			}
; 1233 : 		return (*this);
; 1234 : 		}
; 1235 : 
; 1236 : 	_Myt& insert(size_type _Off,
; 1237 : 		const _Elem *_Ptr, size_type _Count)
; 1238 : 		{	// insert [_Ptr, _Ptr + _Count) at _Off
; 1239 :  #if _ITERATOR_DEBUG_LEVEL == 2
; 1240 : 		if (_Count != 0)
; 1241 : 			_DEBUG_POINTER(_Ptr);
; 1242 :  #endif /* _ITERATOR_DEBUG_LEVEL == 2 */
; 1243 : 
; 1244 : 		if (_Inside(_Ptr))
; 1245 : 			return (insert(_Off, *this,
; 1246 : 				_Ptr - this->_Myptr(), _Count));	// substring
; 1247 : 		if (this->_Mysize < _Off)
; 1248 : 			_Xran();	// _Off off end
; 1249 : 		if (npos - this->_Mysize <= _Count)
; 1250 : 			_Xlen();	// result too long
; 1251 : 		size_type _Num;
; 1252 : 		if (0 < _Count && _Grow(_Num = this->_Mysize + _Count))
; 1253 : 			{	// make room and insert new stuff
; 1254 : 			_Traits::move(this->_Myptr() + _Off + _Count,
; 1255 : 				this->_Myptr() + _Off,
; 1256 : 				this->_Mysize - _Off);	// empty out hole
; 1257 : 			_Traits::copy(this->_Myptr() + _Off, _Ptr, _Count);	// fill hole
; 1258 : 			_Eos(_Num);
; 1259 : 			}
; 1260 : 		return (*this);
; 1261 : 		}
; 1262 : 
; 1263 : 	_Myt& insert(size_type _Off, const _Elem *_Ptr)
; 1264 : 		{	// insert [_Ptr, <null>) at _Off
; 1265 : 		_DEBUG_POINTER(_Ptr);
; 1266 : 		return (insert(_Off, _Ptr, _Traits::length(_Ptr)));
; 1267 : 		}
; 1268 : 
; 1269 : 	_Myt& insert(size_type _Off,
; 1270 : 		size_type _Count, _Elem _Ch)
; 1271 : 		{	// insert _Count * _Ch at _Off
; 1272 : 		if (this->_Mysize < _Off)
; 1273 : 			_Xran();	// _Off off end
; 1274 : 		if (npos - this->_Mysize <= _Count)
; 1275 : 			_Xlen();	// result too long
; 1276 : 		size_type _Num;
; 1277 : 		if (0 < _Count && _Grow(_Num = this->_Mysize + _Count))
; 1278 : 			{	// make room and insert new stuff
; 1279 : 			_Traits::move(this->_Myptr() + _Off + _Count,
; 1280 : 				this->_Myptr() + _Off,
; 1281 : 				this->_Mysize - _Off);	// empty out hole
; 1282 : 			_Chassign(_Off, _Count, _Ch);	// fill hole
; 1283 : 			_Eos(_Num);
; 1284 : 			}
; 1285 : 		return (*this);
; 1286 : 		}
; 1287 : 
; 1288 : 	iterator insert(const_iterator _Where)
; 1289 : 		{	// insert <null> at _Where
; 1290 : 		return (insert(_Where, _Elem()));
; 1291 : 		}
; 1292 : 
; 1293 : 	iterator insert(const_iterator _Where, _Elem _Ch)
; 1294 : 		{	// insert _Ch at _Where
; 1295 : 		size_type _Off = _Pdif(_Where, begin());
; 1296 : 		insert(_Off, 1, _Ch);
; 1297 : 		return (begin() + _Off);
; 1298 : 		}
; 1299 : 
; 1300 : 	iterator insert(const_iterator _Where, size_type _Count, _Elem _Ch)
; 1301 : 		{	// insert _Count * _Elem at _Where
; 1302 : 		size_type _Off = _Pdif(_Where, begin());
; 1303 : 		insert(_Off, _Count, _Ch);
; 1304 : 		return (begin() + _Off);
; 1305 : 		}
; 1306 : 
; 1307 : 	template<class _Iter>
; 1308 : 		typename enable_if<_Is_iterator<_Iter>::value,
; 1309 : 			iterator>::type
; 1310 : 		insert(const_iterator _Where, _Iter _First, _Iter _Last)
; 1311 : 		{	// insert [_First, _Last) at _Where, input iterators
; 1312 : 		size_type _Off = _Pdif(_Where, begin());
; 1313 : 		replace(_Where, _Where, _First, _Last);
; 1314 : 		return (begin() + _Off);
; 1315 : 		}
; 1316 : 
; 1317 : 	iterator insert(const_iterator _Where,
; 1318 : 		const_pointer _First, const_pointer _Last)
; 1319 : 		{	// insert [_First, _Last) at _Where, const pointers
; 1320 : 		size_type _Off = _Pdif(_Where, begin());
; 1321 : 		replace(_Where, _Where, _First, _Last);
; 1322 : 		return (begin() + _Off);
; 1323 : 		}
; 1324 : 
; 1325 : 	iterator insert(const_iterator _Where,
; 1326 : 		const_iterator _First, const_iterator _Last)
; 1327 : 		{	// insert [_First, _Last) at _Where, const_iterators
; 1328 : 		size_type _Off = _Pdif(_Where, begin());
; 1329 : 		replace(_Where, _Where, _First, _Last);
; 1330 : 		return (begin() + _Off);
; 1331 : 		}
; 1332 : 
; 1333 : 	_Myt& erase(size_type _Off = 0)
; 1334 : 		{	// erase elements [_Off, ...)
; 1335 : 		if (this->_Mysize < _Off)
; 1336 : 			_Xran();	// _Off off end
; 1337 : 		_Eos(_Off);
; 1338 : 		return (*this);
; 1339 : 		}
; 1340 : 
; 1341 : 	_Myt& erase(size_type _Off, size_type _Count)
; 1342 : 		{	// erase elements [_Off, _Off + _Count)
; 1343 : 		if (this->_Mysize < _Off)
; 1344 : 			_Xran();	// _Off off end
; 1345 : 		if (this->_Mysize - _Off <= _Count)
; 1346 : 			_Eos(_Off);	// erase elements [_Off, ...)
; 1347 : 		else if (0 < _Count)
; 1348 : 			{	// move elements down
; 1349 : 			value_type *_Ptr = this->_Myptr() + _Off;
; 1350 : 			size_type _Newsize = this->_Mysize - _Count;
; 1351 : 			_Traits::move(_Ptr, _Ptr + _Count, _Newsize - _Off);
; 1352 : 			_Eos(_Newsize);
; 1353 : 			}
; 1354 : 		return (*this);
; 1355 : 		}
; 1356 : 
; 1357 : 	iterator erase(const_iterator _Where)
; 1358 : 		{	// erase element at _Where
; 1359 : 		size_type _Count = _Pdif(_Where, begin());
; 1360 : 		erase(_Count, 1);
; 1361 : 		return (_STRING_ITERATOR(this->_Myptr() + _Count));
; 1362 : 		}
; 1363 : 
; 1364 : 	iterator erase(const_iterator _First, const_iterator _Last)
; 1365 : 		{	// erase substring [_First, _Last)
; 1366 : 		_DEBUG_RANGE(_First, _Last);
; 1367 : 		size_type _Count = _Pdif(_First, begin());
; 1368 : 		erase(_Count, _Pdif(_Last, _First));
; 1369 : 		return (_STRING_ITERATOR(this->_Myptr() + _Count));
; 1370 : 		}
; 1371 : 
; 1372 : 	void clear() _NOEXCEPT
; 1373 : 		{	// erase all
; 1374 : 		_Eos(0);
; 1375 : 		}
; 1376 : 
; 1377 : 	_Myt& replace(size_type _Off, size_type _N0, const _Myt& _Right)
; 1378 : 		{	// replace [_Off, _Off + _N0) with _Right
; 1379 : 		return (replace(_Off, _N0, _Right, 0, npos));
; 1380 : 		}
; 1381 : 
; 1382 : 	_Myt& replace(size_type _Off,
; 1383 : 		size_type _N0, const _Myt& _Right, size_type _Roff, size_type _Count)
; 1384 : 		{	// replace [_Off, _Off + _N0) with _Right [_Roff, _Roff + _Count)
; 1385 : 		if (this->_Mysize < _Off || _Right.size() < _Roff)
; 1386 : 			_Xran();	// _Off or _Roff off end
; 1387 : 		if (this->_Mysize - _Off < _N0)
; 1388 : 			_N0 = this->_Mysize - _Off;	// trim _N0 to size
; 1389 : 		size_type _Num = _Right.size() - _Roff;
; 1390 : 		if (_Num < _Count)
; 1391 : 			_Count = _Num;	// trim _Count to size
; 1392 : 		if (npos - _Count <= this->_Mysize - _N0)
; 1393 : 			_Xlen();	// result too long
; 1394 : 
; 1395 : 		size_type _Nm = this->_Mysize - _N0 - _Off;	// length of kept tail
; 1396 : 		size_type _Newsize = this->_Mysize + _Count - _N0;
; 1397 : 		if (this->_Mysize < _Newsize)
; 1398 : 			_Grow(_Newsize);
; 1399 : 
; 1400 : 		if (this != &_Right)
; 1401 : 			{	// no overlap, just move down and copy in new stuff
; 1402 : 			_Traits::move(this->_Myptr() + _Off + _Count,
; 1403 : 				this->_Myptr() + _Off + _N0, _Nm);	// empty hole
; 1404 : 			_Traits::copy(this->_Myptr() + _Off,
; 1405 : 				_Right._Myptr() + _Roff, _Count);	// fill hole
; 1406 : 			}
; 1407 : 		else if (_Count <= _N0)
; 1408 : 			{	// hole doesn't get larger, just copy in substring
; 1409 : 			_Traits::move(this->_Myptr() + _Off,
; 1410 : 				this->_Myptr() + _Roff, _Count);	// fill hole
; 1411 : 			_Traits::move(this->_Myptr() + _Off + _Count,
; 1412 : 				this->_Myptr() + _Off + _N0, _Nm);	// move tail down
; 1413 : 			}
; 1414 : 		else if (_Roff <= _Off)
; 1415 : 			{	// hole gets larger, substring begins before hole
; 1416 : 			_Traits::move(this->_Myptr() + _Off + _Count,
; 1417 : 				this->_Myptr() + _Off + _N0, _Nm);	// move tail down
; 1418 : 			_Traits::move(this->_Myptr() + _Off,
; 1419 : 				this->_Myptr() + _Roff, _Count);	// fill hole
; 1420 : 			}
; 1421 : 		else if (_Off + _N0 <= _Roff)
; 1422 : 			{	// hole gets larger, substring begins after hole
; 1423 : 			_Traits::move(this->_Myptr() + _Off + _Count,
; 1424 : 				this->_Myptr() + _Off + _N0, _Nm);	// move tail down
; 1425 : 			_Traits::move(this->_Myptr() + _Off,
; 1426 : 				this->_Myptr() + (_Roff + _Count - _N0),
; 1427 : 				_Count);	// fill hole
; 1428 : 			}
; 1429 : 		else
; 1430 : 			{	// hole gets larger, substring begins in hole
; 1431 : 			_Traits::move(this->_Myptr() + _Off,
; 1432 : 				this->_Myptr() + _Roff, _N0);	// fill old hole
; 1433 : 			_Traits::move(this->_Myptr() + _Off + _Count,
; 1434 : 				this->_Myptr() + _Off + _N0, _Nm);	// move tail down
; 1435 : 			_Traits::move(this->_Myptr() + _Off + _N0,
; 1436 : 				this->_Myptr() + _Roff + _Count,
; 1437 : 				_Count - _N0);	// fill rest of new hole
; 1438 : 			}
; 1439 : 
; 1440 : 		_Eos(_Newsize);
; 1441 : 		return (*this);
; 1442 : 		}
; 1443 : 
; 1444 : 	_Myt& replace(size_type _Off,
; 1445 : 		size_type _N0, const _Elem *_Ptr, size_type _Count)
; 1446 : 		{	// replace [_Off, _Off + _N0) with [_Ptr, _Ptr + _Count)
; 1447 :  #if _ITERATOR_DEBUG_LEVEL == 2
; 1448 : 		if (_Count != 0)
; 1449 : 			_DEBUG_POINTER(_Ptr);
; 1450 :  #endif /* _ITERATOR_DEBUG_LEVEL == 2 */
; 1451 : 
; 1452 : 		if (_Inside(_Ptr))
; 1453 : 			return (replace(_Off, _N0, *this,
; 1454 : 				_Ptr - this->_Myptr(),
; 1455 : 				_Count));	// substring, replace carefully
; 1456 : 		if (this->_Mysize < _Off)
; 1457 : 			_Xran();	// _Off off end
; 1458 : 		if (this->_Mysize - _Off < _N0)
; 1459 : 			_N0 = this->_Mysize - _Off;	// trim _N0 to size
; 1460 : 		if (npos - _Count <= this->_Mysize - _N0)
; 1461 : 			_Xlen();	// result too long
; 1462 : 		size_type _Nm = this->_Mysize - _N0 - _Off;
; 1463 : 
; 1464 : 		if (_Count < _N0)
; 1465 : 			_Traits::move(this->_Myptr() + _Off + _Count,
; 1466 : 				this->_Myptr() + _Off + _N0,
; 1467 : 				_Nm);	// smaller hole, move tail up
; 1468 : 		size_type _Num;
; 1469 : 		if ((0 < _Count || 0 < _N0)
; 1470 : 			&& _Grow(_Num = this->_Mysize + _Count - _N0))
; 1471 : 			{	// make room and rearrange
; 1472 : 			if (_N0 < _Count)
; 1473 : 				_Traits::move(this->_Myptr() + _Off + _Count,
; 1474 : 					this->_Myptr() + _Off + _N0, _Nm);	// move tail down
; 1475 : 			_Traits::copy(this->_Myptr() + _Off, _Ptr, _Count);	// fill hole
; 1476 : 			_Eos(_Num);
; 1477 : 			}
; 1478 : 		return (*this);
; 1479 : 		}
; 1480 : 
; 1481 : 	_Myt& replace(size_type _Off, size_type _N0, const _Elem *_Ptr)
; 1482 : 		{	// replace [_Off, _Off + _N0) with [_Ptr, <null>)
; 1483 : 		_DEBUG_POINTER(_Ptr);
; 1484 : 		return (replace(_Off, _N0, _Ptr, _Traits::length(_Ptr)));
; 1485 : 		}
; 1486 : 
; 1487 : 	_Myt& replace(size_type _Off,
; 1488 : 		size_type _N0, size_type _Count, _Elem _Ch)
; 1489 : 		{	// replace [_Off, _Off + _N0) with _Count * _Ch
; 1490 : 		if (this->_Mysize < _Off)
; 1491 : 			_Xran();	// _Off off end
; 1492 : 		if (this->_Mysize - _Off < _N0)
; 1493 : 			_N0 = this->_Mysize - _Off;	// trim _N0 to size
; 1494 : 		if (npos - _Count <= this->_Mysize - _N0)
; 1495 : 			_Xlen();	// result too long
; 1496 : 		size_type _Nm = this->_Mysize - _N0 - _Off;
; 1497 : 
; 1498 : 		if (_Count < _N0)
; 1499 : 			_Traits::move(this->_Myptr() + _Off + _Count,
; 1500 : 				this->_Myptr() + _Off + _N0,
; 1501 : 				_Nm);	// smaller hole, move tail up
; 1502 : 		size_type _Num;
; 1503 : 		if ((0 < _Count || 0 < _N0)
; 1504 : 			&& _Grow(_Num = this->_Mysize + _Count - _N0))
; 1505 : 			{	// make room and rearrange
; 1506 : 			if (_N0 < _Count)
; 1507 : 				_Traits::move(this->_Myptr() + _Off + _Count,
; 1508 : 					this->_Myptr() + _Off + _N0, _Nm);	// move tail down
; 1509 : 			_Chassign(_Off, _Count, _Ch);	// fill hole
; 1510 : 			_Eos(_Num);
; 1511 : 			}
; 1512 : 		return (*this);
; 1513 : 		}
; 1514 : 
; 1515 : 	_Myt& replace(const_iterator _First, const_iterator _Last,
; 1516 : 		const _Myt& _Right)
; 1517 : 		{	// replace [_First, _Last) with _Right
; 1518 : 		return (replace(
; 1519 : 			_Pdif(_First, begin()), _Pdif(_Last, _First), _Right));
; 1520 : 		}
; 1521 : 
; 1522 : 	_Myt& replace(const_iterator _First, const_iterator _Last,
; 1523 : 		const _Elem *_Ptr, size_type _Count)
; 1524 : 		{	// replace [_First, _Last) with [_Ptr, _Ptr + _Count)
; 1525 : 		return (replace(
; 1526 : 			_Pdif(_First, begin()), _Pdif(_Last, _First), _Ptr, _Count));
; 1527 : 		}
; 1528 : 
; 1529 : 	_Myt& replace(const_iterator _First, const_iterator _Last,
; 1530 : 		const _Elem *_Ptr)
; 1531 : 		{	// replace [_First, _Last) with [_Ptr, <null>)
; 1532 : 		return (replace(
; 1533 : 			_Pdif(_First, begin()), _Pdif(_Last, _First), _Ptr));
; 1534 : 		}
; 1535 : 
; 1536 : 	_Myt& replace(const_iterator _First, const_iterator _Last,
; 1537 : 		size_type _Count, _Elem _Ch)
; 1538 : 		{	// replace [_First, _Last) with _Count * _Ch
; 1539 : 		return (replace(
; 1540 : 			_Pdif(_First, begin()), _Pdif(_Last, _First), _Count, _Ch));
; 1541 : 		}
; 1542 : 
; 1543 : 	template<class _Iter>
; 1544 : 		typename enable_if<_Is_iterator<_Iter>::value,
; 1545 : 			_Myt&>::type
; 1546 : 		replace(const_iterator _First, const_iterator _Last,
; 1547 : 			_Iter _First2, _Iter _Last2)
; 1548 : 		{	// replace [_First, _Last) with [_First2, _Last2), input iterators
; 1549 : 		_Myt _Right(_First2, _Last2);
; 1550 : 		replace(_First, _Last, _Right);
; 1551 : 		return (*this);
; 1552 : 		}
; 1553 : 
; 1554 : 	_Myt& replace(const_iterator _First, const_iterator _Last,
; 1555 : 		const_pointer _First2, const_pointer _Last2)
; 1556 : 		{	// replace [_First, _Last) with [_First2, _Last2), const pointers
; 1557 : 		if (_First2 == _Last2)
; 1558 : 			erase(_Pdif(_First, begin()), _Pdif(_Last, _First));
; 1559 : 		else
; 1560 : 			replace(_Pdif(_First, begin()), _Pdif(_Last, _First),
; 1561 : 				&*_First2, _Last2 - _First2);
; 1562 : 		return (*this);
; 1563 : 		}
; 1564 : 
; 1565 : 	_Myt& replace(const_iterator _First, const_iterator _Last,
; 1566 : 		pointer _First2, pointer _Last2)
; 1567 : 		{	// replace [_First, _Last) with [_First2, _Last2), const pointers
; 1568 : 		if (_First2 == _Last2)
; 1569 : 			erase(_Pdif(_First, begin()), _Pdif(_Last, _First));
; 1570 : 		else
; 1571 : 			replace(_Pdif(_First, begin()), _Pdif(_Last, _First),
; 1572 : 				&*_First2, _Last2 - _First2);
; 1573 : 		return (*this);
; 1574 : 		}
; 1575 : 
; 1576 : 	_Myt& replace(const_iterator _First, const_iterator _Last,
; 1577 : 		const_iterator _First2, const_iterator _Last2)
; 1578 : 		{	// replace [_First, _Last) with [_First2, _Last2), const_iterators
; 1579 : 		if (_First2 == _Last2)
; 1580 : 			erase(_Pdif(_First, begin()), _Pdif(_Last, _First));
; 1581 : 		else
; 1582 : 			replace(_Pdif(_First, begin()), _Pdif(_Last, _First),
; 1583 : 				&*_First2, _Last2 - _First2);
; 1584 : 		return (*this);
; 1585 : 		}
; 1586 : 
; 1587 : 	_Myt& replace(const_iterator _First, const_iterator _Last,
; 1588 : 		iterator _First2, iterator _Last2)
; 1589 : 		{	// replace [_First, _Last) with [_First2, _Last2), const_iterators
; 1590 : 		if (_First2 == _Last2)
; 1591 : 			erase(_Pdif(_First, begin()), _Pdif(_Last, _First));
; 1592 : 		else
; 1593 : 			replace(_Pdif(_First, begin()), _Pdif(_Last, _First),
; 1594 : 				&*_First2, _Last2 - _First2);
; 1595 : 		return (*this);
; 1596 : 		}
; 1597 : 
; 1598 : 	iterator begin() _NOEXCEPT
; 1599 : 		{	// return iterator for beginning of mutable sequence
; 1600 : 		return (_STRING_ITERATOR(this->_Myptr()));
; 1601 : 		}
; 1602 : 
; 1603 : 	const_iterator begin() const _NOEXCEPT
; 1604 : 		{	// return iterator for beginning of nonmutable sequence
; 1605 : 		return (_STRING_CONST_ITERATOR(this->_Myptr()));
; 1606 : 		}
; 1607 : 
; 1608 : 	iterator end() _NOEXCEPT
; 1609 : 		{	// return iterator for end of mutable sequence
; 1610 : 		return (_STRING_ITERATOR(this->_Myptr() + this->_Mysize));
; 1611 : 		}
; 1612 : 
; 1613 : 	const_iterator end() const _NOEXCEPT
; 1614 : 		{	// return iterator for end of nonmutable sequence
; 1615 : 		return (_STRING_CONST_ITERATOR(this->_Myptr() + this->_Mysize));
; 1616 : 		}
; 1617 : 
; 1618 : 	reverse_iterator rbegin() _NOEXCEPT
; 1619 : 		{	// return iterator for beginning of reversed mutable sequence
; 1620 : 		return (reverse_iterator(end()));
; 1621 : 		}
; 1622 : 
; 1623 : 	const_reverse_iterator rbegin() const _NOEXCEPT
; 1624 : 		{	// return iterator for beginning of reversed nonmutable sequence
; 1625 : 		return (const_reverse_iterator(end()));
; 1626 : 		}
; 1627 : 
; 1628 : 	reverse_iterator rend() _NOEXCEPT
; 1629 : 		{	// return iterator for end of reversed mutable sequence
; 1630 : 		return (reverse_iterator(begin()));
; 1631 : 		}
; 1632 : 
; 1633 : 	const_reverse_iterator rend() const _NOEXCEPT
; 1634 : 		{	// return iterator for end of reversed nonmutable sequence
; 1635 : 		return (const_reverse_iterator(begin()));
; 1636 : 		}
; 1637 : 
; 1638 : 	const_iterator cbegin() const _NOEXCEPT
; 1639 : 		{	// return iterator for beginning of nonmutable sequence
; 1640 : 		return (((const _Myt *)this)->begin());
; 1641 : 		}
; 1642 : 
; 1643 : 	const_iterator cend() const _NOEXCEPT
; 1644 : 		{	// return iterator for end of nonmutable sequence
; 1645 : 		return (((const _Myt *)this)->end());
; 1646 : 		}
; 1647 : 
; 1648 : 	const_reverse_iterator crbegin() const _NOEXCEPT
; 1649 : 		{	// return iterator for beginning of reversed nonmutable sequence
; 1650 : 		return (((const _Myt *)this)->rbegin());
; 1651 : 		}
; 1652 : 
; 1653 : 	const_reverse_iterator crend() const _NOEXCEPT
; 1654 : 		{	// return iterator for end of reversed nonmutable sequence
; 1655 : 		return (((const _Myt *)this)->rend());
; 1656 : 		}
; 1657 : 
; 1658 : 	void shrink_to_fit()
; 1659 : 		{	// reduce capacity
; 1660 : 		if ((size() | this->_ALLOC_MASK) < capacity())
; 1661 : 			{	// worth shrinking, do it
; 1662 : 			_Myt _Tmp(*this);
; 1663 : 			swap(_Tmp);
; 1664 : 			}
; 1665 : 		}
; 1666 : 
; 1667 : 	reference at(size_type _Off)
; 1668 : 		{	// subscript mutable sequence with checking
; 1669 : 		if (this->_Mysize <= _Off)
; 1670 : 			_Xran();	// _Off off end
; 1671 : 		return (this->_Myptr()[_Off]);
; 1672 : 		}
; 1673 : 
; 1674 : 	const_reference at(size_type _Off) const
; 1675 : 		{	// subscript nonmutable sequence with checking
; 1676 : 		if (this->_Mysize <= _Off)
; 1677 : 			_Xran();	// _Off off end
; 1678 : 		return (this->_Myptr()[_Off]);
; 1679 : 		}
; 1680 : 
; 1681 : 	reference operator[](size_type _Off)
; 1682 : 		{	// subscript mutable sequence
; 1683 :  #if _ITERATOR_DEBUG_LEVEL == 2
; 1684 : 		if (this->_Mysize < _Off)	// sic
; 1685 : 			_DEBUG_ERROR("string subscript out of range");
; 1686 : 
; 1687 :  #elif _ITERATOR_DEBUG_LEVEL == 1
; 1688 : 		_SCL_SECURE_VALIDATE_RANGE(_Off <= this->_Mysize);	// sic
; 1689 :  #endif /* _ITERATOR_DEBUG_LEVEL == 2 */
; 1690 : 
; 1691 : 		return (this->_Myptr()[_Off]);
; 1692 : 		}
; 1693 : 
; 1694 : 	const_reference operator[](size_type _Off) const
; 1695 : 		{	// subscript nonmutable sequence
; 1696 :  #if _ITERATOR_DEBUG_LEVEL == 2
; 1697 : 		if (this->_Mysize < _Off)	// sic
; 1698 : 			_DEBUG_ERROR("string subscript out of range");
; 1699 : 
; 1700 :  #elif _ITERATOR_DEBUG_LEVEL == 1
; 1701 : 		_SCL_SECURE_VALIDATE_RANGE(_Off <= this->_Mysize);	// sic
; 1702 :  #endif /* _ITERATOR_DEBUG_LEVEL == 2 */
; 1703 : 
; 1704 : 		return (this->_Myptr()[_Off]);
; 1705 : 		}
; 1706 : 
; 1707 : 	void push_back(_Elem _Ch)
; 1708 : 		{	// insert element at end
; 1709 : 		insert(end(), _Ch);
; 1710 : 		}
; 1711 : 
; 1712 : 	void pop_back()
; 1713 : 		{	// erase element at end
; 1714 : 		erase(this->_Mysize - 1);	// throws if _Mysize == 0
; 1715 : 		}
; 1716 : 
; 1717 : 	reference front()
; 1718 : 		{	// return first element of mutable sequence
; 1719 : 		return (*begin());
; 1720 : 		}
; 1721 : 
; 1722 : 	const_reference front() const
; 1723 : 		{	// return first element of nonmutable sequence
; 1724 : 		return (*begin());
; 1725 : 		}
; 1726 : 
; 1727 : 	reference back()
; 1728 : 		{	// return last element of mutable sequence
; 1729 : 		return (*(end() - 1));
; 1730 : 		}
; 1731 : 
; 1732 : 	const_reference back() const
; 1733 : 		{	// return last element of nonmutable sequence
; 1734 : 		return (*(end() - 1));
; 1735 : 		}
; 1736 : 
; 1737 : 	const _Elem *c_str() const _NOEXCEPT
; 1738 : 		{	// return pointer to null-terminated nonmutable array
; 1739 : 		return (this->_Myptr());
; 1740 : 		}
; 1741 : 
; 1742 : 	const _Elem *data() const _NOEXCEPT
; 1743 : 		{	// return pointer to nonmutable array
; 1744 : 		return (c_str());
; 1745 : 		}
; 1746 : 
; 1747 : 	size_type length() const _NOEXCEPT
; 1748 : 		{	// return length of sequence
; 1749 : 		return (this->_Mysize);
; 1750 : 		}
; 1751 : 
; 1752 : 	size_type size() const _NOEXCEPT
; 1753 : 		{	// return length of sequence
; 1754 : 		return (this->_Mysize);
; 1755 : 		}
; 1756 : 
; 1757 : 	size_type max_size() const _NOEXCEPT
; 1758 : 		{	// return maximum possible length of sequence
; 1759 : 		size_type _Num = this->_Getal().max_size();
; 1760 : 		return (_Num <= 1 ? 1 : _Num - 1);
; 1761 : 		}
; 1762 : 
; 1763 : 	void resize(size_type _Newsize)
; 1764 : 		{	// determine new length, padding with null elements as needed
; 1765 : 		resize(_Newsize, _Elem());
; 1766 : 		}
; 1767 : 
; 1768 : 	void resize(size_type _Newsize, _Elem _Ch)
; 1769 : 		{	// determine new length, padding with _Ch elements as needed
; 1770 : 		if (_Newsize <= this->_Mysize)
; 1771 : 			_Eos(_Newsize);
; 1772 : 		else
; 1773 : 			append(_Newsize - this->_Mysize, _Ch);
; 1774 : 		}
; 1775 : 
; 1776 : 	size_type capacity() const _NOEXCEPT
; 1777 : 		{	// return current length of allocated storage
; 1778 : 		return (this->_Myres);
; 1779 : 		}
; 1780 : 
; 1781 : 	void reserve(size_type _Newcap = 0)
; 1782 : 		{	// determine new minimum length of allocated storage
; 1783 : 		if (this->_Mysize <= _Newcap && this->_Myres != _Newcap)
; 1784 : 			{	// change reservation
; 1785 : 			size_type _Size = this->_Mysize;
; 1786 : 			if (_Grow(_Newcap, true))
; 1787 : 				_Eos(_Size);
; 1788 : 			}
; 1789 : 		}
; 1790 : 
; 1791 : 	bool empty() const _NOEXCEPT
; 1792 : 		{	// test if sequence is empty
; 1793 : 		return (this->_Mysize == 0);
; 1794 : 		}
; 1795 : 
; 1796 : 	_SCL_INSECURE_DEPRECATE
; 1797 : 
; 1798 : 	size_type copy(_Elem *_Ptr,
; 1799 : 		size_type _Count, size_type _Off = 0) const
; 1800 : 		{	// copy [_Off, _Off + _Count) to [_Ptr, _Ptr + _Count)
; 1801 :  #if _ITERATOR_DEBUG_LEVEL == 2
; 1802 : 		if (_Count != 0)
; 1803 : 			_DEBUG_POINTER(_Ptr);
; 1804 :  #endif /* _ITERATOR_DEBUG_LEVEL == 2 */
; 1805 : 
; 1806 : 		if (this->_Mysize < _Off)
; 1807 : 			_Xran();	// _Off off end
; 1808 : 		if (this->_Mysize - _Off < _Count)
; 1809 : 			_Count = this->_Mysize - _Off;
; 1810 : 		_Traits::copy(_Ptr, this->_Myptr() + _Off, _Count);
; 1811 : 		return (_Count);
; 1812 : 		}
; 1813 : 
; 1814 : 	size_type _Copy_s(_Elem *_Dest, size_type _Dest_size,
; 1815 : 		size_type _Count, size_type _Off = 0) const
; 1816 : 		{	// copy [_Off, _Off + _Count) to [_Dest, _Dest + _Count)
; 1817 :  #if _ITERATOR_DEBUG_LEVEL == 2
; 1818 : 		if (_Count != 0)
; 1819 : 			_DEBUG_POINTER(_Dest);
; 1820 :  #endif /* _ITERATOR_DEBUG_LEVEL == 2 */
; 1821 : 
; 1822 : 		if (this->_Mysize < _Off)
; 1823 : 			_Xran();	// _Off off end
; 1824 : 		if (this->_Mysize - _Off < _Count)
; 1825 : 			_Count = this->_Mysize - _Off;
; 1826 : 		_Traits::_Copy_s(_Dest, _Dest_size, this->_Myptr() + _Off, _Count);
; 1827 : 		return (_Count);
; 1828 : 		}
; 1829 : 
; 1830 : 	void _Swap_bx(_Myt& _Right)
; 1831 : 		{	// exchange _Bx with _Right._Bx
; 1832 : 		if (this->_BUF_SIZE <= this->_Myres)
; 1833 : 			if (this->_BUF_SIZE <= _Right._Myres)
; 1834 : 				_Swap_adl(this->_Bx._Ptr, _Right._Bx._Ptr);
; 1835 : 			else
; 1836 : 				{	// swap large with small
; 1837 : 				pointer _Ptr = this->_Bx._Ptr;
; 1838 : 				this->_Getal().destroy(&this->_Bx._Ptr);
; 1839 : 				_Traits::copy(this->_Bx._Buf,
; 1840 : 					_Right._Bx._Buf, _Right._Mysize + 1);
; 1841 : 				this->_Getal().construct(&_Right._Bx._Ptr, _Ptr);
; 1842 : 				}
; 1843 : 		else
; 1844 : 			if (_Right._Myres < this->_BUF_SIZE)
; 1845 : 				_STD swap(this->_Bx._Buf, _Right._Bx._Buf);
; 1846 : 			else
; 1847 : 				{	// swap small with large
; 1848 : 				pointer _Ptr = _Right._Bx._Ptr;
; 1849 : 				this->_Getal().destroy(&_Right._Bx._Ptr);
; 1850 : 				_Traits::copy(_Right._Bx._Buf,
; 1851 : 					this->_Bx._Buf, this->_Mysize + 1);
; 1852 : 				this->_Getal().construct(&this->_Bx._Ptr, _Ptr);
; 1853 : 				}
; 1854 : 		}
; 1855 : 
; 1856 : 	void swap(_Myt& _Right)
; 1857 : 		{	// exchange contents with _Right
; 1858 : 		if (this == &_Right)
; 1859 : 			;	// same object, do nothing
; 1860 : 		else if (this->_Getal() == _Right._Getal())
; 1861 : 			{	// same allocator, swap control information
; 1862 : 			this->_Swap_all(_Right);
; 1863 : 			_Swap_bx(_Right);
; 1864 : 			_STD swap(this->_Mysize, _Right._Mysize);
; 1865 : 			_STD swap(this->_Myres, _Right._Myres);
; 1866 : 			}
; 1867 : 
; 1868 : 		else if (_Alty::propagate_on_container_swap::value)
; 1869 : 			{	// swap allocators and control information
; 1870 : 			this->_Swap_alloc(_Right);
; 1871 : 			_Swap_bx(_Right);
; 1872 : 			_STD swap(this->_Bx, _Right._Bx);	// pointer bitwise copyable?
; 1873 : 			_STD swap(this->_Mysize, _Right._Mysize);
; 1874 : 			_STD swap(this->_Myres, _Right._Myres);
; 1875 : 			}
; 1876 : 
; 1877 : 		else
; 1878 : 			{	// different allocator, do multiple assigns
; 1879 : 			_Myt _Tmp = *this;
; 1880 : 
; 1881 : 			*this = _Right;
; 1882 : 			_Right = _Tmp;
; 1883 : 			}
; 1884 : 		}
; 1885 : 
; 1886 : 	size_type find(const _Myt& _Right, size_type _Off = 0) const _NOEXCEPT
; 1887 : 		{	// look for _Right beginning at or after _Off
; 1888 : 		return (find(_Right._Myptr(), _Off, _Right.size()));
; 1889 : 		}
; 1890 : 
; 1891 : 	size_type find(const _Elem *_Ptr,
; 1892 : 		size_type _Off, size_type _Count) const
; 1893 : 		{	// look for [_Ptr, _Ptr + _Count) beginning at or after _Off
; 1894 :  #if _ITERATOR_DEBUG_LEVEL == 2
; 1895 : 		if (_Count != 0)
; 1896 : 			_DEBUG_POINTER(_Ptr);
; 1897 :  #endif /* _ITERATOR_DEBUG_LEVEL == 2 */
; 1898 : 
; 1899 : 		if (_Count == 0 && _Off <= this->_Mysize)
; 1900 : 			return (_Off);	// null string always matches (if inside string)
; 1901 : 
; 1902 : 		size_type _Nm;
; 1903 : 		if (_Off < this->_Mysize && _Count <= (_Nm = this->_Mysize - _Off))
; 1904 : 			{	// room for match, look for it
; 1905 : 			const _Elem *_Uptr, *_Vptr;
; 1906 : 			for (_Nm -= _Count - 1, _Vptr = this->_Myptr() + _Off;
; 1907 : 				(_Uptr = _Traits::find(_Vptr, _Nm, *_Ptr)) != 0;
; 1908 : 				_Nm -= _Uptr - _Vptr + 1, _Vptr = _Uptr + 1)
; 1909 : 				if (_Traits::compare(_Uptr, _Ptr, _Count) == 0)
; 1910 : 					return (_Uptr - this->_Myptr());	// found a match
; 1911 : 			}
; 1912 : 
; 1913 : 		return (npos);	// no match
; 1914 : 		}
; 1915 : 
; 1916 : 	size_type find(const _Elem *_Ptr, size_type _Off = 0) const
; 1917 : 		{	// look for [_Ptr, <null>) beginning at or after _Off
; 1918 : 		_DEBUG_POINTER(_Ptr);
; 1919 : 		return (find(_Ptr, _Off, _Traits::length(_Ptr)));
; 1920 : 		}
; 1921 : 
; 1922 : 	size_type find(_Elem _Ch, size_type _Off = 0) const
; 1923 : 		{	// look for _Ch at or after _Off
; 1924 : 		return (find((const _Elem *)&_Ch, _Off, 1));
; 1925 : 		}
; 1926 : 
; 1927 : 	size_type rfind(const _Myt& _Right, size_type _Off = npos) const _NOEXCEPT
; 1928 : 		{	// look for _Right beginning before _Off
; 1929 : 		return (rfind(_Right._Myptr(), _Off, _Right.size()));
; 1930 : 		}
; 1931 : 
; 1932 : 	size_type rfind(const _Elem *_Ptr,
; 1933 : 		size_type _Off, size_type _Count) const
; 1934 : 		{	// look for [_Ptr, _Ptr + _Count) beginning before _Off
; 1935 :  #if _ITERATOR_DEBUG_LEVEL == 2
; 1936 : 		if (_Count != 0)
; 1937 : 			_DEBUG_POINTER(_Ptr);
; 1938 :  #endif /* _ITERATOR_DEBUG_LEVEL == 2 */
; 1939 : 
; 1940 : 		if (_Count == 0)
; 1941 : 			return (_Off < this->_Mysize ? _Off
; 1942 : 				: this->_Mysize);	// null always matches
; 1943 : 		if (_Count <= this->_Mysize)
; 1944 : 			{	// room for match, look for it
; 1945 : 			const _Elem *_Uptr = this->_Myptr() +
; 1946 : 				(_Off < this->_Mysize - _Count ? _Off
; 1947 : 					: this->_Mysize - _Count);
; 1948 : 			for (; ; --_Uptr)
; 1949 : 				if (_Traits::eq(*_Uptr, *_Ptr)
; 1950 : 					&& _Traits::compare(_Uptr, _Ptr, _Count) == 0)
; 1951 : 					return (_Uptr - this->_Myptr());	// found a match
; 1952 : 				else if (_Uptr == this->_Myptr())
; 1953 : 					break;	// at beginning, no more chance for match
; 1954 : 			}
; 1955 : 
; 1956 : 		return (npos);	// no match
; 1957 : 		}
; 1958 : 
; 1959 : 	size_type rfind(const _Elem *_Ptr, size_type _Off = npos) const
; 1960 : 		{	// look for [_Ptr, <null>) beginning before _Off
; 1961 : 		_DEBUG_POINTER(_Ptr);
; 1962 : 		return (rfind(_Ptr, _Off, _Traits::length(_Ptr)));
; 1963 : 		}
; 1964 : 
; 1965 : 	size_type rfind(_Elem _Ch, size_type _Off = npos) const
; 1966 : 		{	// look for _Ch before _Off
; 1967 : 		return (rfind((const _Elem *)&_Ch, _Off, 1));
; 1968 : 		}
; 1969 : 
; 1970 : 	size_type find_first_of(const _Myt& _Right,
; 1971 : 		size_type _Off = 0) const _NOEXCEPT
; 1972 : 		{	// look for one of _Right at or after _Off
; 1973 : 		return (find_first_of(_Right._Myptr(), _Off, _Right.size()));
; 1974 : 		}
; 1975 : 
; 1976 : 	size_type find_first_of(const _Elem *_Ptr,
; 1977 : 		size_type _Off, size_type _Count) const
; 1978 : 		{	// look for one of [_Ptr, _Ptr + _Count) at or after _Off
; 1979 :  #if _ITERATOR_DEBUG_LEVEL == 2
; 1980 : 		if (_Count != 0)
; 1981 : 			_DEBUG_POINTER(_Ptr);
; 1982 :  #endif /* _ITERATOR_DEBUG_LEVEL == 2 */
; 1983 : 
; 1984 : 		if (0 < _Count && _Off < this->_Mysize)
; 1985 : 			{	// room for match, look for it
; 1986 : 			const _Elem *const _Vptr = this->_Myptr() + this->_Mysize;
; 1987 : 			for (const _Elem *_Uptr = this->_Myptr() + _Off;
; 1988 : 				_Uptr < _Vptr; ++_Uptr)
; 1989 : 				if (_Traits::find(_Ptr, _Count, *_Uptr) != 0)
; 1990 : 					return (_Uptr - this->_Myptr());	// found a match
; 1991 : 			}
; 1992 : 
; 1993 : 		return (npos);	// no match
; 1994 : 		}
; 1995 : 
; 1996 : 	size_type find_first_of(const _Elem *_Ptr,
; 1997 : 		size_type _Off = 0) const
; 1998 : 		{	// look for one of [_Ptr, <null>) at or after _Off
; 1999 : 		_DEBUG_POINTER(_Ptr);
; 2000 : 		return (find_first_of(_Ptr, _Off, _Traits::length(_Ptr)));
; 2001 : 		}
; 2002 : 
; 2003 : 	size_type find_first_of(_Elem _Ch,
; 2004 : 		size_type _Off = 0) const
; 2005 : 		{	// look for _Ch at or after _Off
; 2006 : 		return (find((const _Elem *)&_Ch, _Off, 1));
; 2007 : 		}
; 2008 : 
; 2009 : 	size_type find_last_of(const _Myt& _Right,
; 2010 : 		size_type _Off = npos) const _NOEXCEPT
; 2011 : 		{	// look for one of _Right before _Off
; 2012 : 		return (find_last_of(_Right._Myptr(), _Off, _Right.size()));
; 2013 : 		}
; 2014 : 
; 2015 : 	size_type find_last_of(const _Elem *_Ptr,
; 2016 : 		size_type _Off, size_type _Count) const
; 2017 : 		{	// look for one of [_Ptr, _Ptr + _Count) before _Off
; 2018 :  #if _ITERATOR_DEBUG_LEVEL == 2
; 2019 : 		if (_Count != 0)
; 2020 : 			_DEBUG_POINTER(_Ptr);
; 2021 :  #endif /* _ITERATOR_DEBUG_LEVEL == 2 */
; 2022 : 
; 2023 : 		if (0 < _Count && 0 < this->_Mysize)
; 2024 : 			{	// worth searching, do it
; 2025 : 			const _Elem *_Uptr = this->_Myptr()
; 2026 : 				+ (_Off < this->_Mysize ? _Off : this->_Mysize - 1);
; 2027 : 			for (; ; --_Uptr)
; 2028 : 				if (_Traits::find(_Ptr, _Count, *_Uptr) != 0)
; 2029 : 					return (_Uptr - this->_Myptr());	// found a match
; 2030 : 				else if (_Uptr == this->_Myptr())
; 2031 : 					break;	// at beginning, no more chance for match
; 2032 : 			}
; 2033 : 
; 2034 : 		return (npos);	// no match
; 2035 : 		}
; 2036 : 
; 2037 : 	size_type find_last_of(const _Elem *_Ptr,
; 2038 : 		size_type _Off = npos) const
; 2039 : 		{	// look for one of [_Ptr, <null>) before _Off
; 2040 : 		_DEBUG_POINTER(_Ptr);
; 2041 : 		return (find_last_of(_Ptr, _Off, _Traits::length(_Ptr)));
; 2042 : 		}
; 2043 : 
; 2044 : 	size_type find_last_of(_Elem _Ch,
; 2045 : 		size_type _Off = npos) const
; 2046 : 		{	// look for _Ch before _Off
; 2047 : 		return (rfind((const _Elem *)&_Ch, _Off, 1));
; 2048 : 		}
; 2049 : 
; 2050 : 	size_type find_first_not_of(const _Myt& _Right,
; 2051 : 		size_type _Off = 0) const _NOEXCEPT
; 2052 : 		{	// look for none of _Right at or after _Off
; 2053 : 		return (find_first_not_of(_Right._Myptr(), _Off,
; 2054 : 			_Right.size()));
; 2055 : 		}
; 2056 : 
; 2057 : 	size_type find_first_not_of(const _Elem *_Ptr,
; 2058 : 		size_type _Off, size_type _Count) const
; 2059 : 		{	// look for none of [_Ptr, _Ptr + _Count) at or after _Off
; 2060 :  #if _ITERATOR_DEBUG_LEVEL == 2
; 2061 : 		if (_Count != 0)
; 2062 : 			_DEBUG_POINTER(_Ptr);
; 2063 :  #endif /* _ITERATOR_DEBUG_LEVEL == 2 */
; 2064 : 
; 2065 : 		if (_Off < this->_Mysize)
; 2066 : 			{	// room for match, look for it
; 2067 : 			const _Elem *const _Vptr = this->_Myptr() + this->_Mysize;
; 2068 : 			for (const _Elem *_Uptr = this->_Myptr() + _Off;
; 2069 : 				_Uptr < _Vptr; ++_Uptr)
; 2070 : 				if (_Traits::find(_Ptr, _Count, *_Uptr) == 0)
; 2071 : 					return (_Uptr - this->_Myptr());
; 2072 : 			}
; 2073 : 		return (npos);
; 2074 : 		}
; 2075 : 
; 2076 : 	size_type find_first_not_of(const _Elem *_Ptr,
; 2077 : 		size_type _Off = 0) const
; 2078 : 		{	// look for one of [_Ptr, <null>) at or after _Off
; 2079 : 		_DEBUG_POINTER(_Ptr);
; 2080 : 		return (find_first_not_of(_Ptr, _Off, _Traits::length(_Ptr)));
; 2081 : 		}
; 2082 : 
; 2083 : 	size_type find_first_not_of(_Elem _Ch,
; 2084 : 		size_type _Off = 0) const
; 2085 : 		{	// look for non _Ch at or after _Off
; 2086 : 		return (find_first_not_of((const _Elem *)&_Ch, _Off, 1));
; 2087 : 		}
; 2088 : 
; 2089 : 	size_type find_last_not_of(const _Myt& _Right,
; 2090 : 		size_type _Off = npos) const _NOEXCEPT
; 2091 : 		{	// look for none of _Right before _Off
; 2092 : 		return (find_last_not_of(_Right._Myptr(), _Off, _Right.size()));
; 2093 : 		}
; 2094 : 
; 2095 : 	size_type find_last_not_of(const _Elem *_Ptr,
; 2096 : 		size_type _Off, size_type _Count) const
; 2097 : 		{	// look for none of [_Ptr, _Ptr + _Count) before _Off
; 2098 :  #if _ITERATOR_DEBUG_LEVEL == 2
; 2099 : 		if (_Count != 0)
; 2100 : 			_DEBUG_POINTER(_Ptr);
; 2101 :  #endif /* _ITERATOR_DEBUG_LEVEL == 2 */
; 2102 : 
; 2103 : 		if (0 < this->_Mysize)
; 2104 : 			{	// worth searching, do it
; 2105 : 			const _Elem *_Uptr = this->_Myptr()
; 2106 : 				+ (_Off < this->_Mysize ? _Off : this->_Mysize - 1);
; 2107 : 			for (; ; --_Uptr)
; 2108 : 				if (_Traits::find(_Ptr, _Count, *_Uptr) == 0)
; 2109 : 					return (_Uptr - this->_Myptr());
; 2110 : 				else if (_Uptr == this->_Myptr())
; 2111 : 					break;
; 2112 : 			}
; 2113 : 		return (npos);
; 2114 : 		}
; 2115 : 
; 2116 : 	size_type find_last_not_of(const _Elem *_Ptr,
; 2117 : 		size_type _Off = npos) const
; 2118 : 		{	// look for none of [_Ptr, <null>) before _Off
; 2119 : 		_DEBUG_POINTER(_Ptr);
; 2120 : 		return (find_last_not_of(_Ptr, _Off, _Traits::length(_Ptr)));
; 2121 : 		}
; 2122 : 
; 2123 : 	size_type find_last_not_of(_Elem _Ch,
; 2124 : 		size_type _Off = npos) const
; 2125 : 		{	// look for non _Ch before _Off
; 2126 : 		return (find_last_not_of((const _Elem *)&_Ch, _Off, 1));
; 2127 : 		}
; 2128 : 
; 2129 : 	_Myt substr(size_type _Off = 0, size_type _Count = npos) const
; 2130 : 		{	// return [_Off, _Off + _Count) as new string
; 2131 : 		return (_Myt(*this, _Off, _Count, get_allocator()));
; 2132 : 		}
; 2133 : 
; 2134 : 	int compare(const _Myt& _Right) const _NOEXCEPT
; 2135 : 		{	// compare [0, _Mysize) with _Right
; 2136 : 		return (compare(0, this->_Mysize, _Right._Myptr(), _Right.size()));
; 2137 : 		}
; 2138 : 
; 2139 : 	int compare(size_type _Off, size_type _N0,
; 2140 : 		const _Myt& _Right) const
; 2141 : 		{	// compare [_Off, _Off + _N0) with _Right
; 2142 : 		return (compare(_Off, _N0, _Right, 0, npos));
; 2143 : 		}
; 2144 : 
; 2145 : 	int compare(size_type _Off,
; 2146 : 		size_type _N0, const _Myt& _Right,
; 2147 : 		size_type _Roff, size_type _Count) const
; 2148 : 		{	// compare [_Off, _Off + _N0) with _Right [_Roff, _Roff + _Count)
; 2149 : 		if (_Right.size() < _Roff)
; 2150 : 			_Xran();	// _Off off end
; 2151 : 		if (_Right._Mysize - _Roff < _Count)
; 2152 : 			_Count = _Right._Mysize - _Roff;	// trim _Count to size
; 2153 : 		return (compare(_Off, _N0, _Right._Myptr() + _Roff, _Count));
; 2154 : 		}
; 2155 : 
; 2156 : 	int compare(const _Elem *_Ptr) const
; 2157 : 		{	// compare [0, _Mysize) with [_Ptr, <null>)
; 2158 : 		_DEBUG_POINTER(_Ptr);
; 2159 : 		return (compare(0, this->_Mysize, _Ptr, _Traits::length(_Ptr)));
; 2160 : 		}
; 2161 : 
; 2162 : 	int compare(size_type _Off, size_type _N0, const _Elem *_Ptr) const
; 2163 : 		{	// compare [_Off, _Off + _N0) with [_Ptr, <null>)
; 2164 : 		_DEBUG_POINTER(_Ptr);
; 2165 : 		return (compare(_Off, _N0, _Ptr, _Traits::length(_Ptr)));
; 2166 : 		}
; 2167 : 
; 2168 : 	int compare(size_type _Off,
; 2169 : 		size_type _N0, const _Elem *_Ptr, size_type _Count) const
; 2170 : 		{	// compare [_Off, _Off + _N0) with [_Ptr, _Ptr + _Count)
; 2171 :  #if _ITERATOR_DEBUG_LEVEL == 2
; 2172 : 		if (_Count != 0)
; 2173 : 			_DEBUG_POINTER(_Ptr);
; 2174 :  #endif /* _ITERATOR_DEBUG_LEVEL == 2 */
; 2175 : 
; 2176 : 		if (this->_Mysize < _Off)
; 2177 : 			_Xran();	// _Off off end
; 2178 : 		if (this->_Mysize - _Off < _N0)
; 2179 : 			_N0 = this->_Mysize - _Off;	// trim _N0 to size
; 2180 : 
; 2181 : 		size_type _Ans = _Traits::compare(this->_Myptr() + _Off, _Ptr,
; 2182 : 			_N0 < _Count ? _N0 : _Count);
; 2183 : 		return (_Ans != 0 ? (int)_Ans : _N0 < _Count ? -1
; 2184 : 			: _N0 == _Count ? 0 : +1);
; 2185 : 		}
; 2186 : 
; 2187 : 	allocator_type get_allocator() const _NOEXCEPT
; 2188 : 		{	// return allocator object for values
; 2189 : 		return (this->_Getal());
; 2190 : 		}
; 2191 : 
; 2192 : 	void _Chassign(size_type _Off, size_type _Count, _Elem _Ch)
; 2193 : 		{	// assign _Count copies of _Ch beginning at _Off
; 2194 : 		if (_Count == 1)
; 2195 : 			_Traits::assign(*(this->_Myptr() + _Off), _Ch);
; 2196 : 		else
; 2197 : 			_Traits::assign(this->_Myptr() + _Off, _Count, _Ch);
; 2198 : 		}
; 2199 : 
; 2200 : 	void _Copy(size_type _Newsize, size_type _Oldlen)
; 2201 : 		{	// copy _Oldlen elements to newly allocated buffer
; 2202 : 		size_type _Newres = _Newsize | this->_ALLOC_MASK;
; 2203 : 		if (max_size() < _Newres)
; 2204 : 			_Newres = _Newsize;	// undo roundup if too big
; 2205 : 		else if (this->_Myres / 2 <= _Newres / 3)
; 2206 : 			;
; 2207 : 		else if (this->_Myres <= max_size() - this->_Myres / 2)
; 2208 : 			_Newres = this->_Myres
; 2209 : 				+ this->_Myres / 2;	// grow exponentially if possible
; 2210 : 		else
; 2211 : 			_Newres = max_size();	// settle for max_size()
; 2212 : 
; 2213 : 		_Elem *_Ptr;
; 2214 : 		_TRY_BEGIN
; 2215 : 			_Ptr = this->_Getal().allocate(_Newres + 1);
; 2216 : 		_CATCH_ALL
; 2217 : 			_Newres = _Newsize;	// allocation failed, undo roundup and retry
; 2218 : 			_TRY_BEGIN
; 2219 : 				_Ptr = this->_Getal().allocate(_Newres + 1);
; 2220 : 			_CATCH_ALL
; 2221 : 			_Tidy(true);	// failed again, discard storage and reraise
; 2222 : 			_RERAISE;
; 2223 : 			_CATCH_END
; 2224 : 		_CATCH_END
; 2225 : 
; 2226 : 		if (0 < _Oldlen)
; 2227 : 			_Traits::copy(_Ptr, this->_Myptr(),
; 2228 : 				_Oldlen);	// copy existing elements
; 2229 : 		_Tidy(true);
; 2230 : 		this->_Getal().construct(&this->_Bx._Ptr, _Ptr);
; 2231 : 		this->_Myres = _Newres;
; 2232 : 		_Eos(_Oldlen);
; 2233 : 		}
; 2234 : 
; 2235 : 	void _Eos(size_type _Newsize)
; 2236 : 		{	// set new length and null terminator
; 2237 : 		_Traits::assign(this->_Myptr()[this->_Mysize = _Newsize], _Elem());

  00036	c7 45 e4 00 00
	00 00		 mov	 DWORD PTR _path$[ebp+16], 0
; File c:\program files (x86)\microsoft visual studio 12.0\vc\include\iosfwd

; 564  : 		_Left = _Right;

  0003d	c6 45 d4 00	 mov	 BYTE PTR _path$[ebp], 0
; File d:\metin2\metin2\client_source_clean\client_source_clean\source\userinterface\markmanager.cpp

; 127  : 	if (GetMarkImageFilename(imgIdx, path))

  00041	8d 45 d4	 lea	 eax, DWORD PTR _path$[ebp]
  00044	c7 45 fc 00 00
	00 00		 mov	 DWORD PTR __$EHRec$[ebp+8], 0
  0004b	50		 push	 eax
  0004c	57		 push	 edi
  0004d	e8 00 00 00 00	 call	 ?GetMarkImageFilename@CGuildMarkManager@@QBE_NKAAV?$basic_string@DU?$char_traits@D@std@@V?$allocator@D@2@@std@@@Z ; CGuildMarkManager::GetMarkImageFilename
  00052	84 c0		 test	 al, al
  00054	74 3c		 je	 SHORT $LN1@SaveMarkIm
; File c:\program files (x86)\microsoft visual studio 12.0\vc\include\xstring

; 520  : 			: this->_Bx._Buf);

  00056	83 7d e8 10	 cmp	 DWORD PTR _path$[ebp+20], 16 ; 00000010H
  0005a	8d 45 d4	 lea	 eax, DWORD PTR _path$[ebp]
  0005d	0f 43 45 d4	 cmovae	 eax, DWORD PTR _path$[ebp]
; File d:\metin2\metin2\client_source_clean\client_source_clean\source\userinterface\markmanager.cpp

; 128  : 		if (!__GetImage(imgIdx)->Save(path.c_str()))

  00061	50		 push	 eax
  00062	51		 push	 ecx
  00063	57		 push	 edi
  00064	8b ce		 mov	 ecx, esi
  00066	e8 00 00 00 00	 call	 ?__GetImage@CGuildMarkManager@@AAEPAVCGuildMarkImage@@K@Z ; CGuildMarkManager::__GetImage
  0006b	83 c4 04	 add	 esp, 4
  0006e	8b c8		 mov	 ecx, eax
  00070	e8 00 00 00 00	 call	 ?Save@CGuildMarkImage@@QAE_NPBD@Z ; CGuildMarkImage::Save
  00075	84 c0		 test	 al, al
  00077	75 19		 jne	 SHORT $LN1@SaveMarkIm
; File c:\program files (x86)\microsoft visual studio 12.0\vc\include\xstring

; 520  : 			: this->_Bx._Buf);

  00079	83 7d e8 10	 cmp	 DWORD PTR _path$[ebp+20], 16 ; 00000010H
  0007d	8d 45 d4	 lea	 eax, DWORD PTR _path$[ebp]
  00080	0f 43 45 d4	 cmovae	 eax, DWORD PTR _path$[ebp]
; File d:\metin2\metin2\client_source_clean\client_source_clean\source\userinterface\markmanager.cpp

; 129  : 			sys_err("%s Save failed\n", path.c_str());

  00084	50		 push	 eax
  00085	68 00 00 00 00	 push	 OFFSET ??_C@_0BA@PBMNNCMH@?$CFs?5Save?5failed?6?$AA@
  0008a	e8 00 00 00 00	 call	 ?TraceError@@YAXPBDZZ	; TraceError
  0008f	83 c4 08	 add	 esp, 8
$LN1@SaveMarkIm:
; File c:\program files (x86)\microsoft visual studio 12.0\vc\include\xstring

; 2275 : 		else if (this->_BUF_SIZE <= this->_Myres)

  00092	83 7d e8 10	 cmp	 DWORD PTR _path$[ebp+20], 16 ; 00000010H
  00096	72 0b		 jb	 SHORT $LN80@SaveMarkIm
; File c:\program files (x86)\microsoft visual studio 12.0\vc\include\xmemory0

; 573  : 		::operator delete(_Ptr);

  00098	ff 75 d4	 push	 DWORD PTR _path$[ebp]
  0009b	e8 00 00 00 00	 call	 ??3@YAXPAX@Z		; operator delete
  000a0	83 c4 04	 add	 esp, 4
$LN80@SaveMarkIm:
; File d:\metin2\metin2\client_source_clean\client_source_clean\source\userinterface\markmanager.cpp

; 130  : }

  000a3	8b 4d f4	 mov	 ecx, DWORD PTR __$EHRec$[ebp]
  000a6	64 89 0d 00 00
	00 00		 mov	 DWORD PTR fs:0, ecx
  000ad	59		 pop	 ecx
  000ae	5f		 pop	 edi
  000af	5e		 pop	 esi
  000b0	8b 4d ec	 mov	 ecx, DWORD PTR __$ArrayPad$[ebp]
  000b3	33 cd		 xor	 ecx, ebp
  000b5	e8 00 00 00 00	 call	 @__security_check_cookie@4
  000ba	8b e5		 mov	 esp, ebp
  000bc	5d		 pop	 ebp
  000bd	c2 04 00	 ret	 4
_TEXT	ENDS
;	COMDAT text$x
text$x	SEGMENT
__unwindfunclet$?SaveMarkImage@CGuildMarkManager@@QAEXK@Z$0:
  00000	8d 4d d4	 lea	 ecx, DWORD PTR _path$[ebp]
  00003	e9 00 00 00 00	 jmp	 ??1?$basic_string@DU?$char_traits@D@std@@V?$allocator@D@2@@std@@QAE@XZ ; std::basic_string<char,std::char_traits<char>,std::allocator<char> >::~basic_string<char,std::char_traits<char>,std::allocator<char> >
__ehhandler$?SaveMarkImage@CGuildMarkManager@@QAEXK@Z:
  00008	8b 54 24 08	 mov	 edx, DWORD PTR [esp+8]
  0000c	8d 42 0c	 lea	 eax, DWORD PTR [edx+12]
  0000f	8b 4a d0	 mov	 ecx, DWORD PTR [edx-48]
  00012	33 c8		 xor	 ecx, eax
  00014	e8 00 00 00 00	 call	 @__security_check_cookie@4
  00019	8b 4a f8	 mov	 ecx, DWORD PTR [edx-8]
  0001c	33 c8		 xor	 ecx, eax
  0001e	e8 00 00 00 00	 call	 @__security_check_cookie@4
  00023	b8 00 00 00 00	 mov	 eax, OFFSET __ehfuncinfo$?SaveMarkImage@CGuildMarkManager@@QAEXK@Z
  00028	e9 00 00 00 00	 jmp	 ___CxxFrameHandler3
text$x	ENDS
?SaveMarkImage@CGuildMarkManager@@QAEXK@Z ENDP		; CGuildMarkManager::SaveMarkImage
; Function compile flags: /Ogtp
; File d:\metin2\metin2\client_source_clean\client_source_clean\source\userinterface\markmanager.cpp
;	COMDAT ?SaveBlockFromCompressedData@CGuildMarkManager@@QAE_NKKPBEK@Z
_TEXT	SEGMENT
_imgIdx$ = 8						; size = 4
_posBlock$ = 12						; size = 4
_pbBlock$ = 16						; size = 4
_dwSize$ = 20						; size = 4
?SaveBlockFromCompressedData@CGuildMarkManager@@QAE_NKKPBEK@Z PROC ; CGuildMarkManager::SaveBlockFromCompressedData, COMDAT
; _this$ = ecx

; 289  : {

  00000	55		 push	 ebp
  00001	8b ec		 mov	 ebp, esp

; 290  : 	CGuildMarkImage * pkImage = __GetImage(imgIdx);

  00003	ff 75 08	 push	 DWORD PTR _imgIdx$[ebp]
  00006	e8 00 00 00 00	 call	 ?__GetImage@CGuildMarkManager@@AAEPAVCGuildMarkImage@@K@Z ; CGuildMarkManager::__GetImage

; 291  : 
; 292  : 	if (pkImage)

  0000b	85 c0		 test	 eax, eax
  0000d	74 10		 je	 SHORT $LN4@SaveBlockF

; 293  : 		pkImage->SaveBlockFromCompressedData(posBlock, pbBlock, dwSize);

  0000f	ff 75 14	 push	 DWORD PTR _dwSize$[ebp]
  00012	8b c8		 mov	 ecx, eax
  00014	ff 75 10	 push	 DWORD PTR _pbBlock$[ebp]
  00017	ff 75 0c	 push	 DWORD PTR _posBlock$[ebp]
  0001a	e8 00 00 00 00	 call	 ?SaveBlockFromCompressedData@CGuildMarkImage@@QAE_NKPBEK@Z ; CGuildMarkImage::SaveBlockFromCompressedData
$LN4@SaveBlockF:

; 294  : 
; 295  : 	return false;

  0001f	32 c0		 xor	 al, al

; 296  : }

  00021	5d		 pop	 ebp
  00022	c2 10 00	 ret	 16			; 00000010H
?SaveBlockFromCompressedData@CGuildMarkManager@@QAE_NKKPBEK@Z ENDP ; CGuildMarkManager::SaveBlockFromCompressedData
_TEXT	ENDS
; Function compile flags: /Ogtp
; File d:\metin2\metin2\client_source_clean\client_source_clean\source\userinterface\markmanager.cpp
; File c:\program files (x86)\microsoft visual studio 12.0\vc\include\xtree
; File d:\metin2\metin2\client_source_clean\client_source_clean\source\userinterface\markmanager.cpp
; File c:\program files (x86)\microsoft visual studio 12.0\vc\include\xtree
; File c:\program files (x86)\microsoft visual studio 12.0\vc\include\xstddef
; File c:\program files (x86)\microsoft visual studio 12.0\vc\include\xtree
; File c:\program files (x86)\microsoft visual studio 12.0\vc\include\xstddef
; File c:\program files (x86)\microsoft visual studio 12.0\vc\include\xtree
; File d:\metin2\metin2\client_source_clean\client_source_clean\source\userinterface\markmanager.cpp
; File c:\program files (x86)\microsoft visual studio 12.0\vc\include\xtree
; File d:\metin2\metin2\client_source_clean\client_source_clean\source\userinterface\markmanager.cpp
;	COMDAT ?GetBlockCRCList@CGuildMarkManager@@QAE_NKPAK@Z
_TEXT	SEGMENT
$T1 = 8							; size = 4
$T2 = 8							; size = 4
_imgIdx$ = 8						; size = 4
_crcList$ = 12						; size = 4
?GetBlockCRCList@CGuildMarkManager@@QAE_NKPAK@Z PROC	; CGuildMarkManager::GetBlockCRCList, COMDAT
; _this$ = ecx

; 300  : {

  00000	55		 push	 ebp
  00001	8b ec		 mov	 ebp, esp
  00003	51		 push	 ecx
; File c:\program files (x86)\microsoft visual studio 12.0\vc\include\xtree

; 2109 : 		while (!this->_Isnil(_Pnode))

  00004	8b 55 08	 mov	 edx, DWORD PTR _imgIdx$[ebp]
; File d:\metin2\metin2\client_source_clean\client_source_clean\source\userinterface\markmanager.cpp

; 300  : {

  00007	53		 push	 ebx
  00008	8b d9		 mov	 ebx, ecx
  0000a	56		 push	 esi
  0000b	57		 push	 edi
; File c:\program files (x86)\microsoft visual studio 12.0\vc\include\xtree

; 594  : 		return ((_Nodepref)_Pnode->_Parent);

  0000c	8b 7b 04	 mov	 edi, DWORD PTR [ebx+4]

; 1554 : 		}
; 1555 : 
; 1556 : 	const_iterator find(const key_type& _Keyval) const
; 1557 : 		{	// find an element in nonmutable sequence that matches _Keyval
; 1558 : 		const_iterator _Where = lower_bound(_Keyval);
; 1559 : 		return (_Where == end()
; 1560 : 			|| _DEBUG_LT_PRED(this->_Getcomp(),
; 1561 : 				_Keyval, this->_Key(_Where._Mynode()))
; 1562 : 					? end() : _Where);
; 1563 : 		}
; 1564 : 
; 1565 : 	size_type count(const key_type& _Keyval) const
; 1566 : 		{	// count all elements that match _Keyval
; 1567 : 		_Paircc _Ans = equal_range(_Keyval);
; 1568 : 		size_type _Num = 0;
; 1569 : 		_Distance(_Ans.first, _Ans.second, _Num);
; 1570 : 		return (_Num);
; 1571 : 		}
; 1572 : 
; 1573 : 	iterator lower_bound(const key_type& _Keyval)
; 1574 : 		{	// find leftmost node not less than _Keyval in mutable tree
; 1575 : 		return (iterator(_Lbound(_Keyval), this));
; 1576 : 		}
; 1577 : 
; 1578 : 	const_iterator lower_bound(const key_type& _Keyval) const
; 1579 : 		{	// find leftmost node not less than _Keyval in nonmutable tree
; 1580 : 		return (const_iterator(_Lbound(_Keyval), this));
; 1581 : 		}
; 1582 : 
; 1583 : 	iterator upper_bound(const key_type& _Keyval)
; 1584 : 		{	// find leftmost node greater than _Keyval in mutable tree
; 1585 : 		return (iterator(_Ubound(_Keyval), this));
; 1586 : 		}
; 1587 : 
; 1588 : 	const_iterator upper_bound(const key_type& _Keyval) const
; 1589 : 		{	// find leftmost node greater than _Keyval in nonmutable tree
; 1590 : 		return (const_iterator(_Ubound(_Keyval), this));
; 1591 : 		}
; 1592 : 
; 1593 : 	_Pairii equal_range(const key_type& _Keyval)
; 1594 : 		{	// find range equivalent to _Keyval in mutable tree
; 1595 : 		return (_Eqrange(_Keyval));
; 1596 : 		}
; 1597 : 
; 1598 : 	_Paircc equal_range(const key_type& _Keyval) const
; 1599 : 		{	// find range equivalent to _Keyval in nonmutable tree
; 1600 : 		return (_Eqrange(_Keyval));
; 1601 : 		}
; 1602 : 
; 1603 : 	void swap(_Myt& _Right)
; 1604 : 		{	// exchange contents with _Right
; 1605 : 		if (this == &_Right)
; 1606 : 			;	// same object, do nothing
; 1607 : 		else if (this->_Getal() == _Right._Getal())
; 1608 : 			{	// same allocator, swap control information
; 1609 : 			this->_Swap_all(_Right);
; 1610 : 			this->_Swapcomp(_Right._Getcomp());
; 1611 : 			_Swap_adl(this->_Myhead, _Right._Myhead);
; 1612 : 			_STD swap(this->_Mysize, _Right._Mysize);
; 1613 : 			}
; 1614 : 
; 1615 : 		else if (_Alty::propagate_on_container_swap::value)
; 1616 : 			{	// swap allocators and control information
; 1617 : 			this->_Swap_alloc(_Right);
; 1618 : 			this->_Swapcomp(_Right._Getcomp());
; 1619 : 			_Swap_adl(this->_Myhead, _Right._Myhead);
; 1620 : 			_STD swap(this->_Mysize, _Right._Mysize);
; 1621 : 			}
; 1622 : 
; 1623 : 		else
; 1624 : 			{	// containers are incompatible
; 1625 :  #if _ITERATOR_DEBUG_LEVEL == 2
; 1626 : 			_DEBUG_ERROR("map/set containers incompatible for swap");
; 1627 : 
; 1628 :  #else /* ITERATOR_DEBUG_LEVEL == 2 */
; 1629 : 			_XSTD terminate();
; 1630 :  #endif /* ITERATOR_DEBUG_LEVEL == 2 */
; 1631 : 			}
; 1632 : 		}
; 1633 : 
; 1634 : protected:
; 1635 : 	template<class _Valty>
; 1636 : 		_Nodeptr _Buynode_if_nil(_Nodeptr _Node, _Valty&&)
; 1637 : 		{	// node exists, just return it
; 1638 : 		return (_Node);
; 1639 : 		}
; 1640 : 
; 1641 : 	template<class _Valty>
; 1642 : 		_Nodeptr _Buynode_if_nil(_Nil, _Valty&& _Val)
; 1643 : 		{	// node doesn't exist, make it
; 1644 : 		return (this->_Buynode(_STD forward<_Valty>(_Val)));
; 1645 : 		}
; 1646 : 
; 1647 : 	void _Destroy_if_not_nil(_Nodeptr _Newnode)
; 1648 : 		{	// node exists, destroy it
; 1649 : 		this->_Getal().destroy(
; 1650 : 			_STD addressof(this->_Myval(_Newnode)));
; 1651 : 
; 1652 : 		this->_Getal().deallocate(_Newnode, 1);
; 1653 : 		}
; 1654 : 
; 1655 : 	void _Destroy_if_not_nil(_Nil)
; 1656 : 		{	// node doesn't exist, do nothing
; 1657 : 		}
; 1658 : 
; 1659 : 	template<class _Valty,
; 1660 : 		class _Nodety>
; 1661 : 		iterator _Insert_hint(const_iterator _Where,
; 1662 : 			_Valty&& _Val, _Nodety _Newnode)
; 1663 : 		{	// try to insert node using _Where as a hint
; 1664 : 		const_iterator _Next;
; 1665 : 		bool _Leftish = false;	// assume nearest point is end of sequence
; 1666 : 
; 1667 : 		_TRY_BEGIN
; 1668 : 
; 1669 :  #if _ITERATOR_DEBUG_LEVEL == 2
; 1670 : 		if (_Where._Getcont() != this)
; 1671 : 			_DEBUG_ERROR("map/set insert iterator outside range");
; 1672 :  #endif /* _ITERATOR_DEBUG_LEVEL == 2 */
; 1673 : 
; 1674 : 		if (size() == 0)
; 1675 : 			return (_Insert_at(true, this->_Myhead,
; 1676 : 				_STD forward<_Valty>(_Val), _Newnode));	// empty tree
; 1677 : 		else if (this->_Multi)
; 1678 : 			{	// insert even if duplicate
; 1679 : 			if (_Where == begin())
; 1680 : 				{	// insert at beginning if before first element
; 1681 : 				if (!_DEBUG_LT_PRED(this->_Getcomp(),
; 1682 : 					this->_Key(_Where._Mynode()), this->_Kfn(_Val)))
; 1683 : 					return (_Insert_at(true, _Where._Mynode(),
; 1684 : 						_STD forward<_Valty>(_Val), _Newnode));
; 1685 : 				_Leftish = true;	// nearest point is beginning of sequence
; 1686 : 				}
; 1687 : 			else if (_Where == end())
; 1688 : 				{	// insert at end if after last element
; 1689 : 				if (!_DEBUG_LT_PRED(this->_Getcomp(),
; 1690 : 					this->_Kfn(_Val), this->_Key(_Rmost())))
; 1691 : 					return (_Insert_at(false, _Rmost(),
; 1692 : 						_STD forward<_Valty>(_Val), _Newnode));
; 1693 : 				}
; 1694 : 			else if (!_DEBUG_LT_PRED(this->_Getcomp(),
; 1695 : 				this->_Key(_Where._Mynode()), this->_Kfn(_Val))
; 1696 : 				&& !_DEBUG_LT_PRED(this->_Getcomp(),
; 1697 : 					this->_Kfn(_Val),
; 1698 : 					this->_Key((--(_Next = _Where))._Mynode())))
; 1699 : 				{	// insert before _Where
; 1700 : 				if (this->_Isnil(this->_Right(_Next._Mynode())))
; 1701 : 					return (_Insert_at(false, _Next._Mynode(),
; 1702 : 						_STD forward<_Valty>(_Val), _Newnode));
; 1703 : 				else
; 1704 : 					return (_Insert_at(true, _Where._Mynode(),
; 1705 : 						_STD forward<_Valty>(_Val), _Newnode));
; 1706 : 				}
; 1707 : 			else if (!_DEBUG_LT_PRED(this->_Getcomp(),
; 1708 : 				this->_Kfn(_Val), this->_Key(_Where._Mynode()))
; 1709 : 				&& (++(_Next = _Where) == end()
; 1710 : 					|| !_DEBUG_LT_PRED(this->_Getcomp(),
; 1711 : 						this->_Key(_Next._Mynode()), this->_Kfn(_Val))))
; 1712 : 				{	// insert after _Where
; 1713 : 				if (this->_Isnil(this->_Right(_Where._Mynode())))
; 1714 : 					return (_Insert_at(false, _Where._Mynode(),
; 1715 : 						_STD forward<_Valty>(_Val), _Newnode));
; 1716 : 				else
; 1717 : 					return (_Insert_at(true, _Next._Mynode(),
; 1718 : 						_STD forward<_Valty>(_Val), _Newnode));
; 1719 : 				}
; 1720 : 			else
; 1721 : 				_Leftish = true;	// nearest point is beginning of sequence
; 1722 : 			}
; 1723 : 		else
; 1724 : 			{	// insert only if unique
; 1725 : 			if (_Where == begin())
; 1726 : 				{	// insert at beginning if before first element
; 1727 : 				if (_DEBUG_LT_PRED(this->_Getcomp(),
; 1728 : 					this->_Kfn(_Val), this->_Key(_Where._Mynode())))
; 1729 : 					return (_Insert_at(true, _Where._Mynode(),
; 1730 : 						_STD forward<_Valty>(_Val), _Newnode));
; 1731 : 				}
; 1732 : 			else if (_Where == end())
; 1733 : 				{	// insert at end if after last element
; 1734 : 				if (_DEBUG_LT_PRED(this->_Getcomp(),
; 1735 : 					this->_Key(_Rmost()), this->_Kfn(_Val)))
; 1736 : 					return (_Insert_at(false, _Rmost(),
; 1737 : 						_STD forward<_Valty>(_Val), _Newnode));
; 1738 : 				}
; 1739 : 			else if (_DEBUG_LT_PRED(this->_Getcomp(),
; 1740 : 				this->_Kfn(_Val), this->_Key(_Where._Mynode()))
; 1741 : 				&& _DEBUG_LT_PRED(this->_Getcomp(),
; 1742 : 					this->_Key((--(_Next = _Where))._Mynode()),
; 1743 : 					this->_Kfn(_Val)))
; 1744 : 				{	// insert before _Where
; 1745 : 				if (this->_Isnil(this->_Right(_Next._Mynode())))
; 1746 : 					return (_Insert_at(false, _Next._Mynode(),
; 1747 : 						_STD forward<_Valty>(_Val), _Newnode));
; 1748 : 				else
; 1749 : 					return (_Insert_at(true, _Where._Mynode(),
; 1750 : 						_STD forward<_Valty>(_Val), _Newnode));
; 1751 : 				}
; 1752 : 			else if (_DEBUG_LT_PRED(this->_Getcomp(),
; 1753 : 				this->_Key(_Where._Mynode()), this->_Kfn(_Val))
; 1754 : 				&& (++(_Next = _Where) == end()
; 1755 : 					|| _DEBUG_LT_PRED(this->_Getcomp(),
; 1756 : 						this->_Kfn(_Val), this->_Key(_Next._Mynode()))))
; 1757 : 				{	// insert after _Where
; 1758 : 				if (this->_Isnil(this->_Right(_Where._Mynode())))
; 1759 : 					return (_Insert_at(false, _Where._Mynode(),
; 1760 : 						_STD forward<_Valty>(_Val), _Newnode));
; 1761 : 				else
; 1762 : 					return (_Insert_at(true, _Next._Mynode(),
; 1763 : 						_STD forward<_Valty>(_Val), _Newnode));
; 1764 : 				}
; 1765 : 			}
; 1766 : 		_CATCH_ALL
; 1767 : 		_Destroy_if_not_nil(_Newnode);
; 1768 : 		_RERAISE;
; 1769 : 		_CATCH_END
; 1770 : 
; 1771 : 		return (_Insert_nohint(_Leftish,
; 1772 : 			_STD forward<_Valty>(_Val), _Newnode).first);
; 1773 : 		}
; 1774 : 
; 1775 : 	template<class _Valty,
; 1776 : 		class _Nodety>
; 1777 : 		_Pairib _Insert_nohint(bool _Leftish,
; 1778 : 			_Valty&& _Val, _Nodety _Newnode)
; 1779 : 		{	// try to insert node, on left if _Leftish
; 1780 : 		_TRY_BEGIN
; 1781 : 		_Nodeptr _Trynode = _Root();
; 1782 : 		_Nodeptr _Wherenode = this->_Myhead;
; 1783 : 		bool _Addleft = true;	// add to left of head if tree empty
; 1784 : 
; 1785 : 		while (!this->_Isnil(_Trynode))
; 1786 : 			{	// look for leaf to insert before (_Addleft) or after
; 1787 : 			_Wherenode = _Trynode;
; 1788 : 			if (_Leftish)
; 1789 : 				_Addleft = !_DEBUG_LT_PRED(this->_Getcomp(),
; 1790 : 					this->_Key(_Trynode),
; 1791 : 					this->_Kfn(_Val));	// favor left end
; 1792 : 			else
; 1793 : 				_Addleft = _DEBUG_LT_PRED(this->_Getcomp(),
; 1794 : 					this->_Kfn(_Val),
; 1795 : 					this->_Key(_Trynode));	// favor right end
; 1796 : 			_Trynode = _Addleft ? this->_Left(_Trynode)
; 1797 : 				: this->_Right(_Trynode);
; 1798 : 			}
; 1799 : 
; 1800 : 		if (this->_Multi)
; 1801 : 			return (_Pairib(_Insert_at(_Addleft, _Wherenode,
; 1802 : 				_STD forward<_Valty>(_Val), _Newnode), true));
; 1803 : 		else
; 1804 : 			{	// insert only if unique
; 1805 : 			iterator _Where = iterator(_Wherenode, this);
; 1806 : 			if (!_Addleft)
; 1807 : 				;	// need to test if insert after is okay
; 1808 : 			else if (_Where == begin())
; 1809 : 				return (_Pairib(_Insert_at(true, _Wherenode,
; 1810 : 					_STD forward<_Valty>(_Val), _Newnode), true));
; 1811 : 			else
; 1812 : 				--_Where;	// need to test if insert before is okay
; 1813 : 
; 1814 : 			if (_DEBUG_LT_PRED(this->_Getcomp(),
; 1815 : 				this->_Key(_Where._Mynode()),
; 1816 : 				this->_Kfn(_Val)))
; 1817 : 				return (_Pairib(_Insert_at(_Addleft, _Wherenode,
; 1818 : 					_STD forward<_Valty>(_Val), _Newnode), true));
; 1819 : 			else
; 1820 : 				{	// duplicate, don't insert
; 1821 : 				_Destroy_if_not_nil(_Newnode);
; 1822 : 				return (_Pairib(_Where, false));
; 1823 : 				}
; 1824 : 			}
; 1825 : 		_CATCH_ALL
; 1826 : 		_Destroy_if_not_nil(_Newnode);
; 1827 : 		_RERAISE;
; 1828 : 		_CATCH_END
; 1829 : 		}
; 1830 : 
; 1831 : 	template<class _Valty,
; 1832 : 		class _Nodety>
; 1833 : 		iterator _Insert_at(bool _Addleft, _Nodeptr _Wherenode,
; 1834 : 		_Valty&& _Val, _Nodety _Node)
; 1835 : 		{	// add node with value next to _Wherenode, to left if _Addleft
; 1836 : 		if (max_size() - 1 <= this->_Mysize)
; 1837 : 			{	// tree would get too big, fail
; 1838 : 			_Destroy_if_not_nil(_Node);
; 1839 : 			_Xlength_error("map/set<T> too long");
; 1840 : 			}
; 1841 : 		_Nodeptr _Newnode = _Buynode_if_nil(_Node,
; 1842 : 			_STD forward<_Valty>(_Val));
; 1843 : 
; 1844 : 		++this->_Mysize;
; 1845 : 		_Newnode->_Parent = _Wherenode;
; 1846 : 
; 1847 : 		if (_Wherenode == this->_Myhead)
; 1848 : 			{	// first node in tree, just set head values
; 1849 : 			_Root() = _Newnode;
; 1850 : 			_Lmost() = _Newnode;
; 1851 : 			_Rmost() = _Newnode;
; 1852 : 			}
; 1853 : 		else if (_Addleft)
; 1854 : 			{	// add to left of _Wherenode
; 1855 : 			this->_Left(_Wherenode) = _Newnode;
; 1856 : 			if (_Wherenode == _Lmost())
; 1857 : 				_Lmost() = _Newnode;
; 1858 : 			}
; 1859 : 		else
; 1860 : 			{	// add to right of _Wherenode
; 1861 : 			this->_Right(_Wherenode) = _Newnode;
; 1862 : 			if (_Wherenode == _Rmost())
; 1863 : 				_Rmost() = _Newnode;
; 1864 : 			}
; 1865 : 
; 1866 : 		for (_Nodeptr _Pnode = _Newnode;
; 1867 : 			this->_Color(this->_Parent(_Pnode)) == this->_Red; )
; 1868 : 			if (this->_Parent(_Pnode)
; 1869 : 				== this->_Left(this->_Parent(this->_Parent(_Pnode))))
; 1870 : 				{	// fixup red-red in left subtree
; 1871 : 				_Wherenode =
; 1872 : 					this->_Right(this->_Parent(this->_Parent(_Pnode)));
; 1873 : 				if (this->_Color(_Wherenode) == this->_Red)
; 1874 : 					{	// parent has two red children, blacken both
; 1875 : 					this->_Color(this->_Parent(_Pnode)) = this->_Black;
; 1876 : 					this->_Color(_Wherenode) = this->_Black;
; 1877 : 					this->_Color(this->_Parent(this->_Parent(_Pnode)))
; 1878 : 						= this->_Red;
; 1879 : 					_Pnode = this->_Parent(this->_Parent(_Pnode));
; 1880 : 					}
; 1881 : 				else
; 1882 : 					{	// parent has red and black children
; 1883 : 					if (_Pnode == this->_Right(this->_Parent(_Pnode)))
; 1884 : 						{	// rotate right child to left
; 1885 : 						_Pnode = this->_Parent(_Pnode);
; 1886 : 						_Lrotate(_Pnode);
; 1887 : 						}
; 1888 : 					this->_Color(this->_Parent(_Pnode)) =
; 1889 : 						this->_Black;	// propagate red up
; 1890 : 					this->_Color(this->_Parent(this->_Parent(_Pnode))) =
; 1891 : 						this->_Red;
; 1892 : 					_Rrotate(this->_Parent(this->_Parent(_Pnode)));
; 1893 : 					}
; 1894 : 				}
; 1895 : 			else
; 1896 : 				{	// fixup red-red in right subtree
; 1897 : 				_Wherenode =
; 1898 : 					this->_Left(this->_Parent(this->_Parent(_Pnode)));
; 1899 : 				if (this->_Color(_Wherenode) == this->_Red)
; 1900 : 					{	// parent has two red children, blacken both
; 1901 : 					this->_Color(this->_Parent(_Pnode)) = this->_Black;
; 1902 : 					this->_Color(_Wherenode) = this->_Black;
; 1903 : 					this->_Color(this->_Parent(this->_Parent(_Pnode))) =
; 1904 : 						this->_Red;
; 1905 : 					_Pnode = this->_Parent(this->_Parent(_Pnode));
; 1906 : 					}
; 1907 : 				else
; 1908 : 					{	// parent has red and black children
; 1909 : 					if (_Pnode == this->_Left(this->_Parent(_Pnode)))
; 1910 : 						{	// rotate left child to right
; 1911 : 						_Pnode = this->_Parent(_Pnode);
; 1912 : 						_Rrotate(_Pnode);
; 1913 : 						}
; 1914 : 					this->_Color(this->_Parent(_Pnode)) =
; 1915 : 						this->_Black;	// propagate red up
; 1916 : 					this->_Color(this->_Parent(this->_Parent(_Pnode))) =
; 1917 : 						this->_Red;
; 1918 : 					_Lrotate(this->_Parent(this->_Parent(_Pnode)));
; 1919 : 					}
; 1920 : 				}
; 1921 : 
; 1922 : 		this->_Color(_Root()) = this->_Black;	// root is always black
; 1923 : 		return (iterator(_Newnode, this));
; 1924 : 		}
; 1925 : 
; 1926 : 	template<class _Moveit>
; 1927 : 		void _Copy(const _Myt& _Right,
; 1928 : 			_Moveit _Movefl)
; 1929 : 		{	// copy or move entire tree from _Right
; 1930 : 		_Root() = _Copy_nodes(_Right._Root(), this->_Myhead, _Movefl);
; 1931 : 		this->_Mysize = _Right.size();
; 1932 : 		if (!this->_Isnil(_Root()))
; 1933 : 			{	// nonempty tree, look for new smallest and largest
; 1934 : 			_Lmost() = this->_Min(_Root());
; 1935 : 			_Rmost() = this->_Max(_Root());
; 1936 : 			}
; 1937 : 		else
; 1938 : 			{	// empty tree, just tidy head pointers
; 1939 : 			_Lmost() = this->_Myhead;
; 1940 : 			_Rmost() = this->_Myhead;
; 1941 : 			}
; 1942 : 		}
; 1943 : 
; 1944 : 	template<class _Want_to_move,
; 1945 : 		class _Can_move,
; 1946 : 		class _Is_set,
; 1947 : 		class _Dummy>
; 1948 : 		_Nodeptr _Copy_or_move(_Nodeptr _Rootnode, _Want_to_move,
; 1949 : 			_Can_move, _Is_set, _Dummy)
; 1950 : 		{	// copy to new node -- nonmovable
; 1951 : 		return (this->_Buynode(this->_Myval(_Rootnode)));
; 1952 : 		}
; 1953 : 
; 1954 : 	template<class _Dummy>
; 1955 : 		_Nodeptr _Copy_or_move(_Nodeptr _Rootnode, true_type,
; 1956 : 			true_type, true_type, _Dummy)
; 1957 : 		{	// move to new node -- movable, set
; 1958 : 		return (this->_Buynode(
; 1959 : 			_STD forward<value_type>(this->_Myval(_Rootnode))));
; 1960 : 		}
; 1961 : 
; 1962 : 	template<class _Dummy>
; 1963 : 		_Nodeptr _Copy_or_move(_Nodeptr _Rootnode, true_type,
; 1964 : 			true_type, false_type, _Dummy)
; 1965 : 		{	// move to new node -- movable, map
; 1966 : 		return (this->_Buynode(
; 1967 : 			_STD forward<key_type>(const_cast<key_type&>(
; 1968 : 				this->_Myval(_Rootnode).first)),
; 1969 : 			_STD forward<typename value_type::second_type>(this->_Myval(
; 1970 : 				_Rootnode).second)));
; 1971 : 		}
; 1972 : 
; 1973 : 	template<class _Moveit>
; 1974 : 		_Nodeptr _Copy_nodes(_Nodeptr _Rootnode, _Nodeptr _Wherenode,
; 1975 : 			_Moveit _Movefl)
; 1976 : 		{	// copy entire subtree, recursively
; 1977 : 		_Nodeptr _Newroot = this->_Myhead;	// point at nil node
; 1978 : 
; 1979 : 		if (!this->_Isnil(_Rootnode))
; 1980 : 			{	// copy or move a node, then any subtrees
; 1981 : 			_Nodeptr _Pnode = _Copy_or_move(_Rootnode, _Movefl,
; 1982 : 				typename is_move_constructible<value_type>::type(),
; 1983 : 				typename is_same<key_type, value_type>::type(), 0);
; 1984 : 			_Pnode->_Parent = _Wherenode;
; 1985 : 			_Pnode->_Color = this->_Color(_Rootnode);
; 1986 : 			if (this->_Isnil(_Newroot))
; 1987 : 				_Newroot = _Pnode;	// memorize new root
; 1988 : 
; 1989 : 			_TRY_BEGIN
; 1990 : 			this->_Left(_Pnode) =
; 1991 : 				_Copy_nodes(this->_Left(_Rootnode), _Pnode, _Movefl);
; 1992 : 			this->_Right(_Pnode) =
; 1993 : 				_Copy_nodes(this->_Right(_Rootnode), _Pnode, _Movefl);
; 1994 : 			_CATCH_ALL
; 1995 : 			_Erase(_Newroot);	// subtree copy failed, bail out
; 1996 : 			_RERAISE;
; 1997 : 			_CATCH_END
; 1998 : 			}
; 1999 : 
; 2000 : 		return (_Newroot);	// return newly constructed tree
; 2001 : 		}
; 2002 : 
; 2003 : 	_Paircc _Eqrange(const key_type& _Keyval) const
; 2004 : 		{	// find leftmost node not less than _Keyval
; 2005 : 		_Nodeptr _Pnode = _Root();
; 2006 : 		_Nodeptr _Lonode = this->_Myhead;	// end() if search fails
; 2007 : 		_Nodeptr _Hinode = this->_Myhead;	// end() if search fails
; 2008 : 
; 2009 : 		while (!this->_Isnil(_Pnode))
; 2010 : 			if (_DEBUG_LT_PRED(this->_Getcomp(), this->_Key(_Pnode), _Keyval))
; 2011 : 				_Pnode = this->_Right(_Pnode);	// descend right subtree
; 2012 : 			else
; 2013 : 				{	// _Pnode not less than _Keyval, remember it
; 2014 : 				if (this->_Isnil(_Hinode)
; 2015 : 						&& _DEBUG_LT_PRED(this->_Getcomp(), _Keyval,
; 2016 : 						this->_Key(_Pnode)))
; 2017 : 					_Hinode = _Pnode;	// _Pnode greater, remember it
; 2018 : 				_Lonode = _Pnode;
; 2019 : 				_Pnode = this->_Left(_Pnode);	// descend left subtree
; 2020 : 				}
; 2021 : 
; 2022 : 		_Pnode = this->_Isnil(_Hinode) ? _Root()
; 2023 : 			: this->_Left(_Hinode);	// continue scan for upper bound
; 2024 : 		while (!this->_Isnil(_Pnode))
; 2025 : 			if (_DEBUG_LT_PRED(this->_Getcomp(), _Keyval, this->_Key(_Pnode)))
; 2026 : 				{	// _Pnode greater than _Keyval, remember it
; 2027 : 				_Hinode = _Pnode;
; 2028 : 				_Pnode = this->_Left(_Pnode);	// descend left subtree
; 2029 : 				}
; 2030 : 			else
; 2031 : 				_Pnode = this->_Right(_Pnode);	// descend right subtree
; 2032 : 
; 2033 : 		const_iterator _First = const_iterator(_Lonode, this);
; 2034 : 		const_iterator _Last = const_iterator(_Hinode, this);
; 2035 : 		return (_Paircc(_First, _Last));
; 2036 : 		}
; 2037 : 
; 2038 : 	_Pairii _Eqrange(const key_type& _Keyval)
; 2039 : 		{	// find leftmost node not less than _Keyval
; 2040 : 		_Nodeptr _Pnode = _Root();
; 2041 : 		_Nodeptr _Lonode = this->_Myhead;	// end() if search fails
; 2042 : 		_Nodeptr _Hinode = this->_Myhead;	// end() if search fails
; 2043 : 
; 2044 : 		while (!this->_Isnil(_Pnode))
; 2045 : 			if (_DEBUG_LT_PRED(this->_Getcomp(), this->_Key(_Pnode), _Keyval))
; 2046 : 				_Pnode = this->_Right(_Pnode);	// descend right subtree
; 2047 : 			else
; 2048 : 				{	// _Pnode not less than _Keyval, remember it
; 2049 : 				if (this->_Isnil(_Hinode)
; 2050 : 						&& _DEBUG_LT_PRED(this->_Getcomp(), _Keyval,
; 2051 : 						 this->_Key(_Pnode)))
; 2052 : 					_Hinode = _Pnode;	// _Pnode greater, remember it
; 2053 : 				_Lonode = _Pnode;
; 2054 : 				_Pnode = this->_Left(_Pnode);	// descend left subtree
; 2055 : 				}
; 2056 : 
; 2057 : 		_Pnode = this->_Isnil(_Hinode) ? _Root()
; 2058 : 			: this->_Left(_Hinode);	// continue scan for upper bound
; 2059 : 		while (!this->_Isnil(_Pnode))
; 2060 : 			if (_DEBUG_LT_PRED(this->_Getcomp(), _Keyval, this->_Key(_Pnode)))
; 2061 : 				{	// _Pnode greater than _Keyval, remember it
; 2062 : 				_Hinode = _Pnode;
; 2063 : 				_Pnode = this->_Left(_Pnode);	// descend left subtree
; 2064 : 				}
; 2065 : 			else
; 2066 : 				_Pnode = this->_Right(_Pnode);	// descend right subtree
; 2067 : 
; 2068 : 		iterator _First = iterator(_Lonode, this);
; 2069 : 		iterator _Last = iterator(_Hinode, this);
; 2070 : 		return (_Pairii(_First, _Last));
; 2071 : 		}
; 2072 : 
; 2073 : 	void _Erase(_Nodeptr _Rootnode)
; 2074 : 		{	// free entire subtree, recursively
; 2075 : 		for (_Nodeptr _Pnode = _Rootnode;
; 2076 : 			!this->_Isnil(_Pnode); _Rootnode = _Pnode)
; 2077 : 			{	// free subtrees, then node
; 2078 : 			_Erase(this->_Right(_Pnode));
; 2079 : 			_Pnode = this->_Left(_Pnode);
; 2080 : 			this->_Getal().destroy(
; 2081 : 				_STD addressof(this->_Myval(_Rootnode)));
; 2082 : 
; 2083 : 			this->_Getal().deallocate(_Rootnode, 1);
; 2084 : 			}
; 2085 : 		}
; 2086 : 
; 2087 : 	_Nodeptr _Lbound(const key_type& _Keyval) const
; 2088 : 		{	// find leftmost node not less than _Keyval
; 2089 : 		_Nodeptr _Pnode = _Root();
; 2090 : 		_Nodeptr _Wherenode = this->_Myhead;	// end() if search fails
; 2091 : 
; 2092 : 		while (!this->_Isnil(_Pnode))
; 2093 : 			if (_DEBUG_LT_PRED(this->_Getcomp(), this->_Key(_Pnode), _Keyval))
; 2094 : 				_Pnode = this->_Right(_Pnode);	// descend right subtree
; 2095 : 			else
; 2096 : 				{	// _Pnode not less than _Keyval, remember it
; 2097 : 				_Wherenode = _Pnode;
; 2098 : 				_Pnode = this->_Left(_Pnode);	// descend left subtree
; 2099 : 				}
; 2100 : 
; 2101 : 		return (_Wherenode);	// return best remembered candidate
; 2102 : 		}
; 2103 : 
; 2104 : 	_Nodeptr _Lbound(const key_type& _Keyval)
; 2105 : 		{	// find leftmost node not less than _Keyval
; 2106 : 		_Nodeptr _Pnode = _Root();
; 2107 : 		_Nodeptr _Wherenode = this->_Myhead;	// end() if search fails

  0000f	8b f7		 mov	 esi, edi
  00011	8b 47 04	 mov	 eax, DWORD PTR [edi+4]

; 2109 : 		while (!this->_Isnil(_Pnode))

  00014	80 78 0d 00	 cmp	 BYTE PTR [eax+13], 0
  00018	75 1a		 jne	 SHORT $LN13@GetBlockCR
  0001a	8d 9b 00 00 00
	00		 npad	 6
$LL14@GetBlockCR:
; File c:\program files (x86)\microsoft visual studio 12.0\vc\include\xstddef

; 193  : 		return (_Left < _Right);

  00020	39 50 10	 cmp	 DWORD PTR [eax+16], edx
; File c:\program files (x86)\microsoft visual studio 12.0\vc\include\xtree

; 2110 : 			if (_DEBUG_LT_PRED(this->_Getcomp(), this->_Key(_Pnode), _Keyval))

  00023	73 05		 jae	 SHORT $LN12@GetBlockCR

; 2111 : 				_Pnode = this->_Right(_Pnode);	// descend right subtree

  00025	8b 40 08	 mov	 eax, DWORD PTR [eax+8]

; 2112 : 			else

  00028	eb 04		 jmp	 SHORT $LN11@GetBlockCR
$LN12@GetBlockCR:

; 2113 : 				{	// _Pnode not less than _Keyval, remember it
; 2114 : 				_Wherenode = _Pnode;

  0002a	8b f0		 mov	 esi, eax

; 2115 : 				_Pnode = this->_Left(_Pnode);	// descend left subtree

  0002c	8b 00		 mov	 eax, DWORD PTR [eax]
$LN11@GetBlockCR:

; 2109 : 		while (!this->_Isnil(_Pnode))

  0002e	80 78 0d 00	 cmp	 BYTE PTR [eax+13], 0
  00032	74 ec		 je	 SHORT $LL14@GetBlockCR
$LN13@GetBlockCR:

; 336  : 		return (this->_Ptr == _Right._Ptr);

  00034	3b f7		 cmp	 esi, edi

; 1553 : 					? end() : _Where);

  00036	74 08		 je	 SHORT $LN7@GetBlockCR
  00038	89 75 08	 mov	 DWORD PTR $T1[ebp], esi
; File c:\program files (x86)\microsoft visual studio 12.0\vc\include\xstddef

; 193  : 		return (_Left < _Right);

  0003b	3b 56 10	 cmp	 edx, DWORD PTR [esi+16]
; File c:\program files (x86)\microsoft visual studio 12.0\vc\include\xtree

; 1553 : 					? end() : _Where);

  0003e	73 03		 jae	 SHORT $LN98@GetBlockCR
$LN7@GetBlockCR:

; 44   : 		{	// construct with node pointer _Pnode

  00040	89 7d 08	 mov	 DWORD PTR $T2[ebp], edi
$LN98@GetBlockCR:

; 1553 : 					? end() : _Where);

  00043	8d 4d 08	 lea	 ecx, DWORD PTR $T2[ebp]

; 336  : 		return (this->_Ptr == _Right._Ptr);

  00046	8b c7		 mov	 eax, edi
; File d:\metin2\metin2\client_source_clean\client_source_clean\source\userinterface\markmanager.cpp

; 304  : 		sys_err("invalid idx %u", imgIdx);

  00048	52		 push	 edx
; File c:\program files (x86)\microsoft visual studio 12.0\vc\include\xtree

; 336  : 		return (this->_Ptr == _Right._Ptr);

  00049	3b 01		 cmp	 eax, DWORD PTR [ecx]
; File d:\metin2\metin2\client_source_clean\client_source_clean\source\userinterface\markmanager.cpp

; 302  : 	if (m_mapIdx_Image.end() == m_mapIdx_Image.find(imgIdx))

  0004b	75 17		 jne	 SHORT $LN2@GetBlockCR

; 304  : 		sys_err("invalid idx %u", imgIdx);

  0004d	68 00 00 00 00	 push	 OFFSET ??_C@_0P@PFBACHEK@invalid?5idx?5?$CFu?$AA@
  00052	e8 00 00 00 00	 call	 ?TraceError@@YAXPBDZZ	; TraceError
  00057	83 c4 08	 add	 esp, 8

; 305  : 		return false;

  0005a	32 c0		 xor	 al, al

; 312  : 
; 313  : 	return true;
; 314  : }

  0005c	5f		 pop	 edi
  0005d	5e		 pop	 esi
  0005e	5b		 pop	 ebx
  0005f	59		 pop	 ecx
  00060	5d		 pop	 ebp
  00061	c2 08 00	 ret	 8
$LN2@GetBlockCR:

; 306  : 	}
; 307  : 
; 308  : 	CGuildMarkImage * p = __GetImage(imgIdx);

  00064	8b cb		 mov	 ecx, ebx
  00066	e8 00 00 00 00	 call	 ?__GetImage@CGuildMarkManager@@AAEPAVCGuildMarkImage@@K@Z ; CGuildMarkManager::__GetImage

; 309  : 	
; 310  : 	if (p)

  0006b	85 c0		 test	 eax, eax
  0006d	74 0a		 je	 SHORT $LN1@GetBlockCR

; 311  : 		p->GetBlockCRCList(crcList);

  0006f	ff 75 0c	 push	 DWORD PTR _crcList$[ebp]
  00072	8b c8		 mov	 ecx, eax
  00074	e8 00 00 00 00	 call	 ?GetBlockCRCList@CGuildMarkImage@@QAEXPAK@Z ; CGuildMarkImage::GetBlockCRCList
$LN1@GetBlockCR:

; 312  : 
; 313  : 	return true;
; 314  : }

  00079	5f		 pop	 edi
  0007a	5e		 pop	 esi
  0007b	b0 01		 mov	 al, 1
  0007d	5b		 pop	 ebx
  0007e	59		 pop	 ecx
  0007f	5d		 pop	 ebp
  00080	c2 08 00	 ret	 8
?GetBlockCRCList@CGuildMarkManager@@QAE_NKPAK@Z ENDP	; CGuildMarkManager::GetBlockCRCList
_TEXT	ENDS
; Function compile flags: /Ogtp
; File d:\metin2\metin2\client_source_clean\client_source_clean\source\userinterface\markmanager.cpp
; File c:\program files (x86)\microsoft visual studio 12.0\vc\include\xtree
; File d:\metin2\metin2\client_source_clean\client_source_clean\source\userinterface\markmanager.cpp
; File c:\program files (x86)\microsoft visual studio 12.0\vc\include\xtree
; File d:\metin2\metin2\client_source_clean\client_source_clean\source\userinterface\markmanager.cpp
;	COMDAT ?LoadMarkImages@CGuildMarkManager@@QAEXXZ
_TEXT	SEGMENT
_isMarkExists$ = -12					; size = 5
__$ArrayPad$ = -4					; size = 4
?LoadMarkImages@CGuildMarkManager@@QAEXXZ PROC		; CGuildMarkManager::LoadMarkImages, COMDAT
; _this$ = ecx

; 106  : {

  00000	55		 push	 ebp
  00001	8b ec		 mov	 ebp, esp
  00003	83 ec 0c	 sub	 esp, 12			; 0000000cH
  00006	a1 00 00 00 00	 mov	 eax, DWORD PTR ___security_cookie
  0000b	33 c5		 xor	 eax, ebp
  0000d	89 45 fc	 mov	 DWORD PTR __$ArrayPad$[ebp], eax
  00010	53		 push	 ebx
  00011	8b d9		 mov	 ebx, ecx

; 107  : 	bool isMarkExists[MAX_IMAGE_COUNT];
; 108  : 	memset(isMarkExists, 0, sizeof(isMarkExists));

  00013	c7 45 f4 00 00
	00 00		 mov	 DWORD PTR _isMarkExists$[ebp], 0
  0001a	56		 push	 esi
  0001b	57		 push	 edi
  0001c	c6 45 f8 00	 mov	 BYTE PTR _isMarkExists$[ebp+4], 0
; File c:\program files (x86)\microsoft visual studio 12.0\vc\include\xtree

; 589  : 		return ((_Nodepref)_Pnode->_Left);

  00020	8b 7b 0c	 mov	 edi, DWORD PTR [ebx+12]

; 44   : 		{	// construct with node pointer _Pnode

  00023	8b 37		 mov	 esi, DWORD PTR [edi]

; 72   : 			}
; 73   : 		return (*this);
; 74   : 		}
; 75   : 
; 76   : 	_Myiter operator++(int)
; 77   : 		{	// postincrement
; 78   : 		_Myiter _Tmp = *this;
; 79   : 		++*this;
; 80   : 		return (_Tmp);
; 81   : 		}
; 82   : 
; 83   : 	_Myiter& operator--()
; 84   : 		{	// predecrement
; 85   : 		if (_Mytree::_Isnil(_Ptr))
; 86   : 			_Ptr = _Mytree::_Right(_Ptr);	// end() ==> rightmost
; 87   : 		else if (!_Mytree::_Isnil(_Mytree::_Left(_Ptr)))
; 88   : 			_Ptr = _Mytree::_Max(
; 89   : 				_Mytree::_Left(_Ptr));	// ==> largest of left subtree
; 90   : 		else
; 91   : 			{	// climb looking for left subtree
; 92   : 			_Nodeptr _Pnode;
; 93   : 			while (!_Mytree::_Isnil(_Pnode = _Mytree::_Parent(_Ptr))
; 94   : 				&& _Ptr == _Mytree::_Left(_Pnode))
; 95   : 				_Ptr = _Pnode;	// ==> parent while left subtree
; 96   : 			if (_Mytree::_Isnil(_Ptr))
; 97   : 				;	// begin() shouldn't be decremented, don't move
; 98   : 			else
; 99   : 				_Ptr = _Pnode;	// ==> parent if not head
; 100  : 			}
; 101  : 		return (*this);
; 102  : 		}
; 103  : 
; 104  : 	_Myiter operator--(int)
; 105  : 		{	// postdecrement
; 106  : 		_Myiter _Tmp = *this;
; 107  : 		--*this;
; 108  : 		return (_Tmp);
; 109  : 		}
; 110  : 
; 111  : 	bool operator==(const _Myiter& _Right) const
; 112  : 		{	// test for iterator equality
; 113  : 		return (_Ptr == _Right._Ptr);
; 114  : 		}
; 115  : 
; 116  : 	bool operator!=(const _Myiter& _Right) const
; 117  : 		{	// test for iterator inequality
; 118  : 		return (!(*this == _Right));
; 119  : 		}
; 120  : 
; 121  : 	_Nodeptr _Mynode() const
; 122  : 		{	// return node pointer
; 123  : 		return (_Ptr);
; 124  : 		}
; 125  : 
; 126  : 	_Nodeptr _Ptr;	// pointer to node
; 127  : 	};
; 128  : 
; 129  : 	// TEMPLATE CLASS _Tree_unchecked_iterator
; 130  : template<class _Mytree>
; 131  : 	class _Tree_unchecked_iterator
; 132  : 		: public _Tree_unchecked_const_iterator<_Mytree>
; 133  : 	{	// unchecked iterator for mutable tree
; 134  : public:
; 135  : 	typedef _Tree_unchecked_iterator<_Mytree> _Myiter;
; 136  : 	typedef _Tree_unchecked_const_iterator<_Mytree> _Mybase;
; 137  : 	typedef bidirectional_iterator_tag iterator_category;
; 138  : 
; 139  : 	typedef typename _Mytree::_Nodeptr _Nodeptr;
; 140  : 	typedef typename _Mytree::value_type value_type;
; 141  : 	typedef typename _Mytree::difference_type difference_type;
; 142  : 	typedef typename _Mytree::pointer pointer;
; 143  : 	typedef typename _Mytree::reference reference;
; 144  : 
; 145  : 	_Tree_unchecked_iterator()
; 146  : 		{	// construct with null node
; 147  : 		}
; 148  : 
; 149  : 	_Tree_unchecked_iterator(_Nodeptr _Pnode, const _Mytree *_Plist)
; 150  : 		: _Mybase(_Pnode, _Plist)
; 151  : 		{	// construct with node pointer _Pnode
; 152  : 		}
; 153  : 
; 154  : 	reference operator*() const
; 155  : 		{	// return designated value
; 156  : 		return ((reference)**(_Mybase *)this);
; 157  : 		}
; 158  : 
; 159  : 	pointer operator->() const
; 160  : 		{	// return pointer to class object
; 161  : 		return (_STD pointer_traits<pointer>::pointer_to(**this));
; 162  : 		}
; 163  : 
; 164  : 	_Myiter& operator++()
; 165  : 		{	// preincrement
; 166  : 		++(*(_Mybase *)this);
; 167  : 		return (*this);
; 168  : 		}
; 169  : 
; 170  : 	_Myiter operator++(int)
; 171  : 		{	// postincrement
; 172  : 		_Myiter _Tmp = *this;
; 173  : 		++*this;
; 174  : 		return (_Tmp);
; 175  : 		}
; 176  : 
; 177  : 	_Myiter& operator--()
; 178  : 		{	// predecrement
; 179  : 		--(*(_Mybase *)this);
; 180  : 		return (*this);
; 181  : 		}
; 182  : 
; 183  : 	_Myiter operator--(int)
; 184  : 		{	// postdecrement
; 185  : 		_Myiter _Tmp = *this;
; 186  : 		--*this;
; 187  : 		return (_Tmp);
; 188  : 		}
; 189  : 	};
; 190  : 
; 191  : 	// TEMPLATE CLASS _Tree_const_iterator
; 192  : template<class _Mytree>
; 193  : 	class _Tree_const_iterator
; 194  : 		: public _Tree_unchecked_const_iterator<_Mytree, _Iterator_base>
; 195  : 	{	// iterator for nonmutable tree
; 196  : public:
; 197  : 	typedef _Tree_const_iterator<_Mytree> _Myiter;
; 198  : 	typedef _Tree_unchecked_const_iterator<_Mytree, _Iterator_base> _Mybase;
; 199  : 	typedef bidirectional_iterator_tag iterator_category;
; 200  : 
; 201  : 	typedef typename _Mytree::_Nodeptr _Nodeptr;
; 202  : 	typedef typename _Mytree::value_type value_type;
; 203  : 	typedef typename _Mytree::difference_type difference_type;
; 204  : 	typedef typename _Mytree::const_pointer pointer;
; 205  : 	typedef typename _Mytree::const_reference reference;
; 206  : 
; 207  : 	_Tree_const_iterator()
; 208  : 		: _Mybase()
; 209  : 		{	// construct with null node pointer
; 210  : 		}
; 211  : 
; 212  : 	_Tree_const_iterator(_Nodeptr _Pnode, const _Mytree *_Plist)
; 213  : 		: _Mybase(_Pnode, _Plist)
; 214  : 		{	// construct with node pointer _Pnode
; 215  : 		}
; 216  : 
; 217  : 	typedef _Tree_unchecked_const_iterator<_Mytree> _Unchecked_type;
; 218  : 
; 219  : 	_Myiter& _Rechecked(_Unchecked_type _Right)
; 220  : 		{	// reset from unchecked iterator
; 221  : 		this->_Ptr = _Right._Ptr;
; 222  : 		return (*this);
; 223  : 		}
; 224  : 
; 225  : 	_Unchecked_type _Unchecked() const
; 226  : 		{	// make an unchecked iterator
; 227  : 		return (_Unchecked_type(this->_Ptr, (_Mytree *)this->_Getcont()));
; 228  : 		}
; 229  : 
; 230  : 	reference operator*() const
; 231  : 		{	// return designated value
; 232  :  #if _ITERATOR_DEBUG_LEVEL == 2
; 233  : 		if (this->_Getcont() == 0
; 234  : 			|| this->_Ptr == 0
; 235  : 			|| this->_Ptr == ((_Mytree *)this->_Getcont())->_Myhead)
; 236  : 			{	// report error
; 237  : 			_DEBUG_ERROR("map/set iterator not dereferencable");
; 238  : 			_SCL_SECURE_OUT_OF_RANGE;
; 239  : 			}
; 240  : 
; 241  :  #elif _ITERATOR_DEBUG_LEVEL == 1
; 242  : 		_SCL_SECURE_VALIDATE(this->_Getcont() != 0 && this->_Ptr != 0);
; 243  : 		_SCL_SECURE_VALIDATE_RANGE(this->_Ptr !=
; 244  : 			((_Mytree *)this->_Getcont())->_Myhead);
; 245  :  #endif /* _ITERATOR_DEBUG_LEVEL */
; 246  : 
; 247  : 		return (_Mytree::_Myval(this->_Ptr));
; 248  : 		}
; 249  : 
; 250  : 	pointer operator->() const
; 251  : 		{	// return pointer to class object
; 252  : 		return (_STD pointer_traits<pointer>::pointer_to(**this));
; 253  : 		}
; 254  : 
; 255  : 	_Myiter& operator++()
; 256  : 		{	// preincrement
; 257  :  #if _ITERATOR_DEBUG_LEVEL == 2
; 258  : 		if (this->_Getcont() == 0
; 259  : 			|| this->_Ptr == 0
; 260  : 			|| _Mytree::_Isnil(this->_Ptr))
; 261  : 			{	// report error
; 262  : 			_DEBUG_ERROR("map/set iterator not incrementable");
; 263  : 			_SCL_SECURE_OUT_OF_RANGE;
; 264  : 			}
; 265  : 
; 266  :  #elif _ITERATOR_DEBUG_LEVEL == 1
; 267  : 		_SCL_SECURE_VALIDATE(this->_Getcont() != 0 && this->_Ptr != 0);
; 268  : 		_SCL_SECURE_VALIDATE_RANGE(!_Mytree::_Isnil(this->_Ptr));
; 269  :  #endif /* _ITERATOR_DEBUG_LEVEL */
; 270  : 
; 271  : 		++(*(_Mybase *)this);
; 272  : 		return (*this);
; 273  : 		}
; 274  : 
; 275  : 	_Myiter operator++(int)
; 276  : 		{	// postincrement
; 277  : 		_Myiter _Tmp = *this;
; 278  : 		++*this;
; 279  : 		return (_Tmp);
; 280  : 		}
; 281  : 
; 282  : 	_Myiter& operator--()
; 283  : 		{	// predecrement
; 284  :  #if _ITERATOR_DEBUG_LEVEL == 2
; 285  : 		if (this->_Getcont() == 0
; 286  : 			|| this->_Ptr == 0)
; 287  : 			{	// report error
; 288  : 			_DEBUG_ERROR("map/set iterator not decrementable");
; 289  : 			_SCL_SECURE_OUT_OF_RANGE;
; 290  : 			}
; 291  : 
; 292  : 		_Nodeptr _Ptrsav = this->_Ptr;
; 293  : 		--(*(_Mybase *)this);
; 294  : 		if (_Ptrsav == this->_Ptr)
; 295  : 			{	// report error
; 296  : 			_DEBUG_ERROR("map/set iterator not decrementable");
; 297  : 			_SCL_SECURE_OUT_OF_RANGE;
; 298  : 			}
; 299  : 
; 300  :  #elif _ITERATOR_DEBUG_LEVEL == 1
; 301  : 		_SCL_SECURE_VALIDATE(this->_Getcont() != 0 && this->_Ptr != 0);
; 302  : 
; 303  : 		_Nodeptr _Ptrsav = this->_Ptr;
; 304  : 		--(*(_Mybase *)this);
; 305  : 		_SCL_SECURE_VALIDATE(_Ptrsav != this->_Ptr);
; 306  : 
; 307  :  #else /* _ITERATOR_DEBUG_LEVEL == 0 */
; 308  : 		--(*(_Mybase *)this);
; 309  :  #endif /* _ITERATOR_DEBUG_LEVEL */
; 310  : 
; 311  : 		return (*this);
; 312  : 		}
; 313  : 
; 314  : 	_Myiter operator--(int)
; 315  : 		{	// postdecrement
; 316  : 		_Myiter _Tmp = *this;
; 317  : 		--*this;
; 318  : 		return (_Tmp);
; 319  : 		}
; 320  : 
; 321  : 	bool operator==(const _Myiter& _Right) const
; 322  : 		{	// test for iterator equality
; 323  :  #if _ITERATOR_DEBUG_LEVEL == 2
; 324  : 		if (this->_Getcont() == 0
; 325  : 			|| this->_Getcont() != _Right._Getcont())
; 326  : 			{	// report error
; 327  : 			_DEBUG_ERROR("map/set iterators incompatible");
; 328  : 			_SCL_SECURE_INVALID_ARGUMENT;
; 329  : 			}
; 330  : 
; 331  :  #elif _ITERATOR_DEBUG_LEVEL == 1
; 332  : 		_SCL_SECURE_VALIDATE(this->_Getcont() != 0
; 333  : 			&& this->_Getcont() == _Right._Getcont());
; 334  :  #endif /* _ITERATOR_DEBUG_LEVEL */
; 335  : 
; 336  : 		return (this->_Ptr == _Right._Ptr);

  00025	3b f7		 cmp	 esi, edi
; File d:\metin2\metin2\client_source_clean\client_source_clean\source\userinterface\markmanager.cpp

; 110  : 	for (std::map<DWORD, DWORD>::iterator it = m_mapGID_MarkID.begin(); it != m_mapGID_MarkID.end(); ++it)

  00027	74 65		 je	 SHORT $LN6@LoadMarkIm
  00029	8d a4 24 00 00
	00 00		 npad	 7
$LL31@LoadMarkIm:

; 111  : 	{
; 112  : 		DWORD markID = it->second;

  00030	8b 4e 14	 mov	 ecx, DWORD PTR [esi+20]

; 113  : 
; 114  : 		if (markID < MAX_IMAGE_COUNT * CGuildMarkImage::MARK_TOTAL_COUNT)

  00033	81 f9 00 19 00
	00		 cmp	 ecx, 6400		; 00001900H
  00039	73 0f		 jae	 SHORT $LN7@LoadMarkIm

; 115  : 			isMarkExists[markID / CGuildMarkImage::MARK_TOTAL_COUNT] = true;

  0003b	b8 cd cc cc cc	 mov	 eax, -858993459		; cccccccdH
  00040	f7 e1		 mul	 ecx
  00042	c1 ea 0a	 shr	 edx, 10			; 0000000aH
  00045	c6 44 15 f4 01	 mov	 BYTE PTR _isMarkExists$[ebp+edx], 1
$LN7@LoadMarkIm:
; File c:\program files (x86)\microsoft visual studio 12.0\vc\include\xtree

; 60   : 		if (_Mytree::_Isnil(_Ptr))

  0004a	80 7e 0d 00	 cmp	 BYTE PTR [esi+13], 0
  0004e	75 3a		 jne	 SHORT $LN93@LoadMarkIm

; 337  : 		}
; 338  : 
; 339  : 	bool operator!=(const _Myiter& _Right) const
; 340  : 		{	// test for iterator inequality
; 341  : 		return (!(*this == _Right));
; 342  : 		}
; 343  : 	};
; 344  : 
; 345  : template<class _Mytree> inline
; 346  : 	typename _Tree_const_iterator<_Mytree>::_Unchecked_type
; 347  : 		_Unchecked(_Tree_const_iterator<_Mytree> _Iter)
; 348  : 	{	// convert to unchecked
; 349  : 	return (_Iter._Unchecked());
; 350  : 	}
; 351  : 
; 352  : template<class _Mytree> inline
; 353  : 	_Tree_const_iterator<_Mytree>&
; 354  : 		_Rechecked(_Tree_const_iterator<_Mytree>& _Iter,
; 355  : 			typename _Tree_const_iterator<_Mytree>
; 356  : 				::_Unchecked_type _Right)
; 357  : 	{	// convert to checked
; 358  : 	return (_Iter._Rechecked(_Right));
; 359  : 	}
; 360  : 
; 361  : 	// TEMPLATE CLASS _Tree_iterator
; 362  : template<class _Mytree>
; 363  : 	class _Tree_iterator
; 364  : 		: public _Tree_const_iterator<_Mytree>
; 365  : 	{	// iterator for mutable tree
; 366  : public:
; 367  : 	typedef _Tree_iterator<_Mytree> _Myiter;
; 368  : 	typedef _Tree_const_iterator<_Mytree> _Mybase;
; 369  : 	typedef bidirectional_iterator_tag iterator_category;
; 370  : 
; 371  : 	typedef typename _Mytree::_Nodeptr _Nodeptr;
; 372  : 	typedef typename _Mytree::value_type value_type;
; 373  : 	typedef typename _Mytree::difference_type difference_type;
; 374  : 
; 375  : 	typedef typename _Mytree::pointer pointer;
; 376  : 	typedef typename _Mytree::reference reference;
; 377  : 
; 378  : 	_Tree_iterator()
; 379  : 		{	// construct with null node
; 380  : 		}
; 381  : 
; 382  : 	_Tree_iterator(_Nodeptr _Pnode, const _Mytree *_Plist)
; 383  : 		: _Mybase(_Pnode, _Plist)
; 384  : 		{	// construct with node pointer _Pnode
; 385  : 		}
; 386  : 
; 387  : 	typedef _Tree_unchecked_iterator<_Mytree> _Unchecked_type;
; 388  : 
; 389  : 	_Myiter& _Rechecked(_Unchecked_type _Right)
; 390  : 		{	// reset from unchecked iterator
; 391  : 		this->_Ptr = _Right._Ptr;
; 392  : 		return (*this);
; 393  : 		}
; 394  : 
; 395  : 	_Unchecked_type _Unchecked() const
; 396  : 		{	// make an unchecked iterator
; 397  : 		return (_Unchecked_type(this->_Ptr, (_Mytree *)this->_Getcont()));
; 398  : 		}
; 399  : 
; 400  : 	reference operator*() const
; 401  : 		{	// return designated value
; 402  : 		return ((reference)**(_Mybase *)this);
; 403  : 		}
; 404  : 
; 405  : 	pointer operator->() const
; 406  : 		{	// return pointer to class object
; 407  : 		return (_STD pointer_traits<pointer>::pointer_to(**this));
; 408  : 		}
; 409  : 
; 410  : 	_Myiter& operator++()
; 411  : 		{	// preincrement
; 412  : 		++(*(_Mybase *)this);
; 413  : 		return (*this);
; 414  : 		}
; 415  : 
; 416  : 	_Myiter operator++(int)
; 417  : 		{	// postincrement
; 418  : 		_Myiter _Tmp = *this;
; 419  : 		++*this;
; 420  : 		return (_Tmp);
; 421  : 		}
; 422  : 
; 423  : 	_Myiter& operator--()
; 424  : 		{	// predecrement
; 425  : 		--(*(_Mybase *)this);
; 426  : 		return (*this);
; 427  : 		}
; 428  : 
; 429  : 	_Myiter operator--(int)
; 430  : 		{	// postdecrement
; 431  : 		_Myiter _Tmp = *this;
; 432  : 		--*this;
; 433  : 		return (_Tmp);
; 434  : 		}
; 435  : 	};
; 436  : 
; 437  : template<class _Mytree> inline
; 438  : 	typename _Tree_iterator<_Mytree>::_Unchecked_type
; 439  : 		_Unchecked(_Tree_iterator<_Mytree> _Iter)
; 440  : 	{	// convert to unchecked
; 441  : 	return (_Iter._Unchecked());
; 442  : 	}
; 443  : 
; 444  : template<class _Mytree> inline
; 445  : 	_Tree_iterator<_Mytree>&
; 446  : 		_Rechecked(_Tree_iterator<_Mytree>& _Iter,
; 447  : 			typename _Tree_iterator<_Mytree>
; 448  : 				::_Unchecked_type _Right)
; 449  : 	{	// convert to checked
; 450  : 	return (_Iter._Rechecked(_Right));
; 451  : 	}
; 452  : 
; 453  : 		// tree TYPE WRAPPERS
; 454  : template<class _Value_type,
; 455  : 	class _Size_type,
; 456  : 	class _Difference_type,
; 457  : 	class _Pointer,
; 458  : 	class _Const_pointer,
; 459  : 	class _Reference,
; 460  : 	class _Const_reference,
; 461  : 	class _Nodeptr_type>
; 462  : 	struct _Tree_iter_types
; 463  : 	{	// wraps types needed by iterators
; 464  : 	typedef _Value_type value_type;
; 465  : 	typedef _Size_type size_type;
; 466  : 	typedef _Difference_type difference_type;
; 467  : 	typedef _Pointer pointer;
; 468  : 	typedef _Const_pointer const_pointer;
; 469  : 	typedef _Reference reference;
; 470  : 	typedef _Const_reference const_reference;
; 471  : 	typedef _Nodeptr_type _Nodeptr;
; 472  : 	};
; 473  : 
; 474  : template<class _Value_type,
; 475  : 	class _Voidptr>
; 476  : 	struct _Tree_node
; 477  : 		{	// tree node
; 478  : 		_Voidptr _Left;	// left subtree, or smallest element if head
; 479  : 		_Voidptr _Parent;	// parent, or root of tree if head
; 480  : 		_Voidptr _Right;	// right subtree, or largest element if head
; 481  : 		char _Color;	// _Red or _Black, _Black if head
; 482  : 		char _Isnil;	// true only if head (also nil) node
; 483  : 		_Value_type _Myval;	// the stored value, unused if head
; 484  : 
; 485  : 	private:
; 486  : 		_Tree_node& operator=(const _Tree_node&);
; 487  : 		};
; 488  : 
; 489  : template<class _Value_type>
; 490  : 	struct _Tree_node<_Value_type, void *>
; 491  : 		{	// tree node
; 492  : 		typedef _Tree_node<_Value_type, void *> *_Nodeptr;
; 493  : 		_Nodeptr _Left;	// left subtree, or smallest element if head
; 494  : 		_Nodeptr _Parent;	// parent, or root of tree if head
; 495  : 		_Nodeptr _Right;	// right subtree, or largest element if head
; 496  : 		char _Color;	// _Red or _Black, _Black if head
; 497  : 		char _Isnil;	// true only if head (also nil) node
; 498  : 		_Value_type _Myval;	// the stored value, unused if head
; 499  : 
; 500  : 	private:
; 501  : 		_Tree_node& operator=(const _Tree_node&);
; 502  : 		};
; 503  : 
; 504  : template<class _Ty>
; 505  : 	struct _Tree_simple_types
; 506  : 		: public _Simple_types<_Ty>
; 507  : 	{	// wraps types needed by iterators
; 508  : 	typedef _Tree_node<_Ty, void *> _Node;
; 509  : 	typedef _Node *_Nodeptr;
; 510  : 	};
; 511  : 
; 512  : template<class _Ty,
; 513  : 	class _Alloc0>
; 514  : 	struct _Tree_base_types
; 515  : 	{	// types needed for a container base
; 516  : 	typedef _Alloc0 _Alloc;
; 517  : 	typedef _Tree_base_types<_Ty, _Alloc> _Myt;
; 518  : 
; 519  : 	typedef _Wrap_alloc<_Alloc> _Alty0;
; 520  : 	typedef typename _Alty0::template rebind<_Ty>::other _Alty;
; 521  : 
; 522  : 
; 523  : 	typedef typename _Get_voidptr<_Alty, typename _Alty::pointer>::type
; 524  : 		_Voidptr;
; 525  : 	typedef _Tree_node<typename _Alty::value_type,
; 526  : 		_Voidptr> _Node;
; 527  : 
; 528  : 	typedef typename _Alty::template rebind<_Node>::other _Alnod_type;
; 529  : 	typedef typename _Alnod_type::pointer _Nodeptr;
; 530  : 	typedef _Nodeptr& _Nodepref;
; 531  : 
; 532  : 	typedef typename _If<_Is_simple_alloc<_Alty>::value,
; 533  : 		_Tree_simple_types<typename _Alty::value_type>,
; 534  : 		_Tree_iter_types<typename _Alty::value_type,
; 535  : 			typename _Alty::size_type,
; 536  : 			typename _Alty::difference_type,
; 537  : 			typename _Alty::pointer,
; 538  : 			typename _Alty::const_pointer,
; 539  : 			typename _Alty::reference,
; 540  : 			typename _Alty::const_reference,
; 541  : 			_Nodeptr> >::type
; 542  : 		_Val_types;
; 543  : 	};
; 544  : 
; 545  : 		// TEMPLATE CLASS _Tree_val
; 546  : template<class _Val_types>
; 547  : 	class _Tree_val
; 548  : 		: public _Container_base
; 549  : 	{	// base class for tree to hold data
; 550  : public:
; 551  : 	typedef _Tree_val<_Val_types> _Myt;
; 552  : 
; 553  : 	typedef typename _Val_types::_Nodeptr _Nodeptr;
; 554  : 	typedef _Nodeptr& _Nodepref;
; 555  : 
; 556  : 	typedef typename _Val_types::value_type value_type;
; 557  : 	typedef typename _Val_types::size_type size_type;
; 558  : 	typedef typename _Val_types::difference_type difference_type;
; 559  : 	typedef typename _Val_types::pointer pointer;
; 560  : 	typedef typename _Val_types::const_pointer const_pointer;
; 561  : 	typedef typename _Val_types::reference reference;
; 562  : 	typedef typename _Val_types::const_reference const_reference;
; 563  : 
; 564  : 	typedef _Tree_const_iterator<_Myt> const_iterator;
; 565  : 	typedef _Tree_iterator<_Myt> iterator;
; 566  : 
; 567  : 	_Tree_val()
; 568  : 		{	// initialize data
; 569  : 		this->_Myhead = 0;
; 570  : 		this->_Mysize = 0;
; 571  : 		}
; 572  : 
; 573  : 	enum _Redbl
; 574  : 		{	// colors for link to parent
; 575  : 		_Red, _Black};
; 576  : 
; 577  : 	static char& _Color(_Nodeptr _Pnode)
; 578  : 		{	// return reference to color in node
; 579  : 		return ((char&)_Pnode->_Color);
; 580  : 		}
; 581  : 
; 582  : 	static char& _Isnil(_Nodeptr _Pnode)
; 583  : 		{	// return reference to nil flag in node
; 584  : 		return ((char&)_Pnode->_Isnil);

  00050	8b 46 08	 mov	 eax, DWORD PTR [esi+8]

; 61   : 			;	// end() shouldn't be incremented, don't move
; 62   : 		else if (!_Mytree::_Isnil(_Mytree::_Right(_Ptr)))

  00053	80 78 0d 00	 cmp	 BYTE PTR [eax+13], 0
  00057	75 16		 jne	 SHORT $LN89@LoadMarkIm

; 63   : 			_Ptr = _Mytree::_Min(
; 64   : 				_Mytree::_Right(_Ptr));	// ==> smallest of right subtree

  00059	8b f0		 mov	 esi, eax

; 337  : 		}
; 338  : 
; 339  : 	bool operator!=(const _Myiter& _Right) const
; 340  : 		{	// test for iterator inequality
; 341  : 		return (!(*this == _Right));
; 342  : 		}
; 343  : 	};
; 344  : 
; 345  : template<class _Mytree> inline
; 346  : 	typename _Tree_const_iterator<_Mytree>::_Unchecked_type
; 347  : 		_Unchecked(_Tree_const_iterator<_Mytree> _Iter)
; 348  : 	{	// convert to unchecked
; 349  : 	return (_Iter._Unchecked());
; 350  : 	}
; 351  : 
; 352  : template<class _Mytree> inline
; 353  : 	_Tree_const_iterator<_Mytree>&
; 354  : 		_Rechecked(_Tree_const_iterator<_Mytree>& _Iter,
; 355  : 			typename _Tree_const_iterator<_Mytree>
; 356  : 				::_Unchecked_type _Right)
; 357  : 	{	// convert to checked
; 358  : 	return (_Iter._Rechecked(_Right));
; 359  : 	}
; 360  : 
; 361  : 	// TEMPLATE CLASS _Tree_iterator
; 362  : template<class _Mytree>
; 363  : 	class _Tree_iterator
; 364  : 		: public _Tree_const_iterator<_Mytree>
; 365  : 	{	// iterator for mutable tree
; 366  : public:
; 367  : 	typedef _Tree_iterator<_Mytree> _Myiter;
; 368  : 	typedef _Tree_const_iterator<_Mytree> _Mybase;
; 369  : 	typedef bidirectional_iterator_tag iterator_category;
; 370  : 
; 371  : 	typedef typename _Mytree::_Nodeptr _Nodeptr;
; 372  : 	typedef typename _Mytree::value_type value_type;
; 373  : 	typedef typename _Mytree::difference_type difference_type;
; 374  : 
; 375  : 	typedef typename _Mytree::pointer pointer;
; 376  : 	typedef typename _Mytree::reference reference;
; 377  : 
; 378  : 	_Tree_iterator()
; 379  : 		{	// construct with null node
; 380  : 		}
; 381  : 
; 382  : 	_Tree_iterator(_Nodeptr _Pnode, const _Mytree *_Plist)
; 383  : 		: _Mybase(_Pnode, _Plist)
; 384  : 		{	// construct with node pointer _Pnode
; 385  : 		}
; 386  : 
; 387  : 	typedef _Tree_unchecked_iterator<_Mytree> _Unchecked_type;
; 388  : 
; 389  : 	_Myiter& _Rechecked(_Unchecked_type _Right)
; 390  : 		{	// reset from unchecked iterator
; 391  : 		this->_Ptr = _Right._Ptr;
; 392  : 		return (*this);
; 393  : 		}
; 394  : 
; 395  : 	_Unchecked_type _Unchecked() const
; 396  : 		{	// make an unchecked iterator
; 397  : 		return (_Unchecked_type(this->_Ptr, (_Mytree *)this->_Getcont()));
; 398  : 		}
; 399  : 
; 400  : 	reference operator*() const
; 401  : 		{	// return designated value
; 402  : 		return ((reference)**(_Mybase *)this);
; 403  : 		}
; 404  : 
; 405  : 	pointer operator->() const
; 406  : 		{	// return pointer to class object
; 407  : 		return (_STD pointer_traits<pointer>::pointer_to(**this));
; 408  : 		}
; 409  : 
; 410  : 	_Myiter& operator++()
; 411  : 		{	// preincrement
; 412  : 		++(*(_Mybase *)this);
; 413  : 		return (*this);
; 414  : 		}
; 415  : 
; 416  : 	_Myiter operator++(int)
; 417  : 		{	// postincrement
; 418  : 		_Myiter _Tmp = *this;
; 419  : 		++*this;
; 420  : 		return (_Tmp);
; 421  : 		}
; 422  : 
; 423  : 	_Myiter& operator--()
; 424  : 		{	// predecrement
; 425  : 		--(*(_Mybase *)this);
; 426  : 		return (*this);
; 427  : 		}
; 428  : 
; 429  : 	_Myiter operator--(int)
; 430  : 		{	// postdecrement
; 431  : 		_Myiter _Tmp = *this;
; 432  : 		--*this;
; 433  : 		return (_Tmp);
; 434  : 		}
; 435  : 	};
; 436  : 
; 437  : template<class _Mytree> inline
; 438  : 	typename _Tree_iterator<_Mytree>::_Unchecked_type
; 439  : 		_Unchecked(_Tree_iterator<_Mytree> _Iter)
; 440  : 	{	// convert to unchecked
; 441  : 	return (_Iter._Unchecked());
; 442  : 	}
; 443  : 
; 444  : template<class _Mytree> inline
; 445  : 	_Tree_iterator<_Mytree>&
; 446  : 		_Rechecked(_Tree_iterator<_Mytree>& _Iter,
; 447  : 			typename _Tree_iterator<_Mytree>
; 448  : 				::_Unchecked_type _Right)
; 449  : 	{	// convert to checked
; 450  : 	return (_Iter._Rechecked(_Right));
; 451  : 	}
; 452  : 
; 453  : 		// tree TYPE WRAPPERS
; 454  : template<class _Value_type,
; 455  : 	class _Size_type,
; 456  : 	class _Difference_type,
; 457  : 	class _Pointer,
; 458  : 	class _Const_pointer,
; 459  : 	class _Reference,
; 460  : 	class _Const_reference,
; 461  : 	class _Nodeptr_type>
; 462  : 	struct _Tree_iter_types
; 463  : 	{	// wraps types needed by iterators
; 464  : 	typedef _Value_type value_type;
; 465  : 	typedef _Size_type size_type;
; 466  : 	typedef _Difference_type difference_type;
; 467  : 	typedef _Pointer pointer;
; 468  : 	typedef _Const_pointer const_pointer;
; 469  : 	typedef _Reference reference;
; 470  : 	typedef _Const_reference const_reference;
; 471  : 	typedef _Nodeptr_type _Nodeptr;
; 472  : 	};
; 473  : 
; 474  : template<class _Value_type,
; 475  : 	class _Voidptr>
; 476  : 	struct _Tree_node
; 477  : 		{	// tree node
; 478  : 		_Voidptr _Left;	// left subtree, or smallest element if head
; 479  : 		_Voidptr _Parent;	// parent, or root of tree if head
; 480  : 		_Voidptr _Right;	// right subtree, or largest element if head
; 481  : 		char _Color;	// _Red or _Black, _Black if head
; 482  : 		char _Isnil;	// true only if head (also nil) node
; 483  : 		_Value_type _Myval;	// the stored value, unused if head
; 484  : 
; 485  : 	private:
; 486  : 		_Tree_node& operator=(const _Tree_node&);
; 487  : 		};
; 488  : 
; 489  : template<class _Value_type>
; 490  : 	struct _Tree_node<_Value_type, void *>
; 491  : 		{	// tree node
; 492  : 		typedef _Tree_node<_Value_type, void *> *_Nodeptr;
; 493  : 		_Nodeptr _Left;	// left subtree, or smallest element if head
; 494  : 		_Nodeptr _Parent;	// parent, or root of tree if head
; 495  : 		_Nodeptr _Right;	// right subtree, or largest element if head
; 496  : 		char _Color;	// _Red or _Black, _Black if head
; 497  : 		char _Isnil;	// true only if head (also nil) node
; 498  : 		_Value_type _Myval;	// the stored value, unused if head
; 499  : 
; 500  : 	private:
; 501  : 		_Tree_node& operator=(const _Tree_node&);
; 502  : 		};
; 503  : 
; 504  : template<class _Ty>
; 505  : 	struct _Tree_simple_types
; 506  : 		: public _Simple_types<_Ty>
; 507  : 	{	// wraps types needed by iterators
; 508  : 	typedef _Tree_node<_Ty, void *> _Node;
; 509  : 	typedef _Node *_Nodeptr;
; 510  : 	};
; 511  : 
; 512  : template<class _Ty,
; 513  : 	class _Alloc0>
; 514  : 	struct _Tree_base_types
; 515  : 	{	// types needed for a container base
; 516  : 	typedef _Alloc0 _Alloc;
; 517  : 	typedef _Tree_base_types<_Ty, _Alloc> _Myt;
; 518  : 
; 519  : 	typedef _Wrap_alloc<_Alloc> _Alty0;
; 520  : 	typedef typename _Alty0::template rebind<_Ty>::other _Alty;
; 521  : 
; 522  : 
; 523  : 	typedef typename _Get_voidptr<_Alty, typename _Alty::pointer>::type
; 524  : 		_Voidptr;
; 525  : 	typedef _Tree_node<typename _Alty::value_type,
; 526  : 		_Voidptr> _Node;
; 527  : 
; 528  : 	typedef typename _Alty::template rebind<_Node>::other _Alnod_type;
; 529  : 	typedef typename _Alnod_type::pointer _Nodeptr;
; 530  : 	typedef _Nodeptr& _Nodepref;
; 531  : 
; 532  : 	typedef typename _If<_Is_simple_alloc<_Alty>::value,
; 533  : 		_Tree_simple_types<typename _Alty::value_type>,
; 534  : 		_Tree_iter_types<typename _Alty::value_type,
; 535  : 			typename _Alty::size_type,
; 536  : 			typename _Alty::difference_type,
; 537  : 			typename _Alty::pointer,
; 538  : 			typename _Alty::const_pointer,
; 539  : 			typename _Alty::reference,
; 540  : 			typename _Alty::const_reference,
; 541  : 			_Nodeptr> >::type
; 542  : 		_Val_types;
; 543  : 	};
; 544  : 
; 545  : 		// TEMPLATE CLASS _Tree_val
; 546  : template<class _Val_types>
; 547  : 	class _Tree_val
; 548  : 		: public _Container_base
; 549  : 	{	// base class for tree to hold data
; 550  : public:
; 551  : 	typedef _Tree_val<_Val_types> _Myt;
; 552  : 
; 553  : 	typedef typename _Val_types::_Nodeptr _Nodeptr;
; 554  : 	typedef _Nodeptr& _Nodepref;
; 555  : 
; 556  : 	typedef typename _Val_types::value_type value_type;
; 557  : 	typedef typename _Val_types::size_type size_type;
; 558  : 	typedef typename _Val_types::difference_type difference_type;
; 559  : 	typedef typename _Val_types::pointer pointer;
; 560  : 	typedef typename _Val_types::const_pointer const_pointer;
; 561  : 	typedef typename _Val_types::reference reference;
; 562  : 	typedef typename _Val_types::const_reference const_reference;
; 563  : 
; 564  : 	typedef _Tree_const_iterator<_Myt> const_iterator;
; 565  : 	typedef _Tree_iterator<_Myt> iterator;
; 566  : 
; 567  : 	_Tree_val()
; 568  : 		{	// initialize data
; 569  : 		this->_Myhead = 0;
; 570  : 		this->_Mysize = 0;
; 571  : 		}
; 572  : 
; 573  : 	enum _Redbl
; 574  : 		{	// colors for link to parent
; 575  : 		_Red, _Black};
; 576  : 
; 577  : 	static char& _Color(_Nodeptr _Pnode)
; 578  : 		{	// return reference to color in node
; 579  : 		return ((char&)_Pnode->_Color);
; 580  : 		}
; 581  : 
; 582  : 	static char& _Isnil(_Nodeptr _Pnode)
; 583  : 		{	// return reference to nil flag in node
; 584  : 		return ((char&)_Pnode->_Isnil);

  0005b	8b 06		 mov	 eax, DWORD PTR [esi]

; 590  : 		}
; 591  : 
; 592  : 	static _Nodepref _Parent(_Nodeptr _Pnode)
; 593  : 		{	// return reference to parent pointer in node
; 594  : 		return ((_Nodepref)_Pnode->_Parent);
; 595  : 		}
; 596  : 
; 597  : 	static _Nodepref _Right(_Nodeptr _Pnode)
; 598  : 		{	// return reference to right pointer in node
; 599  : 		return ((_Nodepref)_Pnode->_Right);
; 600  : 		}
; 601  : 
; 602  : 	static reference _Myval(_Nodeptr _Pnode)
; 603  : 		{	// return reference to value in node
; 604  : 		return ((reference)_Pnode->_Myval);
; 605  : 		}
; 606  : 
; 607  : 	static _Nodeptr _Max(_Nodeptr _Pnode)
; 608  : 		{	// return rightmost node in subtree at _Pnode
; 609  : 		while (!_Isnil(_Right(_Pnode)))
; 610  : 			_Pnode = _Right(_Pnode);
; 611  : 		return (_Pnode);
; 612  : 		}
; 613  : 
; 614  : 	static _Nodeptr _Min(_Nodeptr _Pnode)
; 615  : 		{	// return leftmost node in subtree at _Pnode
; 616  : 		while (!_Isnil(_Left(_Pnode)))

  0005d	80 78 0d 00	 cmp	 BYTE PTR [eax+13], 0
  00061	75 27		 jne	 SHORT $LN93@LoadMarkIm
$LL46@LoadMarkIm:

; 617  : 			_Pnode = _Left(_Pnode);

  00063	8b f0		 mov	 esi, eax

; 337  : 		}
; 338  : 
; 339  : 	bool operator!=(const _Myiter& _Right) const
; 340  : 		{	// test for iterator inequality
; 341  : 		return (!(*this == _Right));
; 342  : 		}
; 343  : 	};
; 344  : 
; 345  : template<class _Mytree> inline
; 346  : 	typename _Tree_const_iterator<_Mytree>::_Unchecked_type
; 347  : 		_Unchecked(_Tree_const_iterator<_Mytree> _Iter)
; 348  : 	{	// convert to unchecked
; 349  : 	return (_Iter._Unchecked());
; 350  : 	}
; 351  : 
; 352  : template<class _Mytree> inline
; 353  : 	_Tree_const_iterator<_Mytree>&
; 354  : 		_Rechecked(_Tree_const_iterator<_Mytree>& _Iter,
; 355  : 			typename _Tree_const_iterator<_Mytree>
; 356  : 				::_Unchecked_type _Right)
; 357  : 	{	// convert to checked
; 358  : 	return (_Iter._Rechecked(_Right));
; 359  : 	}
; 360  : 
; 361  : 	// TEMPLATE CLASS _Tree_iterator
; 362  : template<class _Mytree>
; 363  : 	class _Tree_iterator
; 364  : 		: public _Tree_const_iterator<_Mytree>
; 365  : 	{	// iterator for mutable tree
; 366  : public:
; 367  : 	typedef _Tree_iterator<_Mytree> _Myiter;
; 368  : 	typedef _Tree_const_iterator<_Mytree> _Mybase;
; 369  : 	typedef bidirectional_iterator_tag iterator_category;
; 370  : 
; 371  : 	typedef typename _Mytree::_Nodeptr _Nodeptr;
; 372  : 	typedef typename _Mytree::value_type value_type;
; 373  : 	typedef typename _Mytree::difference_type difference_type;
; 374  : 
; 375  : 	typedef typename _Mytree::pointer pointer;
; 376  : 	typedef typename _Mytree::reference reference;
; 377  : 
; 378  : 	_Tree_iterator()
; 379  : 		{	// construct with null node
; 380  : 		}
; 381  : 
; 382  : 	_Tree_iterator(_Nodeptr _Pnode, const _Mytree *_Plist)
; 383  : 		: _Mybase(_Pnode, _Plist)
; 384  : 		{	// construct with node pointer _Pnode
; 385  : 		}
; 386  : 
; 387  : 	typedef _Tree_unchecked_iterator<_Mytree> _Unchecked_type;
; 388  : 
; 389  : 	_Myiter& _Rechecked(_Unchecked_type _Right)
; 390  : 		{	// reset from unchecked iterator
; 391  : 		this->_Ptr = _Right._Ptr;
; 392  : 		return (*this);
; 393  : 		}
; 394  : 
; 395  : 	_Unchecked_type _Unchecked() const
; 396  : 		{	// make an unchecked iterator
; 397  : 		return (_Unchecked_type(this->_Ptr, (_Mytree *)this->_Getcont()));
; 398  : 		}
; 399  : 
; 400  : 	reference operator*() const
; 401  : 		{	// return designated value
; 402  : 		return ((reference)**(_Mybase *)this);
; 403  : 		}
; 404  : 
; 405  : 	pointer operator->() const
; 406  : 		{	// return pointer to class object
; 407  : 		return (_STD pointer_traits<pointer>::pointer_to(**this));
; 408  : 		}
; 409  : 
; 410  : 	_Myiter& operator++()
; 411  : 		{	// preincrement
; 412  : 		++(*(_Mybase *)this);
; 413  : 		return (*this);
; 414  : 		}
; 415  : 
; 416  : 	_Myiter operator++(int)
; 417  : 		{	// postincrement
; 418  : 		_Myiter _Tmp = *this;
; 419  : 		++*this;
; 420  : 		return (_Tmp);
; 421  : 		}
; 422  : 
; 423  : 	_Myiter& operator--()
; 424  : 		{	// predecrement
; 425  : 		--(*(_Mybase *)this);
; 426  : 		return (*this);
; 427  : 		}
; 428  : 
; 429  : 	_Myiter operator--(int)
; 430  : 		{	// postdecrement
; 431  : 		_Myiter _Tmp = *this;
; 432  : 		--*this;
; 433  : 		return (_Tmp);
; 434  : 		}
; 435  : 	};
; 436  : 
; 437  : template<class _Mytree> inline
; 438  : 	typename _Tree_iterator<_Mytree>::_Unchecked_type
; 439  : 		_Unchecked(_Tree_iterator<_Mytree> _Iter)
; 440  : 	{	// convert to unchecked
; 441  : 	return (_Iter._Unchecked());
; 442  : 	}
; 443  : 
; 444  : template<class _Mytree> inline
; 445  : 	_Tree_iterator<_Mytree>&
; 446  : 		_Rechecked(_Tree_iterator<_Mytree>& _Iter,
; 447  : 			typename _Tree_iterator<_Mytree>
; 448  : 				::_Unchecked_type _Right)
; 449  : 	{	// convert to checked
; 450  : 	return (_Iter._Rechecked(_Right));
; 451  : 	}
; 452  : 
; 453  : 		// tree TYPE WRAPPERS
; 454  : template<class _Value_type,
; 455  : 	class _Size_type,
; 456  : 	class _Difference_type,
; 457  : 	class _Pointer,
; 458  : 	class _Const_pointer,
; 459  : 	class _Reference,
; 460  : 	class _Const_reference,
; 461  : 	class _Nodeptr_type>
; 462  : 	struct _Tree_iter_types
; 463  : 	{	// wraps types needed by iterators
; 464  : 	typedef _Value_type value_type;
; 465  : 	typedef _Size_type size_type;
; 466  : 	typedef _Difference_type difference_type;
; 467  : 	typedef _Pointer pointer;
; 468  : 	typedef _Const_pointer const_pointer;
; 469  : 	typedef _Reference reference;
; 470  : 	typedef _Const_reference const_reference;
; 471  : 	typedef _Nodeptr_type _Nodeptr;
; 472  : 	};
; 473  : 
; 474  : template<class _Value_type,
; 475  : 	class _Voidptr>
; 476  : 	struct _Tree_node
; 477  : 		{	// tree node
; 478  : 		_Voidptr _Left;	// left subtree, or smallest element if head
; 479  : 		_Voidptr _Parent;	// parent, or root of tree if head
; 480  : 		_Voidptr _Right;	// right subtree, or largest element if head
; 481  : 		char _Color;	// _Red or _Black, _Black if head
; 482  : 		char _Isnil;	// true only if head (also nil) node
; 483  : 		_Value_type _Myval;	// the stored value, unused if head
; 484  : 
; 485  : 	private:
; 486  : 		_Tree_node& operator=(const _Tree_node&);
; 487  : 		};
; 488  : 
; 489  : template<class _Value_type>
; 490  : 	struct _Tree_node<_Value_type, void *>
; 491  : 		{	// tree node
; 492  : 		typedef _Tree_node<_Value_type, void *> *_Nodeptr;
; 493  : 		_Nodeptr _Left;	// left subtree, or smallest element if head
; 494  : 		_Nodeptr _Parent;	// parent, or root of tree if head
; 495  : 		_Nodeptr _Right;	// right subtree, or largest element if head
; 496  : 		char _Color;	// _Red or _Black, _Black if head
; 497  : 		char _Isnil;	// true only if head (also nil) node
; 498  : 		_Value_type _Myval;	// the stored value, unused if head
; 499  : 
; 500  : 	private:
; 501  : 		_Tree_node& operator=(const _Tree_node&);
; 502  : 		};
; 503  : 
; 504  : template<class _Ty>
; 505  : 	struct _Tree_simple_types
; 506  : 		: public _Simple_types<_Ty>
; 507  : 	{	// wraps types needed by iterators
; 508  : 	typedef _Tree_node<_Ty, void *> _Node;
; 509  : 	typedef _Node *_Nodeptr;
; 510  : 	};
; 511  : 
; 512  : template<class _Ty,
; 513  : 	class _Alloc0>
; 514  : 	struct _Tree_base_types
; 515  : 	{	// types needed for a container base
; 516  : 	typedef _Alloc0 _Alloc;
; 517  : 	typedef _Tree_base_types<_Ty, _Alloc> _Myt;
; 518  : 
; 519  : 	typedef _Wrap_alloc<_Alloc> _Alty0;
; 520  : 	typedef typename _Alty0::template rebind<_Ty>::other _Alty;
; 521  : 
; 522  : 
; 523  : 	typedef typename _Get_voidptr<_Alty, typename _Alty::pointer>::type
; 524  : 		_Voidptr;
; 525  : 	typedef _Tree_node<typename _Alty::value_type,
; 526  : 		_Voidptr> _Node;
; 527  : 
; 528  : 	typedef typename _Alty::template rebind<_Node>::other _Alnod_type;
; 529  : 	typedef typename _Alnod_type::pointer _Nodeptr;
; 530  : 	typedef _Nodeptr& _Nodepref;
; 531  : 
; 532  : 	typedef typename _If<_Is_simple_alloc<_Alty>::value,
; 533  : 		_Tree_simple_types<typename _Alty::value_type>,
; 534  : 		_Tree_iter_types<typename _Alty::value_type,
; 535  : 			typename _Alty::size_type,
; 536  : 			typename _Alty::difference_type,
; 537  : 			typename _Alty::pointer,
; 538  : 			typename _Alty::const_pointer,
; 539  : 			typename _Alty::reference,
; 540  : 			typename _Alty::const_reference,
; 541  : 			_Nodeptr> >::type
; 542  : 		_Val_types;
; 543  : 	};
; 544  : 
; 545  : 		// TEMPLATE CLASS _Tree_val
; 546  : template<class _Val_types>
; 547  : 	class _Tree_val
; 548  : 		: public _Container_base
; 549  : 	{	// base class for tree to hold data
; 550  : public:
; 551  : 	typedef _Tree_val<_Val_types> _Myt;
; 552  : 
; 553  : 	typedef typename _Val_types::_Nodeptr _Nodeptr;
; 554  : 	typedef _Nodeptr& _Nodepref;
; 555  : 
; 556  : 	typedef typename _Val_types::value_type value_type;
; 557  : 	typedef typename _Val_types::size_type size_type;
; 558  : 	typedef typename _Val_types::difference_type difference_type;
; 559  : 	typedef typename _Val_types::pointer pointer;
; 560  : 	typedef typename _Val_types::const_pointer const_pointer;
; 561  : 	typedef typename _Val_types::reference reference;
; 562  : 	typedef typename _Val_types::const_reference const_reference;
; 563  : 
; 564  : 	typedef _Tree_const_iterator<_Myt> const_iterator;
; 565  : 	typedef _Tree_iterator<_Myt> iterator;
; 566  : 
; 567  : 	_Tree_val()
; 568  : 		{	// initialize data
; 569  : 		this->_Myhead = 0;
; 570  : 		this->_Mysize = 0;
; 571  : 		}
; 572  : 
; 573  : 	enum _Redbl
; 574  : 		{	// colors for link to parent
; 575  : 		_Red, _Black};
; 576  : 
; 577  : 	static char& _Color(_Nodeptr _Pnode)
; 578  : 		{	// return reference to color in node
; 579  : 		return ((char&)_Pnode->_Color);
; 580  : 		}
; 581  : 
; 582  : 	static char& _Isnil(_Nodeptr _Pnode)
; 583  : 		{	// return reference to nil flag in node
; 584  : 		return ((char&)_Pnode->_Isnil);

  00065	8b 06		 mov	 eax, DWORD PTR [esi]

; 590  : 		}
; 591  : 
; 592  : 	static _Nodepref _Parent(_Nodeptr _Pnode)
; 593  : 		{	// return reference to parent pointer in node
; 594  : 		return ((_Nodepref)_Pnode->_Parent);
; 595  : 		}
; 596  : 
; 597  : 	static _Nodepref _Right(_Nodeptr _Pnode)
; 598  : 		{	// return reference to right pointer in node
; 599  : 		return ((_Nodepref)_Pnode->_Right);
; 600  : 		}
; 601  : 
; 602  : 	static reference _Myval(_Nodeptr _Pnode)
; 603  : 		{	// return reference to value in node
; 604  : 		return ((reference)_Pnode->_Myval);
; 605  : 		}
; 606  : 
; 607  : 	static _Nodeptr _Max(_Nodeptr _Pnode)
; 608  : 		{	// return rightmost node in subtree at _Pnode
; 609  : 		while (!_Isnil(_Right(_Pnode)))
; 610  : 			_Pnode = _Right(_Pnode);
; 611  : 		return (_Pnode);
; 612  : 		}
; 613  : 
; 614  : 	static _Nodeptr _Min(_Nodeptr _Pnode)
; 615  : 		{	// return leftmost node in subtree at _Pnode
; 616  : 		while (!_Isnil(_Left(_Pnode)))

  00067	80 78 0d 00	 cmp	 BYTE PTR [eax+13], 0
  0006b	74 f6		 je	 SHORT $LL46@LoadMarkIm

; 65   : 		else

  0006d	eb 1b		 jmp	 SHORT $LN93@LoadMarkIm
$LN89@LoadMarkIm:

; 66   : 			{	// climb looking for right subtree
; 67   : 			_Nodeptr _Pnode;
; 68   : 			while (!_Mytree::_Isnil(_Pnode = _Mytree::_Parent(_Ptr))
; 69   : 				&& _Ptr == _Mytree::_Right(_Pnode))

  0006f	8b 46 04	 mov	 eax, DWORD PTR [esi+4]
  00072	80 78 0d 00	 cmp	 BYTE PTR [eax+13], 0
  00076	75 10		 jne	 SHORT $LN29@LoadMarkIm
$LL30@LoadMarkIm:
  00078	3b 70 08	 cmp	 esi, DWORD PTR [eax+8]
  0007b	75 0b		 jne	 SHORT $LN29@LoadMarkIm

; 70   : 				_Ptr = _Pnode;	// ==> parent while right subtree

  0007d	8b f0		 mov	 esi, eax
  0007f	8b 40 04	 mov	 eax, DWORD PTR [eax+4]
  00082	80 78 0d 00	 cmp	 BYTE PTR [eax+13], 0
  00086	74 f0		 je	 SHORT $LL30@LoadMarkIm
$LN29@LoadMarkIm:

; 71   : 			_Ptr = _Pnode;	// ==> parent (head if end())

  00088	8b f0		 mov	 esi, eax
$LN93@LoadMarkIm:

; 72   : 			}
; 73   : 		return (*this);
; 74   : 		}
; 75   : 
; 76   : 	_Myiter operator++(int)
; 77   : 		{	// postincrement
; 78   : 		_Myiter _Tmp = *this;
; 79   : 		++*this;
; 80   : 		return (_Tmp);
; 81   : 		}
; 82   : 
; 83   : 	_Myiter& operator--()
; 84   : 		{	// predecrement
; 85   : 		if (_Mytree::_Isnil(_Ptr))
; 86   : 			_Ptr = _Mytree::_Right(_Ptr);	// end() ==> rightmost
; 87   : 		else if (!_Mytree::_Isnil(_Mytree::_Left(_Ptr)))
; 88   : 			_Ptr = _Mytree::_Max(
; 89   : 				_Mytree::_Left(_Ptr));	// ==> largest of left subtree
; 90   : 		else
; 91   : 			{	// climb looking for left subtree
; 92   : 			_Nodeptr _Pnode;
; 93   : 			while (!_Mytree::_Isnil(_Pnode = _Mytree::_Parent(_Ptr))
; 94   : 				&& _Ptr == _Mytree::_Left(_Pnode))
; 95   : 				_Ptr = _Pnode;	// ==> parent while left subtree
; 96   : 			if (_Mytree::_Isnil(_Ptr))
; 97   : 				;	// begin() shouldn't be decremented, don't move
; 98   : 			else
; 99   : 				_Ptr = _Pnode;	// ==> parent if not head
; 100  : 			}
; 101  : 		return (*this);
; 102  : 		}
; 103  : 
; 104  : 	_Myiter operator--(int)
; 105  : 		{	// postdecrement
; 106  : 		_Myiter _Tmp = *this;
; 107  : 		--*this;
; 108  : 		return (_Tmp);
; 109  : 		}
; 110  : 
; 111  : 	bool operator==(const _Myiter& _Right) const
; 112  : 		{	// test for iterator equality
; 113  : 		return (_Ptr == _Right._Ptr);
; 114  : 		}
; 115  : 
; 116  : 	bool operator!=(const _Myiter& _Right) const
; 117  : 		{	// test for iterator inequality
; 118  : 		return (!(*this == _Right));
; 119  : 		}
; 120  : 
; 121  : 	_Nodeptr _Mynode() const
; 122  : 		{	// return node pointer
; 123  : 		return (_Ptr);
; 124  : 		}
; 125  : 
; 126  : 	_Nodeptr _Ptr;	// pointer to node
; 127  : 	};
; 128  : 
; 129  : 	// TEMPLATE CLASS _Tree_unchecked_iterator
; 130  : template<class _Mytree>
; 131  : 	class _Tree_unchecked_iterator
; 132  : 		: public _Tree_unchecked_const_iterator<_Mytree>
; 133  : 	{	// unchecked iterator for mutable tree
; 134  : public:
; 135  : 	typedef _Tree_unchecked_iterator<_Mytree> _Myiter;
; 136  : 	typedef _Tree_unchecked_const_iterator<_Mytree> _Mybase;
; 137  : 	typedef bidirectional_iterator_tag iterator_category;
; 138  : 
; 139  : 	typedef typename _Mytree::_Nodeptr _Nodeptr;
; 140  : 	typedef typename _Mytree::value_type value_type;
; 141  : 	typedef typename _Mytree::difference_type difference_type;
; 142  : 	typedef typename _Mytree::pointer pointer;
; 143  : 	typedef typename _Mytree::reference reference;
; 144  : 
; 145  : 	_Tree_unchecked_iterator()
; 146  : 		{	// construct with null node
; 147  : 		}
; 148  : 
; 149  : 	_Tree_unchecked_iterator(_Nodeptr _Pnode, const _Mytree *_Plist)
; 150  : 		: _Mybase(_Pnode, _Plist)
; 151  : 		{	// construct with node pointer _Pnode
; 152  : 		}
; 153  : 
; 154  : 	reference operator*() const
; 155  : 		{	// return designated value
; 156  : 		return ((reference)**(_Mybase *)this);
; 157  : 		}
; 158  : 
; 159  : 	pointer operator->() const
; 160  : 		{	// return pointer to class object
; 161  : 		return (_STD pointer_traits<pointer>::pointer_to(**this));
; 162  : 		}
; 163  : 
; 164  : 	_Myiter& operator++()
; 165  : 		{	// preincrement
; 166  : 		++(*(_Mybase *)this);
; 167  : 		return (*this);
; 168  : 		}
; 169  : 
; 170  : 	_Myiter operator++(int)
; 171  : 		{	// postincrement
; 172  : 		_Myiter _Tmp = *this;
; 173  : 		++*this;
; 174  : 		return (_Tmp);
; 175  : 		}
; 176  : 
; 177  : 	_Myiter& operator--()
; 178  : 		{	// predecrement
; 179  : 		--(*(_Mybase *)this);
; 180  : 		return (*this);
; 181  : 		}
; 182  : 
; 183  : 	_Myiter operator--(int)
; 184  : 		{	// postdecrement
; 185  : 		_Myiter _Tmp = *this;
; 186  : 		--*this;
; 187  : 		return (_Tmp);
; 188  : 		}
; 189  : 	};
; 190  : 
; 191  : 	// TEMPLATE CLASS _Tree_const_iterator
; 192  : template<class _Mytree>
; 193  : 	class _Tree_const_iterator
; 194  : 		: public _Tree_unchecked_const_iterator<_Mytree, _Iterator_base>
; 195  : 	{	// iterator for nonmutable tree
; 196  : public:
; 197  : 	typedef _Tree_const_iterator<_Mytree> _Myiter;
; 198  : 	typedef _Tree_unchecked_const_iterator<_Mytree, _Iterator_base> _Mybase;
; 199  : 	typedef bidirectional_iterator_tag iterator_category;
; 200  : 
; 201  : 	typedef typename _Mytree::_Nodeptr _Nodeptr;
; 202  : 	typedef typename _Mytree::value_type value_type;
; 203  : 	typedef typename _Mytree::difference_type difference_type;
; 204  : 	typedef typename _Mytree::const_pointer pointer;
; 205  : 	typedef typename _Mytree::const_reference reference;
; 206  : 
; 207  : 	_Tree_const_iterator()
; 208  : 		: _Mybase()
; 209  : 		{	// construct with null node pointer
; 210  : 		}
; 211  : 
; 212  : 	_Tree_const_iterator(_Nodeptr _Pnode, const _Mytree *_Plist)
; 213  : 		: _Mybase(_Pnode, _Plist)
; 214  : 		{	// construct with node pointer _Pnode
; 215  : 		}
; 216  : 
; 217  : 	typedef _Tree_unchecked_const_iterator<_Mytree> _Unchecked_type;
; 218  : 
; 219  : 	_Myiter& _Rechecked(_Unchecked_type _Right)
; 220  : 		{	// reset from unchecked iterator
; 221  : 		this->_Ptr = _Right._Ptr;
; 222  : 		return (*this);
; 223  : 		}
; 224  : 
; 225  : 	_Unchecked_type _Unchecked() const
; 226  : 		{	// make an unchecked iterator
; 227  : 		return (_Unchecked_type(this->_Ptr, (_Mytree *)this->_Getcont()));
; 228  : 		}
; 229  : 
; 230  : 	reference operator*() const
; 231  : 		{	// return designated value
; 232  :  #if _ITERATOR_DEBUG_LEVEL == 2
; 233  : 		if (this->_Getcont() == 0
; 234  : 			|| this->_Ptr == 0
; 235  : 			|| this->_Ptr == ((_Mytree *)this->_Getcont())->_Myhead)
; 236  : 			{	// report error
; 237  : 			_DEBUG_ERROR("map/set iterator not dereferencable");
; 238  : 			_SCL_SECURE_OUT_OF_RANGE;
; 239  : 			}
; 240  : 
; 241  :  #elif _ITERATOR_DEBUG_LEVEL == 1
; 242  : 		_SCL_SECURE_VALIDATE(this->_Getcont() != 0 && this->_Ptr != 0);
; 243  : 		_SCL_SECURE_VALIDATE_RANGE(this->_Ptr !=
; 244  : 			((_Mytree *)this->_Getcont())->_Myhead);
; 245  :  #endif /* _ITERATOR_DEBUG_LEVEL */
; 246  : 
; 247  : 		return (_Mytree::_Myval(this->_Ptr));
; 248  : 		}
; 249  : 
; 250  : 	pointer operator->() const
; 251  : 		{	// return pointer to class object
; 252  : 		return (_STD pointer_traits<pointer>::pointer_to(**this));
; 253  : 		}
; 254  : 
; 255  : 	_Myiter& operator++()
; 256  : 		{	// preincrement
; 257  :  #if _ITERATOR_DEBUG_LEVEL == 2
; 258  : 		if (this->_Getcont() == 0
; 259  : 			|| this->_Ptr == 0
; 260  : 			|| _Mytree::_Isnil(this->_Ptr))
; 261  : 			{	// report error
; 262  : 			_DEBUG_ERROR("map/set iterator not incrementable");
; 263  : 			_SCL_SECURE_OUT_OF_RANGE;
; 264  : 			}
; 265  : 
; 266  :  #elif _ITERATOR_DEBUG_LEVEL == 1
; 267  : 		_SCL_SECURE_VALIDATE(this->_Getcont() != 0 && this->_Ptr != 0);
; 268  : 		_SCL_SECURE_VALIDATE_RANGE(!_Mytree::_Isnil(this->_Ptr));
; 269  :  #endif /* _ITERATOR_DEBUG_LEVEL */
; 270  : 
; 271  : 		++(*(_Mybase *)this);
; 272  : 		return (*this);
; 273  : 		}
; 274  : 
; 275  : 	_Myiter operator++(int)
; 276  : 		{	// postincrement
; 277  : 		_Myiter _Tmp = *this;
; 278  : 		++*this;
; 279  : 		return (_Tmp);
; 280  : 		}
; 281  : 
; 282  : 	_Myiter& operator--()
; 283  : 		{	// predecrement
; 284  :  #if _ITERATOR_DEBUG_LEVEL == 2
; 285  : 		if (this->_Getcont() == 0
; 286  : 			|| this->_Ptr == 0)
; 287  : 			{	// report error
; 288  : 			_DEBUG_ERROR("map/set iterator not decrementable");
; 289  : 			_SCL_SECURE_OUT_OF_RANGE;
; 290  : 			}
; 291  : 
; 292  : 		_Nodeptr _Ptrsav = this->_Ptr;
; 293  : 		--(*(_Mybase *)this);
; 294  : 		if (_Ptrsav == this->_Ptr)
; 295  : 			{	// report error
; 296  : 			_DEBUG_ERROR("map/set iterator not decrementable");
; 297  : 			_SCL_SECURE_OUT_OF_RANGE;
; 298  : 			}
; 299  : 
; 300  :  #elif _ITERATOR_DEBUG_LEVEL == 1
; 301  : 		_SCL_SECURE_VALIDATE(this->_Getcont() != 0 && this->_Ptr != 0);
; 302  : 
; 303  : 		_Nodeptr _Ptrsav = this->_Ptr;
; 304  : 		--(*(_Mybase *)this);
; 305  : 		_SCL_SECURE_VALIDATE(_Ptrsav != this->_Ptr);
; 306  : 
; 307  :  #else /* _ITERATOR_DEBUG_LEVEL == 0 */
; 308  : 		--(*(_Mybase *)this);
; 309  :  #endif /* _ITERATOR_DEBUG_LEVEL */
; 310  : 
; 311  : 		return (*this);
; 312  : 		}
; 313  : 
; 314  : 	_Myiter operator--(int)
; 315  : 		{	// postdecrement
; 316  : 		_Myiter _Tmp = *this;
; 317  : 		--*this;
; 318  : 		return (_Tmp);
; 319  : 		}
; 320  : 
; 321  : 	bool operator==(const _Myiter& _Right) const
; 322  : 		{	// test for iterator equality
; 323  :  #if _ITERATOR_DEBUG_LEVEL == 2
; 324  : 		if (this->_Getcont() == 0
; 325  : 			|| this->_Getcont() != _Right._Getcont())
; 326  : 			{	// report error
; 327  : 			_DEBUG_ERROR("map/set iterators incompatible");
; 328  : 			_SCL_SECURE_INVALID_ARGUMENT;
; 329  : 			}
; 330  : 
; 331  :  #elif _ITERATOR_DEBUG_LEVEL == 1
; 332  : 		_SCL_SECURE_VALIDATE(this->_Getcont() != 0
; 333  : 			&& this->_Getcont() == _Right._Getcont());
; 334  :  #endif /* _ITERATOR_DEBUG_LEVEL */
; 335  : 
; 336  : 		return (this->_Ptr == _Right._Ptr);

  0008a	3b f7		 cmp	 esi, edi
; File d:\metin2\metin2\client_source_clean\client_source_clean\source\userinterface\markmanager.cpp

; 110  : 	for (std::map<DWORD, DWORD>::iterator it = m_mapGID_MarkID.begin(); it != m_mapGID_MarkID.end(); ++it)

  0008c	75 a2		 jne	 SHORT $LL31@LoadMarkIm
$LN6@LoadMarkIm:

; 116  : 	}
; 117  : 
; 118  : 	for (DWORD i = 0; i < MAX_IMAGE_COUNT; ++i)

  0008e	33 f6		 xor	 esi, esi
$LL4@LoadMarkIm:

; 119  : 		if (isMarkExists[i])

  00090	80 7c 35 f4 00	 cmp	 BYTE PTR _isMarkExists$[ebp+esi], 0
  00095	74 08		 je	 SHORT $LN3@LoadMarkIm

; 120  : 			__GetImage(i);

  00097	56		 push	 esi
  00098	8b cb		 mov	 ecx, ebx
  0009a	e8 00 00 00 00	 call	 ?__GetImage@CGuildMarkManager@@AAEPAVCGuildMarkImage@@K@Z ; CGuildMarkManager::__GetImage
$LN3@LoadMarkIm:

; 116  : 	}
; 117  : 
; 118  : 	for (DWORD i = 0; i < MAX_IMAGE_COUNT; ++i)

  0009f	46		 inc	 esi
  000a0	83 fe 05	 cmp	 esi, 5
  000a3	72 eb		 jb	 SHORT $LL4@LoadMarkIm

; 121  : }

  000a5	8b 4d fc	 mov	 ecx, DWORD PTR __$ArrayPad$[ebp]
  000a8	5f		 pop	 edi
  000a9	5e		 pop	 esi
  000aa	33 cd		 xor	 ecx, ebp
  000ac	5b		 pop	 ebx
  000ad	e8 00 00 00 00	 call	 @__security_check_cookie@4
  000b2	8b e5		 mov	 esp, ebp
  000b4	5d		 pop	 ebp
  000b5	c3		 ret	 0
?LoadMarkImages@CGuildMarkManager@@QAEXXZ ENDP		; CGuildMarkManager::LoadMarkImages
_TEXT	ENDS
; Function compile flags: /Ogtp
; File d:\metin2\metin2\client_source_clean\client_source_clean\source\userinterface\markmanager.cpp
; File c:\program files (x86)\microsoft visual studio 12.0\vc\include\utility
; File d:\metin2\metin2\client_source_clean\client_source_clean\source\userinterface\markmanager.cpp
; File c:\program files (x86)\microsoft visual studio 12.0\vc\include\utility
; File c:\program files (x86)\microsoft visual studio 12.0\vc\include\xtree
; File c:\program files (x86)\microsoft visual studio 12.0\vc\include\utility
; File c:\program files (x86)\microsoft visual studio 12.0\vc\include\xtree
; File d:\metin2\metin2\client_source_clean\client_source_clean\source\userinterface\markmanager.cpp
;	COMDAT ?AddMarkIDByGuildID@CGuildMarkManager@@QAE_NKK@Z
_TEXT	SEGMENT
$T1 = -16						; size = 8
__Where$2 = -8						; size = 8
$T3 = -8						; size = 8
_guildID$ = 8						; size = 4
$T4 = 12						; size = 4
_markID$ = 12						; size = 4
?AddMarkIDByGuildID@CGuildMarkManager@@QAE_NKK@Z PROC	; CGuildMarkManager::AddMarkIDByGuildID, COMDAT
; _this$ = ecx

; 155  : {

  00000	55		 push	 ebp
  00001	8b ec		 mov	 ebp, esp

; 156  : 	if (markID >= MAX_IMAGE_COUNT * CGuildMarkImage::MARK_TOTAL_COUNT)

  00003	8b 55 0c	 mov	 edx, DWORD PTR _markID$[ebp]
  00006	83 ec 14	 sub	 esp, 20			; 00000014H
  00009	56		 push	 esi
  0000a	8b f1		 mov	 esi, ecx
  0000c	81 fa 00 19 00
	00		 cmp	 edx, 6400		; 00001900H
  00012	72 09		 jb	 SHORT $LN1@AddMarkIDB

; 157  : 		return false;

  00014	32 c0		 xor	 al, al

