; Listing generated by Microsoft (R) Optimizing Compiler Version 18.00.40629.0 

	TITLE	D:\Metin2\Metin2\client_source_clean\client_source_clean\source\UserInterface\NetworkActorManager.cpp
	.686P
	.XMM
	include listing.inc
	.model	flat

INCLUDELIB OLDNAMES

PUBLIC	??_C@_0DM@DKEOKINK@CNetworkActorManager?3?3__AppendCh@ ; `string'
PUBLIC	??_R2CNetworkActorManager@@8			; CNetworkActorManager::`RTTI Base Class Array'
PUBLIC	??_R2CReferenceObject@@8			; CReferenceObject::`RTTI Base Class Array'
PUBLIC	??_R1A@?0A@EA@CNetworkActorManager@@8		; CNetworkActorManager::`RTTI Base Class Descriptor at (0,-1,0,64)'
PUBLIC	??_R1A@?0A@EA@CReferenceObject@@8		; CReferenceObject::`RTTI Base Class Descriptor at (0,-1,0,64)'
PUBLIC	??_R3CReferenceObject@@8			; CReferenceObject::`RTTI Class Hierarchy Descriptor'
PUBLIC	??_R0?AVCReferenceObject@@@8			; CReferenceObject `RTTI Type Descriptor'
PUBLIC	??_R3CNetworkActorManager@@8			; CNetworkActorManager::`RTTI Class Hierarchy Descriptor'
PUBLIC	??_R0?AVCNetworkActorManager@@@8		; CNetworkActorManager `RTTI Type Descriptor'
PUBLIC	??_R4CNetworkActorManager@@6B@			; CNetworkActorManager::`RTTI Complete Object Locator'
PUBLIC	?ms_singleton@?$CSingleton@VCPythonItem@@@@0PAVCPythonItem@@A ; CSingleton<CPythonItem>::ms_singleton
PUBLIC	??_7CNetworkActorManager@@6B@			; CNetworkActorManager::`vftable'
EXTRN	?OnSelfDestruct@CReferenceObject@@MAEXXZ:PROC	; CReferenceObject::OnSelfDestruct
EXTRN	?OnConstruct@CReferenceObject@@MAEXXZ:PROC	; CReferenceObject::OnConstruct
EXTRN	??1CReferenceObject@@UAE@XZ:PROC		; CReferenceObject::~CReferenceObject
EXTRN	??0CReferenceObject@@QAE@XZ:PROC		; CReferenceObject::CReferenceObject
;	COMDAT ?ms_singleton@?$CSingleton@VCPythonItem@@@@0PAVCPythonItem@@A
_BSS	SEGMENT
?ms_singleton@?$CSingleton@VCPythonItem@@@@0PAVCPythonItem@@A DD 01H DUP (?) ; CSingleton<CPythonItem>::ms_singleton
_BSS	ENDS
;	COMDAT ??_7CNetworkActorManager@@6B@
CONST	SEGMENT
??_7CNetworkActorManager@@6B@ DD FLAT:??_R4CNetworkActorManager@@6B@ ; CNetworkActorManager::`vftable'
	DD	FLAT:??_ECNetworkActorManager@@UAEPAXI@Z
	DD	FLAT:?OnConstruct@CReferenceObject@@MAEXXZ
	DD	FLAT:?OnSelfDestruct@CReferenceObject@@MAEXXZ
CONST	ENDS
;	COMDAT ??_R4CNetworkActorManager@@6B@
rdata$r	SEGMENT
??_R4CNetworkActorManager@@6B@ DD 00H			; CNetworkActorManager::`RTTI Complete Object Locator'
	DD	00H
	DD	00H
	DD	FLAT:??_R0?AVCNetworkActorManager@@@8
	DD	FLAT:??_R3CNetworkActorManager@@8
rdata$r	ENDS
;	COMDAT ??_R0?AVCNetworkActorManager@@@8
data$r	SEGMENT
??_R0?AVCNetworkActorManager@@@8 DD FLAT:??_7type_info@@6B@ ; CNetworkActorManager `RTTI Type Descriptor'
	DD	00H
	DB	'.?AVCNetworkActorManager@@', 00H
data$r	ENDS
;	COMDAT ??_R3CNetworkActorManager@@8
rdata$r	SEGMENT
??_R3CNetworkActorManager@@8 DD 00H			; CNetworkActorManager::`RTTI Class Hierarchy Descriptor'
	DD	00H
	DD	02H
	DD	FLAT:??_R2CNetworkActorManager@@8
rdata$r	ENDS
;	COMDAT ??_R0?AVCReferenceObject@@@8
data$r	SEGMENT
??_R0?AVCReferenceObject@@@8 DD FLAT:??_7type_info@@6B@	; CReferenceObject `RTTI Type Descriptor'
	DD	00H
	DB	'.?AVCReferenceObject@@', 00H
data$r	ENDS
;	COMDAT ??_R3CReferenceObject@@8
rdata$r	SEGMENT
??_R3CReferenceObject@@8 DD 00H				; CReferenceObject::`RTTI Class Hierarchy Descriptor'
	DD	00H
	DD	01H
	DD	FLAT:??_R2CReferenceObject@@8
rdata$r	ENDS
;	COMDAT ??_R1A@?0A@EA@CReferenceObject@@8
rdata$r	SEGMENT
??_R1A@?0A@EA@CReferenceObject@@8 DD FLAT:??_R0?AVCReferenceObject@@@8 ; CReferenceObject::`RTTI Base Class Descriptor at (0,-1,0,64)'
	DD	00H
	DD	00H
	DD	0ffffffffH
	DD	00H
	DD	040H
	DD	FLAT:??_R3CReferenceObject@@8
rdata$r	ENDS
;	COMDAT ??_R1A@?0A@EA@CNetworkActorManager@@8
rdata$r	SEGMENT
??_R1A@?0A@EA@CNetworkActorManager@@8 DD FLAT:??_R0?AVCNetworkActorManager@@@8 ; CNetworkActorManager::`RTTI Base Class Descriptor at (0,-1,0,64)'
	DD	01H
	DD	00H
	DD	0ffffffffH
	DD	00H
	DD	040H
	DD	FLAT:??_R3CNetworkActorManager@@8
rdata$r	ENDS
;	COMDAT ??_R2CReferenceObject@@8
rdata$r	SEGMENT
??_R2CReferenceObject@@8 DD FLAT:??_R1A@?0A@EA@CReferenceObject@@8 ; CReferenceObject::`RTTI Base Class Array'
rdata$r	ENDS
;	COMDAT ??_R2CNetworkActorManager@@8
rdata$r	SEGMENT
??_R2CNetworkActorManager@@8 DD FLAT:??_R1A@?0A@EA@CNetworkActorManager@@8 ; CNetworkActorManager::`RTTI Base Class Array'
	DD	FLAT:??_R1A@?0A@EA@CReferenceObject@@8
rdata$r	ENDS
;	COMDAT ??_C@_0DM@DKEOKINK@CNetworkActorManager?3?3__AppendCh@
CONST	SEGMENT
??_C@_0DM@DKEOKINK@CNetworkActorManager?3?3__AppendCh@ DB 'CNetworkActorM'
	DB	'anager::__AppendCharacterManagerActor(%d, %s)', 00H ; `string'
PUBLIC	??4?$basic_string@DU?$char_traits@D@std@@V?$allocator@D@2@@std@@QAEAAV01@ABV01@@Z ; std::basic_string<char,std::char_traits<char>,std::allocator<char> >::operator=
PUBLIC	?assign@?$basic_string@DU?$char_traits@D@std@@V?$allocator@D@2@@std@@QAEAAV12@ABV12@@Z ; std::basic_string<char,std::char_traits<char>,std::allocator<char> >::assign
PUBLIC	?_Change_alloc@?$_String_alloc@$0A@U?$_String_base_types@DV?$allocator@D@std@@@std@@@std@@QAEXABU?$_Wrap_alloc@V?$allocator@D@std@@@2@@Z ; std::_String_alloc<0,std::_String_base_types<char,std::allocator<char> > >::_Change_alloc
PUBLIC	??$?9V?$allocator@D@std@@V01@@std@@YA_NABU?$_Wrap_alloc@V?$allocator@D@std@@@0@0@Z ; std::operator!=<std::allocator<char>,std::allocator<char> >
PUBLIC	??$?8V?$allocator@D@std@@V01@@std@@YA_NABU?$_Wrap_alloc@V?$allocator@D@std@@@0@0@Z ; std::operator==<std::allocator<char>,std::allocator<char> >
PUBLIC	??$?8DD@std@@YA_NABV?$allocator@D@0@0@Z		; std::operator==<char,char>
PUBLIC	??$?0V?$tuple@ABK@std@@V?$tuple@$$$V@1@$0A@$S@?$pair@$$CBKUSNetworkActorData@@@std@@QAE@AAV?$tuple@ABK@1@AAV?$tuple@$$$V@1@U?$_Arg_idx@$0A@@1@U?$_Arg_idx@$S@1@@Z ; std::pair<unsigned long const ,SNetworkActorData>::pair<unsigned long const ,SNetworkActorData><std::tuple<unsigned long const &>,std::tuple<>,0>
PUBLIC	??$?0ABK$$$V@?$pair@$$CBKUSNetworkActorData@@@std@@QAE@Upiecewise_construct_t@1@V?$tuple@ABK@1@V?$tuple@$$$V@1@@Z ; std::pair<unsigned long const ,SNetworkActorData>::pair<unsigned long const ,SNetworkActorData><unsigned long const &>
PUBLIC	??$forward@V?$_Tree_iterator@V?$_Tree_val@U?$_Tree_simple_types@U?$pair@$$CBKUSNetworkActorData@@@std@@@std@@@std@@@std@@@std@@YA$$QAV?$_Tree_iterator@V?$_Tree_val@U?$_Tree_simple_types@U?$pair@$$CBKUSNetworkActorData@@@std@@@std@@@std@@@0@AAV10@@Z ; std::forward<std::_Tree_iterator<std::_Tree_val<std::_Tree_simple_types<std::pair<unsigned long const ,SNetworkActorData> > > > >
PUBLIC	??$construct@U?$pair@$$CBKUSNetworkActorData@@@std@@ABUpiecewise_construct_t@2@V?$tuple@ABK@2@V?$tuple@$$$V@2@@?$allocator@U?$_Tree_node@U?$pair@$$CBKUSNetworkActorData@@@std@@PAX@std@@@std@@QAEXPAU?$pair@$$CBKUSNetworkActorData@@@1@ABUpiecewise_construct_t@1@$$QAV?$tuple@ABK@1@$$QAV?$tuple@$$$V@1@@Z ; std::allocator<std::_Tree_node<std::pair<unsigned long const ,SNetworkActorData>,void *> >::construct<std::pair<unsigned long const ,SNetworkActorData>,std::piecewise_construct_t const &,std::tuple<unsigned long const &>,std::tuple<> >
PUBLIC	??$_Uninit_move@KKK@std@@YAPAKPAK00AAU?$_Wrap_alloc@V?$allocator@K@std@@@0@0U_Scalar_ptr_iterator_tag@0@@Z ; std::_Uninit_move<unsigned long,unsigned long,unsigned long>
PUBLIC	??$_Val_type@PAK@std@@YAPAKPAK@Z		; std::_Val_type<unsigned long *>
PUBLIC	??$?0AAV?$_Tree_iterator@V?$_Tree_val@U?$_Tree_simple_types@U?$pair@$$CBKUSNetworkActorData@@@std@@@std@@@std@@@std@@_NX@?$pair@V?$_Tree_iterator@V?$_Tree_val@U?$_Tree_simple_types@U?$pair@$$CBKUSNetworkActorData@@@std@@@std@@@std@@@std@@_N@std@@QAE@AAV?$_Tree_iterator@V?$_Tree_val@U?$_Tree_simple_types@U?$pair@$$CBKUSNetworkActorData@@@std@@@std@@@std@@@1@$$QA_N@Z ; std::pair<std::_Tree_iterator<std::_Tree_val<std::_Tree_simple_types<std::pair<unsigned long const ,SNetworkActorData> > > >,bool>::pair<std::_Tree_iterator<std::_Tree_val<std::_Tree_simple_types<std::pair<unsigned long const ,SNetworkActorData> > > >,bool><std::_Tree_iterator<std::_Tree_val<std::_Tree_simple_types<std::pair<unsigned long const ,SNetworkActorData> > > > &,bool,void>
PUBLIC	??$?0V?$_Tree_iterator@V?$_Tree_val@U?$_Tree_simple_types@U?$pair@$$CBKUSNetworkActorData@@@std@@@std@@@std@@@std@@_NX@?$pair@V?$_Tree_iterator@V?$_Tree_val@U?$_Tree_simple_types@U?$pair@$$CBKUSNetworkActorData@@@std@@@std@@@std@@@std@@_N@std@@QAE@$$QAV?$_Tree_iterator@V?$_Tree_val@U?$_Tree_simple_types@U?$pair@$$CBKUSNetworkActorData@@@std@@@std@@@std@@@1@$$QA_N@Z ; std::pair<std::_Tree_iterator<std::_Tree_val<std::_Tree_simple_types<std::pair<unsigned long const ,SNetworkActorData> > > >,bool>::pair<std::_Tree_iterator<std::_Tree_val<std::_Tree_simple_types<std::pair<unsigned long const ,SNetworkActorData> > > >,bool><std::_Tree_iterator<std::_Tree_val<std::_Tree_simple_types<std::pair<unsigned long const ,SNetworkActorData> > > >,bool,void>
PUBLIC	??$_Buynode_if_nil@AAU?$pair@$$CBKUSNetworkActorData@@@std@@@?$_Tree@V?$_Tmap_traits@KUSNetworkActorData@@U?$less@K@std@@V?$allocator@U?$pair@$$CBKUSNetworkActorData@@@std@@@3@$0A@@std@@@std@@IAEPAU?$_Tree_node@U?$pair@$$CBKUSNetworkActorData@@@std@@PAX@1@PAU21@AAU?$pair@$$CBKUSNetworkActorData@@@1@@Z ; std::_Tree<std::_Tmap_traits<unsigned long,SNetworkActorData,std::less<unsigned long>,std::allocator<std::pair<unsigned long const ,SNetworkActorData> >,0> >::_Buynode_if_nil<std::pair<unsigned long const ,SNetworkActorData> &>
PUBLIC	??$construct@U?$pair@$$CBKUSNetworkActorData@@@std@@ABUpiecewise_construct_t@2@V?$tuple@ABK@2@V?$tuple@$$$V@2@@?$allocator_traits@V?$allocator@U?$_Tree_node@U?$pair@$$CBKUSNetworkActorData@@@std@@PAX@std@@@std@@@std@@SAXAAV?$allocator@U?$_Tree_node@U?$pair@$$CBKUSNetworkActorData@@@std@@PAX@std@@@1@PAU?$pair@$$CBKUSNetworkActorData@@@1@ABUpiecewise_construct_t@1@$$QAV?$tuple@ABK@1@$$QAV?$tuple@$$$V@1@@Z ; std::allocator_traits<std::allocator<std::_Tree_node<std::pair<unsigned long const ,SNetworkActorData>,void *> > >::construct<std::pair<unsigned long const ,SNetworkActorData>,std::piecewise_construct_t const &,std::tuple<unsigned long const &>,std::tuple<> >
PUBLIC	?max_size@?$allocator@U?$_Tree_node@U?$pair@$$CBKUSNetworkActorData@@@std@@PAX@std@@@std@@QBEIXZ ; std::allocator<std::_Tree_node<std::pair<unsigned long const ,SNetworkActorData>,void *> >::max_size
PUBLIC	?max_size@?$allocator_traits@V?$allocator@U?$_Tree_node@U?$pair@$$CBKUSNetworkActorData@@@std@@PAX@std@@@std@@@std@@SAIABV?$allocator@U?$_Tree_node@U?$pair@$$CBKUSNetworkActorData@@@std@@PAX@std@@@2@@Z ; std::allocator_traits<std::allocator<std::_Tree_node<std::pair<unsigned long const ,SNetworkActorData>,void *> > >::max_size
PUBLIC	?max_size@?$_Wrap_alloc@V?$allocator@U?$_Tree_node@U?$pair@$$CBKUSNetworkActorData@@@std@@PAX@std@@@std@@@std@@QBEIXZ ; std::_Wrap_alloc<std::allocator<std::_Tree_node<std::pair<unsigned long const ,SNetworkActorData>,void *> > >::max_size
PUBLIC	??F?$_Tree_iterator@V?$_Tree_val@U?$_Tree_simple_types@U?$pair@$$CBKUSNetworkActorData@@@std@@@std@@@std@@@std@@QAEAAV01@XZ ; std::_Tree_iterator<std::_Tree_val<std::_Tree_simple_types<std::pair<unsigned long const ,SNetworkActorData> > > >::operator--
PUBLIC	?max_size@?$_Tree@V?$_Tmap_traits@KUSNetworkActorData@@U?$less@K@std@@V?$allocator@U?$pair@$$CBKUSNetworkActorData@@@std@@@3@$0A@@std@@@std@@QBEIXZ ; std::_Tree<std::_Tmap_traits<unsigned long,SNetworkActorData,std::less<unsigned long>,std::allocator<std::pair<unsigned long const ,SNetworkActorData> >,0> >::max_size
PUBLIC	??1SNetworkActorData@@QAE@XZ			; SNetworkActorData::~SNetworkActorData
PUBLIC	??1?$pair@$$CBKUSNetworkActorData@@@std@@QAE@XZ	; std::pair<unsigned long const ,SNetworkActorData>::~pair<unsigned long const ,SNetworkActorData>
PUBLIC	??_G?$pair@$$CBKUSNetworkActorData@@@std@@QAEPAXI@Z ; std::pair<unsigned long const ,SNetworkActorData>::`scalar deleting destructor'
PUBLIC	??$construct@PAU?$_Tree_node@U?$pair@$$CBKUSNetworkActorData@@@std@@PAX@std@@AAPAU12@@?$allocator@U?$_Tree_node@U?$pair@$$CBKUSNetworkActorData@@@std@@PAX@std@@@std@@QAEXPAPAU?$_Tree_node@U?$pair@$$CBKUSNetworkActorData@@@std@@PAX@1@AAPAU21@@Z ; std::allocator<std::_Tree_node<std::pair<unsigned long const ,SNetworkActorData>,void *> >::construct<std::_Tree_node<std::pair<unsigned long const ,SNetworkActorData>,void *> *,std::_Tree_node<std::pair<unsigned long const ,SNetworkActorData>,void *> * &>
PUBLIC	??$destroy@PAU?$_Tree_node@U?$pair@$$CBKUSNetworkActorData@@@std@@PAX@std@@@?$allocator@U?$_Tree_node@U?$pair@$$CBKUSNetworkActorData@@@std@@PAX@std@@@std@@QAEXPAPAU?$_Tree_node@U?$pair@$$CBKUSNetworkActorData@@@std@@PAX@1@@Z ; std::allocator<std::_Tree_node<std::pair<unsigned long const ,SNetworkActorData>,void *> >::destroy<std::_Tree_node<std::pair<unsigned long const ,SNetworkActorData>,void *> *>
PUBLIC	??$_Uninit_move@PAKPAKU?$_Wrap_alloc@V?$allocator@K@std@@@std@@@std@@YAPAKPAK00AAU?$_Wrap_alloc@V?$allocator@K@std@@@0@@Z ; std::_Uninit_move<unsigned long *,unsigned long *,std::_Wrap_alloc<std::allocator<unsigned long> > >
PUBLIC	??$destroy@U?$pair@$$CBKUSNetworkActorData@@@std@@@?$allocator@U?$_Tree_node@U?$pair@$$CBKUSNetworkActorData@@@std@@PAX@std@@@std@@QAEXPAU?$pair@$$CBKUSNetworkActorData@@@1@@Z ; std::allocator<std::_Tree_node<std::pair<unsigned long const ,SNetworkActorData>,void *> >::destroy<std::pair<unsigned long const ,SNetworkActorData> >
PUBLIC	??$_Insert_nohint@AAU?$pair@$$CBKUSNetworkActorData@@@std@@PAU?$_Tree_node@U?$pair@$$CBKUSNetworkActorData@@@std@@PAX@2@@?$_Tree@V?$_Tmap_traits@KUSNetworkActorData@@U?$less@K@std@@V?$allocator@U?$pair@$$CBKUSNetworkActorData@@@std@@@3@$0A@@std@@@std@@IAE?AU?$pair@V?$_Tree_iterator@V?$_Tree_val@U?$_Tree_simple_types@U?$pair@$$CBKUSNetworkActorData@@@std@@@std@@@std@@@std@@_N@1@_NAAU?$pair@$$CBKUSNetworkActorData@@@1@PAU?$_Tree_node@U?$pair@$$CBKUSNetworkActorData@@@std@@PAX@1@@Z ; std::_Tree<std::_Tmap_traits<unsigned long,SNetworkActorData,std::less<unsigned long>,std::allocator<std::pair<unsigned long const ,SNetworkActorData> >,0> >::_Insert_nohint<std::pair<unsigned long const ,SNetworkActorData> &,std::_Tree_node<std::pair<unsigned long const ,SNetworkActorData>,void *> *>
PUBLIC	??$_Insert_at@AAU?$pair@$$CBKUSNetworkActorData@@@std@@PAU?$_Tree_node@U?$pair@$$CBKUSNetworkActorData@@@std@@PAX@2@@?$_Tree@V?$_Tmap_traits@KUSNetworkActorData@@U?$less@K@std@@V?$allocator@U?$pair@$$CBKUSNetworkActorData@@@std@@@3@$0A@@std@@@std@@IAE?AV?$_Tree_iterator@V?$_Tree_val@U?$_Tree_simple_types@U?$pair@$$CBKUSNetworkActorData@@@std@@@std@@@std@@@1@_NPAU?$_Tree_node@U?$pair@$$CBKUSNetworkActorData@@@std@@PAX@1@AAU?$pair@$$CBKUSNetworkActorData@@@1@1@Z ; std::_Tree<std::_Tmap_traits<unsigned long,SNetworkActorData,std::less<unsigned long>,std::allocator<std::pair<unsigned long const ,SNetworkActorData> >,0> >::_Insert_at<std::pair<unsigned long const ,SNetworkActorData> &,std::_Tree_node<std::pair<unsigned long const ,SNetworkActorData>,void *> *>
PUBLIC	??$forward@AAU?$pair@$$CBKUSNetworkActorData@@@std@@@std@@YAAAU?$pair@$$CBKUSNetworkActorData@@@0@AAU10@@Z ; std::forward<std::pair<unsigned long const ,SNetworkActorData> &>
PUBLIC	??$construct@U?$pair@$$CBKUSNetworkActorData@@@std@@ABUpiecewise_construct_t@2@V?$tuple@ABK@2@V?$tuple@$$$V@2@@?$_Wrap_alloc@V?$allocator@U?$_Tree_node@U?$pair@$$CBKUSNetworkActorData@@@std@@PAX@std@@@std@@@std@@QAEXPAU?$pair@$$CBKUSNetworkActorData@@@1@ABUpiecewise_construct_t@1@$$QAV?$tuple@ABK@1@$$QAV?$tuple@$$$V@1@@Z ; std::_Wrap_alloc<std::allocator<std::_Tree_node<std::pair<unsigned long const ,SNetworkActorData>,void *> > >::construct<std::pair<unsigned long const ,SNetworkActorData>,std::piecewise_construct_t const &,std::tuple<unsigned long const &>,std::tuple<> >
PUBLIC	??$construct@KK@?$allocator@K@std@@QAEXPAK$$QAK@Z ; std::allocator<unsigned long>::construct<unsigned long,unsigned long>
PUBLIC	??F?$_Tree_unchecked_const_iterator@V?$_Tree_val@U?$_Tree_simple_types@U?$pair@$$CBKUSNetworkActorData@@@std@@@std@@@std@@U_Iterator_base0@2@@std@@QAEAAV01@XZ ; std::_Tree_unchecked_const_iterator<std::_Tree_val<std::_Tree_simple_types<std::pair<unsigned long const ,SNetworkActorData> > >,std::_Iterator_base0>::operator--
PUBLIC	??F?$_Tree_const_iterator@V?$_Tree_val@U?$_Tree_simple_types@U?$pair@$$CBKUSNetworkActorData@@@std@@@std@@@std@@@std@@QAEAAV01@XZ ; std::_Tree_const_iterator<std::_Tree_val<std::_Tree_simple_types<std::pair<unsigned long const ,SNetworkActorData> > > >::operator--
PUBLIC	?_Freenode0@?$_Tree_buy@U?$pair@$$CBKUSNetworkActorData@@@std@@V?$allocator@U?$pair@$$CBKUSNetworkActorData@@@std@@@2@@std@@QAEXPAU?$_Tree_node@U?$pair@$$CBKUSNetworkActorData@@@std@@PAX@2@@Z ; std::_Tree_buy<std::pair<unsigned long const ,SNetworkActorData>,std::allocator<std::pair<unsigned long const ,SNetworkActorData> > >::_Freenode0
PUBLIC	?_Buynode0@?$_Tree_buy@U?$pair@$$CBKUSNetworkActorData@@@std@@V?$allocator@U?$pair@$$CBKUSNetworkActorData@@@std@@@2@@std@@QAEPAU?$_Tree_node@U?$pair@$$CBKUSNetworkActorData@@@std@@PAX@2@XZ ; std::_Tree_buy<std::pair<unsigned long const ,SNetworkActorData>,std::allocator<std::pair<unsigned long const ,SNetworkActorData> > >::_Buynode0
PUBLIC	?_Destroy_if_not_nil@?$_Tree@V?$_Tmap_traits@KUSNetworkActorData@@U?$less@K@std@@V?$allocator@U?$pair@$$CBKUSNetworkActorData@@@std@@@3@$0A@@std@@@std@@IAEXPAU?$_Tree_node@U?$pair@$$CBKUSNetworkActorData@@@std@@PAX@2@@Z ; std::_Tree<std::_Tmap_traits<unsigned long,SNetworkActorData,std::less<unsigned long>,std::allocator<std::pair<unsigned long const ,SNetworkActorData> >,0> >::_Destroy_if_not_nil
PUBLIC	?size@?$_Tree@V?$_Tmap_traits@KUSNetworkActorData@@U?$less@K@std@@V?$allocator@U?$pair@$$CBKUSNetworkActorData@@@std@@@3@$0A@@std@@@std@@QBEIXZ ; std::_Tree<std::_Tmap_traits<unsigned long,SNetworkActorData,std::less<unsigned long>,std::allocator<std::pair<unsigned long const ,SNetworkActorData> >,0> >::size
PUBLIC	??$construct@PAU?$_Tree_node@U?$pair@$$CBKUSNetworkActorData@@@std@@PAX@std@@AAPAU12@@?$allocator_traits@V?$allocator@U?$_Tree_node@U?$pair@$$CBKUSNetworkActorData@@@std@@PAX@std@@@std@@@std@@SAXAAV?$allocator@U?$_Tree_node@U?$pair@$$CBKUSNetworkActorData@@@std@@PAX@std@@@1@PAPAU?$_Tree_node@U?$pair@$$CBKUSNetworkActorData@@@std@@PAX@1@AAPAU31@@Z ; std::allocator_traits<std::allocator<std::_Tree_node<std::pair<unsigned long const ,SNetworkActorData>,void *> > >::construct<std::_Tree_node<std::pair<unsigned long const ,SNetworkActorData>,void *> *,std::_Tree_node<std::pair<unsigned long const ,SNetworkActorData>,void *> * &>
PUBLIC	??$forward@AAPAU?$_Tree_node@U?$pair@$$CBKUSNetworkActorData@@@std@@PAX@std@@@std@@YAAAPAU?$_Tree_node@U?$pair@$$CBKUSNetworkActorData@@@std@@PAX@0@AAPAU10@@Z ; std::forward<std::_Tree_node<std::pair<unsigned long const ,SNetworkActorData>,void *> * &>
PUBLIC	??$destroy@PAU?$_Tree_node@U?$pair@$$CBKUSNetworkActorData@@@std@@PAX@std@@@?$allocator_traits@V?$allocator@U?$_Tree_node@U?$pair@$$CBKUSNetworkActorData@@@std@@PAX@std@@@std@@@std@@SAXAAV?$allocator@U?$_Tree_node@U?$pair@$$CBKUSNetworkActorData@@@std@@PAX@std@@@1@PAPAU?$_Tree_node@U?$pair@$$CBKUSNetworkActorData@@@std@@PAX@1@@Z ; std::allocator_traits<std::allocator<std::_Tree_node<std::pair<unsigned long const ,SNetworkActorData>,void *> > >::destroy<std::_Tree_node<std::pair<unsigned long const ,SNetworkActorData>,void *> *>
PUBLIC	??$forward@AAV?$_Tree_iterator@V?$_Tree_val@U?$_Tree_simple_types@U?$pair@$$CBKUSNetworkActorData@@@std@@@std@@@std@@@std@@@std@@YAAAV?$_Tree_iterator@V?$_Tree_val@U?$_Tree_simple_types@U?$pair@$$CBKUSNetworkActorData@@@std@@@std@@@std@@@0@AAV10@@Z ; std::forward<std::_Tree_iterator<std::_Tree_val<std::_Tree_simple_types<std::pair<unsigned long const ,SNetworkActorData> > > > &>
PUBLIC	??$_Uninitialized_move@PAKPAKU?$_Wrap_alloc@V?$allocator@K@std@@@std@@@std@@YAPAKPAK00AAU?$_Wrap_alloc@V?$allocator@K@std@@@0@@Z ; std::_Uninitialized_move<unsigned long *,unsigned long *,std::_Wrap_alloc<std::allocator<unsigned long> > >
PUBLIC	??$_Distance2@V?$_Tree_iterator@V?$_Tree_val@U?$_Tree_simple_types@U?$pair@$$CBKUSNetworkActorData@@@std@@@std@@@std@@@std@@I@std@@YAXV?$_Tree_iterator@V?$_Tree_val@U?$_Tree_simple_types@U?$pair@$$CBKUSNetworkActorData@@@std@@@std@@@std@@@0@0AAIUbidirectional_iterator_tag@0@@Z ; std::_Distance2<std::_Tree_iterator<std::_Tree_val<std::_Tree_simple_types<std::pair<unsigned long const ,SNetworkActorData> > > >,unsigned int>
PUBLIC	??$_Iter_cat@V?$_Tree_iterator@V?$_Tree_val@U?$_Tree_simple_types@U?$pair@$$CBKUSNetworkActorData@@@std@@@std@@@std@@@std@@@std@@YA?AUbidirectional_iterator_tag@0@ABV?$_Tree_iterator@V?$_Tree_val@U?$_Tree_simple_types@U?$pair@$$CBKUSNetworkActorData@@@std@@@std@@@std@@@0@@Z ; std::_Iter_cat<std::_Tree_iterator<std::_Tree_val<std::_Tree_simple_types<std::pair<unsigned long const ,SNetworkActorData> > > > >
PUBLIC	??$destroy@U?$pair@$$CBKUSNetworkActorData@@@std@@@?$allocator_traits@V?$allocator@U?$_Tree_node@U?$pair@$$CBKUSNetworkActorData@@@std@@PAX@std@@@std@@@std@@SAXAAV?$allocator@U?$_Tree_node@U?$pair@$$CBKUSNetworkActorData@@@std@@PAX@std@@@1@PAU?$pair@$$CBKUSNetworkActorData@@@1@@Z ; std::allocator_traits<std::allocator<std::_Tree_node<std::pair<unsigned long const ,SNetworkActorData>,void *> > >::destroy<std::pair<unsigned long const ,SNetworkActorData> >
PUBLIC	??$_Insert_hint@AAU?$pair@$$CBKUSNetworkActorData@@@std@@PAU?$_Tree_node@U?$pair@$$CBKUSNetworkActorData@@@std@@PAX@2@@?$_Tree@V?$_Tmap_traits@KUSNetworkActorData@@U?$less@K@std@@V?$allocator@U?$pair@$$CBKUSNetworkActorData@@@std@@@3@$0A@@std@@@std@@IAE?AV?$_Tree_iterator@V?$_Tree_val@U?$_Tree_simple_types@U?$pair@$$CBKUSNetworkActorData@@@std@@@std@@@std@@@1@V?$_Tree_const_iterator@V?$_Tree_val@U?$_Tree_simple_types@U?$pair@$$CBKUSNetworkActorData@@@std@@@std@@@std@@@1@AAU?$pair@$$CBKUSNetworkActorData@@@1@PAU?$_Tree_node@U?$pair@$$CBKUSNetworkActorData@@@std@@PAX@1@@Z ; std::_Tree<std::_Tmap_traits<unsigned long,SNetworkActorData,std::less<unsigned long>,std::allocator<std::pair<unsigned long const ,SNetworkActorData> >,0> >::_Insert_hint<std::pair<unsigned long const ,SNetworkActorData> &,std::_Tree_node<std::pair<unsigned long const ,SNetworkActorData>,void *> *>
PUBLIC	??$_Buynode@ABUpiecewise_construct_t@std@@V?$tuple@ABK@2@V?$tuple@$$$V@2@@?$_Tree_buy@U?$pair@$$CBKUSNetworkActorData@@@std@@V?$allocator@U?$pair@$$CBKUSNetworkActorData@@@std@@@2@@std@@QAEPAU?$_Tree_node@U?$pair@$$CBKUSNetworkActorData@@@std@@PAX@1@ABUpiecewise_construct_t@1@$$QAV?$tuple@ABK@1@$$QAV?$tuple@$$$V@1@@Z ; std::_Tree_buy<std::pair<unsigned long const ,SNetworkActorData>,std::allocator<std::pair<unsigned long const ,SNetworkActorData> > >::_Buynode<std::piecewise_construct_t const &,std::tuple<unsigned long const &>,std::tuple<> >
PUBLIC	??$construct@KK@?$allocator_traits@V?$allocator@K@std@@@std@@SAXAAV?$allocator@K@1@PAK$$QAK@Z ; std::allocator_traits<std::allocator<unsigned long> >::construct<unsigned long,unsigned long>
PUBLIC	??$_Allocate@U?$_Tree_node@U?$pair@$$CBKUSNetworkActorData@@@std@@PAX@std@@@std@@YAPAU?$_Tree_node@U?$pair@$$CBKUSNetworkActorData@@@std@@PAX@0@IPAU10@@Z ; std::_Allocate<std::_Tree_node<std::pair<unsigned long const ,SNetworkActorData>,void *> >
PUBLIC	??$construct@PAU?$_Tree_node@U?$pair@$$CBKUSNetworkActorData@@@std@@PAX@std@@AAPAU12@@?$_Wrap_alloc@V?$allocator@U?$_Tree_node@U?$pair@$$CBKUSNetworkActorData@@@std@@PAX@std@@@std@@@std@@QAEXPAPAU?$_Tree_node@U?$pair@$$CBKUSNetworkActorData@@@std@@PAX@1@AAPAU21@@Z ; std::_Wrap_alloc<std::allocator<std::_Tree_node<std::pair<unsigned long const ,SNetworkActorData>,void *> > >::construct<std::_Tree_node<std::pair<unsigned long const ,SNetworkActorData>,void *> *,std::_Tree_node<std::pair<unsigned long const ,SNetworkActorData>,void *> * &>
PUBLIC	??$destroy@PAU?$_Tree_node@U?$pair@$$CBKUSNetworkActorData@@@std@@PAX@std@@@?$_Wrap_alloc@V?$allocator@U?$_Tree_node@U?$pair@$$CBKUSNetworkActorData@@@std@@PAX@std@@@std@@@std@@QAEXPAPAU?$_Tree_node@U?$pair@$$CBKUSNetworkActorData@@@std@@PAX@1@@Z ; std::_Wrap_alloc<std::allocator<std::_Tree_node<std::pair<unsigned long const ,SNetworkActorData>,void *> > >::destroy<std::_Tree_node<std::pair<unsigned long const ,SNetworkActorData>,void *> *>
PUBLIC	??$addressof@PAU?$_Tree_node@U?$pair@$$CBKUSNetworkActorData@@@std@@PAX@std@@@std@@YAPAPAU?$_Tree_node@U?$pair@$$CBKUSNetworkActorData@@@std@@PAX@0@AAPAU10@@Z ; std::addressof<std::_Tree_node<std::pair<unsigned long const ,SNetworkActorData>,void *> *>
PUBLIC	??$_Kfn@$$CBKUSNetworkActorData@@@?$_Tmap_traits@KUSNetworkActorData@@U?$less@K@std@@V?$allocator@U?$pair@$$CBKUSNetworkActorData@@@std@@@3@$0A@@std@@SAABKABU?$pair@$$CBKUSNetworkActorData@@@1@@Z ; std::_Tmap_traits<unsigned long,SNetworkActorData,std::less<unsigned long>,std::allocator<std::pair<unsigned long const ,SNetworkActorData> >,0>::_Kfn<unsigned long const ,SNetworkActorData>
PUBLIC	??$?0AAV?$_Tree_iterator@V?$_Tree_val@U?$_Tree_simple_types@U?$pair@$$CBKUSNetworkActorData@@@std@@@std@@@std@@@std@@AAV01@X@?$pair@V?$_Tree_iterator@V?$_Tree_val@U?$_Tree_simple_types@U?$pair@$$CBKUSNetworkActorData@@@std@@@std@@@std@@@std@@V12@@std@@QAE@AAV?$_Tree_iterator@V?$_Tree_val@U?$_Tree_simple_types@U?$pair@$$CBKUSNetworkActorData@@@std@@@std@@@std@@@1@0@Z ; std::pair<std::_Tree_iterator<std::_Tree_val<std::_Tree_simple_types<std::pair<unsigned long const ,SNetworkActorData> > > >,std::_Tree_iterator<std::_Tree_val<std::_Tree_simple_types<std::pair<unsigned long const ,SNetworkActorData> > > > >::pair<std::_Tree_iterator<std::_Tree_val<std::_Tree_simple_types<std::pair<unsigned long const ,SNetworkActorData> > > >,std::_Tree_iterator<std::_Tree_val<std::_Tree_simple_types<std::pair<unsigned long const ,SNetworkActorData> > > > ><std::_Tree_iterator<std::_Tree_val<std::_Tree_simple_types<std::pair<unsigned long const ,SNetworkActorData> > > > &,std::_Tree_iterator<std::_Tree_val<std::_Tree_simple_types<std::pair<unsigned long const ,SNetworkActorData> > > > &,void>
PUBLIC	??$_Umove@PAK@?$vector@KV?$allocator@K@std@@@std@@IAEPAKPAK00@Z ; std::vector<unsigned long,std::allocator<unsigned long> >::_Umove<unsigned long *>
PUBLIC	??$_Distance@V?$_Tree_iterator@V?$_Tree_val@U?$_Tree_simple_types@U?$pair@$$CBKUSNetworkActorData@@@std@@@std@@@std@@@std@@I@std@@YAXV?$_Tree_iterator@V?$_Tree_val@U?$_Tree_simple_types@U?$pair@$$CBKUSNetworkActorData@@@std@@@std@@@std@@@0@0AAI@Z ; std::_Distance<std::_Tree_iterator<std::_Tree_val<std::_Tree_simple_types<std::pair<unsigned long const ,SNetworkActorData> > > >,unsigned int>
PUBLIC	??$destroy@U?$pair@$$CBKUSNetworkActorData@@@std@@@?$_Wrap_alloc@V?$allocator@U?$_Tree_node@U?$pair@$$CBKUSNetworkActorData@@@std@@PAX@std@@@std@@@std@@QAEXPAU?$pair@$$CBKUSNetworkActorData@@@1@@Z ; std::_Wrap_alloc<std::allocator<std::_Tree_node<std::pair<unsigned long const ,SNetworkActorData>,void *> > >::destroy<std::pair<unsigned long const ,SNetworkActorData> >
PUBLIC	??$addressof@U?$pair@$$CBKUSNetworkActorData@@@std@@@std@@YAPAU?$pair@$$CBKUSNetworkActorData@@@0@AAU10@@Z ; std::addressof<std::pair<unsigned long const ,SNetworkActorData> >
PUBLIC	??$emplace_hint@ABUpiecewise_construct_t@std@@V?$tuple@ABK@2@V?$tuple@$$$V@2@@?$_Tree@V?$_Tmap_traits@KUSNetworkActorData@@U?$less@K@std@@V?$allocator@U?$pair@$$CBKUSNetworkActorData@@@std@@@3@$0A@@std@@@std@@QAE?AV?$_Tree_iterator@V?$_Tree_val@U?$_Tree_simple_types@U?$pair@$$CBKUSNetworkActorData@@@std@@@std@@@std@@@1@V?$_Tree_const_iterator@V?$_Tree_val@U?$_Tree_simple_types@U?$pair@$$CBKUSNetworkActorData@@@std@@@std@@@std@@@1@ABUpiecewise_construct_t@1@$$QAV?$tuple@ABK@1@$$QAV?$tuple@$$$V@1@@Z ; std::_Tree<std::_Tmap_traits<unsigned long,SNetworkActorData,std::less<unsigned long>,std::allocator<std::pair<unsigned long const ,SNetworkActorData> >,0> >::emplace_hint<std::piecewise_construct_t const &,std::tuple<unsigned long const &>,std::tuple<> >
PUBLIC	??$construct@KK@?$_Wrap_alloc@V?$allocator@K@std@@@std@@QAEXPAK$$QAK@Z ; std::_Wrap_alloc<std::allocator<unsigned long> >::construct<unsigned long,unsigned long>
PUBLIC	?allocate@?$allocator@U?$_Tree_node@U?$pair@$$CBKUSNetworkActorData@@@std@@PAX@std@@@std@@QAEPAU?$_Tree_node@U?$pair@$$CBKUSNetworkActorData@@@std@@PAX@2@I@Z ; std::allocator<std::_Tree_node<std::pair<unsigned long const ,SNetworkActorData>,void *> >::allocate
PUBLIC	?allocate@?$_Wrap_alloc@V?$allocator@U?$_Tree_node@U?$pair@$$CBKUSNetworkActorData@@@std@@PAX@std@@@std@@@std@@QAEPAU?$_Tree_node@U?$pair@$$CBKUSNetworkActorData@@@std@@PAX@2@I@Z ; std::_Wrap_alloc<std::allocator<std::_Tree_node<std::pair<unsigned long const ,SNetworkActorData>,void *> > >::allocate
PUBLIC	??0?$_Tree_val@U?$_Tree_simple_types@U?$pair@$$CBKUSNetworkActorData@@@std@@@std@@@std@@QAE@XZ ; std::_Tree_val<std::_Tree_simple_types<std::pair<unsigned long const ,SNetworkActorData> > >::_Tree_val<std::_Tree_simple_types<std::pair<unsigned long const ,SNetworkActorData> > >
PUBLIC	?_Buyheadnode@?$_Tree_alloc@$0A@U?$_Tree_base_types@U?$pair@$$CBKUSNetworkActorData@@@std@@V?$allocator@U?$pair@$$CBKUSNetworkActorData@@@std@@@2@@std@@@std@@QAEPAU?$_Tree_node@U?$pair@$$CBKUSNetworkActorData@@@std@@PAX@2@XZ ; std::_Tree_alloc<0,std::_Tree_base_types<std::pair<unsigned long const ,SNetworkActorData>,std::allocator<std::pair<unsigned long const ,SNetworkActorData> > > >::_Buyheadnode
PUBLIC	??0?$_Tree_alloc@$0A@U?$_Tree_base_types@U?$pair@$$CBKUSNetworkActorData@@@std@@V?$allocator@U?$pair@$$CBKUSNetworkActorData@@@std@@@2@@std@@@std@@QAE@ABV?$allocator@U?$pair@$$CBKUSNetworkActorData@@@std@@@1@@Z ; std::_Tree_alloc<0,std::_Tree_base_types<std::pair<unsigned long const ,SNetworkActorData>,std::allocator<std::pair<unsigned long const ,SNetworkActorData> > > >::_Tree_alloc<0,std::_Tree_base_types<std::pair<unsigned long const ,SNetworkActorData>,std::allocator<std::pair<unsigned long const ,SNetworkActorData> > > >
PUBLIC	??0?$_Tree_unchecked_const_iterator@V?$_Tree_val@U?$_Tree_simple_types@U?$pair@$$CBKUSNetworkActorData@@@std@@@std@@@std@@U_Iterator_base0@2@@std@@QAE@PAU?$_Tree_node@U?$pair@$$CBKUSNetworkActorData@@@std@@PAX@1@PBV?$_Tree_val@U?$_Tree_simple_types@U?$pair@$$CBKUSNetworkActorData@@@std@@@std@@@1@@Z ; std::_Tree_unchecked_const_iterator<std::_Tree_val<std::_Tree_simple_types<std::pair<unsigned long const ,SNetworkActorData> > >,std::_Iterator_base0>::_Tree_unchecked_const_iterator<std::_Tree_val<std::_Tree_simple_types<std::pair<unsigned long const ,SNetworkActorData> > >,std::_Iterator_base0>
PUBLIC	??0?$allocator@U?$_Tree_node@U?$pair@$$CBKUSNetworkActorData@@@std@@PAX@std@@@std@@QAE@XZ ; std::allocator<std::_Tree_node<std::pair<unsigned long const ,SNetworkActorData>,void *> >::allocator<std::_Tree_node<std::pair<unsigned long const ,SNetworkActorData>,void *> >
PUBLIC	??0?$_Tree_buy@U?$pair@$$CBKUSNetworkActorData@@@std@@V?$allocator@U?$pair@$$CBKUSNetworkActorData@@@std@@@2@@std@@QAE@ABV?$allocator@U?$pair@$$CBKUSNetworkActorData@@@std@@@1@@Z ; std::_Tree_buy<std::pair<unsigned long const ,SNetworkActorData>,std::allocator<std::pair<unsigned long const ,SNetworkActorData> > >::_Tree_buy<std::pair<unsigned long const ,SNetworkActorData>,std::allocator<std::pair<unsigned long const ,SNetworkActorData> > >
PUBLIC	??E?$_Tree_unchecked_const_iterator@V?$_Tree_val@U?$_Tree_simple_types@U?$pair@$$CBKUSNetworkActorData@@@std@@@std@@@std@@U_Iterator_base0@2@@std@@QAEAAV01@XZ ; std::_Tree_unchecked_const_iterator<std::_Tree_val<std::_Tree_simple_types<std::pair<unsigned long const ,SNetworkActorData> > >,std::_Iterator_base0>::operator++
PUBLIC	??0?$_Tree_unchecked_const_iterator@V?$_Tree_val@U?$_Tree_simple_types@U?$pair@$$CBKUSNetworkActorData@@@std@@@std@@@std@@U_Iterator_base0@2@@std@@QAE@XZ ; std::_Tree_unchecked_const_iterator<std::_Tree_val<std::_Tree_simple_types<std::pair<unsigned long const ,SNetworkActorData> > >,std::_Iterator_base0>::_Tree_unchecked_const_iterator<std::_Tree_val<std::_Tree_simple_types<std::pair<unsigned long const ,SNetworkActorData> > >,std::_Iterator_base0>
PUBLIC	??E?$_Tree_const_iterator@V?$_Tree_val@U?$_Tree_simple_types@U?$pair@$$CBKUSNetworkActorData@@@std@@@std@@@std@@@std@@QAE?AV01@H@Z ; std::_Tree_const_iterator<std::_Tree_val<std::_Tree_simple_types<std::pair<unsigned long const ,SNetworkActorData> > > >::operator++
PUBLIC	??D?$_Tree_const_iterator@V?$_Tree_val@U?$_Tree_simple_types@U?$pair@$$CBKUSNetworkActorData@@@std@@@std@@@std@@@std@@QBEABU?$pair@$$CBKUSNetworkActorData@@@1@XZ ; std::_Tree_const_iterator<std::_Tree_val<std::_Tree_simple_types<std::pair<unsigned long const ,SNetworkActorData> > > >::operator*
PUBLIC	??0?$_Tree_const_iterator@V?$_Tree_val@U?$_Tree_simple_types@U?$pair@$$CBKUSNetworkActorData@@@std@@@std@@@std@@@std@@QAE@PAU?$_Tree_node@U?$pair@$$CBKUSNetworkActorData@@@std@@PAX@1@PBV?$_Tree_val@U?$_Tree_simple_types@U?$pair@$$CBKUSNetworkActorData@@@std@@@std@@@1@@Z ; std::_Tree_const_iterator<std::_Tree_val<std::_Tree_simple_types<std::pair<unsigned long const ,SNetworkActorData> > > >::_Tree_const_iterator<std::_Tree_val<std::_Tree_simple_types<std::pair<unsigned long const ,SNetworkActorData> > > >
PUBLIC	?deallocate@?$allocator@U?$_Tree_node@U?$pair@$$CBKUSNetworkActorData@@@std@@PAX@std@@@std@@QAEXPAU?$_Tree_node@U?$pair@$$CBKUSNetworkActorData@@@std@@PAX@2@I@Z ; std::allocator<std::_Tree_node<std::pair<unsigned long const ,SNetworkActorData>,void *> >::deallocate
PUBLIC	??0?$_Wrap_alloc@V?$allocator@U?$_Tree_node@U?$pair@$$CBKUSNetworkActorData@@@std@@PAX@std@@@std@@@std@@QAE@XZ ; std::_Wrap_alloc<std::allocator<std::_Tree_node<std::pair<unsigned long const ,SNetworkActorData>,void *> > >::_Wrap_alloc<std::allocator<std::_Tree_node<std::pair<unsigned long const ,SNetworkActorData>,void *> > >
PUBLIC	?_Freeheadnode@?$_Tree_alloc@$0A@U?$_Tree_base_types@U?$pair@$$CBKUSNetworkActorData@@@std@@V?$allocator@U?$pair@$$CBKUSNetworkActorData@@@std@@@2@@std@@@std@@QAEXPAU?$_Tree_node@U?$pair@$$CBKUSNetworkActorData@@@std@@PAX@2@@Z ; std::_Tree_alloc<0,std::_Tree_base_types<std::pair<unsigned long const ,SNetworkActorData>,std::allocator<std::pair<unsigned long const ,SNetworkActorData> > > >::_Freeheadnode
PUBLIC	??0?$_Tree_comp@$0A@V?$_Tmap_traits@KUSNetworkActorData@@U?$less@K@std@@V?$allocator@U?$pair@$$CBKUSNetworkActorData@@@std@@@3@$0A@@std@@@std@@QAE@ABU?$less@K@1@ABV?$allocator@U?$pair@$$CBKUSNetworkActorData@@@std@@@1@@Z ; std::_Tree_comp<0,std::_Tmap_traits<unsigned long,SNetworkActorData,std::less<unsigned long>,std::allocator<std::pair<unsigned long const ,SNetworkActorData> >,0> >::_Tree_comp<0,std::_Tmap_traits<unsigned long,SNetworkActorData,std::less<unsigned long>,std::allocator<std::pair<unsigned long const ,SNetworkActorData> >,0> >
PUBLIC	?_Kfn@?$_Tree@V?$_Tmap_traits@KUSNetworkActorData@@U?$less@K@std@@V?$allocator@U?$pair@$$CBKUSNetworkActorData@@@std@@@3@$0A@@std@@@std@@IBEABKABU?$pair@$$CBKUSNetworkActorData@@@2@@Z ; std::_Tree<std::_Tmap_traits<unsigned long,SNetworkActorData,std::less<unsigned long>,std::allocator<std::pair<unsigned long const ,SNetworkActorData> >,0> >::_Kfn
PUBLIC	?_Lbound@?$_Tree@V?$_Tmap_traits@KUSNetworkActorData@@U?$less@K@std@@V?$allocator@U?$pair@$$CBKUSNetworkActorData@@@std@@@3@$0A@@std@@@std@@IAEPAU?$_Tree_node@U?$pair@$$CBKUSNetworkActorData@@@std@@PAX@2@ABK@Z ; std::_Tree<std::_Tmap_traits<unsigned long,SNetworkActorData,std::less<unsigned long>,std::allocator<std::pair<unsigned long const ,SNetworkActorData> >,0> >::_Lbound
PUBLIC	?_Eqrange@?$_Tree@V?$_Tmap_traits@KUSNetworkActorData@@U?$less@K@std@@V?$allocator@U?$pair@$$CBKUSNetworkActorData@@@std@@@3@$0A@@std@@@std@@IAE?AU?$pair@V?$_Tree_iterator@V?$_Tree_val@U?$_Tree_simple_types@U?$pair@$$CBKUSNetworkActorData@@@std@@@std@@@std@@@std@@V12@@2@ABK@Z ; std::_Tree<std::_Tmap_traits<unsigned long,SNetworkActorData,std::less<unsigned long>,std::allocator<std::pair<unsigned long const ,SNetworkActorData> >,0> >::_Eqrange
PUBLIC	?_Reallocate@?$vector@KV?$allocator@K@std@@@std@@IAEXI@Z ; std::vector<unsigned long,std::allocator<unsigned long> >::_Reallocate
PUBLIC	?_Grow_to@?$vector@KV?$allocator@K@std@@@std@@IBEII@Z ; std::vector<unsigned long,std::allocator<unsigned long> >::_Grow_to
PUBLIC	?_Unused_capacity@?$vector@KV?$allocator@K@std@@@std@@QBEIXZ ; std::vector<unsigned long,std::allocator<unsigned long> >::_Unused_capacity
PUBLIC	?pointer_to@?$pointer_traits@PAU?$pair@$$CBKUSNetworkActorData@@@std@@@std@@SAPAU?$pair@$$CBKUSNetworkActorData@@@2@AAU32@@Z ; std::pointer_traits<std::pair<unsigned long const ,SNetworkActorData> *>::pointer_to
PUBLIC	?_Mynode@?$_Tree_unchecked_const_iterator@V?$_Tree_val@U?$_Tree_simple_types@U?$pair@$$CBKUSNetworkActorData@@@std@@@std@@@std@@U_Iterator_base0@2@@std@@QBEPAU?$_Tree_node@U?$pair@$$CBKUSNetworkActorData@@@std@@PAX@2@XZ ; std::_Tree_unchecked_const_iterator<std::_Tree_val<std::_Tree_simple_types<std::pair<unsigned long const ,SNetworkActorData> > >,std::_Iterator_base0>::_Mynode
PUBLIC	??E?$_Tree_const_iterator@V?$_Tree_val@U?$_Tree_simple_types@U?$pair@$$CBKUSNetworkActorData@@@std@@@std@@@std@@@std@@QAEAAV01@XZ ; std::_Tree_const_iterator<std::_Tree_val<std::_Tree_simple_types<std::pair<unsigned long const ,SNetworkActorData> > > >::operator++
PUBLIC	??0?$_Tree_const_iterator@V?$_Tree_val@U?$_Tree_simple_types@U?$pair@$$CBKUSNetworkActorData@@@std@@@std@@@std@@@std@@QAE@XZ ; std::_Tree_const_iterator<std::_Tree_val<std::_Tree_simple_types<std::pair<unsigned long const ,SNetworkActorData> > > >::_Tree_const_iterator<std::_Tree_val<std::_Tree_simple_types<std::pair<unsigned long const ,SNetworkActorData> > > >
PUBLIC	??D?$_Tree_iterator@V?$_Tree_val@U?$_Tree_simple_types@U?$pair@$$CBKUSNetworkActorData@@@std@@@std@@@std@@@std@@QBEAAU?$pair@$$CBKUSNetworkActorData@@@1@XZ ; std::_Tree_iterator<std::_Tree_val<std::_Tree_simple_types<std::pair<unsigned long const ,SNetworkActorData> > > >::operator*
PUBLIC	??0?$_Tree_iterator@V?$_Tree_val@U?$_Tree_simple_types@U?$pair@$$CBKUSNetworkActorData@@@std@@@std@@@std@@@std@@QAE@PAU?$_Tree_node@U?$pair@$$CBKUSNetworkActorData@@@std@@PAX@1@PBV?$_Tree_val@U?$_Tree_simple_types@U?$pair@$$CBKUSNetworkActorData@@@std@@@std@@@1@@Z ; std::_Tree_iterator<std::_Tree_val<std::_Tree_simple_types<std::pair<unsigned long const ,SNetworkActorData> > > >::_Tree_iterator<std::_Tree_val<std::_Tree_simple_types<std::pair<unsigned long const ,SNetworkActorData> > > >
PUBLIC	?_Min@?$_Tree_val@U?$_Tree_simple_types@U?$pair@$$CBKUSNetworkActorData@@@std@@@std@@@std@@SAPAU?$_Tree_node@U?$pair@$$CBKUSNetworkActorData@@@std@@PAX@2@PAU32@@Z ; std::_Tree_val<std::_Tree_simple_types<std::pair<unsigned long const ,SNetworkActorData> > >::_Min
PUBLIC	?_Max@?$_Tree_val@U?$_Tree_simple_types@U?$pair@$$CBKUSNetworkActorData@@@std@@@std@@@std@@SAPAU?$_Tree_node@U?$pair@$$CBKUSNetworkActorData@@@std@@PAX@2@PAU32@@Z ; std::_Tree_val<std::_Tree_simple_types<std::pair<unsigned long const ,SNetworkActorData> > >::_Max
PUBLIC	?_Myval@?$_Tree_val@U?$_Tree_simple_types@U?$pair@$$CBKUSNetworkActorData@@@std@@@std@@@std@@SAAAU?$pair@$$CBKUSNetworkActorData@@@2@PAU?$_Tree_node@U?$pair@$$CBKUSNetworkActorData@@@std@@PAX@2@@Z ; std::_Tree_val<std::_Tree_simple_types<std::pair<unsigned long const ,SNetworkActorData> > >::_Myval
PUBLIC	?_Right@?$_Tree_val@U?$_Tree_simple_types@U?$pair@$$CBKUSNetworkActorData@@@std@@@std@@@std@@SAAAPAU?$_Tree_node@U?$pair@$$CBKUSNetworkActorData@@@std@@PAX@2@PAU32@@Z ; std::_Tree_val<std::_Tree_simple_types<std::pair<unsigned long const ,SNetworkActorData> > >::_Right
PUBLIC	?_Parent@?$_Tree_val@U?$_Tree_simple_types@U?$pair@$$CBKUSNetworkActorData@@@std@@@std@@@std@@SAAAPAU?$_Tree_node@U?$pair@$$CBKUSNetworkActorData@@@std@@PAX@2@PAU32@@Z ; std::_Tree_val<std::_Tree_simple_types<std::pair<unsigned long const ,SNetworkActorData> > >::_Parent
PUBLIC	?_Left@?$_Tree_val@U?$_Tree_simple_types@U?$pair@$$CBKUSNetworkActorData@@@std@@@std@@@std@@SAAAPAU?$_Tree_node@U?$pair@$$CBKUSNetworkActorData@@@std@@PAX@2@PAU32@@Z ; std::_Tree_val<std::_Tree_simple_types<std::pair<unsigned long const ,SNetworkActorData> > >::_Left
PUBLIC	?_Isnil@?$_Tree_val@U?$_Tree_simple_types@U?$pair@$$CBKUSNetworkActorData@@@std@@@std@@@std@@SAAADPAU?$_Tree_node@U?$pair@$$CBKUSNetworkActorData@@@std@@PAX@2@@Z ; std::_Tree_val<std::_Tree_simple_types<std::pair<unsigned long const ,SNetworkActorData> > >::_Isnil
PUBLIC	?_Color@?$_Tree_val@U?$_Tree_simple_types@U?$pair@$$CBKUSNetworkActorData@@@std@@@std@@@std@@SAAADPAU?$_Tree_node@U?$pair@$$CBKUSNetworkActorData@@@std@@PAX@2@@Z ; std::_Tree_val<std::_Tree_simple_types<std::pair<unsigned long const ,SNetworkActorData> > >::_Color
PUBLIC	?deallocate@?$_Wrap_alloc@V?$allocator@U?$_Tree_node@U?$pair@$$CBKUSNetworkActorData@@@std@@PAX@std@@@std@@@std@@QAEXPAU?$_Tree_node@U?$pair@$$CBKUSNetworkActorData@@@std@@PAX@2@I@Z ; std::_Wrap_alloc<std::allocator<std::_Tree_node<std::pair<unsigned long const ,SNetworkActorData>,void *> > >::deallocate
PUBLIC	?_Getal@?$_Tree_alloc@$0A@U?$_Tree_base_types@U?$pair@$$CBKUSNetworkActorData@@@std@@V?$allocator@U?$pair@$$CBKUSNetworkActorData@@@std@@@2@@std@@@std@@QBE?AU?$_Wrap_alloc@V?$allocator@U?$_Tree_node@U?$pair@$$CBKUSNetworkActorData@@@std@@PAX@std@@@std@@@2@XZ ; std::_Tree_alloc<0,std::_Tree_base_types<std::pair<unsigned long const ,SNetworkActorData>,std::allocator<std::pair<unsigned long const ,SNetworkActorData> > > >::_Getal
PUBLIC	??1?$_Tree_alloc@$0A@U?$_Tree_base_types@U?$pair@$$CBKUSNetworkActorData@@@std@@V?$allocator@U?$pair@$$CBKUSNetworkActorData@@@std@@@2@@std@@@std@@QAE@XZ ; std::_Tree_alloc<0,std::_Tree_base_types<std::pair<unsigned long const ,SNetworkActorData>,std::allocator<std::pair<unsigned long const ,SNetworkActorData> > > >::~_Tree_alloc<0,std::_Tree_base_types<std::pair<unsigned long const ,SNetworkActorData>,std::allocator<std::pair<unsigned long const ,SNetworkActorData> > > >
PUBLIC	??0?$allocator@U?$pair@$$CBKUSNetworkActorData@@@std@@@std@@QAE@XZ ; std::allocator<std::pair<unsigned long const ,SNetworkActorData> >::allocator<std::pair<unsigned long const ,SNetworkActorData> >
PUBLIC	?_Getcomp@?$_Tree_comp@$0A@V?$_Tmap_traits@KUSNetworkActorData@@U?$less@K@std@@V?$allocator@U?$pair@$$CBKUSNetworkActorData@@@std@@@3@$0A@@std@@@std@@QBE?AU?$less@K@2@XZ ; std::_Tree_comp<0,std::_Tmap_traits<unsigned long,SNetworkActorData,std::less<unsigned long>,std::allocator<std::pair<unsigned long const ,SNetworkActorData> >,0> >::_Getcomp
PUBLIC	?_Key@?$_Tree@V?$_Tmap_traits@KUSNetworkActorData@@U?$less@K@std@@V?$allocator@U?$pair@$$CBKUSNetworkActorData@@@std@@@3@$0A@@std@@@std@@IBEABKPAU?$_Tree_node@U?$pair@$$CBKUSNetworkActorData@@@std@@PAX@2@@Z ; std::_Tree<std::_Tmap_traits<unsigned long,SNetworkActorData,std::less<unsigned long>,std::allocator<std::pair<unsigned long const ,SNetworkActorData> >,0> >::_Key
PUBLIC	?_Tidy@?$_Tree@V?$_Tmap_traits@KUSNetworkActorData@@U?$less@K@std@@V?$allocator@U?$pair@$$CBKUSNetworkActorData@@@std@@@3@$0A@@std@@@std@@IAEXXZ ; std::_Tree<std::_Tmap_traits<unsigned long,SNetworkActorData,std::less<unsigned long>,std::allocator<std::pair<unsigned long const ,SNetworkActorData> >,0> >::_Tidy
PUBLIC	?_Rrotate@?$_Tree@V?$_Tmap_traits@KUSNetworkActorData@@U?$less@K@std@@V?$allocator@U?$pair@$$CBKUSNetworkActorData@@@std@@@3@$0A@@std@@@std@@IAEXPAU?$_Tree_node@U?$pair@$$CBKUSNetworkActorData@@@std@@PAX@2@@Z ; std::_Tree<std::_Tmap_traits<unsigned long,SNetworkActorData,std::less<unsigned long>,std::allocator<std::pair<unsigned long const ,SNetworkActorData> >,0> >::_Rrotate
PUBLIC	?_Root@?$_Tree@V?$_Tmap_traits@KUSNetworkActorData@@U?$less@K@std@@V?$allocator@U?$pair@$$CBKUSNetworkActorData@@@std@@@3@$0A@@std@@@std@@IBEAAPAU?$_Tree_node@U?$pair@$$CBKUSNetworkActorData@@@std@@PAX@2@XZ ; std::_Tree<std::_Tmap_traits<unsigned long,SNetworkActorData,std::less<unsigned long>,std::allocator<std::pair<unsigned long const ,SNetworkActorData> >,0> >::_Root
PUBLIC	?_Rmost@?$_Tree@V?$_Tmap_traits@KUSNetworkActorData@@U?$less@K@std@@V?$allocator@U?$pair@$$CBKUSNetworkActorData@@@std@@@3@$0A@@std@@@std@@IBEAAPAU?$_Tree_node@U?$pair@$$CBKUSNetworkActorData@@@std@@PAX@2@XZ ; std::_Tree<std::_Tmap_traits<unsigned long,SNetworkActorData,std::less<unsigned long>,std::allocator<std::pair<unsigned long const ,SNetworkActorData> >,0> >::_Rmost
PUBLIC	?_Lrotate@?$_Tree@V?$_Tmap_traits@KUSNetworkActorData@@U?$less@K@std@@V?$allocator@U?$pair@$$CBKUSNetworkActorData@@@std@@@3@$0A@@std@@@std@@IAEXPAU?$_Tree_node@U?$pair@$$CBKUSNetworkActorData@@@std@@PAX@2@@Z ; std::_Tree<std::_Tmap_traits<unsigned long,SNetworkActorData,std::less<unsigned long>,std::allocator<std::pair<unsigned long const ,SNetworkActorData> >,0> >::_Lrotate
PUBLIC	?_Lmost@?$_Tree@V?$_Tmap_traits@KUSNetworkActorData@@U?$less@K@std@@V?$allocator@U?$pair@$$CBKUSNetworkActorData@@@std@@@3@$0A@@std@@@std@@IBEAAPAU?$_Tree_node@U?$pair@$$CBKUSNetworkActorData@@@std@@PAX@2@XZ ; std::_Tree<std::_Tmap_traits<unsigned long,SNetworkActorData,std::less<unsigned long>,std::allocator<std::pair<unsigned long const ,SNetworkActorData> >,0> >::_Lmost
PUBLIC	?_Erase@?$_Tree@V?$_Tmap_traits@KUSNetworkActorData@@U?$less@K@std@@V?$allocator@U?$pair@$$CBKUSNetworkActorData@@@std@@@3@$0A@@std@@@std@@IAEXPAU?$_Tree_node@U?$pair@$$CBKUSNetworkActorData@@@std@@PAX@2@@Z ; std::_Tree<std::_Tmap_traits<unsigned long,SNetworkActorData,std::less<unsigned long>,std::allocator<std::pair<unsigned long const ,SNetworkActorData> >,0> >::_Erase
PUBLIC	?equal_range@?$_Tree@V?$_Tmap_traits@KUSNetworkActorData@@U?$less@K@std@@V?$allocator@U?$pair@$$CBKUSNetworkActorData@@@std@@@3@$0A@@std@@@std@@QAE?AU?$pair@V?$_Tree_iterator@V?$_Tree_val@U?$_Tree_simple_types@U?$pair@$$CBKUSNetworkActorData@@@std@@@std@@@std@@@std@@V12@@2@ABK@Z ; std::_Tree<std::_Tmap_traits<unsigned long,SNetworkActorData,std::less<unsigned long>,std::allocator<std::pair<unsigned long const ,SNetworkActorData> >,0> >::equal_range
PUBLIC	?lower_bound@?$_Tree@V?$_Tmap_traits@KUSNetworkActorData@@U?$less@K@std@@V?$allocator@U?$pair@$$CBKUSNetworkActorData@@@std@@@3@$0A@@std@@@std@@QAE?AV?$_Tree_iterator@V?$_Tree_val@U?$_Tree_simple_types@U?$pair@$$CBKUSNetworkActorData@@@std@@@std@@@std@@@2@ABK@Z ; std::_Tree<std::_Tmap_traits<unsigned long,SNetworkActorData,std::less<unsigned long>,std::allocator<std::pair<unsigned long const ,SNetworkActorData> >,0> >::lower_bound
PUBLIC	?erase@?$_Tree@V?$_Tmap_traits@KUSNetworkActorData@@U?$less@K@std@@V?$allocator@U?$pair@$$CBKUSNetworkActorData@@@std@@@3@$0A@@std@@@std@@QAE?AV?$_Tree_iterator@V?$_Tree_val@U?$_Tree_simple_types@U?$pair@$$CBKUSNetworkActorData@@@std@@@std@@@std@@@2@V?$_Tree_const_iterator@V?$_Tree_val@U?$_Tree_simple_types@U?$pair@$$CBKUSNetworkActorData@@@std@@@std@@@std@@@2@0@Z ; std::_Tree<std::_Tmap_traits<unsigned long,SNetworkActorData,std::less<unsigned long>,std::allocator<std::pair<unsigned long const ,SNetworkActorData> >,0> >::erase
PUBLIC	??0?$_Tree@V?$_Tmap_traits@KUSNetworkActorData@@U?$less@K@std@@V?$allocator@U?$pair@$$CBKUSNetworkActorData@@@std@@@3@$0A@@std@@@std@@QAE@ABU?$less@K@1@ABV?$allocator@U?$pair@$$CBKUSNetworkActorData@@@std@@@1@@Z ; std::_Tree<std::_Tmap_traits<unsigned long,SNetworkActorData,std::less<unsigned long>,std::allocator<std::pair<unsigned long const ,SNetworkActorData> >,0> >::_Tree<std::_Tmap_traits<unsigned long,SNetworkActorData,std::less<unsigned long>,std::allocator<std::pair<unsigned long const ,SNetworkActorData> >,0> >
PUBLIC	?_Orphan_range@?$vector@KV?$allocator@K@std@@@std@@IBEXPAK0@Z ; std::vector<unsigned long,std::allocator<unsigned long> >::_Orphan_range
PUBLIC	?_Reserve@?$vector@KV?$allocator@K@std@@@std@@IAEXI@Z ; std::vector<unsigned long,std::allocator<unsigned long> >::_Reserve
PUBLIC	?_Inside@?$vector@KV?$allocator@K@std@@@std@@IBE_NPBK@Z ; std::vector<unsigned long,std::allocator<unsigned long> >::_Inside
PUBLIC	??1?$_Tree_buy@U?$pair@$$CBKUSNetworkActorData@@@std@@V?$allocator@U?$pair@$$CBKUSNetworkActorData@@@std@@@2@@std@@QAE@XZ ; std::_Tree_buy<std::pair<unsigned long const ,SNetworkActorData>,std::allocator<std::pair<unsigned long const ,SNetworkActorData> > >::~_Tree_buy<std::pair<unsigned long const ,SNetworkActorData>,std::allocator<std::pair<unsigned long const ,SNetworkActorData> > >
PUBLIC	??1?$_Tree_comp@$0A@V?$_Tmap_traits@KUSNetworkActorData@@U?$less@K@std@@V?$allocator@U?$pair@$$CBKUSNetworkActorData@@@std@@@3@$0A@@std@@@std@@QAE@XZ ; std::_Tree_comp<0,std::_Tmap_traits<unsigned long,SNetworkActorData,std::less<unsigned long>,std::allocator<std::pair<unsigned long const ,SNetworkActorData> >,0> >::~_Tree_comp<0,std::_Tmap_traits<unsigned long,SNetworkActorData,std::less<unsigned long>,std::allocator<std::pair<unsigned long const ,SNetworkActorData> >,0> >
PUBLIC	??9?$_Tree_const_iterator@V?$_Tree_val@U?$_Tree_simple_types@U?$pair@$$CBKUSNetworkActorData@@@std@@@std@@@std@@@std@@QBE_NABV01@@Z ; std::_Tree_const_iterator<std::_Tree_val<std::_Tree_simple_types<std::pair<unsigned long const ,SNetworkActorData> > > >::operator!=
PUBLIC	??8?$_Tree_const_iterator@V?$_Tree_val@U?$_Tree_simple_types@U?$pair@$$CBKUSNetworkActorData@@@std@@@std@@@std@@@std@@QBE_NABV01@@Z ; std::_Tree_const_iterator<std::_Tree_val<std::_Tree_simple_types<std::pair<unsigned long const ,SNetworkActorData> > > >::operator==
PUBLIC	??E?$_Tree_iterator@V?$_Tree_val@U?$_Tree_simple_types@U?$pair@$$CBKUSNetworkActorData@@@std@@@std@@@std@@@std@@QAEAAV01@XZ ; std::_Tree_iterator<std::_Tree_val<std::_Tree_simple_types<std::pair<unsigned long const ,SNetworkActorData> > > >::operator++
PUBLIC	??C?$_Tree_iterator@V?$_Tree_val@U?$_Tree_simple_types@U?$pair@$$CBKUSNetworkActorData@@@std@@@std@@@std@@@std@@QBEPAU?$pair@$$CBKUSNetworkActorData@@@1@XZ ; std::_Tree_iterator<std::_Tree_val<std::_Tree_simple_types<std::pair<unsigned long const ,SNetworkActorData> > > >::operator->
PUBLIC	??0?$_Tree_iterator@V?$_Tree_val@U?$_Tree_simple_types@U?$pair@$$CBKUSNetworkActorData@@@std@@@std@@@std@@@std@@QAE@XZ ; std::_Tree_iterator<std::_Tree_val<std::_Tree_simple_types<std::pair<unsigned long const ,SNetworkActorData> > > >::_Tree_iterator<std::_Tree_val<std::_Tree_simple_types<std::pair<unsigned long const ,SNetworkActorData> > > >
PUBLIC	?Instance@?$CSingleton@VCPythonItem@@@@SAAAVCPythonItem@@XZ ; CSingleton<CPythonItem>::Instance
PUBLIC	?find@?$_Tree@V?$_Tmap_traits@KUSNetworkActorData@@U?$less@K@std@@V?$allocator@U?$pair@$$CBKUSNetworkActorData@@@std@@@3@$0A@@std@@@std@@QAE?AV?$_Tree_iterator@V?$_Tree_val@U?$_Tree_simple_types@U?$pair@$$CBKUSNetworkActorData@@@std@@@std@@@std@@@2@ABK@Z ; std::_Tree<std::_Tmap_traits<unsigned long,SNetworkActorData,std::less<unsigned long>,std::allocator<std::pair<unsigned long const ,SNetworkActorData> >,0> >::find
PUBLIC	?clear@?$_Tree@V?$_Tmap_traits@KUSNetworkActorData@@U?$less@K@std@@V?$allocator@U?$pair@$$CBKUSNetworkActorData@@@std@@@3@$0A@@std@@@std@@QAEXXZ ; std::_Tree<std::_Tmap_traits<unsigned long,SNetworkActorData,std::less<unsigned long>,std::allocator<std::pair<unsigned long const ,SNetworkActorData> >,0> >::clear
PUBLIC	?erase@?$_Tree@V?$_Tmap_traits@KUSNetworkActorData@@U?$less@K@std@@V?$allocator@U?$pair@$$CBKUSNetworkActorData@@@std@@@3@$0A@@std@@@std@@QAEIABK@Z ; std::_Tree<std::_Tmap_traits<unsigned long,SNetworkActorData,std::less<unsigned long>,std::allocator<std::pair<unsigned long const ,SNetworkActorData> >,0> >::erase
PUBLIC	?erase@?$_Tree@V?$_Tmap_traits@KUSNetworkActorData@@U?$less@K@std@@V?$allocator@U?$pair@$$CBKUSNetworkActorData@@@std@@@3@$0A@@std@@@std@@QAE?AV?$_Tree_iterator@V?$_Tree_val@U?$_Tree_simple_types@U?$pair@$$CBKUSNetworkActorData@@@std@@@std@@@std@@@2@V?$_Tree_const_iterator@V?$_Tree_val@U?$_Tree_simple_types@U?$pair@$$CBKUSNetworkActorData@@@std@@@std@@@std@@@2@@Z ; std::_Tree<std::_Tmap_traits<unsigned long,SNetworkActorData,std::less<unsigned long>,std::allocator<std::pair<unsigned long const ,SNetworkActorData> >,0> >::erase
PUBLIC	?end@?$_Tree@V?$_Tmap_traits@KUSNetworkActorData@@U?$less@K@std@@V?$allocator@U?$pair@$$CBKUSNetworkActorData@@@std@@@3@$0A@@std@@@std@@QAE?AV?$_Tree_iterator@V?$_Tree_val@U?$_Tree_simple_types@U?$pair@$$CBKUSNetworkActorData@@@std@@@std@@@std@@@2@XZ ; std::_Tree<std::_Tmap_traits<unsigned long,SNetworkActorData,std::less<unsigned long>,std::allocator<std::pair<unsigned long const ,SNetworkActorData> >,0> >::end
PUBLIC	?begin@?$_Tree@V?$_Tmap_traits@KUSNetworkActorData@@U?$less@K@std@@V?$allocator@U?$pair@$$CBKUSNetworkActorData@@@std@@@3@$0A@@std@@@std@@QAE?AV?$_Tree_iterator@V?$_Tree_val@U?$_Tree_simple_types@U?$pair@$$CBKUSNetworkActorData@@@std@@@std@@@std@@@2@XZ ; std::_Tree<std::_Tmap_traits<unsigned long,SNetworkActorData,std::less<unsigned long>,std::allocator<std::pair<unsigned long const ,SNetworkActorData> >,0> >::begin
PUBLIC	??1?$_Tree@V?$_Tmap_traits@KUSNetworkActorData@@U?$less@K@std@@V?$allocator@U?$pair@$$CBKUSNetworkActorData@@@std@@@3@$0A@@std@@@std@@QAE@XZ ; std::_Tree<std::_Tmap_traits<unsigned long,SNetworkActorData,std::less<unsigned long>,std::allocator<std::pair<unsigned long const ,SNetworkActorData> >,0> >::~_Tree<std::_Tmap_traits<unsigned long,SNetworkActorData,std::less<unsigned long>,std::allocator<std::pair<unsigned long const ,SNetworkActorData> >,0> >
PUBLIC	??A?$map@KUSNetworkActorData@@U?$less@K@std@@V?$allocator@U?$pair@$$CBKUSNetworkActorData@@@std@@@3@@std@@QAEAAUSNetworkActorData@@ABK@Z ; std::map<unsigned long,SNetworkActorData,std::less<unsigned long>,std::allocator<std::pair<unsigned long const ,SNetworkActorData> > >::operator[]
PUBLIC	??0?$map@KUSNetworkActorData@@U?$less@K@std@@V?$allocator@U?$pair@$$CBKUSNetworkActorData@@@std@@@3@@std@@QAE@XZ ; std::map<unsigned long,SNetworkActorData,std::less<unsigned long>,std::allocator<std::pair<unsigned long const ,SNetworkActorData> > >::map<unsigned long,SNetworkActorData,std::less<unsigned long>,std::allocator<std::pair<unsigned long const ,SNetworkActorData> > >
PUBLIC	?push_back@?$vector@KV?$allocator@K@std@@@std@@QAEX$$QAK@Z ; std::vector<unsigned long,std::allocator<unsigned long> >::push_back
PUBLIC	?SetActorOwner@CNetworkActorManager@@QAEXKK@Z	; CNetworkActorManager::SetActorOwner
PUBLIC	?SyncActor@CNetworkActorManager@@QAEXKJJ@Z	; CNetworkActorManager::SyncActor
PUBLIC	?MoveActor@CNetworkActorManager@@QAEXABUSNetworkMoveActorData@@@Z ; CNetworkActorManager::MoveActor
PUBLIC	?UpdateActor@CNetworkActorManager@@QAEXABUSNetworkUpdateActorData@@@Z ; CNetworkActorManager::UpdateActor
PUBLIC	?RemoveActor@CNetworkActorManager@@QAEXK@Z	; CNetworkActorManager::RemoveActor
PUBLIC	?AppendActor@CNetworkActorManager@@QAEXABUSNetworkActorData@@@Z ; CNetworkActorManager::AppendActor
PUBLIC	??1SCreateData@CInstanceBase@@QAE@XZ		; CInstanceBase::SCreateData::~SCreateData
PUBLIC	??0SCreateData@CInstanceBase@@QAE@XZ		; CInstanceBase::SCreateData::SCreateData
PUBLIC	?__AppendCharacterManagerActor@CNetworkActorManager@@IAEPAVCInstanceBase@@AAUSNetworkActorData@@@Z ; CNetworkActorManager::__AppendCharacterManagerActor
PUBLIC	?__RemoveCharacterManagerActor@CNetworkActorManager@@IAEXAAUSNetworkActorData@@@Z ; CNetworkActorManager::__RemoveCharacterManagerActor
PUBLIC	?__GetCharacterManager@CNetworkActorManager@@IAEAAVCPythonCharacterManager@@XZ ; CNetworkActorManager::__GetCharacterManager
PUBLIC	?__IsMainActorVID@CNetworkActorManager@@IAE_NK@Z ; CNetworkActorManager::__IsMainActorVID
PUBLIC	?__IsVisiblePos@CNetworkActorManager@@IAE_NJJ@Z	; CNetworkActorManager::__IsVisiblePos
PUBLIC	?__IsVisibleActor@CNetworkActorManager@@IAE_NABUSNetworkActorData@@@Z ; CNetworkActorManager::__IsVisibleActor
PUBLIC	?__UpdateMainActor@CNetworkActorManager@@IAEXXZ	; CNetworkActorManager::__UpdateMainActor
PUBLIC	?__RemoveDynamicActors@CNetworkActorManager@@IAEXXZ ; CNetworkActorManager::__RemoveDynamicActors
PUBLIC	?__RemoveAllGroundItems@CNetworkActorManager@@IAEXXZ ; CNetworkActorManager::__RemoveAllGroundItems
PUBLIC	?__FindActor@CNetworkActorManager@@IAEPAVCInstanceBase@@AAUSNetworkActorData@@@Z ; CNetworkActorManager::__FindActor
PUBLIC	?__FindActor@CNetworkActorManager@@IAEPAVCInstanceBase@@AAUSNetworkActorData@@JJ@Z ; CNetworkActorManager::__FindActor
PUBLIC	?__OLD_Update@CNetworkActorManager@@IAEXXZ	; CNetworkActorManager::__OLD_Update
PUBLIC	?Update@CNetworkActorManager@@QAEXXZ		; CNetworkActorManager::Update
PUBLIC	?SetMainActorVID@CNetworkActorManager@@QAEXK@Z	; CNetworkActorManager::SetMainActorVID
PUBLIC	?Destroy@CNetworkActorManager@@QAEXXZ		; CNetworkActorManager::Destroy
PUBLIC	??1CNetworkActorManager@@UAE@XZ			; CNetworkActorManager::~CNetworkActorManager
PUBLIC	??1?$map@KUSNetworkActorData@@U?$less@K@std@@V?$allocator@U?$pair@$$CBKUSNetworkActorData@@@std@@@3@@std@@QAE@XZ ; std::map<unsigned long,SNetworkActorData,std::less<unsigned long>,std::allocator<std::pair<unsigned long const ,SNetworkActorData> > >::~map<unsigned long,SNetworkActorData,std::less<unsigned long>,std::allocator<std::pair<unsigned long const ,SNetworkActorData> > >
PUBLIC	??_GCNetworkActorManager@@UAEPAXI@Z		; CNetworkActorManager::`scalar deleting destructor'
PUBLIC	??0CNetworkActorManager@@QAE@XZ			; CNetworkActorManager::CNetworkActorManager
PUBLIC	??0SNetworkActorData@@QAE@XZ			; SNetworkActorData::SNetworkActorData
PUBLIC	?__copy__@SNetworkActorData@@QAEXABU1@@Z	; SNetworkActorData::__copy__
PUBLIC	??4SNetworkActorData@@QAEXABU0@@Z		; SNetworkActorData::operator=
PUBLIC	??0SNetworkActorData@@QAE@ABU0@@Z		; SNetworkActorData::SNetworkActorData
PUBLIC	?SetPosition@SNetworkActorData@@QAEXJJ@Z	; SNetworkActorData::SetPosition
PUBLIC	?SetDstPosition@SNetworkActorData@@QAEXKJJK@Z	; SNetworkActorData::SetDstPosition
PUBLIC	?UpdatePosition@SNetworkActorData@@QAEXXZ	; SNetworkActorData::UpdatePosition
EXTRN	??_ECNetworkActorManager@@UAEPAXI@Z:PROC	; CNetworkActorManager::`vector deleting destructor'
	ALIGN	4

_piecewise_construct DB 01H DUP (?)
_BSS	ENDS
;	COMDAT xdata$x
xdata$x	SEGMENT
__ehfuncinfo$??0SNetworkActorData@@QAE@ABU0@@Z DD 019930522H
	DD	01H
	DD	FLAT:__unwindtable$??0SNetworkActorData@@QAE@ABU0@@Z
	DD	2 DUP(00H)
	DD	2 DUP(00H)
	DD	00H
	DD	01H
__unwindtable$??0SNetworkActorData@@QAE@ABU0@@Z DD 0ffffffffH
	DD	FLAT:__unwindfunclet$??0SNetworkActorData@@QAE@ABU0@@Z$0
xdata$x	ENDS
;	COMDAT xdata$x
xdata$x	SEGMENT
__ehfuncinfo$??0SNetworkActorData@@QAE@XZ DD 019930522H
	DD	01H
	DD	FLAT:__unwindtable$??0SNetworkActorData@@QAE@XZ
	DD	2 DUP(00H)
	DD	2 DUP(00H)
	DD	00H
	DD	01H
__unwindtable$??0SNetworkActorData@@QAE@XZ DD 0ffffffffH
	DD	FLAT:__unwindfunclet$??0SNetworkActorData@@QAE@XZ$0
xdata$x	ENDS
;	COMDAT xdata$x
xdata$x	SEGMENT
__ehfuncinfo$??0CNetworkActorManager@@QAE@XZ DD 019930522H
	DD	01H
	DD	FLAT:__unwindtable$??0CNetworkActorManager@@QAE@XZ
	DD	2 DUP(00H)
	DD	2 DUP(00H)
	DD	00H
	DD	01H
__unwindtable$??0CNetworkActorManager@@QAE@XZ DD 0ffffffffH
	DD	FLAT:__unwindfunclet$??0CNetworkActorManager@@QAE@XZ$0
xdata$x	ENDS
;	COMDAT xdata$x
xdata$x	SEGMENT
__ehfuncinfo$?__RemoveDynamicActors@CNetworkActorManager@@IAEXXZ DD 019930522H
	DD	01H
	DD	FLAT:__unwindtable$?__RemoveDynamicActors@CNetworkActorManager@@IAEXXZ
	DD	2 DUP(00H)
	DD	2 DUP(00H)
	DD	00H
	DD	01H
__unwindtable$?__RemoveDynamicActors@CNetworkActorManager@@IAEXXZ DD 0ffffffffH
	DD	FLAT:__unwindfunclet$?__RemoveDynamicActors@CNetworkActorManager@@IAEXXZ$0
xdata$x	ENDS
;	COMDAT xdata$x
xdata$x	SEGMENT
__ehfuncinfo$?__AppendCharacterManagerActor@CNetworkActorManager@@IAEPAVCInstanceBase@@AAUSNetworkActorData@@@Z DD 019930522H
	DD	01H
	DD	FLAT:__unwindtable$?__AppendCharacterManagerActor@CNetworkActorManager@@IAEPAVCInstanceBase@@AAUSNetworkActorData@@@Z
	DD	2 DUP(00H)
	DD	2 DUP(00H)
	DD	00H
	DD	01H
__unwindtable$?__AppendCharacterManagerActor@CNetworkActorManager@@IAEPAVCInstanceBase@@AAUSNetworkActorData@@@Z DD 0ffffffffH
	DD	FLAT:__unwindfunclet$?__AppendCharacterManagerActor@CNetworkActorManager@@IAEPAVCInstanceBase@@AAUSNetworkActorData@@@Z$0
xdata$x	ENDS
;	COMDAT xdata$x
xdata$x	SEGMENT
__ehfuncinfo$??$_Buynode@ABUpiecewise_construct_t@std@@V?$tuple@ABK@2@V?$tuple@$$$V@2@@?$_Tree_buy@U?$pair@$$CBKUSNetworkActorData@@@std@@V?$allocator@U?$pair@$$CBKUSNetworkActorData@@@std@@@2@@std@@QAEPAU?$_Tree_node@U?$pair@$$CBKUSNetworkActorData@@@std@@PAX@1@ABUpiecewise_construct_t@1@$$QAV?$tuple@ABK@1@$$QAV?$tuple@$$$V@1@@Z DD 019930522H
	DD	03H
	DD	FLAT:__unwindtable$??$_Buynode@ABUpiecewise_construct_t@std@@V?$tuple@ABK@2@V?$tuple@$$$V@2@@?$_Tree_buy@U?$pair@$$CBKUSNetworkActorData@@@std@@V?$allocator@U?$pair@$$CBKUSNetworkActorData@@@std@@@2@@std@@QAEPAU?$_Tree_node@U?$pair@$$CBKUSNetworkActorData@@@std@@PAX@1@ABUpiecewise_construct_t@1@$$QAV?$tuple@ABK@1@$$QAV?$tuple@$$$V@1@@Z
	DD	01H
	DD	FLAT:__tryblocktable$??$_Buynode@ABUpiecewise_construct_t@std@@V?$tuple@ABK@2@V?$tuple@$$$V@2@@?$_Tree_buy@U?$pair@$$CBKUSNetworkActorData@@@std@@V?$allocator@U?$pair@$$CBKUSNetworkActorData@@@std@@@2@@std@@QAEPAU?$_Tree_node@U?$pair@$$CBKUSNetworkActorData@@@std@@PAX@1@ABUpiecewise_construct_t@1@$$QAV?$tuple@ABK@1@$$QAV?$tuple@$$$V@1@@Z
	DD	2 DUP(00H)
	DD	00H
	DD	01H
__unwindtable$??$_Buynode@ABUpiecewise_construct_t@std@@V?$tuple@ABK@2@V?$tuple@$$$V@2@@?$_Tree_buy@U?$pair@$$CBKUSNetworkActorData@@@std@@V?$allocator@U?$pair@$$CBKUSNetworkActorData@@@std@@@2@@std@@QAEPAU?$_Tree_node@U?$pair@$$CBKUSNetworkActorData@@@std@@PAX@1@ABUpiecewise_construct_t@1@$$QAV?$tuple@ABK@1@$$QAV?$tuple@$$$V@1@@Z DD 0ffffffffH
	DD	00H
	DD	00H
	DD	FLAT:__unwindfunclet$??$_Buynode@ABUpiecewise_construct_t@std@@V?$tuple@ABK@2@V?$tuple@$$$V@2@@?$_Tree_buy@U?$pair@$$CBKUSNetworkActorData@@@std@@V?$allocator@U?$pair@$$CBKUSNetworkActorData@@@std@@@2@@std@@QAEPAU?$_Tree_node@U?$pair@$$CBKUSNetworkActorData@@@std@@PAX@1@ABUpiecewise_construct_t@1@$$QAV?$tuple@ABK@1@$$QAV?$tuple@$$$V@1@@Z$2
	DD	0ffffffffH
	DD	00H
__tryblocktable$??$_Buynode@ABUpiecewise_construct_t@std@@V?$tuple@ABK@2@V?$tuple@$$$V@2@@?$_Tree_buy@U?$pair@$$CBKUSNetworkActorData@@@std@@V?$allocator@U?$pair@$$CBKUSNetworkActorData@@@std@@@2@@std@@QAEPAU?$_Tree_node@U?$pair@$$CBKUSNetworkActorData@@@std@@PAX@1@ABUpiecewise_construct_t@1@$$QAV?$tuple@ABK@1@$$QAV?$tuple@$$$V@1@@Z DD 00H
	DD	01H
	DD	02H
	DD	01H
	DD	FLAT:__catchsym$??$_Buynode@ABUpiecewise_construct_t@std@@V?$tuple@ABK@2@V?$tuple@$$$V@2@@?$_Tree_buy@U?$pair@$$CBKUSNetworkActorData@@@std@@V?$allocator@U?$pair@$$CBKUSNetworkActorData@@@std@@@2@@std@@QAEPAU?$_Tree_node@U?$pair@$$CBKUSNetworkActorData@@@std@@PAX@1@ABUpiecewise_construct_t@1@$$QAV?$tuple@ABK@1@$$QAV?$tuple@$$$V@1@@Z$5
__catchsym$??$_Buynode@ABUpiecewise_construct_t@std@@V?$tuple@ABK@2@V?$tuple@$$$V@2@@?$_Tree_buy@U?$pair@$$CBKUSNetworkActorData@@@std@@V?$allocator@U?$pair@$$CBKUSNetworkActorData@@@std@@@2@@std@@QAEPAU?$_Tree_node@U?$pair@$$CBKUSNetworkActorData@@@std@@PAX@1@ABUpiecewise_construct_t@1@$$QAV?$tuple@ABK@1@$$QAV?$tuple@$$$V@1@@Z$5 DD 040H
	DD	00H
	DD	00H
	DD	FLAT:__catch$??$_Buynode@ABUpiecewise_construct_t@std@@V?$tuple@ABK@2@V?$tuple@$$$V@2@@?$_Tree_buy@U?$pair@$$CBKUSNetworkActorData@@@std@@V?$allocator@U?$pair@$$CBKUSNetworkActorData@@@std@@@2@@std@@QAEPAU?$_Tree_node@U?$pair@$$CBKUSNetworkActorData@@@std@@PAX@1@ABUpiecewise_construct_t@1@$$QAV?$tuple@ABK@1@$$QAV?$tuple@$$$V@1@@Z$0
xdata$x	ENDS
;	COMDAT xdata$x
xdata$x	SEGMENT
__ehfuncinfo$??$_Insert_hint@AAU?$pair@$$CBKUSNetworkActorData@@@std@@PAU?$_Tree_node@U?$pair@$$CBKUSNetworkActorData@@@std@@PAX@2@@?$_Tree@V?$_Tmap_traits@KUSNetworkActorData@@U?$less@K@std@@V?$allocator@U?$pair@$$CBKUSNetworkActorData@@@std@@@3@$0A@@std@@@std@@IAE?AV?$_Tree_iterator@V?$_Tree_val@U?$_Tree_simple_types@U?$pair@$$CBKUSNetworkActorData@@@std@@@std@@@std@@@1@V?$_Tree_const_iterator@V?$_Tree_val@U?$_Tree_simple_types@U?$pair@$$CBKUSNetworkActorData@@@std@@@std@@@std@@@1@AAU?$pair@$$CBKUSNetworkActorData@@@1@PAU?$_Tree_node@U?$pair@$$CBKUSNetworkActorData@@@std@@PAX@1@@Z DD 019930522H
	DD	02H
	DD	FLAT:__unwindtable$??$_Insert_hint@AAU?$pair@$$CBKUSNetworkActorData@@@std@@PAU?$_Tree_node@U?$pair@$$CBKUSNetworkActorData@@@std@@PAX@2@@?$_Tree@V?$_Tmap_traits@KUSNetworkActorData@@U?$less@K@std@@V?$allocator@U?$pair@$$CBKUSNetworkActorData@@@std@@@3@$0A@@std@@@std@@IAE?AV?$_Tree_iterator@V?$_Tree_val@U?$_Tree_simple_types@U?$pair@$$CBKUSNetworkActorData@@@std@@@std@@@std@@@1@V?$_Tree_const_iterator@V?$_Tree_val@U?$_Tree_simple_types@U?$pair@$$CBKUSNetworkActorData@@@std@@@std@@@std@@@1@AAU?$pair@$$CBKUSNetworkActorData@@@1@PAU?$_Tree_node@U?$pair@$$CBKUSNetworkActorData@@@std@@PAX@1@@Z
	DD	01H
	DD	FLAT:__tryblocktable$??$_Insert_hint@AAU?$pair@$$CBKUSNetworkActorData@@@std@@PAU?$_Tree_node@U?$pair@$$CBKUSNetworkActorData@@@std@@PAX@2@@?$_Tree@V?$_Tmap_traits@KUSNetworkActorData@@U?$less@K@std@@V?$allocator@U?$pair@$$CBKUSNetworkActorData@@@std@@@3@$0A@@std@@@std@@IAE?AV?$_Tree_iterator@V?$_Tree_val@U?$_Tree_simple_types@U?$pair@$$CBKUSNetworkActorData@@@std@@@std@@@std@@@1@V?$_Tree_const_iterator@V?$_Tree_val@U?$_Tree_simple_types@U?$pair@$$CBKUSNetworkActorData@@@std@@@std@@@std@@@1@AAU?$pair@$$CBKUSNetworkActorData@@@1@PAU?$_Tree_node@U?$pair@$$CBKUSNetworkActorData@@@std@@PAX@1@@Z
	DD	2 DUP(00H)
	DD	00H
	DD	01H
__unwindtable$??$_Insert_hint@AAU?$pair@$$CBKUSNetworkActorData@@@std@@PAU?$_Tree_node@U?$pair@$$CBKUSNetworkActorData@@@std@@PAX@2@@?$_Tree@V?$_Tmap_traits@KUSNetworkActorData@@U?$less@K@std@@V?$allocator@U?$pair@$$CBKUSNetworkActorData@@@std@@@3@$0A@@std@@@std@@IAE?AV?$_Tree_iterator@V?$_Tree_val@U?$_Tree_simple_types@U?$pair@$$CBKUSNetworkActorData@@@std@@@std@@@std@@@1@V?$_Tree_const_iterator@V?$_Tree_val@U?$_Tree_simple_types@U?$pair@$$CBKUSNetworkActorData@@@std@@@std@@@std@@@1@AAU?$pair@$$CBKUSNetworkActorData@@@1@PAU?$_Tree_node@U?$pair@$$CBKUSNetworkActorData@@@std@@PAX@1@@Z DD 0ffffffffH
	DD	00H
	DD	0ffffffffH
	DD	00H
__tryblocktable$??$_Insert_hint@AAU?$pair@$$CBKUSNetworkActorData@@@std@@PAU?$_Tree_node@U?$pair@$$CBKUSNetworkActorData@@@std@@PAX@2@@?$_Tree@V?$_Tmap_traits@KUSNetworkActorData@@U?$less@K@std@@V?$allocator@U?$pair@$$CBKUSNetworkActorData@@@std@@@3@$0A@@std@@@std@@IAE?AV?$_Tree_iterator@V?$_Tree_val@U?$_Tree_simple_types@U?$pair@$$CBKUSNetworkActorData@@@std@@@std@@@std@@@1@V?$_Tree_const_iterator@V?$_Tree_val@U?$_Tree_simple_types@U?$pair@$$CBKUSNetworkActorData@@@std@@@std@@@std@@@1@AAU?$pair@$$CBKUSNetworkActorData@@@1@PAU?$_Tree_node@U?$pair@$$CBKUSNetworkActorData@@@std@@PAX@1@@Z DD 00H
	DD	00H
	DD	01H
	DD	01H
	DD	FLAT:__catchsym$??$_Insert_hint@AAU?$pair@$$CBKUSNetworkActorData@@@std@@PAU?$_Tree_node@U?$pair@$$CBKUSNetworkActorData@@@std@@PAX@2@@?$_Tree@V?$_Tmap_traits@KUSNetworkActorData@@U?$less@K@std@@V?$allocator@U?$pair@$$CBKUSNetworkActorData@@@std@@@3@$0A@@std@@@std@@IAE?AV?$_Tree_iterator@V?$_Tree_val@U?$_Tree_simple_types@U?$pair@$$CBKUSNetworkActorData@@@std@@@std@@@std@@@1@V?$_Tree_const_iterator@V?$_Tree_val@U?$_Tree_simple_types@U?$pair@$$CBKUSNetworkActorData@@@std@@@std@@@std@@@1@AAU?$pair@$$CBKUSNetworkActorData@@@1@PAU?$_Tree_node@U?$pair@$$CBKUSNetworkActorData@@@std@@PAX@1@@Z$2
__catchsym$??$_Insert_hint@AAU?$pair@$$CBKUSNetworkActorData@@@std@@PAU?$_Tree_node@U?$pair@$$CBKUSNetworkActorData@@@std@@PAX@2@@?$_Tree@V?$_Tmap_traits@KUSNetworkActorData@@U?$less@K@std@@V?$allocator@U?$pair@$$CBKUSNetworkActorData@@@std@@@3@$0A@@std@@@std@@IAE?AV?$_Tree_iterator@V?$_Tree_val@U?$_Tree_simple_types@U?$pair@$$CBKUSNetworkActorData@@@std@@@std@@@std@@@1@V?$_Tree_const_iterator@V?$_Tree_val@U?$_Tree_simple_types@U?$pair@$$CBKUSNetworkActorData@@@std@@@std@@@std@@@1@AAU?$pair@$$CBKUSNetworkActorData@@@1@PAU?$_Tree_node@U?$pair@$$CBKUSNetworkActorData@@@std@@PAX@1@@Z$2 DD 040H
	DD	00H
	DD	00H
	DD	FLAT:__catch$??$_Insert_hint@AAU?$pair@$$CBKUSNetworkActorData@@@std@@PAU?$_Tree_node@U?$pair@$$CBKUSNetworkActorData@@@std@@PAX@2@@?$_Tree@V?$_Tmap_traits@KUSNetworkActorData@@U?$less@K@std@@V?$allocator@U?$pair@$$CBKUSNetworkActorData@@@std@@@3@$0A@@std@@@std@@IAE?AV?$_Tree_iterator@V?$_Tree_val@U?$_Tree_simple_types@U?$pair@$$CBKUSNetworkActorData@@@std@@@std@@@std@@@1@V?$_Tree_const_iterator@V?$_Tree_val@U?$_Tree_simple_types@U?$pair@$$CBKUSNetworkActorData@@@std@@@std@@@std@@@1@AAU?$pair@$$CBKUSNetworkActorData@@@1@PAU?$_Tree_node@U?$pair@$$CBKUSNetworkActorData@@@std@@PAX@1@@Z$0
xdata$x	ENDS
;	COMDAT xdata$x
xdata$x	SEGMENT
__ehfuncinfo$??$construct@U?$pair@$$CBKUSNetworkActorData@@@std@@ABUpiecewise_construct_t@2@V?$tuple@ABK@2@V?$tuple@$$$V@2@@?$_Wrap_alloc@V?$allocator@U?$_Tree_node@U?$pair@$$CBKUSNetworkActorData@@@std@@PAX@std@@@std@@@std@@QAEXPAU?$pair@$$CBKUSNetworkActorData@@@1@ABUpiecewise_construct_t@1@$$QAV?$tuple@ABK@1@$$QAV?$tuple@$$$V@1@@Z DD 019930522H
	DD	01H
	DD	FLAT:__unwindtable$??$construct@U?$pair@$$CBKUSNetworkActorData@@@std@@ABUpiecewise_construct_t@2@V?$tuple@ABK@2@V?$tuple@$$$V@2@@?$_Wrap_alloc@V?$allocator@U?$_Tree_node@U?$pair@$$CBKUSNetworkActorData@@@std@@PAX@std@@@std@@@std@@QAEXPAU?$pair@$$CBKUSNetworkActorData@@@1@ABUpiecewise_construct_t@1@$$QAV?$tuple@ABK@1@$$QAV?$tuple@$$$V@1@@Z
	DD	2 DUP(00H)
	DD	2 DUP(00H)
	DD	00H
	DD	01H
__unwindtable$??$construct@U?$pair@$$CBKUSNetworkActorData@@@std@@ABUpiecewise_construct_t@2@V?$tuple@ABK@2@V?$tuple@$$$V@2@@?$_Wrap_alloc@V?$allocator@U?$_Tree_node@U?$pair@$$CBKUSNetworkActorData@@@std@@PAX@std@@@std@@@std@@QAEXPAU?$pair@$$CBKUSNetworkActorData@@@1@ABUpiecewise_construct_t@1@$$QAV?$tuple@ABK@1@$$QAV?$tuple@$$$V@1@@Z DD 0ffffffffH
	DD	FLAT:__unwindfunclet$??$construct@U?$pair@$$CBKUSNetworkActorData@@@std@@ABUpiecewise_construct_t@2@V?$tuple@ABK@2@V?$tuple@$$$V@2@@?$_Wrap_alloc@V?$allocator@U?$_Tree_node@U?$pair@$$CBKUSNetworkActorData@@@std@@PAX@std@@@std@@@std@@QAEXPAU?$pair@$$CBKUSNetworkActorData@@@1@ABUpiecewise_construct_t@1@$$QAV?$tuple@ABK@1@$$QAV?$tuple@$$$V@1@@Z$0
xdata$x	ENDS
;	COMDAT xdata$x
xdata$x	SEGMENT
__ehfuncinfo$??$_Insert_nohint@AAU?$pair@$$CBKUSNetworkActorData@@@std@@PAU?$_Tree_node@U?$pair@$$CBKUSNetworkActorData@@@std@@PAX@2@@?$_Tree@V?$_Tmap_traits@KUSNetworkActorData@@U?$less@K@std@@V?$allocator@U?$pair@$$CBKUSNetworkActorData@@@std@@@3@$0A@@std@@@std@@IAE?AU?$pair@V?$_Tree_iterator@V?$_Tree_val@U?$_Tree_simple_types@U?$pair@$$CBKUSNetworkActorData@@@std@@@std@@@std@@@std@@_N@1@_NAAU?$pair@$$CBKUSNetworkActorData@@@1@PAU?$_Tree_node@U?$pair@$$CBKUSNetworkActorData@@@std@@PAX@1@@Z DD 019930522H
	DD	02H
	DD	FLAT:__unwindtable$??$_Insert_nohint@AAU?$pair@$$CBKUSNetworkActorData@@@std@@PAU?$_Tree_node@U?$pair@$$CBKUSNetworkActorData@@@std@@PAX@2@@?$_Tree@V?$_Tmap_traits@KUSNetworkActorData@@U?$less@K@std@@V?$allocator@U?$pair@$$CBKUSNetworkActorData@@@std@@@3@$0A@@std@@@std@@IAE?AU?$pair@V?$_Tree_iterator@V?$_Tree_val@U?$_Tree_simple_types@U?$pair@$$CBKUSNetworkActorData@@@std@@@std@@@std@@@std@@_N@1@_NAAU?$pair@$$CBKUSNetworkActorData@@@1@PAU?$_Tree_node@U?$pair@$$CBKUSNetworkActorData@@@std@@PAX@1@@Z
	DD	01H
	DD	FLAT:__tryblocktable$??$_Insert_nohint@AAU?$pair@$$CBKUSNetworkActorData@@@std@@PAU?$_Tree_node@U?$pair@$$CBKUSNetworkActorData@@@std@@PAX@2@@?$_Tree@V?$_Tmap_traits@KUSNetworkActorData@@U?$less@K@std@@V?$allocator@U?$pair@$$CBKUSNetworkActorData@@@std@@@3@$0A@@std@@@std@@IAE?AU?$pair@V?$_Tree_iterator@V?$_Tree_val@U?$_Tree_simple_types@U?$pair@$$CBKUSNetworkActorData@@@std@@@std@@@std@@@std@@_N@1@_NAAU?$pair@$$CBKUSNetworkActorData@@@1@PAU?$_Tree_node@U?$pair@$$CBKUSNetworkActorData@@@std@@PAX@1@@Z
	DD	2 DUP(00H)
	DD	00H
	DD	01H
__unwindtable$??$_Insert_nohint@AAU?$pair@$$CBKUSNetworkActorData@@@std@@PAU?$_Tree_node@U?$pair@$$CBKUSNetworkActorData@@@std@@PAX@2@@?$_Tree@V?$_Tmap_traits@KUSNetworkActorData@@U?$less@K@std@@V?$allocator@U?$pair@$$CBKUSNetworkActorData@@@std@@@3@$0A@@std@@@std@@IAE?AU?$pair@V?$_Tree_iterator@V?$_Tree_val@U?$_Tree_simple_types@U?$pair@$$CBKUSNetworkActorData@@@std@@@std@@@std@@@std@@_N@1@_NAAU?$pair@$$CBKUSNetworkActorData@@@1@PAU?$_Tree_node@U?$pair@$$CBKUSNetworkActorData@@@std@@PAX@1@@Z DD 0ffffffffH
	DD	00H
	DD	0ffffffffH
	DD	00H
__tryblocktable$??$_Insert_nohint@AAU?$pair@$$CBKUSNetworkActorData@@@std@@PAU?$_Tree_node@U?$pair@$$CBKUSNetworkActorData@@@std@@PAX@2@@?$_Tree@V?$_Tmap_traits@KUSNetworkActorData@@U?$less@K@std@@V?$allocator@U?$pair@$$CBKUSNetworkActorData@@@std@@@3@$0A@@std@@@std@@IAE?AU?$pair@V?$_Tree_iterator@V?$_Tree_val@U?$_Tree_simple_types@U?$pair@$$CBKUSNetworkActorData@@@std@@@std@@@std@@@std@@_N@1@_NAAU?$pair@$$CBKUSNetworkActorData@@@1@PAU?$_Tree_node@U?$pair@$$CBKUSNetworkActorData@@@std@@PAX@1@@Z DD 00H
	DD	00H
	DD	01H
	DD	01H
	DD	FLAT:__catchsym$??$_Insert_nohint@AAU?$pair@$$CBKUSNetworkActorData@@@std@@PAU?$_Tree_node@U?$pair@$$CBKUSNetworkActorData@@@std@@PAX@2@@?$_Tree@V?$_Tmap_traits@KUSNetworkActorData@@U?$less@K@std@@V?$allocator@U?$pair@$$CBKUSNetworkActorData@@@std@@@3@$0A@@std@@@std@@IAE?AU?$pair@V?$_Tree_iterator@V?$_Tree_val@U?$_Tree_simple_types@U?$pair@$$CBKUSNetworkActorData@@@std@@@std@@@std@@@std@@_N@1@_NAAU?$pair@$$CBKUSNetworkActorData@@@1@PAU?$_Tree_node@U?$pair@$$CBKUSNetworkActorData@@@std@@PAX@1@@Z$2
__catchsym$??$_Insert_nohint@AAU?$pair@$$CBKUSNetworkActorData@@@std@@PAU?$_Tree_node@U?$pair@$$CBKUSNetworkActorData@@@std@@PAX@2@@?$_Tree@V?$_Tmap_traits@KUSNetworkActorData@@U?$less@K@std@@V?$allocator@U?$pair@$$CBKUSNetworkActorData@@@std@@@3@$0A@@std@@@std@@IAE?AU?$pair@V?$_Tree_iterator@V?$_Tree_val@U?$_Tree_simple_types@U?$pair@$$CBKUSNetworkActorData@@@std@@@std@@@std@@@std@@_N@1@_NAAU?$pair@$$CBKUSNetworkActorData@@@1@PAU?$_Tree_node@U?$pair@$$CBKUSNetworkActorData@@@std@@PAX@1@@Z$2 DD 040H
	DD	00H
	DD	00H
	DD	FLAT:__catch$??$_Insert_nohint@AAU?$pair@$$CBKUSNetworkActorData@@@std@@PAU?$_Tree_node@U?$pair@$$CBKUSNetworkActorData@@@std@@PAX@2@@?$_Tree@V?$_Tmap_traits@KUSNetworkActorData@@U?$less@K@std@@V?$allocator@U?$pair@$$CBKUSNetworkActorData@@@std@@@3@$0A@@std@@@std@@IAE?AU?$pair@V?$_Tree_iterator@V?$_Tree_val@U?$_Tree_simple_types@U?$pair@$$CBKUSNetworkActorData@@@std@@@std@@@std@@@std@@_N@1@_NAAU?$pair@$$CBKUSNetworkActorData@@@1@PAU?$_Tree_node@U?$pair@$$CBKUSNetworkActorData@@@std@@PAX@1@@Z$0
xdata$x	ENDS
;	COMDAT xdata$x
xdata$x	SEGMENT
__ehfuncinfo$??$construct@U?$pair@$$CBKUSNetworkActorData@@@std@@ABUpiecewise_construct_t@2@V?$tuple@ABK@2@V?$tuple@$$$V@2@@?$allocator_traits@V?$allocator@U?$_Tree_node@U?$pair@$$CBKUSNetworkActorData@@@std@@PAX@std@@@std@@@std@@SAXAAV?$allocator@U?$_Tree_node@U?$pair@$$CBKUSNetworkActorData@@@std@@PAX@std@@@1@PAU?$pair@$$CBKUSNetworkActorData@@@1@ABUpiecewise_construct_t@1@$$QAV?$tuple@ABK@1@$$QAV?$tuple@$$$V@1@@Z DD 019930522H
	DD	01H
	DD	FLAT:__unwindtable$??$construct@U?$pair@$$CBKUSNetworkActorData@@@std@@ABUpiecewise_construct_t@2@V?$tuple@ABK@2@V?$tuple@$$$V@2@@?$allocator_traits@V?$allocator@U?$_Tree_node@U?$pair@$$CBKUSNetworkActorData@@@std@@PAX@std@@@std@@@std@@SAXAAV?$allocator@U?$_Tree_node@U?$pair@$$CBKUSNetworkActorData@@@std@@PAX@std@@@1@PAU?$pair@$$CBKUSNetworkActorData@@@1@ABUpiecewise_construct_t@1@$$QAV?$tuple@ABK@1@$$QAV?$tuple@$$$V@1@@Z
	DD	2 DUP(00H)
	DD	2 DUP(00H)
	DD	00H
	DD	01H
__unwindtable$??$construct@U?$pair@$$CBKUSNetworkActorData@@@std@@ABUpiecewise_construct_t@2@V?$tuple@ABK@2@V?$tuple@$$$V@2@@?$allocator_traits@V?$allocator@U?$_Tree_node@U?$pair@$$CBKUSNetworkActorData@@@std@@PAX@std@@@std@@@std@@SAXAAV?$allocator@U?$_Tree_node@U?$pair@$$CBKUSNetworkActorData@@@std@@PAX@std@@@1@PAU?$pair@$$CBKUSNetworkActorData@@@1@ABUpiecewise_construct_t@1@$$QAV?$tuple@ABK@1@$$QAV?$tuple@$$$V@1@@Z DD 0ffffffffH
	DD	FLAT:__unwindfunclet$??$construct@U?$pair@$$CBKUSNetworkActorData@@@std@@ABUpiecewise_construct_t@2@V?$tuple@ABK@2@V?$tuple@$$$V@2@@?$allocator_traits@V?$allocator@U?$_Tree_node@U?$pair@$$CBKUSNetworkActorData@@@std@@PAX@std@@@std@@@std@@SAXAAV?$allocator@U?$_Tree_node@U?$pair@$$CBKUSNetworkActorData@@@std@@PAX@std@@@1@PAU?$pair@$$CBKUSNetworkActorData@@@1@ABUpiecewise_construct_t@1@$$QAV?$tuple@ABK@1@$$QAV?$tuple@$$$V@1@@Z$0
xdata$x	ENDS
;	COMDAT xdata$x
xdata$x	SEGMENT
__ehfuncinfo$??$construct@U?$pair@$$CBKUSNetworkActorData@@@std@@ABUpiecewise_construct_t@2@V?$tuple@ABK@2@V?$tuple@$$$V@2@@?$allocator@U?$_Tree_node@U?$pair@$$CBKUSNetworkActorData@@@std@@PAX@std@@@std@@QAEXPAU?$pair@$$CBKUSNetworkActorData@@@1@ABUpiecewise_construct_t@1@$$QAV?$tuple@ABK@1@$$QAV?$tuple@$$$V@1@@Z DD 019930522H
	DD	01H
	DD	FLAT:__unwindtable$??$construct@U?$pair@$$CBKUSNetworkActorData@@@std@@ABUpiecewise_construct_t@2@V?$tuple@ABK@2@V?$tuple@$$$V@2@@?$allocator@U?$_Tree_node@U?$pair@$$CBKUSNetworkActorData@@@std@@PAX@std@@@std@@QAEXPAU?$pair@$$CBKUSNetworkActorData@@@1@ABUpiecewise_construct_t@1@$$QAV?$tuple@ABK@1@$$QAV?$tuple@$$$V@1@@Z
	DD	2 DUP(00H)
	DD	2 DUP(00H)
	DD	00H
	DD	01H
__unwindtable$??$construct@U?$pair@$$CBKUSNetworkActorData@@@std@@ABUpiecewise_construct_t@2@V?$tuple@ABK@2@V?$tuple@$$$V@2@@?$allocator@U?$_Tree_node@U?$pair@$$CBKUSNetworkActorData@@@std@@PAX@std@@@std@@QAEXPAU?$pair@$$CBKUSNetworkActorData@@@1@ABUpiecewise_construct_t@1@$$QAV?$tuple@ABK@1@$$QAV?$tuple@$$$V@1@@Z DD 0ffffffffH
	DD	FLAT:__unwindfunclet$??$construct@U?$pair@$$CBKUSNetworkActorData@@@std@@ABUpiecewise_construct_t@2@V?$tuple@ABK@2@V?$tuple@$$$V@2@@?$allocator@U?$_Tree_node@U?$pair@$$CBKUSNetworkActorData@@@std@@PAX@std@@@std@@QAEXPAU?$pair@$$CBKUSNetworkActorData@@@1@ABUpiecewise_construct_t@1@$$QAV?$tuple@ABK@1@$$QAV?$tuple@$$$V@1@@Z$0
; Function compile flags: /Ogtp
; File d:\metin2\metin2\client_source_clean\client_source_clean\source\userinterface\networkactormanager.cpp
;	COMDAT ?UpdatePosition@SNetworkActorData@@QAEXXZ
_TEXT	SEGMENT
?UpdatePosition@SNetworkActorData@@QAEXXZ PROC		; SNetworkActorData::UpdatePosition, COMDAT
; _this$ = ecx

; 9    : {

  00000	56		 push	 esi
  00001	8b f1		 mov	 esi, ecx

; 10   : 	DWORD dwClientCurTime=ELTimer_GetMSec();

  00003	e8 00 00 00 00	 call	 ?ELTimer_GetMSec@@YAKXZ	; ELTimer_GetMSec

; 11   : 	DWORD dwElapsedTime=dwClientCurTime-m_dwClientSrcTime;

  00008	2b 46 5c	 sub	 eax, DWORD PTR [esi+92]

; 12   : 
; 13   : 	if (dwElapsedTime<m_dwDuration)

  0000b	8b 4e 60	 mov	 ecx, DWORD PTR [esi+96]
  0000e	3b c1		 cmp	 eax, ecx
  00010	0f 83 80 00 00
	00		 jae	 $LN2@UpdatePosi

; 14   : 	{
; 15   : 		float fRate=float(dwElapsedTime)/float(m_dwDuration);

  00016	66 0f 6e c0	 movd	 xmm0, eax
  0001a	f3 0f e6 c0	 cvtdq2pd xmm0, xmm0
  0001e	c1 e8 1f	 shr	 eax, 31			; 0000001fH
  00021	f2 0f 58 04 c5
	00 00 00 00	 addsd	 xmm0, QWORD PTR __xmm@41f00000000000000000000000000000[eax*8]

; 16   : 		m_lCurX=LONG((m_lDstX-m_lSrcX)*fRate+m_lSrcX);

  0002a	8b 46 50	 mov	 eax, DWORD PTR [esi+80]
  0002d	66 0f 5a d0	 cvtpd2ps xmm2, xmm0
  00031	66 0f 6e c1	 movd	 xmm0, ecx
  00035	f3 0f e6 c0	 cvtdq2pd xmm0, xmm0
  00039	c1 e9 1f	 shr	 ecx, 31			; 0000001fH
  0003c	f2 0f 58 04 cd
	00 00 00 00	 addsd	 xmm0, QWORD PTR __xmm@41f00000000000000000000000000000[ecx*8]
  00045	8b 4e 48	 mov	 ecx, DWORD PTR [esi+72]
  00048	2b c1		 sub	 eax, ecx
  0004a	66 0f 5a c0	 cvtpd2ps xmm0, xmm0
  0004e	66 0f 6e c8	 movd	 xmm1, eax
  00052	f3 0f 5e d0	 divss	 xmm2, xmm0
  00056	0f 5b c9	 cvtdq2ps xmm1, xmm1
  00059	66 0f 6e c1	 movd	 xmm0, ecx

; 17   : 		m_lCurY=LONG((m_lDstY-m_lSrcY)*fRate+m_lSrcY);

  0005d	8b 4e 4c	 mov	 ecx, DWORD PTR [esi+76]
  00060	f3 0f 59 ca	 mulss	 xmm1, xmm2
  00064	0f 5b c0	 cvtdq2ps xmm0, xmm0
  00067	f3 0f 58 c8	 addss	 xmm1, xmm0
  0006b	66 0f 6e c1	 movd	 xmm0, ecx
  0006f	0f 5b c0	 cvtdq2ps xmm0, xmm0
  00072	f3 0f 2c c1	 cvttss2si eax, xmm1
  00076	89 46 40	 mov	 DWORD PTR [esi+64], eax
  00079	8b 46 54	 mov	 eax, DWORD PTR [esi+84]
  0007c	2b c1		 sub	 eax, ecx
  0007e	66 0f 6e c8	 movd	 xmm1, eax
  00082	0f 5b c9	 cvtdq2ps xmm1, xmm1
  00085	f3 0f 59 ca	 mulss	 xmm1, xmm2
  00089	f3 0f 58 c8	 addss	 xmm1, xmm0
  0008d	f3 0f 2c c1	 cvttss2si eax, xmm1

; 22   : 		m_lCurY=m_lDstY;

  00091	89 46 44	 mov	 DWORD PTR [esi+68], eax
  00094	5e		 pop	 esi

; 23   : 	}
; 24   : }

  00095	c3		 ret	 0
$LN2@UpdatePosi:

; 18   : 	}
; 19   : 	else
; 20   : 	{
; 21   : 		m_lCurX=m_lDstX;

  00096	8b 46 50	 mov	 eax, DWORD PTR [esi+80]
  00099	89 46 40	 mov	 DWORD PTR [esi+64], eax

; 22   : 		m_lCurY=m_lDstY;

  0009c	8b 46 54	 mov	 eax, DWORD PTR [esi+84]
  0009f	89 46 44	 mov	 DWORD PTR [esi+68], eax
  000a2	5e		 pop	 esi

; 23   : 	}
; 24   : }

  000a3	c3		 ret	 0
?UpdatePosition@SNetworkActorData@@QAEXXZ ENDP		; SNetworkActorData::UpdatePosition
_TEXT	ENDS
; Function compile flags: /Ogtp
; File d:\metin2\metin2\client_source_clean\client_source_clean\source\userinterface\networkactormanager.cpp
;	COMDAT ?SetDstPosition@SNetworkActorData@@QAEXKJJK@Z
_TEXT	SEGMENT
_dwServerTime$ = 8					; size = 4
_lDstX$ = 12						; size = 4
_lDstY$ = 16						; size = 4
_dwDuration$ = 20					; size = 4
?SetDstPosition@SNetworkActorData@@QAEXKJJK@Z PROC	; SNetworkActorData::SetDstPosition, COMDAT
; _this$ = ecx

; 27   : {

  00000	55		 push	 ebp
  00001	8b ec		 mov	 ebp, esp
  00003	56		 push	 esi
  00004	8b f1		 mov	 esi, ecx

; 28   : 	m_lSrcX=m_lCurX;

  00006	8b 46 40	 mov	 eax, DWORD PTR [esi+64]
  00009	89 46 48	 mov	 DWORD PTR [esi+72], eax

; 29   : 	m_lSrcY=m_lCurY;

  0000c	8b 46 44	 mov	 eax, DWORD PTR [esi+68]
  0000f	89 46 4c	 mov	 DWORD PTR [esi+76], eax

; 30   : 	m_lDstX=lDstX;

  00012	8b 45 0c	 mov	 eax, DWORD PTR _lDstX$[ebp]
  00015	89 46 50	 mov	 DWORD PTR [esi+80], eax

; 31   : 	m_lDstY=lDstY;

  00018	8b 45 10	 mov	 eax, DWORD PTR _lDstY$[ebp]
  0001b	89 46 54	 mov	 DWORD PTR [esi+84], eax

; 32   : 
; 33   : 	m_dwDuration=dwDuration;

  0001e	8b 45 14	 mov	 eax, DWORD PTR _dwDuration$[ebp]
  00021	89 46 60	 mov	 DWORD PTR [esi+96], eax

; 34   : 	m_dwServerSrcTime=dwServerTime;

  00024	8b 45 08	 mov	 eax, DWORD PTR _dwServerTime$[ebp]
  00027	89 46 58	 mov	 DWORD PTR [esi+88], eax

; 35   : 	m_dwClientSrcTime=ELTimer_GetMSec();		

  0002a	e8 00 00 00 00	 call	 ?ELTimer_GetMSec@@YAKXZ	; ELTimer_GetMSec
  0002f	89 46 5c	 mov	 DWORD PTR [esi+92], eax
  00032	5e		 pop	 esi

; 36   : }

  00033	5d		 pop	 ebp
  00034	c2 10 00	 ret	 16			; 00000010H
?SetDstPosition@SNetworkActorData@@QAEXKJJK@Z ENDP	; SNetworkActorData::SetDstPosition
_TEXT	ENDS
; Function compile flags: /Ogtp
; File d:\metin2\metin2\client_source_clean\client_source_clean\source\userinterface\networkactormanager.cpp
;	COMDAT ?SetPosition@SNetworkActorData@@QAEXJJ@Z
_TEXT	SEGMENT
_lPosX$ = 8						; size = 4
_lPosY$ = 12						; size = 4
?SetPosition@SNetworkActorData@@QAEXJJ@Z PROC		; SNetworkActorData::SetPosition, COMDAT
; _this$ = ecx

; 39   : {

  00000	55		 push	 ebp
  00001	8b ec		 mov	 ebp, esp

; 40   : 	m_lDstX=m_lSrcX=m_lCurX=lPosX;

  00003	8b 45 08	 mov	 eax, DWORD PTR _lPosX$[ebp]
  00006	89 41 40	 mov	 DWORD PTR [ecx+64], eax
  00009	89 41 48	 mov	 DWORD PTR [ecx+72], eax
  0000c	89 41 50	 mov	 DWORD PTR [ecx+80], eax

; 41   : 	m_lDstY=m_lSrcY=m_lCurY=lPosY;

  0000f	8b 45 0c	 mov	 eax, DWORD PTR _lPosY$[ebp]
  00012	89 41 44	 mov	 DWORD PTR [ecx+68], eax
  00015	89 41 4c	 mov	 DWORD PTR [ecx+76], eax
  00018	89 41 54	 mov	 DWORD PTR [ecx+84], eax

; 42   : }

  0001b	5d		 pop	 ebp
  0001c	c2 08 00	 ret	 8
?SetPosition@SNetworkActorData@@QAEXJJ@Z ENDP		; SNetworkActorData::SetPosition
_TEXT	ENDS
; Function compile flags: /Ogtp
; File d:\metin2\metin2\client_source_clean\client_source_clean\source\userinterface\networkactormanager.cpp
; File c:\program files (x86)\microsoft visual studio 12.0\vc\include\xstring
; File c:\program files (x86)\microsoft visual studio 12.0\vc\include\iosfwd
; File d:\metin2\metin2\client_source_clean\client_source_clean\source\userinterface\networkactormanager.cpp
;	COMDAT ??0SNetworkActorData@@QAE@ABU0@@Z
_TEXT	SEGMENT
_this$ = -16						; size = 4
__$EHRec$ = -12						; size = 12
_src$dead$ = 8						; size = 4
??0SNetworkActorData@@QAE@ABU0@@Z PROC			; SNetworkActorData::SNetworkActorData, COMDAT
; _this$ = ecx

; 46   : {

  00000	55		 push	 ebp
  00001	8b ec		 mov	 ebp, esp
  00003	6a ff		 push	 -1
  00005	68 00 00 00 00	 push	 __ehhandler$??0SNetworkActorData@@QAE@ABU0@@Z
  0000a	64 a1 00 00 00
	00		 mov	 eax, DWORD PTR fs:0
  00010	50		 push	 eax
  00011	51		 push	 ecx
  00012	56		 push	 esi
  00013	a1 00 00 00 00	 mov	 eax, DWORD PTR ___security_cookie
  00018	33 c5		 xor	 eax, ebp
  0001a	50		 push	 eax
  0001b	8d 45 f4	 lea	 eax, DWORD PTR __$EHRec$[ebp]
  0001e	64 a3 00 00 00
	00		 mov	 DWORD PTR fs:0, eax
  00024	8b f1		 mov	 esi, ecx
  00026	89 75 f0	 mov	 DWORD PTR _this$[ebp], esi
; File c:\program files (x86)\microsoft visual studio 12.0\vc\include\xstring

; 2284 : 		this->_Myres = this->_BUF_SIZE - 1;

  00029	c7 46 14 0f 00
	00 00		 mov	 DWORD PTR [esi+20], 15	; 0000000fH

; 2237 : 		_Traits::assign(this->_Myptr()[this->_Mysize = _Newsize], _Elem());

  00030	c7 46 10 00 00
	00 00		 mov	 DWORD PTR [esi+16], 0
; File c:\program files (x86)\microsoft visual studio 12.0\vc\include\iosfwd

; 564  : 		_Left = _Right;

  00037	c6 06 00	 mov	 BYTE PTR [esi], 0
; File d:\metin2\metin2\client_source_clean\client_source_clean\source\userinterface\networkactormanager.cpp

; 46   : {

  0003a	8d 4e 18	 lea	 ecx, DWORD PTR [esi+24]
  0003d	c7 45 fc 00 00
	00 00		 mov	 DWORD PTR __$EHRec$[ebp+8], 0
  00044	e8 00 00 00 00	 call	 ??0CAffectFlagContainer@@QAE@XZ ; CAffectFlagContainer::CAffectFlagContainer

; 47   : 	__copy__(src);

  00049	68 00 00 00 00	 push	 OFFSET _s_kNetActorData
  0004e	8b ce		 mov	 ecx, esi
  00050	e8 00 00 00 00	 call	 ?__copy__@SNetworkActorData@@QAEXABU1@@Z ; SNetworkActorData::__copy__

; 48   : }

  00055	8b c6		 mov	 eax, esi
  00057	8b 4d f4	 mov	 ecx, DWORD PTR __$EHRec$[ebp]
  0005a	64 89 0d 00 00
	00 00		 mov	 DWORD PTR fs:0, ecx
  00061	59		 pop	 ecx
  00062	5e		 pop	 esi
  00063	8b e5		 mov	 esp, ebp
  00065	5d		 pop	 ebp
  00066	c2 04 00	 ret	 4
_TEXT	ENDS
;	COMDAT text$x
text$x	SEGMENT
__unwindfunclet$??0SNetworkActorData@@QAE@ABU0@@Z$0:
  00000	8b 4d f0	 mov	 ecx, DWORD PTR _this$[ebp]
  00003	e9 00 00 00 00	 jmp	 ??1?$basic_string@DU?$char_traits@D@std@@V?$allocator@D@2@@std@@QAE@XZ ; std::basic_string<char,std::char_traits<char>,std::allocator<char> >::~basic_string<char,std::char_traits<char>,std::allocator<char> >
__ehhandler$??0SNetworkActorData@@QAE@ABU0@@Z:
  00008	8b 54 24 08	 mov	 edx, DWORD PTR [esp+8]
  0000c	8d 42 0c	 lea	 eax, DWORD PTR [edx+12]
  0000f	8b 4a f4	 mov	 ecx, DWORD PTR [edx-12]
  00012	33 c8		 xor	 ecx, eax
  00014	e8 00 00 00 00	 call	 @__security_check_cookie@4
  00019	b8 00 00 00 00	 mov	 eax, OFFSET __ehfuncinfo$??0SNetworkActorData@@QAE@ABU0@@Z
  0001e	e9 00 00 00 00	 jmp	 ___CxxFrameHandler3
text$x	ENDS
??0SNetworkActorData@@QAE@ABU0@@Z ENDP			; SNetworkActorData::SNetworkActorData
; Function compile flags: /Ogtp
; File d:\metin2\metin2\client_source_clean\client_source_clean\source\userinterface\networkactormanager.cpp
;	COMDAT ??4SNetworkActorData@@QAEXABU0@@Z
_TEXT	SEGMENT
_src$ = 8						; size = 4
??4SNetworkActorData@@QAEXABU0@@Z PROC			; SNetworkActorData::operator=, COMDAT
; _this$ = ecx

; 51   : {

  00000	55		 push	 ebp
  00001	8b ec		 mov	 ebp, esp

; 53   : }

  00003	5d		 pop	 ebp

; 52   : 	__copy__(src);

  00004	e9 00 00 00 00	 jmp	 ?__copy__@SNetworkActorData@@QAEXABU1@@Z ; SNetworkActorData::__copy__
??4SNetworkActorData@@QAEXABU0@@Z ENDP			; SNetworkActorData::operator=
_TEXT	ENDS
; Function compile flags: /Ogtp
; File d:\metin2\metin2\client_source_clean\client_source_clean\source\userinterface\networkactormanager.cpp
; File c:\program files (x86)\microsoft visual studio 12.0\vc\include\xstring
; File d:\metin2\metin2\client_source_clean\client_source_clean\source\userinterface\networkactormanager.cpp
;	COMDAT ?__copy__@SNetworkActorData@@QAEXABU1@@Z
_TEXT	SEGMENT
_src$ = 8						; size = 4
?__copy__@SNetworkActorData@@QAEXABU1@@Z PROC		; SNetworkActorData::__copy__, COMDAT
; _this$ = ecx

; 56   : {

  00000	55		 push	 ebp
  00001	8b ec		 mov	 ebp, esp
  00003	56		 push	 esi
  00004	8b f1		 mov	 esi, ecx
  00006	57		 push	 edi

; 57   : 	m_bType = src.m_bType;

  00007	8b 7d 08	 mov	 edi, DWORD PTR _src$[ebp]

; 58   : 	m_dwVID = src.m_dwVID;
; 59   : 	m_dwStateFlags = src.m_dwStateFlags;
; 60   : 	m_dwEmpireID = src.m_dwEmpireID;
; 61   : 	m_dwRace = src.m_dwRace;
; 62   : 	m_dwMovSpd = src.m_dwMovSpd;
; 63   : 	m_dwAtkSpd = src.m_dwAtkSpd;
; 64   : 	m_fRot = src.m_fRot;
; 65   : 	m_lCurX = src.m_lCurX;
; 66   : 	m_lCurY = src.m_lCurY;
; 67   : 	m_lSrcX = src.m_lSrcX;
; 68   : 	m_lSrcY = src.m_lSrcY;
; 69   : 	m_lDstX = src.m_lDstX;
; 70   : 	m_lDstY = src.m_lDstY;
; 71   : 	m_kAffectFlags.CopyInstance(src.m_kAffectFlags);

  0000a	8d 4e 18	 lea	 ecx, DWORD PTR [esi+24]
  0000d	0f b6 47 20	 movzx	 eax, BYTE PTR [edi+32]
  00011	88 46 20	 mov	 BYTE PTR [esi+32], al
  00014	8b 47 24	 mov	 eax, DWORD PTR [edi+36]
  00017	89 46 24	 mov	 DWORD PTR [esi+36], eax
  0001a	8b 47 28	 mov	 eax, DWORD PTR [edi+40]
  0001d	89 46 28	 mov	 DWORD PTR [esi+40], eax
  00020	8b 47 2c	 mov	 eax, DWORD PTR [edi+44]
  00023	89 46 2c	 mov	 DWORD PTR [esi+44], eax
  00026	8b 47 30	 mov	 eax, DWORD PTR [edi+48]
  00029	89 46 30	 mov	 DWORD PTR [esi+48], eax
  0002c	8b 47 34	 mov	 eax, DWORD PTR [edi+52]
  0002f	89 46 34	 mov	 DWORD PTR [esi+52], eax
  00032	8b 47 38	 mov	 eax, DWORD PTR [edi+56]
  00035	89 46 38	 mov	 DWORD PTR [esi+56], eax
  00038	8b 47 3c	 mov	 eax, DWORD PTR [edi+60]
  0003b	89 46 3c	 mov	 DWORD PTR [esi+60], eax
  0003e	8b 47 40	 mov	 eax, DWORD PTR [edi+64]
  00041	89 46 40	 mov	 DWORD PTR [esi+64], eax
  00044	8b 47 44	 mov	 eax, DWORD PTR [edi+68]
  00047	89 46 44	 mov	 DWORD PTR [esi+68], eax
  0004a	8b 47 48	 mov	 eax, DWORD PTR [edi+72]
  0004d	89 46 48	 mov	 DWORD PTR [esi+72], eax
  00050	8b 47 4c	 mov	 eax, DWORD PTR [edi+76]
  00053	89 46 4c	 mov	 DWORD PTR [esi+76], eax
  00056	8b 47 50	 mov	 eax, DWORD PTR [edi+80]
  00059	89 46 50	 mov	 DWORD PTR [esi+80], eax
  0005c	8b 47 54	 mov	 eax, DWORD PTR [edi+84]
  0005f	89 46 54	 mov	 DWORD PTR [esi+84], eax
  00062	8d 47 18	 lea	 eax, DWORD PTR [edi+24]
  00065	50		 push	 eax
  00066	e8 00 00 00 00	 call	 ?CopyInstance@CAffectFlagContainer@@QAEXABV1@@Z ; CAffectFlagContainer::CopyInstance

; 72   : 	
; 73   : 	m_dwServerSrcTime = src.m_dwServerSrcTime;

  0006b	8b 47 58	 mov	 eax, DWORD PTR [edi+88]
  0006e	89 46 58	 mov	 DWORD PTR [esi+88], eax

; 74   : 	m_dwClientSrcTime = src.m_dwClientSrcTime;

  00071	8b 47 5c	 mov	 eax, DWORD PTR [edi+92]
  00074	89 46 5c	 mov	 DWORD PTR [esi+92], eax

; 75   : 	m_dwDuration = src.m_dwDuration;

  00077	8b 47 60	 mov	 eax, DWORD PTR [edi+96]
  0007a	89 46 60	 mov	 DWORD PTR [esi+96], eax

; 76   : 
; 77   : 	m_dwArmor = src.m_dwArmor;

  0007d	8b 47 64	 mov	 eax, DWORD PTR [edi+100]
  00080	89 46 64	 mov	 DWORD PTR [esi+100], eax

; 78   : 	m_dwWeapon = src.m_dwWeapon;

  00083	8b 47 68	 mov	 eax, DWORD PTR [edi+104]
  00086	89 46 68	 mov	 DWORD PTR [esi+104], eax

; 79   : 	m_dwHair = src.m_dwHair;

  00089	8b 47 6c	 mov	 eax, DWORD PTR [edi+108]
  0008c	89 46 6c	 mov	 DWORD PTR [esi+108], eax

; 80   : 
; 81   : 	m_dwOwnerVID = src.m_dwOwnerVID;

  0008f	8b 47 70	 mov	 eax, DWORD PTR [edi+112]
  00092	89 46 70	 mov	 DWORD PTR [esi+112], eax

; 82   : 
; 83   : 	m_sAlignment = src.m_sAlignment;

  00095	66 8b 47 74	 mov	 ax, WORD PTR [edi+116]
  00099	66 89 46 74	 mov	 WORD PTR [esi+116], ax

; 84   : 	m_byPKMode = src.m_byPKMode;

  0009d	0f b6 47 76	 movzx	 eax, BYTE PTR [edi+118]
  000a1	88 46 76	 mov	 BYTE PTR [esi+118], al

; 85   : 	m_dwMountVnum = src.m_dwMountVnum;

  000a4	8b 47 78	 mov	 eax, DWORD PTR [edi+120]
  000a7	89 46 78	 mov	 DWORD PTR [esi+120], eax

; 86   : 
; 87   : 	m_dwGuildID = src.m_dwGuildID;

  000aa	8b 47 7c	 mov	 eax, DWORD PTR [edi+124]
  000ad	89 46 7c	 mov	 DWORD PTR [esi+124], eax

; 88   : 	m_dwLevel = src.m_dwLevel;

  000b0	8b 87 80 00 00
	00		 mov	 eax, DWORD PTR [edi+128]
  000b6	89 86 80 00 00
	00		 mov	 DWORD PTR [esi+128], eax
; File c:\program files (x86)\microsoft visual studio 12.0\vc\include\xstring

; 998  : 		if (this != &_Right)

  000bc	3b f7		 cmp	 esi, edi
  000be	74 0c		 je	 SHORT $LN55@copy__

; 999  : 			{	// different, assign it
; 1000 : 			if (this->_Getal() != _Right._Getal()
; 1001 : 				&& _Alty::propagate_on_container_copy_assignment::value)
; 1002 : 				{	// change allocator before copying
; 1003 : 				_Tidy(true);
; 1004 : 				this->_Change_alloc(_Right._Getal());
; 1005 : 				}
; 1006 : 
; 1007 : 			assign(_Right);
; 1008 : 			}
; 1009 : 		return (*this);
; 1010 : 		}
; 1011 : 
; 1012 : 	_Myt& operator=(const _Elem *_Ptr)
; 1013 : 		{	// assign [_Ptr, <null>)
; 1014 : 		return (assign(_Ptr));
; 1015 : 		}
; 1016 : 
; 1017 : 	_Myt& operator=(_Elem _Ch)
; 1018 : 		{	// assign 1 * _Ch
; 1019 : 		return (assign(1, _Ch));
; 1020 : 		}
; 1021 : 
; 1022 : 	_Myt& operator+=(const _Myt& _Right)
; 1023 : 		{	// append _Right
; 1024 : 		return (append(_Right));
; 1025 : 		}
; 1026 : 
; 1027 : 	_Myt& operator+=(const _Elem *_Ptr)
; 1028 : 		{	// append [_Ptr, <null>)
; 1029 : 		return (append(_Ptr));
; 1030 : 		}
; 1031 : 
; 1032 : 	_Myt& operator+=(_Elem _Ch)
; 1033 : 		{	// append 1 * _Ch
; 1034 : 		return (append((size_type)1, _Ch));
; 1035 : 		}
; 1036 : 
; 1037 : 	_Myt& append(const _Myt& _Right)
; 1038 : 		{	// append _Right
; 1039 : 		return (append(_Right, 0, npos));
; 1040 : 		}
; 1041 : 
; 1042 : 	_Myt& append(const _Myt& _Right,
; 1043 : 		size_type _Roff, size_type _Count)
; 1044 : 		{	// append _Right [_Roff, _Roff + _Count)
; 1045 : 		if (_Right.size() < _Roff)
; 1046 : 			_Xran();	// _Roff off end
; 1047 : 		size_type _Num = _Right.size() - _Roff;
; 1048 : 		if (_Num < _Count)
; 1049 : 			_Count = _Num;	// trim _Count to size
; 1050 : 		if (npos - this->_Mysize <= _Count)
; 1051 : 			_Xlen();	// result too long
; 1052 : 
; 1053 : 		if (0 < _Count && _Grow(_Num = this->_Mysize + _Count))
; 1054 : 			{	// make room and append new stuff
; 1055 : 			_Traits::copy(this->_Myptr() + this->_Mysize,
; 1056 : 				_Right._Myptr() + _Roff, _Count);
; 1057 : 			_Eos(_Num);
; 1058 : 			}
; 1059 : 		return (*this);
; 1060 : 		}
; 1061 : 
; 1062 : 	_Myt& append(const _Elem *_Ptr, size_type _Count)
; 1063 : 		{	// append [_Ptr, _Ptr + _Count)
; 1064 :  #if _ITERATOR_DEBUG_LEVEL == 2
; 1065 : 		if (_Count != 0)
; 1066 : 			_DEBUG_POINTER(_Ptr);
; 1067 :  #endif /* _ITERATOR_DEBUG_LEVEL == 2 */
; 1068 : 
; 1069 : 		if (_Inside(_Ptr))
; 1070 : 			return (append(*this,
; 1071 : 				_Ptr - this->_Myptr(), _Count));	// substring
; 1072 : 		if (npos - this->_Mysize <= _Count)
; 1073 : 			_Xlen();	// result too long
; 1074 : 
; 1075 : 		size_type _Num;
; 1076 : 		if (0 < _Count && _Grow(_Num = this->_Mysize + _Count))
; 1077 : 			{	// make room and append new stuff
; 1078 : 			_Traits::copy(this->_Myptr() + this->_Mysize, _Ptr, _Count);
; 1079 : 			_Eos(_Num);
; 1080 : 			}
; 1081 : 		return (*this);
; 1082 : 		}
; 1083 : 
; 1084 : 	_Myt& append(const _Elem *_Ptr)
; 1085 : 		{	// append [_Ptr, <null>)
; 1086 : 		_DEBUG_POINTER(_Ptr);
; 1087 : 		return (append(_Ptr, _Traits::length(_Ptr)));
; 1088 : 		}
; 1089 : 
; 1090 : 	_Myt& append(size_type _Count, _Elem _Ch)
; 1091 : 		{	// append _Count * _Ch
; 1092 : 		if (npos - this->_Mysize <= _Count)
; 1093 : 			_Xlen();	// result too long
; 1094 : 
; 1095 : 		size_type _Num;
; 1096 : 		if (0 < _Count && _Grow(_Num = this->_Mysize + _Count))
; 1097 : 			{	// make room and append new stuff using assign
; 1098 : 			_Chassign(this->_Mysize, _Count, _Ch);
; 1099 : 			_Eos(_Num);
; 1100 : 			}
; 1101 : 		return (*this);
; 1102 : 		}
; 1103 : 
; 1104 : 	template<class _Iter>
; 1105 : 		typename enable_if<_Is_iterator<_Iter>::value,
; 1106 : 			_Myt&>::type
; 1107 : 		append(_Iter _First, _Iter _Last)
; 1108 : 		{	// append [_First, _Last), input iterators
; 1109 : 		return (replace(end(), end(), _First, _Last));
; 1110 : 		}
; 1111 : 
; 1112 : 	_Myt& append(const_pointer _First, const_pointer _Last)
; 1113 : 		{	// append [_First, _Last), const pointers
; 1114 : 		return (replace(end(), end(), _First, _Last));
; 1115 : 		}
; 1116 : 
; 1117 : 	_Myt& append(const_iterator _First, const_iterator _Last)
; 1118 : 		{	// append [_First, _Last), const_iterators
; 1119 : 		return (replace(end(), end(), _First, _Last));
; 1120 : 		}
; 1121 : 
; 1122 : 	_Myt& assign(const _Myt& _Right)
; 1123 : 		{	// assign _Right
; 1124 : 		return (assign(_Right, 0, npos));

  000c0	6a ff		 push	 -1
  000c2	6a 00		 push	 0
  000c4	57		 push	 edi
  000c5	8b ce		 mov	 ecx, esi
  000c7	e8 00 00 00 00	 call	 ?assign@?$basic_string@DU?$char_traits@D@std@@V?$allocator@D@2@@std@@QAEAAV12@ABV12@II@Z ; std::basic_string<char,std::char_traits<char>,std::allocator<char> >::assign
$LN55@copy__:
  000cc	5f		 pop	 edi
  000cd	5e		 pop	 esi
; File d:\metin2\metin2\client_source_clean\client_source_clean\source\userinterface\networkactormanager.cpp

; 90   : }

  000ce	5d		 pop	 ebp
  000cf	c2 04 00	 ret	 4
?__copy__@SNetworkActorData@@QAEXABU1@@Z ENDP		; SNetworkActorData::__copy__
_TEXT	ENDS
; Function compile flags: /Ogtp
; File d:\metin2\metin2\client_source_clean\client_source_clean\source\userinterface\networkactormanager.cpp
; File c:\program files (x86)\microsoft visual studio 12.0\vc\include\xstring
; File c:\program files (x86)\microsoft visual studio 12.0\vc\include\iosfwd
; File d:\metin2\metin2\client_source_clean\client_source_clean\source\userinterface\networkactormanager.cpp
; File c:\program files (x86)\microsoft visual studio 12.0\vc\include\xstring
; File d:\metin2\metin2\client_source_clean\client_source_clean\source\userinterface\networkactormanager.cpp
; File c:\program files (x86)\microsoft visual studio 12.0\vc\include\xstring
; File d:\metin2\metin2\client_source_clean\client_source_clean\source\userinterface\networkactormanager.cpp
;	COMDAT ??0SNetworkActorData@@QAE@XZ
_TEXT	SEGMENT
_this$ = -16						; size = 4
__$EHRec$ = -12						; size = 12
??0SNetworkActorData@@QAE@XZ PROC			; SNetworkActorData::SNetworkActorData, COMDAT
; _this$ = ecx

; 94   : {

  00000	55		 push	 ebp
  00001	8b ec		 mov	 ebp, esp
  00003	6a ff		 push	 -1
  00005	68 00 00 00 00	 push	 __ehhandler$??0SNetworkActorData@@QAE@XZ
  0000a	64 a1 00 00 00
	00		 mov	 eax, DWORD PTR fs:0
  00010	50		 push	 eax
  00011	51		 push	 ecx
  00012	56		 push	 esi
  00013	57		 push	 edi
  00014	a1 00 00 00 00	 mov	 eax, DWORD PTR ___security_cookie
  00019	33 c5		 xor	 eax, ebp
  0001b	50		 push	 eax
  0001c	8d 45 f4	 lea	 eax, DWORD PTR __$EHRec$[ebp]
  0001f	64 a3 00 00 00
	00		 mov	 DWORD PTR fs:0, eax
  00025	8b f9		 mov	 edi, ecx
  00027	89 7d f0	 mov	 DWORD PTR _this$[ebp], edi
; File c:\program files (x86)\microsoft visual studio 12.0\vc\include\xstring

; 2284 : 		this->_Myres = this->_BUF_SIZE - 1;

  0002a	c7 47 14 0f 00
	00 00		 mov	 DWORD PTR [edi+20], 15	; 0000000fH

; 1170 : 		}
; 1171 : 
; 1172 : 	_Myt& assign(size_type _Count, _Elem _Ch)
; 1173 : 		{	// assign _Count * _Ch
; 1174 : 		if (_Count == npos)
; 1175 : 			_Xlen();	// result too long
; 1176 : 
; 1177 : 		if (_Grow(_Count))
; 1178 : 			{	// make room and assign new stuff
; 1179 : 			_Chassign(0, _Count, _Ch);
; 1180 : 			_Eos(_Count);
; 1181 : 			}
; 1182 : 		return (*this);
; 1183 : 		}
; 1184 : 
; 1185 : 	template<class _Iter>
; 1186 : 		typename enable_if<_Is_iterator<_Iter>::value,
; 1187 : 			_Myt&>::type
; 1188 : 		assign(_Iter _First, _Iter _Last)
; 1189 : 		{	// assign [_First, _Last), input iterators
; 1190 : 		return (replace(begin(), end(), _First, _Last));
; 1191 : 		}
; 1192 : 
; 1193 : 	_Myt& assign(const_pointer _First, const_pointer _Last)
; 1194 : 		{	// assign [_First, _Last), const pointers
; 1195 : 		return (replace(begin(), end(), _First, _Last));
; 1196 : 		}
; 1197 : 
; 1198 : 	_Myt& assign(const_iterator _First, const_iterator _Last)
; 1199 : 		{	// assign [_First, _Last), const_iterators
; 1200 : 		return (replace(begin(), end(), _First, _Last));
; 1201 : 		}
; 1202 : 
; 1203 : 	_Myt& insert(size_type _Off, const _Myt& _Right)
; 1204 : 		{	// insert _Right at _Off
; 1205 : 		return (insert(_Off, _Right, 0, npos));
; 1206 : 		}
; 1207 : 
; 1208 : 	_Myt& insert(size_type _Off,
; 1209 : 		const _Myt& _Right, size_type _Roff, size_type _Count)
; 1210 : 		{	// insert _Right [_Roff, _Roff + _Count) at _Off
; 1211 : 		if (this->_Mysize < _Off || _Right.size() < _Roff)
; 1212 : 			_Xran();	// _Off or _Roff off end
; 1213 : 		size_type _Num = _Right.size() - _Roff;
; 1214 : 		if (_Num < _Count)
; 1215 : 			_Count = _Num;	// trim _Count to size
; 1216 : 		if (npos - this->_Mysize <= _Count)
; 1217 : 			_Xlen();	// result too long
; 1218 : 
; 1219 : 		if (0 < _Count && _Grow(_Num = this->_Mysize + _Count))
; 1220 : 			{	// make room and insert new stuff
; 1221 : 			_Traits::move(this->_Myptr() + _Off + _Count,
; 1222 : 				this->_Myptr() + _Off,
; 1223 : 				this->_Mysize - _Off);	// empty out hole
; 1224 : 			if (this == &_Right)
; 1225 : 				_Traits::move(this->_Myptr() + _Off,
; 1226 : 					this->_Myptr() + (_Off < _Roff ? _Roff + _Count : _Roff),
; 1227 : 						_Count);	// substring
; 1228 : 			else
; 1229 : 				_Traits::copy(this->_Myptr() + _Off,
; 1230 : 					_Right._Myptr() + _Roff, _Count);	// fill hole
; 1231 : 			_Eos(_Num);
; 1232 : 			}
; 1233 : 		return (*this);
; 1234 : 		}
; 1235 : 
; 1236 : 	_Myt& insert(size_type _Off,
; 1237 : 		const _Elem *_Ptr, size_type _Count)
; 1238 : 		{	// insert [_Ptr, _Ptr + _Count) at _Off
; 1239 :  #if _ITERATOR_DEBUG_LEVEL == 2
; 1240 : 		if (_Count != 0)
; 1241 : 			_DEBUG_POINTER(_Ptr);
; 1242 :  #endif /* _ITERATOR_DEBUG_LEVEL == 2 */
; 1243 : 
; 1244 : 		if (_Inside(_Ptr))
; 1245 : 			return (insert(_Off, *this,
; 1246 : 				_Ptr - this->_Myptr(), _Count));	// substring
; 1247 : 		if (this->_Mysize < _Off)
; 1248 : 			_Xran();	// _Off off end
; 1249 : 		if (npos - this->_Mysize <= _Count)
; 1250 : 			_Xlen();	// result too long
; 1251 : 		size_type _Num;
; 1252 : 		if (0 < _Count && _Grow(_Num = this->_Mysize + _Count))
; 1253 : 			{	// make room and insert new stuff
; 1254 : 			_Traits::move(this->_Myptr() + _Off + _Count,
; 1255 : 				this->_Myptr() + _Off,
; 1256 : 				this->_Mysize - _Off);	// empty out hole
; 1257 : 			_Traits::copy(this->_Myptr() + _Off, _Ptr, _Count);	// fill hole
; 1258 : 			_Eos(_Num);
; 1259 : 			}
; 1260 : 		return (*this);
; 1261 : 		}
; 1262 : 
; 1263 : 	_Myt& insert(size_type _Off, const _Elem *_Ptr)
; 1264 : 		{	// insert [_Ptr, <null>) at _Off
; 1265 : 		_DEBUG_POINTER(_Ptr);
; 1266 : 		return (insert(_Off, _Ptr, _Traits::length(_Ptr)));
; 1267 : 		}
; 1268 : 
; 1269 : 	_Myt& insert(size_type _Off,
; 1270 : 		size_type _Count, _Elem _Ch)
; 1271 : 		{	// insert _Count * _Ch at _Off
; 1272 : 		if (this->_Mysize < _Off)
; 1273 : 			_Xran();	// _Off off end
; 1274 : 		if (npos - this->_Mysize <= _Count)
; 1275 : 			_Xlen();	// result too long
; 1276 : 		size_type _Num;
; 1277 : 		if (0 < _Count && _Grow(_Num = this->_Mysize + _Count))
; 1278 : 			{	// make room and insert new stuff
; 1279 : 			_Traits::move(this->_Myptr() + _Off + _Count,
; 1280 : 				this->_Myptr() + _Off,
; 1281 : 				this->_Mysize - _Off);	// empty out hole
; 1282 : 			_Chassign(_Off, _Count, _Ch);	// fill hole
; 1283 : 			_Eos(_Num);
; 1284 : 			}
; 1285 : 		return (*this);
; 1286 : 		}
; 1287 : 
; 1288 : 	iterator insert(const_iterator _Where)
; 1289 : 		{	// insert <null> at _Where
; 1290 : 		return (insert(_Where, _Elem()));
; 1291 : 		}
; 1292 : 
; 1293 : 	iterator insert(const_iterator _Where, _Elem _Ch)
; 1294 : 		{	// insert _Ch at _Where
; 1295 : 		size_type _Off = _Pdif(_Where, begin());
; 1296 : 		insert(_Off, 1, _Ch);
; 1297 : 		return (begin() + _Off);
; 1298 : 		}
; 1299 : 
; 1300 : 	iterator insert(const_iterator _Where, size_type _Count, _Elem _Ch)
; 1301 : 		{	// insert _Count * _Elem at _Where
; 1302 : 		size_type _Off = _Pdif(_Where, begin());
; 1303 : 		insert(_Off, _Count, _Ch);
; 1304 : 		return (begin() + _Off);
; 1305 : 		}
; 1306 : 
; 1307 : 	template<class _Iter>
; 1308 : 		typename enable_if<_Is_iterator<_Iter>::value,
; 1309 : 			iterator>::type
; 1310 : 		insert(const_iterator _Where, _Iter _First, _Iter _Last)
; 1311 : 		{	// insert [_First, _Last) at _Where, input iterators
; 1312 : 		size_type _Off = _Pdif(_Where, begin());
; 1313 : 		replace(_Where, _Where, _First, _Last);
; 1314 : 		return (begin() + _Off);
; 1315 : 		}
; 1316 : 
; 1317 : 	iterator insert(const_iterator _Where,
; 1318 : 		const_pointer _First, const_pointer _Last)
; 1319 : 		{	// insert [_First, _Last) at _Where, const pointers
; 1320 : 		size_type _Off = _Pdif(_Where, begin());
; 1321 : 		replace(_Where, _Where, _First, _Last);
; 1322 : 		return (begin() + _Off);
; 1323 : 		}
; 1324 : 
; 1325 : 	iterator insert(const_iterator _Where,
; 1326 : 		const_iterator _First, const_iterator _Last)
; 1327 : 		{	// insert [_First, _Last) at _Where, const_iterators
; 1328 : 		size_type _Off = _Pdif(_Where, begin());
; 1329 : 		replace(_Where, _Where, _First, _Last);
; 1330 : 		return (begin() + _Off);
; 1331 : 		}
; 1332 : 
; 1333 : 	_Myt& erase(size_type _Off = 0)
; 1334 : 		{	// erase elements [_Off, ...)
; 1335 : 		if (this->_Mysize < _Off)
; 1336 : 			_Xran();	// _Off off end
; 1337 : 		_Eos(_Off);
; 1338 : 		return (*this);
; 1339 : 		}
; 1340 : 
; 1341 : 	_Myt& erase(size_type _Off, size_type _Count)
; 1342 : 		{	// erase elements [_Off, _Off + _Count)
; 1343 : 		if (this->_Mysize < _Off)
; 1344 : 			_Xran();	// _Off off end
; 1345 : 		if (this->_Mysize - _Off <= _Count)
; 1346 : 			_Eos(_Off);	// erase elements [_Off, ...)
; 1347 : 		else if (0 < _Count)
; 1348 : 			{	// move elements down
; 1349 : 			value_type *_Ptr = this->_Myptr() + _Off;
; 1350 : 			size_type _Newsize = this->_Mysize - _Count;
; 1351 : 			_Traits::move(_Ptr, _Ptr + _Count, _Newsize - _Off);
; 1352 : 			_Eos(_Newsize);
; 1353 : 			}
; 1354 : 		return (*this);
; 1355 : 		}
; 1356 : 
; 1357 : 	iterator erase(const_iterator _Where)
; 1358 : 		{	// erase element at _Where
; 1359 : 		size_type _Count = _Pdif(_Where, begin());
; 1360 : 		erase(_Count, 1);
; 1361 : 		return (_STRING_ITERATOR(this->_Myptr() + _Count));
; 1362 : 		}
; 1363 : 
; 1364 : 	iterator erase(const_iterator _First, const_iterator _Last)
; 1365 : 		{	// erase substring [_First, _Last)
; 1366 : 		_DEBUG_RANGE(_First, _Last);
; 1367 : 		size_type _Count = _Pdif(_First, begin());
; 1368 : 		erase(_Count, _Pdif(_Last, _First));
; 1369 : 		return (_STRING_ITERATOR(this->_Myptr() + _Count));
; 1370 : 		}
; 1371 : 
; 1372 : 	void clear() _NOEXCEPT
; 1373 : 		{	// erase all
; 1374 : 		_Eos(0);
; 1375 : 		}
; 1376 : 
; 1377 : 	_Myt& replace(size_type _Off, size_type _N0, const _Myt& _Right)
; 1378 : 		{	// replace [_Off, _Off + _N0) with _Right
; 1379 : 		return (replace(_Off, _N0, _Right, 0, npos));
; 1380 : 		}
; 1381 : 
; 1382 : 	_Myt& replace(size_type _Off,
; 1383 : 		size_type _N0, const _Myt& _Right, size_type _Roff, size_type _Count)
; 1384 : 		{	// replace [_Off, _Off + _N0) with _Right [_Roff, _Roff + _Count)
; 1385 : 		if (this->_Mysize < _Off || _Right.size() < _Roff)
; 1386 : 			_Xran();	// _Off or _Roff off end
; 1387 : 		if (this->_Mysize - _Off < _N0)
; 1388 : 			_N0 = this->_Mysize - _Off;	// trim _N0 to size
; 1389 : 		size_type _Num = _Right.size() - _Roff;
; 1390 : 		if (_Num < _Count)
; 1391 : 			_Count = _Num;	// trim _Count to size
; 1392 : 		if (npos - _Count <= this->_Mysize - _N0)
; 1393 : 			_Xlen();	// result too long
; 1394 : 
; 1395 : 		size_type _Nm = this->_Mysize - _N0 - _Off;	// length of kept tail
; 1396 : 		size_type _Newsize = this->_Mysize + _Count - _N0;
; 1397 : 		if (this->_Mysize < _Newsize)
; 1398 : 			_Grow(_Newsize);
; 1399 : 
; 1400 : 		if (this != &_Right)
; 1401 : 			{	// no overlap, just move down and copy in new stuff
; 1402 : 			_Traits::move(this->_Myptr() + _Off + _Count,
; 1403 : 				this->_Myptr() + _Off + _N0, _Nm);	// empty hole
; 1404 : 			_Traits::copy(this->_Myptr() + _Off,
; 1405 : 				_Right._Myptr() + _Roff, _Count);	// fill hole
; 1406 : 			}
; 1407 : 		else if (_Count <= _N0)
; 1408 : 			{	// hole doesn't get larger, just copy in substring
; 1409 : 			_Traits::move(this->_Myptr() + _Off,
; 1410 : 				this->_Myptr() + _Roff, _Count);	// fill hole
; 1411 : 			_Traits::move(this->_Myptr() + _Off + _Count,
; 1412 : 				this->_Myptr() + _Off + _N0, _Nm);	// move tail down
; 1413 : 			}
; 1414 : 		else if (_Roff <= _Off)
; 1415 : 			{	// hole gets larger, substring begins before hole
; 1416 : 			_Traits::move(this->_Myptr() + _Off + _Count,
; 1417 : 				this->_Myptr() + _Off + _N0, _Nm);	// move tail down
; 1418 : 			_Traits::move(this->_Myptr() + _Off,
; 1419 : 				this->_Myptr() + _Roff, _Count);	// fill hole
; 1420 : 			}
; 1421 : 		else if (_Off + _N0 <= _Roff)
; 1422 : 			{	// hole gets larger, substring begins after hole
; 1423 : 			_Traits::move(this->_Myptr() + _Off + _Count,
; 1424 : 				this->_Myptr() + _Off + _N0, _Nm);	// move tail down
; 1425 : 			_Traits::move(this->_Myptr() + _Off,
; 1426 : 				this->_Myptr() + (_Roff + _Count - _N0),
; 1427 : 				_Count);	// fill hole
; 1428 : 			}
; 1429 : 		else
; 1430 : 			{	// hole gets larger, substring begins in hole
; 1431 : 			_Traits::move(this->_Myptr() + _Off,
; 1432 : 				this->_Myptr() + _Roff, _N0);	// fill old hole
; 1433 : 			_Traits::move(this->_Myptr() + _Off + _Count,
; 1434 : 				this->_Myptr() + _Off + _N0, _Nm);	// move tail down
; 1435 : 			_Traits::move(this->_Myptr() + _Off + _N0,
; 1436 : 				this->_Myptr() + _Roff + _Count,
; 1437 : 				_Count - _N0);	// fill rest of new hole
; 1438 : 			}
; 1439 : 
; 1440 : 		_Eos(_Newsize);
; 1441 : 		return (*this);
; 1442 : 		}
; 1443 : 
; 1444 : 	_Myt& replace(size_type _Off,
; 1445 : 		size_type _N0, const _Elem *_Ptr, size_type _Count)
; 1446 : 		{	// replace [_Off, _Off + _N0) with [_Ptr, _Ptr + _Count)
; 1447 :  #if _ITERATOR_DEBUG_LEVEL == 2
; 1448 : 		if (_Count != 0)
; 1449 : 			_DEBUG_POINTER(_Ptr);
; 1450 :  #endif /* _ITERATOR_DEBUG_LEVEL == 2 */
; 1451 : 
; 1452 : 		if (_Inside(_Ptr))
; 1453 : 			return (replace(_Off, _N0, *this,
; 1454 : 				_Ptr - this->_Myptr(),
; 1455 : 				_Count));	// substring, replace carefully
; 1456 : 		if (this->_Mysize < _Off)
; 1457 : 			_Xran();	// _Off off end
; 1458 : 		if (this->_Mysize - _Off < _N0)
; 1459 : 			_N0 = this->_Mysize - _Off;	// trim _N0 to size
; 1460 : 		if (npos - _Count <= this->_Mysize - _N0)
; 1461 : 			_Xlen();	// result too long
; 1462 : 		size_type _Nm = this->_Mysize - _N0 - _Off;
; 1463 : 
; 1464 : 		if (_Count < _N0)
; 1465 : 			_Traits::move(this->_Myptr() + _Off + _Count,
; 1466 : 				this->_Myptr() + _Off + _N0,
; 1467 : 				_Nm);	// smaller hole, move tail up
; 1468 : 		size_type _Num;
; 1469 : 		if ((0 < _Count || 0 < _N0)
; 1470 : 			&& _Grow(_Num = this->_Mysize + _Count - _N0))
; 1471 : 			{	// make room and rearrange
; 1472 : 			if (_N0 < _Count)
; 1473 : 				_Traits::move(this->_Myptr() + _Off + _Count,
; 1474 : 					this->_Myptr() + _Off + _N0, _Nm);	// move tail down
; 1475 : 			_Traits::copy(this->_Myptr() + _Off, _Ptr, _Count);	// fill hole
; 1476 : 			_Eos(_Num);
; 1477 : 			}
; 1478 : 		return (*this);
; 1479 : 		}
; 1480 : 
; 1481 : 	_Myt& replace(size_type _Off, size_type _N0, const _Elem *_Ptr)
; 1482 : 		{	// replace [_Off, _Off + _N0) with [_Ptr, <null>)
; 1483 : 		_DEBUG_POINTER(_Ptr);
; 1484 : 		return (replace(_Off, _N0, _Ptr, _Traits::length(_Ptr)));
; 1485 : 		}
; 1486 : 
; 1487 : 	_Myt& replace(size_type _Off,
; 1488 : 		size_type _N0, size_type _Count, _Elem _Ch)
; 1489 : 		{	// replace [_Off, _Off + _N0) with _Count * _Ch
; 1490 : 		if (this->_Mysize < _Off)
; 1491 : 			_Xran();	// _Off off end
; 1492 : 		if (this->_Mysize - _Off < _N0)
; 1493 : 			_N0 = this->_Mysize - _Off;	// trim _N0 to size
; 1494 : 		if (npos - _Count <= this->_Mysize - _N0)
; 1495 : 			_Xlen();	// result too long
; 1496 : 		size_type _Nm = this->_Mysize - _N0 - _Off;
; 1497 : 
; 1498 : 		if (_Count < _N0)
; 1499 : 			_Traits::move(this->_Myptr() + _Off + _Count,
; 1500 : 				this->_Myptr() + _Off + _N0,
; 1501 : 				_Nm);	// smaller hole, move tail up
; 1502 : 		size_type _Num;
; 1503 : 		if ((0 < _Count || 0 < _N0)
; 1504 : 			&& _Grow(_Num = this->_Mysize + _Count - _N0))
; 1505 : 			{	// make room and rearrange
; 1506 : 			if (_N0 < _Count)
; 1507 : 				_Traits::move(this->_Myptr() + _Off + _Count,
; 1508 : 					this->_Myptr() + _Off + _N0, _Nm);	// move tail down
; 1509 : 			_Chassign(_Off, _Count, _Ch);	// fill hole
; 1510 : 			_Eos(_Num);
; 1511 : 			}
; 1512 : 		return (*this);
; 1513 : 		}
; 1514 : 
; 1515 : 	_Myt& replace(const_iterator _First, const_iterator _Last,
; 1516 : 		const _Myt& _Right)
; 1517 : 		{	// replace [_First, _Last) with _Right
; 1518 : 		return (replace(
; 1519 : 			_Pdif(_First, begin()), _Pdif(_Last, _First), _Right));
; 1520 : 		}
; 1521 : 
; 1522 : 	_Myt& replace(const_iterator _First, const_iterator _Last,
; 1523 : 		const _Elem *_Ptr, size_type _Count)
; 1524 : 		{	// replace [_First, _Last) with [_Ptr, _Ptr + _Count)
; 1525 : 		return (replace(
; 1526 : 			_Pdif(_First, begin()), _Pdif(_Last, _First), _Ptr, _Count));
; 1527 : 		}
; 1528 : 
; 1529 : 	_Myt& replace(const_iterator _First, const_iterator _Last,
; 1530 : 		const _Elem *_Ptr)
; 1531 : 		{	// replace [_First, _Last) with [_Ptr, <null>)
; 1532 : 		return (replace(
; 1533 : 			_Pdif(_First, begin()), _Pdif(_Last, _First), _Ptr));
; 1534 : 		}
; 1535 : 
; 1536 : 	_Myt& replace(const_iterator _First, const_iterator _Last,
; 1537 : 		size_type _Count, _Elem _Ch)
; 1538 : 		{	// replace [_First, _Last) with _Count * _Ch
; 1539 : 		return (replace(
; 1540 : 			_Pdif(_First, begin()), _Pdif(_Last, _First), _Count, _Ch));
; 1541 : 		}
; 1542 : 
; 1543 : 	template<class _Iter>
; 1544 : 		typename enable_if<_Is_iterator<_Iter>::value,
; 1545 : 			_Myt&>::type
; 1546 : 		replace(const_iterator _First, const_iterator _Last,
; 1547 : 			_Iter _First2, _Iter _Last2)
; 1548 : 		{	// replace [_First, _Last) with [_First2, _Last2), input iterators
; 1549 : 		_Myt _Right(_First2, _Last2);
; 1550 : 		replace(_First, _Last, _Right);
; 1551 : 		return (*this);
; 1552 : 		}
; 1553 : 
; 1554 : 	_Myt& replace(const_iterator _First, const_iterator _Last,
; 1555 : 		const_pointer _First2, const_pointer _Last2)
; 1556 : 		{	// replace [_First, _Last) with [_First2, _Last2), const pointers
; 1557 : 		if (_First2 == _Last2)
; 1558 : 			erase(_Pdif(_First, begin()), _Pdif(_Last, _First));
; 1559 : 		else
; 1560 : 			replace(_Pdif(_First, begin()), _Pdif(_Last, _First),
; 1561 : 				&*_First2, _Last2 - _First2);
; 1562 : 		return (*this);
; 1563 : 		}
; 1564 : 
; 1565 : 	_Myt& replace(const_iterator _First, const_iterator _Last,
; 1566 : 		pointer _First2, pointer _Last2)
; 1567 : 		{	// replace [_First, _Last) with [_First2, _Last2), const pointers
; 1568 : 		if (_First2 == _Last2)
; 1569 : 			erase(_Pdif(_First, begin()), _Pdif(_Last, _First));
; 1570 : 		else
; 1571 : 			replace(_Pdif(_First, begin()), _Pdif(_Last, _First),
; 1572 : 				&*_First2, _Last2 - _First2);
; 1573 : 		return (*this);
; 1574 : 		}
; 1575 : 
; 1576 : 	_Myt& replace(const_iterator _First, const_iterator _Last,
; 1577 : 		const_iterator _First2, const_iterator _Last2)
; 1578 : 		{	// replace [_First, _Last) with [_First2, _Last2), const_iterators
; 1579 : 		if (_First2 == _Last2)
; 1580 : 			erase(_Pdif(_First, begin()), _Pdif(_Last, _First));
; 1581 : 		else
; 1582 : 			replace(_Pdif(_First, begin()), _Pdif(_Last, _First),
; 1583 : 				&*_First2, _Last2 - _First2);
; 1584 : 		return (*this);
; 1585 : 		}
; 1586 : 
; 1587 : 	_Myt& replace(const_iterator _First, const_iterator _Last,
; 1588 : 		iterator _First2, iterator _Last2)
; 1589 : 		{	// replace [_First, _Last) with [_First2, _Last2), const_iterators
; 1590 : 		if (_First2 == _Last2)
; 1591 : 			erase(_Pdif(_First, begin()), _Pdif(_Last, _First));
; 1592 : 		else
; 1593 : 			replace(_Pdif(_First, begin()), _Pdif(_Last, _First),
; 1594 : 				&*_First2, _Last2 - _First2);
; 1595 : 		return (*this);
; 1596 : 		}
; 1597 : 
; 1598 : 	iterator begin() _NOEXCEPT
; 1599 : 		{	// return iterator for beginning of mutable sequence
; 1600 : 		return (_STRING_ITERATOR(this->_Myptr()));
; 1601 : 		}
; 1602 : 
; 1603 : 	const_iterator begin() const _NOEXCEPT
; 1604 : 		{	// return iterator for beginning of nonmutable sequence
; 1605 : 		return (_STRING_CONST_ITERATOR(this->_Myptr()));
; 1606 : 		}
; 1607 : 
; 1608 : 	iterator end() _NOEXCEPT
; 1609 : 		{	// return iterator for end of mutable sequence
; 1610 : 		return (_STRING_ITERATOR(this->_Myptr() + this->_Mysize));
; 1611 : 		}
; 1612 : 
; 1613 : 	const_iterator end() const _NOEXCEPT
; 1614 : 		{	// return iterator for end of nonmutable sequence
; 1615 : 		return (_STRING_CONST_ITERATOR(this->_Myptr() + this->_Mysize));
; 1616 : 		}
; 1617 : 
; 1618 : 	reverse_iterator rbegin() _NOEXCEPT
; 1619 : 		{	// return iterator for beginning of reversed mutable sequence
; 1620 : 		return (reverse_iterator(end()));
; 1621 : 		}
; 1622 : 
; 1623 : 	const_reverse_iterator rbegin() const _NOEXCEPT
; 1624 : 		{	// return iterator for beginning of reversed nonmutable sequence
; 1625 : 		return (const_reverse_iterator(end()));
; 1626 : 		}
; 1627 : 
; 1628 : 	reverse_iterator rend() _NOEXCEPT
; 1629 : 		{	// return iterator for end of reversed mutable sequence
; 1630 : 		return (reverse_iterator(begin()));
; 1631 : 		}
; 1632 : 
; 1633 : 	const_reverse_iterator rend() const _NOEXCEPT
; 1634 : 		{	// return iterator for end of reversed nonmutable sequence
; 1635 : 		return (const_reverse_iterator(begin()));
; 1636 : 		}
; 1637 : 
; 1638 : 	const_iterator cbegin() const _NOEXCEPT
; 1639 : 		{	// return iterator for beginning of nonmutable sequence
; 1640 : 		return (((const _Myt *)this)->begin());
; 1641 : 		}
; 1642 : 
; 1643 : 	const_iterator cend() const _NOEXCEPT
; 1644 : 		{	// return iterator for end of nonmutable sequence
; 1645 : 		return (((const _Myt *)this)->end());
; 1646 : 		}
; 1647 : 
; 1648 : 	const_reverse_iterator crbegin() const _NOEXCEPT
; 1649 : 		{	// return iterator for beginning of reversed nonmutable sequence
; 1650 : 		return (((const _Myt *)this)->rbegin());
; 1651 : 		}
; 1652 : 
; 1653 : 	const_reverse_iterator crend() const _NOEXCEPT
; 1654 : 		{	// return iterator for end of reversed nonmutable sequence
; 1655 : 		return (((const _Myt *)this)->rend());
; 1656 : 		}
; 1657 : 
; 1658 : 	void shrink_to_fit()
; 1659 : 		{	// reduce capacity
; 1660 : 		if ((size() | this->_ALLOC_MASK) < capacity())
; 1661 : 			{	// worth shrinking, do it
; 1662 : 			_Myt _Tmp(*this);
; 1663 : 			swap(_Tmp);
; 1664 : 			}
; 1665 : 		}
; 1666 : 
; 1667 : 	reference at(size_type _Off)
; 1668 : 		{	// subscript mutable sequence with checking
; 1669 : 		if (this->_Mysize <= _Off)
; 1670 : 			_Xran();	// _Off off end
; 1671 : 		return (this->_Myptr()[_Off]);
; 1672 : 		}
; 1673 : 
; 1674 : 	const_reference at(size_type _Off) const
; 1675 : 		{	// subscript nonmutable sequence with checking
; 1676 : 		if (this->_Mysize <= _Off)
; 1677 : 			_Xran();	// _Off off end
; 1678 : 		return (this->_Myptr()[_Off]);
; 1679 : 		}
; 1680 : 
; 1681 : 	reference operator[](size_type _Off)
; 1682 : 		{	// subscript mutable sequence
; 1683 :  #if _ITERATOR_DEBUG_LEVEL == 2
; 1684 : 		if (this->_Mysize < _Off)	// sic
; 1685 : 			_DEBUG_ERROR("string subscript out of range");
; 1686 : 
; 1687 :  #elif _ITERATOR_DEBUG_LEVEL == 1
; 1688 : 		_SCL_SECURE_VALIDATE_RANGE(_Off <= this->_Mysize);	// sic
; 1689 :  #endif /* _ITERATOR_DEBUG_LEVEL == 2 */
; 1690 : 
; 1691 : 		return (this->_Myptr()[_Off]);
; 1692 : 		}
; 1693 : 
; 1694 : 	const_reference operator[](size_type _Off) const
; 1695 : 		{	// subscript nonmutable sequence
; 1696 :  #if _ITERATOR_DEBUG_LEVEL == 2
; 1697 : 		if (this->_Mysize < _Off)	// sic
; 1698 : 			_DEBUG_ERROR("string subscript out of range");
; 1699 : 
; 1700 :  #elif _ITERATOR_DEBUG_LEVEL == 1
; 1701 : 		_SCL_SECURE_VALIDATE_RANGE(_Off <= this->_Mysize);	// sic
; 1702 :  #endif /* _ITERATOR_DEBUG_LEVEL == 2 */
; 1703 : 
; 1704 : 		return (this->_Myptr()[_Off]);
; 1705 : 		}
; 1706 : 
; 1707 : 	void push_back(_Elem _Ch)
; 1708 : 		{	// insert element at end
; 1709 : 		insert(end(), _Ch);
; 1710 : 		}
; 1711 : 
; 1712 : 	void pop_back()
; 1713 : 		{	// erase element at end
; 1714 : 		erase(this->_Mysize - 1);	// throws if _Mysize == 0
; 1715 : 		}
; 1716 : 
; 1717 : 	reference front()
; 1718 : 		{	// return first element of mutable sequence
; 1719 : 		return (*begin());
; 1720 : 		}
; 1721 : 
; 1722 : 	const_reference front() const
; 1723 : 		{	// return first element of nonmutable sequence
; 1724 : 		return (*begin());
; 1725 : 		}
; 1726 : 
; 1727 : 	reference back()
; 1728 : 		{	// return last element of mutable sequence
; 1729 : 		return (*(end() - 1));
; 1730 : 		}
; 1731 : 
; 1732 : 	const_reference back() const
; 1733 : 		{	// return last element of nonmutable sequence
; 1734 : 		return (*(end() - 1));
; 1735 : 		}
; 1736 : 
; 1737 : 	const _Elem *c_str() const _NOEXCEPT
; 1738 : 		{	// return pointer to null-terminated nonmutable array
; 1739 : 		return (this->_Myptr());
; 1740 : 		}
; 1741 : 
; 1742 : 	const _Elem *data() const _NOEXCEPT
; 1743 : 		{	// return pointer to nonmutable array
; 1744 : 		return (c_str());
; 1745 : 		}
; 1746 : 
; 1747 : 	size_type length() const _NOEXCEPT
; 1748 : 		{	// return length of sequence
; 1749 : 		return (this->_Mysize);
; 1750 : 		}
; 1751 : 
; 1752 : 	size_type size() const _NOEXCEPT
; 1753 : 		{	// return length of sequence
; 1754 : 		return (this->_Mysize);
; 1755 : 		}
; 1756 : 
; 1757 : 	size_type max_size() const _NOEXCEPT
; 1758 : 		{	// return maximum possible length of sequence
; 1759 : 		size_type _Num = this->_Getal().max_size();
; 1760 : 		return (_Num <= 1 ? 1 : _Num - 1);
; 1761 : 		}
; 1762 : 
; 1763 : 	void resize(size_type _Newsize)
; 1764 : 		{	// determine new length, padding with null elements as needed
; 1765 : 		resize(_Newsize, _Elem());
; 1766 : 		}
; 1767 : 
; 1768 : 	void resize(size_type _Newsize, _Elem _Ch)
; 1769 : 		{	// determine new length, padding with _Ch elements as needed
; 1770 : 		if (_Newsize <= this->_Mysize)
; 1771 : 			_Eos(_Newsize);
; 1772 : 		else
; 1773 : 			append(_Newsize - this->_Mysize, _Ch);
; 1774 : 		}
; 1775 : 
; 1776 : 	size_type capacity() const _NOEXCEPT
; 1777 : 		{	// return current length of allocated storage
; 1778 : 		return (this->_Myres);
; 1779 : 		}
; 1780 : 
; 1781 : 	void reserve(size_type _Newcap = 0)
; 1782 : 		{	// determine new minimum length of allocated storage
; 1783 : 		if (this->_Mysize <= _Newcap && this->_Myres != _Newcap)
; 1784 : 			{	// change reservation
; 1785 : 			size_type _Size = this->_Mysize;
; 1786 : 			if (_Grow(_Newcap, true))
; 1787 : 				_Eos(_Size);
; 1788 : 			}
; 1789 : 		}
; 1790 : 
; 1791 : 	bool empty() const _NOEXCEPT
; 1792 : 		{	// test if sequence is empty
; 1793 : 		return (this->_Mysize == 0);
; 1794 : 		}
; 1795 : 
; 1796 : 	_SCL_INSECURE_DEPRECATE
; 1797 : 
; 1798 : 	size_type copy(_Elem *_Ptr,
; 1799 : 		size_type _Count, size_type _Off = 0) const
; 1800 : 		{	// copy [_Off, _Off + _Count) to [_Ptr, _Ptr + _Count)
; 1801 :  #if _ITERATOR_DEBUG_LEVEL == 2
; 1802 : 		if (_Count != 0)
; 1803 : 			_DEBUG_POINTER(_Ptr);
; 1804 :  #endif /* _ITERATOR_DEBUG_LEVEL == 2 */
; 1805 : 
; 1806 : 		if (this->_Mysize < _Off)
; 1807 : 			_Xran();	// _Off off end
; 1808 : 		if (this->_Mysize - _Off < _Count)
; 1809 : 			_Count = this->_Mysize - _Off;
; 1810 : 		_Traits::copy(_Ptr, this->_Myptr() + _Off, _Count);
; 1811 : 		return (_Count);
; 1812 : 		}
; 1813 : 
; 1814 : 	size_type _Copy_s(_Elem *_Dest, size_type _Dest_size,
; 1815 : 		size_type _Count, size_type _Off = 0) const
; 1816 : 		{	// copy [_Off, _Off + _Count) to [_Dest, _Dest + _Count)
; 1817 :  #if _ITERATOR_DEBUG_LEVEL == 2
; 1818 : 		if (_Count != 0)
; 1819 : 			_DEBUG_POINTER(_Dest);
; 1820 :  #endif /* _ITERATOR_DEBUG_LEVEL == 2 */
; 1821 : 
; 1822 : 		if (this->_Mysize < _Off)
; 1823 : 			_Xran();	// _Off off end
; 1824 : 		if (this->_Mysize - _Off < _Count)
; 1825 : 			_Count = this->_Mysize - _Off;
; 1826 : 		_Traits::_Copy_s(_Dest, _Dest_size, this->_Myptr() + _Off, _Count);
; 1827 : 		return (_Count);
; 1828 : 		}
; 1829 : 
; 1830 : 	void _Swap_bx(_Myt& _Right)
; 1831 : 		{	// exchange _Bx with _Right._Bx
; 1832 : 		if (this->_BUF_SIZE <= this->_Myres)
; 1833 : 			if (this->_BUF_SIZE <= _Right._Myres)
; 1834 : 				_Swap_adl(this->_Bx._Ptr, _Right._Bx._Ptr);
; 1835 : 			else
; 1836 : 				{	// swap large with small
; 1837 : 				pointer _Ptr = this->_Bx._Ptr;
; 1838 : 				this->_Getal().destroy(&this->_Bx._Ptr);
; 1839 : 				_Traits::copy(this->_Bx._Buf,
; 1840 : 					_Right._Bx._Buf, _Right._Mysize + 1);
; 1841 : 				this->_Getal().construct(&_Right._Bx._Ptr, _Ptr);
; 1842 : 				}
; 1843 : 		else
; 1844 : 			if (_Right._Myres < this->_BUF_SIZE)
; 1845 : 				_STD swap(this->_Bx._Buf, _Right._Bx._Buf);
; 1846 : 			else
; 1847 : 				{	// swap small with large
; 1848 : 				pointer _Ptr = _Right._Bx._Ptr;
; 1849 : 				this->_Getal().destroy(&_Right._Bx._Ptr);
; 1850 : 				_Traits::copy(_Right._Bx._Buf,
; 1851 : 					this->_Bx._Buf, this->_Mysize + 1);
; 1852 : 				this->_Getal().construct(&this->_Bx._Ptr, _Ptr);
; 1853 : 				}
; 1854 : 		}
; 1855 : 
; 1856 : 	void swap(_Myt& _Right)
; 1857 : 		{	// exchange contents with _Right
; 1858 : 		if (this == &_Right)
; 1859 : 			;	// same object, do nothing
; 1860 : 		else if (this->_Getal() == _Right._Getal())
; 1861 : 			{	// same allocator, swap control information
; 1862 : 			this->_Swap_all(_Right);
; 1863 : 			_Swap_bx(_Right);
; 1864 : 			_STD swap(this->_Mysize, _Right._Mysize);
; 1865 : 			_STD swap(this->_Myres, _Right._Myres);
; 1866 : 			}
; 1867 : 
; 1868 : 		else if (_Alty::propagate_on_container_swap::value)
; 1869 : 			{	// swap allocators and control information
; 1870 : 			this->_Swap_alloc(_Right);
; 1871 : 			_Swap_bx(_Right);
; 1872 : 			_STD swap(this->_Bx, _Right._Bx);	// pointer bitwise copyable?
; 1873 : 			_STD swap(this->_Mysize, _Right._Mysize);
; 1874 : 			_STD swap(this->_Myres, _Right._Myres);
; 1875 : 			}
; 1876 : 
; 1877 : 		else
; 1878 : 			{	// different allocator, do multiple assigns
; 1879 : 			_Myt _Tmp = *this;
; 1880 : 
; 1881 : 			*this = _Right;
; 1882 : 			_Right = _Tmp;
; 1883 : 			}
; 1884 : 		}
; 1885 : 
; 1886 : 	size_type find(const _Myt& _Right, size_type _Off = 0) const _NOEXCEPT
; 1887 : 		{	// look for _Right beginning at or after _Off
; 1888 : 		return (find(_Right._Myptr(), _Off, _Right.size()));
; 1889 : 		}
; 1890 : 
; 1891 : 	size_type find(const _Elem *_Ptr,
; 1892 : 		size_type _Off, size_type _Count) const
; 1893 : 		{	// look for [_Ptr, _Ptr + _Count) beginning at or after _Off
; 1894 :  #if _ITERATOR_DEBUG_LEVEL == 2
; 1895 : 		if (_Count != 0)
; 1896 : 			_DEBUG_POINTER(_Ptr);
; 1897 :  #endif /* _ITERATOR_DEBUG_LEVEL == 2 */
; 1898 : 
; 1899 : 		if (_Count == 0 && _Off <= this->_Mysize)
; 1900 : 			return (_Off);	// null string always matches (if inside string)
; 1901 : 
; 1902 : 		size_type _Nm;
; 1903 : 		if (_Off < this->_Mysize && _Count <= (_Nm = this->_Mysize - _Off))
; 1904 : 			{	// room for match, look for it
; 1905 : 			const _Elem *_Uptr, *_Vptr;
; 1906 : 			for (_Nm -= _Count - 1, _Vptr = this->_Myptr() + _Off;
; 1907 : 				(_Uptr = _Traits::find(_Vptr, _Nm, *_Ptr)) != 0;
; 1908 : 				_Nm -= _Uptr - _Vptr + 1, _Vptr = _Uptr + 1)
; 1909 : 				if (_Traits::compare(_Uptr, _Ptr, _Count) == 0)
; 1910 : 					return (_Uptr - this->_Myptr());	// found a match
; 1911 : 			}
; 1912 : 
; 1913 : 		return (npos);	// no match
; 1914 : 		}
; 1915 : 
; 1916 : 	size_type find(const _Elem *_Ptr, size_type _Off = 0) const
; 1917 : 		{	// look for [_Ptr, <null>) beginning at or after _Off
; 1918 : 		_DEBUG_POINTER(_Ptr);
; 1919 : 		return (find(_Ptr, _Off, _Traits::length(_Ptr)));
; 1920 : 		}
; 1921 : 
; 1922 : 	size_type find(_Elem _Ch, size_type _Off = 0) const
; 1923 : 		{	// look for _Ch at or after _Off
; 1924 : 		return (find((const _Elem *)&_Ch, _Off, 1));
; 1925 : 		}
; 1926 : 
; 1927 : 	size_type rfind(const _Myt& _Right, size_type _Off = npos) const _NOEXCEPT
; 1928 : 		{	// look for _Right beginning before _Off
; 1929 : 		return (rfind(_Right._Myptr(), _Off, _Right.size()));
; 1930 : 		}
; 1931 : 
; 1932 : 	size_type rfind(const _Elem *_Ptr,
; 1933 : 		size_type _Off, size_type _Count) const
; 1934 : 		{	// look for [_Ptr, _Ptr + _Count) beginning before _Off
; 1935 :  #if _ITERATOR_DEBUG_LEVEL == 2
; 1936 : 		if (_Count != 0)
; 1937 : 			_DEBUG_POINTER(_Ptr);
; 1938 :  #endif /* _ITERATOR_DEBUG_LEVEL == 2 */
; 1939 : 
; 1940 : 		if (_Count == 0)
; 1941 : 			return (_Off < this->_Mysize ? _Off
; 1942 : 				: this->_Mysize);	// null always matches
; 1943 : 		if (_Count <= this->_Mysize)
; 1944 : 			{	// room for match, look for it
; 1945 : 			const _Elem *_Uptr = this->_Myptr() +
; 1946 : 				(_Off < this->_Mysize - _Count ? _Off
; 1947 : 					: this->_Mysize - _Count);
; 1948 : 			for (; ; --_Uptr)
; 1949 : 				if (_Traits::eq(*_Uptr, *_Ptr)
; 1950 : 					&& _Traits::compare(_Uptr, _Ptr, _Count) == 0)
; 1951 : 					return (_Uptr - this->_Myptr());	// found a match
; 1952 : 				else if (_Uptr == this->_Myptr())
; 1953 : 					break;	// at beginning, no more chance for match
; 1954 : 			}
; 1955 : 
; 1956 : 		return (npos);	// no match
; 1957 : 		}
; 1958 : 
; 1959 : 	size_type rfind(const _Elem *_Ptr, size_type _Off = npos) const
; 1960 : 		{	// look for [_Ptr, <null>) beginning before _Off
; 1961 : 		_DEBUG_POINTER(_Ptr);
; 1962 : 		return (rfind(_Ptr, _Off, _Traits::length(_Ptr)));
; 1963 : 		}
; 1964 : 
; 1965 : 	size_type rfind(_Elem _Ch, size_type _Off = npos) const
; 1966 : 		{	// look for _Ch before _Off
; 1967 : 		return (rfind((const _Elem *)&_Ch, _Off, 1));
; 1968 : 		}
; 1969 : 
; 1970 : 	size_type find_first_of(const _Myt& _Right,
; 1971 : 		size_type _Off = 0) const _NOEXCEPT
; 1972 : 		{	// look for one of _Right at or after _Off
; 1973 : 		return (find_first_of(_Right._Myptr(), _Off, _Right.size()));
; 1974 : 		}
; 1975 : 
; 1976 : 	size_type find_first_of(const _Elem *_Ptr,
; 1977 : 		size_type _Off, size_type _Count) const
; 1978 : 		{	// look for one of [_Ptr, _Ptr + _Count) at or after _Off
; 1979 :  #if _ITERATOR_DEBUG_LEVEL == 2
; 1980 : 		if (_Count != 0)
; 1981 : 			_DEBUG_POINTER(_Ptr);
; 1982 :  #endif /* _ITERATOR_DEBUG_LEVEL == 2 */
; 1983 : 
; 1984 : 		if (0 < _Count && _Off < this->_Mysize)
; 1985 : 			{	// room for match, look for it
; 1986 : 			const _Elem *const _Vptr = this->_Myptr() + this->_Mysize;
; 1987 : 			for (const _Elem *_Uptr = this->_Myptr() + _Off;
; 1988 : 				_Uptr < _Vptr; ++_Uptr)
; 1989 : 				if (_Traits::find(_Ptr, _Count, *_Uptr) != 0)
; 1990 : 					return (_Uptr - this->_Myptr());	// found a match
; 1991 : 			}
; 1992 : 
; 1993 : 		return (npos);	// no match
; 1994 : 		}
; 1995 : 
; 1996 : 	size_type find_first_of(const _Elem *_Ptr,
; 1997 : 		size_type _Off = 0) const
; 1998 : 		{	// look for one of [_Ptr, <null>) at or after _Off
; 1999 : 		_DEBUG_POINTER(_Ptr);
; 2000 : 		return (find_first_of(_Ptr, _Off, _Traits::length(_Ptr)));
; 2001 : 		}
; 2002 : 
; 2003 : 	size_type find_first_of(_Elem _Ch,
; 2004 : 		size_type _Off = 0) const
; 2005 : 		{	// look for _Ch at or after _Off
; 2006 : 		return (find((const _Elem *)&_Ch, _Off, 1));
; 2007 : 		}
; 2008 : 
; 2009 : 	size_type find_last_of(const _Myt& _Right,
; 2010 : 		size_type _Off = npos) const _NOEXCEPT
; 2011 : 		{	// look for one of _Right before _Off
; 2012 : 		return (find_last_of(_Right._Myptr(), _Off, _Right.size()));
; 2013 : 		}
; 2014 : 
; 2015 : 	size_type find_last_of(const _Elem *_Ptr,
; 2016 : 		size_type _Off, size_type _Count) const
; 2017 : 		{	// look for one of [_Ptr, _Ptr + _Count) before _Off
; 2018 :  #if _ITERATOR_DEBUG_LEVEL == 2
; 2019 : 		if (_Count != 0)
; 2020 : 			_DEBUG_POINTER(_Ptr);
; 2021 :  #endif /* _ITERATOR_DEBUG_LEVEL == 2 */
; 2022 : 
; 2023 : 		if (0 < _Count && 0 < this->_Mysize)
; 2024 : 			{	// worth searching, do it
; 2025 : 			const _Elem *_Uptr = this->_Myptr()
; 2026 : 				+ (_Off < this->_Mysize ? _Off : this->_Mysize - 1);
; 2027 : 			for (; ; --_Uptr)
; 2028 : 				if (_Traits::find(_Ptr, _Count, *_Uptr) != 0)
; 2029 : 					return (_Uptr - this->_Myptr());	// found a match
; 2030 : 				else if (_Uptr == this->_Myptr())
; 2031 : 					break;	// at beginning, no more chance for match
; 2032 : 			}
; 2033 : 
; 2034 : 		return (npos);	// no match
; 2035 : 		}
; 2036 : 
; 2037 : 	size_type find_last_of(const _Elem *_Ptr,
; 2038 : 		size_type _Off = npos) const
; 2039 : 		{	// look for one of [_Ptr, <null>) before _Off
; 2040 : 		_DEBUG_POINTER(_Ptr);
; 2041 : 		return (find_last_of(_Ptr, _Off, _Traits::length(_Ptr)));
; 2042 : 		}
; 2043 : 
; 2044 : 	size_type find_last_of(_Elem _Ch,
; 2045 : 		size_type _Off = npos) const
; 2046 : 		{	// look for _Ch before _Off
; 2047 : 		return (rfind((const _Elem *)&_Ch, _Off, 1));
; 2048 : 		}
; 2049 : 
; 2050 : 	size_type find_first_not_of(const _Myt& _Right,
; 2051 : 		size_type _Off = 0) const _NOEXCEPT
; 2052 : 		{	// look for none of _Right at or after _Off
; 2053 : 		return (find_first_not_of(_Right._Myptr(), _Off,
; 2054 : 			_Right.size()));
; 2055 : 		}
; 2056 : 
; 2057 : 	size_type find_first_not_of(const _Elem *_Ptr,
; 2058 : 		size_type _Off, size_type _Count) const
; 2059 : 		{	// look for none of [_Ptr, _Ptr + _Count) at or after _Off
; 2060 :  #if _ITERATOR_DEBUG_LEVEL == 2
; 2061 : 		if (_Count != 0)
; 2062 : 			_DEBUG_POINTER(_Ptr);
; 2063 :  #endif /* _ITERATOR_DEBUG_LEVEL == 2 */
; 2064 : 
; 2065 : 		if (_Off < this->_Mysize)
; 2066 : 			{	// room for match, look for it
; 2067 : 			const _Elem *const _Vptr = this->_Myptr() + this->_Mysize;
; 2068 : 			for (const _Elem *_Uptr = this->_Myptr() + _Off;
; 2069 : 				_Uptr < _Vptr; ++_Uptr)
; 2070 : 				if (_Traits::find(_Ptr, _Count, *_Uptr) == 0)
; 2071 : 					return (_Uptr - this->_Myptr());
; 2072 : 			}
; 2073 : 		return (npos);
; 2074 : 		}
; 2075 : 
; 2076 : 	size_type find_first_not_of(const _Elem *_Ptr,
; 2077 : 		size_type _Off = 0) const
; 2078 : 		{	// look for one of [_Ptr, <null>) at or after _Off
; 2079 : 		_DEBUG_POINTER(_Ptr);
; 2080 : 		return (find_first_not_of(_Ptr, _Off, _Traits::length(_Ptr)));
; 2081 : 		}
; 2082 : 
; 2083 : 	size_type find_first_not_of(_Elem _Ch,
; 2084 : 		size_type _Off = 0) const
; 2085 : 		{	// look for non _Ch at or after _Off
; 2086 : 		return (find_first_not_of((const _Elem *)&_Ch, _Off, 1));
; 2087 : 		}
; 2088 : 
; 2089 : 	size_type find_last_not_of(const _Myt& _Right,
; 2090 : 		size_type _Off = npos) const _NOEXCEPT
; 2091 : 		{	// look for none of _Right before _Off
; 2092 : 		return (find_last_not_of(_Right._Myptr(), _Off, _Right.size()));
; 2093 : 		}
; 2094 : 
; 2095 : 	size_type find_last_not_of(const _Elem *_Ptr,
; 2096 : 		size_type _Off, size_type _Count) const
; 2097 : 		{	// look for none of [_Ptr, _Ptr + _Count) before _Off
; 2098 :  #if _ITERATOR_DEBUG_LEVEL == 2
; 2099 : 		if (_Count != 0)
; 2100 : 			_DEBUG_POINTER(_Ptr);
; 2101 :  #endif /* _ITERATOR_DEBUG_LEVEL == 2 */
; 2102 : 
; 2103 : 		if (0 < this->_Mysize)
; 2104 : 			{	// worth searching, do it
; 2105 : 			const _Elem *_Uptr = this->_Myptr()
; 2106 : 				+ (_Off < this->_Mysize ? _Off : this->_Mysize - 1);
; 2107 : 			for (; ; --_Uptr)
; 2108 : 				if (_Traits::find(_Ptr, _Count, *_Uptr) == 0)
; 2109 : 					return (_Uptr - this->_Myptr());
; 2110 : 				else if (_Uptr == this->_Myptr())
; 2111 : 					break;
; 2112 : 			}
; 2113 : 		return (npos);
; 2114 : 		}
; 2115 : 
; 2116 : 	size_type find_last_not_of(const _Elem *_Ptr,
; 2117 : 		size_type _Off = npos) const
; 2118 : 		{	// look for none of [_Ptr, <null>) before _Off
; 2119 : 		_DEBUG_POINTER(_Ptr);
; 2120 : 		return (find_last_not_of(_Ptr, _Off, _Traits::length(_Ptr)));
; 2121 : 		}
; 2122 : 
; 2123 : 	size_type find_last_not_of(_Elem _Ch,
; 2124 : 		size_type _Off = npos) const
; 2125 : 		{	// look for non _Ch before _Off
; 2126 : 		return (find_last_not_of((const _Elem *)&_Ch, _Off, 1));
; 2127 : 		}
; 2128 : 
; 2129 : 	_Myt substr(size_type _Off = 0, size_type _Count = npos) const
; 2130 : 		{	// return [_Off, _Off + _Count) as new string
; 2131 : 		return (_Myt(*this, _Off, _Count, get_allocator()));
; 2132 : 		}
; 2133 : 
; 2134 : 	int compare(const _Myt& _Right) const _NOEXCEPT
; 2135 : 		{	// compare [0, _Mysize) with _Right
; 2136 : 		return (compare(0, this->_Mysize, _Right._Myptr(), _Right.size()));
; 2137 : 		}
; 2138 : 
; 2139 : 	int compare(size_type _Off, size_type _N0,
; 2140 : 		const _Myt& _Right) const
; 2141 : 		{	// compare [_Off, _Off + _N0) with _Right
; 2142 : 		return (compare(_Off, _N0, _Right, 0, npos));
; 2143 : 		}
; 2144 : 
; 2145 : 	int compare(size_type _Off,
; 2146 : 		size_type _N0, const _Myt& _Right,
; 2147 : 		size_type _Roff, size_type _Count) const
; 2148 : 		{	// compare [_Off, _Off + _N0) with _Right [_Roff, _Roff + _Count)
; 2149 : 		if (_Right.size() < _Roff)
; 2150 : 			_Xran();	// _Off off end
; 2151 : 		if (_Right._Mysize - _Roff < _Count)
; 2152 : 			_Count = _Right._Mysize - _Roff;	// trim _Count to size
; 2153 : 		return (compare(_Off, _N0, _Right._Myptr() + _Roff, _Count));
; 2154 : 		}
; 2155 : 
; 2156 : 	int compare(const _Elem *_Ptr) const
; 2157 : 		{	// compare [0, _Mysize) with [_Ptr, <null>)
; 2158 : 		_DEBUG_POINTER(_Ptr);
; 2159 : 		return (compare(0, this->_Mysize, _Ptr, _Traits::length(_Ptr)));
; 2160 : 		}
; 2161 : 
; 2162 : 	int compare(size_type _Off, size_type _N0, const _Elem *_Ptr) const
; 2163 : 		{	// compare [_Off, _Off + _N0) with [_Ptr, <null>)
; 2164 : 		_DEBUG_POINTER(_Ptr);
; 2165 : 		return (compare(_Off, _N0, _Ptr, _Traits::length(_Ptr)));
; 2166 : 		}
; 2167 : 
; 2168 : 	int compare(size_type _Off,
; 2169 : 		size_type _N0, const _Elem *_Ptr, size_type _Count) const
; 2170 : 		{	// compare [_Off, _Off + _N0) with [_Ptr, _Ptr + _Count)
; 2171 :  #if _ITERATOR_DEBUG_LEVEL == 2
; 2172 : 		if (_Count != 0)
; 2173 : 			_DEBUG_POINTER(_Ptr);
; 2174 :  #endif /* _ITERATOR_DEBUG_LEVEL == 2 */
; 2175 : 
; 2176 : 		if (this->_Mysize < _Off)
; 2177 : 			_Xran();	// _Off off end
; 2178 : 		if (this->_Mysize - _Off < _N0)
; 2179 : 			_N0 = this->_Mysize - _Off;	// trim _N0 to size
; 2180 : 
; 2181 : 		size_type _Ans = _Traits::compare(this->_Myptr() + _Off, _Ptr,
; 2182 : 			_N0 < _Count ? _N0 : _Count);
; 2183 : 		return (_Ans != 0 ? (int)_Ans : _N0 < _Count ? -1
; 2184 : 			: _N0 == _Count ? 0 : +1);
; 2185 : 		}
; 2186 : 
; 2187 : 	allocator_type get_allocator() const _NOEXCEPT
; 2188 : 		{	// return allocator object for values
; 2189 : 		return (this->_Getal());
; 2190 : 		}
; 2191 : 
; 2192 : 	void _Chassign(size_type _Off, size_type _Count, _Elem _Ch)
; 2193 : 		{	// assign _Count copies of _Ch beginning at _Off
; 2194 : 		if (_Count == 1)
; 2195 : 			_Traits::assign(*(this->_Myptr() + _Off), _Ch);
; 2196 : 		else
; 2197 : 			_Traits::assign(this->_Myptr() + _Off, _Count, _Ch);
; 2198 : 		}
; 2199 : 
; 2200 : 	void _Copy(size_type _Newsize, size_type _Oldlen)
; 2201 : 		{	// copy _Oldlen elements to newly allocated buffer
; 2202 : 		size_type _Newres = _Newsize | this->_ALLOC_MASK;
; 2203 : 		if (max_size() < _Newres)
; 2204 : 			_Newres = _Newsize;	// undo roundup if too big
; 2205 : 		else if (this->_Myres / 2 <= _Newres / 3)
; 2206 : 			;
; 2207 : 		else if (this->_Myres <= max_size() - this->_Myres / 2)
; 2208 : 			_Newres = this->_Myres
; 2209 : 				+ this->_Myres / 2;	// grow exponentially if possible
; 2210 : 		else
; 2211 : 			_Newres = max_size();	// settle for max_size()
; 2212 : 
; 2213 : 		_Elem *_Ptr;
; 2214 : 		_TRY_BEGIN
; 2215 : 			_Ptr = this->_Getal().allocate(_Newres + 1);
; 2216 : 		_CATCH_ALL
; 2217 : 			_Newres = _Newsize;	// allocation failed, undo roundup and retry
; 2218 : 			_TRY_BEGIN
; 2219 : 				_Ptr = this->_Getal().allocate(_Newres + 1);
; 2220 : 			_CATCH_ALL
; 2221 : 			_Tidy(true);	// failed again, discard storage and reraise
; 2222 : 			_RERAISE;
; 2223 : 			_CATCH_END
; 2224 : 		_CATCH_END
; 2225 : 
; 2226 : 		if (0 < _Oldlen)
; 2227 : 			_Traits::copy(_Ptr, this->_Myptr(),
; 2228 : 				_Oldlen);	// copy existing elements
; 2229 : 		_Tidy(true);
; 2230 : 		this->_Getal().construct(&this->_Bx._Ptr, _Ptr);
; 2231 : 		this->_Myres = _Newres;
; 2232 : 		_Eos(_Oldlen);
; 2233 : 		}
; 2234 : 
; 2235 : 	void _Eos(size_type _Newsize)
; 2236 : 		{	// set new length and null terminator
; 2237 : 		_Traits::assign(this->_Myptr()[this->_Mysize = _Newsize], _Elem());

  00031	c7 47 10 00 00
	00 00		 mov	 DWORD PTR [edi+16], 0
; File c:\program files (x86)\microsoft visual studio 12.0\vc\include\iosfwd

; 564  : 		_Left = _Right;

  00038	c6 07 00	 mov	 BYTE PTR [edi], 0
; File d:\metin2\metin2\client_source_clean\client_source_clean\source\userinterface\networkactormanager.cpp

; 94   : {

  0003b	8d 4f 18	 lea	 ecx, DWORD PTR [edi+24]
  0003e	c7 45 fc 00 00
	00 00		 mov	 DWORD PTR __$EHRec$[ebp+8], 0
  00045	e8 00 00 00 00	 call	 ??0CAffectFlagContainer@@QAE@XZ ; CAffectFlagContainer::CAffectFlagContainer

; 95   : 	SetPosition(0, 0);

  0004a	6a 00		 push	 0
  0004c	6a 00		 push	 0
  0004e	8b cf		 mov	 ecx, edi
  00050	e8 00 00 00 00	 call	 ?SetPosition@SNetworkActorData@@QAEXJJ@Z ; SNetworkActorData::SetPosition

; 114  : 
; 115  : 	m_sAlignment=0;

  00055	33 c0		 xor	 eax, eax
  00057	c6 47 20 00	 mov	 BYTE PTR [edi+32], 0
; File c:\program files (x86)\microsoft visual studio 12.0\vc\include\xstring

; 1169 : 		return (assign(_Ptr, _Traits::length(_Ptr)));

  0005b	50		 push	 eax
  0005c	68 00 00 00 00	 push	 OFFSET ??_C@_00CNPNBAHC@?$AA@
; File d:\metin2\metin2\client_source_clean\client_source_clean\source\userinterface\networkactormanager.cpp

; 98   : 	m_dwVID=0;

  00061	c7 47 24 00 00
	00 00		 mov	 DWORD PTR [edi+36], 0

; 99   : 	m_dwStateFlags=0;

  00068	c7 47 28 00 00
	00 00		 mov	 DWORD PTR [edi+40], 0

; 100  : 	m_dwRace=0;

  0006f	c7 47 30 00 00
	00 00		 mov	 DWORD PTR [edi+48], 0

; 101  : 	m_dwMovSpd=0;

  00076	c7 47 34 00 00
	00 00		 mov	 DWORD PTR [edi+52], 0

; 102  : 	m_dwAtkSpd=0;

  0007d	c7 47 38 00 00
	00 00		 mov	 DWORD PTR [edi+56], 0

; 103  : 	m_fRot=0.0f;

  00084	c7 47 3c 00 00
	00 00		 mov	 DWORD PTR [edi+60], 0

; 104  : 	m_dwArmor=0;

  0008b	c7 47 64 00 00
	00 00		 mov	 DWORD PTR [edi+100], 0

; 105  : 	m_dwWeapon=0;	

  00092	c7 47 68 00 00
	00 00		 mov	 DWORD PTR [edi+104], 0

; 106  : 	m_dwHair=0;

  00099	c7 47 6c 00 00
	00 00		 mov	 DWORD PTR [edi+108], 0

; 107  : 	m_dwEmpireID=0;

  000a0	c7 47 2c 00 00
	00 00		 mov	 DWORD PTR [edi+44], 0

; 108  : 
; 109  : 	m_dwOwnerVID=0;

  000a7	c7 47 70 00 00
	00 00		 mov	 DWORD PTR [edi+112], 0

; 110  : 
; 111  : 	m_dwDuration=0;

  000ae	c7 47 60 00 00
	00 00		 mov	 DWORD PTR [edi+96], 0

; 112  : 	m_dwClientSrcTime=0;

  000b5	c7 47 5c 00 00
	00 00		 mov	 DWORD PTR [edi+92], 0

; 113  : 	m_dwServerSrcTime=0;

  000bc	c7 47 58 00 00
	00 00		 mov	 DWORD PTR [edi+88], 0

; 114  : 
; 115  : 	m_sAlignment=0;

  000c3	66 89 47 74	 mov	 WORD PTR [edi+116], ax

; 116  : 	m_byPKMode=0;

  000c7	88 47 76	 mov	 BYTE PTR [edi+118], al

; 117  : 	m_dwMountVnum=0;

  000ca	89 47 78	 mov	 DWORD PTR [edi+120], eax
; File c:\program files (x86)\microsoft visual studio 12.0\vc\include\xstring

; 1169 : 		return (assign(_Ptr, _Traits::length(_Ptr)));

  000cd	e8 00 00 00 00	 call	 ?assign@?$basic_string@DU?$char_traits@D@std@@V?$allocator@D@2@@std@@QAEAAV12@PBDI@Z ; std::basic_string<char,std::char_traits<char>,std::allocator<char> >::assign
; File d:\metin2\metin2\client_source_clean\client_source_clean\source\userinterface\networkactormanager.cpp

; 121  : 	m_kAffectFlags.Clear();

  000d2	8d 4f 18	 lea	 ecx, DWORD PTR [edi+24]
  000d5	e8 00 00 00 00	 call	 ?Clear@CAffectFlagContainer@@QAEXXZ ; CAffectFlagContainer::Clear

; 122  : }

  000da	8b c7		 mov	 eax, edi
  000dc	8b 4d f4	 mov	 ecx, DWORD PTR __$EHRec$[ebp]
  000df	64 89 0d 00 00
	00 00		 mov	 DWORD PTR fs:0, ecx
  000e6	59		 pop	 ecx
  000e7	5f		 pop	 edi
  000e8	5e		 pop	 esi
  000e9	8b e5		 mov	 esp, ebp
  000eb	5d		 pop	 ebp
  000ec	c3		 ret	 0
_TEXT	ENDS
;	COMDAT text$x
text$x	SEGMENT
__unwindfunclet$??0SNetworkActorData@@QAE@XZ$0:
  00000	8b 4d f0	 mov	 ecx, DWORD PTR _this$[ebp]
  00003	e9 00 00 00 00	 jmp	 ??1?$basic_string@DU?$char_traits@D@std@@V?$allocator@D@2@@std@@QAE@XZ ; std::basic_string<char,std::char_traits<char>,std::allocator<char> >::~basic_string<char,std::char_traits<char>,std::allocator<char> >
__ehhandler$??0SNetworkActorData@@QAE@XZ:
  00008	8b 54 24 08	 mov	 edx, DWORD PTR [esp+8]
  0000c	8d 42 0c	 lea	 eax, DWORD PTR [edx+12]
  0000f	8b 4a f0	 mov	 ecx, DWORD PTR [edx-16]
  00012	33 c8		 xor	 ecx, eax
  00014	e8 00 00 00 00	 call	 @__security_check_cookie@4
  00019	b8 00 00 00 00	 mov	 eax, OFFSET __ehfuncinfo$??0SNetworkActorData@@QAE@XZ
  0001e	e9 00 00 00 00	 jmp	 ___CxxFrameHandler3
text$x	ENDS
??0SNetworkActorData@@QAE@XZ ENDP			; SNetworkActorData::SNetworkActorData
; Function compile flags: /Ogtp
; File d:\metin2\metin2\client_source_clean\client_source_clean\source\userinterface\networkactormanager.cpp
; File c:\program files (x86)\microsoft visual studio 12.0\vc\include\xtree
; File d:\metin2\metin2\client_source_clean\client_source_clean\source\userinterface\networkactormanager.cpp
;	COMDAT ??0CNetworkActorManager@@QAE@XZ
_TEXT	SEGMENT
_this$ = -16						; size = 4
__$EHRec$ = -12						; size = 12
??0CNetworkActorManager@@QAE@XZ PROC			; CNetworkActorManager::CNetworkActorManager, COMDAT
; _this$ = ecx

; 127  : {

  00000	55		 push	 ebp
  00001	8b ec		 mov	 ebp, esp
  00003	6a ff		 push	 -1
  00005	68 00 00 00 00	 push	 __ehhandler$??0CNetworkActorManager@@QAE@XZ
  0000a	64 a1 00 00 00
	00		 mov	 eax, DWORD PTR fs:0
  00010	50		 push	 eax
  00011	51		 push	 ecx
  00012	56		 push	 esi
  00013	a1 00 00 00 00	 mov	 eax, DWORD PTR ___security_cookie
  00018	33 c5		 xor	 eax, ebp
  0001a	50		 push	 eax
  0001b	8d 45 f4	 lea	 eax, DWORD PTR __$EHRec$[ebp]
  0001e	64 a3 00 00 00
	00		 mov	 DWORD PTR fs:0, eax
  00024	8b f1		 mov	 esi, ecx
  00026	89 75 f0	 mov	 DWORD PTR _this$[ebp], esi
  00029	e8 00 00 00 00	 call	 ??0CReferenceObject@@QAE@XZ ; CReferenceObject::CReferenceObject
  0002e	c7 45 fc 00 00
	00 00		 mov	 DWORD PTR __$EHRec$[ebp+8], 0
  00035	c7 06 00 00 00
	00		 mov	 DWORD PTR [esi], OFFSET ??_7CNetworkActorManager@@6B@
; File c:\program files (x86)\microsoft visual studio 12.0\vc\include\xtree

; 569  : 		this->_Myhead = 0;

  0003b	c7 46 18 00 00
	00 00		 mov	 DWORD PTR [esi+24], 0

; 570  : 		this->_Mysize = 0;

  00042	c7 46 1c 00 00
	00 00		 mov	 DWORD PTR [esi+28], 0

; 571  : 		}
; 572  : 
; 573  : 	enum _Redbl
; 574  : 		{	// colors for link to parent
; 575  : 		_Red, _Black};
; 576  : 
; 577  : 	static char& _Color(_Nodeptr _Pnode)
; 578  : 		{	// return reference to color in node
; 579  : 		return ((char&)_Pnode->_Color);
; 580  : 		}
; 581  : 
; 582  : 	static char& _Isnil(_Nodeptr _Pnode)
; 583  : 		{	// return reference to nil flag in node
; 584  : 		return ((char&)_Pnode->_Isnil);
; 585  : 		}
; 586  : 
; 587  : 	static _Nodepref _Left(_Nodeptr _Pnode)
; 588  : 		{	// return reference to left pointer in node
; 589  : 		return ((_Nodepref)_Pnode->_Left);
; 590  : 		}
; 591  : 
; 592  : 	static _Nodepref _Parent(_Nodeptr _Pnode)
; 593  : 		{	// return reference to parent pointer in node
; 594  : 		return ((_Nodepref)_Pnode->_Parent);
; 595  : 		}
; 596  : 
; 597  : 	static _Nodepref _Right(_Nodeptr _Pnode)
; 598  : 		{	// return reference to right pointer in node
; 599  : 		return ((_Nodepref)_Pnode->_Right);
; 600  : 		}
; 601  : 
; 602  : 	static reference _Myval(_Nodeptr _Pnode)
; 603  : 		{	// return reference to value in node
; 604  : 		return ((reference)_Pnode->_Myval);
; 605  : 		}
; 606  : 
; 607  : 	static _Nodeptr _Max(_Nodeptr _Pnode)
; 608  : 		{	// return rightmost node in subtree at _Pnode
; 609  : 		while (!_Isnil(_Right(_Pnode)))
; 610  : 			_Pnode = _Right(_Pnode);
; 611  : 		return (_Pnode);
; 612  : 		}
; 613  : 
; 614  : 	static _Nodeptr _Min(_Nodeptr _Pnode)
; 615  : 		{	// return leftmost node in subtree at _Pnode
; 616  : 		while (!_Isnil(_Left(_Pnode)))
; 617  : 			_Pnode = _Left(_Pnode);
; 618  : 		return (_Pnode);
; 619  : 		}
; 620  : 
; 621  : 	_Nodeptr _Myhead;	// pointer to head node
; 622  : 	size_type _Mysize;	// number of elements
; 623  : 	};
; 624  : 
; 625  : 		// TEMPLATE CLASS _Tree_alloc
; 626  : template<bool _Al_has_storage,
; 627  : 	class _Alloc_types>
; 628  : 	class _Tree_alloc
; 629  : 		: public _Tree_val<typename _Alloc_types::_Val_types>
; 630  : 	{	// base class for tree to hold allocator with storage
; 631  : public:
; 632  : 	typename _Alloc_types::_Alnod_type _Alnod;	// allocator object
; 633  : 
; 634  : 	typedef _Tree_alloc<_Al_has_storage, _Alloc_types> _Myt;
; 635  : 	typedef typename _Alloc_types::_Alloc _Alloc;
; 636  : 	typedef typename _Alloc_types::_Alnod_type _Alty;
; 637  : 	typedef typename _Alloc_types::_Node _Node;
; 638  : 	typedef typename _Alloc_types::_Nodeptr _Nodeptr;
; 639  : 
; 640  :  #if _ITERATOR_DEBUG_LEVEL == 0
; 641  : 	_Tree_alloc(const _Alloc& _Al = _Alloc())
; 642  : 		: _Alnod(_Al)
; 643  : 		{	// construct head node, allocator from _Al
; 644  : 		this->_Myhead = _Buyheadnode();
; 645  : 		}
; 646  : 
; 647  : 	~_Tree_alloc() _NOEXCEPT
; 648  : 		{	// destroy head node
; 649  : 		_Freeheadnode(this->_Myhead);
; 650  : 		}
; 651  : 
; 652  : 	void _Change_alloc(const _Alty& _Al)
; 653  : 		{	// replace old allocator
; 654  : 		this->_Alnod = _Al;
; 655  : 		}
; 656  : 
; 657  : 	void _Swap_alloc(_Myt& _Right)
; 658  : 		{	// swap allocators
; 659  : 		_Swap_adl(this->_Alnod, _Right._Alnod);
; 660  : 		}
; 661  : 
; 662  :  #else /* _ITERATOR_DEBUG_LEVEL == 0 */
; 663  : 	_Tree_alloc(const _Alloc& _Al = _Alloc())
; 664  : 		: _Alnod(_Al)
; 665  : 		{	// construct allocators from _Al
; 666  : 		this->_Myhead = _Buyheadnode();
; 667  : 		_TRY_BEGIN
; 668  : 		_Alloc_proxy();
; 669  : 		_CATCH_ALL
; 670  : 		_Freeheadnode(this->_Myhead);
; 671  : 		_RERAISE;
; 672  : 		_CATCH_END
; 673  : 		}
; 674  : 
; 675  : 	~_Tree_alloc() _NOEXCEPT
; 676  : 		{	// destroy proxy
; 677  : 		_Freeheadnode(this->_Myhead);
; 678  : 		_Free_proxy();
; 679  : 		}
; 680  : 
; 681  : 	void _Change_alloc(const _Alty& _Al)
; 682  : 		{	// replace old allocator
; 683  : 		_Free_proxy();
; 684  : 		this->_Alnod = _Al;
; 685  : 		_Alloc_proxy();
; 686  : 		}
; 687  : 
; 688  : 	void _Swap_alloc(_Myt& _Right)
; 689  : 		{	// swap allocators
; 690  : 		_Swap_adl(this->_Alnod, _Right._Alnod);
; 691  : 		_Swap_adl(this->_Myproxy, _Right._Myproxy);
; 692  : 		}
; 693  : 
; 694  : 	void _Alloc_proxy()
; 695  : 		{	// construct proxy from _Alnod
; 696  : 		typename _Alty::template rebind<_Container_proxy>::other
; 697  : 			_Alproxy(this->_Alnod);
; 698  : 		this->_Myproxy = _Alproxy.allocate(1);
; 699  : 		_Alproxy.construct(this->_Myproxy, _Container_proxy());
; 700  : 		this->_Myproxy->_Mycont = this;
; 701  : 		}
; 702  : 
; 703  : 	void _Free_proxy()
; 704  : 		{	// destroy proxy
; 705  : 		typename _Alty::template rebind<_Container_proxy>::other
; 706  : 			_Alproxy(this->_Alnod);
; 707  : 		this->_Orphan_all();
; 708  : 		_Alproxy.destroy(this->_Myproxy);
; 709  : 		_Alproxy.deallocate(this->_Myproxy, 1);
; 710  : 		this->_Myproxy = 0;
; 711  : 		}
; 712  :  #endif /* _ITERATOR_DEBUG_LEVEL == 0 */
; 713  : 
; 714  : 	_Nodeptr _Buyheadnode()
; 715  : 		{	// get head node using current allocator
; 716  : 		_Nodeptr _Pnode = this->_Alnod.allocate(1);
; 717  : 
; 718  : 		_TRY_BEGIN
; 719  : 		this->_Alnod.construct(
; 720  : 			_STD addressof(this->_Left(_Pnode)), _Pnode);
; 721  : 		this->_Alnod.construct(
; 722  : 			_STD addressof(this->_Parent(_Pnode)), _Pnode);
; 723  : 		this->_Alnod.construct(
; 724  : 			_STD addressof(this->_Right(_Pnode)), _Pnode);
; 725  : 		_CATCH_ALL
; 726  : 		this->_Alnod.deallocate(_Pnode, 1);
; 727  : 		_RERAISE;
; 728  : 		_CATCH_END
; 729  : 
; 730  : 		this->_Color(_Pnode) = this->_Black;
; 731  : 		this->_Isnil(_Pnode) = true;
; 732  : 		return (_Pnode);
; 733  : 		}
; 734  : 
; 735  : 	void _Freeheadnode(_Nodeptr _Pnode)
; 736  : 		{	// free head node using current allocator
; 737  : 		this->_Alnod.destroy(
; 738  : 			_STD addressof(this->_Left(_Pnode)));
; 739  : 		this->_Alnod.destroy(
; 740  : 			_STD addressof(this->_Parent(_Pnode)));
; 741  : 		this->_Alnod.destroy(
; 742  : 			_STD addressof(this->_Right(_Pnode)));
; 743  : 		this->_Alnod.deallocate(_Pnode, 1);
; 744  : 		}
; 745  : 
; 746  : 	_Alty& _Getal()
; 747  : 		{	// get reference to allocator
; 748  : 		return (this->_Alnod);
; 749  : 		}
; 750  : 
; 751  : 	const _Alty& _Getal() const
; 752  : 		{	// get reference to allocator
; 753  : 		return (this->_Alnod);
; 754  : 		}
; 755  : 	};
; 756  : 
; 757  : 		// TEMPLATE CLASS _Tree_alloc
; 758  : template<class _Alloc_types>
; 759  : 	class _Tree_alloc<false, _Alloc_types>
; 760  : 		: public _Tree_val<typename _Alloc_types::_Val_types>
; 761  : 	{	// base class for tree to hold allocator with no storage
; 762  : public:
; 763  : 	typedef _Tree_alloc<false, _Alloc_types> _Myt;
; 764  : 	typedef _Tree_val<typename _Alloc_types::_Val_types> _Mybase;
; 765  : 	typedef typename _Alloc_types::_Alloc _Alloc;
; 766  : 	typedef typename _Alloc_types::_Alnod_type _Alty;
; 767  : 	typedef typename _Alloc_types::_Node _Node;
; 768  : 	typedef typename _Alloc_types::_Nodeptr _Nodeptr;
; 769  : 
; 770  :  #if _ITERATOR_DEBUG_LEVEL == 0
; 771  : 	_Tree_alloc(const _Alloc& = _Alloc())
; 772  : 		{	// construct head node, allocator from _Al
; 773  : 		this->_Myhead = _Buyheadnode();

  00049	e8 00 00 00 00	 call	 ?_Buyheadnode@?$_Tree_alloc@$0A@U?$_Tree_base_types@U?$pair@$$CBKUSNetworkActorData@@@std@@V?$allocator@U?$pair@$$CBKUSNetworkActorData@@@std@@@2@@std@@@std@@QAEPAU?$_Tree_node@U?$pair@$$CBKUSNetworkActorData@@@std@@PAX@2@XZ ; std::_Tree_alloc<0,std::_Tree_base_types<std::pair<unsigned long const ,SNetworkActorData>,std::allocator<std::pair<unsigned long const ,SNetworkActorData> > > >::_Buyheadnode
  0004e	89 46 18	 mov	 DWORD PTR [esi+24], eax
; File d:\metin2\metin2\client_source_clean\client_source_clean\source\userinterface\networkactormanager.cpp

; 129  : }

  00051	8b c6		 mov	 eax, esi
  00053	c7 46 0c 00 00
	00 00		 mov	 DWORD PTR [esi+12], 0
  0005a	8b 4d f4	 mov	 ecx, DWORD PTR __$EHRec$[ebp]
  0005d	64 89 0d 00 00
	00 00		 mov	 DWORD PTR fs:0, ecx
  00064	59		 pop	 ecx
  00065	5e		 pop	 esi
  00066	8b e5		 mov	 esp, ebp
  00068	5d		 pop	 ebp
  00069	c3		 ret	 0
_TEXT	ENDS
;	COMDAT text$x
text$x	SEGMENT
__unwindfunclet$??0CNetworkActorManager@@QAE@XZ$0:
  00000	8b 4d f0	 mov	 ecx, DWORD PTR _this$[ebp]
  00003	e9 00 00 00 00	 jmp	 ??1CReferenceObject@@UAE@XZ ; CReferenceObject::~CReferenceObject
__ehhandler$??0CNetworkActorManager@@QAE@XZ:
  00008	8b 54 24 08	 mov	 edx, DWORD PTR [esp+8]
  0000c	8d 42 0c	 lea	 eax, DWORD PTR [edx+12]
  0000f	8b 4a f4	 mov	 ecx, DWORD PTR [edx-12]
  00012	33 c8		 xor	 ecx, eax
  00014	e8 00 00 00 00	 call	 @__security_check_cookie@4
  00019	b8 00 00 00 00	 mov	 eax, OFFSET __ehfuncinfo$??0CNetworkActorManager@@QAE@XZ
  0001e	e9 00 00 00 00	 jmp	 ___CxxFrameHandler3
text$x	ENDS
??0CNetworkActorManager@@QAE@XZ ENDP			; CNetworkActorManager::CNetworkActorManager
; Function compile flags: /Ogtp
;	COMDAT ??_GCNetworkActorManager@@UAEPAXI@Z
_TEXT	SEGMENT
___flags$ = 8						; size = 4
??_GCNetworkActorManager@@UAEPAXI@Z PROC		; CNetworkActorManager::`scalar deleting destructor', COMDAT
; _this$ = ecx
  00000	55		 push	 ebp
  00001	8b ec		 mov	 ebp, esp
  00003	56		 push	 esi
  00004	8b f1		 mov	 esi, ecx
  00006	e8 00 00 00 00	 call	 ??1CNetworkActorManager@@UAE@XZ ; CNetworkActorManager::~CNetworkActorManager
  0000b	f6 45 08 01	 test	 BYTE PTR ___flags$[ebp], 1
  0000f	74 09		 je	 SHORT $LN4@scalar
  00011	56		 push	 esi
  00012	e8 00 00 00 00	 call	 ??3@YAXPAX@Z		; operator delete
  00017	83 c4 04	 add	 esp, 4
$LN4@scalar:
  0001a	8b c6		 mov	 eax, esi
  0001c	5e		 pop	 esi
  0001d	5d		 pop	 ebp
  0001e	c2 04 00	 ret	 4
??_GCNetworkActorManager@@UAEPAXI@Z ENDP		; CNetworkActorManager::`scalar deleting destructor'
_TEXT	ENDS
; Function compile flags: /Ogtp
; File c:\program files (x86)\microsoft visual studio 12.0\vc\include\xtree
; File c:\program files (x86)\microsoft visual studio 12.0\vc\include\xmemory0
;	COMDAT ??1?$map@KUSNetworkActorData@@U?$less@K@std@@V?$allocator@U?$pair@$$CBKUSNetworkActorData@@@std@@@3@@std@@QAE@XZ
_TEXT	SEGMENT
$T1 = -4						; size = 4
??1?$map@KUSNetworkActorData@@U?$less@K@std@@V?$allocator@U?$pair@$$CBKUSNetworkActorData@@@std@@@3@@std@@QAE@XZ PROC ; std::map<unsigned long,SNetworkActorData,std::less<unsigned long>,std::allocator<std::pair<unsigned long const ,SNetworkActorData> > >::~map<unsigned long,SNetworkActorData,std::less<unsigned long>,std::allocator<std::pair<unsigned long const ,SNetworkActorData> > >, COMDAT
; _this$ = ecx
  00000	55		 push	 ebp
  00001	8b ec		 mov	 ebp, esp
  00003	51		 push	 ecx
  00004	56		 push	 esi
  00005	8b f1		 mov	 esi, ecx
; File c:\program files (x86)\microsoft visual studio 12.0\vc\include\xtree

; 2230 : 		erase(begin(), end());

  00007	8b 06		 mov	 eax, DWORD PTR [esi]
  00009	50		 push	 eax
  0000a	ff 30		 push	 DWORD PTR [eax]
  0000c	8d 45 fc	 lea	 eax, DWORD PTR $T1[ebp]
  0000f	50		 push	 eax
  00010	e8 00 00 00 00	 call	 ?erase@?$_Tree@V?$_Tmap_traits@KUSNetworkActorData@@U?$less@K@std@@V?$allocator@U?$pair@$$CBKUSNetworkActorData@@@std@@@3@$0A@@std@@@std@@QAE?AV?$_Tree_iterator@V?$_Tree_val@U?$_Tree_simple_types@U?$pair@$$CBKUSNetworkActorData@@@std@@@std@@@std@@@2@V?$_Tree_const_iterator@V?$_Tree_val@U?$_Tree_simple_types@U?$pair@$$CBKUSNetworkActorData@@@std@@@std@@@std@@@2@0@Z ; std::_Tree<std::_Tmap_traits<unsigned long,SNetworkActorData,std::less<unsigned long>,std::allocator<std::pair<unsigned long const ,SNetworkActorData> >,0> >::erase
; File c:\program files (x86)\microsoft visual studio 12.0\vc\include\xmemory0

; 573  : 		::operator delete(_Ptr);

  00015	ff 36		 push	 DWORD PTR [esi]
  00017	e8 00 00 00 00	 call	 ??3@YAXPAX@Z		; operator delete
  0001c	83 c4 04	 add	 esp, 4
  0001f	5e		 pop	 esi
  00020	8b e5		 mov	 esp, ebp
  00022	5d		 pop	 ebp
  00023	c3		 ret	 0
??1?$map@KUSNetworkActorData@@U?$less@K@std@@V?$allocator@U?$pair@$$CBKUSNetworkActorData@@@std@@@3@@std@@QAE@XZ ENDP ; std::map<unsigned long,SNetworkActorData,std::less<unsigned long>,std::allocator<std::pair<unsigned long const ,SNetworkActorData> > >::~map<unsigned long,SNetworkActorData,std::less<unsigned long>,std::allocator<std::pair<unsigned long const ,SNetworkActorData> > >
_TEXT	ENDS
; Function compile flags: /Ogtp
; File d:\metin2\metin2\client_source_clean\client_source_clean\source\userinterface\networkactormanager.cpp
; File c:\program files (x86)\microsoft visual studio 12.0\vc\include\xtree
; File c:\program files (x86)\microsoft visual studio 12.0\vc\include\xmemory0
; File d:\metin2\metin2\client_source_clean\client_source_clean\source\userinterface\networkactormanager.cpp
;	COMDAT ??1CNetworkActorManager@@UAE@XZ
_TEXT	SEGMENT
$T1 = -4						; size = 4
??1CNetworkActorManager@@UAE@XZ PROC			; CNetworkActorManager::~CNetworkActorManager, COMDAT
; _this$ = ecx

; 132  : {

  00000	55		 push	 ebp
  00001	8b ec		 mov	 ebp, esp
  00003	51		 push	 ecx
  00004	56		 push	 esi
  00005	57		 push	 edi
  00006	8b f9		 mov	 edi, ecx
  00008	c7 07 00 00 00
	00		 mov	 DWORD PTR [edi], OFFSET ??_7CNetworkActorManager@@6B@
; File c:\program files (x86)\microsoft visual studio 12.0\vc\include\xtree

; 2230 : 		erase(begin(), end());

  0000e	8d 4f 18	 lea	 ecx, DWORD PTR [edi+24]
  00011	8b 47 18	 mov	 eax, DWORD PTR [edi+24]
  00014	50		 push	 eax
  00015	ff 30		 push	 DWORD PTR [eax]
  00017	8d 45 fc	 lea	 eax, DWORD PTR $T1[ebp]
  0001a	50		 push	 eax
  0001b	e8 00 00 00 00	 call	 ?erase@?$_Tree@V?$_Tmap_traits@KUSNetworkActorData@@U?$less@K@std@@V?$allocator@U?$pair@$$CBKUSNetworkActorData@@@std@@@3@$0A@@std@@@std@@QAE?AV?$_Tree_iterator@V?$_Tree_val@U?$_Tree_simple_types@U?$pair@$$CBKUSNetworkActorData@@@std@@@std@@@std@@@2@V?$_Tree_const_iterator@V?$_Tree_val@U?$_Tree_simple_types@U?$pair@$$CBKUSNetworkActorData@@@std@@@std@@@std@@@2@0@Z ; std::_Tree<std::_Tmap_traits<unsigned long,SNetworkActorData,std::less<unsigned long>,std::allocator<std::pair<unsigned long const ,SNetworkActorData> >,0> >::erase
; File c:\program files (x86)\microsoft visual studio 12.0\vc\include\xmemory0

; 573  : 		::operator delete(_Ptr);

  00020	ff 77 18	 push	 DWORD PTR [edi+24]
  00023	e8 00 00 00 00	 call	 ??3@YAXPAX@Z		; operator delete
  00028	83 c4 04	 add	 esp, 4
; File d:\metin2\metin2\client_source_clean\client_source_clean\source\userinterface\networkactormanager.cpp

; 133  : }

  0002b	8b cf		 mov	 ecx, edi
  0002d	e8 00 00 00 00	 call	 ??1CReferenceObject@@UAE@XZ ; CReferenceObject::~CReferenceObject
  00032	5f		 pop	 edi
  00033	5e		 pop	 esi
  00034	8b e5		 mov	 esp, ebp
  00036	5d		 pop	 ebp
  00037	c3		 ret	 0
??1CNetworkActorManager@@UAE@XZ ENDP			; CNetworkActorManager::~CNetworkActorManager
_TEXT	ENDS
; Function compile flags: /Ogtp
; File d:\metin2\metin2\client_source_clean\client_source_clean\source\userinterface\networkactormanager.cpp
; File c:\program files (x86)\microsoft visual studio 12.0\vc\include\xtree
; File d:\metin2\metin2\client_source_clean\client_source_clean\source\userinterface\networkactormanager.cpp
;	COMDAT ?Destroy@CNetworkActorManager@@QAEXXZ
_TEXT	SEGMENT
?Destroy@CNetworkActorManager@@QAEXXZ PROC		; CNetworkActorManager::Destroy, COMDAT
; _this$ = ecx

; 136  : {

  00000	56		 push	 esi
  00001	57		 push	 edi
  00002	8b f9		 mov	 edi, ecx
; File c:\program files (x86)\microsoft visual studio 12.0\vc\include\xtree

; 1540 : 		_Erase(_Root());

  00004	8b 47 18	 mov	 eax, DWORD PTR [edi+24]
  00007	8d 4f 18	 lea	 ecx, DWORD PTR [edi+24]
  0000a	ff 70 04	 push	 DWORD PTR [eax+4]
  0000d	e8 00 00 00 00	 call	 ?_Erase@?$_Tree@V?$_Tmap_traits@KUSNetworkActorData@@U?$less@K@std@@V?$allocator@U?$pair@$$CBKUSNetworkActorData@@@std@@@3@$0A@@std@@@std@@IAEXPAU?$_Tree_node@U?$pair@$$CBKUSNetworkActorData@@@std@@PAX@2@@Z ; std::_Tree<std::_Tmap_traits<unsigned long,SNetworkActorData,std::less<unsigned long>,std::allocator<std::pair<unsigned long const ,SNetworkActorData> >,0> >::_Erase

; 594  : 		return ((_Nodepref)_Pnode->_Parent);

  00012	8b 47 18	 mov	 eax, DWORD PTR [edi+24]

; 1541 : 		_Root() = this->_Myhead;

  00015	89 40 04	 mov	 DWORD PTR [eax+4], eax

; 1542 : 		_Lmost() = this->_Myhead;

  00018	8b 47 18	 mov	 eax, DWORD PTR [edi+24]
  0001b	89 00		 mov	 DWORD PTR [eax], eax

; 595  : 		}
; 596  : 
; 597  : 	static _Nodepref _Right(_Nodeptr _Pnode)
; 598  : 		{	// return reference to right pointer in node
; 599  : 		return ((_Nodepref)_Pnode->_Right);

  0001d	8b 47 18	 mov	 eax, DWORD PTR [edi+24]

; 1543 : 		_Rmost() = this->_Myhead;

  00020	89 40 08	 mov	 DWORD PTR [eax+8], eax

; 1544 : 		this->_Mysize = 0;

  00023	c7 47 1c 00 00
	00 00		 mov	 DWORD PTR [edi+28], 0
; File d:\metin2\metin2\client_source_clean\client_source_clean\source\userinterface\networkactormanager.cpp

; 139  : 	m_dwMainVID=0;

  0002a	c7 47 0c 00 00
	00 00		 mov	 DWORD PTR [edi+12], 0

; 140  : 	m_lMainPosX=0;

  00031	c7 47 10 00 00
	00 00		 mov	 DWORD PTR [edi+16], 0

; 141  : 	m_lMainPosY=0;

  00038	c7 47 14 00 00
	00 00		 mov	 DWORD PTR [edi+20], 0
  0003f	5f		 pop	 edi
  00040	5e		 pop	 esi

; 142  : }

  00041	c3		 ret	 0
?Destroy@CNetworkActorManager@@QAEXXZ ENDP		; CNetworkActorManager::Destroy
_TEXT	ENDS
; Function compile flags: /Ogtp
; File d:\metin2\metin2\client_source_clean\client_source_clean\source\userinterface\networkactormanager.cpp
; File c:\program files (x86)\microsoft visual studio 12.0\vc\include\xtree
; File d:\metin2\metin2\client_source_clean\client_source_clean\source\userinterface\networkactormanager.cpp
;	COMDAT ?SetMainActorVID@CNetworkActorManager@@QAEXK@Z
_TEXT	SEGMENT
_dwVID$ = 8						; size = 4
?SetMainActorVID@CNetworkActorManager@@QAEXK@Z PROC	; CNetworkActorManager::SetMainActorVID, COMDAT
; _this$ = ecx

; 145  : {

  00000	55		 push	 ebp
  00001	8b ec		 mov	 ebp, esp

; 146  : 	m_dwMainVID=dwVID;

  00003	8b 45 08	 mov	 eax, DWORD PTR _dwVID$[ebp]
  00006	56		 push	 esi
  00007	89 41 0c	 mov	 DWORD PTR [ecx+12], eax

; 147  : 	m_lMainPosX=0;
; 148  : 	m_lMainPosY=0;
; 149  : 
; 150  : 	m_kNetActorDict.clear();

  0000a	8d 71 18	 lea	 esi, DWORD PTR [ecx+24]
  0000d	c7 41 10 00 00
	00 00		 mov	 DWORD PTR [ecx+16], 0
  00014	c7 41 14 00 00
	00 00		 mov	 DWORD PTR [ecx+20], 0
; File c:\program files (x86)\microsoft visual studio 12.0\vc\include\xtree

; 1540 : 		_Erase(_Root());

  0001b	8b ce		 mov	 ecx, esi
  0001d	8b 06		 mov	 eax, DWORD PTR [esi]
  0001f	ff 70 04	 push	 DWORD PTR [eax+4]
  00022	e8 00 00 00 00	 call	 ?_Erase@?$_Tree@V?$_Tmap_traits@KUSNetworkActorData@@U?$less@K@std@@V?$allocator@U?$pair@$$CBKUSNetworkActorData@@@std@@@3@$0A@@std@@@std@@IAEXPAU?$_Tree_node@U?$pair@$$CBKUSNetworkActorData@@@std@@PAX@2@@Z ; std::_Tree<std::_Tmap_traits<unsigned long,SNetworkActorData,std::less<unsigned long>,std::allocator<std::pair<unsigned long const ,SNetworkActorData> >,0> >::_Erase

; 594  : 		return ((_Nodepref)_Pnode->_Parent);

  00027	8b 06		 mov	 eax, DWORD PTR [esi]

; 1541 : 		_Root() = this->_Myhead;

  00029	89 40 04	 mov	 DWORD PTR [eax+4], eax

; 1542 : 		_Lmost() = this->_Myhead;

  0002c	8b 06		 mov	 eax, DWORD PTR [esi]
  0002e	89 00		 mov	 DWORD PTR [eax], eax

; 595  : 		}
; 596  : 
; 597  : 	static _Nodepref _Right(_Nodeptr _Pnode)
; 598  : 		{	// return reference to right pointer in node
; 599  : 		return ((_Nodepref)_Pnode->_Right);

  00030	8b 06		 mov	 eax, DWORD PTR [esi]

; 1543 : 		_Rmost() = this->_Myhead;

  00032	89 40 08	 mov	 DWORD PTR [eax+8], eax

; 1544 : 		this->_Mysize = 0;

  00035	c7 46 04 00 00
	00 00		 mov	 DWORD PTR [esi+4], 0
  0003c	5e		 pop	 esi
; File d:\metin2\metin2\client_source_clean\client_source_clean\source\userinterface\networkactormanager.cpp

; 151  : }

  0003d	5d		 pop	 ebp
  0003e	c2 04 00	 ret	 4
?SetMainActorVID@CNetworkActorManager@@QAEXK@Z ENDP	; CNetworkActorManager::SetMainActorVID
_TEXT	ENDS
; Function compile flags: /Ogtp
; File d:\metin2\metin2\client_source_clean\client_source_clean\source\userinterface\networkactormanager.cpp
;	COMDAT ?Update@CNetworkActorManager@@QAEXXZ
_TEXT	SEGMENT
?Update@CNetworkActorManager@@QAEXXZ PROC		; CNetworkActorManager::Update, COMDAT
; _this$ = ecx

; 155  : 	__OLD_Update();

  00000	e9 00 00 00 00	 jmp	 ?__OLD_Update@CNetworkActorManager@@IAEXXZ ; CNetworkActorManager::__OLD_Update
?Update@CNetworkActorManager@@QAEXXZ ENDP		; CNetworkActorManager::Update
_TEXT	ENDS
; Function compile flags: /Ogtp
; File d:\metin2\metin2\client_source_clean\client_source_clean\source\userinterface\networkactormanager.cpp
; File c:\program files (x86)\microsoft visual studio 12.0\vc\include\xtree
; File d:\metin2\metin2\client_source_clean\client_source_clean\source\userinterface\networkactormanager.cpp
; File c:\program files (x86)\microsoft visual studio 12.0\vc\include\xtree
; File d:\metin2\metin2\client_source_clean\client_source_clean\source\userinterface\networkactormanager.cpp
; File c:\program files (x86)\microsoft visual studio 12.0\vc\include\xtree
; File d:\metin2\metin2\client_source_clean\client_source_clean\source\userinterface\networkactormanager.cpp
;	COMDAT ?__OLD_Update@CNetworkActorManager@@IAEXXZ
_TEXT	SEGMENT
tv399 = -4						; size = 4
?__OLD_Update@CNetworkActorManager@@IAEXXZ PROC		; CNetworkActorManager::__OLD_Update, COMDAT
; _this$ = ecx

; 159  : {

  00000	55		 push	 ebp
  00001	8b ec		 mov	 ebp, esp
  00003	83 e4 f8	 and	 esp, -8			; fffffff8H
  00006	51		 push	 ecx
  00007	53		 push	 ebx
  00008	56		 push	 esi
  00009	57		 push	 edi
  0000a	8b d9		 mov	 ebx, ecx

; 160  : 	__UpdateMainActor();

  0000c	e8 00 00 00 00	 call	 ?__UpdateMainActor@CNetworkActorManager@@IAEXXZ ; CNetworkActorManager::__UpdateMainActor

; 161  : 
; 162  : 	CPythonCharacterManager& rkChrMgr=__GetCharacterManager();

  00011	e8 00 00 00 00	 call	 ?__GetCharacterManager@CNetworkActorManager@@IAEAAVCPythonCharacterManager@@XZ ; CNetworkActorManager::__GetCharacterManager
; File c:\program files (x86)\microsoft visual studio 12.0\vc\include\xtree

; 589  : 		return ((_Nodepref)_Pnode->_Left);

  00016	8b 53 18	 mov	 edx, DWORD PTR [ebx+24]
; File d:\metin2\metin2\client_source_clean\client_source_clean\source\userinterface\networkactormanager.cpp

; 165  : 	for (i=m_kNetActorDict.begin(); i!=m_kNetActorDict.end(); ++i)

  00019	8b 32		 mov	 esi, DWORD PTR [edx]
; File c:\program files (x86)\microsoft visual studio 12.0\vc\include\xtree

; 336  : 		return (this->_Ptr == _Right._Ptr);

  0001b	3b f2		 cmp	 esi, edx
; File d:\metin2\metin2\client_source_clean\client_source_clean\source\userinterface\networkactormanager.cpp

; 165  : 	for (i=m_kNetActorDict.begin(); i!=m_kNetActorDict.end(); ++i)

  0001d	74 7d		 je	 SHORT $LN3@OLD_Update
  0001f	83 c0 04	 add	 eax, 4
  00022	89 44 24 0c	 mov	 DWORD PTR tv399[esp+16], eax
$LL34@OLD_Update:

; 166  : 	{
; 167  : 		SNetworkActorData& rkNetActorData=i->second;

  00026	8d 7e 14	 lea	 edi, DWORD PTR [esi+20]

; 168  : 		rkNetActorData.UpdatePosition();

  00029	8b cf		 mov	 ecx, edi
  0002b	e8 00 00 00 00	 call	 ?UpdatePosition@SNetworkActorData@@QAEXXZ ; SNetworkActorData::UpdatePosition

; 169  : 
; 170  : 		CInstanceBase * pkInstFind = rkChrMgr.GetInstancePtr(rkNetActorData.m_dwVID);

  00030	8b 4c 24 0c	 mov	 ecx, DWORD PTR tv399[esp+16]
  00034	ff 77 24	 push	 DWORD PTR [edi+36]
  00037	8b 01		 mov	 eax, DWORD PTR [ecx]
  00039	ff 50 08	 call	 DWORD PTR [eax+8]

; 171  : 		if (!pkInstFind)

  0003c	85 c0		 test	 eax, eax
  0003e	75 14		 jne	 SHORT $LN4@OLD_Update

; 172  : 		{
; 173  : 			if (__IsVisibleActor(rkNetActorData))

  00040	57		 push	 edi
  00041	8b cb		 mov	 ecx, ebx
  00043	e8 00 00 00 00	 call	 ?__IsVisibleActor@CNetworkActorManager@@IAE_NABUSNetworkActorData@@@Z ; CNetworkActorManager::__IsVisibleActor
  00048	84 c0		 test	 al, al
  0004a	74 08		 je	 SHORT $LN4@OLD_Update

; 174  : 				__AppendCharacterManagerActor(rkNetActorData);

  0004c	57		 push	 edi
  0004d	8b cb		 mov	 ecx, ebx
  0004f	e8 00 00 00 00	 call	 ?__AppendCharacterManagerActor@CNetworkActorManager@@IAEPAVCInstanceBase@@AAUSNetworkActorData@@@Z ; CNetworkActorManager::__AppendCharacterManagerActor
$LN4@OLD_Update:
; File c:\program files (x86)\microsoft visual studio 12.0\vc\include\xtree

; 60   : 		if (_Mytree::_Isnil(_Ptr))

  00054	80 7e 0d 00	 cmp	 BYTE PTR [esi+13], 0
  00058	75 3d		 jne	 SHORT $LN95@OLD_Update

; 337  : 		}
; 338  : 
; 339  : 	bool operator!=(const _Myiter& _Right) const
; 340  : 		{	// test for iterator inequality
; 341  : 		return (!(*this == _Right));
; 342  : 		}
; 343  : 	};
; 344  : 
; 345  : template<class _Mytree> inline
; 346  : 	typename _Tree_const_iterator<_Mytree>::_Unchecked_type
; 347  : 		_Unchecked(_Tree_const_iterator<_Mytree> _Iter)
; 348  : 	{	// convert to unchecked
; 349  : 	return (_Iter._Unchecked());
; 350  : 	}
; 351  : 
; 352  : template<class _Mytree> inline
; 353  : 	_Tree_const_iterator<_Mytree>&
; 354  : 		_Rechecked(_Tree_const_iterator<_Mytree>& _Iter,
; 355  : 			typename _Tree_const_iterator<_Mytree>
; 356  : 				::_Unchecked_type _Right)
; 357  : 	{	// convert to checked
; 358  : 	return (_Iter._Rechecked(_Right));
; 359  : 	}
; 360  : 
; 361  : 	// TEMPLATE CLASS _Tree_iterator
; 362  : template<class _Mytree>
; 363  : 	class _Tree_iterator
; 364  : 		: public _Tree_const_iterator<_Mytree>
; 365  : 	{	// iterator for mutable tree
; 366  : public:
; 367  : 	typedef _Tree_iterator<_Mytree> _Myiter;
; 368  : 	typedef _Tree_const_iterator<_Mytree> _Mybase;
; 369  : 	typedef bidirectional_iterator_tag iterator_category;
; 370  : 
; 371  : 	typedef typename _Mytree::_Nodeptr _Nodeptr;
; 372  : 	typedef typename _Mytree::value_type value_type;
; 373  : 	typedef typename _Mytree::difference_type difference_type;
; 374  : 
; 375  : 	typedef typename _Mytree::pointer pointer;
; 376  : 	typedef typename _Mytree::reference reference;
; 377  : 
; 378  : 	_Tree_iterator()
; 379  : 		{	// construct with null node
; 380  : 		}
; 381  : 
; 382  : 	_Tree_iterator(_Nodeptr _Pnode, const _Mytree *_Plist)
; 383  : 		: _Mybase(_Pnode, _Plist)
; 384  : 		{	// construct with node pointer _Pnode
; 385  : 		}
; 386  : 
; 387  : 	typedef _Tree_unchecked_iterator<_Mytree> _Unchecked_type;
; 388  : 
; 389  : 	_Myiter& _Rechecked(_Unchecked_type _Right)
; 390  : 		{	// reset from unchecked iterator
; 391  : 		this->_Ptr = _Right._Ptr;
; 392  : 		return (*this);
; 393  : 		}
; 394  : 
; 395  : 	_Unchecked_type _Unchecked() const
; 396  : 		{	// make an unchecked iterator
; 397  : 		return (_Unchecked_type(this->_Ptr, (_Mytree *)this->_Getcont()));
; 398  : 		}
; 399  : 
; 400  : 	reference operator*() const
; 401  : 		{	// return designated value
; 402  : 		return ((reference)**(_Mybase *)this);
; 403  : 		}
; 404  : 
; 405  : 	pointer operator->() const
; 406  : 		{	// return pointer to class object
; 407  : 		return (_STD pointer_traits<pointer>::pointer_to(**this));
; 408  : 		}
; 409  : 
; 410  : 	_Myiter& operator++()
; 411  : 		{	// preincrement
; 412  : 		++(*(_Mybase *)this);
; 413  : 		return (*this);
; 414  : 		}
; 415  : 
; 416  : 	_Myiter operator++(int)
; 417  : 		{	// postincrement
; 418  : 		_Myiter _Tmp = *this;
; 419  : 		++*this;
; 420  : 		return (_Tmp);
; 421  : 		}
; 422  : 
; 423  : 	_Myiter& operator--()
; 424  : 		{	// predecrement
; 425  : 		--(*(_Mybase *)this);
; 426  : 		return (*this);
; 427  : 		}
; 428  : 
; 429  : 	_Myiter operator--(int)
; 430  : 		{	// postdecrement
; 431  : 		_Myiter _Tmp = *this;
; 432  : 		--*this;
; 433  : 		return (_Tmp);
; 434  : 		}
; 435  : 	};
; 436  : 
; 437  : template<class _Mytree> inline
; 438  : 	typename _Tree_iterator<_Mytree>::_Unchecked_type
; 439  : 		_Unchecked(_Tree_iterator<_Mytree> _Iter)
; 440  : 	{	// convert to unchecked
; 441  : 	return (_Iter._Unchecked());
; 442  : 	}
; 443  : 
; 444  : template<class _Mytree> inline
; 445  : 	_Tree_iterator<_Mytree>&
; 446  : 		_Rechecked(_Tree_iterator<_Mytree>& _Iter,
; 447  : 			typename _Tree_iterator<_Mytree>
; 448  : 				::_Unchecked_type _Right)
; 449  : 	{	// convert to checked
; 450  : 	return (_Iter._Rechecked(_Right));
; 451  : 	}
; 452  : 
; 453  : 		// tree TYPE WRAPPERS
; 454  : template<class _Value_type,
; 455  : 	class _Size_type,
; 456  : 	class _Difference_type,
; 457  : 	class _Pointer,
; 458  : 	class _Const_pointer,
; 459  : 	class _Reference,
; 460  : 	class _Const_reference,
; 461  : 	class _Nodeptr_type>
; 462  : 	struct _Tree_iter_types
; 463  : 	{	// wraps types needed by iterators
; 464  : 	typedef _Value_type value_type;
; 465  : 	typedef _Size_type size_type;
; 466  : 	typedef _Difference_type difference_type;
; 467  : 	typedef _Pointer pointer;
; 468  : 	typedef _Const_pointer const_pointer;
; 469  : 	typedef _Reference reference;
; 470  : 	typedef _Const_reference const_reference;
; 471  : 	typedef _Nodeptr_type _Nodeptr;
; 472  : 	};
; 473  : 
; 474  : template<class _Value_type,
; 475  : 	class _Voidptr>
; 476  : 	struct _Tree_node
; 477  : 		{	// tree node
; 478  : 		_Voidptr _Left;	// left subtree, or smallest element if head
; 479  : 		_Voidptr _Parent;	// parent, or root of tree if head
; 480  : 		_Voidptr _Right;	// right subtree, or largest element if head
; 481  : 		char _Color;	// _Red or _Black, _Black if head
; 482  : 		char _Isnil;	// true only if head (also nil) node
; 483  : 		_Value_type _Myval;	// the stored value, unused if head
; 484  : 
; 485  : 	private:
; 486  : 		_Tree_node& operator=(const _Tree_node&);
; 487  : 		};
; 488  : 
; 489  : template<class _Value_type>
; 490  : 	struct _Tree_node<_Value_type, void *>
; 491  : 		{	// tree node
; 492  : 		typedef _Tree_node<_Value_type, void *> *_Nodeptr;
; 493  : 		_Nodeptr _Left;	// left subtree, or smallest element if head
; 494  : 		_Nodeptr _Parent;	// parent, or root of tree if head
; 495  : 		_Nodeptr _Right;	// right subtree, or largest element if head
; 496  : 		char _Color;	// _Red or _Black, _Black if head
; 497  : 		char _Isnil;	// true only if head (also nil) node
; 498  : 		_Value_type _Myval;	// the stored value, unused if head
; 499  : 
; 500  : 	private:
; 501  : 		_Tree_node& operator=(const _Tree_node&);
; 502  : 		};
; 503  : 
; 504  : template<class _Ty>
; 505  : 	struct _Tree_simple_types
; 506  : 		: public _Simple_types<_Ty>
; 507  : 	{	// wraps types needed by iterators
; 508  : 	typedef _Tree_node<_Ty, void *> _Node;
; 509  : 	typedef _Node *_Nodeptr;
; 510  : 	};
; 511  : 
; 512  : template<class _Ty,
; 513  : 	class _Alloc0>
; 514  : 	struct _Tree_base_types
; 515  : 	{	// types needed for a container base
; 516  : 	typedef _Alloc0 _Alloc;
; 517  : 	typedef _Tree_base_types<_Ty, _Alloc> _Myt;
; 518  : 
; 519  : 	typedef _Wrap_alloc<_Alloc> _Alty0;
; 520  : 	typedef typename _Alty0::template rebind<_Ty>::other _Alty;
; 521  : 
; 522  : 
; 523  : 	typedef typename _Get_voidptr<_Alty, typename _Alty::pointer>::type
; 524  : 		_Voidptr;
; 525  : 	typedef _Tree_node<typename _Alty::value_type,
; 526  : 		_Voidptr> _Node;
; 527  : 
; 528  : 	typedef typename _Alty::template rebind<_Node>::other _Alnod_type;
; 529  : 	typedef typename _Alnod_type::pointer _Nodeptr;
; 530  : 	typedef _Nodeptr& _Nodepref;
; 531  : 
; 532  : 	typedef typename _If<_Is_simple_alloc<_Alty>::value,
; 533  : 		_Tree_simple_types<typename _Alty::value_type>,
; 534  : 		_Tree_iter_types<typename _Alty::value_type,
; 535  : 			typename _Alty::size_type,
; 536  : 			typename _Alty::difference_type,
; 537  : 			typename _Alty::pointer,
; 538  : 			typename _Alty::const_pointer,
; 539  : 			typename _Alty::reference,
; 540  : 			typename _Alty::const_reference,
; 541  : 			_Nodeptr> >::type
; 542  : 		_Val_types;
; 543  : 	};
; 544  : 
; 545  : 		// TEMPLATE CLASS _Tree_val
; 546  : template<class _Val_types>
; 547  : 	class _Tree_val
; 548  : 		: public _Container_base
; 549  : 	{	// base class for tree to hold data
; 550  : public:
; 551  : 	typedef _Tree_val<_Val_types> _Myt;
; 552  : 
; 553  : 	typedef typename _Val_types::_Nodeptr _Nodeptr;
; 554  : 	typedef _Nodeptr& _Nodepref;
; 555  : 
; 556  : 	typedef typename _Val_types::value_type value_type;
; 557  : 	typedef typename _Val_types::size_type size_type;
; 558  : 	typedef typename _Val_types::difference_type difference_type;
; 559  : 	typedef typename _Val_types::pointer pointer;
; 560  : 	typedef typename _Val_types::const_pointer const_pointer;
; 561  : 	typedef typename _Val_types::reference reference;
; 562  : 	typedef typename _Val_types::const_reference const_reference;
; 563  : 
; 564  : 	typedef _Tree_const_iterator<_Myt> const_iterator;
; 565  : 	typedef _Tree_iterator<_Myt> iterator;
; 566  : 
; 567  : 	_Tree_val()
; 568  : 		{	// initialize data
; 569  : 		this->_Myhead = 0;
; 570  : 		this->_Mysize = 0;
; 571  : 		}
; 572  : 
; 573  : 	enum _Redbl
; 574  : 		{	// colors for link to parent
; 575  : 		_Red, _Black};
; 576  : 
; 577  : 	static char& _Color(_Nodeptr _Pnode)
; 578  : 		{	// return reference to color in node
; 579  : 		return ((char&)_Pnode->_Color);
; 580  : 		}
; 581  : 
; 582  : 	static char& _Isnil(_Nodeptr _Pnode)
; 583  : 		{	// return reference to nil flag in node
; 584  : 		return ((char&)_Pnode->_Isnil);

  0005a	8b 46 08	 mov	 eax, DWORD PTR [esi+8]

; 61   : 			;	// end() shouldn't be incremented, don't move
; 62   : 		else if (!_Mytree::_Isnil(_Mytree::_Right(_Ptr)))

  0005d	80 78 0d 00	 cmp	 BYTE PTR [eax+13], 0
  00061	75 19		 jne	 SHORT $LN92@OLD_Update

; 63   : 			_Ptr = _Mytree::_Min(
; 64   : 				_Mytree::_Right(_Ptr));	// ==> smallest of right subtree

  00063	8b f0		 mov	 esi, eax

; 337  : 		}
; 338  : 
; 339  : 	bool operator!=(const _Myiter& _Right) const
; 340  : 		{	// test for iterator inequality
; 341  : 		return (!(*this == _Right));
; 342  : 		}
; 343  : 	};
; 344  : 
; 345  : template<class _Mytree> inline
; 346  : 	typename _Tree_const_iterator<_Mytree>::_Unchecked_type
; 347  : 		_Unchecked(_Tree_const_iterator<_Mytree> _Iter)
; 348  : 	{	// convert to unchecked
; 349  : 	return (_Iter._Unchecked());
; 350  : 	}
; 351  : 
; 352  : template<class _Mytree> inline
; 353  : 	_Tree_const_iterator<_Mytree>&
; 354  : 		_Rechecked(_Tree_const_iterator<_Mytree>& _Iter,
; 355  : 			typename _Tree_const_iterator<_Mytree>
; 356  : 				::_Unchecked_type _Right)
; 357  : 	{	// convert to checked
; 358  : 	return (_Iter._Rechecked(_Right));
; 359  : 	}
; 360  : 
; 361  : 	// TEMPLATE CLASS _Tree_iterator
; 362  : template<class _Mytree>
; 363  : 	class _Tree_iterator
; 364  : 		: public _Tree_const_iterator<_Mytree>
; 365  : 	{	// iterator for mutable tree
; 366  : public:
; 367  : 	typedef _Tree_iterator<_Mytree> _Myiter;
; 368  : 	typedef _Tree_const_iterator<_Mytree> _Mybase;
; 369  : 	typedef bidirectional_iterator_tag iterator_category;
; 370  : 
; 371  : 	typedef typename _Mytree::_Nodeptr _Nodeptr;
; 372  : 	typedef typename _Mytree::value_type value_type;
; 373  : 	typedef typename _Mytree::difference_type difference_type;
; 374  : 
; 375  : 	typedef typename _Mytree::pointer pointer;
; 376  : 	typedef typename _Mytree::reference reference;
; 377  : 
; 378  : 	_Tree_iterator()
; 379  : 		{	// construct with null node
; 380  : 		}
; 381  : 
; 382  : 	_Tree_iterator(_Nodeptr _Pnode, const _Mytree *_Plist)
; 383  : 		: _Mybase(_Pnode, _Plist)
; 384  : 		{	// construct with node pointer _Pnode
; 385  : 		}
; 386  : 
; 387  : 	typedef _Tree_unchecked_iterator<_Mytree> _Unchecked_type;
; 388  : 
; 389  : 	_Myiter& _Rechecked(_Unchecked_type _Right)
; 390  : 		{	// reset from unchecked iterator
; 391  : 		this->_Ptr = _Right._Ptr;
; 392  : 		return (*this);
; 393  : 		}
; 394  : 
; 395  : 	_Unchecked_type _Unchecked() const
; 396  : 		{	// make an unchecked iterator
; 397  : 		return (_Unchecked_type(this->_Ptr, (_Mytree *)this->_Getcont()));
; 398  : 		}
; 399  : 
; 400  : 	reference operator*() const
; 401  : 		{	// return designated value
; 402  : 		return ((reference)**(_Mybase *)this);
; 403  : 		}
; 404  : 
; 405  : 	pointer operator->() const
; 406  : 		{	// return pointer to class object
; 407  : 		return (_STD pointer_traits<pointer>::pointer_to(**this));
; 408  : 		}
; 409  : 
; 410  : 	_Myiter& operator++()
; 411  : 		{	// preincrement
; 412  : 		++(*(_Mybase *)this);
; 413  : 		return (*this);
; 414  : 		}
; 415  : 
; 416  : 	_Myiter operator++(int)
; 417  : 		{	// postincrement
; 418  : 		_Myiter _Tmp = *this;
; 419  : 		++*this;
; 420  : 		return (_Tmp);
; 421  : 		}
; 422  : 
; 423  : 	_Myiter& operator--()
; 424  : 		{	// predecrement
; 425  : 		--(*(_Mybase *)this);
; 426  : 		return (*this);
; 427  : 		}
; 428  : 
; 429  : 	_Myiter operator--(int)
; 430  : 		{	// postdecrement
; 431  : 		_Myiter _Tmp = *this;
; 432  : 		--*this;
; 433  : 		return (_Tmp);
; 434  : 		}
; 435  : 	};
; 436  : 
; 437  : template<class _Mytree> inline
; 438  : 	typename _Tree_iterator<_Mytree>::_Unchecked_type
; 439  : 		_Unchecked(_Tree_iterator<_Mytree> _Iter)
; 440  : 	{	// convert to unchecked
; 441  : 	return (_Iter._Unchecked());
; 442  : 	}
; 443  : 
; 444  : template<class _Mytree> inline
; 445  : 	_Tree_iterator<_Mytree>&
; 446  : 		_Rechecked(_Tree_iterator<_Mytree>& _Iter,
; 447  : 			typename _Tree_iterator<_Mytree>
; 448  : 				::_Unchecked_type _Right)
; 449  : 	{	// convert to checked
; 450  : 	return (_Iter._Rechecked(_Right));
; 451  : 	}
; 452  : 
; 453  : 		// tree TYPE WRAPPERS
; 454  : template<class _Value_type,
; 455  : 	class _Size_type,
; 456  : 	class _Difference_type,
; 457  : 	class _Pointer,
; 458  : 	class _Const_pointer,
; 459  : 	class _Reference,
; 460  : 	class _Const_reference,
; 461  : 	class _Nodeptr_type>
; 462  : 	struct _Tree_iter_types
; 463  : 	{	// wraps types needed by iterators
; 464  : 	typedef _Value_type value_type;
; 465  : 	typedef _Size_type size_type;
; 466  : 	typedef _Difference_type difference_type;
; 467  : 	typedef _Pointer pointer;
; 468  : 	typedef _Const_pointer const_pointer;
; 469  : 	typedef _Reference reference;
; 470  : 	typedef _Const_reference const_reference;
; 471  : 	typedef _Nodeptr_type _Nodeptr;
; 472  : 	};
; 473  : 
; 474  : template<class _Value_type,
; 475  : 	class _Voidptr>
; 476  : 	struct _Tree_node
; 477  : 		{	// tree node
; 478  : 		_Voidptr _Left;	// left subtree, or smallest element if head
; 479  : 		_Voidptr _Parent;	// parent, or root of tree if head
; 480  : 		_Voidptr _Right;	// right subtree, or largest element if head
; 481  : 		char _Color;	// _Red or _Black, _Black if head
; 482  : 		char _Isnil;	// true only if head (also nil) node
; 483  : 		_Value_type _Myval;	// the stored value, unused if head
; 484  : 
; 485  : 	private:
; 486  : 		_Tree_node& operator=(const _Tree_node&);
; 487  : 		};
; 488  : 
; 489  : template<class _Value_type>
; 490  : 	struct _Tree_node<_Value_type, void *>
; 491  : 		{	// tree node
; 492  : 		typedef _Tree_node<_Value_type, void *> *_Nodeptr;
; 493  : 		_Nodeptr _Left;	// left subtree, or smallest element if head
; 494  : 		_Nodeptr _Parent;	// parent, or root of tree if head
; 495  : 		_Nodeptr _Right;	// right subtree, or largest element if head
; 496  : 		char _Color;	// _Red or _Black, _Black if head
; 497  : 		char _Isnil;	// true only if head (also nil) node
; 498  : 		_Value_type _Myval;	// the stored value, unused if head
; 499  : 
; 500  : 	private:
; 501  : 		_Tree_node& operator=(const _Tree_node&);
; 502  : 		};
; 503  : 
; 504  : template<class _Ty>
; 505  : 	struct _Tree_simple_types
; 506  : 		: public _Simple_types<_Ty>
; 507  : 	{	// wraps types needed by iterators
; 508  : 	typedef _Tree_node<_Ty, void *> _Node;
; 509  : 	typedef _Node *_Nodeptr;
; 510  : 	};
; 511  : 
; 512  : template<class _Ty,
; 513  : 	class _Alloc0>
; 514  : 	struct _Tree_base_types
; 515  : 	{	// types needed for a container base
; 516  : 	typedef _Alloc0 _Alloc;
; 517  : 	typedef _Tree_base_types<_Ty, _Alloc> _Myt;
; 518  : 
; 519  : 	typedef _Wrap_alloc<_Alloc> _Alty0;
; 520  : 	typedef typename _Alty0::template rebind<_Ty>::other _Alty;
; 521  : 
; 522  : 
; 523  : 	typedef typename _Get_voidptr<_Alty, typename _Alty::pointer>::type
; 524  : 		_Voidptr;
; 525  : 	typedef _Tree_node<typename _Alty::value_type,
; 526  : 		_Voidptr> _Node;
; 527  : 
; 528  : 	typedef typename _Alty::template rebind<_Node>::other _Alnod_type;
; 529  : 	typedef typename _Alnod_type::pointer _Nodeptr;
; 530  : 	typedef _Nodeptr& _Nodepref;
; 531  : 
; 532  : 	typedef typename _If<_Is_simple_alloc<_Alty>::value,
; 533  : 		_Tree_simple_types<typename _Alty::value_type>,
; 534  : 		_Tree_iter_types<typename _Alty::value_type,
; 535  : 			typename _Alty::size_type,
; 536  : 			typename _Alty::difference_type,
; 537  : 			typename _Alty::pointer,
; 538  : 			typename _Alty::const_pointer,
; 539  : 			typename _Alty::reference,
; 540  : 			typename _Alty::const_reference,
; 541  : 			_Nodeptr> >::type
; 542  : 		_Val_types;
; 543  : 	};
; 544  : 
; 545  : 		// TEMPLATE CLASS _Tree_val
; 546  : template<class _Val_types>
; 547  : 	class _Tree_val
; 548  : 		: public _Container_base
; 549  : 	{	// base class for tree to hold data
; 550  : public:
; 551  : 	typedef _Tree_val<_Val_types> _Myt;
; 552  : 
; 553  : 	typedef typename _Val_types::_Nodeptr _Nodeptr;
; 554  : 	typedef _Nodeptr& _Nodepref;
; 555  : 
; 556  : 	typedef typename _Val_types::value_type value_type;
; 557  : 	typedef typename _Val_types::size_type size_type;
; 558  : 	typedef typename _Val_types::difference_type difference_type;
; 559  : 	typedef typename _Val_types::pointer pointer;
; 560  : 	typedef typename _Val_types::const_pointer const_pointer;
; 561  : 	typedef typename _Val_types::reference reference;
; 562  : 	typedef typename _Val_types::const_reference const_reference;
; 563  : 
; 564  : 	typedef _Tree_const_iterator<_Myt> const_iterator;
; 565  : 	typedef _Tree_iterator<_Myt> iterator;
; 566  : 
; 567  : 	_Tree_val()
; 568  : 		{	// initialize data
; 569  : 		this->_Myhead = 0;
; 570  : 		this->_Mysize = 0;
; 571  : 		}
; 572  : 
; 573  : 	enum _Redbl
; 574  : 		{	// colors for link to parent
; 575  : 		_Red, _Black};
; 576  : 
; 577  : 	static char& _Color(_Nodeptr _Pnode)
; 578  : 		{	// return reference to color in node
; 579  : 		return ((char&)_Pnode->_Color);
; 580  : 		}
; 581  : 
; 582  : 	static char& _Isnil(_Nodeptr _Pnode)
; 583  : 		{	// return reference to nil flag in node
; 584  : 		return ((char&)_Pnode->_Isnil);

  00065	8b 06		 mov	 eax, DWORD PTR [esi]

; 590  : 		}
; 591  : 
; 592  : 	static _Nodepref _Parent(_Nodeptr _Pnode)
; 593  : 		{	// return reference to parent pointer in node
; 594  : 		return ((_Nodepref)_Pnode->_Parent);
; 595  : 		}
; 596  : 
; 597  : 	static _Nodepref _Right(_Nodeptr _Pnode)
; 598  : 		{	// return reference to right pointer in node
; 599  : 		return ((_Nodepref)_Pnode->_Right);
; 600  : 		}
; 601  : 
; 602  : 	static reference _Myval(_Nodeptr _Pnode)
; 603  : 		{	// return reference to value in node
; 604  : 		return ((reference)_Pnode->_Myval);
; 605  : 		}
; 606  : 
; 607  : 	static _Nodeptr _Max(_Nodeptr _Pnode)
; 608  : 		{	// return rightmost node in subtree at _Pnode
; 609  : 		while (!_Isnil(_Right(_Pnode)))
; 610  : 			_Pnode = _Right(_Pnode);
; 611  : 		return (_Pnode);
; 612  : 		}
; 613  : 
; 614  : 	static _Nodeptr _Min(_Nodeptr _Pnode)
; 615  : 		{	// return leftmost node in subtree at _Pnode
; 616  : 		while (!_Isnil(_Left(_Pnode)))

  00067	80 78 0d 00	 cmp	 BYTE PTR [eax+13], 0
  0006b	75 2a		 jne	 SHORT $LN95@OLD_Update
  0006d	8d 49 00	 npad	 3
$LL49@OLD_Update:

; 617  : 			_Pnode = _Left(_Pnode);

  00070	8b f0		 mov	 esi, eax

; 337  : 		}
; 338  : 
; 339  : 	bool operator!=(const _Myiter& _Right) const
; 340  : 		{	// test for iterator inequality
; 341  : 		return (!(*this == _Right));
; 342  : 		}
; 343  : 	};
; 344  : 
; 345  : template<class _Mytree> inline
; 346  : 	typename _Tree_const_iterator<_Mytree>::_Unchecked_type
; 347  : 		_Unchecked(_Tree_const_iterator<_Mytree> _Iter)
; 348  : 	{	// convert to unchecked
; 349  : 	return (_Iter._Unchecked());
; 350  : 	}
; 351  : 
; 352  : template<class _Mytree> inline
; 353  : 	_Tree_const_iterator<_Mytree>&
; 354  : 		_Rechecked(_Tree_const_iterator<_Mytree>& _Iter,
; 355  : 			typename _Tree_const_iterator<_Mytree>
; 356  : 				::_Unchecked_type _Right)
; 357  : 	{	// convert to checked
; 358  : 	return (_Iter._Rechecked(_Right));
; 359  : 	}
; 360  : 
; 361  : 	// TEMPLATE CLASS _Tree_iterator
; 362  : template<class _Mytree>
; 363  : 	class _Tree_iterator
; 364  : 		: public _Tree_const_iterator<_Mytree>
; 365  : 	{	// iterator for mutable tree
; 366  : public:
; 367  : 	typedef _Tree_iterator<_Mytree> _Myiter;
; 368  : 	typedef _Tree_const_iterator<_Mytree> _Mybase;
; 369  : 	typedef bidirectional_iterator_tag iterator_category;
; 370  : 
; 371  : 	typedef typename _Mytree::_Nodeptr _Nodeptr;
; 372  : 	typedef typename _Mytree::value_type value_type;
; 373  : 	typedef typename _Mytree::difference_type difference_type;
; 374  : 
; 375  : 	typedef typename _Mytree::pointer pointer;
; 376  : 	typedef typename _Mytree::reference reference;
; 377  : 
; 378  : 	_Tree_iterator()
; 379  : 		{	// construct with null node
; 380  : 		}
; 381  : 
; 382  : 	_Tree_iterator(_Nodeptr _Pnode, const _Mytree *_Plist)
; 383  : 		: _Mybase(_Pnode, _Plist)
; 384  : 		{	// construct with node pointer _Pnode
; 385  : 		}
; 386  : 
; 387  : 	typedef _Tree_unchecked_iterator<_Mytree> _Unchecked_type;
; 388  : 
; 389  : 	_Myiter& _Rechecked(_Unchecked_type _Right)
; 390  : 		{	// reset from unchecked iterator
; 391  : 		this->_Ptr = _Right._Ptr;
; 392  : 		return (*this);
; 393  : 		}
; 394  : 
; 395  : 	_Unchecked_type _Unchecked() const
; 396  : 		{	// make an unchecked iterator
; 397  : 		return (_Unchecked_type(this->_Ptr, (_Mytree *)this->_Getcont()));
; 398  : 		}
; 399  : 
; 400  : 	reference operator*() const
; 401  : 		{	// return designated value
; 402  : 		return ((reference)**(_Mybase *)this);
; 403  : 		}
; 404  : 
; 405  : 	pointer operator->() const
; 406  : 		{	// return pointer to class object
; 407  : 		return (_STD pointer_traits<pointer>::pointer_to(**this));
; 408  : 		}
; 409  : 
; 410  : 	_Myiter& operator++()
; 411  : 		{	// preincrement
; 412  : 		++(*(_Mybase *)this);
; 413  : 		return (*this);
; 414  : 		}
; 415  : 
; 416  : 	_Myiter operator++(int)
; 417  : 		{	// postincrement
; 418  : 		_Myiter _Tmp = *this;
; 419  : 		++*this;
; 420  : 		return (_Tmp);
; 421  : 		}
; 422  : 
; 423  : 	_Myiter& operator--()
; 424  : 		{	// predecrement
; 425  : 		--(*(_Mybase *)this);
; 426  : 		return (*this);
; 427  : 		}
; 428  : 
; 429  : 	_Myiter operator--(int)
; 430  : 		{	// postdecrement
; 431  : 		_Myiter _Tmp = *this;
; 432  : 		--*this;
; 433  : 		return (_Tmp);
; 434  : 		}
; 435  : 	};
; 436  : 
; 437  : template<class _Mytree> inline
; 438  : 	typename _Tree_iterator<_Mytree>::_Unchecked_type
; 439  : 		_Unchecked(_Tree_iterator<_Mytree> _Iter)
; 440  : 	{	// convert to unchecked
; 441  : 	return (_Iter._Unchecked());
; 442  : 	}
; 443  : 
; 444  : template<class _Mytree> inline
; 445  : 	_Tree_iterator<_Mytree>&
; 446  : 		_Rechecked(_Tree_iterator<_Mytree>& _Iter,
; 447  : 			typename _Tree_iterator<_Mytree>
; 448  : 				::_Unchecked_type _Right)
; 449  : 	{	// convert to checked
; 450  : 	return (_Iter._Rechecked(_Right));
; 451  : 	}
; 452  : 
; 453  : 		// tree TYPE WRAPPERS
; 454  : template<class _Value_type,
; 455  : 	class _Size_type,
; 456  : 	class _Difference_type,
; 457  : 	class _Pointer,
; 458  : 	class _Const_pointer,
; 459  : 	class _Reference,
; 460  : 	class _Const_reference,
; 461  : 	class _Nodeptr_type>
; 462  : 	struct _Tree_iter_types
; 463  : 	{	// wraps types needed by iterators
; 464  : 	typedef _Value_type value_type;
; 465  : 	typedef _Size_type size_type;
; 466  : 	typedef _Difference_type difference_type;
; 467  : 	typedef _Pointer pointer;
; 468  : 	typedef _Const_pointer const_pointer;
; 469  : 	typedef _Reference reference;
; 470  : 	typedef _Const_reference const_reference;
; 471  : 	typedef _Nodeptr_type _Nodeptr;
; 472  : 	};
; 473  : 
; 474  : template<class _Value_type,
; 475  : 	class _Voidptr>
; 476  : 	struct _Tree_node
; 477  : 		{	// tree node
; 478  : 		_Voidptr _Left;	// left subtree, or smallest element if head
; 479  : 		_Voidptr _Parent;	// parent, or root of tree if head
; 480  : 		_Voidptr _Right;	// right subtree, or largest element if head
; 481  : 		char _Color;	// _Red or _Black, _Black if head
; 482  : 		char _Isnil;	// true only if head (also nil) node
; 483  : 		_Value_type _Myval;	// the stored value, unused if head
; 484  : 
; 485  : 	private:
; 486  : 		_Tree_node& operator=(const _Tree_node&);
; 487  : 		};
; 488  : 
; 489  : template<class _Value_type>
; 490  : 	struct _Tree_node<_Value_type, void *>
; 491  : 		{	// tree node
; 492  : 		typedef _Tree_node<_Value_type, void *> *_Nodeptr;
; 493  : 		_Nodeptr _Left;	// left subtree, or smallest element if head
; 494  : 		_Nodeptr _Parent;	// parent, or root of tree if head
; 495  : 		_Nodeptr _Right;	// right subtree, or largest element if head
; 496  : 		char _Color;	// _Red or _Black, _Black if head
; 497  : 		char _Isnil;	// true only if head (also nil) node
; 498  : 		_Value_type _Myval;	// the stored value, unused if head
; 499  : 
; 500  : 	private:
; 501  : 		_Tree_node& operator=(const _Tree_node&);
; 502  : 		};
; 503  : 
; 504  : template<class _Ty>
; 505  : 	struct _Tree_simple_types
; 506  : 		: public _Simple_types<_Ty>
; 507  : 	{	// wraps types needed by iterators
; 508  : 	typedef _Tree_node<_Ty, void *> _Node;
; 509  : 	typedef _Node *_Nodeptr;
; 510  : 	};
; 511  : 
; 512  : template<class _Ty,
; 513  : 	class _Alloc0>
; 514  : 	struct _Tree_base_types
; 515  : 	{	// types needed for a container base
; 516  : 	typedef _Alloc0 _Alloc;
; 517  : 	typedef _Tree_base_types<_Ty, _Alloc> _Myt;
; 518  : 
; 519  : 	typedef _Wrap_alloc<_Alloc> _Alty0;
; 520  : 	typedef typename _Alty0::template rebind<_Ty>::other _Alty;
; 521  : 
; 522  : 
; 523  : 	typedef typename _Get_voidptr<_Alty, typename _Alty::pointer>::type
; 524  : 		_Voidptr;
; 525  : 	typedef _Tree_node<typename _Alty::value_type,
; 526  : 		_Voidptr> _Node;
; 527  : 
; 528  : 	typedef typename _Alty::template rebind<_Node>::other _Alnod_type;
; 529  : 	typedef typename _Alnod_type::pointer _Nodeptr;
; 530  : 	typedef _Nodeptr& _Nodepref;
; 531  : 
; 532  : 	typedef typename _If<_Is_simple_alloc<_Alty>::value,
; 533  : 		_Tree_simple_types<typename _Alty::value_type>,
; 534  : 		_Tree_iter_types<typename _Alty::value_type,
; 535  : 			typename _Alty::size_type,
; 536  : 			typename _Alty::difference_type,
; 537  : 			typename _Alty::pointer,
; 538  : 			typename _Alty::const_pointer,
; 539  : 			typename _Alty::reference,
; 540  : 			typename _Alty::const_reference,
; 541  : 			_Nodeptr> >::type
; 542  : 		_Val_types;
; 543  : 	};
; 544  : 
; 545  : 		// TEMPLATE CLASS _Tree_val
; 546  : template<class _Val_types>
; 547  : 	class _Tree_val
; 548  : 		: public _Container_base
; 549  : 	{	// base class for tree to hold data
; 550  : public:
; 551  : 	typedef _Tree_val<_Val_types> _Myt;
; 552  : 
; 553  : 	typedef typename _Val_types::_Nodeptr _Nodeptr;
; 554  : 	typedef _Nodeptr& _Nodepref;
; 555  : 
; 556  : 	typedef typename _Val_types::value_type value_type;
; 557  : 	typedef typename _Val_types::size_type size_type;
; 558  : 	typedef typename _Val_types::difference_type difference_type;
; 559  : 	typedef typename _Val_types::pointer pointer;
; 560  : 	typedef typename _Val_types::const_pointer const_pointer;
; 561  : 	typedef typename _Val_types::reference reference;
; 562  : 	typedef typename _Val_types::const_reference const_reference;
; 563  : 
; 564  : 	typedef _Tree_const_iterator<_Myt> const_iterator;
; 565  : 	typedef _Tree_iterator<_Myt> iterator;
; 566  : 
; 567  : 	_Tree_val()
; 568  : 		{	// initialize data
; 569  : 		this->_Myhead = 0;
; 570  : 		this->_Mysize = 0;
; 571  : 		}
; 572  : 
; 573  : 	enum _Redbl
; 574  : 		{	// colors for link to parent
; 575  : 		_Red, _Black};
; 576  : 
; 577  : 	static char& _Color(_Nodeptr _Pnode)
; 578  : 		{	// return reference to color in node
; 579  : 		return ((char&)_Pnode->_Color);
; 580  : 		}
; 581  : 
; 582  : 	static char& _Isnil(_Nodeptr _Pnode)
; 583  : 		{	// return reference to nil flag in node
; 584  : 		return ((char&)_Pnode->_Isnil);

  00072	8b 06		 mov	 eax, DWORD PTR [esi]

; 590  : 		}
; 591  : 
; 592  : 	static _Nodepref _Parent(_Nodeptr _Pnode)
; 593  : 		{	// return reference to parent pointer in node
; 594  : 		return ((_Nodepref)_Pnode->_Parent);
; 595  : 		}
; 596  : 
; 597  : 	static _Nodepref _Right(_Nodeptr _Pnode)
; 598  : 		{	// return reference to right pointer in node
; 599  : 		return ((_Nodepref)_Pnode->_Right);
; 600  : 		}
; 601  : 
; 602  : 	static reference _Myval(_Nodeptr _Pnode)
; 603  : 		{	// return reference to value in node
; 604  : 		return ((reference)_Pnode->_Myval);
; 605  : 		}
; 606  : 
; 607  : 	static _Nodeptr _Max(_Nodeptr _Pnode)
; 608  : 		{	// return rightmost node in subtree at _Pnode
; 609  : 		while (!_Isnil(_Right(_Pnode)))
; 610  : 			_Pnode = _Right(_Pnode);
; 611  : 		return (_Pnode);
; 612  : 		}
; 613  : 
; 614  : 	static _Nodeptr _Min(_Nodeptr _Pnode)
; 615  : 		{	// return leftmost node in subtree at _Pnode
; 616  : 		while (!_Isnil(_Left(_Pnode)))

  00074	80 78 0d 00	 cmp	 BYTE PTR [eax+13], 0
  00078	74 f6		 je	 SHORT $LL49@OLD_Update

; 65   : 		else

  0007a	eb 1b		 jmp	 SHORT $LN95@OLD_Update
$LN92@OLD_Update:

; 66   : 			{	// climb looking for right subtree
; 67   : 			_Nodeptr _Pnode;
; 68   : 			while (!_Mytree::_Isnil(_Pnode = _Mytree::_Parent(_Ptr))
; 69   : 				&& _Ptr == _Mytree::_Right(_Pnode))

  0007c	8b 46 04	 mov	 eax, DWORD PTR [esi+4]
  0007f	80 78 0d 00	 cmp	 BYTE PTR [eax+13], 0
  00083	75 10		 jne	 SHORT $LN32@OLD_Update
$LL33@OLD_Update:
  00085	3b 70 08	 cmp	 esi, DWORD PTR [eax+8]
  00088	75 0b		 jne	 SHORT $LN32@OLD_Update

; 70   : 				_Ptr = _Pnode;	// ==> parent while right subtree

  0008a	8b f0		 mov	 esi, eax
  0008c	8b 40 04	 mov	 eax, DWORD PTR [eax+4]
  0008f	80 78 0d 00	 cmp	 BYTE PTR [eax+13], 0
  00093	74 f0		 je	 SHORT $LL33@OLD_Update
$LN32@OLD_Update:

; 71   : 			_Ptr = _Pnode;	// ==> parent (head if end())

  00095	8b f0		 mov	 esi, eax
$LN95@OLD_Update:

; 336  : 		return (this->_Ptr == _Right._Ptr);

  00097	3b 73 18	 cmp	 esi, DWORD PTR [ebx+24]
; File d:\metin2\metin2\client_source_clean\client_source_clean\source\userinterface\networkactormanager.cpp

; 165  : 	for (i=m_kNetActorDict.begin(); i!=m_kNetActorDict.end(); ++i)

  0009a	75 8a		 jne	 SHORT $LL34@OLD_Update
$LN3@OLD_Update:

; 175  : 		}
; 176  : 	}
; 177  : }

  0009c	5f		 pop	 edi
  0009d	5e		 pop	 esi
  0009e	5b		 pop	 ebx
  0009f	8b e5		 mov	 esp, ebp
  000a1	5d		 pop	 ebp
  000a2	c3		 ret	 0
?__OLD_Update@CNetworkActorManager@@IAEXXZ ENDP		; CNetworkActorManager::__OLD_Update
_TEXT	ENDS
; Function compile flags: /Ogtp
; File d:\metin2\metin2\client_source_clean\client_source_clean\source\userinterface\networkactormanager.cpp
;	COMDAT ?__FindActor@CNetworkActorManager@@IAEPAVCInstanceBase@@AAUSNetworkActorData@@JJ@Z
_TEXT	SEGMENT
_rkNetActorData$ = 8					; size = 4
_lDstX$ = 12						; size = 4
_lDstY$ = 16						; size = 4
?__FindActor@CNetworkActorManager@@IAEPAVCInstanceBase@@AAUSNetworkActorData@@JJ@Z PROC ; CNetworkActorManager::__FindActor, COMDAT
; _this$ = ecx

; 180  : {

  00000	55		 push	 ebp
  00001	8b ec		 mov	 ebp, esp
  00003	51		 push	 ecx
  00004	56		 push	 esi
  00005	57		 push	 edi
  00006	8b f1		 mov	 esi, ecx

; 181  : 	CPythonCharacterManager& rkChrMgr=__GetCharacterManager();

  00008	e8 00 00 00 00	 call	 ?__GetCharacterManager@CNetworkActorManager@@IAEAAVCPythonCharacterManager@@XZ ; CNetworkActorManager::__GetCharacterManager

; 182  : 	CInstanceBase * pkInstFind = rkChrMgr.GetInstancePtr(rkNetActorData.m_dwVID);

  0000d	8b 7d 08	 mov	 edi, DWORD PTR _rkNetActorData$[ebp]
  00010	8d 48 04	 lea	 ecx, DWORD PTR [eax+4]
  00013	8b 01		 mov	 eax, DWORD PTR [ecx]
  00015	ff 77 24	 push	 DWORD PTR [edi+36]
  00018	ff 50 08	 call	 DWORD PTR [eax+8]

; 183  : 	if (!pkInstFind)

  0001b	85 c0		 test	 eax, eax
  0001d	75 22		 jne	 SHORT $LN3@FindActor

; 184  : 	{
; 185  : 		if (__IsVisiblePos(lDstX, lDstY))

  0001f	ff 75 10	 push	 DWORD PTR _lDstY$[ebp]
  00022	8b ce		 mov	 ecx, esi
  00024	ff 75 0c	 push	 DWORD PTR _lDstX$[ebp]
  00027	e8 00 00 00 00	 call	 ?__IsVisiblePos@CNetworkActorManager@@IAE_NJJ@Z ; CNetworkActorManager::__IsVisiblePos
  0002c	84 c0		 test	 al, al
  0002e	74 0f		 je	 SHORT $LN1@FindActor

; 186  : 			return __AppendCharacterManagerActor(rkNetActorData);

  00030	57		 push	 edi
  00031	8b ce		 mov	 ecx, esi
  00033	e8 00 00 00 00	 call	 ?__AppendCharacterManagerActor@CNetworkActorManager@@IAEPAVCInstanceBase@@AAUSNetworkActorData@@@Z ; CNetworkActorManager::__AppendCharacterManagerActor

; 189  : 	}
; 190  : 
; 191  : 	return pkInstFind;
; 192  : }

  00038	5f		 pop	 edi
  00039	5e		 pop	 esi
  0003a	59		 pop	 ecx
  0003b	5d		 pop	 ebp
  0003c	c2 0c 00	 ret	 12			; 0000000cH
$LN1@FindActor:

; 187  : 
; 188  : 		return NULL;

  0003f	33 c0		 xor	 eax, eax
$LN3@FindActor:

; 189  : 	}
; 190  : 
; 191  : 	return pkInstFind;
; 192  : }

  00041	5f		 pop	 edi
  00042	5e		 pop	 esi
  00043	59		 pop	 ecx
  00044	5d		 pop	 ebp
  00045	c2 0c 00	 ret	 12			; 0000000cH
?__FindActor@CNetworkActorManager@@IAEPAVCInstanceBase@@AAUSNetworkActorData@@JJ@Z ENDP ; CNetworkActorManager::__FindActor
_TEXT	ENDS
; Function compile flags: /Ogtp
; File d:\metin2\metin2\client_source_clean\client_source_clean\source\userinterface\networkactormanager.cpp
;	COMDAT ?__FindActor@CNetworkActorManager@@IAEPAVCInstanceBase@@AAUSNetworkActorData@@@Z
_TEXT	SEGMENT
_rkNetActorData$ = 8					; size = 4
?__FindActor@CNetworkActorManager@@IAEPAVCInstanceBase@@AAUSNetworkActorData@@@Z PROC ; CNetworkActorManager::__FindActor, COMDAT
; _this$ = ecx

; 195  : {

  00000	55		 push	 ebp
  00001	8b ec		 mov	 ebp, esp
  00003	51		 push	 ecx
  00004	56		 push	 esi
  00005	57		 push	 edi
  00006	8b f9		 mov	 edi, ecx

; 196  : 	CPythonCharacterManager& rkChrMgr=__GetCharacterManager();

  00008	e8 00 00 00 00	 call	 ?__GetCharacterManager@CNetworkActorManager@@IAEAAVCPythonCharacterManager@@XZ ; CNetworkActorManager::__GetCharacterManager

; 197  : 	CInstanceBase * pkInstFind = rkChrMgr.GetInstancePtr(rkNetActorData.m_dwVID);

  0000d	8b 75 08	 mov	 esi, DWORD PTR _rkNetActorData$[ebp]
  00010	8d 48 04	 lea	 ecx, DWORD PTR [eax+4]
  00013	8b 01		 mov	 eax, DWORD PTR [ecx]
  00015	ff 76 24	 push	 DWORD PTR [esi+36]
  00018	ff 50 08	 call	 DWORD PTR [eax+8]

; 198  : 	if (!pkInstFind)

  0001b	85 c0		 test	 eax, eax
  0001d	75 1d		 jne	 SHORT $LN3@FindActor

; 199  : 	{
; 200  : 		if (__IsVisibleActor(rkNetActorData))

  0001f	56		 push	 esi
  00020	8b cf		 mov	 ecx, edi
  00022	e8 00 00 00 00	 call	 ?__IsVisibleActor@CNetworkActorManager@@IAE_NABUSNetworkActorData@@@Z ; CNetworkActorManager::__IsVisibleActor
  00027	84 c0		 test	 al, al
  00029	74 0f		 je	 SHORT $LN1@FindActor

; 201  : 			return __AppendCharacterManagerActor(rkNetActorData);

  0002b	56		 push	 esi
  0002c	8b cf		 mov	 ecx, edi
  0002e	e8 00 00 00 00	 call	 ?__AppendCharacterManagerActor@CNetworkActorManager@@IAEPAVCInstanceBase@@AAUSNetworkActorData@@@Z ; CNetworkActorManager::__AppendCharacterManagerActor

; 204  : 	}
; 205  : 
; 206  : 	return pkInstFind;
; 207  : }

  00033	5f		 pop	 edi
  00034	5e		 pop	 esi
  00035	59		 pop	 ecx
  00036	5d		 pop	 ebp
  00037	c2 04 00	 ret	 4
$LN1@FindActor:

; 202  : 
; 203  : 		return NULL;

  0003a	33 c0		 xor	 eax, eax
$LN3@FindActor:

; 204  : 	}
; 205  : 
; 206  : 	return pkInstFind;
; 207  : }

  0003c	5f		 pop	 edi
  0003d	5e		 pop	 esi
  0003e	59		 pop	 ecx
  0003f	5d		 pop	 ebp
  00040	c2 04 00	 ret	 4
?__FindActor@CNetworkActorManager@@IAEPAVCInstanceBase@@AAUSNetworkActorData@@@Z ENDP ; CNetworkActorManager::__FindActor
_TEXT	ENDS
; Function compile flags: /Ogtp
; File d:\metin2\metin2\client_source_clean\client_source_clean\source\userinterface\networkactormanager.cpp
;	COMDAT ?__RemoveAllGroundItems@CNetworkActorManager@@IAEXXZ
_TEXT	SEGMENT
?__RemoveAllGroundItems@CNetworkActorManager@@IAEXXZ PROC ; CNetworkActorManager::__RemoveAllGroundItems, COMDAT
; _this$dead$ = ecx

; 211  : 	CPythonItem& rkItemMgr=CPythonItem::Instance();
; 212  : 	rkItemMgr.DeleteAllItems();

  00000	8b 0d 00 00 00
	00		 mov	 ecx, DWORD PTR ?ms_singleton@?$CSingleton@VCPythonItem@@@@0PAVCPythonItem@@A ; CSingleton<CPythonItem>::ms_singleton
  00006	e9 00 00 00 00	 jmp	 ?DeleteAllItems@CPythonItem@@QAEXXZ ; CPythonItem::DeleteAllItems
?__RemoveAllGroundItems@CNetworkActorManager@@IAEXXZ ENDP ; CNetworkActorManager::__RemoveAllGroundItems
_TEXT	ENDS
; Function compile flags: /Ogtp
; File d:\metin2\metin2\client_source_clean\client_source_clean\source\userinterface\networkactormanager.cpp
; File c:\program files (x86)\microsoft visual studio 12.0\vc\include\vector
; File d:\metin2\metin2\client_source_clean\client_source_clean\source\userinterface\networkactormanager.cpp
; File c:\program files (x86)\microsoft visual studio 12.0\vc\include\xtree
; File d:\metin2\metin2\client_source_clean\client_source_clean\source\userinterface\pythoncharactermanager.h
; File c:\program files (x86)\microsoft visual studio 12.0\vc\include\xtree
; File d:\metin2\metin2\client_source_clean\client_source_clean\source\userinterface\networkactormanager.cpp
; File c:\program files (x86)\microsoft visual studio 12.0\vc\include\vector
; File d:\metin2\metin2\client_source_clean\client_source_clean\source\userinterface\networkactormanager.cpp
; File c:\program files (x86)\microsoft visual studio 12.0\vc\include\vector
; File c:\program files (x86)\microsoft visual studio 12.0\vc\include\xmemory0
; File c:\program files (x86)\microsoft visual studio 12.0\vc\include\vector
; File c:\program files (x86)\microsoft visual studio 12.0\vc\include\xmemory0
; File c:\program files (x86)\microsoft visual studio 12.0\vc\include\vector
; File c:\program files (x86)\microsoft visual studio 12.0\vc\include\xtree
; File c:\program files (x86)\microsoft visual studio 12.0\vc\include\vector
; File c:\program files (x86)\microsoft visual studio 12.0\vc\include\xtree
; File d:\metin2\metin2\client_source_clean\client_source_clean\source\userinterface\networkactormanager.cpp
; File c:\program files (x86)\microsoft visual studio 12.0\vc\include\vector
; File d:\metin2\metin2\client_source_clean\client_source_clean\source\userinterface\networkactormanager.cpp
; File c:\program files (x86)\microsoft visual studio 12.0\vc\include\xtree
; File c:\program files (x86)\microsoft visual studio 12.0\vc\include\xstddef
; File c:\program files (x86)\microsoft visual studio 12.0\vc\include\xtree
; File c:\program files (x86)\microsoft visual studio 12.0\vc\include\xstddef
; File c:\program files (x86)\microsoft visual studio 12.0\vc\include\xtree
; File d:\metin2\metin2\client_source_clean\client_source_clean\source\userinterface\networkactormanager.cpp
; File c:\program files (x86)\microsoft visual studio 12.0\vc\include\vector
; File c:\program files (x86)\microsoft visual studio 12.0\vc\include\xmemory0
; File d:\metin2\metin2\client_source_clean\client_source_clean\source\userinterface\networkactormanager.cpp
;	COMDAT ?__RemoveDynamicActors@CNetworkActorManager@@IAEXXZ
_TEXT	SEGMENT
_dwCharacterVIDList$ = -56				; size = 12
$T2 = -44						; size = 4
tv1173 = -40						; size = 4
$T3 = -36						; size = 4
$T4 = -32						; size = 4
_this$1$ = -28						; size = 4
_this$1$ = -24						; size = 4
_rkChrMgr$1$ = -20					; size = 4
$T5 = -16						; size = 4
__$EHRec$ = -12						; size = 12
?__RemoveDynamicActors@CNetworkActorManager@@IAEXXZ PROC ; CNetworkActorManager::__RemoveDynamicActors, COMDAT
; _this$ = ecx

; 224  : {

  00000	55		 push	 ebp
  00001	8b ec		 mov	 ebp, esp
  00003	6a ff		 push	 -1
  00005	68 00 00 00 00	 push	 __ehhandler$?__RemoveDynamicActors@CNetworkActorManager@@IAEXXZ
  0000a	64 a1 00 00 00
	00		 mov	 eax, DWORD PTR fs:0
  00010	50		 push	 eax
  00011	83 ec 2c	 sub	 esp, 44			; 0000002cH
  00014	53		 push	 ebx
  00015	56		 push	 esi
  00016	57		 push	 edi
  00017	a1 00 00 00 00	 mov	 eax, DWORD PTR ___security_cookie
  0001c	33 c5		 xor	 eax, ebp
  0001e	50		 push	 eax
  0001f	8d 45 f4	 lea	 eax, DWORD PTR __$EHRec$[ebp]
  00022	64 a3 00 00 00
	00		 mov	 DWORD PTR fs:0, eax
  00028	89 4d e8	 mov	 DWORD PTR _this$1$[ebp], ecx
; File c:\program files (x86)\microsoft visual studio 12.0\vc\include\vector

; 482  : 		_Myfirst = pointer();

  0002b	33 db		 xor	 ebx, ebx

; 483  : 		_Mylast = pointer();

  0002d	33 ff		 xor	 edi, edi
  0002f	89 5d c8	 mov	 DWORD PTR _dwCharacterVIDList$[ebp], ebx
  00032	89 7d cc	 mov	 DWORD PTR _dwCharacterVIDList$[ebp+4], edi

; 484  : 		_Myend = pointer();

  00035	89 5d d0	 mov	 DWORD PTR _dwCharacterVIDList$[ebp+8], ebx
; File d:\metin2\metin2\client_source_clean\client_source_clean\source\userinterface\networkactormanager.cpp

; 226  : 	std::vector<DWORD> dwCharacterVIDList;

  00038	89 7d fc	 mov	 DWORD PTR __$EHRec$[ebp+8], edi

; 227  : 
; 228  : 	CPythonCharacterManager& rkChrMgr=CPythonCharacterManager::Instance();

  0003b	8b 0d 00 00 00
	00		 mov	 ecx, DWORD PTR ?ms_singleton@?$CSingleton@VCPythonCharacterManager@@@@0PAVCPythonCharacterManager@@A ; CSingleton<CPythonCharacterManager>::ms_singleton
  00041	89 4d ec	 mov	 DWORD PTR _rkChrMgr$1$[ebp], ecx
; File c:\program files (x86)\microsoft visual studio 12.0\vc\include\xtree

; 589  : 		return ((_Nodepref)_Pnode->_Left);

  00044	8b 41 20	 mov	 eax, DWORD PTR [ecx+32]
; File d:\metin2\metin2\client_source_clean\client_source_clean\source\userinterface\pythoncharactermanager.h

; 132  : 			CharacterIterator(const TCharacterInstanceMap::iterator & it) : m_it(it) {}

  00047	8b 30		 mov	 esi, DWORD PTR [eax]
; File c:\program files (x86)\microsoft visual studio 12.0\vc\include\xtree

; 336  : 		return (this->_Ptr == _Right._Ptr);

  00049	3b f0		 cmp	 esi, eax
; File d:\metin2\metin2\client_source_clean\client_source_clean\source\userinterface\networkactormanager.cpp

; 229  : 	for(CPythonCharacterManager::CharacterIterator i = rkChrMgr.CharacterInstanceBegin(); i!=rkChrMgr.CharacterInstanceEnd(); ++i)

  0004b	0f 84 b5 00 00
	00		 je	 $LN8@RemoveDyna
$LL50@RemoveDyna:

; 231  : 		dwCharacterVIDList.push_back( (*i)->GetVirtualID() );

  00051	8b 4e 14	 mov	 ecx, DWORD PTR [esi+20]
  00054	e8 00 00 00 00	 call	 ?GetVirtualID@CInstanceBase@@QAEKXZ ; CInstanceBase::GetVirtualID
  00059	8b d8		 mov	 ebx, eax
; File c:\program files (x86)\microsoft visual studio 12.0\vc\include\vector

; 1583 : 		return (_Ptr < this->_Mylast && this->_Myfirst <= _Ptr);

  0005b	8d 45 f0	 lea	 eax, DWORD PTR $T5[ebp]
; File d:\metin2\metin2\client_source_clean\client_source_clean\source\userinterface\networkactormanager.cpp

; 231  : 		dwCharacterVIDList.push_back( (*i)->GetVirtualID() );

  0005e	89 5d f0	 mov	 DWORD PTR $T5[ebp], ebx
; File c:\program files (x86)\microsoft visual studio 12.0\vc\include\vector

; 1583 : 		return (_Ptr < this->_Mylast && this->_Myfirst <= _Ptr);

  00061	3b c7		 cmp	 eax, edi
  00063	73 30		 jae	 SHORT $LN117@RemoveDyna
  00065	8b c8		 mov	 ecx, eax
  00067	8b 45 c8	 mov	 eax, DWORD PTR _dwCharacterVIDList$[ebp]
  0006a	3b c1		 cmp	 eax, ecx
  0006c	77 27		 ja	 SHORT $LN117@RemoveDyna

; 485  : 		}
; 486  : 
; 487  : 	pointer _Myfirst;	// pointer to beginning of array
; 488  : 	pointer _Mylast;	// pointer to current end of sequence
; 489  : 	pointer _Myend;	// pointer to end of array
; 490  : 	};
; 491  : 
; 492  : 		// TEMPLATE CLASS _Vector_alloc
; 493  : template<bool _Al_has_storage,
; 494  : 	class _Alloc_types>
; 495  : 	class _Vector_alloc
; 496  : 		: public _Vector_val<typename _Alloc_types::_Val_types>
; 497  : 	{	// base class for vector to hold allocator with storage
; 498  : public:
; 499  : 	typename _Alloc_types::_Alty _Alval;	// allocator object
; 500  : 
; 501  : 	typedef _Vector_alloc<_Al_has_storage, _Alloc_types> _Myt;
; 502  : 	typedef typename _Alloc_types::_Alloc _Alloc;
; 503  : 	typedef typename _Alloc_types::_Alty _Alty;
; 504  : 
; 505  :  #if _ITERATOR_DEBUG_LEVEL == 0
; 506  : 	_Vector_alloc(const _Alloc& _Al = _Alloc())
; 507  : 		: _Alval(_Al)
; 508  : 		{	// construct allocator from _Al
; 509  : 		}
; 510  : 
; 511  : 	void _Change_alloc(const _Alty& _Al)
; 512  : 		{	// replace old allocator
; 513  : 		this->_Alval = _Al;
; 514  : 		}
; 515  : 
; 516  : 	void _Swap_alloc(_Myt& _Right)
; 517  : 		{	// swap allocators
; 518  : 		_Swap_adl(this->_Alval, _Right._Alval);
; 519  : 		}
; 520  : 
; 521  :  #else /* _ITERATOR_DEBUG_LEVEL == 0 */
; 522  : 	_Vector_alloc(const _Alty& _Al = _Alty())
; 523  : 		: _Alval(_Al)
; 524  : 		{	// construct allocator from _Al
; 525  : 		_Alloc_proxy();
; 526  : 		}
; 527  : 
; 528  : 	~_Vector_alloc() _NOEXCEPT
; 529  : 		{	// destroy proxy
; 530  : 		_Free_proxy();
; 531  : 		}
; 532  : 
; 533  : 	void _Change_alloc(const _Alty& _Al)
; 534  : 		{	// replace old allocator
; 535  : 		_Free_proxy();
; 536  : 		this->_Alval = _Al;
; 537  : 		_Alloc_proxy();
; 538  : 		}
; 539  : 
; 540  : 	void _Swap_alloc(_Myt& _Right)
; 541  : 		{	// swap allocators
; 542  : 		_Swap_adl(this->_Alval, _Right._Alval);
; 543  : 		_Swap_adl(this->_Myproxy, _Right._Myproxy);
; 544  : 		}
; 545  : 
; 546  : 	void _Alloc_proxy()
; 547  : 		{	// construct proxy from _Alval
; 548  : 		typename _Alty::template rebind<_Container_proxy>::other
; 549  : 			_Alproxy(this->_Alval);
; 550  : 		this->_Myproxy = _Alproxy.allocate(1);
; 551  : 		_Alproxy.construct(this->_Myproxy, _Container_proxy());
; 552  : 		this->_Myproxy->_Mycont = this;
; 553  : 		}
; 554  : 
; 555  : 	void _Free_proxy()
; 556  : 		{	// destroy proxy
; 557  : 		typename _Alty::template rebind<_Container_proxy>::other
; 558  : 			_Alproxy(this->_Alval);
; 559  : 		this->_Orphan_all();
; 560  : 		_Alproxy.destroy(this->_Myproxy);
; 561  : 		_Alproxy.deallocate(this->_Myproxy, 1);
; 562  : 		this->_Myproxy = 0;
; 563  : 		}
; 564  :  #endif /* _ITERATOR_DEBUG_LEVEL == 0 */
; 565  : 
; 566  : 	_Alty& _Getal()
; 567  : 		{	// get reference to allocator
; 568  : 		return (this->_Alval);
; 569  : 		}
; 570  : 
; 571  : 	const _Alty& _Getal() const
; 572  : 		{	// get reference to allocator
; 573  : 		return (this->_Alval);
; 574  : 		}
; 575  : 	};
; 576  : 
; 577  : template<class _Alloc_types>
; 578  : 	class _Vector_alloc<false, _Alloc_types>
; 579  : 		: public _Vector_val<typename _Alloc_types::_Val_types>
; 580  : 	{	// base class for vector to hold allocator with no storage
; 581  : public:
; 582  : 	typedef _Vector_alloc<false, _Alloc_types> _Myt;
; 583  : 	typedef typename _Alloc_types::_Alloc _Alloc;
; 584  : 
; 585  : 	typedef typename _Alloc_types::_Alty _Alty;
; 586  : 
; 587  :  #if _ITERATOR_DEBUG_LEVEL == 0
; 588  : 	_Vector_alloc(const _Alloc& = _Alloc())
; 589  : 		{	// construct allocator from _Al
; 590  : 		}
; 591  : 
; 592  : 	void _Change_alloc(const _Alty&)
; 593  : 		{	// replace old allocator
; 594  : 		}
; 595  : 
; 596  : 	void _Swap_alloc(_Myt&)
; 597  : 		{	// swap allocators
; 598  : 		}
; 599  : 
; 600  :  #else /* _ITERATOR_DEBUG_LEVEL == 0 */
; 601  : 	_Vector_alloc(const _Alloc& = _Alloc())
; 602  : 		{	// construct allocator from _Al
; 603  : 		_Alloc_proxy();
; 604  : 		}
; 605  : 
; 606  : 	~_Vector_alloc() _NOEXCEPT
; 607  : 		{	// destroy proxy
; 608  : 		_Free_proxy();
; 609  : 		}
; 610  : 
; 611  : 	void _Change_alloc(const _Alty&)
; 612  : 		{	// replace old allocator
; 613  : 		}
; 614  : 
; 615  : 	void _Swap_alloc(_Myt& _Right)
; 616  : 		{	// swap allocators
; 617  : 		_Swap_adl(this->_Myproxy, _Right._Myproxy);
; 618  : 		}
; 619  : 
; 620  : 	void _Alloc_proxy()
; 621  : 		{	// construct proxy from _Alval
; 622  : 		typename _Alty::template rebind<_Container_proxy>::other
; 623  : 			_Alproxy;
; 624  : 		this->_Myproxy = _Alproxy.allocate(1);
; 625  : 		_Alproxy.construct(this->_Myproxy, _Container_proxy());
; 626  : 		this->_Myproxy->_Mycont = this;
; 627  : 		}
; 628  : 
; 629  : 	void _Free_proxy()
; 630  : 		{	// destroy proxy
; 631  : 		typename _Alty::template rebind<_Container_proxy>::other
; 632  : 			_Alproxy;
; 633  : 		this->_Orphan_all();
; 634  : 		_Alproxy.destroy(this->_Myproxy);
; 635  : 		_Alproxy.deallocate(this->_Myproxy, 1);
; 636  : 		this->_Myproxy = 0;
; 637  : 		}
; 638  :  #endif /* _ITERATOR_DEBUG_LEVEL == 0 */
; 639  : 
; 640  : 	_Alty _Getal() const
; 641  : 		{	// get reference to allocator
; 642  : 		return (_Alty());
; 643  : 		}
; 644  : 	};
; 645  : 
; 646  : 		// TEMPLATE CLASS vector
; 647  : template<class _Ty,
; 648  : 	class _Alloc = allocator<_Ty> >
; 649  : 	class vector
; 650  : 		: public _Vector_alloc<!is_empty<_Alloc>::value,
; 651  : 			_Vec_base_types<_Ty, _Alloc> >
; 652  : 	{	// varying size array of values
; 653  : public:
; 654  : 	typedef vector<_Ty, _Alloc> _Myt;
; 655  : 	typedef _Vector_alloc<!is_empty<_Alloc>::value,
; 656  : 		_Vec_base_types<_Ty, _Alloc> > _Mybase;
; 657  : 	typedef _Alloc allocator_type;
; 658  : 
; 659  : 	typedef typename _Mybase::_Alty _Alty;
; 660  : 
; 661  : 	typedef typename _Mybase::value_type value_type;
; 662  : 	typedef typename _Mybase::size_type size_type;
; 663  : 	typedef typename _Mybase::difference_type difference_type;
; 664  : 	typedef typename _Mybase::pointer pointer;
; 665  : 	typedef typename _Mybase::const_pointer const_pointer;
; 666  : 	typedef typename _Mybase::reference reference;
; 667  : 	typedef typename _Mybase::const_reference const_reference;
; 668  : 
; 669  :  #define _VICONT(it)	it._Getcont()
; 670  :  #define _VIPTR(it)	(it)._Ptr
; 671  : 
; 672  : 	typedef typename _Mybase::iterator iterator;
; 673  : 	typedef typename _Mybase::const_iterator const_iterator;
; 674  : 
; 675  : 	typedef _STD reverse_iterator<iterator> reverse_iterator;
; 676  : 	typedef _STD reverse_iterator<const_iterator> const_reverse_iterator;
; 677  : 
; 678  : 	vector()
; 679  : 		: _Mybase()
; 680  : 		{	// construct empty vector
; 681  : 		}
; 682  : 
; 683  : 	explicit vector(const _Alloc& _Al)
; 684  : 		: _Mybase(_Al)
; 685  : 		{	// construct empty vector, allocator
; 686  : 		}
; 687  : 
; 688  : 	explicit vector(size_type _Count)
; 689  : 		: _Mybase()
; 690  : 		{	// construct from _Count * value_type()
; 691  : 		if (_Buy(_Count))
; 692  : 			{	// nonzero, fill it
; 693  : 			_Alty _Alval(this->_Getal());
; 694  : 			_TRY_BEGIN
; 695  : 			_Uninitialized_default_fill_n(this->_Myfirst, _Count, _Alval);
; 696  : 			this->_Mylast += _Count;
; 697  : 			_CATCH_ALL
; 698  : 			_Tidy();
; 699  : 			_RERAISE;
; 700  : 			_CATCH_END
; 701  : 			}
; 702  : 		}
; 703  : 
; 704  : 	vector(size_type _Count, const value_type& _Val)
; 705  : 		: _Mybase()
; 706  : 		{	// construct from _Count * _Val
; 707  : 		_Construct_n(_Count, _STD addressof(_Val));
; 708  : 		}
; 709  : 
; 710  : 	vector(size_type _Count, const value_type& _Val, const _Alloc& _Al)
; 711  : 		: _Mybase(_Al)
; 712  : 		{	// construct from _Count * _Val, allocator
; 713  : 		_Construct_n(_Count, _STD addressof(_Val));
; 714  : 		}
; 715  : 
; 716  : 	vector(const _Myt& _Right)
; 717  : 
; 718  : 		: _Mybase(_Right._Getal().select_on_container_copy_construction())
; 719  : 
; 720  : 
; 721  : 		{	// construct by copying _Right
; 722  : 		if (_Buy(_Right.size()))
; 723  : 			_TRY_BEGIN
; 724  : 			this->_Mylast = _Ucopy(_Right.begin(), _Right.end(),
; 725  : 				this->_Myfirst);
; 726  : 			_CATCH_ALL
; 727  : 			_Tidy();
; 728  : 			_RERAISE;
; 729  : 			_CATCH_END
; 730  : 		}
; 731  : 
; 732  : 	vector(const _Myt& _Right, const _Alloc& _Al)
; 733  : 		: _Mybase(_Al)
; 734  : 		{	// construct by copying _Right, allocator
; 735  : 		if (_Buy(_Right.size()))
; 736  : 			_TRY_BEGIN
; 737  : 			this->_Mylast = _Ucopy(_Right.begin(), _Right.end(),
; 738  : 				this->_Myfirst);
; 739  : 			_CATCH_ALL
; 740  : 			_Tidy();
; 741  : 			_RERAISE;
; 742  : 			_CATCH_END
; 743  : 		}
; 744  : 
; 745  : 	template<class _Iter,
; 746  : 		class = typename enable_if<_Is_iterator<_Iter>::value,
; 747  : 			void>:: type>
; 748  : 		vector(_Iter _First, _Iter _Last)
; 749  : 		: _Mybase()
; 750  : 		{	// construct from [_First, _Last)
; 751  : 		_Construct(_First, _Last);
; 752  : 		}
; 753  : 
; 754  : 	template<class _Iter,
; 755  : 		class = typename enable_if<_Is_iterator<_Iter>::value,
; 756  : 			void>:: type>
; 757  : 		vector(_Iter _First, _Iter _Last, const _Alloc& _Al)
; 758  : 		: _Mybase(_Al)
; 759  : 		{	// construct from [_First, _Last) with allocator
; 760  : 		_Construct(_First, _Last);
; 761  : 		}
; 762  : 
; 763  : 	template<class _Iter>
; 764  : 		void _Construct(_Iter _First, _Iter _Last)
; 765  : 		{	// initialize with [_First, _Last)
; 766  : 		_Construct(_First, _Last, _Iter_cat(_First));
; 767  : 		}
; 768  : 
; 769  : 	template<class _Iter>
; 770  : 		void _Construct(_Iter _First, _Iter _Last, input_iterator_tag)
; 771  : 		{	// initialize with [_First, _Last), input iterators
; 772  : 		_TRY_BEGIN
; 773  : 
; 774  : 		for (; _First != _Last; ++_First)
; 775  : 			emplace_back(*_First);
; 776  : 
; 777  : 		_CATCH_ALL
; 778  : 		_Tidy();
; 779  : 		_RERAISE;
; 780  : 		_CATCH_END
; 781  : 		}
; 782  : 
; 783  : 	template<class _Iter>
; 784  : 		void _Construct(_Iter _First, _Iter _Last, forward_iterator_tag)
; 785  : 		{	// initialize with [_First, _Last), forward iterators
; 786  : 		if (_Buy(_STD distance(_First, _Last)))
; 787  : 			{	// nonzero, fill it
; 788  : 			_TRY_BEGIN
; 789  : 			this->_Mylast = _Ucopy(_First, _Last, this->_Myfirst);
; 790  : 			_CATCH_ALL
; 791  : 			_Tidy();
; 792  : 			_RERAISE;
; 793  : 			_CATCH_END
; 794  : 			}
; 795  : 		}
; 796  : 
; 797  : 	void _Construct_n(size_type _Count, const value_type *_Pval)
; 798  : 		{	// construct from _Count * *_Pval
; 799  : 		if (_Buy(_Count))
; 800  : 			{	// nonzero, fill it
; 801  : 			_TRY_BEGIN
; 802  : 			this->_Mylast = _Ufill(this->_Myfirst, _Count, _Pval);
; 803  : 			_CATCH_ALL
; 804  : 			_Tidy();
; 805  : 			_RERAISE;
; 806  : 			_CATCH_END
; 807  : 			}
; 808  : 		}
; 809  : 
; 810  : 	vector(_Myt&& _Right)
; 811  : 		: _Mybase(_Right._Getal())
; 812  : 		{	// construct by moving _Right
; 813  : 		_Assign_rv(_STD forward<_Myt>(_Right), true_type());
; 814  : 		}
; 815  : 
; 816  : 	vector(_Myt&& _Right, const _Alloc& _Al)
; 817  : 		: _Mybase(_Al)
; 818  : 		{	// construct by moving _Right, allocator
; 819  : 		_Assign_rv(_STD forward<_Myt>(_Right));
; 820  : 		}
; 821  : 
; 822  : 	_Myt& operator=(_Myt&& _Right)
; 823  : 		{	// assign by moving _Right
; 824  : 		if (this != &_Right)
; 825  : 			{	// different, assign it
; 826  : 			_Tidy();
; 827  : 			if (_Alty::propagate_on_container_move_assignment::value
; 828  : 				&& this->_Getal() != _Right._Getal())
; 829  : 				this->_Change_alloc(_Right._Getal());
; 830  : 
; 831  : 			_Assign_rv(_STD forward<_Myt>(_Right));
; 832  : 			}
; 833  : 		return (*this);
; 834  : 		}
; 835  : 
; 836  : 	void _Assign_rv(_Myt&& _Right, true_type)
; 837  : 		{	// move from _Right, stealing its contents
; 838  : 		this->_Swap_all((_Myt&)_Right);
; 839  : 		this->_Myfirst = _Right._Myfirst;
; 840  : 		this->_Mylast = _Right._Mylast;
; 841  : 		this->_Myend = _Right._Myend;
; 842  : 
; 843  : 		_Right._Myfirst = pointer();
; 844  : 		_Right._Mylast = pointer();
; 845  : 		_Right._Myend = pointer();
; 846  : 		}
; 847  : 
; 848  : 	void _Assign_rv(_Myt&& _Right, false_type)
; 849  : 		{	// move from _Right, possibly moving its contents
; 850  : 		if (get_allocator() == _Right.get_allocator())
; 851  : 			_Assign_rv(_STD forward<_Myt>(_Right), true_type());
; 852  : 		else
; 853  : 			_Construct(_STD make_move_iterator(_Right.begin()),
; 854  : 				_STD make_move_iterator(_Right.end()));
; 855  : 		}
; 856  : 
; 857  : 	void _Assign_rv(_Myt&& _Right)
; 858  : 		{	// assign by moving _Right
; 859  : 		_Assign_rv(_STD forward<_Myt>(_Right),
; 860  : 			typename _Alty::propagate_on_container_move_assignment());
; 861  : 		}
; 862  : 
; 863  : 
; 864  : 	void push_back(value_type&& _Val)
; 865  : 		{	// insert by moving into element at end
; 866  : 		if (_Inside(_STD addressof(_Val)))
; 867  : 			{	// push back an element
; 868  : 			size_type _Idx = _STD addressof(_Val) - this->_Myfirst;

  0006e	8b d9		 mov	 ebx, ecx
  00070	2b d8		 sub	 ebx, eax
  00072	c1 fb 02	 sar	 ebx, 2

; 869  : 			if (this->_Mylast == this->_Myend)

  00075	3b 7d d0	 cmp	 edi, DWORD PTR _dwCharacterVIDList$[ebp+8]
  00078	75 10		 jne	 SHORT $LN116@RemoveDyna

; 870  : 				_Reserve(1);

  0007a	6a 01		 push	 1
  0007c	8d 4d c8	 lea	 ecx, DWORD PTR _dwCharacterVIDList$[ebp]
  0007f	e8 00 00 00 00	 call	 ?_Reserve@?$vector@KV?$allocator@K@std@@@std@@IAEXI@Z ; std::vector<unsigned long,std::allocator<unsigned long> >::_Reserve
  00084	8b 7d cc	 mov	 edi, DWORD PTR _dwCharacterVIDList$[ebp+4]
  00087	8b 45 c8	 mov	 eax, DWORD PTR _dwCharacterVIDList$[ebp]
$LN116@RemoveDyna:
; File c:\program files (x86)\microsoft visual studio 12.0\vc\include\xmemory0

; 600  : 		::new ((void *)_Ptr) _Objty(_STD forward<_Types>(_Args)...);

  0008a	85 ff		 test	 edi, edi
  0008c	74 1f		 je	 SHORT $LN166@RemoveDyna
  0008e	8b 04 98	 mov	 eax, DWORD PTR [eax+ebx*4]
  00091	89 07		 mov	 DWORD PTR [edi], eax
; File c:\program files (x86)\microsoft visual studio 12.0\vc\include\vector

; 876  : 		else

  00093	eb 18		 jmp	 SHORT $LN166@RemoveDyna
$LN117@RemoveDyna:

; 877  : 			{	// push back a non-element
; 878  : 			if (this->_Mylast == this->_Myend)

  00095	3b 7d d0	 cmp	 edi, DWORD PTR _dwCharacterVIDList$[ebp+8]
  00098	75 0d		 jne	 SHORT $LN114@RemoveDyna

; 879  : 				_Reserve(1);

  0009a	6a 01		 push	 1
  0009c	8d 4d c8	 lea	 ecx, DWORD PTR _dwCharacterVIDList$[ebp]
  0009f	e8 00 00 00 00	 call	 ?_Reserve@?$vector@KV?$allocator@K@std@@@std@@IAEXI@Z ; std::vector<unsigned long,std::allocator<unsigned long> >::_Reserve
  000a4	8b 7d cc	 mov	 edi, DWORD PTR _dwCharacterVIDList$[ebp+4]
$LN114@RemoveDyna:
; File c:\program files (x86)\microsoft visual studio 12.0\vc\include\xmemory0

; 600  : 		::new ((void *)_Ptr) _Objty(_STD forward<_Types>(_Args)...);

  000a7	85 ff		 test	 edi, edi
  000a9	74 02		 je	 SHORT $LN166@RemoveDyna
  000ab	89 1f		 mov	 DWORD PTR [edi], ebx
$LN166@RemoveDyna:
; File c:\program files (x86)\microsoft visual studio 12.0\vc\include\vector

; 883  : 			++this->_Mylast;

  000ad	83 c7 04	 add	 edi, 4
; File c:\program files (x86)\microsoft visual studio 12.0\vc\include\xtree

; 60   : 		if (_Mytree::_Isnil(_Ptr))

  000b0	80 7e 0d 00	 cmp	 BYTE PTR [esi+13], 0
; File c:\program files (x86)\microsoft visual studio 12.0\vc\include\vector

; 883  : 			++this->_Mylast;

  000b4	89 7d cc	 mov	 DWORD PTR _dwCharacterVIDList$[ebp+4], edi
; File c:\program files (x86)\microsoft visual studio 12.0\vc\include\xtree

; 60   : 		if (_Mytree::_Isnil(_Ptr))

  000b7	75 3e		 jne	 SHORT $LN292@RemoveDyna

; 337  : 		}
; 338  : 
; 339  : 	bool operator!=(const _Myiter& _Right) const
; 340  : 		{	// test for iterator inequality
; 341  : 		return (!(*this == _Right));
; 342  : 		}
; 343  : 	};
; 344  : 
; 345  : template<class _Mytree> inline
; 346  : 	typename _Tree_const_iterator<_Mytree>::_Unchecked_type
; 347  : 		_Unchecked(_Tree_const_iterator<_Mytree> _Iter)
; 348  : 	{	// convert to unchecked
; 349  : 	return (_Iter._Unchecked());
; 350  : 	}
; 351  : 
; 352  : template<class _Mytree> inline
; 353  : 	_Tree_const_iterator<_Mytree>&
; 354  : 		_Rechecked(_Tree_const_iterator<_Mytree>& _Iter,
; 355  : 			typename _Tree_const_iterator<_Mytree>
; 356  : 				::_Unchecked_type _Right)
; 357  : 	{	// convert to checked
; 358  : 	return (_Iter._Rechecked(_Right));
; 359  : 	}
; 360  : 
; 361  : 	// TEMPLATE CLASS _Tree_iterator
; 362  : template<class _Mytree>
; 363  : 	class _Tree_iterator
; 364  : 		: public _Tree_const_iterator<_Mytree>
; 365  : 	{	// iterator for mutable tree
; 366  : public:
; 367  : 	typedef _Tree_iterator<_Mytree> _Myiter;
; 368  : 	typedef _Tree_const_iterator<_Mytree> _Mybase;
; 369  : 	typedef bidirectional_iterator_tag iterator_category;
; 370  : 
; 371  : 	typedef typename _Mytree::_Nodeptr _Nodeptr;
; 372  : 	typedef typename _Mytree::value_type value_type;
; 373  : 	typedef typename _Mytree::difference_type difference_type;
; 374  : 
; 375  : 	typedef typename _Mytree::pointer pointer;
; 376  : 	typedef typename _Mytree::reference reference;
; 377  : 
; 378  : 	_Tree_iterator()
; 379  : 		{	// construct with null node
; 380  : 		}
; 381  : 
; 382  : 	_Tree_iterator(_Nodeptr _Pnode, const _Mytree *_Plist)
; 383  : 		: _Mybase(_Pnode, _Plist)
; 384  : 		{	// construct with node pointer _Pnode
; 385  : 		}
; 386  : 
; 387  : 	typedef _Tree_unchecked_iterator<_Mytree> _Unchecked_type;
; 388  : 
; 389  : 	_Myiter& _Rechecked(_Unchecked_type _Right)
; 390  : 		{	// reset from unchecked iterator
; 391  : 		this->_Ptr = _Right._Ptr;
; 392  : 		return (*this);
; 393  : 		}
; 394  : 
; 395  : 	_Unchecked_type _Unchecked() const
; 396  : 		{	// make an unchecked iterator
; 397  : 		return (_Unchecked_type(this->_Ptr, (_Mytree *)this->_Getcont()));
; 398  : 		}
; 399  : 
; 400  : 	reference operator*() const
; 401  : 		{	// return designated value
; 402  : 		return ((reference)**(_Mybase *)this);
; 403  : 		}
; 404  : 
; 405  : 	pointer operator->() const
; 406  : 		{	// return pointer to class object
; 407  : 		return (_STD pointer_traits<pointer>::pointer_to(**this));
; 408  : 		}
; 409  : 
; 410  : 	_Myiter& operator++()
; 411  : 		{	// preincrement
; 412  : 		++(*(_Mybase *)this);
; 413  : 		return (*this);
; 414  : 		}
; 415  : 
; 416  : 	_Myiter operator++(int)
; 417  : 		{	// postincrement
; 418  : 		_Myiter _Tmp = *this;
; 419  : 		++*this;
; 420  : 		return (_Tmp);
; 421  : 		}
; 422  : 
; 423  : 	_Myiter& operator--()
; 424  : 		{	// predecrement
; 425  : 		--(*(_Mybase *)this);
; 426  : 		return (*this);
; 427  : 		}
; 428  : 
; 429  : 	_Myiter operator--(int)
; 430  : 		{	// postdecrement
; 431  : 		_Myiter _Tmp = *this;
; 432  : 		--*this;
; 433  : 		return (_Tmp);
; 434  : 		}
; 435  : 	};
; 436  : 
; 437  : template<class _Mytree> inline
; 438  : 	typename _Tree_iterator<_Mytree>::_Unchecked_type
; 439  : 		_Unchecked(_Tree_iterator<_Mytree> _Iter)
; 440  : 	{	// convert to unchecked
; 441  : 	return (_Iter._Unchecked());
; 442  : 	}
; 443  : 
; 444  : template<class _Mytree> inline
; 445  : 	_Tree_iterator<_Mytree>&
; 446  : 		_Rechecked(_Tree_iterator<_Mytree>& _Iter,
; 447  : 			typename _Tree_iterator<_Mytree>
; 448  : 				::_Unchecked_type _Right)
; 449  : 	{	// convert to checked
; 450  : 	return (_Iter._Rechecked(_Right));
; 451  : 	}
; 452  : 
; 453  : 		// tree TYPE WRAPPERS
; 454  : template<class _Value_type,
; 455  : 	class _Size_type,
; 456  : 	class _Difference_type,
; 457  : 	class _Pointer,
; 458  : 	class _Const_pointer,
; 459  : 	class _Reference,
; 460  : 	class _Const_reference,
; 461  : 	class _Nodeptr_type>
; 462  : 	struct _Tree_iter_types
; 463  : 	{	// wraps types needed by iterators
; 464  : 	typedef _Value_type value_type;
; 465  : 	typedef _Size_type size_type;
; 466  : 	typedef _Difference_type difference_type;
; 467  : 	typedef _Pointer pointer;
; 468  : 	typedef _Const_pointer const_pointer;
; 469  : 	typedef _Reference reference;
; 470  : 	typedef _Const_reference const_reference;
; 471  : 	typedef _Nodeptr_type _Nodeptr;
; 472  : 	};
; 473  : 
; 474  : template<class _Value_type,
; 475  : 	class _Voidptr>
; 476  : 	struct _Tree_node
; 477  : 		{	// tree node
; 478  : 		_Voidptr _Left;	// left subtree, or smallest element if head
; 479  : 		_Voidptr _Parent;	// parent, or root of tree if head
; 480  : 		_Voidptr _Right;	// right subtree, or largest element if head
; 481  : 		char _Color;	// _Red or _Black, _Black if head
; 482  : 		char _Isnil;	// true only if head (also nil) node
; 483  : 		_Value_type _Myval;	// the stored value, unused if head
; 484  : 
; 485  : 	private:
; 486  : 		_Tree_node& operator=(const _Tree_node&);
; 487  : 		};
; 488  : 
; 489  : template<class _Value_type>
; 490  : 	struct _Tree_node<_Value_type, void *>
; 491  : 		{	// tree node
; 492  : 		typedef _Tree_node<_Value_type, void *> *_Nodeptr;
; 493  : 		_Nodeptr _Left;	// left subtree, or smallest element if head
; 494  : 		_Nodeptr _Parent;	// parent, or root of tree if head
; 495  : 		_Nodeptr _Right;	// right subtree, or largest element if head
; 496  : 		char _Color;	// _Red or _Black, _Black if head
; 497  : 		char _Isnil;	// true only if head (also nil) node
; 498  : 		_Value_type _Myval;	// the stored value, unused if head
; 499  : 
; 500  : 	private:
; 501  : 		_Tree_node& operator=(const _Tree_node&);
; 502  : 		};
; 503  : 
; 504  : template<class _Ty>
; 505  : 	struct _Tree_simple_types
; 506  : 		: public _Simple_types<_Ty>
; 507  : 	{	// wraps types needed by iterators
; 508  : 	typedef _Tree_node<_Ty, void *> _Node;
; 509  : 	typedef _Node *_Nodeptr;
; 510  : 	};
; 511  : 
; 512  : template<class _Ty,
; 513  : 	class _Alloc0>
; 514  : 	struct _Tree_base_types
; 515  : 	{	// types needed for a container base
; 516  : 	typedef _Alloc0 _Alloc;
; 517  : 	typedef _Tree_base_types<_Ty, _Alloc> _Myt;
; 518  : 
; 519  : 	typedef _Wrap_alloc<_Alloc> _Alty0;
; 520  : 	typedef typename _Alty0::template rebind<_Ty>::other _Alty;
; 521  : 
; 522  : 
; 523  : 	typedef typename _Get_voidptr<_Alty, typename _Alty::pointer>::type
; 524  : 		_Voidptr;
; 525  : 	typedef _Tree_node<typename _Alty::value_type,
; 526  : 		_Voidptr> _Node;
; 527  : 
; 528  : 	typedef typename _Alty::template rebind<_Node>::other _Alnod_type;
; 529  : 	typedef typename _Alnod_type::pointer _Nodeptr;
; 530  : 	typedef _Nodeptr& _Nodepref;
; 531  : 
; 532  : 	typedef typename _If<_Is_simple_alloc<_Alty>::value,
; 533  : 		_Tree_simple_types<typename _Alty::value_type>,
; 534  : 		_Tree_iter_types<typename _Alty::value_type,
; 535  : 			typename _Alty::size_type,
; 536  : 			typename _Alty::difference_type,
; 537  : 			typename _Alty::pointer,
; 538  : 			typename _Alty::const_pointer,
; 539  : 			typename _Alty::reference,
; 540  : 			typename _Alty::const_reference,
; 541  : 			_Nodeptr> >::type
; 542  : 		_Val_types;
; 543  : 	};
; 544  : 
; 545  : 		// TEMPLATE CLASS _Tree_val
; 546  : template<class _Val_types>
; 547  : 	class _Tree_val
; 548  : 		: public _Container_base
; 549  : 	{	// base class for tree to hold data
; 550  : public:
; 551  : 	typedef _Tree_val<_Val_types> _Myt;
; 552  : 
; 553  : 	typedef typename _Val_types::_Nodeptr _Nodeptr;
; 554  : 	typedef _Nodeptr& _Nodepref;
; 555  : 
; 556  : 	typedef typename _Val_types::value_type value_type;
; 557  : 	typedef typename _Val_types::size_type size_type;
; 558  : 	typedef typename _Val_types::difference_type difference_type;
; 559  : 	typedef typename _Val_types::pointer pointer;
; 560  : 	typedef typename _Val_types::const_pointer const_pointer;
; 561  : 	typedef typename _Val_types::reference reference;
; 562  : 	typedef typename _Val_types::const_reference const_reference;
; 563  : 
; 564  : 	typedef _Tree_const_iterator<_Myt> const_iterator;
; 565  : 	typedef _Tree_iterator<_Myt> iterator;
; 566  : 
; 567  : 	_Tree_val()
; 568  : 		{	// initialize data
; 569  : 		this->_Myhead = 0;
; 570  : 		this->_Mysize = 0;
; 571  : 		}
; 572  : 
; 573  : 	enum _Redbl
; 574  : 		{	// colors for link to parent
; 575  : 		_Red, _Black};
; 576  : 
; 577  : 	static char& _Color(_Nodeptr _Pnode)
; 578  : 		{	// return reference to color in node
; 579  : 		return ((char&)_Pnode->_Color);
; 580  : 		}
; 581  : 
; 582  : 	static char& _Isnil(_Nodeptr _Pnode)
; 583  : 		{	// return reference to nil flag in node
; 584  : 		return ((char&)_Pnode->_Isnil);

  000b9	8b 46 08	 mov	 eax, DWORD PTR [esi+8]

; 61   : 			;	// end() shouldn't be incremented, don't move
; 62   : 		else if (!_Mytree::_Isnil(_Mytree::_Right(_Ptr)))

  000bc	80 78 0d 00	 cmp	 BYTE PTR [eax+13], 0
  000c0	75 1a		 jne	 SHORT $LN287@RemoveDyna

; 63   : 			_Ptr = _Mytree::_Min(
; 64   : 				_Mytree::_Right(_Ptr));	// ==> smallest of right subtree

  000c2	8b f0		 mov	 esi, eax

; 337  : 		}
; 338  : 
; 339  : 	bool operator!=(const _Myiter& _Right) const
; 340  : 		{	// test for iterator inequality
; 341  : 		return (!(*this == _Right));
; 342  : 		}
; 343  : 	};
; 344  : 
; 345  : template<class _Mytree> inline
; 346  : 	typename _Tree_const_iterator<_Mytree>::_Unchecked_type
; 347  : 		_Unchecked(_Tree_const_iterator<_Mytree> _Iter)
; 348  : 	{	// convert to unchecked
; 349  : 	return (_Iter._Unchecked());
; 350  : 	}
; 351  : 
; 352  : template<class _Mytree> inline
; 353  : 	_Tree_const_iterator<_Mytree>&
; 354  : 		_Rechecked(_Tree_const_iterator<_Mytree>& _Iter,
; 355  : 			typename _Tree_const_iterator<_Mytree>
; 356  : 				::_Unchecked_type _Right)
; 357  : 	{	// convert to checked
; 358  : 	return (_Iter._Rechecked(_Right));
; 359  : 	}
; 360  : 
; 361  : 	// TEMPLATE CLASS _Tree_iterator
; 362  : template<class _Mytree>
; 363  : 	class _Tree_iterator
; 364  : 		: public _Tree_const_iterator<_Mytree>
; 365  : 	{	// iterator for mutable tree
; 366  : public:
; 367  : 	typedef _Tree_iterator<_Mytree> _Myiter;
; 368  : 	typedef _Tree_const_iterator<_Mytree> _Mybase;
; 369  : 	typedef bidirectional_iterator_tag iterator_category;
; 370  : 
; 371  : 	typedef typename _Mytree::_Nodeptr _Nodeptr;
; 372  : 	typedef typename _Mytree::value_type value_type;
; 373  : 	typedef typename _Mytree::difference_type difference_type;
; 374  : 
; 375  : 	typedef typename _Mytree::pointer pointer;
; 376  : 	typedef typename _Mytree::reference reference;
; 377  : 
; 378  : 	_Tree_iterator()
; 379  : 		{	// construct with null node
; 380  : 		}
; 381  : 
; 382  : 	_Tree_iterator(_Nodeptr _Pnode, const _Mytree *_Plist)
; 383  : 		: _Mybase(_Pnode, _Plist)
; 384  : 		{	// construct with node pointer _Pnode
; 385  : 		}
; 386  : 
; 387  : 	typedef _Tree_unchecked_iterator<_Mytree> _Unchecked_type;
; 388  : 
; 389  : 	_Myiter& _Rechecked(_Unchecked_type _Right)
; 390  : 		{	// reset from unchecked iterator
; 391  : 		this->_Ptr = _Right._Ptr;
; 392  : 		return (*this);
; 393  : 		}
; 394  : 
; 395  : 	_Unchecked_type _Unchecked() const
; 396  : 		{	// make an unchecked iterator
; 397  : 		return (_Unchecked_type(this->_Ptr, (_Mytree *)this->_Getcont()));
; 398  : 		}
; 399  : 
; 400  : 	reference operator*() const
; 401  : 		{	// return designated value
; 402  : 		return ((reference)**(_Mybase *)this);
; 403  : 		}
; 404  : 
; 405  : 	pointer operator->() const
; 406  : 		{	// return pointer to class object
; 407  : 		return (_STD pointer_traits<pointer>::pointer_to(**this));
; 408  : 		}
; 409  : 
; 410  : 	_Myiter& operator++()
; 411  : 		{	// preincrement
; 412  : 		++(*(_Mybase *)this);
; 413  : 		return (*this);
; 414  : 		}
; 415  : 
; 416  : 	_Myiter operator++(int)
; 417  : 		{	// postincrement
; 418  : 		_Myiter _Tmp = *this;
; 419  : 		++*this;
; 420  : 		return (_Tmp);
; 421  : 		}
; 422  : 
; 423  : 	_Myiter& operator--()
; 424  : 		{	// predecrement
; 425  : 		--(*(_Mybase *)this);
; 426  : 		return (*this);
; 427  : 		}
; 428  : 
; 429  : 	_Myiter operator--(int)
; 430  : 		{	// postdecrement
; 431  : 		_Myiter _Tmp = *this;
; 432  : 		--*this;
; 433  : 		return (_Tmp);
; 434  : 		}
; 435  : 	};
; 436  : 
; 437  : template<class _Mytree> inline
; 438  : 	typename _Tree_iterator<_Mytree>::_Unchecked_type
; 439  : 		_Unchecked(_Tree_iterator<_Mytree> _Iter)
; 440  : 	{	// convert to unchecked
; 441  : 	return (_Iter._Unchecked());
; 442  : 	}
; 443  : 
; 444  : template<class _Mytree> inline
; 445  : 	_Tree_iterator<_Mytree>&
; 446  : 		_Rechecked(_Tree_iterator<_Mytree>& _Iter,
; 447  : 			typename _Tree_iterator<_Mytree>
; 448  : 				::_Unchecked_type _Right)
; 449  : 	{	// convert to checked
; 450  : 	return (_Iter._Rechecked(_Right));
; 451  : 	}
; 452  : 
; 453  : 		// tree TYPE WRAPPERS
; 454  : template<class _Value_type,
; 455  : 	class _Size_type,
; 456  : 	class _Difference_type,
; 457  : 	class _Pointer,
; 458  : 	class _Const_pointer,
; 459  : 	class _Reference,
; 460  : 	class _Const_reference,
; 461  : 	class _Nodeptr_type>
; 462  : 	struct _Tree_iter_types
; 463  : 	{	// wraps types needed by iterators
; 464  : 	typedef _Value_type value_type;
; 465  : 	typedef _Size_type size_type;
; 466  : 	typedef _Difference_type difference_type;
; 467  : 	typedef _Pointer pointer;
; 468  : 	typedef _Const_pointer const_pointer;
; 469  : 	typedef _Reference reference;
; 470  : 	typedef _Const_reference const_reference;
; 471  : 	typedef _Nodeptr_type _Nodeptr;
; 472  : 	};
; 473  : 
; 474  : template<class _Value_type,
; 475  : 	class _Voidptr>
; 476  : 	struct _Tree_node
; 477  : 		{	// tree node
; 478  : 		_Voidptr _Left;	// left subtree, or smallest element if head
; 479  : 		_Voidptr _Parent;	// parent, or root of tree if head
; 480  : 		_Voidptr _Right;	// right subtree, or largest element if head
; 481  : 		char _Color;	// _Red or _Black, _Black if head
; 482  : 		char _Isnil;	// true only if head (also nil) node
; 483  : 		_Value_type _Myval;	// the stored value, unused if head
; 484  : 
; 485  : 	private:
; 486  : 		_Tree_node& operator=(const _Tree_node&);
; 487  : 		};
; 488  : 
; 489  : template<class _Value_type>
; 490  : 	struct _Tree_node<_Value_type, void *>
; 491  : 		{	// tree node
; 492  : 		typedef _Tree_node<_Value_type, void *> *_Nodeptr;
; 493  : 		_Nodeptr _Left;	// left subtree, or smallest element if head
; 494  : 		_Nodeptr _Parent;	// parent, or root of tree if head
; 495  : 		_Nodeptr _Right;	// right subtree, or largest element if head
; 496  : 		char _Color;	// _Red or _Black, _Black if head
; 497  : 		char _Isnil;	// true only if head (also nil) node
; 498  : 		_Value_type _Myval;	// the stored value, unused if head
; 499  : 
; 500  : 	private:
; 501  : 		_Tree_node& operator=(const _Tree_node&);
; 502  : 		};
; 503  : 
; 504  : template<class _Ty>
; 505  : 	struct _Tree_simple_types
; 506  : 		: public _Simple_types<_Ty>
; 507  : 	{	// wraps types needed by iterators
; 508  : 	typedef _Tree_node<_Ty, void *> _Node;
; 509  : 	typedef _Node *_Nodeptr;
; 510  : 	};
; 511  : 
; 512  : template<class _Ty,
; 513  : 	class _Alloc0>
; 514  : 	struct _Tree_base_types
; 515  : 	{	// types needed for a container base
; 516  : 	typedef _Alloc0 _Alloc;
; 517  : 	typedef _Tree_base_types<_Ty, _Alloc> _Myt;
; 518  : 
; 519  : 	typedef _Wrap_alloc<_Alloc> _Alty0;
; 520  : 	typedef typename _Alty0::template rebind<_Ty>::other _Alty;
; 521  : 
; 522  : 
; 523  : 	typedef typename _Get_voidptr<_Alty, typename _Alty::pointer>::type
; 524  : 		_Voidptr;
; 525  : 	typedef _Tree_node<typename _Alty::value_type,
; 526  : 		_Voidptr> _Node;
; 527  : 
; 528  : 	typedef typename _Alty::template rebind<_Node>::other _Alnod_type;
; 529  : 	typedef typename _Alnod_type::pointer _Nodeptr;
; 530  : 	typedef _Nodeptr& _Nodepref;
; 531  : 
; 532  : 	typedef typename _If<_Is_simple_alloc<_Alty>::value,
; 533  : 		_Tree_simple_types<typename _Alty::value_type>,
; 534  : 		_Tree_iter_types<typename _Alty::value_type,
; 535  : 			typename _Alty::size_type,
; 536  : 			typename _Alty::difference_type,
; 537  : 			typename _Alty::pointer,
; 538  : 			typename _Alty::const_pointer,
; 539  : 			typename _Alty::reference,
; 540  : 			typename _Alty::const_reference,
; 541  : 			_Nodeptr> >::type
; 542  : 		_Val_types;
; 543  : 	};
; 544  : 
; 545  : 		// TEMPLATE CLASS _Tree_val
; 546  : template<class _Val_types>
; 547  : 	class _Tree_val
; 548  : 		: public _Container_base
; 549  : 	{	// base class for tree to hold data
; 550  : public:
; 551  : 	typedef _Tree_val<_Val_types> _Myt;
; 552  : 
; 553  : 	typedef typename _Val_types::_Nodeptr _Nodeptr;
; 554  : 	typedef _Nodeptr& _Nodepref;
; 555  : 
; 556  : 	typedef typename _Val_types::value_type value_type;
; 557  : 	typedef typename _Val_types::size_type size_type;
; 558  : 	typedef typename _Val_types::difference_type difference_type;
; 559  : 	typedef typename _Val_types::pointer pointer;
; 560  : 	typedef typename _Val_types::const_pointer const_pointer;
; 561  : 	typedef typename _Val_types::reference reference;
; 562  : 	typedef typename _Val_types::const_reference const_reference;
; 563  : 
; 564  : 	typedef _Tree_const_iterator<_Myt> const_iterator;
; 565  : 	typedef _Tree_iterator<_Myt> iterator;
; 566  : 
; 567  : 	_Tree_val()
; 568  : 		{	// initialize data
; 569  : 		this->_Myhead = 0;
; 570  : 		this->_Mysize = 0;
; 571  : 		}
; 572  : 
; 573  : 	enum _Redbl
; 574  : 		{	// colors for link to parent
; 575  : 		_Red, _Black};
; 576  : 
; 577  : 	static char& _Color(_Nodeptr _Pnode)
; 578  : 		{	// return reference to color in node
; 579  : 		return ((char&)_Pnode->_Color);
; 580  : 		}
; 581  : 
; 582  : 	static char& _Isnil(_Nodeptr _Pnode)
; 583  : 		{	// return reference to nil flag in node
; 584  : 		return ((char&)_Pnode->_Isnil);

  000c4	8b 06		 mov	 eax, DWORD PTR [esi]

; 595  : 		}
; 596  : 
; 597  : 	static _Nodepref _Right(_Nodeptr _Pnode)
; 598  : 		{	// return reference to right pointer in node
; 599  : 		return ((_Nodepref)_Pnode->_Right);
; 600  : 		}
; 601  : 
; 602  : 	static reference _Myval(_Nodeptr _Pnode)
; 603  : 		{	// return reference to value in node
; 604  : 		return ((reference)_Pnode->_Myval);
; 605  : 		}
; 606  : 
; 607  : 	static _Nodeptr _Max(_Nodeptr _Pnode)
; 608  : 		{	// return rightmost node in subtree at _Pnode
; 609  : 		while (!_Isnil(_Right(_Pnode)))
; 610  : 			_Pnode = _Right(_Pnode);
; 611  : 		return (_Pnode);
; 612  : 		}
; 613  : 
; 614  : 	static _Nodeptr _Min(_Nodeptr _Pnode)
; 615  : 		{	// return leftmost node in subtree at _Pnode
; 616  : 		while (!_Isnil(_Left(_Pnode)))

  000c6	80 78 0d 00	 cmp	 BYTE PTR [eax+13], 0
  000ca	75 2b		 jne	 SHORT $LN292@RemoveDyna
  000cc	8d 64 24 00	 npad	 4
$LL65@RemoveDyna:

; 617  : 			_Pnode = _Left(_Pnode);

  000d0	8b f0		 mov	 esi, eax

; 337  : 		}
; 338  : 
; 339  : 	bool operator!=(const _Myiter& _Right) const
; 340  : 		{	// test for iterator inequality
; 341  : 		return (!(*this == _Right));
; 342  : 		}
; 343  : 	};
; 344  : 
; 345  : template<class _Mytree> inline
; 346  : 	typename _Tree_const_iterator<_Mytree>::_Unchecked_type
; 347  : 		_Unchecked(_Tree_const_iterator<_Mytree> _Iter)
; 348  : 	{	// convert to unchecked
; 349  : 	return (_Iter._Unchecked());
; 350  : 	}
; 351  : 
; 352  : template<class _Mytree> inline
; 353  : 	_Tree_const_iterator<_Mytree>&
; 354  : 		_Rechecked(_Tree_const_iterator<_Mytree>& _Iter,
; 355  : 			typename _Tree_const_iterator<_Mytree>
; 356  : 				::_Unchecked_type _Right)
; 357  : 	{	// convert to checked
; 358  : 	return (_Iter._Rechecked(_Right));
; 359  : 	}
; 360  : 
; 361  : 	// TEMPLATE CLASS _Tree_iterator
; 362  : template<class _Mytree>
; 363  : 	class _Tree_iterator
; 364  : 		: public _Tree_const_iterator<_Mytree>
; 365  : 	{	// iterator for mutable tree
; 366  : public:
; 367  : 	typedef _Tree_iterator<_Mytree> _Myiter;
; 368  : 	typedef _Tree_const_iterator<_Mytree> _Mybase;
; 369  : 	typedef bidirectional_iterator_tag iterator_category;
; 370  : 
; 371  : 	typedef typename _Mytree::_Nodeptr _Nodeptr;
; 372  : 	typedef typename _Mytree::value_type value_type;
; 373  : 	typedef typename _Mytree::difference_type difference_type;
; 374  : 
; 375  : 	typedef typename _Mytree::pointer pointer;
; 376  : 	typedef typename _Mytree::reference reference;
; 377  : 
; 378  : 	_Tree_iterator()
; 379  : 		{	// construct with null node
; 380  : 		}
; 381  : 
; 382  : 	_Tree_iterator(_Nodeptr _Pnode, const _Mytree *_Plist)
; 383  : 		: _Mybase(_Pnode, _Plist)
; 384  : 		{	// construct with node pointer _Pnode
; 385  : 		}
; 386  : 
; 387  : 	typedef _Tree_unchecked_iterator<_Mytree> _Unchecked_type;
; 388  : 
; 389  : 	_Myiter& _Rechecked(_Unchecked_type _Right)
; 390  : 		{	// reset from unchecked iterator
; 391  : 		this->_Ptr = _Right._Ptr;
; 392  : 		return (*this);
; 393  : 		}
; 394  : 
; 395  : 	_Unchecked_type _Unchecked() const
; 396  : 		{	// make an unchecked iterator
; 397  : 		return (_Unchecked_type(this->_Ptr, (_Mytree *)this->_Getcont()));
; 398  : 		}
; 399  : 
; 400  : 	reference operator*() const
; 401  : 		{	// return designated value
; 402  : 		return ((reference)**(_Mybase *)this);
; 403  : 		}
; 404  : 
; 405  : 	pointer operator->() const
; 406  : 		{	// return pointer to class object
; 407  : 		return (_STD pointer_traits<pointer>::pointer_to(**this));
; 408  : 		}
; 409  : 
; 410  : 	_Myiter& operator++()
; 411  : 		{	// preincrement
; 412  : 		++(*(_Mybase *)this);
; 413  : 		return (*this);
; 414  : 		}
