; Listing generated by Microsoft (R) Optimizing Compiler Version 18.00.40629.0 

	TITLE	D:\Metin2\Metin2\client_source_clean\client_source_clean\source\UserInterface\PythonItemModule.cpp
	.686P
	.XMM
	include listing.inc
	.model	flat

INCLUDELIB OLDNAMES

PUBLIC	??_C@_0BG@LNOAJHHG@no?5selected?5item?5data?$AA@ ; `string'
PUBLIC	??_C@_0BH@EOAFOHJK@Cannot?5find?5item?5by?5?$CFd?$AA@ ; `string'
PUBLIC	??_C@_0BM@MLEHJLDK@Cannot?5get?5icon?5image?5by?5?$CFd?$AA@ ; `string'
PUBLIC	??_C@_0BJ@FJOAFFCG@Not?5yet?5select?5item?5data?$AA@ ; `string'
PUBLIC	??_C@_0BE@HKKEFMIC@SetUseSoundFileName?$AA@	; `string'
PUBLIC	??_C@_0BM@KPLEGEEH@Can?8t?5find?5select?5item?5data?$AA@ ; `string'
PUBLIC	??_C@_0L@GFKKOOBA@SelectItem?$AA@		; `string'
PUBLIC	??_C@_0BF@BODGENI@SetDropSoundFileName?$AA@	; `string'
PUBLIC	??_C@_0BD@GLEOJONA@GetItemDescription?$AA@	; `string'
PUBLIC	??_C@_0M@BFODJMFI@GetItemName?$AA@		; `string'
PUBLIC	??_C@_0N@IEABDKDK@GetIconImage?$AA@		; `string'
PUBLIC	??_C@_0P@OIBFDAMI@GetItemSummary?$AA@		; `string'
PUBLIC	??_C@_0M@FBEOFCHB@GetItemSize?$AA@		; `string'
PUBLIC	??_C@_0BF@NNPLLIOE@GetIconImageFileName?$AA@	; `string'
PUBLIC	??_C@_0P@MFCMKOKJ@GetItemSubType?$AA@		; `string'
PUBLIC	??_C@_0M@LOOAFMCI@GetItemType?$AA@		; `string'
PUBLIC	??_C@_0BC@OKNBBEMG@GetISellItemPrice?$AA@	; `string'
PUBLIC	??_C@_0BB@KJGHJKGD@GetIBuyItemPrice?$AA@	; `string'
PUBLIC	??_C@_06PLFMNGGB@IsFlag?$AA@			; `string'
PUBLIC	??_C@_0L@NKLNOBKA@IsAntiFlag?$AA@		; `string'
PUBLIC	??_C@_0M@IKKLMPND@Is1GoldItem?$AA@		; `string'
PUBLIC	??_C@_0P@KNFGADIE@IsWearableFlag?$AA@		; `string'
PUBLIC	??_C@_09HJGEAOAM@GetAffect?$AA@			; `string'
PUBLIC	??_C@_08KIIGDNA@GetLimit?$AA@			; `string'
PUBLIC	??_C@_09ICJIFGNC@GetSocket?$AA@			; `string'
PUBLIC	??_C@_08GGOMBHIN@GetValue?$AA@			; `string'
PUBLIC	??_C@_0L@POCKMHMA@GetUseType?$AA@		; `string'
PUBLIC	??_C@_0BA@PMLMLIHH@GetIconInstance?$AA@		; `string'
PUBLIC	??_C@_0P@OGDGGJFE@IsEquipmentVID?$AA@		; `string'
PUBLIC	??_C@_0BD@BNBIIKMM@DeleteIconInstance?$AA@	; `string'
PUBLIC	??_C@_0P@CNNPGCCK@IsDetachScroll?$AA@		; `string'
PUBLIC	??_C@_0P@LGDKNEFF@IsRefineScroll?$AA@		; `string'
PUBLIC	??_C@_07MLLOFDCE@IsMetin?$AA@			; `string'
PUBLIC	??_C@_05CEOMILKP@IsKey?$AA@			; `string'
PUBLIC	??_C@_0L@EMDEHLJF@CreateItem?$AA@		; `string'
PUBLIC	??_C@_0BG@FEGHIHDK@CanAddToQuickSlotItem?$AA@	; `string'
PUBLIC	??_C@_0O@HJNOJBCJ@LoadItemTable?$AA@		; `string'
PUBLIC	??_C@_0L@IIJEEMCG@DeleteItem?$AA@		; `string'
PUBLIC	??_C@_0P@ENGKPPPD@USESOUND_ARMOR?$AA@		; `string'
PUBLIC	??_C@_0BD@MEKMBKPM@USESOUND_ACCESSORY?$AA@	; `string'
PUBLIC	??_C@_0BB@BHHNCGFC@USESOUND_DEFAULT?$AA@	; `string'
PUBLIC	??_C@_0N@MDIFIDON@USESOUND_BOW?$AA@		; `string'
PUBLIC	??_C@_0BA@GIIHLHOB@USESOUND_POTION?$AA@		; `string'
PUBLIC	??_C@_0BA@IJKKKKOO@USESOUND_WEAPON?$AA@		; `string'
PUBLIC	??_C@_0BE@PBPPNIPJ@DROPSOUND_ACCESSORY?$AA@	; `string'
PUBLIC	??_C@_0BA@HNBMICIL@USESOUND_PORTAL?$AA@		; `string'
PUBLIC	??_C@_0O@OOJPAKOO@DROPSOUND_BOW?$AA@		; `string'
PUBLIC	??_C@_0BA@PCCDLKKO@DROPSOUND_ARMOR?$AA@		; `string'
PUBLIC	??_C@_0BB@JMMPMOOC@DROPSOUND_WEAPON?$AA@	; `string'
PUBLIC	??_C@_0BC@BONOAPBN@DROPSOUND_DEFAULT?$AA@	; `string'
PUBLIC	??_C@_0P@GCJFHMFC@EQUIPMENT_HEAD?$AA@		; `string'
PUBLIC	??_C@_0BA@KJELJAII@EQUIPMENT_COUNT?$AA@		; `string'
PUBLIC	??_C@_0BB@IKOPOEMN@EQUIPMENT_WEAPON?$AA@	; `string'
PUBLIC	??_C@_0P@LODPCKGA@EQUIPMENT_BODY?$AA@		; `string'
PUBLIC	??_C@_0BA@GEANIANO@EQUIPMENT_SHOES?$AA@		; `string'
PUBLIC	??_C@_0BA@KHENFLDC@EQUIPMENT_WRIST?$AA@		; `string'
PUBLIC	??_C@_0O@KNFMDJEG@EQUIPMENT_EAR?$AA@		; `string'
PUBLIC	??_C@_0P@GJMJEBFD@EQUIPMENT_NECK?$AA@		; `string'
PUBLIC	??_C@_0BC@KKMPKFNI@EQUIPMENT_UNIQUE2?$AA@	; `string'
PUBLIC	??_C@_0BC@IBOCPGBL@EQUIPMENT_UNIQUE1?$AA@	; `string'
PUBLIC	??_C@_0P@EMFHBOCE@ITEM_TYPE_NONE?$AA@		; `string'
PUBLIC	??_C@_0BA@MLMLGDPN@EQUIPMENT_ARROW?$AA@		; `string'
PUBLIC	??_C@_0BA@MCMGEHMH@ITEM_TYPE_ARMOR?$AA@		; `string'
PUBLIC	??_C@_0BB@KIJBPCOD@ITEM_TYPE_WEAPON?$AA@	; `string'
PUBLIC	??_C@_0BC@PDFOCJLB@ITEM_TYPE_AUTOUSE?$AA@	; `string'
PUBLIC	??_C@_0O@EJGIJMHP@ITEM_TYPE_USE?$AA@		; `string'
PUBLIC	??_C@_0BC@EGCNCIAP@ITEM_TYPE_SPECIAL?$AA@	; `string'
PUBLIC	??_C@_0BD@NFIKPBKO@ITEM_TYPE_MATERIAL?$AA@	; `string'
PUBLIC	??_C@_0BC@LGJDJIG@ITEM_TYPE_LOTTERY?$AA@	; `string'
PUBLIC	??_C@_0P@LGAHEAHJ@ITEM_TYPE_TOOL?$AA@		; `string'
PUBLIC	??_C@_0BA@KICPPFNE@ITEM_TYPE_METIN?$AA@		; `string'
PUBLIC	??_C@_0O@JAIIACCD@ITEM_TYPE_ELK?$AA@		; `string'
PUBLIC	??_C@_0P@PIBMEEFH@ITEM_TYPE_FISH?$AA@		; `string'
PUBLIC	??_C@_0BE@JBBPDBJM@ITEM_TYPE_CONTAINER?$AA@	; `string'
PUBLIC	??_C@_0BD@KBPLAMLF@ITEM_TYPE_RESOURCE?$AA@	; `string'
PUBLIC	??_C@_0O@NIJIMPJD@ITEM_TYPE_ROD?$AA@		; `string'
PUBLIC	??_C@_0BB@CPEAMAMA@ITEM_TYPE_UNIQUE?$AA@	; `string'
PUBLIC	??_C@_0BD@OGNHPHCL@ITEM_TYPE_CAMPFIRE?$AA@	; `string'
PUBLIC	??_C@_0BA@PFOCEMDB@ITEM_TYPE_QUEST?$AA@		; `string'
PUBLIC	??_C@_0BE@FAMMFDKM@ITEM_TYPE_SKILLBOOK?$AA@	; `string'
PUBLIC	??_C@_0BH@MPEMDLLF@ITEM_TYPE_TREASURE_BOX?$AA@	; `string'
PUBLIC	??_C@_0BE@DGPJCLHG@ITEM_TYPE_POLYMORPH?$AA@	; `string'
PUBLIC	??_C@_0P@CALHNGMG@ITEM_TYPE_PICK?$AA@		; `string'
PUBLIC	??_C@_0BH@KGMIMAKI@ITEM_TYPE_TREASURE_KEY?$AA@	; `string'
PUBLIC	??_C@_0N@BKIJEOLO@ITEM_TYPE_DS?$AA@		; `string'
PUBLIC	??_C@_0BA@EDGMOLIF@ITEM_TYPE_BLEND?$AA@		; `string'
PUBLIC	??_C@_0P@POBKFJPJ@ITEM_TYPE_RING?$AA@		; `string'
PUBLIC	??_C@_0BF@GGLFIBNL@ITEM_TYPE_SPECIAL_DS?$AA@	; `string'
PUBLIC	??_C@_0BC@GOFIPFBN@ITEM_TYPE_COSTUME?$AA@	; `string'
PUBLIC	??_C@_0P@LGEHOEDP@ITEM_TYPE_BELT?$AA@		; `string'
PUBLIC	??_C@_0BC@MAPOOMBN@COSTUME_TYPE_HAIR?$AA@	; `string'
PUBLIC	??_C@_0BC@IBLNMJBH@COSTUME_TYPE_BODY?$AA@	; `string'
PUBLIC	??_C@_0BD@EMMBBFMO@COSTUME_SLOT_COUNT?$AA@	; `string'
PUBLIC	??_C@_0BD@JCGACLBK@COSTUME_SLOT_START?$AA@	; `string'
PUBLIC	??_C@_0BC@KAEHEEKH@COSTUME_SLOT_HAIR?$AA@	; `string'
PUBLIC	??_C@_0BC@OBAEGBKN@COSTUME_SLOT_BODY?$AA@	; `string'
PUBLIC	??_C@_0N@FCLCNMLC@WEAPON_SWORD?$AA@		; `string'
PUBLIC	??_C@_0BB@IEFLAOJF@COSTUME_SLOT_END?$AA@	; `string'
PUBLIC	??_C@_0L@KDNCAJJM@WEAPON_BOW?$AA@		; `string'
PUBLIC	??_C@_0O@IMDDJKDH@WEAPON_DAGGER?$AA@		; `string'
PUBLIC	??_C@_0M@NKBIKBJK@WEAPON_BELL?$AA@		; `string'
PUBLIC	??_C@_0BC@OILJBHHK@WEAPON_TWO_HANDED?$AA@	; `string'
PUBLIC	??_C@_0N@DCOAOKB@WEAPON_ARROW?$AA@		; `string'
PUBLIC	??_C@_0L@LNCOBKNJ@WEAPON_FAN?$AA@		; `string'
PUBLIC	??_C@_0L@DENJCCNI@USE_POTION?$AA@		; `string'
PUBLIC	??_C@_0BB@KFDFBDPL@WEAPON_NUM_TYPES?$AA@	; `string'
PUBLIC	??_C@_0L@JIILHJGL@USE_TUNING?$AA@		; `string'
PUBLIC	??_C@_0N@CINBPLKM@USE_TALISMAN?$AA@		; `string'
PUBLIC	??_C@_0BB@BBPDKOFG@USE_TREASURE_BOX?$AA@	; `string'
PUBLIC	??_C@_08JHFKMGGA@USE_MOVE?$AA@			; `string'
PUBLIC	??_C@_08LBHGOBNP@USE_BAIT?$AA@			; `string'
PUBLIC	??_C@_0N@BOHEHPFI@USE_MONEYBAG?$AA@		; `string'
PUBLIC	??_C@_0L@DLLOJMIP@USE_AFFECT?$AA@		; `string'
PUBLIC	??_C@_0P@JBLCKFGE@USE_ABILITY_UP?$AA@		; `string'
PUBLIC	??_C@_0M@GHOELJHH@USE_SPECIAL?$AA@		; `string'
PUBLIC	??_C@_0BB@PBBDNJH@USE_CREATE_STONE?$AA@		; `string'
PUBLIC	??_C@_09PNKHEPEF@USE_CLEAR?$AA@			; `string'
PUBLIC	??_C@_0BD@MMDEHJ@USE_POTION_NODELAY?$AA@	; `string'
PUBLIC	??_C@_0P@MKAMDACK@USE_DETACHMENT?$AA@		; `string'
PUBLIC	??_C@_0BB@NCIEFOD@USE_INVISIBILITY?$AA@		; `string'
PUBLIC	??_C@_0BE@FCIOINBF@USE_TIME_CHARGE_FIX?$AA@	; `string'
PUBLIC	??_C@_0BE@NEAJJELI@USE_TIME_CHARGE_PER?$AA@	; `string'
PUBLIC	??_C@_0BL@HNMOOIKG@MATERIAL_DS_REFINE_BLESSED?$AA@ ; `string'
PUBLIC	??_C@_0BK@FFJFCNLF@MATERIAL_DS_REFINE_NORMAL?$AA@ ; `string'
PUBLIC	??_C@_0N@HOHHHOFD@METIN_NORMAL?$AA@		; `string'
PUBLIC	??_C@_0BJ@KCHKGND@MATERIAL_DS_REFINE_HOLLY?$AA@	; `string'
PUBLIC	??_C@_0L@MKHGBGII@LIMIT_NONE?$AA@		; `string'
PUBLIC	??_C@_0L@MFIGJJDC@METIN_GOLD?$AA@		; `string'
PUBLIC	??_C@_09JOBFCJGA@LIMIT_STR?$AA@			; `string'
PUBLIC	??_C@_0M@CNLALLNH@LIMIT_LEVEL?$AA@		; `string'
PUBLIC	??_C@_09OGFKBPLL@LIMIT_INT?$AA@			; `string'
PUBLIC	??_C@_09LENAGHIL@LIMIT_DEX?$AA@			; `string'
PUBLIC	??_C@_0N@MIADEJNC@LIMIT_PCBANG?$AA@		; `string'
PUBLIC	??_C@_09DIAIGPDD@LIMIT_CON?$AA@			; `string'
PUBLIC	??_C@_0CA@KECNELOI@LIMIT_REAL_TIME_START_FIRST_USE?$AA@ ; `string'
PUBLIC	??_C@_0BA@FCJCAFPM@LIMIT_REAL_TIME?$AA@		; `string'
PUBLIC	??_C@_0BD@JIAJEJNL@LIMIT_TYPE_MAX_NUM?$AA@	; `string'
PUBLIC	??_C@_0BK@DKGMKHOA@LIMIT_TIMER_BASED_ON_WEAR?$AA@ ; `string'
PUBLIC	??_C@_0BF@DFHLBKDO@ITEM_ANTIFLAG_FEMALE?$AA@	; `string'
PUBLIC	??_C@_0O@DPNMMLCK@LIMIT_MAX_NUM?$AA@		; `string'
PUBLIC	??_C@_0BG@OCAOGEDJ@ITEM_ANTIFLAG_WARRIOR?$AA@	; `string'
PUBLIC	??_C@_0BD@DBFGLDPM@ITEM_ANTIFLAG_MALE?$AA@	; `string'
PUBLIC	??_C@_0BD@EDCJBBKJ@ITEM_ANTIFLAG_SURA?$AA@	; `string'
PUBLIC	??_C@_0BH@NDIALJFO@ITEM_ANTIFLAG_ASSASSIN?$AA@	; `string'
PUBLIC	??_C@_0BC@NECEHGFA@ITEM_ANTIFLAG_GET?$AA@	; `string'
PUBLIC	??_C@_0BF@NIAJKCKI@ITEM_ANTIFLAG_SHAMAN?$AA@	; `string'
PUBLIC	??_C@_0BD@LACGLGAB@ITEM_ANTIFLAG_SELL?$AA@	; `string'
PUBLIC	??_C@_0BD@ELBJHBLB@ITEM_ANTIFLAG_DROP?$AA@	; `string'
PUBLIC	??_C@_0BH@MGOKOCIG@ITEM_ANTIFLAG_EMPIRE_B?$AA@	; `string'
PUBLIC	??_C@_0BH@ONMHLBEF@ITEM_ANTIFLAG_EMPIRE_A?$AA@	; `string'
PUBLIC	??_C@_0BD@PPDHLMLJ@ITEM_ANTIFLAG_SAVE?$AA@	; `string'
PUBLIC	??_C@_0BH@IMCIPANH@ITEM_ANTIFLAG_EMPIRE_R?$AA@	; `string'
PUBLIC	??_C@_0BF@HBDABAPH@ITEM_ANTIFLAG_PKDROP?$AA@	; `string'
PUBLIC	??_C@_0BD@KPODKFBE@ITEM_ANTIFLAG_GIVE?$AA@	; `string'
PUBLIC	??_C@_0BF@NEEDLCAA@ITEM_ANTIFLAG_MYSHOP?$AA@	; `string'
PUBLIC	??_C@_0BE@MAIMKBDM@ITEM_ANTIFLAG_STACK?$AA@	; `string'
PUBLIC	??_C@_0BB@PGFIBJHK@ITEM_FLAG_UNIQUE?$AA@	; `string'
PUBLIC	??_C@_0P@POCGDPPH@ITEM_FLAG_RARE?$AA@		; `string'
PUBLIC	??_C@_0BA@PLOPKCNG@ANTIFLAG_FEMALE?$AA@		; `string'
PUBLIC	??_C@_0BL@IPKGPKMA@ITEM_FLAG_CONFIRM_WHEN_USE?$AA@ ; `string'
PUBLIC	??_C@_0BB@EMBBJKML@ANTIFLAG_WARRIOR?$AA@	; `string'
PUBLIC	??_C@_0O@GCOFJDKL@ANTIFLAG_MALE?$AA@		; `string'
PUBLIC	??_C@_0O@BAJKDBPO@ANTIFLAG_SURA?$AA@		; `string'
PUBLIC	??_C@_0BC@IAJNDFJA@ANTIFLAG_ASSASSIN?$AA@	; `string'
PUBLIC	??_C@_0N@NEJHBBKC@ANTIFLAG_GET?$AA@		; `string'
PUBLIC	??_C@_0BA@BGJNBKEA@ANTIFLAG_SHAMAN?$AA@		; `string'
PUBLIC	??_C@_0O@ODJFJGFG@ANTIFLAG_SELL?$AA@		; `string'
PUBLIC	??_C@_0O@BIKKFBOG@ANTIFLAG_DROP?$AA@		; `string'
PUBLIC	??_C@_0BC@JFPHGOEI@ANTIFLAG_EMPIRE_B?$AA@	; `string'
PUBLIC	??_C@_0BC@LONKDNIL@ANTIFLAG_EMPIRE_A?$AA@	; `string'
PUBLIC	??_C@_0O@KMIEJMOO@ANTIFLAG_SAVE?$AA@		; `string'
PUBLIC	??_C@_0BC@NPDFHMBJ@ANTIFLAG_EMPIRE_R?$AA@	; `string'
PUBLIC	??_C@_0BA@LPKEKIBP@ANTIFLAG_PKDROP?$AA@		; `string'
PUBLIC	??_C@_0O@PMFAIFED@ANTIFLAG_GIVE?$AA@		; `string'
PUBLIC	??_C@_0BA@BKNHAKOI@ANTIFLAG_MYSHOP?$AA@		; `string'
PUBLIC	??_C@_0P@DFNANGEL@ANTIFLAG_STACK?$AA@		; `string'
PUBLIC	??_C@_0O@HCPFPMJH@WEARABLE_HEAD?$AA@		; `string'
PUBLIC	??_C@_0O@KOFPKKKF@WEARABLE_BODY?$AA@		; `string'
PUBLIC	??_C@_0P@EMFDANIN@WEARABLE_WRIST?$AA@		; `string'
PUBLIC	??_C@_0P@HDMMFABO@WEARABLE_FOOTS?$AA@		; `string'
PUBLIC	??_C@_0O@HJKJMBJG@WEARABLE_NECK?$AA@		; `string'
PUBLIC	??_C@_0BA@NBNKFEIG@WEARABLE_WEAPON?$AA@		; `string'
PUBLIC	??_C@_0BA@FGALGGKF@WEARABLE_UNIQUE?$AA@		; `string'
PUBLIC	??_C@_0N@BHKGKGNM@WEARABLE_EAR?$AA@		; `string'
PUBLIC	??_C@_0P@CANFDFEC@WEARABLE_ARROW?$AA@		; `string'
PUBLIC	??_C@_0BA@DGBFNJPE@WEARABLE_SHIELD?$AA@		; `string'
PUBLIC	??_C@_0L@IJKJHOJF@ARMOR_HEAD?$AA@		; `string'
PUBLIC	??_C@_0L@FFADCIKH@ARMOR_BODY?$AA@		; `string'
PUBLIC	??_C@_0M@KCKGDACD@ARMOR_WRIST?$AA@		; `string'
PUBLIC	??_C@_0N@HJFKCCG@ARMOR_SHIELD?$AA@		; `string'
PUBLIC	??_C@_0L@ICPFEDJE@ARMOR_NECK?$AA@		; `string'
PUBLIC	??_C@_0M@JNDJGNLA@ARMOR_FOOTS?$AA@		; `string'
PUBLIC	??_C@_0BD@POBJPMPE@ITEM_APPLY_MAX_NUM?$AA@	; `string'
PUBLIC	??_C@_09JPGIMBID@ARMOR_EAR?$AA@			; `string'
PUBLIC	??_C@_0L@KOOBDLCP@APPLY_NONE?$AA@		; `string'
PUBLIC	??_C@_0BE@PABFDMOM@ITEM_SOCKET_MAX_NUM?$AA@	; `string'
PUBLIC	??_C@_09EIFFAAJC@APPLY_DEX?$AA@			; `string'
PUBLIC	??_C@_09GCJAEOHJ@APPLY_STR?$AA@			; `string'
PUBLIC	??_C@_09BKNPHIKC@APPLY_INT?$AA@			; `string'
PUBLIC	??_C@_09MEINAICK@APPLY_CON?$AA@			; `string'
PUBLIC	??_C@_0N@KMLABMCB@APPLY_MAX_SP?$AA@		; `string'
PUBLIC	??_C@_0N@LMMDFALA@APPLY_MAX_HP?$AA@		; `string'
PUBLIC	??_C@_0P@PHBEALO@APPLY_SP_REGEN?$AA@		; `string'
PUBLIC	??_C@_0P@CBOEJMBC@APPLY_HP_REGEN?$AA@		; `string'
PUBLIC	??_C@_0BG@DIKOCKN@APPLY_ATT_GRADE_BONUS?$AA@	; `string'
PUBLIC	??_C@_0BG@DJGIDNN@APPLY_DEF_GRADE_BONUS?$AA@	; `string'
PUBLIC	??_C@_0BA@IHFPGGCP@APPLY_MOV_SPEED?$AA@		; `string'
PUBLIC	??_C@_0BA@PBNDFNHA@APPLY_ATT_SPEED?$AA@		; `string'
PUBLIC	??_C@_0BG@JIJNNLOL@APPLY_MAGIC_ATT_GRADE?$AA@	; `string'
PUBLIC	??_C@_0BB@IMPHMAIN@APPLY_CAST_SPEED?$AA@	; `string'
PUBLIC	??_C@_0M@CPHNGINI@APPLY_SKILL?$AA@		; `string'
PUBLIC	??_C@_0BG@PLJBHAML@APPLY_MAGIC_DEF_GRADE?$AA@	; `string'
PUBLIC	??_C@_0BG@DEBBIBCN@APPLY_ATTBONUS_UNDEAD?$AA@	; `string'
PUBLIC	??_C@_0BG@FCHNFPKG@APPLY_ATTBONUS_ANIMAL?$AA@	; `string'
PUBLIC	??_C@_0BF@FLAIBIKP@APPLY_ATTBONUS_HUMAN?$AA@	; `string'
PUBLIC	??_C@_0BF@PHBHKMPC@APPLY_ATTBONUS_DEVIL?$AA@	; `string'
PUBLIC	??_C@_0BB@KEIAGOOG@APPLY_RESIST_BOW?$AA@	; `string'
PUBLIC	??_C@_0BD@DGLENODO@APPLY_BOW_DISTANCE?$AA@	; `string'
PUBLIC	??_C@_0BC@CNKONPAF@APPLY_RESIST_ELEC?$AA@	; `string'
PUBLIC	??_C@_0BC@BCODEHJE@APPLY_RESIST_FIRE?$AA@	; `string'
PUBLIC	??_C@_0BB@OFEPEABG@APPLY_POISON_PCT?$AA@	; `string'
PUBLIC	??_C@_0BD@BIEOENBH@APPLY_RESIST_MAGIC?$AA@	; `string'
PUBLIC	??_C@_0P@IGBLFIG@APPLY_STUN_PCT?$AA@		; `string'
PUBLIC	??_C@_0P@EAEIAPML@APPLY_SLOW_PCT?$AA@		; `string'
PUBLIC	??_C@_0BE@MIHOPHBF@APPLY_PENETRATE_PCT?$AA@	; `string'
PUBLIC	??_C@_0BD@DOHBCDEC@APPLY_CRITICAL_PCT?$AA@	; `string'
PUBLIC	??_C@_0BG@BGJNMLHF@APPLY_ATTBONUS_MILGYO?$AA@	; `string'
PUBLIC	??_C@_0BD@GHNBCFFK@APPLY_ATTBONUS_ORC?$AA@	; `string'
PUBLIC	??_C@_0P@JJIAAAON@APPLY_STEAL_SP?$AA@		; `string'
PUBLIC	??_C@_0P@IJPDEMHM@APPLY_STEAL_HP?$AA@		; `string'
PUBLIC	??_C@_0BI@CNPFJGMF@APPLY_DAMAGE_SP_RECOVER?$AA@	; `string'
PUBLIC	??_C@_0BE@MMJAOBJI@APPLY_MANA_BURN_PCT?$AA@	; `string'
PUBLIC	??_C@_0M@OLNDHAEO@APPLY_DODGE?$AA@		; `string'
PUBLIC	??_C@_0M@DEKBOLNA@APPLY_BLOCK?$AA@		; `string'
PUBLIC	??_C@_0BF@PPDPGLJM@APPLY_RESIST_TWOHAND?$AA@	; `string'
PUBLIC	??_C@_0BD@FELELOGH@APPLY_RESIST_SWORD?$AA@	; `string'
PUBLIC	??_C@_0BC@GKMPGLNP@APPLY_RESIST_BELL?$AA@	; `string'
PUBLIC	??_C@_0BE@HKIMLKAO@APPLY_RESIST_DAGGER?$AA@	; `string'
PUBLIC	??_C@_0BC@EDEEJCPD@APPLY_RESIST_WIND?$AA@	; `string'
PUBLIC	??_C@_0BB@LKHMHNKD@APPLY_RESIST_FAN?$AA@	; `string'
PUBLIC	??_C@_0BE@GIMFBPMF@APPLY_REFLECT_CURSE?$AA@	; `string'
PUBLIC	??_C@_0BE@JKECBGFJ@APPLY_REFLECT_MELEE?$AA@	; `string'
PUBLIC	??_C@_0BG@NAAMOKGC@APPLY_KILL_SP_RECOVER?$AA@	; `string'
PUBLIC	??_C@_0BE@CMJGNONM@APPLY_POISON_REDUCE?$AA@	; `string'
PUBLIC	??_C@_0BI@CPGCKKHM@APPLY_GOLD_DOUBLE_BONUS?$AA@	; `string'
PUBLIC	??_C@_0BH@BOFCHNGC@APPLY_EXP_DOUBLE_BONUS?$AA@	; `string'
PUBLIC	??_C@_0BD@HAABJCED@APPLY_POTION_BONUS?$AA@	; `string'
PUBLIC	??_C@_0BG@GJLPLNJK@APPLY_ITEM_DROP_BONUS?$AA@	; `string'
PUBLIC	??_C@_0BC@GMOGAEGD@APPLY_IMMUNE_STUN?$AA@	; `string'
PUBLIC	??_C@_0BG@FNNLKJON@APPLY_KILL_HP_RECOVER?$AA@	; `string'
PUBLIC	??_C@_0BC@ICOAEBEB@APPLY_IMMUNE_FALL?$AA@	; `string'
PUBLIC	??_C@_0BC@HDPKPEKN@APPLY_IMMUNE_SLOW?$AA@	; `string'
PUBLIC	??_C@_0BH@LHKFGIKM@APPLY_ATTBONUS_WARRIOR?$AA@	; `string'
PUBLIC	??_C@_0BC@MENAELHN@APPLY_MAX_STAMINA?$AA@	; `string'
PUBLIC	??_C@_0BE@EHJIJMPG@APPLY_ATTBONUS_SURA?$AA@	; `string'
PUBLIC	??_C@_0BI@FDLAHFJJ@APPLY_ATTBONUS_ASSASSIN?$AA@	; `string'
PUBLIC	??_C@_0BH@OMHBNPNG@APPLY_ATTBONUS_MONSTER?$AA@	; `string'
PUBLIC	??_C@_0BG@HGCDBIBP@APPLY_ATTBONUS_SHAMAN?$AA@	; `string'
PUBLIC	??_C@_0BE@IHABPMCM@APPLY_MALL_DEFBONUS?$AA@	; `string'
PUBLIC	??_C@_0BE@INMGAFDB@APPLY_MALL_ATTBONUS?$AA@	; `string'
PUBLIC	??_C@_0BF@JHCAFPEC@APPLY_MALL_ITEMBONUS?$AA@	; `string'
PUBLIC	??_C@_0BE@HDMKGFGB@APPLY_MALL_EXPBONUS?$AA@	; `string'
PUBLIC	??_C@_0BB@IOILOHHB@APPLY_MAX_HP_PCT?$AA@	; `string'
PUBLIC	??_C@_0BF@CNKLONKF@APPLY_MALL_GOLDBONUS?$AA@	; `string'
PUBLIC	??_C@_0BJ@ILJOEJMP@APPLY_SKILL_DAMAGE_BONUS?$AA@ ; `string'
PUBLIC	??_C@_0BB@OLFCCPEF@APPLY_MAX_SP_PCT?$AA@	; `string'
PUBLIC	??_C@_0BJ@MCFLODEL@APPLY_SKILL_DEFEND_BONUS?$AA@ ; `string'
PUBLIC	??_C@_0BO@KJDLNPKH@APPLY_NORMAL_HIT_DAMAGE_BONUS?$AA@ ; `string'
PUBLIC	??_C@_0BI@MMJMNMDE@APPLY_PC_BANG_EXP_BONUS?$AA@	; `string'
PUBLIC	??_C@_0BO@OAPOHFCD@APPLY_NORMAL_HIT_DEFEND_BONUS?$AA@ ; `string'
PUBLIC	??_C@_0BF@DIEIKMOC@APPLY_RESIST_WARRIOR?$AA@	; `string'
PUBLIC	??_C@_0BJ@MIHJNNLH@APPLY_PC_BANG_DROP_BONUS?$AA@ ; `string'
PUBLIC	??_C@_0BC@MEEAHCEF@APPLY_RESIST_SURA?$AA@	; `string'
PUBLIC	??_C@_0BG@MCFLPEMK@APPLY_RESIST_ASSASSIN?$AA@	; `string'
PUBLIC	??_C@_0N@MOPONLJI@APPLY_ENERGY?$AA@		; `string'
PUBLIC	??_C@_0BE@POHJKJMD@APPLY_RESIST_SHAMAN?$AA@	; `string'
PUBLIC	??_C@_0BJ@JJJKDKFC@APPLY_MAGIC_ATTBONUS_PER?$AA@ ; `string'
PUBLIC	??_C@_0BJ@IGOAELFN@APPLY_COSTUME_ATTR_BONUS?$AA@ ; `string'
PUBLIC	??_C@_0BB@CGPGAFA@APPLY_RESIST_ICE?$AA@		; `string'
PUBLIC	??_C@_0BP@MGKGKJGA@APPLY_MELEE_MAGIC_ATTBONUS_PER?$AA@ ; `string'
PUBLIC	??_C@_0BC@DDBEBBJF@APPLY_RESIST_DARK?$AA@	; `string'
PUBLIC	??_C@_0BD@GENAIBDP@APPLY_RESIST_EARTH?$AA@	; `string'
PUBLIC	??_C@_0BJ@FKDKMNNK@APPLY_ANTI_PENETRATE_PCT?$AA@ ; `string'
PUBLIC	??_C@_0BI@KIMFHHIO@APPLY_ANTI_CRITICAL_PCT?$AA@	; `string'
EXTRN	?GetUseTypeString@CItemData@@QBEPBDXZ:PROC	; CItemData::GetUseTypeString
EXTRN	?SetImagePointer@CGraphicImageInstance@@QAEXPAVCGraphicImage@@@Z:PROC ; CGraphicImageInstance::SetImagePointer
EXTRN	?New@CGraphicImageInstance@@SAPAV1@XZ:PROC	; CGraphicImageInstance::New
EXTRN	?IsEquipment@CItemData@@QBEHXZ:PROC		; CItemData::IsEquipment
EXTRN	?Delete@CGraphicImageInstance@@SAXPAV1@@Z:PROC	; CGraphicImageInstance::Delete
EXTRN	?GetApply@CItemData@@QBEHEPAUSItemApply@1@@Z:PROC ; CItemData::GetApply
EXTRN	?GetLimit@CItemData@@QBEHEPAUSItemLimit@1@@Z:PROC ; CItemData::GetLimit
EXTRN	?GetSocket@CItemData@@QBEJE@Z:PROC		; CItemData::GetSocket
EXTRN	?IsFlag@CItemData@@QBEHK@Z:PROC			; CItemData::IsFlag
EXTRN	?IsAntiFlag@CItemData@@QBEHK@Z:PROC		; CItemData::IsAntiFlag
EXTRN	?IsWearableFlag@CItemData@@QBEHK@Z:PROC		; CItemData::IsWearableFlag
EXTRN	?GetSize@CItemData@@QBEEXZ:PROC			; CItemData::GetSize
EXTRN	?GetIconImage@CItemData@@QAEPAVCGraphicSubImage@@XZ:PROC ; CItemData::GetIconImage
EXTRN	?GetISellItemPrice@CItemData@@QBEKXZ:PROC	; CItemData::GetISellItemPrice
EXTRN	?GetIBuyItemPrice@CItemData@@QBEKXZ:PROC	; CItemData::GetIBuyItemPrice
EXTRN	?GetSelectedItemDataPointer@CItemManager@@QAEPAVCItemData@@XZ:PROC ; CItemManager::GetSelectedItemDataPointer
EXTRN	?GetSummary@CItemData@@QBEPBDXZ:PROC		; CItemData::GetSummary
EXTRN	?GetDescription@CItemData@@QBEPBDXZ:PROC	; CItemData::GetDescription
EXTRN	?SelectItemData@CItemManager@@QAEHK@Z:PROC	; CItemManager::SelectItemData
;	COMDAT ?s_methods@?1??initItem@@YAXXZ@4PAUPyMethodDef@@A
_DATA	SEGMENT
?s_methods@?1??initItem@@YAXXZ@4PAUPyMethodDef@@A DD FLAT:??_C@_0BE@HKKEFMIC@SetUseSoundFileName?$AA@ ; `initItem'::`2'::s_methods
	DD	FLAT:?itemSetUseSoundFileName@@YAPAU_object@@PAU1@0@Z
	DD	01H
	ORG $+4
	DD	FLAT:??_C@_0BF@BODGENI@SetDropSoundFileName?$AA@
	DD	FLAT:?itemSetDropSoundFileName@@YAPAU_object@@PAU1@0@Z
	DD	01H
	ORG $+4
	DD	FLAT:??_C@_0L@GFKKOOBA@SelectItem?$AA@
	DD	FLAT:?itemSelectItem@@YAPAU_object@@PAU1@0@Z
	DD	01H
	ORG $+4
	DD	FLAT:??_C@_0M@BFODJMFI@GetItemName?$AA@
	DD	FLAT:?itemGetItemName@@YAPAU_object@@PAU1@0@Z
	DD	01H
	ORG $+4
	DD	FLAT:??_C@_0BD@GLEOJONA@GetItemDescription?$AA@
	DD	FLAT:?itemGetItemDescription@@YAPAU_object@@PAU1@0@Z
	DD	01H
	ORG $+4
	DD	FLAT:??_C@_0P@OIBFDAMI@GetItemSummary?$AA@
	DD	FLAT:?itemGetItemSummary@@YAPAU_object@@PAU1@0@Z
	DD	01H
	ORG $+4
	DD	FLAT:??_C@_0N@IEABDKDK@GetIconImage?$AA@
	DD	FLAT:?itemGetIconImage@@YAPAU_object@@PAU1@0@Z
	DD	01H
	ORG $+4
	DD	FLAT:??_C@_0BF@NNPLLIOE@GetIconImageFileName?$AA@
	DD	FLAT:?itemGetIconImageFileName@@YAPAU_object@@PAU1@0@Z
	DD	01H
	ORG $+4
	DD	FLAT:??_C@_0M@FBEOFCHB@GetItemSize?$AA@
	DD	FLAT:?itemGetItemSize@@YAPAU_object@@PAU1@0@Z
	DD	01H
	ORG $+4
	DD	FLAT:??_C@_0M@LOOAFMCI@GetItemType?$AA@
	DD	FLAT:?itemGetItemType@@YAPAU_object@@PAU1@0@Z
	DD	01H
	ORG $+4
	DD	FLAT:??_C@_0P@MFCMKOKJ@GetItemSubType?$AA@
	DD	FLAT:?itemGetItemSubType@@YAPAU_object@@PAU1@0@Z
	DD	01H
	ORG $+4
	DD	FLAT:??_C@_0BB@KJGHJKGD@GetIBuyItemPrice?$AA@
	DD	FLAT:?itemGetIBuyItemPrice@@YAPAU_object@@PAU1@0@Z
	DD	01H
	ORG $+4
	DD	FLAT:??_C@_0BC@OKNBBEMG@GetISellItemPrice?$AA@
	DD	FLAT:?itemGetISellItemPrice@@YAPAU_object@@PAU1@0@Z
	DD	01H
	ORG $+4
	DD	FLAT:??_C@_0L@NKLNOBKA@IsAntiFlag?$AA@
	DD	FLAT:?itemIsAntiFlag@@YAPAU_object@@PAU1@0@Z
	DD	01H
	ORG $+4
	DD	FLAT:??_C@_06PLFMNGGB@IsFlag?$AA@
	DD	FLAT:?itemIsFlag@@YAPAU_object@@PAU1@0@Z
	DD	01H
	ORG $+4
	DD	FLAT:??_C@_0P@KNFGADIE@IsWearableFlag?$AA@
	DD	FLAT:?itemIsWearableFlag@@YAPAU_object@@PAU1@0@Z
	DD	01H
	ORG $+4
	DD	FLAT:??_C@_0M@IKKLMPND@Is1GoldItem?$AA@
	DD	FLAT:?itemIs1GoldItem@@YAPAU_object@@PAU1@0@Z
	DD	01H
	ORG $+4
	DD	FLAT:??_C@_08KIIGDNA@GetLimit?$AA@
	DD	FLAT:?itemGetLimit@@YAPAU_object@@PAU1@0@Z
	DD	01H
	ORG $+4
	DD	FLAT:??_C@_09HJGEAOAM@GetAffect?$AA@
	DD	FLAT:?itemGetAffect@@YAPAU_object@@PAU1@0@Z
	DD	01H
	ORG $+4
	DD	FLAT:??_C@_08GGOMBHIN@GetValue?$AA@
	DD	FLAT:?itemGetValue@@YAPAU_object@@PAU1@0@Z
	DD	01H
	ORG $+4
	DD	FLAT:??_C@_09ICJIFGNC@GetSocket?$AA@
	DD	FLAT:?itemGetSocket@@YAPAU_object@@PAU1@0@Z
	DD	01H
	ORG $+4
	DD	FLAT:??_C@_0BA@PMLMLIHH@GetIconInstance?$AA@
	DD	FLAT:?itemGetIconInstance@@YAPAU_object@@PAU1@0@Z
	DD	01H
	ORG $+4
	DD	FLAT:??_C@_0L@POCKMHMA@GetUseType?$AA@
	DD	FLAT:?itemGetUseType@@YAPAU_object@@PAU1@0@Z
	DD	01H
	ORG $+4
	DD	FLAT:??_C@_0BD@BNBIIKMM@DeleteIconInstance?$AA@
	DD	FLAT:?itemDeleteIconInstance@@YAPAU_object@@PAU1@0@Z
	DD	01H
	ORG $+4
	DD	FLAT:??_C@_0P@OGDGGJFE@IsEquipmentVID?$AA@
	DD	FLAT:?itemIsEquipmentVID@@YAPAU_object@@PAU1@0@Z
	DD	01H
	ORG $+4
	DD	FLAT:??_C@_0P@LGDKNEFF@IsRefineScroll?$AA@
	DD	FLAT:?itemIsRefineScroll@@YAPAU_object@@PAU1@0@Z
	DD	01H
	ORG $+4
	DD	FLAT:??_C@_0P@CNNPGCCK@IsDetachScroll?$AA@
	DD	FLAT:?itemIsDetachScroll@@YAPAU_object@@PAU1@0@Z
	DD	01H
	ORG $+4
	DD	FLAT:??_C@_05CEOMILKP@IsKey?$AA@
	DD	FLAT:?itemIsKey@@YAPAU_object@@PAU1@0@Z
	DD	01H
	ORG $+4
	DD	FLAT:??_C@_07MLLOFDCE@IsMetin?$AA@
	DD	FLAT:?itemIsMetin@@YAPAU_object@@PAU1@0@Z
	DD	01H
	ORG $+4
	DD	FLAT:??_C@_0BG@FEGHIHDK@CanAddToQuickSlotItem?$AA@
	DD	FLAT:?itemCanAddToQuickSlotItem@@YAPAU_object@@PAU1@0@Z
	DD	01H
	ORG $+4
	DD	FLAT:??_C@_06LMAGPFNF@Update?$AA@
	DD	FLAT:?itemUpdate@@YAPAU_object@@PAU1@0@Z
	DD	01H
	ORG $+4
	DD	FLAT:??_C@_06EPLDPNDB@Render?$AA@
	DD	FLAT:?itemRender@@YAPAU_object@@PAU1@0@Z
	DD	01H
	ORG $+4
	DD	FLAT:??_C@_0L@EMDEHLJF@CreateItem?$AA@
	DD	FLAT:?itemCreateItem@@YAPAU_object@@PAU1@0@Z
	DD	01H
	ORG $+4
	DD	FLAT:??_C@_0L@IIJEEMCG@DeleteItem?$AA@
	DD	FLAT:?itemDeleteItem@@YAPAU_object@@PAU1@0@Z
	DD	01H
	ORG $+4
	DD	FLAT:??_C@_04ILHILILF@Pick?$AA@
	DD	FLAT:?itemPick@@YAPAU_object@@PAU1@0@Z
	DD	01H
	ORG $+4
	DD	FLAT:??_C@_0O@HJNOJBCJ@LoadItemTable?$AA@
	DD	FLAT:?itemLoadItemTable@@YAPAU_object@@PAU1@0@Z
	DD	01H
	ORG $+4
	DD	00H
	DD	00H
	DD	00H
	ORG $+4
_DATA	ENDS
;	COMDAT ??_C@_0BI@KIMFHHIO@APPLY_ANTI_CRITICAL_PCT?$AA@
CONST	SEGMENT
??_C@_0BI@KIMFHHIO@APPLY_ANTI_CRITICAL_PCT?$AA@ DB 'APPLY_ANTI_CRITICAL_P'
	DB	'CT', 00H					; `string'
CONST	ENDS
;	COMDAT ??_C@_0BJ@FKDKMNNK@APPLY_ANTI_PENETRATE_PCT?$AA@
CONST	SEGMENT
??_C@_0BJ@FKDKMNNK@APPLY_ANTI_PENETRATE_PCT?$AA@ DB 'APPLY_ANTI_PENETRATE'
	DB	'_PCT', 00H					; `string'
CONST	ENDS
;	COMDAT ??_C@_0BD@GENAIBDP@APPLY_RESIST_EARTH?$AA@
CONST	SEGMENT
??_C@_0BD@GENAIBDP@APPLY_RESIST_EARTH?$AA@ DB 'APPLY_RESIST_EARTH', 00H ; `string'
CONST	ENDS
;	COMDAT ??_C@_0BC@DDBEBBJF@APPLY_RESIST_DARK?$AA@
CONST	SEGMENT
??_C@_0BC@DDBEBBJF@APPLY_RESIST_DARK?$AA@ DB 'APPLY_RESIST_DARK', 00H ; `string'
CONST	ENDS
;	COMDAT ??_C@_0BP@MGKGKJGA@APPLY_MELEE_MAGIC_ATTBONUS_PER?$AA@
CONST	SEGMENT
??_C@_0BP@MGKGKJGA@APPLY_MELEE_MAGIC_ATTBONUS_PER?$AA@ DB 'APPLY_MELEE_MA'
	DB	'GIC_ATTBONUS_PER', 00H			; `string'
CONST	ENDS
;	COMDAT ??_C@_0BB@CGPGAFA@APPLY_RESIST_ICE?$AA@
CONST	SEGMENT
??_C@_0BB@CGPGAFA@APPLY_RESIST_ICE?$AA@ DB 'APPLY_RESIST_ICE', 00H ; `string'
CONST	ENDS
;	COMDAT ??_C@_0BJ@IGOAELFN@APPLY_COSTUME_ATTR_BONUS?$AA@
CONST	SEGMENT
??_C@_0BJ@IGOAELFN@APPLY_COSTUME_ATTR_BONUS?$AA@ DB 'APPLY_COSTUME_ATTR_B'
	DB	'ONUS', 00H					; `string'
CONST	ENDS
;	COMDAT ??_C@_0BJ@JJJKDKFC@APPLY_MAGIC_ATTBONUS_PER?$AA@
CONST	SEGMENT
??_C@_0BJ@JJJKDKFC@APPLY_MAGIC_ATTBONUS_PER?$AA@ DB 'APPLY_MAGIC_ATTBONUS'
	DB	'_PER', 00H					; `string'
CONST	ENDS
;	COMDAT ??_C@_0BE@POHJKJMD@APPLY_RESIST_SHAMAN?$AA@
CONST	SEGMENT
??_C@_0BE@POHJKJMD@APPLY_RESIST_SHAMAN?$AA@ DB 'APPLY_RESIST_SHAMAN', 00H ; `string'
CONST	ENDS
;	COMDAT ??_C@_0N@MOPONLJI@APPLY_ENERGY?$AA@
CONST	SEGMENT
??_C@_0N@MOPONLJI@APPLY_ENERGY?$AA@ DB 'APPLY_ENERGY', 00H ; `string'
CONST	ENDS
;	COMDAT ??_C@_0BG@MCFLPEMK@APPLY_RESIST_ASSASSIN?$AA@
CONST	SEGMENT
??_C@_0BG@MCFLPEMK@APPLY_RESIST_ASSASSIN?$AA@ DB 'APPLY_RESIST_ASSASSIN', 00H ; `string'
CONST	ENDS
;	COMDAT ??_C@_0BC@MEEAHCEF@APPLY_RESIST_SURA?$AA@
CONST	SEGMENT
??_C@_0BC@MEEAHCEF@APPLY_RESIST_SURA?$AA@ DB 'APPLY_RESIST_SURA', 00H ; `string'
CONST	ENDS
;	COMDAT ??_C@_0BJ@MIHJNNLH@APPLY_PC_BANG_DROP_BONUS?$AA@
CONST	SEGMENT
??_C@_0BJ@MIHJNNLH@APPLY_PC_BANG_DROP_BONUS?$AA@ DB 'APPLY_PC_BANG_DROP_B'
	DB	'ONUS', 00H					; `string'
CONST	ENDS
;	COMDAT ??_C@_0BF@DIEIKMOC@APPLY_RESIST_WARRIOR?$AA@
CONST	SEGMENT
??_C@_0BF@DIEIKMOC@APPLY_RESIST_WARRIOR?$AA@ DB 'APPLY_RESIST_WARRIOR', 00H ; `string'
CONST	ENDS
;	COMDAT ??_C@_0BO@OAPOHFCD@APPLY_NORMAL_HIT_DEFEND_BONUS?$AA@
CONST	SEGMENT
??_C@_0BO@OAPOHFCD@APPLY_NORMAL_HIT_DEFEND_BONUS?$AA@ DB 'APPLY_NORMAL_HI'
	DB	'T_DEFEND_BONUS', 00H			; `string'
CONST	ENDS
;	COMDAT ??_C@_0BI@MMJMNMDE@APPLY_PC_BANG_EXP_BONUS?$AA@
CONST	SEGMENT
??_C@_0BI@MMJMNMDE@APPLY_PC_BANG_EXP_BONUS?$AA@ DB 'APPLY_PC_BANG_EXP_BON'
	DB	'US', 00H					; `string'
CONST	ENDS
;	COMDAT ??_C@_0BO@KJDLNPKH@APPLY_NORMAL_HIT_DAMAGE_BONUS?$AA@
CONST	SEGMENT
??_C@_0BO@KJDLNPKH@APPLY_NORMAL_HIT_DAMAGE_BONUS?$AA@ DB 'APPLY_NORMAL_HI'
	DB	'T_DAMAGE_BONUS', 00H			; `string'
CONST	ENDS
;	COMDAT ??_C@_0BJ@MCFLODEL@APPLY_SKILL_DEFEND_BONUS?$AA@
CONST	SEGMENT
??_C@_0BJ@MCFLODEL@APPLY_SKILL_DEFEND_BONUS?$AA@ DB 'APPLY_SKILL_DEFEND_B'
	DB	'ONUS', 00H					; `string'
CONST	ENDS
;	COMDAT ??_C@_0BB@OLFCCPEF@APPLY_MAX_SP_PCT?$AA@
CONST	SEGMENT
??_C@_0BB@OLFCCPEF@APPLY_MAX_SP_PCT?$AA@ DB 'APPLY_MAX_SP_PCT', 00H ; `string'
CONST	ENDS
;	COMDAT ??_C@_0BJ@ILJOEJMP@APPLY_SKILL_DAMAGE_BONUS?$AA@
CONST	SEGMENT
??_C@_0BJ@ILJOEJMP@APPLY_SKILL_DAMAGE_BONUS?$AA@ DB 'APPLY_SKILL_DAMAGE_B'
	DB	'ONUS', 00H					; `string'
CONST	ENDS
;	COMDAT ??_C@_0BF@CNKLONKF@APPLY_MALL_GOLDBONUS?$AA@
CONST	SEGMENT
??_C@_0BF@CNKLONKF@APPLY_MALL_GOLDBONUS?$AA@ DB 'APPLY_MALL_GOLDBONUS', 00H ; `string'
CONST	ENDS
;	COMDAT ??_C@_0BB@IOILOHHB@APPLY_MAX_HP_PCT?$AA@
CONST	SEGMENT
??_C@_0BB@IOILOHHB@APPLY_MAX_HP_PCT?$AA@ DB 'APPLY_MAX_HP_PCT', 00H ; `string'
CONST	ENDS
;	COMDAT ??_C@_0BE@HDMKGFGB@APPLY_MALL_EXPBONUS?$AA@
CONST	SEGMENT
??_C@_0BE@HDMKGFGB@APPLY_MALL_EXPBONUS?$AA@ DB 'APPLY_MALL_EXPBONUS', 00H ; `string'
CONST	ENDS
;	COMDAT ??_C@_0BF@JHCAFPEC@APPLY_MALL_ITEMBONUS?$AA@
CONST	SEGMENT
??_C@_0BF@JHCAFPEC@APPLY_MALL_ITEMBONUS?$AA@ DB 'APPLY_MALL_ITEMBONUS', 00H ; `string'
CONST	ENDS
;	COMDAT ??_C@_0BE@INMGAFDB@APPLY_MALL_ATTBONUS?$AA@
CONST	SEGMENT
??_C@_0BE@INMGAFDB@APPLY_MALL_ATTBONUS?$AA@ DB 'APPLY_MALL_ATTBONUS', 00H ; `string'
CONST	ENDS
;	COMDAT ??_C@_0BE@IHABPMCM@APPLY_MALL_DEFBONUS?$AA@
CONST	SEGMENT
??_C@_0BE@IHABPMCM@APPLY_MALL_DEFBONUS?$AA@ DB 'APPLY_MALL_DEFBONUS', 00H ; `string'
CONST	ENDS
;	COMDAT ??_C@_0BG@HGCDBIBP@APPLY_ATTBONUS_SHAMAN?$AA@
CONST	SEGMENT
??_C@_0BG@HGCDBIBP@APPLY_ATTBONUS_SHAMAN?$AA@ DB 'APPLY_ATTBONUS_SHAMAN', 00H ; `string'
CONST	ENDS
;	COMDAT ??_C@_0BH@OMHBNPNG@APPLY_ATTBONUS_MONSTER?$AA@
CONST	SEGMENT
??_C@_0BH@OMHBNPNG@APPLY_ATTBONUS_MONSTER?$AA@ DB 'APPLY_ATTBONUS_MONSTER'
	DB	00H						; `string'
CONST	ENDS
;	COMDAT ??_C@_0BI@FDLAHFJJ@APPLY_ATTBONUS_ASSASSIN?$AA@
CONST	SEGMENT
??_C@_0BI@FDLAHFJJ@APPLY_ATTBONUS_ASSASSIN?$AA@ DB 'APPLY_ATTBONUS_ASSASS'
	DB	'IN', 00H					; `string'
CONST	ENDS
;	COMDAT ??_C@_0BE@EHJIJMPG@APPLY_ATTBONUS_SURA?$AA@
CONST	SEGMENT
??_C@_0BE@EHJIJMPG@APPLY_ATTBONUS_SURA?$AA@ DB 'APPLY_ATTBONUS_SURA', 00H ; `string'
CONST	ENDS
;	COMDAT ??_C@_0BC@MENAELHN@APPLY_MAX_STAMINA?$AA@
CONST	SEGMENT
??_C@_0BC@MENAELHN@APPLY_MAX_STAMINA?$AA@ DB 'APPLY_MAX_STAMINA', 00H ; `string'
CONST	ENDS
;	COMDAT ??_C@_0BH@LHKFGIKM@APPLY_ATTBONUS_WARRIOR?$AA@
CONST	SEGMENT
??_C@_0BH@LHKFGIKM@APPLY_ATTBONUS_WARRIOR?$AA@ DB 'APPLY_ATTBONUS_WARRIOR'
	DB	00H						; `string'
CONST	ENDS
;	COMDAT ??_C@_0BC@HDPKPEKN@APPLY_IMMUNE_SLOW?$AA@
CONST	SEGMENT
??_C@_0BC@HDPKPEKN@APPLY_IMMUNE_SLOW?$AA@ DB 'APPLY_IMMUNE_SLOW', 00H ; `string'
CONST	ENDS
;	COMDAT ??_C@_0BC@ICOAEBEB@APPLY_IMMUNE_FALL?$AA@
CONST	SEGMENT
??_C@_0BC@ICOAEBEB@APPLY_IMMUNE_FALL?$AA@ DB 'APPLY_IMMUNE_FALL', 00H ; `string'
CONST	ENDS
;	COMDAT ??_C@_0BG@FNNLKJON@APPLY_KILL_HP_RECOVER?$AA@
CONST	SEGMENT
??_C@_0BG@FNNLKJON@APPLY_KILL_HP_RECOVER?$AA@ DB 'APPLY_KILL_HP_RECOVER', 00H ; `string'
CONST	ENDS
;	COMDAT ??_C@_0BC@GMOGAEGD@APPLY_IMMUNE_STUN?$AA@
CONST	SEGMENT
??_C@_0BC@GMOGAEGD@APPLY_IMMUNE_STUN?$AA@ DB 'APPLY_IMMUNE_STUN', 00H ; `string'
CONST	ENDS
;	COMDAT ??_C@_0BG@GJLPLNJK@APPLY_ITEM_DROP_BONUS?$AA@
CONST	SEGMENT
??_C@_0BG@GJLPLNJK@APPLY_ITEM_DROP_BONUS?$AA@ DB 'APPLY_ITEM_DROP_BONUS', 00H ; `string'
CONST	ENDS
;	COMDAT ??_C@_0BD@HAABJCED@APPLY_POTION_BONUS?$AA@
CONST	SEGMENT
??_C@_0BD@HAABJCED@APPLY_POTION_BONUS?$AA@ DB 'APPLY_POTION_BONUS', 00H ; `string'
CONST	ENDS
;	COMDAT ??_C@_0BH@BOFCHNGC@APPLY_EXP_DOUBLE_BONUS?$AA@
CONST	SEGMENT
??_C@_0BH@BOFCHNGC@APPLY_EXP_DOUBLE_BONUS?$AA@ DB 'APPLY_EXP_DOUBLE_BONUS'
	DB	00H						; `string'
CONST	ENDS
;	COMDAT ??_C@_0BI@CPGCKKHM@APPLY_GOLD_DOUBLE_BONUS?$AA@
CONST	SEGMENT
??_C@_0BI@CPGCKKHM@APPLY_GOLD_DOUBLE_BONUS?$AA@ DB 'APPLY_GOLD_DOUBLE_BON'
	DB	'US', 00H					; `string'
CONST	ENDS
;	COMDAT ??_C@_0BE@CMJGNONM@APPLY_POISON_REDUCE?$AA@
CONST	SEGMENT
??_C@_0BE@CMJGNONM@APPLY_POISON_REDUCE?$AA@ DB 'APPLY_POISON_REDUCE', 00H ; `string'
CONST	ENDS
;	COMDAT ??_C@_0BG@NAAMOKGC@APPLY_KILL_SP_RECOVER?$AA@
CONST	SEGMENT
??_C@_0BG@NAAMOKGC@APPLY_KILL_SP_RECOVER?$AA@ DB 'APPLY_KILL_SP_RECOVER', 00H ; `string'
CONST	ENDS
;	COMDAT ??_C@_0BE@JKECBGFJ@APPLY_REFLECT_MELEE?$AA@
CONST	SEGMENT
??_C@_0BE@JKECBGFJ@APPLY_REFLECT_MELEE?$AA@ DB 'APPLY_REFLECT_MELEE', 00H ; `string'
CONST	ENDS
;	COMDAT ??_C@_0BE@GIMFBPMF@APPLY_REFLECT_CURSE?$AA@
CONST	SEGMENT
??_C@_0BE@GIMFBPMF@APPLY_REFLECT_CURSE?$AA@ DB 'APPLY_REFLECT_CURSE', 00H ; `string'
CONST	ENDS
;	COMDAT ??_C@_0BB@LKHMHNKD@APPLY_RESIST_FAN?$AA@
CONST	SEGMENT
??_C@_0BB@LKHMHNKD@APPLY_RESIST_FAN?$AA@ DB 'APPLY_RESIST_FAN', 00H ; `string'
CONST	ENDS
;	COMDAT ??_C@_0BC@EDEEJCPD@APPLY_RESIST_WIND?$AA@
CONST	SEGMENT
??_C@_0BC@EDEEJCPD@APPLY_RESIST_WIND?$AA@ DB 'APPLY_RESIST_WIND', 00H ; `string'
CONST	ENDS
;	COMDAT ??_C@_0BE@HKIMLKAO@APPLY_RESIST_DAGGER?$AA@
CONST	SEGMENT
??_C@_0BE@HKIMLKAO@APPLY_RESIST_DAGGER?$AA@ DB 'APPLY_RESIST_DAGGER', 00H ; `string'
CONST	ENDS
;	COMDAT ??_C@_0BC@GKMPGLNP@APPLY_RESIST_BELL?$AA@
CONST	SEGMENT
??_C@_0BC@GKMPGLNP@APPLY_RESIST_BELL?$AA@ DB 'APPLY_RESIST_BELL', 00H ; `string'
CONST	ENDS
;	COMDAT ??_C@_0BD@FELELOGH@APPLY_RESIST_SWORD?$AA@
CONST	SEGMENT
??_C@_0BD@FELELOGH@APPLY_RESIST_SWORD?$AA@ DB 'APPLY_RESIST_SWORD', 00H ; `string'
CONST	ENDS
;	COMDAT ??_C@_0BF@PPDPGLJM@APPLY_RESIST_TWOHAND?$AA@
CONST	SEGMENT
??_C@_0BF@PPDPGLJM@APPLY_RESIST_TWOHAND?$AA@ DB 'APPLY_RESIST_TWOHAND', 00H ; `string'
CONST	ENDS
;	COMDAT ??_C@_0M@DEKBOLNA@APPLY_BLOCK?$AA@
CONST	SEGMENT
??_C@_0M@DEKBOLNA@APPLY_BLOCK?$AA@ DB 'APPLY_BLOCK', 00H ; `string'
CONST	ENDS
;	COMDAT ??_C@_0M@OLNDHAEO@APPLY_DODGE?$AA@
CONST	SEGMENT
??_C@_0M@OLNDHAEO@APPLY_DODGE?$AA@ DB 'APPLY_DODGE', 00H ; `string'
CONST	ENDS
;	COMDAT ??_C@_0BE@MMJAOBJI@APPLY_MANA_BURN_PCT?$AA@
CONST	SEGMENT
??_C@_0BE@MMJAOBJI@APPLY_MANA_BURN_PCT?$AA@ DB 'APPLY_MANA_BURN_PCT', 00H ; `string'
CONST	ENDS
;	COMDAT ??_C@_0BI@CNPFJGMF@APPLY_DAMAGE_SP_RECOVER?$AA@
CONST	SEGMENT
??_C@_0BI@CNPFJGMF@APPLY_DAMAGE_SP_RECOVER?$AA@ DB 'APPLY_DAMAGE_SP_RECOV'
	DB	'ER', 00H					; `string'
CONST	ENDS
;	COMDAT ??_C@_0P@IJPDEMHM@APPLY_STEAL_HP?$AA@
CONST	SEGMENT
??_C@_0P@IJPDEMHM@APPLY_STEAL_HP?$AA@ DB 'APPLY_STEAL_HP', 00H ; `string'
CONST	ENDS
;	COMDAT ??_C@_0P@JJIAAAON@APPLY_STEAL_SP?$AA@
CONST	SEGMENT
??_C@_0P@JJIAAAON@APPLY_STEAL_SP?$AA@ DB 'APPLY_STEAL_SP', 00H ; `string'
CONST	ENDS
;	COMDAT ??_C@_0BD@GHNBCFFK@APPLY_ATTBONUS_ORC?$AA@
CONST	SEGMENT
??_C@_0BD@GHNBCFFK@APPLY_ATTBONUS_ORC?$AA@ DB 'APPLY_ATTBONUS_ORC', 00H ; `string'
CONST	ENDS
;	COMDAT ??_C@_0BG@BGJNMLHF@APPLY_ATTBONUS_MILGYO?$AA@
CONST	SEGMENT
??_C@_0BG@BGJNMLHF@APPLY_ATTBONUS_MILGYO?$AA@ DB 'APPLY_ATTBONUS_MILGYO', 00H ; `string'
CONST	ENDS
;	COMDAT ??_C@_0BD@DOHBCDEC@APPLY_CRITICAL_PCT?$AA@
CONST	SEGMENT
??_C@_0BD@DOHBCDEC@APPLY_CRITICAL_PCT?$AA@ DB 'APPLY_CRITICAL_PCT', 00H ; `string'
CONST	ENDS
;	COMDAT ??_C@_0BE@MIHOPHBF@APPLY_PENETRATE_PCT?$AA@
CONST	SEGMENT
??_C@_0BE@MIHOPHBF@APPLY_PENETRATE_PCT?$AA@ DB 'APPLY_PENETRATE_PCT', 00H ; `string'
CONST	ENDS
;	COMDAT ??_C@_0P@EAEIAPML@APPLY_SLOW_PCT?$AA@
CONST	SEGMENT
??_C@_0P@EAEIAPML@APPLY_SLOW_PCT?$AA@ DB 'APPLY_SLOW_PCT', 00H ; `string'
CONST	ENDS
;	COMDAT ??_C@_0P@IGBLFIG@APPLY_STUN_PCT?$AA@
CONST	SEGMENT
??_C@_0P@IGBLFIG@APPLY_STUN_PCT?$AA@ DB 'APPLY_STUN_PCT', 00H ; `string'
CONST	ENDS
;	COMDAT ??_C@_0BD@BIEOENBH@APPLY_RESIST_MAGIC?$AA@
CONST	SEGMENT
??_C@_0BD@BIEOENBH@APPLY_RESIST_MAGIC?$AA@ DB 'APPLY_RESIST_MAGIC', 00H ; `string'
CONST	ENDS
;	COMDAT ??_C@_0BB@OFEPEABG@APPLY_POISON_PCT?$AA@
CONST	SEGMENT
??_C@_0BB@OFEPEABG@APPLY_POISON_PCT?$AA@ DB 'APPLY_POISON_PCT', 00H ; `string'
CONST	ENDS
;	COMDAT ??_C@_0BC@BCODEHJE@APPLY_RESIST_FIRE?$AA@
CONST	SEGMENT
??_C@_0BC@BCODEHJE@APPLY_RESIST_FIRE?$AA@ DB 'APPLY_RESIST_FIRE', 00H ; `string'
CONST	ENDS
;	COMDAT ??_C@_0BC@CNKONPAF@APPLY_RESIST_ELEC?$AA@
CONST	SEGMENT
??_C@_0BC@CNKONPAF@APPLY_RESIST_ELEC?$AA@ DB 'APPLY_RESIST_ELEC', 00H ; `string'
CONST	ENDS
;	COMDAT ??_C@_0BD@DGLENODO@APPLY_BOW_DISTANCE?$AA@
CONST	SEGMENT
??_C@_0BD@DGLENODO@APPLY_BOW_DISTANCE?$AA@ DB 'APPLY_BOW_DISTANCE', 00H ; `string'
CONST	ENDS
;	COMDAT ??_C@_0BB@KEIAGOOG@APPLY_RESIST_BOW?$AA@
CONST	SEGMENT
??_C@_0BB@KEIAGOOG@APPLY_RESIST_BOW?$AA@ DB 'APPLY_RESIST_BOW', 00H ; `string'
CONST	ENDS
;	COMDAT ??_C@_0BF@PHBHKMPC@APPLY_ATTBONUS_DEVIL?$AA@
CONST	SEGMENT
??_C@_0BF@PHBHKMPC@APPLY_ATTBONUS_DEVIL?$AA@ DB 'APPLY_ATTBONUS_DEVIL', 00H ; `string'
CONST	ENDS
;	COMDAT ??_C@_0BF@FLAIBIKP@APPLY_ATTBONUS_HUMAN?$AA@
CONST	SEGMENT
??_C@_0BF@FLAIBIKP@APPLY_ATTBONUS_HUMAN?$AA@ DB 'APPLY_ATTBONUS_HUMAN', 00H ; `string'
CONST	ENDS
;	COMDAT ??_C@_0BG@FCHNFPKG@APPLY_ATTBONUS_ANIMAL?$AA@
CONST	SEGMENT
??_C@_0BG@FCHNFPKG@APPLY_ATTBONUS_ANIMAL?$AA@ DB 'APPLY_ATTBONUS_ANIMAL', 00H ; `string'
CONST	ENDS
;	COMDAT ??_C@_0BG@DEBBIBCN@APPLY_ATTBONUS_UNDEAD?$AA@
CONST	SEGMENT
??_C@_0BG@DEBBIBCN@APPLY_ATTBONUS_UNDEAD?$AA@ DB 'APPLY_ATTBONUS_UNDEAD', 00H ; `string'
CONST	ENDS
;	COMDAT ??_C@_0BG@PLJBHAML@APPLY_MAGIC_DEF_GRADE?$AA@
CONST	SEGMENT
??_C@_0BG@PLJBHAML@APPLY_MAGIC_DEF_GRADE?$AA@ DB 'APPLY_MAGIC_DEF_GRADE', 00H ; `string'
CONST	ENDS
;	COMDAT ??_C@_0M@CPHNGINI@APPLY_SKILL?$AA@
CONST	SEGMENT
??_C@_0M@CPHNGINI@APPLY_SKILL?$AA@ DB 'APPLY_SKILL', 00H ; `string'
CONST	ENDS
;	COMDAT ??_C@_0BB@IMPHMAIN@APPLY_CAST_SPEED?$AA@
CONST	SEGMENT
??_C@_0BB@IMPHMAIN@APPLY_CAST_SPEED?$AA@ DB 'APPLY_CAST_SPEED', 00H ; `string'
CONST	ENDS
;	COMDAT ??_C@_0BG@JIJNNLOL@APPLY_MAGIC_ATT_GRADE?$AA@
CONST	SEGMENT
??_C@_0BG@JIJNNLOL@APPLY_MAGIC_ATT_GRADE?$AA@ DB 'APPLY_MAGIC_ATT_GRADE', 00H ; `string'
CONST	ENDS
;	COMDAT ??_C@_0BA@PBNDFNHA@APPLY_ATT_SPEED?$AA@
CONST	SEGMENT
??_C@_0BA@PBNDFNHA@APPLY_ATT_SPEED?$AA@ DB 'APPLY_ATT_SPEED', 00H ; `string'
CONST	ENDS
;	COMDAT ??_C@_0BA@IHFPGGCP@APPLY_MOV_SPEED?$AA@
CONST	SEGMENT
??_C@_0BA@IHFPGGCP@APPLY_MOV_SPEED?$AA@ DB 'APPLY_MOV_SPEED', 00H ; `string'
CONST	ENDS
;	COMDAT ??_C@_0BG@DJGIDNN@APPLY_DEF_GRADE_BONUS?$AA@
CONST	SEGMENT
??_C@_0BG@DJGIDNN@APPLY_DEF_GRADE_BONUS?$AA@ DB 'APPLY_DEF_GRADE_BONUS', 00H ; `string'
CONST	ENDS
;	COMDAT ??_C@_0BG@DIKOCKN@APPLY_ATT_GRADE_BONUS?$AA@
CONST	SEGMENT
??_C@_0BG@DIKOCKN@APPLY_ATT_GRADE_BONUS?$AA@ DB 'APPLY_ATT_GRADE_BONUS', 00H ; `string'
CONST	ENDS
;	COMDAT ??_C@_0P@CBOEJMBC@APPLY_HP_REGEN?$AA@
CONST	SEGMENT
??_C@_0P@CBOEJMBC@APPLY_HP_REGEN?$AA@ DB 'APPLY_HP_REGEN', 00H ; `string'
CONST	ENDS
;	COMDAT ??_C@_0P@PHBEALO@APPLY_SP_REGEN?$AA@
CONST	SEGMENT
??_C@_0P@PHBEALO@APPLY_SP_REGEN?$AA@ DB 'APPLY_SP_REGEN', 00H ; `string'
CONST	ENDS
;	COMDAT ??_C@_0N@LMMDFALA@APPLY_MAX_HP?$AA@
CONST	SEGMENT
??_C@_0N@LMMDFALA@APPLY_MAX_HP?$AA@ DB 'APPLY_MAX_HP', 00H ; `string'
CONST	ENDS
;	COMDAT ??_C@_0N@KMLABMCB@APPLY_MAX_SP?$AA@
CONST	SEGMENT
??_C@_0N@KMLABMCB@APPLY_MAX_SP?$AA@ DB 'APPLY_MAX_SP', 00H ; `string'
CONST	ENDS
;	COMDAT ??_C@_09MEINAICK@APPLY_CON?$AA@
CONST	SEGMENT
??_C@_09MEINAICK@APPLY_CON?$AA@ DB 'APPLY_CON', 00H	; `string'
CONST	ENDS
;	COMDAT ??_C@_09BKNPHIKC@APPLY_INT?$AA@
CONST	SEGMENT
??_C@_09BKNPHIKC@APPLY_INT?$AA@ DB 'APPLY_INT', 00H	; `string'
CONST	ENDS
;	COMDAT ??_C@_09GCJAEOHJ@APPLY_STR?$AA@
CONST	SEGMENT
??_C@_09GCJAEOHJ@APPLY_STR?$AA@ DB 'APPLY_STR', 00H	; `string'
CONST	ENDS
;	COMDAT ??_C@_09EIFFAAJC@APPLY_DEX?$AA@
CONST	SEGMENT
??_C@_09EIFFAAJC@APPLY_DEX?$AA@ DB 'APPLY_DEX', 00H	; `string'
CONST	ENDS
;	COMDAT ??_C@_0BE@PABFDMOM@ITEM_SOCKET_MAX_NUM?$AA@
CONST	SEGMENT
??_C@_0BE@PABFDMOM@ITEM_SOCKET_MAX_NUM?$AA@ DB 'ITEM_SOCKET_MAX_NUM', 00H ; `string'
CONST	ENDS
;	COMDAT ??_C@_0L@KOOBDLCP@APPLY_NONE?$AA@
CONST	SEGMENT
??_C@_0L@KOOBDLCP@APPLY_NONE?$AA@ DB 'APPLY_NONE', 00H	; `string'
CONST	ENDS
;	COMDAT ??_C@_09JPGIMBID@ARMOR_EAR?$AA@
CONST	SEGMENT
??_C@_09JPGIMBID@ARMOR_EAR?$AA@ DB 'ARMOR_EAR', 00H	; `string'
CONST	ENDS
;	COMDAT ??_C@_0BD@POBJPMPE@ITEM_APPLY_MAX_NUM?$AA@
CONST	SEGMENT
??_C@_0BD@POBJPMPE@ITEM_APPLY_MAX_NUM?$AA@ DB 'ITEM_APPLY_MAX_NUM', 00H ; `string'
CONST	ENDS
;	COMDAT ??_C@_0M@JNDJGNLA@ARMOR_FOOTS?$AA@
CONST	SEGMENT
??_C@_0M@JNDJGNLA@ARMOR_FOOTS?$AA@ DB 'ARMOR_FOOTS', 00H ; `string'
CONST	ENDS
;	COMDAT ??_C@_0L@ICPFEDJE@ARMOR_NECK?$AA@
CONST	SEGMENT
??_C@_0L@ICPFEDJE@ARMOR_NECK?$AA@ DB 'ARMOR_NECK', 00H	; `string'
CONST	ENDS
;	COMDAT ??_C@_0N@HJFKCCG@ARMOR_SHIELD?$AA@
CONST	SEGMENT
??_C@_0N@HJFKCCG@ARMOR_SHIELD?$AA@ DB 'ARMOR_SHIELD', 00H ; `string'
CONST	ENDS
;	COMDAT ??_C@_0M@KCKGDACD@ARMOR_WRIST?$AA@
CONST	SEGMENT
??_C@_0M@KCKGDACD@ARMOR_WRIST?$AA@ DB 'ARMOR_WRIST', 00H ; `string'
CONST	ENDS
;	COMDAT ??_C@_0L@FFADCIKH@ARMOR_BODY?$AA@
CONST	SEGMENT
??_C@_0L@FFADCIKH@ARMOR_BODY?$AA@ DB 'ARMOR_BODY', 00H	; `string'
CONST	ENDS
;	COMDAT ??_C@_0L@IJKJHOJF@ARMOR_HEAD?$AA@
CONST	SEGMENT
??_C@_0L@IJKJHOJF@ARMOR_HEAD?$AA@ DB 'ARMOR_HEAD', 00H	; `string'
CONST	ENDS
;	COMDAT ??_C@_0BA@DGBFNJPE@WEARABLE_SHIELD?$AA@
CONST	SEGMENT
??_C@_0BA@DGBFNJPE@WEARABLE_SHIELD?$AA@ DB 'WEARABLE_SHIELD', 00H ; `string'
CONST	ENDS
;	COMDAT ??_C@_0P@CANFDFEC@WEARABLE_ARROW?$AA@
CONST	SEGMENT
??_C@_0P@CANFDFEC@WEARABLE_ARROW?$AA@ DB 'WEARABLE_ARROW', 00H ; `string'
CONST	ENDS
;	COMDAT ??_C@_0N@BHKGKGNM@WEARABLE_EAR?$AA@
CONST	SEGMENT
??_C@_0N@BHKGKGNM@WEARABLE_EAR?$AA@ DB 'WEARABLE_EAR', 00H ; `string'
CONST	ENDS
;	COMDAT ??_C@_0BA@FGALGGKF@WEARABLE_UNIQUE?$AA@
CONST	SEGMENT
??_C@_0BA@FGALGGKF@WEARABLE_UNIQUE?$AA@ DB 'WEARABLE_UNIQUE', 00H ; `string'
CONST	ENDS
;	COMDAT ??_C@_0BA@NBNKFEIG@WEARABLE_WEAPON?$AA@
CONST	SEGMENT
??_C@_0BA@NBNKFEIG@WEARABLE_WEAPON?$AA@ DB 'WEARABLE_WEAPON', 00H ; `string'
CONST	ENDS
;	COMDAT ??_C@_0O@HJKJMBJG@WEARABLE_NECK?$AA@
CONST	SEGMENT
??_C@_0O@HJKJMBJG@WEARABLE_NECK?$AA@ DB 'WEARABLE_NECK', 00H ; `string'
CONST	ENDS
;	COMDAT ??_C@_0P@HDMMFABO@WEARABLE_FOOTS?$AA@
CONST	SEGMENT
??_C@_0P@HDMMFABO@WEARABLE_FOOTS?$AA@ DB 'WEARABLE_FOOTS', 00H ; `string'
CONST	ENDS
;	COMDAT ??_C@_0P@EMFDANIN@WEARABLE_WRIST?$AA@
CONST	SEGMENT
??_C@_0P@EMFDANIN@WEARABLE_WRIST?$AA@ DB 'WEARABLE_WRIST', 00H ; `string'
CONST	ENDS
;	COMDAT ??_C@_0O@KOFPKKKF@WEARABLE_BODY?$AA@
CONST	SEGMENT
??_C@_0O@KOFPKKKF@WEARABLE_BODY?$AA@ DB 'WEARABLE_BODY', 00H ; `string'
CONST	ENDS
;	COMDAT ??_C@_0O@HCPFPMJH@WEARABLE_HEAD?$AA@
CONST	SEGMENT
??_C@_0O@HCPFPMJH@WEARABLE_HEAD?$AA@ DB 'WEARABLE_HEAD', 00H ; `string'
CONST	ENDS
;	COMDAT ??_C@_0P@DFNANGEL@ANTIFLAG_STACK?$AA@
CONST	SEGMENT
??_C@_0P@DFNANGEL@ANTIFLAG_STACK?$AA@ DB 'ANTIFLAG_STACK', 00H ; `string'
CONST	ENDS
;	COMDAT ??_C@_0BA@BKNHAKOI@ANTIFLAG_MYSHOP?$AA@
CONST	SEGMENT
??_C@_0BA@BKNHAKOI@ANTIFLAG_MYSHOP?$AA@ DB 'ANTIFLAG_MYSHOP', 00H ; `string'
CONST	ENDS
;	COMDAT ??_C@_0O@PMFAIFED@ANTIFLAG_GIVE?$AA@
CONST	SEGMENT
??_C@_0O@PMFAIFED@ANTIFLAG_GIVE?$AA@ DB 'ANTIFLAG_GIVE', 00H ; `string'
CONST	ENDS
;	COMDAT ??_C@_0BA@LPKEKIBP@ANTIFLAG_PKDROP?$AA@
CONST	SEGMENT
??_C@_0BA@LPKEKIBP@ANTIFLAG_PKDROP?$AA@ DB 'ANTIFLAG_PKDROP', 00H ; `string'
CONST	ENDS
;	COMDAT ??_C@_0BC@NPDFHMBJ@ANTIFLAG_EMPIRE_R?$AA@
CONST	SEGMENT
??_C@_0BC@NPDFHMBJ@ANTIFLAG_EMPIRE_R?$AA@ DB 'ANTIFLAG_EMPIRE_R', 00H ; `string'
CONST	ENDS
;	COMDAT ??_C@_0O@KMIEJMOO@ANTIFLAG_SAVE?$AA@
CONST	SEGMENT
??_C@_0O@KMIEJMOO@ANTIFLAG_SAVE?$AA@ DB 'ANTIFLAG_SAVE', 00H ; `string'
CONST	ENDS
;	COMDAT ??_C@_0BC@LONKDNIL@ANTIFLAG_EMPIRE_A?$AA@
CONST	SEGMENT
??_C@_0BC@LONKDNIL@ANTIFLAG_EMPIRE_A?$AA@ DB 'ANTIFLAG_EMPIRE_A', 00H ; `string'
CONST	ENDS
;	COMDAT ??_C@_0BC@JFPHGOEI@ANTIFLAG_EMPIRE_B?$AA@
CONST	SEGMENT
??_C@_0BC@JFPHGOEI@ANTIFLAG_EMPIRE_B?$AA@ DB 'ANTIFLAG_EMPIRE_B', 00H ; `string'
CONST	ENDS
;	COMDAT ??_C@_0O@BIKKFBOG@ANTIFLAG_DROP?$AA@
CONST	SEGMENT
??_C@_0O@BIKKFBOG@ANTIFLAG_DROP?$AA@ DB 'ANTIFLAG_DROP', 00H ; `string'
CONST	ENDS
;	COMDAT ??_C@_0O@ODJFJGFG@ANTIFLAG_SELL?$AA@
CONST	SEGMENT
??_C@_0O@ODJFJGFG@ANTIFLAG_SELL?$AA@ DB 'ANTIFLAG_SELL', 00H ; `string'
CONST	ENDS
;	COMDAT ??_C@_0BA@BGJNBKEA@ANTIFLAG_SHAMAN?$AA@
CONST	SEGMENT
??_C@_0BA@BGJNBKEA@ANTIFLAG_SHAMAN?$AA@ DB 'ANTIFLAG_SHAMAN', 00H ; `string'
CONST	ENDS
;	COMDAT ??_C@_0N@NEJHBBKC@ANTIFLAG_GET?$AA@
CONST	SEGMENT
??_C@_0N@NEJHBBKC@ANTIFLAG_GET?$AA@ DB 'ANTIFLAG_GET', 00H ; `string'
CONST	ENDS
;	COMDAT ??_C@_0BC@IAJNDFJA@ANTIFLAG_ASSASSIN?$AA@
CONST	SEGMENT
??_C@_0BC@IAJNDFJA@ANTIFLAG_ASSASSIN?$AA@ DB 'ANTIFLAG_ASSASSIN', 00H ; `string'
CONST	ENDS
;	COMDAT ??_C@_0O@BAJKDBPO@ANTIFLAG_SURA?$AA@
CONST	SEGMENT
??_C@_0O@BAJKDBPO@ANTIFLAG_SURA?$AA@ DB 'ANTIFLAG_SURA', 00H ; `string'
CONST	ENDS
;	COMDAT ??_C@_0O@GCOFJDKL@ANTIFLAG_MALE?$AA@
CONST	SEGMENT
??_C@_0O@GCOFJDKL@ANTIFLAG_MALE?$AA@ DB 'ANTIFLAG_MALE', 00H ; `string'
CONST	ENDS
;	COMDAT ??_C@_0BB@EMBBJKML@ANTIFLAG_WARRIOR?$AA@
CONST	SEGMENT
??_C@_0BB@EMBBJKML@ANTIFLAG_WARRIOR?$AA@ DB 'ANTIFLAG_WARRIOR', 00H ; `string'
CONST	ENDS
;	COMDAT ??_C@_0BL@IPKGPKMA@ITEM_FLAG_CONFIRM_WHEN_USE?$AA@
CONST	SEGMENT
??_C@_0BL@IPKGPKMA@ITEM_FLAG_CONFIRM_WHEN_USE?$AA@ DB 'ITEM_FLAG_CONFIRM_'
	DB	'WHEN_USE', 00H				; `string'
CONST	ENDS
;	COMDAT ??_C@_0BA@PLOPKCNG@ANTIFLAG_FEMALE?$AA@
CONST	SEGMENT
??_C@_0BA@PLOPKCNG@ANTIFLAG_FEMALE?$AA@ DB 'ANTIFLAG_FEMALE', 00H ; `string'
CONST	ENDS
;	COMDAT ??_C@_0P@POCGDPPH@ITEM_FLAG_RARE?$AA@
CONST	SEGMENT
??_C@_0P@POCGDPPH@ITEM_FLAG_RARE?$AA@ DB 'ITEM_FLAG_RARE', 00H ; `string'
CONST	ENDS
;	COMDAT ??_C@_0BB@PGFIBJHK@ITEM_FLAG_UNIQUE?$AA@
CONST	SEGMENT
??_C@_0BB@PGFIBJHK@ITEM_FLAG_UNIQUE?$AA@ DB 'ITEM_FLAG_UNIQUE', 00H ; `string'
CONST	ENDS
;	COMDAT ??_C@_0BE@MAIMKBDM@ITEM_ANTIFLAG_STACK?$AA@
CONST	SEGMENT
??_C@_0BE@MAIMKBDM@ITEM_ANTIFLAG_STACK?$AA@ DB 'ITEM_ANTIFLAG_STACK', 00H ; `string'
CONST	ENDS
;	COMDAT ??_C@_0BF@NEEDLCAA@ITEM_ANTIFLAG_MYSHOP?$AA@
CONST	SEGMENT
??_C@_0BF@NEEDLCAA@ITEM_ANTIFLAG_MYSHOP?$AA@ DB 'ITEM_ANTIFLAG_MYSHOP', 00H ; `string'
CONST	ENDS
;	COMDAT ??_C@_0BD@KPODKFBE@ITEM_ANTIFLAG_GIVE?$AA@
CONST	SEGMENT
??_C@_0BD@KPODKFBE@ITEM_ANTIFLAG_GIVE?$AA@ DB 'ITEM_ANTIFLAG_GIVE', 00H ; `string'
CONST	ENDS
;	COMDAT ??_C@_0BF@HBDABAPH@ITEM_ANTIFLAG_PKDROP?$AA@
CONST	SEGMENT
??_C@_0BF@HBDABAPH@ITEM_ANTIFLAG_PKDROP?$AA@ DB 'ITEM_ANTIFLAG_PKDROP', 00H ; `string'
CONST	ENDS
;	COMDAT ??_C@_0BH@IMCIPANH@ITEM_ANTIFLAG_EMPIRE_R?$AA@
CONST	SEGMENT
??_C@_0BH@IMCIPANH@ITEM_ANTIFLAG_EMPIRE_R?$AA@ DB 'ITEM_ANTIFLAG_EMPIRE_R'
	DB	00H						; `string'
CONST	ENDS
;	COMDAT ??_C@_0BD@PPDHLMLJ@ITEM_ANTIFLAG_SAVE?$AA@
CONST	SEGMENT
??_C@_0BD@PPDHLMLJ@ITEM_ANTIFLAG_SAVE?$AA@ DB 'ITEM_ANTIFLAG_SAVE', 00H ; `string'
CONST	ENDS
;	COMDAT ??_C@_0BH@ONMHLBEF@ITEM_ANTIFLAG_EMPIRE_A?$AA@
CONST	SEGMENT
??_C@_0BH@ONMHLBEF@ITEM_ANTIFLAG_EMPIRE_A?$AA@ DB 'ITEM_ANTIFLAG_EMPIRE_A'
	DB	00H						; `string'
CONST	ENDS
;	COMDAT ??_C@_0BH@MGOKOCIG@ITEM_ANTIFLAG_EMPIRE_B?$AA@
CONST	SEGMENT
??_C@_0BH@MGOKOCIG@ITEM_ANTIFLAG_EMPIRE_B?$AA@ DB 'ITEM_ANTIFLAG_EMPIRE_B'
	DB	00H						; `string'
CONST	ENDS
;	COMDAT ??_C@_0BD@ELBJHBLB@ITEM_ANTIFLAG_DROP?$AA@
CONST	SEGMENT
??_C@_0BD@ELBJHBLB@ITEM_ANTIFLAG_DROP?$AA@ DB 'ITEM_ANTIFLAG_DROP', 00H ; `string'
CONST	ENDS
;	COMDAT ??_C@_0BD@LACGLGAB@ITEM_ANTIFLAG_SELL?$AA@
CONST	SEGMENT
??_C@_0BD@LACGLGAB@ITEM_ANTIFLAG_SELL?$AA@ DB 'ITEM_ANTIFLAG_SELL', 00H ; `string'
CONST	ENDS
;	COMDAT ??_C@_0BF@NIAJKCKI@ITEM_ANTIFLAG_SHAMAN?$AA@
CONST	SEGMENT
??_C@_0BF@NIAJKCKI@ITEM_ANTIFLAG_SHAMAN?$AA@ DB 'ITEM_ANTIFLAG_SHAMAN', 00H ; `string'
CONST	ENDS
;	COMDAT ??_C@_0BC@NECEHGFA@ITEM_ANTIFLAG_GET?$AA@
CONST	SEGMENT
??_C@_0BC@NECEHGFA@ITEM_ANTIFLAG_GET?$AA@ DB 'ITEM_ANTIFLAG_GET', 00H ; `string'
CONST	ENDS
;	COMDAT ??_C@_0BH@NDIALJFO@ITEM_ANTIFLAG_ASSASSIN?$AA@
CONST	SEGMENT
??_C@_0BH@NDIALJFO@ITEM_ANTIFLAG_ASSASSIN?$AA@ DB 'ITEM_ANTIFLAG_ASSASSIN'
	DB	00H						; `string'
CONST	ENDS
;	COMDAT ??_C@_0BD@EDCJBBKJ@ITEM_ANTIFLAG_SURA?$AA@
CONST	SEGMENT
??_C@_0BD@EDCJBBKJ@ITEM_ANTIFLAG_SURA?$AA@ DB 'ITEM_ANTIFLAG_SURA', 00H ; `string'
CONST	ENDS
;	COMDAT ??_C@_0BD@DBFGLDPM@ITEM_ANTIFLAG_MALE?$AA@
CONST	SEGMENT
??_C@_0BD@DBFGLDPM@ITEM_ANTIFLAG_MALE?$AA@ DB 'ITEM_ANTIFLAG_MALE', 00H ; `string'
CONST	ENDS
;	COMDAT ??_C@_0BG@OCAOGEDJ@ITEM_ANTIFLAG_WARRIOR?$AA@
CONST	SEGMENT
??_C@_0BG@OCAOGEDJ@ITEM_ANTIFLAG_WARRIOR?$AA@ DB 'ITEM_ANTIFLAG_WARRIOR', 00H ; `string'
CONST	ENDS
;	COMDAT ??_C@_0O@DPNMMLCK@LIMIT_MAX_NUM?$AA@
CONST	SEGMENT
??_C@_0O@DPNMMLCK@LIMIT_MAX_NUM?$AA@ DB 'LIMIT_MAX_NUM', 00H ; `string'
CONST	ENDS
;	COMDAT ??_C@_0BF@DFHLBKDO@ITEM_ANTIFLAG_FEMALE?$AA@
CONST	SEGMENT
??_C@_0BF@DFHLBKDO@ITEM_ANTIFLAG_FEMALE?$AA@ DB 'ITEM_ANTIFLAG_FEMALE', 00H ; `string'
CONST	ENDS
;	COMDAT ??_C@_0BK@DKGMKHOA@LIMIT_TIMER_BASED_ON_WEAR?$AA@
CONST	SEGMENT
??_C@_0BK@DKGMKHOA@LIMIT_TIMER_BASED_ON_WEAR?$AA@ DB 'LIMIT_TIMER_BASED_O'
	DB	'N_WEAR', 00H				; `string'
CONST	ENDS
;	COMDAT ??_C@_0BD@JIAJEJNL@LIMIT_TYPE_MAX_NUM?$AA@
CONST	SEGMENT
??_C@_0BD@JIAJEJNL@LIMIT_TYPE_MAX_NUM?$AA@ DB 'LIMIT_TYPE_MAX_NUM', 00H ; `string'
CONST	ENDS
;	COMDAT ??_C@_0BA@FCJCAFPM@LIMIT_REAL_TIME?$AA@
CONST	SEGMENT
??_C@_0BA@FCJCAFPM@LIMIT_REAL_TIME?$AA@ DB 'LIMIT_REAL_TIME', 00H ; `string'
CONST	ENDS
;	COMDAT ??_C@_0CA@KECNELOI@LIMIT_REAL_TIME_START_FIRST_USE?$AA@
CONST	SEGMENT
??_C@_0CA@KECNELOI@LIMIT_REAL_TIME_START_FIRST_USE?$AA@ DB 'LIMIT_REAL_TI'
	DB	'ME_START_FIRST_USE', 00H			; `string'
CONST	ENDS
;	COMDAT ??_C@_09DIAIGPDD@LIMIT_CON?$AA@
CONST	SEGMENT
??_C@_09DIAIGPDD@LIMIT_CON?$AA@ DB 'LIMIT_CON', 00H	; `string'
CONST	ENDS
;	COMDAT ??_C@_0N@MIADEJNC@LIMIT_PCBANG?$AA@
CONST	SEGMENT
??_C@_0N@MIADEJNC@LIMIT_PCBANG?$AA@ DB 'LIMIT_PCBANG', 00H ; `string'
CONST	ENDS
;	COMDAT ??_C@_09LENAGHIL@LIMIT_DEX?$AA@
CONST	SEGMENT
??_C@_09LENAGHIL@LIMIT_DEX?$AA@ DB 'LIMIT_DEX', 00H	; `string'
CONST	ENDS
;	COMDAT ??_C@_09OGFKBPLL@LIMIT_INT?$AA@
CONST	SEGMENT
??_C@_09OGFKBPLL@LIMIT_INT?$AA@ DB 'LIMIT_INT', 00H	; `string'
CONST	ENDS
;	COMDAT ??_C@_0M@CNLALLNH@LIMIT_LEVEL?$AA@
CONST	SEGMENT
??_C@_0M@CNLALLNH@LIMIT_LEVEL?$AA@ DB 'LIMIT_LEVEL', 00H ; `string'
CONST	ENDS
;	COMDAT ??_C@_09JOBFCJGA@LIMIT_STR?$AA@
CONST	SEGMENT
??_C@_09JOBFCJGA@LIMIT_STR?$AA@ DB 'LIMIT_STR', 00H	; `string'
CONST	ENDS
;	COMDAT ??_C@_0L@MFIGJJDC@METIN_GOLD?$AA@
CONST	SEGMENT
??_C@_0L@MFIGJJDC@METIN_GOLD?$AA@ DB 'METIN_GOLD', 00H	; `string'
CONST	ENDS
;	COMDAT ??_C@_0L@MKHGBGII@LIMIT_NONE?$AA@
CONST	SEGMENT
??_C@_0L@MKHGBGII@LIMIT_NONE?$AA@ DB 'LIMIT_NONE', 00H	; `string'
CONST	ENDS
;	COMDAT ??_C@_0BJ@KCHKGND@MATERIAL_DS_REFINE_HOLLY?$AA@
CONST	SEGMENT
??_C@_0BJ@KCHKGND@MATERIAL_DS_REFINE_HOLLY?$AA@ DB 'MATERIAL_DS_REFINE_HO'
	DB	'LLY', 00H					; `string'
CONST	ENDS
;	COMDAT ??_C@_0N@HOHHHOFD@METIN_NORMAL?$AA@
CONST	SEGMENT
??_C@_0N@HOHHHOFD@METIN_NORMAL?$AA@ DB 'METIN_NORMAL', 00H ; `string'
CONST	ENDS
;	COMDAT ??_C@_0BK@FFJFCNLF@MATERIAL_DS_REFINE_NORMAL?$AA@
CONST	SEGMENT
??_C@_0BK@FFJFCNLF@MATERIAL_DS_REFINE_NORMAL?$AA@ DB 'MATERIAL_DS_REFINE_'
	DB	'NORMAL', 00H				; `string'
CONST	ENDS
;	COMDAT ??_C@_0BL@HNMOOIKG@MATERIAL_DS_REFINE_BLESSED?$AA@
CONST	SEGMENT
??_C@_0BL@HNMOOIKG@MATERIAL_DS_REFINE_BLESSED?$AA@ DB 'MATERIAL_DS_REFINE'
	DB	'_BLESSED', 00H				; `string'
CONST	ENDS
;	COMDAT ??_C@_0BE@NEAJJELI@USE_TIME_CHARGE_PER?$AA@
CONST	SEGMENT
??_C@_0BE@NEAJJELI@USE_TIME_CHARGE_PER?$AA@ DB 'USE_TIME_CHARGE_PER', 00H ; `string'
CONST	ENDS
;	COMDAT ??_C@_0BE@FCIOINBF@USE_TIME_CHARGE_FIX?$AA@
CONST	SEGMENT
??_C@_0BE@FCIOINBF@USE_TIME_CHARGE_FIX?$AA@ DB 'USE_TIME_CHARGE_FIX', 00H ; `string'
CONST	ENDS
;	COMDAT ??_C@_0BB@NCIEFOD@USE_INVISIBILITY?$AA@
CONST	SEGMENT
??_C@_0BB@NCIEFOD@USE_INVISIBILITY?$AA@ DB 'USE_INVISIBILITY', 00H ; `string'
CONST	ENDS
;	COMDAT ??_C@_0P@MKAMDACK@USE_DETACHMENT?$AA@
CONST	SEGMENT
??_C@_0P@MKAMDACK@USE_DETACHMENT?$AA@ DB 'USE_DETACHMENT', 00H ; `string'
CONST	ENDS
;	COMDAT ??_C@_0BD@MMDEHJ@USE_POTION_NODELAY?$AA@
CONST	SEGMENT
??_C@_0BD@MMDEHJ@USE_POTION_NODELAY?$AA@ DB 'USE_POTION_NODELAY', 00H ; `string'
CONST	ENDS
;	COMDAT ??_C@_09PNKHEPEF@USE_CLEAR?$AA@
CONST	SEGMENT
??_C@_09PNKHEPEF@USE_CLEAR?$AA@ DB 'USE_CLEAR', 00H	; `string'
CONST	ENDS
;	COMDAT ??_C@_0BB@PBBDNJH@USE_CREATE_STONE?$AA@
CONST	SEGMENT
??_C@_0BB@PBBDNJH@USE_CREATE_STONE?$AA@ DB 'USE_CREATE_STONE', 00H ; `string'
CONST	ENDS
;	COMDAT ??_C@_0M@GHOELJHH@USE_SPECIAL?$AA@
CONST	SEGMENT
??_C@_0M@GHOELJHH@USE_SPECIAL?$AA@ DB 'USE_SPECIAL', 00H ; `string'
CONST	ENDS
;	COMDAT ??_C@_0P@JBLCKFGE@USE_ABILITY_UP?$AA@
CONST	SEGMENT
??_C@_0P@JBLCKFGE@USE_ABILITY_UP?$AA@ DB 'USE_ABILITY_UP', 00H ; `string'
CONST	ENDS
;	COMDAT ??_C@_0L@DLLOJMIP@USE_AFFECT?$AA@
CONST	SEGMENT
??_C@_0L@DLLOJMIP@USE_AFFECT?$AA@ DB 'USE_AFFECT', 00H	; `string'
CONST	ENDS
;	COMDAT ??_C@_0N@BOHEHPFI@USE_MONEYBAG?$AA@
CONST	SEGMENT
??_C@_0N@BOHEHPFI@USE_MONEYBAG?$AA@ DB 'USE_MONEYBAG', 00H ; `string'
CONST	ENDS
;	COMDAT ??_C@_08LBHGOBNP@USE_BAIT?$AA@
CONST	SEGMENT
??_C@_08LBHGOBNP@USE_BAIT?$AA@ DB 'USE_BAIT', 00H	; `string'
CONST	ENDS
;	COMDAT ??_C@_08JHFKMGGA@USE_MOVE?$AA@
CONST	SEGMENT
??_C@_08JHFKMGGA@USE_MOVE?$AA@ DB 'USE_MOVE', 00H	; `string'
CONST	ENDS
;	COMDAT ??_C@_0BB@BBPDKOFG@USE_TREASURE_BOX?$AA@
CONST	SEGMENT
??_C@_0BB@BBPDKOFG@USE_TREASURE_BOX?$AA@ DB 'USE_TREASURE_BOX', 00H ; `string'
CONST	ENDS
;	COMDAT ??_C@_0N@CINBPLKM@USE_TALISMAN?$AA@
CONST	SEGMENT
??_C@_0N@CINBPLKM@USE_TALISMAN?$AA@ DB 'USE_TALISMAN', 00H ; `string'
CONST	ENDS
;	COMDAT ??_C@_0L@JIILHJGL@USE_TUNING?$AA@
CONST	SEGMENT
??_C@_0L@JIILHJGL@USE_TUNING?$AA@ DB 'USE_TUNING', 00H	; `string'
CONST	ENDS
;	COMDAT ??_C@_0BB@KFDFBDPL@WEAPON_NUM_TYPES?$AA@
CONST	SEGMENT
??_C@_0BB@KFDFBDPL@WEAPON_NUM_TYPES?$AA@ DB 'WEAPON_NUM_TYPES', 00H ; `string'
CONST	ENDS
;	COMDAT ??_C@_0L@DENJCCNI@USE_POTION?$AA@
CONST	SEGMENT
??_C@_0L@DENJCCNI@USE_POTION?$AA@ DB 'USE_POTION', 00H	; `string'
CONST	ENDS
;	COMDAT ??_C@_0L@LNCOBKNJ@WEAPON_FAN?$AA@
CONST	SEGMENT
??_C@_0L@LNCOBKNJ@WEAPON_FAN?$AA@ DB 'WEAPON_FAN', 00H	; `string'
CONST	ENDS
;	COMDAT ??_C@_0N@DCOAOKB@WEAPON_ARROW?$AA@
CONST	SEGMENT
??_C@_0N@DCOAOKB@WEAPON_ARROW?$AA@ DB 'WEAPON_ARROW', 00H ; `string'
CONST	ENDS
;	COMDAT ??_C@_0BC@OILJBHHK@WEAPON_TWO_HANDED?$AA@
CONST	SEGMENT
??_C@_0BC@OILJBHHK@WEAPON_TWO_HANDED?$AA@ DB 'WEAPON_TWO_HANDED', 00H ; `string'
CONST	ENDS
;	COMDAT ??_C@_0M@NKBIKBJK@WEAPON_BELL?$AA@
CONST	SEGMENT
??_C@_0M@NKBIKBJK@WEAPON_BELL?$AA@ DB 'WEAPON_BELL', 00H ; `string'
CONST	ENDS
;	COMDAT ??_C@_0O@IMDDJKDH@WEAPON_DAGGER?$AA@
CONST	SEGMENT
??_C@_0O@IMDDJKDH@WEAPON_DAGGER?$AA@ DB 'WEAPON_DAGGER', 00H ; `string'
CONST	ENDS
;	COMDAT ??_C@_0L@KDNCAJJM@WEAPON_BOW?$AA@
CONST	SEGMENT
??_C@_0L@KDNCAJJM@WEAPON_BOW?$AA@ DB 'WEAPON_BOW', 00H	; `string'
CONST	ENDS
;	COMDAT ??_C@_0BB@IEFLAOJF@COSTUME_SLOT_END?$AA@
CONST	SEGMENT
??_C@_0BB@IEFLAOJF@COSTUME_SLOT_END?$AA@ DB 'COSTUME_SLOT_END', 00H ; `string'
CONST	ENDS
;	COMDAT ??_C@_0N@FCLCNMLC@WEAPON_SWORD?$AA@
CONST	SEGMENT
??_C@_0N@FCLCNMLC@WEAPON_SWORD?$AA@ DB 'WEAPON_SWORD', 00H ; `string'
CONST	ENDS
;	COMDAT ??_C@_0BC@OBAEGBKN@COSTUME_SLOT_BODY?$AA@
CONST	SEGMENT
??_C@_0BC@OBAEGBKN@COSTUME_SLOT_BODY?$AA@ DB 'COSTUME_SLOT_BODY', 00H ; `string'
CONST	ENDS
;	COMDAT ??_C@_0BC@KAEHEEKH@COSTUME_SLOT_HAIR?$AA@
CONST	SEGMENT
??_C@_0BC@KAEHEEKH@COSTUME_SLOT_HAIR?$AA@ DB 'COSTUME_SLOT_HAIR', 00H ; `string'
CONST	ENDS
;	COMDAT ??_C@_0BD@JCGACLBK@COSTUME_SLOT_START?$AA@
CONST	SEGMENT
??_C@_0BD@JCGACLBK@COSTUME_SLOT_START?$AA@ DB 'COSTUME_SLOT_START', 00H ; `string'
CONST	ENDS
;	COMDAT ??_C@_0BD@EMMBBFMO@COSTUME_SLOT_COUNT?$AA@
CONST	SEGMENT
??_C@_0BD@EMMBBFMO@COSTUME_SLOT_COUNT?$AA@ DB 'COSTUME_SLOT_COUNT', 00H ; `string'
CONST	ENDS
;	COMDAT ??_C@_0BC@IBLNMJBH@COSTUME_TYPE_BODY?$AA@
CONST	SEGMENT
??_C@_0BC@IBLNMJBH@COSTUME_TYPE_BODY?$AA@ DB 'COSTUME_TYPE_BODY', 00H ; `string'
CONST	ENDS
;	COMDAT ??_C@_0BC@MAPOOMBN@COSTUME_TYPE_HAIR?$AA@
CONST	SEGMENT
??_C@_0BC@MAPOOMBN@COSTUME_TYPE_HAIR?$AA@ DB 'COSTUME_TYPE_HAIR', 00H ; `string'
CONST	ENDS
;	COMDAT ??_C@_0P@LGEHOEDP@ITEM_TYPE_BELT?$AA@
CONST	SEGMENT
??_C@_0P@LGEHOEDP@ITEM_TYPE_BELT?$AA@ DB 'ITEM_TYPE_BELT', 00H ; `string'
CONST	ENDS
;	COMDAT ??_C@_0BC@GOFIPFBN@ITEM_TYPE_COSTUME?$AA@
CONST	SEGMENT
??_C@_0BC@GOFIPFBN@ITEM_TYPE_COSTUME?$AA@ DB 'ITEM_TYPE_COSTUME', 00H ; `string'
CONST	ENDS
;	COMDAT ??_C@_0BF@GGLFIBNL@ITEM_TYPE_SPECIAL_DS?$AA@
CONST	SEGMENT
??_C@_0BF@GGLFIBNL@ITEM_TYPE_SPECIAL_DS?$AA@ DB 'ITEM_TYPE_SPECIAL_DS', 00H ; `string'
CONST	ENDS
;	COMDAT ??_C@_0P@POBKFJPJ@ITEM_TYPE_RING?$AA@
CONST	SEGMENT
??_C@_0P@POBKFJPJ@ITEM_TYPE_RING?$AA@ DB 'ITEM_TYPE_RING', 00H ; `string'
CONST	ENDS
;	COMDAT ??_C@_0BA@EDGMOLIF@ITEM_TYPE_BLEND?$AA@
CONST	SEGMENT
??_C@_0BA@EDGMOLIF@ITEM_TYPE_BLEND?$AA@ DB 'ITEM_TYPE_BLEND', 00H ; `string'
CONST	ENDS
;	COMDAT ??_C@_0N@BKIJEOLO@ITEM_TYPE_DS?$AA@
CONST	SEGMENT
??_C@_0N@BKIJEOLO@ITEM_TYPE_DS?$AA@ DB 'ITEM_TYPE_DS', 00H ; `string'
CONST	ENDS
;	COMDAT ??_C@_0BH@KGMIMAKI@ITEM_TYPE_TREASURE_KEY?$AA@
CONST	SEGMENT
??_C@_0BH@KGMIMAKI@ITEM_TYPE_TREASURE_KEY?$AA@ DB 'ITEM_TYPE_TREASURE_KEY'
	DB	00H						; `string'
CONST	ENDS
;	COMDAT ??_C@_0P@CALHNGMG@ITEM_TYPE_PICK?$AA@
CONST	SEGMENT
??_C@_0P@CALHNGMG@ITEM_TYPE_PICK?$AA@ DB 'ITEM_TYPE_PICK', 00H ; `string'
CONST	ENDS
;	COMDAT ??_C@_0BE@DGPJCLHG@ITEM_TYPE_POLYMORPH?$AA@
CONST	SEGMENT
??_C@_0BE@DGPJCLHG@ITEM_TYPE_POLYMORPH?$AA@ DB 'ITEM_TYPE_POLYMORPH', 00H ; `string'
CONST	ENDS
;	COMDAT ??_C@_0BH@MPEMDLLF@ITEM_TYPE_TREASURE_BOX?$AA@
CONST	SEGMENT
??_C@_0BH@MPEMDLLF@ITEM_TYPE_TREASURE_BOX?$AA@ DB 'ITEM_TYPE_TREASURE_BOX'
	DB	00H						; `string'
CONST	ENDS
;	COMDAT ??_C@_0BE@FAMMFDKM@ITEM_TYPE_SKILLBOOK?$AA@
CONST	SEGMENT
??_C@_0BE@FAMMFDKM@ITEM_TYPE_SKILLBOOK?$AA@ DB 'ITEM_TYPE_SKILLBOOK', 00H ; `string'
CONST	ENDS
;	COMDAT ??_C@_0BA@PFOCEMDB@ITEM_TYPE_QUEST?$AA@
CONST	SEGMENT
??_C@_0BA@PFOCEMDB@ITEM_TYPE_QUEST?$AA@ DB 'ITEM_TYPE_QUEST', 00H ; `string'
CONST	ENDS
;	COMDAT ??_C@_0BD@OGNHPHCL@ITEM_TYPE_CAMPFIRE?$AA@
CONST	SEGMENT
??_C@_0BD@OGNHPHCL@ITEM_TYPE_CAMPFIRE?$AA@ DB 'ITEM_TYPE_CAMPFIRE', 00H ; `string'
CONST	ENDS
;	COMDAT ??_C@_0BB@CPEAMAMA@ITEM_TYPE_UNIQUE?$AA@
CONST	SEGMENT
??_C@_0BB@CPEAMAMA@ITEM_TYPE_UNIQUE?$AA@ DB 'ITEM_TYPE_UNIQUE', 00H ; `string'
CONST	ENDS
;	COMDAT ??_C@_0O@NIJIMPJD@ITEM_TYPE_ROD?$AA@
CONST	SEGMENT
??_C@_0O@NIJIMPJD@ITEM_TYPE_ROD?$AA@ DB 'ITEM_TYPE_ROD', 00H ; `string'
CONST	ENDS
;	COMDAT ??_C@_0BD@KBPLAMLF@ITEM_TYPE_RESOURCE?$AA@
CONST	SEGMENT
??_C@_0BD@KBPLAMLF@ITEM_TYPE_RESOURCE?$AA@ DB 'ITEM_TYPE_RESOURCE', 00H ; `string'
CONST	ENDS
;	COMDAT ??_C@_0BE@JBBPDBJM@ITEM_TYPE_CONTAINER?$AA@
CONST	SEGMENT
??_C@_0BE@JBBPDBJM@ITEM_TYPE_CONTAINER?$AA@ DB 'ITEM_TYPE_CONTAINER', 00H ; `string'
CONST	ENDS
;	COMDAT ??_C@_0P@PIBMEEFH@ITEM_TYPE_FISH?$AA@
CONST	SEGMENT
??_C@_0P@PIBMEEFH@ITEM_TYPE_FISH?$AA@ DB 'ITEM_TYPE_FISH', 00H ; `string'
CONST	ENDS
;	COMDAT ??_C@_0O@JAIIACCD@ITEM_TYPE_ELK?$AA@
CONST	SEGMENT
??_C@_0O@JAIIACCD@ITEM_TYPE_ELK?$AA@ DB 'ITEM_TYPE_ELK', 00H ; `string'
CONST	ENDS
;	COMDAT ??_C@_0BA@KICPPFNE@ITEM_TYPE_METIN?$AA@
CONST	SEGMENT
??_C@_0BA@KICPPFNE@ITEM_TYPE_METIN?$AA@ DB 'ITEM_TYPE_METIN', 00H ; `string'
CONST	ENDS
;	COMDAT ??_C@_0P@LGAHEAHJ@ITEM_TYPE_TOOL?$AA@
CONST	SEGMENT
??_C@_0P@LGAHEAHJ@ITEM_TYPE_TOOL?$AA@ DB 'ITEM_TYPE_TOOL', 00H ; `string'
CONST	ENDS
;	COMDAT ??_C@_0BC@LGJDJIG@ITEM_TYPE_LOTTERY?$AA@
CONST	SEGMENT
??_C@_0BC@LGJDJIG@ITEM_TYPE_LOTTERY?$AA@ DB 'ITEM_TYPE_LOTTERY', 00H ; `string'
CONST	ENDS
;	COMDAT ??_C@_0BD@NFIKPBKO@ITEM_TYPE_MATERIAL?$AA@
CONST	SEGMENT
??_C@_0BD@NFIKPBKO@ITEM_TYPE_MATERIAL?$AA@ DB 'ITEM_TYPE_MATERIAL', 00H ; `string'
CONST	ENDS
;	COMDAT ??_C@_0BC@EGCNCIAP@ITEM_TYPE_SPECIAL?$AA@
CONST	SEGMENT
??_C@_0BC@EGCNCIAP@ITEM_TYPE_SPECIAL?$AA@ DB 'ITEM_TYPE_SPECIAL', 00H ; `string'
CONST	ENDS
;	COMDAT ??_C@_0O@EJGIJMHP@ITEM_TYPE_USE?$AA@
CONST	SEGMENT
??_C@_0O@EJGIJMHP@ITEM_TYPE_USE?$AA@ DB 'ITEM_TYPE_USE', 00H ; `string'
CONST	ENDS
;	COMDAT ??_C@_0BC@PDFOCJLB@ITEM_TYPE_AUTOUSE?$AA@
CONST	SEGMENT
??_C@_0BC@PDFOCJLB@ITEM_TYPE_AUTOUSE?$AA@ DB 'ITEM_TYPE_AUTOUSE', 00H ; `string'
CONST	ENDS
;	COMDAT ??_C@_0BB@KIJBPCOD@ITEM_TYPE_WEAPON?$AA@
CONST	SEGMENT
??_C@_0BB@KIJBPCOD@ITEM_TYPE_WEAPON?$AA@ DB 'ITEM_TYPE_WEAPON', 00H ; `string'
CONST	ENDS
;	COMDAT ??_C@_0BA@MCMGEHMH@ITEM_TYPE_ARMOR?$AA@
CONST	SEGMENT
??_C@_0BA@MCMGEHMH@ITEM_TYPE_ARMOR?$AA@ DB 'ITEM_TYPE_ARMOR', 00H ; `string'
CONST	ENDS
;	COMDAT ??_C@_0BA@MLMLGDPN@EQUIPMENT_ARROW?$AA@
CONST	SEGMENT
??_C@_0BA@MLMLGDPN@EQUIPMENT_ARROW?$AA@ DB 'EQUIPMENT_ARROW', 00H ; `string'
CONST	ENDS
;	COMDAT ??_C@_0P@EMFHBOCE@ITEM_TYPE_NONE?$AA@
CONST	SEGMENT
??_C@_0P@EMFHBOCE@ITEM_TYPE_NONE?$AA@ DB 'ITEM_TYPE_NONE', 00H ; `string'
CONST	ENDS
;	COMDAT ??_C@_0BC@IBOCPGBL@EQUIPMENT_UNIQUE1?$AA@
CONST	SEGMENT
??_C@_0BC@IBOCPGBL@EQUIPMENT_UNIQUE1?$AA@ DB 'EQUIPMENT_UNIQUE1', 00H ; `string'
CONST	ENDS
;	COMDAT ??_C@_0BC@KKMPKFNI@EQUIPMENT_UNIQUE2?$AA@
CONST	SEGMENT
??_C@_0BC@KKMPKFNI@EQUIPMENT_UNIQUE2?$AA@ DB 'EQUIPMENT_UNIQUE2', 00H ; `string'
CONST	ENDS
;	COMDAT ??_C@_0P@GJMJEBFD@EQUIPMENT_NECK?$AA@
CONST	SEGMENT
??_C@_0P@GJMJEBFD@EQUIPMENT_NECK?$AA@ DB 'EQUIPMENT_NECK', 00H ; `string'
CONST	ENDS
;	COMDAT ??_C@_0O@KNFMDJEG@EQUIPMENT_EAR?$AA@
CONST	SEGMENT
??_C@_0O@KNFMDJEG@EQUIPMENT_EAR?$AA@ DB 'EQUIPMENT_EAR', 00H ; `string'
CONST	ENDS
;	COMDAT ??_C@_0BA@KHENFLDC@EQUIPMENT_WRIST?$AA@
CONST	SEGMENT
??_C@_0BA@KHENFLDC@EQUIPMENT_WRIST?$AA@ DB 'EQUIPMENT_WRIST', 00H ; `string'
CONST	ENDS
;	COMDAT ??_C@_0BA@GEANIANO@EQUIPMENT_SHOES?$AA@
CONST	SEGMENT
??_C@_0BA@GEANIANO@EQUIPMENT_SHOES?$AA@ DB 'EQUIPMENT_SHOES', 00H ; `string'
CONST	ENDS
;	COMDAT ??_C@_0P@LODPCKGA@EQUIPMENT_BODY?$AA@
CONST	SEGMENT
??_C@_0P@LODPCKGA@EQUIPMENT_BODY?$AA@ DB 'EQUIPMENT_BODY', 00H ; `string'
CONST	ENDS
;	COMDAT ??_C@_0BB@IKOPOEMN@EQUIPMENT_WEAPON?$AA@
CONST	SEGMENT
??_C@_0BB@IKOPOEMN@EQUIPMENT_WEAPON?$AA@ DB 'EQUIPMENT_WEAPON', 00H ; `string'
CONST	ENDS
;	COMDAT ??_C@_0BA@KJELJAII@EQUIPMENT_COUNT?$AA@
CONST	SEGMENT
??_C@_0BA@KJELJAII@EQUIPMENT_COUNT?$AA@ DB 'EQUIPMENT_COUNT', 00H ; `string'
CONST	ENDS
;	COMDAT ??_C@_0P@GCJFHMFC@EQUIPMENT_HEAD?$AA@
CONST	SEGMENT
??_C@_0P@GCJFHMFC@EQUIPMENT_HEAD?$AA@ DB 'EQUIPMENT_HEAD', 00H ; `string'
CONST	ENDS
;	COMDAT ??_C@_0BC@BONOAPBN@DROPSOUND_DEFAULT?$AA@
CONST	SEGMENT
??_C@_0BC@BONOAPBN@DROPSOUND_DEFAULT?$AA@ DB 'DROPSOUND_DEFAULT', 00H ; `string'
CONST	ENDS
;	COMDAT ??_C@_0BB@JMMPMOOC@DROPSOUND_WEAPON?$AA@
CONST	SEGMENT
??_C@_0BB@JMMPMOOC@DROPSOUND_WEAPON?$AA@ DB 'DROPSOUND_WEAPON', 00H ; `string'
CONST	ENDS
;	COMDAT ??_C@_0BA@PCCDLKKO@DROPSOUND_ARMOR?$AA@
CONST	SEGMENT
??_C@_0BA@PCCDLKKO@DROPSOUND_ARMOR?$AA@ DB 'DROPSOUND_ARMOR', 00H ; `string'
CONST	ENDS
;	COMDAT ??_C@_0O@OOJPAKOO@DROPSOUND_BOW?$AA@
CONST	SEGMENT
??_C@_0O@OOJPAKOO@DROPSOUND_BOW?$AA@ DB 'DROPSOUND_BOW', 00H ; `string'
CONST	ENDS
;	COMDAT ??_C@_0BA@HNBMICIL@USESOUND_PORTAL?$AA@
CONST	SEGMENT
??_C@_0BA@HNBMICIL@USESOUND_PORTAL?$AA@ DB 'USESOUND_PORTAL', 00H ; `string'
CONST	ENDS
;	COMDAT ??_C@_0BE@PBPPNIPJ@DROPSOUND_ACCESSORY?$AA@
CONST	SEGMENT
??_C@_0BE@PBPPNIPJ@DROPSOUND_ACCESSORY?$AA@ DB 'DROPSOUND_ACCESSORY', 00H ; `string'
CONST	ENDS
;	COMDAT ??_C@_0BA@IJKKKKOO@USESOUND_WEAPON?$AA@
CONST	SEGMENT
??_C@_0BA@IJKKKKOO@USESOUND_WEAPON?$AA@ DB 'USESOUND_WEAPON', 00H ; `string'
CONST	ENDS
;	COMDAT ??_C@_0BA@GIIHLHOB@USESOUND_POTION?$AA@
CONST	SEGMENT
??_C@_0BA@GIIHLHOB@USESOUND_POTION?$AA@ DB 'USESOUND_POTION', 00H ; `string'
CONST	ENDS
;	COMDAT ??_C@_0N@MDIFIDON@USESOUND_BOW?$AA@
CONST	SEGMENT
??_C@_0N@MDIFIDON@USESOUND_BOW?$AA@ DB 'USESOUND_BOW', 00H ; `string'
CONST	ENDS
;	COMDAT ??_C@_0BB@BHHNCGFC@USESOUND_DEFAULT?$AA@
CONST	SEGMENT
??_C@_0BB@BHHNCGFC@USESOUND_DEFAULT?$AA@ DB 'USESOUND_DEFAULT', 00H ; `string'
CONST	ENDS
;	COMDAT ??_C@_0BD@MEKMBKPM@USESOUND_ACCESSORY?$AA@
CONST	SEGMENT
??_C@_0BD@MEKMBKPM@USESOUND_ACCESSORY?$AA@ DB 'USESOUND_ACCESSORY', 00H ; `string'
CONST	ENDS
;	COMDAT ??_C@_0P@ENGKPPPD@USESOUND_ARMOR?$AA@
CONST	SEGMENT
??_C@_0P@ENGKPPPD@USESOUND_ARMOR?$AA@ DB 'USESOUND_ARMOR', 00H ; `string'
CONST	ENDS
;	COMDAT ??_C@_0L@IIJEEMCG@DeleteItem?$AA@
CONST	SEGMENT
??_C@_0L@IIJEEMCG@DeleteItem?$AA@ DB 'DeleteItem', 00H	; `string'
CONST	ENDS
;	COMDAT ??_C@_0O@HJNOJBCJ@LoadItemTable?$AA@
CONST	SEGMENT
??_C@_0O@HJNOJBCJ@LoadItemTable?$AA@ DB 'LoadItemTable', 00H ; `string'
CONST	ENDS
;	COMDAT ??_C@_0BG@FEGHIHDK@CanAddToQuickSlotItem?$AA@
CONST	SEGMENT
??_C@_0BG@FEGHIHDK@CanAddToQuickSlotItem?$AA@ DB 'CanAddToQuickSlotItem', 00H ; `string'
CONST	ENDS
;	COMDAT ??_C@_0L@EMDEHLJF@CreateItem?$AA@
CONST	SEGMENT
??_C@_0L@EMDEHLJF@CreateItem?$AA@ DB 'CreateItem', 00H	; `string'
CONST	ENDS
;	COMDAT ??_C@_05CEOMILKP@IsKey?$AA@
CONST	SEGMENT
??_C@_05CEOMILKP@IsKey?$AA@ DB 'IsKey', 00H		; `string'
CONST	ENDS
;	COMDAT ??_C@_07MLLOFDCE@IsMetin?$AA@
CONST	SEGMENT
??_C@_07MLLOFDCE@IsMetin?$AA@ DB 'IsMetin', 00H		; `string'
CONST	ENDS
;	COMDAT ??_C@_0P@LGDKNEFF@IsRefineScroll?$AA@
CONST	SEGMENT
??_C@_0P@LGDKNEFF@IsRefineScroll?$AA@ DB 'IsRefineScroll', 00H ; `string'
CONST	ENDS
;	COMDAT ??_C@_0P@CNNPGCCK@IsDetachScroll?$AA@
CONST	SEGMENT
??_C@_0P@CNNPGCCK@IsDetachScroll?$AA@ DB 'IsDetachScroll', 00H ; `string'
CONST	ENDS
;	COMDAT ??_C@_0BD@BNBIIKMM@DeleteIconInstance?$AA@
CONST	SEGMENT
??_C@_0BD@BNBIIKMM@DeleteIconInstance?$AA@ DB 'DeleteIconInstance', 00H ; `string'
CONST	ENDS
;	COMDAT ??_C@_0P@OGDGGJFE@IsEquipmentVID?$AA@
CONST	SEGMENT
??_C@_0P@OGDGGJFE@IsEquipmentVID?$AA@ DB 'IsEquipmentVID', 00H ; `string'
CONST	ENDS
;	COMDAT ??_C@_0BA@PMLMLIHH@GetIconInstance?$AA@
CONST	SEGMENT
??_C@_0BA@PMLMLIHH@GetIconInstance?$AA@ DB 'GetIconInstance', 00H ; `string'
CONST	ENDS
;	COMDAT ??_C@_0L@POCKMHMA@GetUseType?$AA@
CONST	SEGMENT
??_C@_0L@POCKMHMA@GetUseType?$AA@ DB 'GetUseType', 00H	; `string'
CONST	ENDS
;	COMDAT ??_C@_08GGOMBHIN@GetValue?$AA@
CONST	SEGMENT
??_C@_08GGOMBHIN@GetValue?$AA@ DB 'GetValue', 00H	; `string'
CONST	ENDS
;	COMDAT ??_C@_09ICJIFGNC@GetSocket?$AA@
CONST	SEGMENT
??_C@_09ICJIFGNC@GetSocket?$AA@ DB 'GetSocket', 00H	; `string'
CONST	ENDS
;	COMDAT ??_C@_08KIIGDNA@GetLimit?$AA@
CONST	SEGMENT
??_C@_08KIIGDNA@GetLimit?$AA@ DB 'GetLimit', 00H	; `string'
CONST	ENDS
;	COMDAT ??_C@_09HJGEAOAM@GetAffect?$AA@
CONST	SEGMENT
??_C@_09HJGEAOAM@GetAffect?$AA@ DB 'GetAffect', 00H	; `string'
CONST	ENDS
;	COMDAT ??_C@_0P@KNFGADIE@IsWearableFlag?$AA@
CONST	SEGMENT
??_C@_0P@KNFGADIE@IsWearableFlag?$AA@ DB 'IsWearableFlag', 00H ; `string'
CONST	ENDS
;	COMDAT ??_C@_0M@IKKLMPND@Is1GoldItem?$AA@
CONST	SEGMENT
??_C@_0M@IKKLMPND@Is1GoldItem?$AA@ DB 'Is1GoldItem', 00H ; `string'
CONST	ENDS
;	COMDAT ??_C@_0L@NKLNOBKA@IsAntiFlag?$AA@
CONST	SEGMENT
??_C@_0L@NKLNOBKA@IsAntiFlag?$AA@ DB 'IsAntiFlag', 00H	; `string'
CONST	ENDS
;	COMDAT ??_C@_06PLFMNGGB@IsFlag?$AA@
CONST	SEGMENT
??_C@_06PLFMNGGB@IsFlag?$AA@ DB 'IsFlag', 00H		; `string'
CONST	ENDS
;	COMDAT ??_C@_0BB@KJGHJKGD@GetIBuyItemPrice?$AA@
CONST	SEGMENT
??_C@_0BB@KJGHJKGD@GetIBuyItemPrice?$AA@ DB 'GetIBuyItemPrice', 00H ; `string'
CONST	ENDS
;	COMDAT ??_C@_0BC@OKNBBEMG@GetISellItemPrice?$AA@
CONST	SEGMENT
??_C@_0BC@OKNBBEMG@GetISellItemPrice?$AA@ DB 'GetISellItemPrice', 00H ; `string'
CONST	ENDS
;	COMDAT ??_C@_0M@LOOAFMCI@GetItemType?$AA@
CONST	SEGMENT
??_C@_0M@LOOAFMCI@GetItemType?$AA@ DB 'GetItemType', 00H ; `string'
CONST	ENDS
;	COMDAT ??_C@_0P@MFCMKOKJ@GetItemSubType?$AA@
CONST	SEGMENT
??_C@_0P@MFCMKOKJ@GetItemSubType?$AA@ DB 'GetItemSubType', 00H ; `string'
CONST	ENDS
;	COMDAT ??_C@_0BF@NNPLLIOE@GetIconImageFileName?$AA@
CONST	SEGMENT
??_C@_0BF@NNPLLIOE@GetIconImageFileName?$AA@ DB 'GetIconImageFileName', 00H ; `string'
CONST	ENDS
;	COMDAT ??_C@_0M@FBEOFCHB@GetItemSize?$AA@
CONST	SEGMENT
??_C@_0M@FBEOFCHB@GetItemSize?$AA@ DB 'GetItemSize', 00H ; `string'
CONST	ENDS
;	COMDAT ??_C@_0P@OIBFDAMI@GetItemSummary?$AA@
CONST	SEGMENT
??_C@_0P@OIBFDAMI@GetItemSummary?$AA@ DB 'GetItemSummary', 00H ; `string'
CONST	ENDS
;	COMDAT ??_C@_0N@IEABDKDK@GetIconImage?$AA@
CONST	SEGMENT
??_C@_0N@IEABDKDK@GetIconImage?$AA@ DB 'GetIconImage', 00H ; `string'
CONST	ENDS
;	COMDAT ??_C@_0M@BFODJMFI@GetItemName?$AA@
CONST	SEGMENT
??_C@_0M@BFODJMFI@GetItemName?$AA@ DB 'GetItemName', 00H ; `string'
CONST	ENDS
;	COMDAT ??_C@_0BD@GLEOJONA@GetItemDescription?$AA@
CONST	SEGMENT
??_C@_0BD@GLEOJONA@GetItemDescription?$AA@ DB 'GetItemDescription', 00H ; `string'
CONST	ENDS
;	COMDAT ??_C@_0BF@BODGENI@SetDropSoundFileName?$AA@
CONST	SEGMENT
??_C@_0BF@BODGENI@SetDropSoundFileName?$AA@ DB 'SetDropSoundFileName', 00H ; `string'
CONST	ENDS
;	COMDAT ??_C@_0L@GFKKOOBA@SelectItem?$AA@
CONST	SEGMENT
??_C@_0L@GFKKOOBA@SelectItem?$AA@ DB 'SelectItem', 00H	; `string'
CONST	ENDS
;	COMDAT ??_C@_0BM@KPLEGEEH@Can?8t?5find?5select?5item?5data?$AA@
CONST	SEGMENT
??_C@_0BM@KPLEGEEH@Can?8t?5find?5select?5item?5data?$AA@ DB 'Can''t find '
	DB	'select item data', 00H			; `string'
CONST	ENDS
;	COMDAT ??_C@_0BE@HKKEFMIC@SetUseSoundFileName?$AA@
CONST	SEGMENT
??_C@_0BE@HKKEFMIC@SetUseSoundFileName?$AA@ DB 'SetUseSoundFileName', 00H ; `string'
CONST	ENDS
;	COMDAT ??_C@_0BJ@FJOAFFCG@Not?5yet?5select?5item?5data?$AA@
CONST	SEGMENT
??_C@_0BJ@FJOAFFCG@Not?5yet?5select?5item?5data?$AA@ DB 'Not yet select i'
	DB	'tem data', 00H				; `string'
CONST	ENDS
;	COMDAT ??_C@_0BM@MLEHJLDK@Cannot?5get?5icon?5image?5by?5?$CFd?$AA@
CONST	SEGMENT
??_C@_0BM@MLEHJLDK@Cannot?5get?5icon?5image?5by?5?$CFd?$AA@ DB 'Cannot ge'
	DB	't icon image by %d', 00H			; `string'
CONST	ENDS
;	COMDAT ??_C@_0BH@EOAFOHJK@Cannot?5find?5item?5by?5?$CFd?$AA@
CONST	SEGMENT
??_C@_0BH@EOAFOHJK@Cannot?5find?5item?5by?5?$CFd?$AA@ DB 'Cannot find ite'
	DB	'm by %d', 00H				; `string'
CONST	ENDS
;	COMDAT ??_C@_0BG@LNOAJHHG@no?5selected?5item?5data?$AA@
CONST	SEGMENT
??_C@_0BG@LNOAJHHG@no?5selected?5item?5data?$AA@ DB 'no selected item dat'
	DB	'a', 00H					; `string'
PUBLIC	?initItem@@YAXXZ				; initItem
PUBLIC	?itemLoadItemTable@@YAPAU_object@@PAU1@0@Z	; itemLoadItemTable
PUBLIC	?itemPick@@YAPAU_object@@PAU1@0@Z		; itemPick
PUBLIC	?itemDeleteItem@@YAPAU_object@@PAU1@0@Z		; itemDeleteItem
PUBLIC	?itemCreateItem@@YAPAU_object@@PAU1@0@Z		; itemCreateItem
PUBLIC	?itemUpdate@@YAPAU_object@@PAU1@0@Z		; itemUpdate
PUBLIC	?itemRender@@YAPAU_object@@PAU1@0@Z		; itemRender
PUBLIC	?itemIsMetin@@YAPAU_object@@PAU1@0@Z		; itemIsMetin
PUBLIC	?itemIsKey@@YAPAU_object@@PAU1@0@Z		; itemIsKey
PUBLIC	?itemCanAddToQuickSlotItem@@YAPAU_object@@PAU1@0@Z ; itemCanAddToQuickSlotItem
PUBLIC	?itemIsDetachScroll@@YAPAU_object@@PAU1@0@Z	; itemIsDetachScroll
PUBLIC	?itemIsRefineScroll@@YAPAU_object@@PAU1@0@Z	; itemIsRefineScroll
PUBLIC	?itemGetUseType@@YAPAU_object@@PAU1@0@Z		; itemGetUseType
PUBLIC	?itemIsEquipmentVID@@YAPAU_object@@PAU1@0@Z	; itemIsEquipmentVID
PUBLIC	?itemDeleteIconInstance@@YAPAU_object@@PAU1@0@Z	; itemDeleteIconInstance
PUBLIC	?itemGetIconInstance@@YAPAU_object@@PAU1@0@Z	; itemGetIconInstance
PUBLIC	?itemGetSocket@@YAPAU_object@@PAU1@0@Z		; itemGetSocket
PUBLIC	?itemGetValue@@YAPAU_object@@PAU1@0@Z		; itemGetValue
PUBLIC	?itemGetAffect@@YAPAU_object@@PAU1@0@Z		; itemGetAffect
PUBLIC	?itemGetLimit@@YAPAU_object@@PAU1@0@Z		; itemGetLimit
PUBLIC	?itemIs1GoldItem@@YAPAU_object@@PAU1@0@Z	; itemIs1GoldItem
PUBLIC	?itemIsWearableFlag@@YAPAU_object@@PAU1@0@Z	; itemIsWearableFlag
PUBLIC	?itemIsFlag@@YAPAU_object@@PAU1@0@Z		; itemIsFlag
PUBLIC	?itemIsAntiFlag@@YAPAU_object@@PAU1@0@Z		; itemIsAntiFlag
PUBLIC	?itemGetISellItemPrice@@YAPAU_object@@PAU1@0@Z	; itemGetISellItemPrice
PUBLIC	?itemGetIBuyItemPrice@@YAPAU_object@@PAU1@0@Z	; itemGetIBuyItemPrice
PUBLIC	?itemGetItemSubType@@YAPAU_object@@PAU1@0@Z	; itemGetItemSubType
PUBLIC	?itemGetItemType@@YAPAU_object@@PAU1@0@Z	; itemGetItemType
PUBLIC	?itemGetItemSize@@YAPAU_object@@PAU1@0@Z	; itemGetItemSize
PUBLIC	?itemGetIconImageFileName@@YAPAU_object@@PAU1@0@Z ; itemGetIconImageFileName
PUBLIC	?itemGetIconImage@@YAPAU_object@@PAU1@0@Z	; itemGetIconImage
PUBLIC	?itemGetItemSummary@@YAPAU_object@@PAU1@0@Z	; itemGetItemSummary
PUBLIC	?itemGetItemDescription@@YAPAU_object@@PAU1@0@Z	; itemGetItemDescription
PUBLIC	?itemGetItemName@@YAPAU_object@@PAU1@0@Z	; itemGetItemName
PUBLIC	?itemSelectItem@@YAPAU_object@@PAU1@0@Z		; itemSelectItem
PUBLIC	?itemSetDropSoundFileName@@YAPAU_object@@PAU1@0@Z ; itemSetDropSoundFileName
PUBLIC	?itemSetUseSoundFileName@@YAPAU_object@@PAU1@0@Z ; itemSetUseSoundFileName
;	COMDAT xdata$x
xdata$x	SEGMENT
__ehfuncinfo$?itemSetUseSoundFileName@@YAPAU_object@@PAU1@0@Z DD 019930522H
	DD	01H
	DD	FLAT:__unwindtable$?itemSetUseSoundFileName@@YAPAU_object@@PAU1@0@Z
	DD	2 DUP(00H)
	DD	2 DUP(00H)
	DD	00H
	DD	01H
__unwindtable$?itemSetUseSoundFileName@@YAPAU_object@@PAU1@0@Z DD 0ffffffffH
	DD	FLAT:__unwindfunclet$?itemSetUseSoundFileName@@YAPAU_object@@PAU1@0@Z$0
xdata$x	ENDS
;	COMDAT xdata$x
xdata$x	SEGMENT
__ehfuncinfo$?itemSetDropSoundFileName@@YAPAU_object@@PAU1@0@Z DD 019930522H
	DD	01H
	DD	FLAT:__unwindtable$?itemSetDropSoundFileName@@YAPAU_object@@PAU1@0@Z
	DD	2 DUP(00H)
	DD	2 DUP(00H)
	DD	00H
	DD	01H
__unwindtable$?itemSetDropSoundFileName@@YAPAU_object@@PAU1@0@Z DD 0ffffffffH
	DD	FLAT:__unwindfunclet$?itemSetDropSoundFileName@@YAPAU_object@@PAU1@0@Z$0
; Function compile flags: /Ogtp
; File d:\metin2\metin2\client_source_clean\client_source_clean\source\userinterface\pythonitemmodule.cpp
; File c:\program files (x86)\microsoft visual studio 12.0\vc\include\xstring
; File c:\program files (x86)\microsoft visual studio 12.0\vc\include\xmemory0
; File c:\program files (x86)\microsoft visual studio 12.0\vc\include\xstring
; File c:\program files (x86)\microsoft visual studio 12.0\vc\include\iosfwd
; File d:\metin2\metin2\client_source_clean\client_source_clean\source\userinterface\pythonitemmodule.cpp
;	COMDAT ?itemSetUseSoundFileName@@YAPAU_object@@PAU1@0@Z
_TEXT	SEGMENT
_iUseSound$ = -52					; size = 4
_szFileName$ = -48					; size = 4
$T2 = -44						; size = 24
__$ArrayPad$ = -20					; size = 4
__$EHRec$ = -12						; size = 12
_poSelf$ = 8						; size = 4
_poArgs$ = 12						; size = 4
?itemSetUseSoundFileName@@YAPAU_object@@PAU1@0@Z PROC	; itemSetUseSoundFileName, COMDAT

; 11   : {

  00000	55		 push	 ebp
  00001	8b ec		 mov	 ebp, esp
  00003	83 e4 f8	 and	 esp, -8			; fffffff8H
  00006	6a ff		 push	 -1
  00008	68 00 00 00 00	 push	 __ehhandler$?itemSetUseSoundFileName@@YAPAU_object@@PAU1@0@Z
  0000d	64 a1 00 00 00
	00		 mov	 eax, DWORD PTR fs:0
  00013	50		 push	 eax
  00014	83 ec 28	 sub	 esp, 40			; 00000028H
  00017	a1 00 00 00 00	 mov	 eax, DWORD PTR ___security_cookie
  0001c	33 c4		 xor	 eax, esp
  0001e	89 44 24 20	 mov	 DWORD PTR __$ArrayPad$[esp+52], eax
  00022	56		 push	 esi
  00023	a1 00 00 00 00	 mov	 eax, DWORD PTR ___security_cookie
  00028	33 c4		 xor	 eax, esp
  0002a	50		 push	 eax
  0002b	8d 44 24 30	 lea	 eax, DWORD PTR __$EHRec$[esp+60]
  0002f	64 a3 00 00 00
	00		 mov	 DWORD PTR fs:0, eax
  00035	8b 75 0c	 mov	 esi, DWORD PTR _poArgs$[ebp]

; 12   : 	int iUseSound;
; 13   : 	if (!PyTuple_GetInteger(poArgs, 0, &iUseSound))

  00038	8d 44 24 08	 lea	 eax, DWORD PTR _iUseSound$[esp+60]
  0003c	50		 push	 eax
  0003d	6a 00		 push	 0
  0003f	56		 push	 esi
  00040	e8 00 00 00 00	 call	 ?PyTuple_GetInteger@@YA_NPAU_object@@HPAH@Z ; PyTuple_GetInteger
  00045	83 c4 0c	 add	 esp, 12			; 0000000cH
  00048	84 c0		 test	 al, al
  0004a	75 07		 jne	 SHORT $LN2@itemSetUse
$LN41@itemSetUse:

; 14   : 		return Py_BadArgument();

  0004c	e8 00 00 00 00	 call	 ?Py_BadArgument@@YAPAU_object@@XZ ; Py_BadArgument
  00051	eb 74		 jmp	 SHORT $LN3@itemSetUse
$LN2@itemSetUse:

; 15   : 	
; 16   : 	char* szFileName;
; 17   : 	if (!PyTuple_GetString(poArgs, 1, &szFileName))

  00053	8d 44 24 0c	 lea	 eax, DWORD PTR _szFileName$[esp+60]
  00057	50		 push	 eax
  00058	6a 01		 push	 1
  0005a	56		 push	 esi
  0005b	e8 00 00 00 00	 call	 ?PyTuple_GetString@@YA_NPAU_object@@HPAPAD@Z ; PyTuple_GetString
  00060	83 c4 0c	 add	 esp, 12			; 0000000cH
  00063	84 c0		 test	 al, al
  00065	74 e5		 je	 SHORT $LN41@itemSetUse

; 18   : 		return Py_BadArgument();
; 19   : 
; 20   : 	CPythonItem& rkItem=CPythonItem::Instance();
; 21   : 	rkItem.SetUseSoundFileName(iUseSound, szFileName);

  00067	ff 74 24 0c	 push	 DWORD PTR _szFileName$[esp+60]
  0006b	8b 35 00 00 00
	00		 mov	 esi, DWORD PTR ?ms_singleton@?$CSingleton@VCPythonItem@@@@0PAVCPythonItem@@A ; CSingleton<CPythonItem>::ms_singleton
  00071	8d 4c 24 14	 lea	 ecx, DWORD PTR $T2[esp+64]
  00075	e8 00 00 00 00	 call	 ??0?$basic_string@DU?$char_traits@D@std@@V?$allocator@D@2@@std@@QAE@PBD@Z ; std::basic_string<char,std::char_traits<char>,std::allocator<char> >::basic_string<char,std::char_traits<char>,std::allocator<char> >
  0007a	8d 44 24 10	 lea	 eax, DWORD PTR $T2[esp+60]
  0007e	c7 44 24 38 00
	00 00 00	 mov	 DWORD PTR __$EHRec$[esp+68], 0
  00086	50		 push	 eax
  00087	ff 74 24 0c	 push	 DWORD PTR _iUseSound$[esp+64]
  0008b	8b ce		 mov	 ecx, esi
  0008d	e8 00 00 00 00	 call	 ?SetUseSoundFileName@CPythonItem@@QAEXKABV?$basic_string@DU?$char_traits@D@std@@V?$allocator@D@2@@std@@@Z ; CPythonItem::SetUseSoundFileName
  00092	c7 44 24 38 ff
	ff ff ff	 mov	 DWORD PTR __$EHRec$[esp+68], -1
; File c:\program files (x86)\microsoft visual studio 12.0\vc\include\xstring

; 2275 : 		else if (this->_BUF_SIZE <= this->_Myres)

  0009a	83 7c 24 24 10	 cmp	 DWORD PTR $T2[esp+80], 16 ; 00000010H
  0009f	72 0c		 jb	 SHORT $LN28@itemSetUse
; File c:\program files (x86)\microsoft visual studio 12.0\vc\include\xmemory0

; 573  : 		::operator delete(_Ptr);

  000a1	ff 74 24 10	 push	 DWORD PTR $T2[esp+60]
  000a5	e8 00 00 00 00	 call	 ??3@YAXPAX@Z		; operator delete
  000aa	83 c4 04	 add	 esp, 4
$LN28@itemSetUse:
; File c:\program files (x86)\microsoft visual studio 12.0\vc\include\xstring

; 2284 : 		this->_Myres = this->_BUF_SIZE - 1;

  000ad	c7 44 24 24 0f
	00 00 00	 mov	 DWORD PTR $T2[esp+80], 15 ; 0000000fH

; 2237 : 		_Traits::assign(this->_Myptr()[this->_Mysize = _Newsize], _Elem());

  000b5	c7 44 24 20 00
	00 00 00	 mov	 DWORD PTR $T2[esp+76], 0
; File c:\program files (x86)\microsoft visual studio 12.0\vc\include\iosfwd

; 564  : 		_Left = _Right;

  000bd	c6 44 24 10 00	 mov	 BYTE PTR $T2[esp+60], 0
; File d:\metin2\metin2\client_source_clean\client_source_clean\source\userinterface\pythonitemmodule.cpp

; 22   : 	return Py_BuildNone();

  000c2	e8 00 00 00 00	 call	 ?Py_BuildNone@@YAPAU_object@@XZ ; Py_BuildNone
$LN3@itemSetUse:

; 23   : }

  000c7	8b 4c 24 30	 mov	 ecx, DWORD PTR __$EHRec$[esp+60]
  000cb	64 89 0d 00 00
	00 00		 mov	 DWORD PTR fs:0, ecx
  000d2	59		 pop	 ecx
  000d3	5e		 pop	 esi
  000d4	8b 4c 24 20	 mov	 ecx, DWORD PTR __$ArrayPad$[esp+52]
  000d8	33 cc		 xor	 ecx, esp
  000da	e8 00 00 00 00	 call	 @__security_check_cookie@4
  000df	8b e5		 mov	 esp, ebp
  000e1	5d		 pop	 ebp
  000e2	c3		 ret	 0
_TEXT	ENDS
;	COMDAT text$x
text$x	SEGMENT
__unwindfunclet$?itemSetUseSoundFileName@@YAPAU_object@@PAU1@0@Z$0:
  00000	8d 4d d4	 lea	 ecx, DWORD PTR $T2[ebp]
  00003	e9 00 00 00 00	 jmp	 ??1?$basic_string@DU?$char_traits@D@std@@V?$allocator@D@2@@std@@QAE@XZ ; std::basic_string<char,std::char_traits<char>,std::allocator<char> >::~basic_string<char,std::char_traits<char>,std::allocator<char> >
__ehhandler$?itemSetUseSoundFileName@@YAPAU_object@@PAU1@0@Z:
  00008	8b 54 24 08	 mov	 edx, DWORD PTR [esp+8]
  0000c	8d 42 d4	 lea	 eax, DWORD PTR [edx-44]
  0000f	8b 4a d0	 mov	 ecx, DWORD PTR [edx-48]
  00012	33 c8		 xor	 ecx, eax
  00014	e8 00 00 00 00	 call	 @__security_check_cookie@4
  00019	83 c0 04	 add	 eax, 4
  0001c	8b 4a f8	 mov	 ecx, DWORD PTR [edx-8]
  0001f	33 c8		 xor	 ecx, eax
  00021	e8 00 00 00 00	 call	 @__security_check_cookie@4
  00026	b8 00 00 00 00	 mov	 eax, OFFSET __ehfuncinfo$?itemSetUseSoundFileName@@YAPAU_object@@PAU1@0@Z
  0002b	e9 00 00 00 00	 jmp	 ___CxxFrameHandler3
text$x	ENDS
?itemSetUseSoundFileName@@YAPAU_object@@PAU1@0@Z ENDP	; itemSetUseSoundFileName
; Function compile flags: /Ogtp
; File d:\metin2\metin2\client_source_clean\client_source_clean\source\userinterface\pythonitemmodule.cpp
; File c:\program files (x86)\microsoft visual studio 12.0\vc\include\xstring
; File c:\program files (x86)\microsoft visual studio 12.0\vc\include\xmemory0
; File c:\program files (x86)\microsoft visual studio 12.0\vc\include\xstring
; File c:\program files (x86)\microsoft visual studio 12.0\vc\include\iosfwd
; File d:\metin2\metin2\client_source_clean\client_source_clean\source\userinterface\pythonitemmodule.cpp
;	COMDAT ?itemSetDropSoundFileName@@YAPAU_object@@PAU1@0@Z
_TEXT	SEGMENT
_iDropSound$ = -52					; size = 4
_szFileName$ = -48					; size = 4
$T2 = -44						; size = 24
__$ArrayPad$ = -20					; size = 4
__$EHRec$ = -12						; size = 12
_poSelf$ = 8						; size = 4
_poArgs$ = 12						; size = 4
?itemSetDropSoundFileName@@YAPAU_object@@PAU1@0@Z PROC	; itemSetDropSoundFileName, COMDAT

; 26   : {

  00000	55		 push	 ebp
  00001	8b ec		 mov	 ebp, esp
  00003	83 e4 f8	 and	 esp, -8			; fffffff8H
  00006	6a ff		 push	 -1
  00008	68 00 00 00 00	 push	 __ehhandler$?itemSetDropSoundFileName@@YAPAU_object@@PAU1@0@Z
  0000d	64 a1 00 00 00
	00		 mov	 eax, DWORD PTR fs:0
  00013	50		 push	 eax
  00014	83 ec 28	 sub	 esp, 40			; 00000028H
  00017	a1 00 00 00 00	 mov	 eax, DWORD PTR ___security_cookie
  0001c	33 c4		 xor	 eax, esp
  0001e	89 44 24 20	 mov	 DWORD PTR __$ArrayPad$[esp+52], eax
  00022	56		 push	 esi
  00023	a1 00 00 00 00	 mov	 eax, DWORD PTR ___security_cookie
  00028	33 c4		 xor	 eax, esp
  0002a	50		 push	 eax
  0002b	8d 44 24 30	 lea	 eax, DWORD PTR __$EHRec$[esp+60]
  0002f	64 a3 00 00 00
	00		 mov	 DWORD PTR fs:0, eax
  00035	8b 75 0c	 mov	 esi, DWORD PTR _poArgs$[ebp]

; 27   : 	int iDropSound;
; 28   : 	if (!PyTuple_GetInteger(poArgs, 0, &iDropSound))

  00038	8d 44 24 08	 lea	 eax, DWORD PTR _iDropSound$[esp+60]
  0003c	50		 push	 eax
  0003d	6a 00		 push	 0
  0003f	56		 push	 esi
  00040	e8 00 00 00 00	 call	 ?PyTuple_GetInteger@@YA_NPAU_object@@HPAH@Z ; PyTuple_GetInteger
  00045	83 c4 0c	 add	 esp, 12			; 0000000cH
  00048	84 c0		 test	 al, al
  0004a	75 07		 jne	 SHORT $LN2@itemSetDro
$LN41@itemSetDro:

; 29   : 		return Py_BadArgument();

  0004c	e8 00 00 00 00	 call	 ?Py_BadArgument@@YAPAU_object@@XZ ; Py_BadArgument
  00051	eb 6c		 jmp	 SHORT $LN3@itemSetDro
$LN2@itemSetDro:

; 30   : 	
; 31   : 	char* szFileName;
; 32   : 	if (!PyTuple_GetString(poArgs, 1, &szFileName))

  00053	8d 44 24 0c	 lea	 eax, DWORD PTR _szFileName$[esp+60]
  00057	50		 push	 eax
  00058	6a 01		 push	 1
  0005a	56		 push	 esi
  0005b	e8 00 00 00 00	 call	 ?PyTuple_GetString@@YA_NPAU_object@@HPAPAD@Z ; PyTuple_GetString
  00060	83 c4 0c	 add	 esp, 12			; 0000000cH
  00063	84 c0		 test	 al, al
  00065	74 e5		 je	 SHORT $LN41@itemSetDro

; 33   : 		return Py_BadArgument();
; 34   : 
; 35   : 	CPythonItem& rkItem=CPythonItem::Instance();
; 36   : 	rkItem.SetDropSoundFileName(iDropSound, szFileName);

  00067	ff 74 24 0c	 push	 DWORD PTR _szFileName$[esp+60]
  0006b	8d 4c 24 14	 lea	 ecx, DWORD PTR $T2[esp+64]
  0006f	e8 00 00 00 00	 call	 ??0?$basic_string@DU?$char_traits@D@std@@V?$allocator@D@2@@std@@QAE@PBD@Z ; std::basic_string<char,std::char_traits<char>,std::allocator<char> >::basic_string<char,std::char_traits<char>,std::allocator<char> >
  00074	8d 44 24 10	 lea	 eax, DWORD PTR $T2[esp+60]
  00078	c7 44 24 38 00
	00 00 00	 mov	 DWORD PTR __$EHRec$[esp+68], 0
  00080	50		 push	 eax
  00081	ff 74 24 0c	 push	 DWORD PTR _iDropSound$[esp+64]
  00085	e8 00 00 00 00	 call	 ?SetDropSoundFileName@CPythonItem@@QAEXKABV?$basic_string@DU?$char_traits@D@std@@V?$allocator@D@2@@std@@@Z ; CPythonItem::SetDropSoundFileName
  0008a	c7 44 24 38 ff
	ff ff ff	 mov	 DWORD PTR __$EHRec$[esp+68], -1
; File c:\program files (x86)\microsoft visual studio 12.0\vc\include\xstring

; 2275 : 		else if (this->_BUF_SIZE <= this->_Myres)

  00092	83 7c 24 24 10	 cmp	 DWORD PTR $T2[esp+80], 16 ; 00000010H
  00097	72 0c		 jb	 SHORT $LN28@itemSetDro
; File c:\program files (x86)\microsoft visual studio 12.0\vc\include\xmemory0

; 573  : 		::operator delete(_Ptr);

  00099	ff 74 24 10	 push	 DWORD PTR $T2[esp+60]
  0009d	e8 00 00 00 00	 call	 ??3@YAXPAX@Z		; operator delete
  000a2	83 c4 04	 add	 esp, 4
$LN28@itemSetDro:
; File c:\program files (x86)\microsoft visual studio 12.0\vc\include\xstring

; 2284 : 		this->_Myres = this->_BUF_SIZE - 1;

  000a5	c7 44 24 24 0f
	00 00 00	 mov	 DWORD PTR $T2[esp+80], 15 ; 0000000fH

; 2237 : 		_Traits::assign(this->_Myptr()[this->_Mysize = _Newsize], _Elem());

  000ad	c7 44 24 20 00
	00 00 00	 mov	 DWORD PTR $T2[esp+76], 0
; File c:\program files (x86)\microsoft visual studio 12.0\vc\include\iosfwd

; 564  : 		_Left = _Right;

  000b5	c6 44 24 10 00	 mov	 BYTE PTR $T2[esp+60], 0
; File d:\metin2\metin2\client_source_clean\client_source_clean\source\userinterface\pythonitemmodule.cpp

; 37   : 	return Py_BuildNone();

  000ba	e8 00 00 00 00	 call	 ?Py_BuildNone@@YAPAU_object@@XZ ; Py_BuildNone
$LN3@itemSetDro:

; 38   : }

  000bf	8b 4c 24 30	 mov	 ecx, DWORD PTR __$EHRec$[esp+60]
  000c3	64 89 0d 00 00
	00 00		 mov	 DWORD PTR fs:0, ecx
  000ca	59		 pop	 ecx
  000cb	5e		 pop	 esi
  000cc	8b 4c 24 20	 mov	 ecx, DWORD PTR __$ArrayPad$[esp+52]
  000d0	33 cc		 xor	 ecx, esp
  000d2	e8 00 00 00 00	 call	 @__security_check_cookie@4
  000d7	8b e5		 mov	 esp, ebp
  000d9	5d		 pop	 ebp
  000da	c3		 ret	 0
_TEXT	ENDS
;	COMDAT text$x
text$x	SEGMENT
__unwindfunclet$?itemSetDropSoundFileName@@YAPAU_object@@PAU1@0@Z$0:
  00000	8d 4d d4	 lea	 ecx, DWORD PTR $T2[ebp]
  00003	e9 00 00 00 00	 jmp	 ??1?$basic_string@DU?$char_traits@D@std@@V?$allocator@D@2@@std@@QAE@XZ ; std::basic_string<char,std::char_traits<char>,std::allocator<char> >::~basic_string<char,std::char_traits<char>,std::allocator<char> >
__ehhandler$?itemSetDropSoundFileName@@YAPAU_object@@PAU1@0@Z:
  00008	8b 54 24 08	 mov	 edx, DWORD PTR [esp+8]
  0000c	8d 42 d4	 lea	 eax, DWORD PTR [edx-44]
  0000f	8b 4a d0	 mov	 ecx, DWORD PTR [edx-48]
  00012	33 c8		 xor	 ecx, eax
  00014	e8 00 00 00 00	 call	 @__security_check_cookie@4
  00019	83 c0 04	 add	 eax, 4
  0001c	8b 4a f8	 mov	 ecx, DWORD PTR [edx-8]
  0001f	33 c8		 xor	 ecx, eax
  00021	e8 00 00 00 00	 call	 @__security_check_cookie@4
  00026	b8 00 00 00 00	 mov	 eax, OFFSET __ehfuncinfo$?itemSetDropSoundFileName@@YAPAU_object@@PAU1@0@Z
  0002b	e9 00 00 00 00	 jmp	 ___CxxFrameHandler3
text$x	ENDS
?itemSetDropSoundFileName@@YAPAU_object@@PAU1@0@Z ENDP	; itemSetDropSoundFileName
; Function compile flags: /Ogtp
; File d:\metin2\metin2\client_source_clean\client_source_clean\source\userinterface\pythonitemmodule.cpp
;	COMDAT ?itemSelectItem@@YAPAU_object@@PAU1@0@Z
_TEXT	SEGMENT
_iIndex$ = -4						; size = 4
_poSelf$ = 8						; size = 4
_poArgs$ = 12						; size = 4
?itemSelectItem@@YAPAU_object@@PAU1@0@Z PROC		; itemSelectItem, COMDAT

; 41   : {

  00000	55		 push	 ebp
  00001	8b ec		 mov	 ebp, esp
  00003	51		 push	 ecx

; 42   : 	int iIndex;
; 43   : 	if (!PyTuple_GetInteger(poArgs, 0, &iIndex))

  00004	8d 45 fc	 lea	 eax, DWORD PTR _iIndex$[ebp]
  00007	50		 push	 eax
  00008	6a 00		 push	 0
  0000a	ff 75 0c	 push	 DWORD PTR _poArgs$[ebp]
  0000d	e8 00 00 00 00	 call	 ?PyTuple_GetInteger@@YA_NPAU_object@@HPAH@Z ; PyTuple_GetInteger
  00012	83 c4 0c	 add	 esp, 12			; 0000000cH
  00015	84 c0		 test	 al, al
  00017	75 09		 jne	 SHORT $LN2@itemSelect

; 44   : 		return Py_BadArgument();

  00019	e8 00 00 00 00	 call	 ?Py_BadArgument@@YAPAU_object@@XZ ; Py_BadArgument

; 53   : }

  0001e	8b e5		 mov	 esp, ebp
  00020	5d		 pop	 ebp
  00021	c3		 ret	 0
$LN2@itemSelect:

; 45   : 
; 46   : 	if (!CItemManager::Instance().SelectItemData(iIndex))

  00022	ff 75 fc	 push	 DWORD PTR _iIndex$[ebp]
  00025	8b 0d 00 00 00
	00		 mov	 ecx, DWORD PTR ?ms_singleton@?$CSingleton@VCItemManager@@@@0PAVCItemManager@@A ; CSingleton<CItemManager>::ms_singleton
  0002b	e8 00 00 00 00	 call	 ?SelectItemData@CItemManager@@QAEHK@Z ; CItemManager::SelectItemData
  00030	85 c0		 test	 eax, eax
  00032	75 20		 jne	 SHORT $LN1@itemSelect

; 47   : 	{
; 48   : 		TraceError("Cannot find item by %d", iIndex);

  00034	ff 75 fc	 push	 DWORD PTR _iIndex$[ebp]
  00037	68 00 00 00 00	 push	 OFFSET ??_C@_0BH@EOAFOHJK@Cannot?5find?5item?5by?5?$CFd?$AA@
  0003c	e8 00 00 00 00	 call	 ?TraceError@@YAXPBDZZ	; TraceError

; 49   : 		CItemManager::Instance().SelectItemData(60001);

  00041	8b 0d 00 00 00
	00		 mov	 ecx, DWORD PTR ?ms_singleton@?$CSingleton@VCItemManager@@@@0PAVCItemManager@@A ; CSingleton<CItemManager>::ms_singleton
  00047	83 c4 08	 add	 esp, 8
  0004a	68 61 ea 00 00	 push	 60001			; 0000ea61H
  0004f	e8 00 00 00 00	 call	 ?SelectItemData@CItemManager@@QAEHK@Z ; CItemManager::SelectItemData
$LN1@itemSelect:

; 50   : 	}
; 51   : 
; 52   : 	return Py_BuildNone();

  00054	e8 00 00 00 00	 call	 ?Py_BuildNone@@YAPAU_object@@XZ ; Py_BuildNone

; 53   : }

  00059	8b e5		 mov	 esp, ebp
  0005b	5d		 pop	 ebp
  0005c	c3		 ret	 0
?itemSelectItem@@YAPAU_object@@PAU1@0@Z ENDP		; itemSelectItem
_TEXT	ENDS
; Function compile flags: /Ogtp
; File d:\metin2\metin2\client_source_clean\client_source_clean\source\userinterface\pythonitemmodule.cpp
;	COMDAT ?itemGetItemName@@YAPAU_object@@PAU1@0@Z
_TEXT	SEGMENT
_poSelf$ = 8						; size = 4
_poArgs$ = 12						; size = 4
?itemGetItemName@@YAPAU_object@@PAU1@0@Z PROC		; itemGetItemName, COMDAT

; 57   : 	CItemData * pItemData = CItemManager::Instance().GetSelectedItemDataPointer();

  00000	8b 0d 00 00 00
	00		 mov	 ecx, DWORD PTR ?ms_singleton@?$CSingleton@VCItemManager@@@@0PAVCItemManager@@A ; CSingleton<CItemManager>::ms_singleton
  00006	e8 00 00 00 00	 call	 ?GetSelectedItemDataPointer@CItemManager@@QAEPAVCItemData@@XZ ; CItemManager::GetSelectedItemDataPointer

; 58   : 	if (!pItemData)

  0000b	85 c0		 test	 eax, eax
  0000d	75 0e		 jne	 SHORT $LN1@itemGetIte

; 59   : 		return Py_BuildException("no selected item data");

  0000f	68 00 00 00 00	 push	 OFFSET ??_C@_0BG@LNOAJHHG@no?5selected?5item?5data?$AA@
  00014	e8 00 00 00 00	 call	 ?Py_BuildException@@YAPAU_object@@PBDZZ ; Py_BuildException
  00019	83 c4 04	 add	 esp, 4

; 62   : }

  0001c	c3		 ret	 0
$LN1@itemGetIte:

; 60   : 
; 61   : 	return Py_BuildValue("s", pItemData->GetName());

  0001d	8b c8		 mov	 ecx, eax
  0001f	e8 00 00 00 00	 call	 ?GetName@CItemData@@QBEPBDXZ ; CItemData::GetName
  00024	50		 push	 eax
  00025	68 00 00 00 00	 push	 OFFSET ??_C@_01LKDEMHDF@s?$AA@
  0002a	ff 15 00 00 00
	00		 call	 DWORD PTR __imp__Py_BuildValue
  00030	83 c4 08	 add	 esp, 8

; 62   : }

  00033	c3		 ret	 0
?itemGetItemName@@YAPAU_object@@PAU1@0@Z ENDP		; itemGetItemName
_TEXT	ENDS
; Function compile flags: /Ogtp
; File d:\metin2\metin2\client_source_clean\client_source_clean\source\userinterface\pythonitemmodule.cpp
;	COMDAT ?itemGetItemDescription@@YAPAU_object@@PAU1@0@Z
_TEXT	SEGMENT
_poSelf$ = 8						; size = 4
_poArgs$ = 12						; size = 4
?itemGetItemDescription@@YAPAU_object@@PAU1@0@Z PROC	; itemGetItemDescription, COMDAT

; 66   : 	CItemData * pItemData = CItemManager::Instance().GetSelectedItemDataPointer();

  00000	8b 0d 00 00 00
	00		 mov	 ecx, DWORD PTR ?ms_singleton@?$CSingleton@VCItemManager@@@@0PAVCItemManager@@A ; CSingleton<CItemManager>::ms_singleton
  00006	e8 00 00 00 00	 call	 ?GetSelectedItemDataPointer@CItemManager@@QAEPAVCItemData@@XZ ; CItemManager::GetSelectedItemDataPointer

; 67   : 	if (!pItemData)

  0000b	85 c0		 test	 eax, eax
  0000d	75 0e		 jne	 SHORT $LN1@itemGetIte

; 68   : 		return Py_BuildException("no selected item data");

  0000f	68 00 00 00 00	 push	 OFFSET ??_C@_0BG@LNOAJHHG@no?5selected?5item?5data?$AA@
  00014	e8 00 00 00 00	 call	 ?Py_BuildException@@YAPAU_object@@PBDZZ ; Py_BuildException
  00019	83 c4 04	 add	 esp, 4

; 71   : }

  0001c	c3		 ret	 0
$LN1@itemGetIte:

; 69   : 
; 70   : 	return Py_BuildValue("s", pItemData->GetDescription());

  0001d	8b c8		 mov	 ecx, eax
  0001f	e8 00 00 00 00	 call	 ?GetDescription@CItemData@@QBEPBDXZ ; CItemData::GetDescription
  00024	50		 push	 eax
  00025	68 00 00 00 00	 push	 OFFSET ??_C@_01LKDEMHDF@s?$AA@
  0002a	ff 15 00 00 00
	00		 call	 DWORD PTR __imp__Py_BuildValue
  00030	83 c4 08	 add	 esp, 8

; 71   : }

  00033	c3		 ret	 0
?itemGetItemDescription@@YAPAU_object@@PAU1@0@Z ENDP	; itemGetItemDescription
_TEXT	ENDS
; Function compile flags: /Ogtp
; File d:\metin2\metin2\client_source_clean\client_source_clean\source\userinterface\pythonitemmodule.cpp
;	COMDAT ?itemGetItemSummary@@YAPAU_object@@PAU1@0@Z
_TEXT	SEGMENT
_poSelf$ = 8						; size = 4
_poArgs$ = 12						; size = 4
?itemGetItemSummary@@YAPAU_object@@PAU1@0@Z PROC	; itemGetItemSummary, COMDAT

; 75   : 	CItemData * pItemData = CItemManager::Instance().GetSelectedItemDataPointer();

  00000	8b 0d 00 00 00
	00		 mov	 ecx, DWORD PTR ?ms_singleton@?$CSingleton@VCItemManager@@@@0PAVCItemManager@@A ; CSingleton<CItemManager>::ms_singleton
  00006	e8 00 00 00 00	 call	 ?GetSelectedItemDataPointer@CItemManager@@QAEPAVCItemData@@XZ ; CItemManager::GetSelectedItemDataPointer

; 76   : 	if (!pItemData)

  0000b	85 c0		 test	 eax, eax
  0000d	75 0e		 jne	 SHORT $LN1@itemGetIte

; 77   : 		return Py_BuildException("no selected item data");

  0000f	68 00 00 00 00	 push	 OFFSET ??_C@_0BG@LNOAJHHG@no?5selected?5item?5data?$AA@
  00014	e8 00 00 00 00	 call	 ?Py_BuildException@@YAPAU_object@@PBDZZ ; Py_BuildException
  00019	83 c4 04	 add	 esp, 4

; 80   : }

  0001c	c3		 ret	 0
$LN1@itemGetIte:

; 78   : 
; 79   : 	return Py_BuildValue("s", pItemData->GetSummary());

  0001d	8b c8		 mov	 ecx, eax
  0001f	e8 00 00 00 00	 call	 ?GetSummary@CItemData@@QBEPBDXZ ; CItemData::GetSummary
  00024	50		 push	 eax
  00025	68 00 00 00 00	 push	 OFFSET ??_C@_01LKDEMHDF@s?$AA@
  0002a	ff 15 00 00 00
	00		 call	 DWORD PTR __imp__Py_BuildValue
  00030	83 c4 08	 add	 esp, 8

; 80   : }

  00033	c3		 ret	 0
?itemGetItemSummary@@YAPAU_object@@PAU1@0@Z ENDP	; itemGetItemSummary
_TEXT	ENDS
; Function compile flags: /Ogtp
; File d:\metin2\metin2\client_source_clean\client_source_clean\source\userinterface\pythonitemmodule.cpp
;	COMDAT ?itemGetIconImage@@YAPAU_object@@PAU1@0@Z
_TEXT	SEGMENT
_poSelf$ = 8						; size = 4
_poArgs$ = 12						; size = 4
?itemGetIconImage@@YAPAU_object@@PAU1@0@Z PROC		; itemGetIconImage, COMDAT

; 84   : 	CItemData * pItemData = CItemManager::Instance().GetSelectedItemDataPointer();

  00000	8b 0d 00 00 00
	00		 mov	 ecx, DWORD PTR ?ms_singleton@?$CSingleton@VCItemManager@@@@0PAVCItemManager@@A ; CSingleton<CItemManager>::ms_singleton
  00006	e8 00 00 00 00	 call	 ?GetSelectedItemDataPointer@CItemManager@@QAEPAVCItemData@@XZ ; CItemManager::GetSelectedItemDataPointer

; 85   : 	if (!pItemData)

  0000b	85 c0		 test	 eax, eax
  0000d	75 0e		 jne	 SHORT $LN1@itemGetIco

; 86   : 		return Py_BuildException("no selected item data");

  0000f	68 00 00 00 00	 push	 OFFSET ??_C@_0BG@LNOAJHHG@no?5selected?5item?5data?$AA@
  00014	e8 00 00 00 00	 call	 ?Py_BuildException@@YAPAU_object@@PBDZZ ; Py_BuildException
  00019	83 c4 04	 add	 esp, 4

; 96   : }

  0001c	c3		 ret	 0
$LN1@itemGetIco:

; 87   : 
; 88   : //	if (CItemData::ITEM_TYPE_SKILLBOOK == pItemData->GetType())
; 89   : //	{
; 90   : //		char szItemName[64+1];
; 91   : //		_snprintf(szItemName, "d:/ymir work/ui/items/etc/book_%02d.sub", );
; 92   : //		CGraphicImage * pImage = (CGraphicImage *)CResourceManager::Instance().GetResourcePointer(szItemName);
; 93   : //	}
; 94   : 
; 95   : 	return Py_BuildValue("i", pItemData->GetIconImage());

  0001d	8b c8		 mov	 ecx, eax
  0001f	e8 00 00 00 00	 call	 ?GetIconImage@CItemData@@QAEPAVCGraphicSubImage@@XZ ; CItemData::GetIconImage
  00024	50		 push	 eax
  00025	68 00 00 00 00	 push	 OFFSET ??_C@_01KBJDNOO@i?$AA@
  0002a	ff 15 00 00 00
	00		 call	 DWORD PTR __imp__Py_BuildValue
  00030	83 c4 08	 add	 esp, 8

; 96   : }

  00033	c3		 ret	 0
?itemGetIconImage@@YAPAU_object@@PAU1@0@Z ENDP		; itemGetIconImage
_TEXT	ENDS
; Function compile flags: /Ogtp
; File d:\metin2\metin2\client_source_clean\client_source_clean\source\userinterface\pythonitemmodule.cpp
; File d:\metin2\metin2\client_source_clean\client_source_clean\source\eterlib\resource.h
; File c:\program files (x86)\microsoft visual studio 12.0\vc\include\xstring
; File c:\program files (x86)\microsoft visual studio 12.0\vc\include\xstddef
; File d:\metin2\metin2\client_source_clean\client_source_clean\source\userinterface\pythonitemmodule.cpp
;	COMDAT ?itemGetIconImageFileName@@YAPAU_object@@PAU1@0@Z
_TEXT	SEGMENT
_poSelf$ = 8						; size = 4
_poArgs$ = 12						; size = 4
?itemGetIconImageFileName@@YAPAU_object@@PAU1@0@Z PROC	; itemGetIconImageFileName, COMDAT

; 100  : 	CItemData * pItemData = CItemManager::Instance().GetSelectedItemDataPointer();

  00000	8b 0d 00 00 00
	00		 mov	 ecx, DWORD PTR ?ms_singleton@?$CSingleton@VCItemManager@@@@0PAVCItemManager@@A ; CSingleton<CItemManager>::ms_singleton
  00006	e8 00 00 00 00	 call	 ?GetSelectedItemDataPointer@CItemManager@@QAEPAVCItemData@@XZ ; CItemManager::GetSelectedItemDataPointer

; 101  : 	if (!pItemData)

  0000b	85 c0		 test	 eax, eax
  0000d	75 0e		 jne	 SHORT $LN2@itemGetIco

; 102  : 		return Py_BuildException("no selected item data");

  0000f	68 00 00 00 00	 push	 OFFSET ??_C@_0BG@LNOAJHHG@no?5selected?5item?5data?$AA@
  00014	e8 00 00 00 00	 call	 ?Py_BuildException@@YAPAU_object@@PBDZZ ; Py_BuildException
  00019	83 c4 04	 add	 esp, 4

; 109  : }

  0001c	c3		 ret	 0
$LN2@itemGetIco:

; 103  : 
; 104  : 	CGraphicSubImage * pImage = pItemData->GetIconImage();

  0001d	8b c8		 mov	 ecx, eax
  0001f	e8 00 00 00 00	 call	 ?GetIconImage@CItemData@@QAEPAVCGraphicSubImage@@XZ ; CItemData::GetIconImage

; 105  : 	if (!pImage)

  00024	85 c0		 test	 eax, eax
  00026	75 14		 jne	 SHORT $LN1@itemGetIco

; 106  : 		return Py_BuildValue("s", "Noname");

  00028	68 00 00 00 00	 push	 OFFSET ??_C@_06HCBIANPB@Noname?$AA@

; 108  : 	return Py_BuildValue("s", pImage->GetFileName());

  0002d	68 00 00 00 00	 push	 OFFSET ??_C@_01LKDEMHDF@s?$AA@
  00032	ff 15 00 00 00
	00		 call	 DWORD PTR __imp__Py_BuildValue
  00038	83 c4 08	 add	 esp, 8

; 109  : }

  0003b	c3		 ret	 0
$LN1@itemGetIco:
; File d:\metin2\metin2\client_source_clean\client_source_clean\source\eterlib\resource.h

; 46   : 		const char *	GetFileName() const			{ return m_stFileName.c_str();				}

  0003c	83 c0 0c	 add	 eax, 12			; 0000000cH
; File c:\program files (x86)\microsoft visual studio 12.0\vc\include\xstring

; 520  : 			: this->_Bx._Buf);

  0003f	83 78 14 10	 cmp	 DWORD PTR [eax+20], 16	; 00000010H
  00043	72 02		 jb	 SHORT $LN14@itemGetIco
; File c:\program files (x86)\microsoft visual studio 12.0\vc\include\xstddef

; 95   : 		reinterpret_cast<const volatile char&>(_Val)))));

  00045	8b 00		 mov	 eax, DWORD PTR [eax]
$LN14@itemGetIco:
; File d:\metin2\metin2\client_source_clean\client_source_clean\source\userinterface\pythonitemmodule.cpp

; 108  : 	return Py_BuildValue("s", pImage->GetFileName());

  00047	50		 push	 eax
  00048	68 00 00 00 00	 push	 OFFSET ??_C@_01LKDEMHDF@s?$AA@
  0004d	ff 15 00 00 00
	00		 call	 DWORD PTR __imp__Py_BuildValue
  00053	83 c4 08	 add	 esp, 8

; 109  : }

  00056	c3		 ret	 0
?itemGetIconImageFileName@@YAPAU_object@@PAU1@0@Z ENDP	; itemGetIconImageFileName
_TEXT	ENDS
; Function compile flags: /Ogtp
; File d:\metin2\metin2\client_source_clean\client_source_clean\source\userinterface\pythonitemmodule.cpp
;	COMDAT ?itemGetItemSize@@YAPAU_object@@PAU1@0@Z
_TEXT	SEGMENT
_poSelf$ = 8						; size = 4
_poArgs$ = 12						; size = 4
?itemGetItemSize@@YAPAU_object@@PAU1@0@Z PROC		; itemGetItemSize, COMDAT

; 113  : 	CItemData * pItemData = CItemManager::Instance().GetSelectedItemDataPointer();

  00000	8b 0d 00 00 00
	00		 mov	 ecx, DWORD PTR ?ms_singleton@?$CSingleton@VCItemManager@@@@0PAVCItemManager@@A ; CSingleton<CItemManager>::ms_singleton
  00006	e8 00 00 00 00	 call	 ?GetSelectedItemDataPointer@CItemManager@@QAEPAVCItemData@@XZ ; CItemManager::GetSelectedItemDataPointer

; 114  : 	if (!pItemData)

  0000b	85 c0		 test	 eax, eax
  0000d	75 0e		 jne	 SHORT $LN1@itemGetIte

; 115  : 		return Py_BuildException("no selected item data");

  0000f	68 00 00 00 00	 push	 OFFSET ??_C@_0BG@LNOAJHHG@no?5selected?5item?5data?$AA@
  00014	e8 00 00 00 00	 call	 ?Py_BuildException@@YAPAU_object@@PBDZZ ; Py_BuildException
  00019	83 c4 04	 add	 esp, 4

; 118  : }

  0001c	c3		 ret	 0
$LN1@itemGetIte:

; 116  : 
; 117  : 	return Py_BuildValue("(ii)", 1, pItemData->GetSize());

  0001d	8b c8		 mov	 ecx, eax
  0001f	e8 00 00 00 00	 call	 ?GetSize@CItemData@@QBEEXZ ; CItemData::GetSize
  00024	0f b6 c0	 movzx	 eax, al
  00027	50		 push	 eax
  00028	6a 01		 push	 1
  0002a	68 00 00 00 00	 push	 OFFSET ??_C@_04INACLLOK@?$CIii?$CJ?$AA@
  0002f	ff 15 00 00 00
	00		 call	 DWORD PTR __imp__Py_BuildValue
  00035	83 c4 0c	 add	 esp, 12			; 0000000cH

; 118  : }

  00038	c3		 ret	 0
?itemGetItemSize@@YAPAU_object@@PAU1@0@Z ENDP		; itemGetItemSize
_TEXT	ENDS
; Function compile flags: /Ogtp
; File d:\metin2\metin2\client_source_clean\client_source_clean\source\userinterface\pythonitemmodule.cpp
;	COMDAT ?itemGetItemType@@YAPAU_object@@PAU1@0@Z
_TEXT	SEGMENT
_poSelf$ = 8						; size = 4
_poArgs$ = 12						; size = 4
?itemGetItemType@@YAPAU_object@@PAU1@0@Z PROC		; itemGetItemType, COMDAT

; 122  : 	CItemData * pItemData = CItemManager::Instance().GetSelectedItemDataPointer();

  00000	8b 0d 00 00 00
	00		 mov	 ecx, DWORD PTR ?ms_singleton@?$CSingleton@VCItemManager@@@@0PAVCItemManager@@A ; CSingleton<CItemManager>::ms_singleton
  00006	e8 00 00 00 00	 call	 ?GetSelectedItemDataPointer@CItemManager@@QAEPAVCItemData@@XZ ; CItemManager::GetSelectedItemDataPointer

; 123  : 	if (!pItemData)

  0000b	85 c0		 test	 eax, eax
  0000d	75 0e		 jne	 SHORT $LN1@itemGetIte

; 124  : 		return Py_BuildException("no selected item data");

  0000f	68 00 00 00 00	 push	 OFFSET ??_C@_0BG@LNOAJHHG@no?5selected?5item?5data?$AA@
  00014	e8 00 00 00 00	 call	 ?Py_BuildException@@YAPAU_object@@PBDZZ ; Py_BuildException
  00019	83 c4 04	 add	 esp, 4

; 127  : }

  0001c	c3		 ret	 0
$LN1@itemGetIte:

; 125  : 
; 126  : 	return Py_BuildValue("i", pItemData->GetType());

  0001d	8b c8		 mov	 ecx, eax
  0001f	e8 00 00 00 00	 call	 ?GetType@CItemData@@QBEEXZ ; CItemData::GetType
  00024	0f b6 c0	 movzx	 eax, al
  00027	50		 push	 eax
  00028	68 00 00 00 00	 push	 OFFSET ??_C@_01KBJDNOO@i?$AA@
  0002d	ff 15 00 00 00
	00		 call	 DWORD PTR __imp__Py_BuildValue
  00033	83 c4 08	 add	 esp, 8

; 127  : }

  00036	c3		 ret	 0
?itemGetItemType@@YAPAU_object@@PAU1@0@Z ENDP		; itemGetItemType
_TEXT	ENDS
; Function compile flags: /Ogtp
; File d:\metin2\metin2\client_source_clean\client_source_clean\source\userinterface\pythonitemmodule.cpp
;	COMDAT ?itemGetItemSubType@@YAPAU_object@@PAU1@0@Z
_TEXT	SEGMENT
_poSelf$ = 8						; size = 4
_poArgs$ = 12						; size = 4
?itemGetItemSubType@@YAPAU_object@@PAU1@0@Z PROC	; itemGetItemSubType, COMDAT

; 131  : 	CItemData * pItemData = CItemManager::Instance().GetSelectedItemDataPointer();

  00000	8b 0d 00 00 00
	00		 mov	 ecx, DWORD PTR ?ms_singleton@?$CSingleton@VCItemManager@@@@0PAVCItemManager@@A ; CSingleton<CItemManager>::ms_singleton
  00006	e8 00 00 00 00	 call	 ?GetSelectedItemDataPointer@CItemManager@@QAEPAVCItemData@@XZ ; CItemManager::GetSelectedItemDataPointer

; 132  : 	if (!pItemData)

  0000b	85 c0		 test	 eax, eax
  0000d	75 0e		 jne	 SHORT $LN1@itemGetIte

; 133  : 		return Py_BuildException("no selected item data");

  0000f	68 00 00 00 00	 push	 OFFSET ??_C@_0BG@LNOAJHHG@no?5selected?5item?5data?$AA@
  00014	e8 00 00 00 00	 call	 ?Py_BuildException@@YAPAU_object@@PBDZZ ; Py_BuildException
  00019	83 c4 04	 add	 esp, 4

; 136  : }

  0001c	c3		 ret	 0
$LN1@itemGetIte:

; 134  : 
; 135  : 	return Py_BuildValue("i", pItemData->GetSubType());

  0001d	8b c8		 mov	 ecx, eax
  0001f	e8 00 00 00 00	 call	 ?GetSubType@CItemData@@QBEEXZ ; CItemData::GetSubType
  00024	0f b6 c0	 movzx	 eax, al
  00027	50		 push	 eax
  00028	68 00 00 00 00	 push	 OFFSET ??_C@_01KBJDNOO@i?$AA@
  0002d	ff 15 00 00 00
	00		 call	 DWORD PTR __imp__Py_BuildValue
  00033	83 c4 08	 add	 esp, 8

; 136  : }

  00036	c3		 ret	 0
?itemGetItemSubType@@YAPAU_object@@PAU1@0@Z ENDP	; itemGetItemSubType
_TEXT	ENDS
; Function compile flags: /Ogtp
; File d:\metin2\metin2\client_source_clean\client_source_clean\source\userinterface\pythonitemmodule.cpp
;	COMDAT ?itemGetIBuyItemPrice@@YAPAU_object@@PAU1@0@Z
_TEXT	SEGMENT
_poSelf$ = 8						; size = 4
_poArgs$ = 12						; size = 4
?itemGetIBuyItemPrice@@YAPAU_object@@PAU1@0@Z PROC	; itemGetIBuyItemPrice, COMDAT

; 140  : 	CItemData * pItemData = CItemManager::Instance().GetSelectedItemDataPointer();

  00000	8b 0d 00 00 00
	00		 mov	 ecx, DWORD PTR ?ms_singleton@?$CSingleton@VCItemManager@@@@0PAVCItemManager@@A ; CSingleton<CItemManager>::ms_singleton
  00006	e8 00 00 00 00	 call	 ?GetSelectedItemDataPointer@CItemManager@@QAEPAVCItemData@@XZ ; CItemManager::GetSelectedItemDataPointer

; 141  : 	
; 142  : 	if (!pItemData)

  0000b	85 c0		 test	 eax, eax
  0000d	75 0e		 jne	 SHORT $LN1@itemGetIBu

; 143  : 		return Py_BuildException("no selected item data");

  0000f	68 00 00 00 00	 push	 OFFSET ??_C@_0BG@LNOAJHHG@no?5selected?5item?5data?$AA@
  00014	e8 00 00 00 00	 call	 ?Py_BuildException@@YAPAU_object@@PBDZZ ; Py_BuildException
  00019	83 c4 04	 add	 esp, 4

; 146  : }

  0001c	c3		 ret	 0
$LN1@itemGetIBu:

; 144  : 
; 145  : 	return Py_BuildValue("i", pItemData->GetIBuyItemPrice());

  0001d	8b c8		 mov	 ecx, eax
  0001f	e8 00 00 00 00	 call	 ?GetIBuyItemPrice@CItemData@@QBEKXZ ; CItemData::GetIBuyItemPrice
  00024	50		 push	 eax
  00025	68 00 00 00 00	 push	 OFFSET ??_C@_01KBJDNOO@i?$AA@
  0002a	ff 15 00 00 00
	00		 call	 DWORD PTR __imp__Py_BuildValue
  00030	83 c4 08	 add	 esp, 8

; 146  : }

  00033	c3		 ret	 0
?itemGetIBuyItemPrice@@YAPAU_object@@PAU1@0@Z ENDP	; itemGetIBuyItemPrice
_TEXT	ENDS
; Function compile flags: /Ogtp
; File d:\metin2\metin2\client_source_clean\client_source_clean\source\userinterface\pythonitemmodule.cpp
;	COMDAT ?itemGetISellItemPrice@@YAPAU_object@@PAU1@0@Z
_TEXT	SEGMENT
_poSelf$ = 8						; size = 4
_poArgs$ = 12						; size = 4
?itemGetISellItemPrice@@YAPAU_object@@PAU1@0@Z PROC	; itemGetISellItemPrice, COMDAT

; 150  : 	CItemData * pItemData = CItemManager::Instance().GetSelectedItemDataPointer();

  00000	8b 0d 00 00 00
	00		 mov	 ecx, DWORD PTR ?ms_singleton@?$CSingleton@VCItemManager@@@@0PAVCItemManager@@A ; CSingleton<CItemManager>::ms_singleton
  00006	e8 00 00 00 00	 call	 ?GetSelectedItemDataPointer@CItemManager@@QAEPAVCItemData@@XZ ; CItemManager::GetSelectedItemDataPointer

; 151  : 	
; 152  : 	if (!pItemData)

  0000b	85 c0		 test	 eax, eax
  0000d	75 0e		 jne	 SHORT $LN1@itemGetISe

; 153  : 		return Py_BuildException("no selected item data");

  0000f	68 00 00 00 00	 push	 OFFSET ??_C@_0BG@LNOAJHHG@no?5selected?5item?5data?$AA@
  00014	e8 00 00 00 00	 call	 ?Py_BuildException@@YAPAU_object@@PBDZZ ; Py_BuildException
  00019	83 c4 04	 add	 esp, 4

; 156  : }

  0001c	c3		 ret	 0
$LN1@itemGetISe:

; 154  : 
; 155  : 	return Py_BuildValue("i", pItemData->GetISellItemPrice());

  0001d	8b c8		 mov	 ecx, eax
  0001f	e8 00 00 00 00	 call	 ?GetISellItemPrice@CItemData@@QBEKXZ ; CItemData::GetISellItemPrice
  00024	50		 push	 eax
  00025	68 00 00 00 00	 push	 OFFSET ??_C@_01KBJDNOO@i?$AA@
  0002a	ff 15 00 00 00
	00		 call	 DWORD PTR __imp__Py_BuildValue
  00030	83 c4 08	 add	 esp, 8

; 156  : }

  00033	c3		 ret	 0
?itemGetISellItemPrice@@YAPAU_object@@PAU1@0@Z ENDP	; itemGetISellItemPrice
_TEXT	ENDS
; Function compile flags: /Ogtp
; File d:\metin2\metin2\client_source_clean\client_source_clean\source\userinterface\pythonitemmodule.cpp
;	COMDAT ?itemIsAntiFlag@@YAPAU_object@@PAU1@0@Z
_TEXT	SEGMENT
_iFlag$ = -4						; size = 4
_poSelf$ = 8						; size = 4
_poArgs$ = 12						; size = 4
?itemIsAntiFlag@@YAPAU_object@@PAU1@0@Z PROC		; itemIsAntiFlag, COMDAT

; 160  : {

  00000	55		 push	 ebp
  00001	8b ec		 mov	 ebp, esp
  00003	51		 push	 ecx

; 161  : 	int iFlag;
; 162  : 	if (!PyTuple_GetInteger(poArgs, 0, &iFlag))

  00004	8d 45 fc	 lea	 eax, DWORD PTR _iFlag$[ebp]
  00007	50		 push	 eax
  00008	6a 00		 push	 0
  0000a	ff 75 0c	 push	 DWORD PTR _poArgs$[ebp]
  0000d	e8 00 00 00 00	 call	 ?PyTuple_GetInteger@@YA_NPAU_object@@HPAH@Z ; PyTuple_GetInteger
  00012	83 c4 0c	 add	 esp, 12			; 0000000cH
  00015	84 c0		 test	 al, al
  00017	75 09		 jne	 SHORT $LN2@itemIsAnti

; 163  : 		return Py_BadArgument();

  00019	e8 00 00 00 00	 call	 ?Py_BadArgument@@YAPAU_object@@XZ ; Py_BadArgument

; 170  : }

  0001e	8b e5		 mov	 esp, ebp
  00020	5d		 pop	 ebp
  00021	c3		 ret	 0
$LN2@itemIsAnti:

; 164  : 
; 165  : 	CItemData * pItemData = CItemManager::Instance().GetSelectedItemDataPointer();

  00022	8b 0d 00 00 00
	00		 mov	 ecx, DWORD PTR ?ms_singleton@?$CSingleton@VCItemManager@@@@0PAVCItemManager@@A ; CSingleton<CItemManager>::ms_singleton
  00028	e8 00 00 00 00	 call	 ?GetSelectedItemDataPointer@CItemManager@@QAEPAVCItemData@@XZ ; CItemManager::GetSelectedItemDataPointer

; 166  : 	if (!pItemData)

  0002d	85 c0		 test	 eax, eax
  0002f	75 11		 jne	 SHORT $LN1@itemIsAnti

; 167  : 		return Py_BuildException("no selected item data");

  00031	68 00 00 00 00	 push	 OFFSET ??_C@_0BG@LNOAJHHG@no?5selected?5item?5data?$AA@
  00036	e8 00 00 00 00	 call	 ?Py_BuildException@@YAPAU_object@@PBDZZ ; Py_BuildException
  0003b	83 c4 04	 add	 esp, 4

; 170  : }

  0003e	8b e5		 mov	 esp, ebp
  00040	5d		 pop	 ebp
  00041	c3		 ret	 0
$LN1@itemIsAnti:

; 168  : 
; 169  : 	return Py_BuildValue("i", pItemData->IsAntiFlag(iFlag));

  00042	ff 75 fc	 push	 DWORD PTR _iFlag$[ebp]
  00045	8b c8		 mov	 ecx, eax
  00047	e8 00 00 00 00	 call	 ?IsAntiFlag@CItemData@@QBEHK@Z ; CItemData::IsAntiFlag
  0004c	50		 push	 eax
  0004d	68 00 00 00 00	 push	 OFFSET ??_C@_01KBJDNOO@i?$AA@
  00052	ff 15 00 00 00
	00		 call	 DWORD PTR __imp__Py_BuildValue
  00058	83 c4 08	 add	 esp, 8

; 170  : }

  0005b	8b e5		 mov	 esp, ebp
  0005d	5d		 pop	 ebp
  0005e	c3		 ret	 0
?itemIsAntiFlag@@YAPAU_object@@PAU1@0@Z ENDP		; itemIsAntiFlag
_TEXT	ENDS
; Function compile flags: /Ogtp
; File d:\metin2\metin2\client_source_clean\client_source_clean\source\userinterface\pythonitemmodule.cpp
;	COMDAT ?itemIsFlag@@YAPAU_object@@PAU1@0@Z
_TEXT	SEGMENT
_iFlag$ = -4						; size = 4
_poSelf$ = 8						; size = 4
_poArgs$ = 12						; size = 4
?itemIsFlag@@YAPAU_object@@PAU1@0@Z PROC		; itemIsFlag, COMDAT

; 173  : {

  00000	55		 push	 ebp
  00001	8b ec		 mov	 ebp, esp
  00003	51		 push	 ecx

; 174  : 	int iFlag;
; 175  : 	if (!PyTuple_GetInteger(poArgs, 0, &iFlag))

  00004	8d 45 fc	 lea	 eax, DWORD PTR _iFlag$[ebp]
  00007	50		 push	 eax
  00008	6a 00		 push	 0
  0000a	ff 75 0c	 push	 DWORD PTR _poArgs$[ebp]
  0000d	e8 00 00 00 00	 call	 ?PyTuple_GetInteger@@YA_NPAU_object@@HPAH@Z ; PyTuple_GetInteger
  00012	83 c4 0c	 add	 esp, 12			; 0000000cH
  00015	84 c0		 test	 al, al
  00017	75 09		 jne	 SHORT $LN2@itemIsFlag

; 176  : 		return Py_BadArgument();

  00019	e8 00 00 00 00	 call	 ?Py_BadArgument@@YAPAU_object@@XZ ; Py_BadArgument

; 183  : }

  0001e	8b e5		 mov	 esp, ebp
  00020	5d		 pop	 ebp
  00021	c3		 ret	 0
$LN2@itemIsFlag:

; 177  : 
; 178  : 	CItemData * pItemData = CItemManager::Instance().GetSelectedItemDataPointer();

  00022	8b 0d 00 00 00
	00		 mov	 ecx, DWORD PTR ?ms_singleton@?$CSingleton@VCItemManager@@@@0PAVCItemManager@@A ; CSingleton<CItemManager>::ms_singleton
  00028	e8 00 00 00 00	 call	 ?GetSelectedItemDataPointer@CItemManager@@QAEPAVCItemData@@XZ ; CItemManager::GetSelectedItemDataPointer

; 179  : 	if (!pItemData)

  0002d	85 c0		 test	 eax, eax
  0002f	75 11		 jne	 SHORT $LN1@itemIsFlag

; 180  : 		return Py_BuildException("no selected item data");

  00031	68 00 00 00 00	 push	 OFFSET ??_C@_0BG@LNOAJHHG@no?5selected?5item?5data?$AA@
  00036	e8 00 00 00 00	 call	 ?Py_BuildException@@YAPAU_object@@PBDZZ ; Py_BuildException
  0003b	83 c4 04	 add	 esp, 4

; 183  : }

  0003e	8b e5		 mov	 esp, ebp
  00040	5d		 pop	 ebp
  00041	c3		 ret	 0
$LN1@itemIsFlag:

; 181  : 
; 182  : 	return Py_BuildValue("i", pItemData->IsFlag(iFlag));

  00042	ff 75 fc	 push	 DWORD PTR _iFlag$[ebp]
  00045	8b c8		 mov	 ecx, eax
  00047	e8 00 00 00 00	 call	 ?IsFlag@CItemData@@QBEHK@Z ; CItemData::IsFlag
  0004c	50		 push	 eax
  0004d	68 00 00 00 00	 push	 OFFSET ??_C@_01KBJDNOO@i?$AA@
  00052	ff 15 00 00 00
	00		 call	 DWORD PTR __imp__Py_BuildValue
  00058	83 c4 08	 add	 esp, 8

; 183  : }

  0005b	8b e5		 mov	 esp, ebp
  0005d	5d		 pop	 ebp
  0005e	c3		 ret	 0
?itemIsFlag@@YAPAU_object@@PAU1@0@Z ENDP		; itemIsFlag
_TEXT	ENDS
; Function compile flags: /Ogtp
; File d:\metin2\metin2\client_source_clean\client_source_clean\source\userinterface\pythonitemmodule.cpp
;	COMDAT ?itemIsWearableFlag@@YAPAU_object@@PAU1@0@Z
_TEXT	SEGMENT
_iFlag$ = -4						; size = 4
_poSelf$ = 8						; size = 4
_poArgs$ = 12						; size = 4
?itemIsWearableFlag@@YAPAU_object@@PAU1@0@Z PROC	; itemIsWearableFlag, COMDAT

; 186  : {

  00000	55		 push	 ebp
  00001	8b ec		 mov	 ebp, esp
  00003	51		 push	 ecx

; 187  : 	int iFlag;
; 188  : 	if (!PyTuple_GetInteger(poArgs, 0, &iFlag))

  00004	8d 45 fc	 lea	 eax, DWORD PTR _iFlag$[ebp]
  00007	50		 push	 eax
  00008	6a 00		 push	 0
  0000a	ff 75 0c	 push	 DWORD PTR _poArgs$[ebp]
  0000d	e8 00 00 00 00	 call	 ?PyTuple_GetInteger@@YA_NPAU_object@@HPAH@Z ; PyTuple_GetInteger
  00012	83 c4 0c	 add	 esp, 12			; 0000000cH
  00015	84 c0		 test	 al, al
  00017	75 09		 jne	 SHORT $LN2@itemIsWear

; 189  : 		return Py_BadArgument();

  00019	e8 00 00 00 00	 call	 ?Py_BadArgument@@YAPAU_object@@XZ ; Py_BadArgument

; 196  : }

  0001e	8b e5		 mov	 esp, ebp
  00020	5d		 pop	 ebp
  00021	c3		 ret	 0
$LN2@itemIsWear:

; 190  : 
; 191  : 	CItemData * pItemData = CItemManager::Instance().GetSelectedItemDataPointer();

  00022	8b 0d 00 00 00
	00		 mov	 ecx, DWORD PTR ?ms_singleton@?$CSingleton@VCItemManager@@@@0PAVCItemManager@@A ; CSingleton<CItemManager>::ms_singleton
  00028	e8 00 00 00 00	 call	 ?GetSelectedItemDataPointer@CItemManager@@QAEPAVCItemData@@XZ ; CItemManager::GetSelectedItemDataPointer

; 192  : 	if (!pItemData)

  0002d	85 c0		 test	 eax, eax
  0002f	75 11		 jne	 SHORT $LN1@itemIsWear

; 193  : 		return Py_BuildException("no selected item data");

  00031	68 00 00 00 00	 push	 OFFSET ??_C@_0BG@LNOAJHHG@no?5selected?5item?5data?$AA@
  00036	e8 00 00 00 00	 call	 ?Py_BuildException@@YAPAU_object@@PBDZZ ; Py_BuildException
  0003b	83 c4 04	 add	 esp, 4

; 196  : }

  0003e	8b e5		 mov	 esp, ebp
  00040	5d		 pop	 ebp
  00041	c3		 ret	 0
$LN1@itemIsWear:

; 194  : 
; 195  : 	return Py_BuildValue("i", pItemData->IsWearableFlag(iFlag));

  00042	ff 75 fc	 push	 DWORD PTR _iFlag$[ebp]
  00045	8b c8		 mov	 ecx, eax
  00047	e8 00 00 00 00	 call	 ?IsWearableFlag@CItemData@@QBEHK@Z ; CItemData::IsWearableFlag
  0004c	50		 push	 eax
  0004d	68 00 00 00 00	 push	 OFFSET ??_C@_01KBJDNOO@i?$AA@
  00052	ff 15 00 00 00
	00		 call	 DWORD PTR __imp__Py_BuildValue
  00058	83 c4 08	 add	 esp, 8

; 196  : }

  0005b	8b e5		 mov	 esp, ebp
  0005d	5d		 pop	 ebp
  0005e	c3		 ret	 0
?itemIsWearableFlag@@YAPAU_object@@PAU1@0@Z ENDP	; itemIsWearableFlag
_TEXT	ENDS
; Function compile flags: /Ogtp
; File d:\metin2\metin2\client_source_clean\client_source_clean\source\userinterface\pythonitemmodule.cpp
;	COMDAT ?itemIs1GoldItem@@YAPAU_object@@PAU1@0@Z
_TEXT	SEGMENT
_poSelf$ = 8						; size = 4
_poArgs$ = 12						; size = 4
?itemIs1GoldItem@@YAPAU_object@@PAU1@0@Z PROC		; itemIs1GoldItem, COMDAT

; 200  : 	CItemData * pItemData = CItemManager::Instance().GetSelectedItemDataPointer();

  00000	8b 0d 00 00 00
	00		 mov	 ecx, DWORD PTR ?ms_singleton@?$CSingleton@VCItemManager@@@@0PAVCItemManager@@A ; CSingleton<CItemManager>::ms_singleton
  00006	e8 00 00 00 00	 call	 ?GetSelectedItemDataPointer@CItemManager@@QAEPAVCItemData@@XZ ; CItemManager::GetSelectedItemDataPointer

; 201  : 	if (!pItemData)

  0000b	85 c0		 test	 eax, eax
  0000d	75 0e		 jne	 SHORT $LN1@itemIs1Gol

; 202  : 		return Py_BuildException("no selected item data");

  0000f	68 00 00 00 00	 push	 OFFSET ??_C@_0BG@LNOAJHHG@no?5selected?5item?5data?$AA@
  00014	e8 00 00 00 00	 call	 ?Py_BuildException@@YAPAU_object@@PBDZZ ; Py_BuildException
  00019	83 c4 04	 add	 esp, 4

; 205  : }

  0001c	c3		 ret	 0
$LN1@itemIs1Gol:

; 203  : 
; 204  : 	return Py_BuildValue("i", pItemData->IsFlag(CItemData::ITEM_FLAG_COUNT_PER_1GOLD));

  0001d	6a 08		 push	 8
  0001f	8b c8		 mov	 ecx, eax
  00021	e8 00 00 00 00	 call	 ?IsFlag@CItemData@@QBEHK@Z ; CItemData::IsFlag
  00026	50		 push	 eax
  00027	68 00 00 00 00	 push	 OFFSET ??_C@_01KBJDNOO@i?$AA@
  0002c	ff 15 00 00 00
	00		 call	 DWORD PTR __imp__Py_BuildValue
  00032	83 c4 08	 add	 esp, 8

; 205  : }

  00035	c3		 ret	 0
?itemIs1GoldItem@@YAPAU_object@@PAU1@0@Z ENDP		; itemIs1GoldItem
_TEXT	ENDS
; Function compile flags: /Ogtp
; File d:\metin2\metin2\client_source_clean\client_source_clean\source\userinterface\pythonitemmodule.cpp
;	COMDAT ?itemGetLimit@@YAPAU_object@@PAU1@0@Z
_TEXT	SEGMENT
_ItemLimit$ = -12					; size = 5
_iValueIndex$ = -4					; size = 4
_poSelf$ = 8						; size = 4
_poArgs$ = 12						; size = 4
?itemGetLimit@@YAPAU_object@@PAU1@0@Z PROC		; itemGetLimit, COMDAT

; 208  : {

  00000	55		 push	 ebp
  00001	8b ec		 mov	 ebp, esp
  00003	83 ec 0c	 sub	 esp, 12			; 0000000cH

; 209  : 	int iValueIndex;
; 210  : 	if (!PyTuple_GetInteger(poArgs, 0, &iValueIndex))

  00006	8d 45 fc	 lea	 eax, DWORD PTR _iValueIndex$[ebp]
  00009	50		 push	 eax
  0000a	6a 00		 push	 0
  0000c	ff 75 0c	 push	 DWORD PTR _poArgs$[ebp]
  0000f	e8 00 00 00 00	 call	 ?PyTuple_GetInteger@@YA_NPAU_object@@HPAH@Z ; PyTuple_GetInteger
  00014	83 c4 0c	 add	 esp, 12			; 0000000cH
  00017	84 c0		 test	 al, al
  00019	75 09		 jne	 SHORT $LN3@itemGetLim

; 211  : 		return Py_BadArgument();

  0001b	e8 00 00 00 00	 call	 ?Py_BadArgument@@YAPAU_object@@XZ ; Py_BadArgument

; 222  : }

  00020	8b e5		 mov	 esp, ebp
  00022	5d		 pop	 ebp
  00023	c3		 ret	 0
$LN3@itemGetLim:

; 212  : 
; 213  : 	CItemData * pItemData = CItemManager::Instance().GetSelectedItemDataPointer();

  00024	8b 0d 00 00 00
	00		 mov	 ecx, DWORD PTR ?ms_singleton@?$CSingleton@VCItemManager@@@@0PAVCItemManager@@A ; CSingleton<CItemManager>::ms_singleton
  0002a	e8 00 00 00 00	 call	 ?GetSelectedItemDataPointer@CItemManager@@QAEPAVCItemData@@XZ ; CItemManager::GetSelectedItemDataPointer

; 214  : 	if (!pItemData)

  0002f	85 c0		 test	 eax, eax
  00031	75 11		 jne	 SHORT $LN2@itemGetLim

; 215  : 		return Py_BuildException("Not yet select item data");

  00033	68 00 00 00 00	 push	 OFFSET ??_C@_0BJ@FJOAFFCG@Not?5yet?5select?5item?5data?$AA@
  00038	e8 00 00 00 00	 call	 ?Py_BuildException@@YAPAU_object@@PBDZZ ; Py_BuildException
  0003d	83 c4 04	 add	 esp, 4

; 222  : }

  00040	8b e5		 mov	 esp, ebp
  00042	5d		 pop	 ebp
  00043	c3		 ret	 0
$LN2@itemGetLim:

; 216  : 
; 217  : 	CItemData::TItemLimit ItemLimit;
; 218  : 	if (!pItemData->GetLimit(iValueIndex, &ItemLimit))

  00044	8d 4d f4	 lea	 ecx, DWORD PTR _ItemLimit$[ebp]
  00047	51		 push	 ecx
  00048	ff 75 fc	 push	 DWORD PTR _iValueIndex$[ebp]
  0004b	8b c8		 mov	 ecx, eax
  0004d	e8 00 00 00 00	 call	 ?GetLimit@CItemData@@QBEHEPAUSItemLimit@1@@Z ; CItemData::GetLimit
  00052	85 c0		 test	 eax, eax
  00054	75 0d		 jne	 SHORT $LN1@itemGetLim

; 219  : 		return Py_BuildException();

  00056	50		 push	 eax
  00057	e8 00 00 00 00	 call	 ?Py_BuildException@@YAPAU_object@@PBDZZ ; Py_BuildException
  0005c	83 c4 04	 add	 esp, 4

; 222  : }

  0005f	8b e5		 mov	 esp, ebp
  00061	5d		 pop	 ebp
  00062	c3		 ret	 0
$LN1@itemGetLim:

; 220  : 
; 221  : 	return Py_BuildValue("ii", ItemLimit.bType, ItemLimit.lValue);

  00063	ff 75 f5	 push	 DWORD PTR _ItemLimit$[ebp+1]
  00066	0f b6 45 f4	 movzx	 eax, BYTE PTR _ItemLimit$[ebp]
  0006a	50		 push	 eax
  0006b	68 00 00 00 00	 push	 OFFSET ??_C@_02PDIHAGKM@ii?$AA@
  00070	ff 15 00 00 00
	00		 call	 DWORD PTR __imp__Py_BuildValue
  00076	83 c4 0c	 add	 esp, 12			; 0000000cH

; 222  : }

  00079	8b e5		 mov	 esp, ebp
  0007b	5d		 pop	 ebp
  0007c	c3		 ret	 0
?itemGetLimit@@YAPAU_object@@PAU1@0@Z ENDP		; itemGetLimit
_TEXT	ENDS
; Function compile flags: /Ogtp
; File d:\metin2\metin2\client_source_clean\client_source_clean\source\userinterface\pythonitemmodule.cpp
;	COMDAT ?itemGetAffect@@YAPAU_object@@PAU1@0@Z
_TEXT	SEGMENT
_ItemApply$ = -12					; size = 5
_iValueIndex$ = -4					; size = 4
_poSelf$ = 8						; size = 4
_poArgs$ = 12						; size = 4
?itemGetAffect@@YAPAU_object@@PAU1@0@Z PROC		; itemGetAffect, COMDAT

; 225  : {

  00000	55		 push	 ebp
  00001	8b ec		 mov	 ebp, esp
  00003	83 ec 0c	 sub	 esp, 12			; 0000000cH

; 226  : 	int iValueIndex;
; 227  : 	if (!PyTuple_GetInteger(poArgs, 0, &iValueIndex))

  00006	8d 45 fc	 lea	 eax, DWORD PTR _iValueIndex$[ebp]
  00009	50		 push	 eax
  0000a	6a 00		 push	 0
  0000c	ff 75 0c	 push	 DWORD PTR _poArgs$[ebp]
  0000f	e8 00 00 00 00	 call	 ?PyTuple_GetInteger@@YA_NPAU_object@@HPAH@Z ; PyTuple_GetInteger
  00014	83 c4 0c	 add	 esp, 12			; 0000000cH
  00017	84 c0		 test	 al, al
  00019	75 09		 jne	 SHORT $LN4@itemGetAff

; 228  : 		return Py_BadArgument();

  0001b	e8 00 00 00 00	 call	 ?Py_BadArgument@@YAPAU_object@@XZ ; Py_BadArgument

; 244  : }

  00020	8b e5		 mov	 esp, ebp
  00022	5d		 pop	 ebp
  00023	c3		 ret	 0
$LN4@itemGetAff:

; 229  : 
; 230  : 	CItemData * pItemData = CItemManager::Instance().GetSelectedItemDataPointer();

  00024	8b 0d 00 00 00
	00		 mov	 ecx, DWORD PTR ?ms_singleton@?$CSingleton@VCItemManager@@@@0PAVCItemManager@@A ; CSingleton<CItemManager>::ms_singleton
  0002a	56		 push	 esi
  0002b	e8 00 00 00 00	 call	 ?GetSelectedItemDataPointer@CItemManager@@QAEPAVCItemData@@XZ ; CItemManager::GetSelectedItemDataPointer
  00030	8b f0		 mov	 esi, eax

; 231  : 	if (!pItemData)

  00032	85 f6		 test	 esi, esi
  00034	75 12		 jne	 SHORT $LN3@itemGetAff

; 232  : 		return Py_BuildException("Not yet select item data");

  00036	68 00 00 00 00	 push	 OFFSET ??_C@_0BJ@FJOAFFCG@Not?5yet?5select?5item?5data?$AA@
  0003b	e8 00 00 00 00	 call	 ?Py_BuildException@@YAPAU_object@@PBDZZ ; Py_BuildException
  00040	83 c4 04	 add	 esp, 4
  00043	5e		 pop	 esi

; 244  : }

  00044	8b e5		 mov	 esp, ebp
  00046	5d		 pop	 ebp
  00047	c3		 ret	 0
$LN3@itemGetAff:

; 233  : 
; 234  : 	CItemData::TItemApply ItemApply;
; 235  : 	if (!pItemData->GetApply(iValueIndex, &ItemApply))

  00048	8d 45 f4	 lea	 eax, DWORD PTR _ItemApply$[ebp]
  0004b	8b ce		 mov	 ecx, esi
  0004d	50		 push	 eax
  0004e	ff 75 fc	 push	 DWORD PTR _iValueIndex$[ebp]
  00051	e8 00 00 00 00	 call	 ?GetApply@CItemData@@QBEHEPAUSItemApply@1@@Z ; CItemData::GetApply
  00056	85 c0		 test	 eax, eax
  00058	75 0e		 jne	 SHORT $LN2@itemGetAff

; 236  : 		return Py_BuildException();

  0005a	50		 push	 eax
  0005b	e8 00 00 00 00	 call	 ?Py_BuildException@@YAPAU_object@@PBDZZ ; Py_BuildException
  00060	83 c4 04	 add	 esp, 4
  00063	5e		 pop	 esi

; 244  : }

  00064	8b e5		 mov	 esp, ebp
  00066	5d		 pop	 ebp
  00067	c3		 ret	 0
$LN2@itemGetAff:

; 237  : 
; 238  : 	if ((CItemData::APPLY_ATT_SPEED == ItemApply.bType) && (CItemData::ITEM_TYPE_WEAPON == pItemData->GetType()) && (CItemData::WEAPON_TWO_HANDED == pItemData->GetSubType()))

  00068	80 7d f4 07	 cmp	 BYTE PTR _ItemApply$[ebp], 7
  0006c	75 1e		 jne	 SHORT $LN10@itemGetAff
  0006e	8b ce		 mov	 ecx, esi
  00070	e8 00 00 00 00	 call	 ?GetType@CItemData@@QBEEXZ ; CItemData::GetType
  00075	3c 01		 cmp	 al, 1
  00077	75 13		 jne	 SHORT $LN10@itemGetAff
  00079	8b ce		 mov	 ecx, esi
  0007b	e8 00 00 00 00	 call	 ?GetSubType@CItemData@@QBEEXZ ; CItemData::GetSubType
  00080	3c 03		 cmp	 al, 3
  00082	75 08		 jne	 SHORT $LN10@itemGetAff

; 239  : 	{
; 240  : 		ItemApply.lValue -= TWOHANDED_WEWAPON_ATT_SPEED_DECREASE_VALUE;

  00084	a1 00 00 00 00	 mov	 eax, DWORD PTR ?TWOHANDED_WEWAPON_ATT_SPEED_DECREASE_VALUE@@3HA ; TWOHANDED_WEWAPON_ATT_SPEED_DECREASE_VALUE
  00089	29 45 f5	 sub	 DWORD PTR _ItemApply$[ebp+1], eax
$LN10@itemGetAff:

; 241  : 	}
; 242  : 
; 243  : 	return Py_BuildValue("ii", ItemApply.bType, ItemApply.lValue);

  0008c	ff 75 f5	 push	 DWORD PTR _ItemApply$[ebp+1]
  0008f	0f b6 45 f4	 movzx	 eax, BYTE PTR _ItemApply$[ebp]
  00093	50		 push	 eax
  00094	68 00 00 00 00	 push	 OFFSET ??_C@_02PDIHAGKM@ii?$AA@
  00099	ff 15 00 00 00
	00		 call	 DWORD PTR __imp__Py_BuildValue
  0009f	83 c4 0c	 add	 esp, 12			; 0000000cH
  000a2	5e		 pop	 esi

; 244  : }

  000a3	8b e5		 mov	 esp, ebp
  000a5	5d		 pop	 ebp
  000a6	c3		 ret	 0
?itemGetAffect@@YAPAU_object@@PAU1@0@Z ENDP		; itemGetAffect
_TEXT	ENDS
; Function compile flags: /Ogtp
; File d:\metin2\metin2\client_source_clean\client_source_clean\source\userinterface\pythonitemmodule.cpp
;	COMDAT ?itemGetValue@@YAPAU_object@@PAU1@0@Z
_TEXT	SEGMENT
_iValueIndex$ = -4					; size = 4
_poSelf$ = 8						; size = 4
_poArgs$ = 12						; size = 4
?itemGetValue@@YAPAU_object@@PAU1@0@Z PROC		; itemGetValue, COMDAT

; 247  : {

  00000	55		 push	 ebp
  00001	8b ec		 mov	 ebp, esp
  00003	51		 push	 ecx

; 248  : 	int iValueIndex;
; 249  : 	if (!PyTuple_GetInteger(poArgs, 0, &iValueIndex))

  00004	8d 45 fc	 lea	 eax, DWORD PTR _iValueIndex$[ebp]
  00007	50		 push	 eax
  00008	6a 00		 push	 0
  0000a	ff 75 0c	 push	 DWORD PTR _poArgs$[ebp]
  0000d	e8 00 00 00 00	 call	 ?PyTuple_GetInteger@@YA_NPAU_object@@HPAH@Z ; PyTuple_GetInteger
  00012	83 c4 0c	 add	 esp, 12			; 0000000cH
  00015	84 c0		 test	 al, al
  00017	75 09		 jne	 SHORT $LN2@itemGetVal

; 250  : 		return Py_BadArgument();

  00019	e8 00 00 00 00	 call	 ?Py_BadArgument@@YAPAU_object@@XZ ; Py_BadArgument

; 257  : }

  0001e	8b e5		 mov	 esp, ebp
  00020	5d		 pop	 ebp
  00021	c3		 ret	 0
$LN2@itemGetVal:

; 251  : 
; 252  : 	CItemData * pItemData = CItemManager::Instance().GetSelectedItemDataPointer();

  00022	8b 0d 00 00 00
	00		 mov	 ecx, DWORD PTR ?ms_singleton@?$CSingleton@VCItemManager@@@@0PAVCItemManager@@A ; CSingleton<CItemManager>::ms_singleton
  00028	e8 00 00 00 00	 call	 ?GetSelectedItemDataPointer@CItemManager@@QAEPAVCItemData@@XZ ; CItemManager::GetSelectedItemDataPointer

; 253  : 	if (!pItemData)

  0002d	85 c0		 test	 eax, eax
  0002f	75 11		 jne	 SHORT $LN1@itemGetVal

; 254  : 		return Py_BuildException("Not yet select item data");

  00031	68 00 00 00 00	 push	 OFFSET ??_C@_0BJ@FJOAFFCG@Not?5yet?5select?5item?5data?$AA@
  00036	e8 00 00 00 00	 call	 ?Py_BuildException@@YAPAU_object@@PBDZZ ; Py_BuildException
  0003b	83 c4 04	 add	 esp, 4

; 257  : }

  0003e	8b e5		 mov	 esp, ebp
  00040	5d		 pop	 ebp
  00041	c3		 ret	 0
$LN1@itemGetVal:

; 255  : 
; 256  : 	return Py_BuildValue("i", pItemData->GetValue(iValueIndex));

  00042	ff 75 fc	 push	 DWORD PTR _iValueIndex$[ebp]
  00045	8b c8		 mov	 ecx, eax
  00047	e8 00 00 00 00	 call	 ?GetValue@CItemData@@QBEJE@Z ; CItemData::GetValue
  0004c	50		 push	 eax
  0004d	68 00 00 00 00	 push	 OFFSET ??_C@_01KBJDNOO@i?$AA@
  00052	ff 15 00 00 00
	00		 call	 DWORD PTR __imp__Py_BuildValue
  00058	83 c4 08	 add	 esp, 8

; 257  : }

  0005b	8b e5		 mov	 esp, ebp
  0005d	5d		 pop	 ebp
  0005e	c3		 ret	 0
?itemGetValue@@YAPAU_object@@PAU1@0@Z ENDP		; itemGetValue
_TEXT	ENDS
; Function compile flags: /Ogtp
; File d:\metin2\metin2\client_source_clean\client_source_clean\source\userinterface\pythonitemmodule.cpp
;	COMDAT ?itemGetSocket@@YAPAU_object@@PAU1@0@Z
_TEXT	SEGMENT
_iValueIndex$ = -4					; size = 4
_poSelf$ = 8						; size = 4
_poArgs$ = 12						; size = 4
?itemGetSocket@@YAPAU_object@@PAU1@0@Z PROC		; itemGetSocket, COMDAT

; 260  : {

  00000	55		 push	 ebp
  00001	8b ec		 mov	 ebp, esp
  00003	51		 push	 ecx

; 261  : 	int iValueIndex;
; 262  : 	if (!PyTuple_GetInteger(poArgs, 0, &iValueIndex))

  00004	8d 45 fc	 lea	 eax, DWORD PTR _iValueIndex$[ebp]
  00007	50		 push	 eax
  00008	6a 00		 push	 0
  0000a	ff 75 0c	 push	 DWORD PTR _poArgs$[ebp]
  0000d	e8 00 00 00 00	 call	 ?PyTuple_GetInteger@@YA_NPAU_object@@HPAH@Z ; PyTuple_GetInteger
  00012	83 c4 0c	 add	 esp, 12			; 0000000cH
  00015	84 c0		 test	 al, al
  00017	75 09		 jne	 SHORT $LN2@itemGetSoc

; 263  : 		return Py_BadArgument();

  00019	e8 00 00 00 00	 call	 ?Py_BadArgument@@YAPAU_object@@XZ ; Py_BadArgument

; 270  : }

  0001e	8b e5		 mov	 esp, ebp
  00020	5d		 pop	 ebp
  00021	c3		 ret	 0
$LN2@itemGetSoc:

; 264  : 
; 265  : 	CItemData * pItemData = CItemManager::Instance().GetSelectedItemDataPointer();

  00022	8b 0d 00 00 00
	00		 mov	 ecx, DWORD PTR ?ms_singleton@?$CSingleton@VCItemManager@@@@0PAVCItemManager@@A ; CSingleton<CItemManager>::ms_singleton
  00028	e8 00 00 00 00	 call	 ?GetSelectedItemDataPointer@CItemManager@@QAEPAVCItemData@@XZ ; CItemManager::GetSelectedItemDataPointer

; 266  : 	if (!pItemData)

  0002d	85 c0		 test	 eax, eax
  0002f	75 11		 jne	 SHORT $LN1@itemGetSoc

; 267  : 		return Py_BuildException("Not yet select item data");

  00031	68 00 00 00 00	 push	 OFFSET ??_C@_0BJ@FJOAFFCG@Not?5yet?5select?5item?5data?$AA@
  00036	e8 00 00 00 00	 call	 ?Py_BuildException@@YAPAU_object@@PBDZZ ; Py_BuildException
  0003b	83 c4 04	 add	 esp, 4

; 270  : }

  0003e	8b e5		 mov	 esp, ebp
  00040	5d		 pop	 ebp
  00041	c3		 ret	 0
$LN1@itemGetSoc:

; 268  : 
; 269  : 	return Py_BuildValue("i", pItemData->GetSocket(iValueIndex));

  00042	ff 75 fc	 push	 DWORD PTR _iValueIndex$[ebp]
  00045	8b c8		 mov	 ecx, eax
  00047	e8 00 00 00 00	 call	 ?GetSocket@CItemData@@QBEJE@Z ; CItemData::GetSocket
  0004c	50		 push	 eax
  0004d	68 00 00 00 00	 push	 OFFSET ??_C@_01KBJDNOO@i?$AA@
  00052	ff 15 00 00 00
	00		 call	 DWORD PTR __imp__Py_BuildValue
  00058	83 c4 08	 add	 esp, 8

; 270  : }

  0005b	8b e5		 mov	 esp, ebp
  0005d	5d		 pop	 ebp
  0005e	c3		 ret	 0
?itemGetSocket@@YAPAU_object@@PAU1@0@Z ENDP		; itemGetSocket
_TEXT	ENDS
; Function compile flags: /Ogtp
; File d:\metin2\metin2\client_source_clean\client_source_clean\source\userinterface\pythonitemmodule.cpp
;	COMDAT ?itemGetIconInstance@@YAPAU_object@@PAU1@0@Z
_TEXT	SEGMENT
_poSelf$ = 8						; size = 4
_poArgs$ = 12						; size = 4
?itemGetIconInstance@@YAPAU_object@@PAU1@0@Z PROC	; itemGetIconInstance, COMDAT

; 274  : 	CItemData * pItemData = CItemManager::Instance().GetSelectedItemDataPointer();

  00000	8b 0d 00 00 00
	00		 mov	 ecx, DWORD PTR ?ms_singleton@?$CSingleton@VCItemManager@@@@0PAVCItemManager@@A ; CSingleton<CItemManager>::ms_singleton
  00006	56		 push	 esi
  00007	e8 00 00 00 00	 call	 ?GetSelectedItemDataPointer@CItemManager@@QAEPAVCItemData@@XZ ; CItemManager::GetSelectedItemDataPointer
  0000c	8b f0		 mov	 esi, eax

; 275  : 	if (!pItemData)

  0000e	85 f6		 test	 esi, esi
  00010	75 0f		 jne	 SHORT $LN2@itemGetIco

; 276  : 		return Py_BuildException("Not yet select item data");

  00012	68 00 00 00 00	 push	 OFFSET ??_C@_0BJ@FJOAFFCG@Not?5yet?5select?5item?5data?$AA@
  00017	e8 00 00 00 00	 call	 ?Py_BuildException@@YAPAU_object@@PBDZZ ; Py_BuildException
  0001c	83 c4 04	 add	 esp, 4
  0001f	5e		 pop	 esi

; 286  : }

  00020	c3		 ret	 0
$LN2@itemGetIco:
  00021	57		 push	 edi

; 277  : 
; 278  : 	CGraphicSubImage * pImage = pItemData->GetIconImage();

  00022	8b ce		 mov	 ecx, esi
  00024	e8 00 00 00 00	 call	 ?GetIconImage@CItemData@@QAEPAVCGraphicSubImage@@XZ ; CItemData::GetIconImage
  00029	8b f8		 mov	 edi, eax

; 279  : 	if (!pImage)

  0002b	85 ff		 test	 edi, edi
  0002d	75 18		 jne	 SHORT $LN1@itemGetIco

; 280  : 		return Py_BuildException("Cannot get icon image by %d", pItemData->GetIndex());

  0002f	8b ce		 mov	 ecx, esi
  00031	e8 00 00 00 00	 call	 ?GetIndex@CItemData@@QBEKXZ ; CItemData::GetIndex
  00036	50		 push	 eax
  00037	68 00 00 00 00	 push	 OFFSET ??_C@_0BM@MLEHJLDK@Cannot?5get?5icon?5image?5by?5?$CFd?$AA@
  0003c	e8 00 00 00 00	 call	 ?Py_BuildException@@YAPAU_object@@PBDZZ ; Py_BuildException

; 284  : 
; 285  : 	return Py_BuildValue("i", pImageInstance);

  00041	83 c4 08	 add	 esp, 8
  00044	5f		 pop	 edi
  00045	5e		 pop	 esi

; 286  : }

  00046	c3		 ret	 0
$LN1@itemGetIco:

; 281  : 
; 282  : 	CGraphicImageInstance * pImageInstance = CGraphicImageInstance::New();

  00047	e8 00 00 00 00	 call	 ?New@CGraphicImageInstance@@SAPAV1@XZ ; CGraphicImageInstance::New
  0004c	8b f0		 mov	 esi, eax

; 283  : 	pImageInstance->SetImagePointer(pImage);

  0004e	57		 push	 edi
  0004f	8b ce		 mov	 ecx, esi
  00051	e8 00 00 00 00	 call	 ?SetImagePointer@CGraphicImageInstance@@QAEXPAVCGraphicImage@@@Z ; CGraphicImageInstance::SetImagePointer

; 284  : 
; 285  : 	return Py_BuildValue("i", pImageInstance);

  00056	56		 push	 esi
  00057	68 00 00 00 00	 push	 OFFSET ??_C@_01KBJDNOO@i?$AA@
  0005c	ff 15 00 00 00
	00		 call	 DWORD PTR __imp__Py_BuildValue
  00062	83 c4 08	 add	 esp, 8
  00065	5f		 pop	 edi
  00066	5e		 pop	 esi

; 286  : }

  00067	c3		 ret	 0
?itemGetIconInstance@@YAPAU_object@@PAU1@0@Z ENDP	; itemGetIconInstance
_TEXT	ENDS
; Function compile flags: /Ogtp
; File d:\metin2\metin2\client_source_clean\client_source_clean\source\userinterface\pythonitemmodule.cpp
;	COMDAT ?itemDeleteIconInstance@@YAPAU_object@@PAU1@0@Z
_TEXT	SEGMENT
_iHandle$ = -4						; size = 4
_poSelf$ = 8						; size = 4
_poArgs$ = 12						; size = 4
?itemDeleteIconInstance@@YAPAU_object@@PAU1@0@Z PROC	; itemDeleteIconInstance, COMDAT

; 289  : {

  00000	55		 push	 ebp
  00001	8b ec		 mov	 ebp, esp
  00003	51		 push	 ecx

; 290  : 	int iHandle;
; 291  : 	if (!PyTuple_GetInteger(poArgs, 0, &iHandle))

  00004	8d 45 fc	 lea	 eax, DWORD PTR _iHandle$[ebp]
  00007	50		 push	 eax
  00008	6a 00		 push	 0
  0000a	ff 75 0c	 push	 DWORD PTR _poArgs$[ebp]
  0000d	e8 00 00 00 00	 call	 ?PyTuple_GetInteger@@YA_NPAU_object@@HPAH@Z ; PyTuple_GetInteger
  00012	83 c4 0c	 add	 esp, 12			; 0000000cH
  00015	84 c0		 test	 al, al
  00017	75 09		 jne	 SHORT $LN1@itemDelete

; 292  : 		return Py_BadArgument();

  00019	e8 00 00 00 00	 call	 ?Py_BadArgument@@YAPAU_object@@XZ ; Py_BadArgument

; 297  : }

  0001e	8b e5		 mov	 esp, ebp
  00020	5d		 pop	 ebp
  00021	c3		 ret	 0
$LN1@itemDelete:

; 293  : 
; 294  : 	CGraphicImageInstance::Delete((CGraphicImageInstance *) iHandle);

  00022	ff 75 fc	 push	 DWORD PTR _iHandle$[ebp]
  00025	e8 00 00 00 00	 call	 ?Delete@CGraphicImageInstance@@SAXPAV1@@Z ; CGraphicImageInstance::Delete
  0002a	83 c4 04	 add	 esp, 4

; 295  : 
; 296  : 	return Py_BuildNone();

  0002d	e8 00 00 00 00	 call	 ?Py_BuildNone@@YAPAU_object@@XZ ; Py_BuildNone

; 297  : }

  00032	8b e5		 mov	 esp, ebp
  00034	5d		 pop	 ebp
  00035	c3		 ret	 0
?itemDeleteIconInstance@@YAPAU_object@@PAU1@0@Z ENDP	; itemDeleteIconInstance
_TEXT	ENDS
; Function compile flags: /Ogtp
; File d:\metin2\metin2\client_source_clean\client_source_clean\source\userinterface\pythonitemmodule.cpp
;	COMDAT ?itemIsEquipmentVID@@YAPAU_object@@PAU1@0@Z
_TEXT	SEGMENT
_iItemVID$ = -4						; size = 4
_poSelf$ = 8						; size = 4
_poArgs$ = 12						; size = 4
?itemIsEquipmentVID@@YAPAU_object@@PAU1@0@Z PROC	; itemIsEquipmentVID, COMDAT

; 300  : {

  00000	55		 push	 ebp
  00001	8b ec		 mov	 ebp, esp
  00003	51		 push	 ecx

; 301  : 	int iItemVID;
; 302  : 	if (!PyTuple_GetInteger(poArgs, 0, &iItemVID))

  00004	8d 45 fc	 lea	 eax, DWORD PTR _iItemVID$[ebp]
  00007	50		 push	 eax
  00008	6a 00		 push	 0
  0000a	ff 75 0c	 push	 DWORD PTR _poArgs$[ebp]
  0000d	e8 00 00 00 00	 call	 ?PyTuple_GetInteger@@YA_NPAU_object@@HPAH@Z ; PyTuple_GetInteger
  00012	83 c4 0c	 add	 esp, 12			; 0000000cH
  00015	84 c0		 test	 al, al
  00017	75 09		 jne	 SHORT $LN2@itemIsEqui

; 303  : 		return Py_BadArgument();

  00019	e8 00 00 00 00	 call	 ?Py_BadArgument@@YAPAU_object@@XZ ; Py_BadArgument

; 311  : }

  0001e	8b e5		 mov	 esp, ebp
  00020	5d		 pop	 ebp
  00021	c3		 ret	 0
$LN2@itemIsEqui:

; 304  : 
; 305  : 	CItemManager::Instance().SelectItemData(iItemVID);

  00022	ff 75 fc	 push	 DWORD PTR _iItemVID$[ebp]
  00025	8b 0d 00 00 00
	00		 mov	 ecx, DWORD PTR ?ms_singleton@?$CSingleton@VCItemManager@@@@0PAVCItemManager@@A ; CSingleton<CItemManager>::ms_singleton
  0002b	e8 00 00 00 00	 call	 ?SelectItemData@CItemManager@@QAEHK@Z ; CItemManager::SelectItemData

; 306  : 	CItemData * pItemData = CItemManager::Instance().GetSelectedItemDataPointer();

  00030	8b 0d 00 00 00
	00		 mov	 ecx, DWORD PTR ?ms_singleton@?$CSingleton@VCItemManager@@@@0PAVCItemManager@@A ; CSingleton<CItemManager>::ms_singleton
  00036	e8 00 00 00 00	 call	 ?GetSelectedItemDataPointer@CItemManager@@QAEPAVCItemData@@XZ ; CItemManager::GetSelectedItemDataPointer

; 307  : 	if (!pItemData)

  0003b	85 c0		 test	 eax, eax
  0003d	75 11		 jne	 SHORT $LN1@itemIsEqui

; 308  : 		return Py_BuildException("Not yet select item data");

  0003f	68 00 00 00 00	 push	 OFFSET ??_C@_0BJ@FJOAFFCG@Not?5yet?5select?5item?5data?$AA@
  00044	e8 00 00 00 00	 call	 ?Py_BuildException@@YAPAU_object@@PBDZZ ; Py_BuildException
  00049	83 c4 04	 add	 esp, 4

; 311  : }

  0004c	8b e5		 mov	 esp, ebp
  0004e	5d		 pop	 ebp
  0004f	c3		 ret	 0
$LN1@itemIsEqui:

; 309  : 
; 310  : 	return Py_BuildValue("i", pItemData->IsEquipment());

  00050	8b c8		 mov	 ecx, eax
  00052	e8 00 00 00 00	 call	 ?IsEquipment@CItemData@@QBEHXZ ; CItemData::IsEquipment
  00057	50		 push	 eax
  00058	68 00 00 00 00	 push	 OFFSET ??_C@_01KBJDNOO@i?$AA@
  0005d	ff 15 00 00 00
	00		 call	 DWORD PTR __imp__Py_BuildValue
  00063	83 c4 08	 add	 esp, 8

; 311  : }

  00066	8b e5		 mov	 esp, ebp
  00068	5d		 pop	 ebp
  00069	c3		 ret	 0
?itemIsEquipmentVID@@YAPAU_object@@PAU1@0@Z ENDP	; itemIsEquipmentVID
_TEXT	ENDS
; Function compile flags: /Ogtp
; File d:\metin2\metin2\client_source_clean\client_source_clean\source\userinterface\pythonitemmodule.cpp
;	COMDAT ?itemGetUseType@@YAPAU_object@@PAU1@0@Z
_TEXT	SEGMENT
_iItemVID$ = -4						; size = 4
_poSelf$ = 8						; size = 4
_poArgs$ = 12						; size = 4
?itemGetUseType@@YAPAU_object@@PAU1@0@Z PROC		; itemGetUseType, COMDAT

; 315  : {

  00000	55		 push	 ebp
  00001	8b ec		 mov	 ebp, esp
  00003	51		 push	 ecx

; 316  : 	int iItemVID;
; 317  : 	if (!PyTuple_GetInteger(poArgs, 0, &iItemVID))

  00004	8d 45 fc	 lea	 eax, DWORD PTR _iItemVID$[ebp]
  00007	50		 push	 eax
  00008	6a 00		 push	 0
  0000a	ff 75 0c	 push	 DWORD PTR _poArgs$[ebp]
  0000d	e8 00 00 00 00	 call	 ?PyTuple_GetInteger@@YA_NPAU_object@@HPAH@Z ; PyTuple_GetInteger
  00012	83 c4 0c	 add	 esp, 12			; 0000000cH
  00015	84 c0		 test	 al, al
  00017	75 09		 jne	 SHORT $LN2@itemGetUse

; 318  : 		return Py_BadArgument();

  00019	e8 00 00 00 00	 call	 ?Py_BadArgument@@YAPAU_object@@XZ ; Py_BadArgument

; 326  : }

  0001e	8b e5		 mov	 esp, ebp
  00020	5d		 pop	 ebp
  00021	c3		 ret	 0
$LN2@itemGetUse:

; 319  : 
; 320  : 	CItemManager::Instance().SelectItemData(iItemVID);

  00022	ff 75 fc	 push	 DWORD PTR _iItemVID$[ebp]
  00025	8b 0d 00 00 00
	00		 mov	 ecx, DWORD PTR ?ms_singleton@?$CSingleton@VCItemManager@@@@0PAVCItemManager@@A ; CSingleton<CItemManager>::ms_singleton
  0002b	e8 00 00 00 00	 call	 ?SelectItemData@CItemManager@@QAEHK@Z ; CItemManager::SelectItemData

; 321  : 	CItemData * pItemData = CItemManager::Instance().GetSelectedItemDataPointer();

  00030	8b 0d 00 00 00
	00		 mov	 ecx, DWORD PTR ?ms_singleton@?$CSingleton@VCItemManager@@@@0PAVCItemManager@@A ; CSingleton<CItemManager>::ms_singleton
  00036	e8 00 00 00 00	 call	 ?GetSelectedItemDataPointer@CItemManager@@QAEPAVCItemData@@XZ ; CItemManager::GetSelectedItemDataPointer

; 322  : 	if (!pItemData)

  0003b	85 c0		 test	 eax, eax
  0003d	75 11		 jne	 SHORT $LN1@itemGetUse

; 323  : 		return Py_BuildException("Can't find select item data");

  0003f	68 00 00 00 00	 push	 OFFSET ??_C@_0BM@KPLEGEEH@Can?8t?5find?5select?5item?5data?$AA@
  00044	e8 00 00 00 00	 call	 ?Py_BuildException@@YAPAU_object@@PBDZZ ; Py_BuildException
  00049	83 c4 04	 add	 esp, 4

; 326  : }

  0004c	8b e5		 mov	 esp, ebp
  0004e	5d		 pop	 ebp
  0004f	c3		 ret	 0
$LN1@itemGetUse:

; 324  : 	
; 325  : 	return Py_BuildValue("s", pItemData->GetUseTypeString());	

  00050	8b c8		 mov	 ecx, eax
  00052	e8 00 00 00 00	 call	 ?GetUseTypeString@CItemData@@QBEPBDXZ ; CItemData::GetUseTypeString
  00057	50		 push	 eax
  00058	68 00 00 00 00	 push	 OFFSET ??_C@_01LKDEMHDF@s?$AA@
  0005d	ff 15 00 00 00
	00		 call	 DWORD PTR __imp__Py_BuildValue
  00063	83 c4 08	 add	 esp, 8

; 326  : }

  00066	8b e5		 mov	 esp, ebp
  00068	5d		 pop	 ebp
  00069	c3		 ret	 0
?itemGetUseType@@YAPAU_object@@PAU1@0@Z ENDP		; itemGetUseType
_TEXT	ENDS
; Function compile flags: /Ogtp
; File d:\metin2\metin2\client_source_clean\client_source_clean\source\userinterface\pythonitemmodule.cpp
;	COMDAT ?itemIsRefineScroll@@YAPAU_object@@PAU1@0@Z
_TEXT	SEGMENT
_iItemIndex$ = -4					; size = 4
_poSelf$ = 8						; size = 4
_poArgs$ = 12						; size = 4
?itemIsRefineScroll@@YAPAU_object@@PAU1@0@Z PROC	; itemIsRefineScroll, COMDAT

; 329  : {

  00000	55		 push	 ebp
  00001	8b ec		 mov	 ebp, esp
  00003	51		 push	 ecx

; 330  : 	int iItemIndex;
; 331  : 	if (!PyTuple_GetInteger(poArgs, 0, &iItemIndex))

  00004	8d 45 fc	 lea	 eax, DWORD PTR _iItemIndex$[ebp]
  00007	50		 push	 eax
  00008	6a 00		 push	 0
  0000a	ff 75 0c	 push	 DWORD PTR _poArgs$[ebp]
  0000d	e8 00 00 00 00	 call	 ?PyTuple_GetInteger@@YA_NPAU_object@@HPAH@Z ; PyTuple_GetInteger
  00012	83 c4 0c	 add	 esp, 12			; 0000000cH
  00015	84 c0		 test	 al, al
  00017	75 09		 jne	 SHORT $LN6@itemIsRefi

; 332  : 		return Py_BadArgument();

  00019	e8 00 00 00 00	 call	 ?Py_BadArgument@@YAPAU_object@@XZ ; Py_BadArgument

; 346  : 			break;
; 347  : 	}
; 348  : 	
; 349  : 	return Py_BuildValue("i", FALSE);
; 350  : }

  0001e	8b e5		 mov	 esp, ebp
  00020	5d		 pop	 ebp
  00021	c3		 ret	 0
$LN6@itemIsRefi:

; 333  : 
; 334  : 	CItemManager::Instance().SelectItemData(iItemIndex);

  00022	8b 0d 00 00 00
	00		 mov	 ecx, DWORD PTR ?ms_singleton@?$CSingleton@VCItemManager@@@@0PAVCItemManager@@A ; CSingleton<CItemManager>::ms_singleton
  00028	56		 push	 esi
  00029	ff 75 fc	 push	 DWORD PTR _iItemIndex$[ebp]
  0002c	e8 00 00 00 00	 call	 ?SelectItemData@CItemManager@@QAEHK@Z ; CItemManager::SelectItemData

; 335  : 	CItemData * pItemData = CItemManager::Instance().GetSelectedItemDataPointer();

  00031	8b 0d 00 00 00
	00		 mov	 ecx, DWORD PTR ?ms_singleton@?$CSingleton@VCItemManager@@@@0PAVCItemManager@@A ; CSingleton<CItemManager>::ms_singleton
  00037	e8 00 00 00 00	 call	 ?GetSelectedItemDataPointer@CItemManager@@QAEPAVCItemData@@XZ ; CItemManager::GetSelectedItemDataPointer
  0003c	8b f0		 mov	 esi, eax

; 336  : 	if (!pItemData)

  0003e	85 f6		 test	 esi, esi
  00040	75 12		 jne	 SHORT $LN5@itemIsRefi

; 337  : 		return Py_BuildException("Can't find select item data");

  00042	68 00 00 00 00	 push	 OFFSET ??_C@_0BM@KPLEGEEH@Can?8t?5find?5select?5item?5data?$AA@
  00047	e8 00 00 00 00	 call	 ?Py_BuildException@@YAPAU_object@@PBDZZ ; Py_BuildException
  0004c	83 c4 04	 add	 esp, 4
  0004f	5e		 pop	 esi

; 346  : 			break;
; 347  : 	}
; 348  : 	
; 349  : 	return Py_BuildValue("i", FALSE);
; 350  : }

  00050	8b e5		 mov	 esp, ebp
  00052	5d		 pop	 ebp
  00053	c3		 ret	 0
$LN5@itemIsRefi:

; 338  : 
; 339  : 	if (pItemData->GetType() != CItemData::ITEM_TYPE_USE)

  00054	8b ce		 mov	 ecx, esi
  00056	e8 00 00 00 00	 call	 ?GetType@CItemData@@QBEEXZ ; CItemData::GetType
  0005b	3c 03		 cmp	 al, 3
  0005d	74 15		 je	 SHORT $LN4@itemIsRefi
$LN15@itemIsRefi:

; 340  : 		return Py_BuildValue("i", FALSE);

  0005f	6a 00		 push	 0

; 343  : 	{
; 344  : 		case CItemData::USE_TUNING:
; 345  : 			return Py_BuildValue("i", TRUE);

  00061	68 00 00 00 00	 push	 OFFSET ??_C@_01KBJDNOO@i?$AA@
  00066	ff 15 00 00 00
	00		 call	 DWORD PTR __imp__Py_BuildValue
  0006c	83 c4 08	 add	 esp, 8
  0006f	5e		 pop	 esi

; 346  : 			break;
; 347  : 	}
; 348  : 	
; 349  : 	return Py_BuildValue("i", FALSE);
; 350  : }

  00070	8b e5		 mov	 esp, ebp
  00072	5d		 pop	 ebp
  00073	c3		 ret	 0
$LN4@itemIsRefi:

; 341  : 	
; 342  : 	switch (pItemData->GetSubType())

  00074	8b ce		 mov	 ecx, esi
  00076	e8 00 00 00 00	 call	 ?GetSubType@CItemData@@QBEEXZ ; CItemData::GetSubType
  0007b	0f b6 c0	 movzx	 eax, al
  0007e	83 e8 02	 sub	 eax, 2
  00081	75 dc		 jne	 SHORT $LN15@itemIsRefi

; 343  : 	{
; 344  : 		case CItemData::USE_TUNING:
; 345  : 			return Py_BuildValue("i", TRUE);

  00083	6a 01		 push	 1
  00085	68 00 00 00 00	 push	 OFFSET ??_C@_01KBJDNOO@i?$AA@
  0008a	ff 15 00 00 00
	00		 call	 DWORD PTR __imp__Py_BuildValue
  00090	83 c4 08	 add	 esp, 8
  00093	5e		 pop	 esi

; 346  : 			break;
; 347  : 	}
; 348  : 	
; 349  : 	return Py_BuildValue("i", FALSE);
; 350  : }

  00094	8b e5		 mov	 esp, ebp
  00096	5d		 pop	 ebp
  00097	c3		 ret	 0
?itemIsRefineScroll@@YAPAU_object@@PAU1@0@Z ENDP	; itemIsRefineScroll
_TEXT	ENDS
; Function compile flags: /Ogtp
; File d:\metin2\metin2\client_source_clean\client_source_clean\source\userinterface\pythonitemmodule.cpp
;	COMDAT ?itemIsDetachScroll@@YAPAU_object@@PAU1@0@Z
_TEXT	SEGMENT
_iItemIndex$ = -4					; size = 4
_poSelf$ = 8						; size = 4
_poArgs$ = 12						; size = 4
?itemIsDetachScroll@@YAPAU_object@@PAU1@0@Z PROC	; itemIsDetachScroll, COMDAT

; 353  : {

  00000	55		 push	 ebp
  00001	8b ec		 mov	 ebp, esp
  00003	51		 push	 ecx

; 354  : 	int iItemIndex;
; 355  : 	if (!PyTuple_GetInteger(poArgs, 0, &iItemIndex))

  00004	8d 45 fc	 lea	 eax, DWORD PTR _iItemIndex$[ebp]
  00007	50		 push	 eax
  00008	6a 00		 push	 0
  0000a	ff 75 0c	 push	 DWORD PTR _poArgs$[ebp]
  0000d	e8 00 00 00 00	 call	 ?PyTuple_GetInteger@@YA_NPAU_object@@HPAH@Z ; PyTuple_GetInteger
  00012	83 c4 0c	 add	 esp, 12			; 0000000cH
  00015	84 c0		 test	 al, al
  00017	75 09		 jne	 SHORT $LN4@itemIsDeta

; 356  : 		return Py_BadArgument();

  00019	e8 00 00 00 00	 call	 ?Py_BadArgument@@YAPAU_object@@XZ ; Py_BadArgument

; 372  : }

  0001e	8b e5		 mov	 esp, ebp
  00020	5d		 pop	 ebp
  00021	c3		 ret	 0
$LN4@itemIsDeta:

; 357  : 
; 358  : 	CItemManager::Instance().SelectItemData(iItemIndex);

  00022	8b 0d 00 00 00
	00		 mov	 ecx, DWORD PTR ?ms_singleton@?$CSingleton@VCItemManager@@@@0PAVCItemManager@@A ; CSingleton<CItemManager>::ms_singleton
  00028	57		 push	 edi
  00029	ff 75 fc	 push	 DWORD PTR _iItemIndex$[ebp]
  0002c	e8 00 00 00 00	 call	 ?SelectItemData@CItemManager@@QAEHK@Z ; CItemManager::SelectItemData

; 359  : 	CItemData * pItemData = CItemManager::Instance().GetSelectedItemDataPointer();

  00031	8b 0d 00 00 00
	00		 mov	 ecx, DWORD PTR ?ms_singleton@?$CSingleton@VCItemManager@@@@0PAVCItemManager@@A ; CSingleton<CItemManager>::ms_singleton
  00037	e8 00 00 00 00	 call	 ?GetSelectedItemDataPointer@CItemManager@@QAEPAVCItemData@@XZ ; CItemManager::GetSelectedItemDataPointer
  0003c	8b f8		 mov	 edi, eax

; 360  : 	if (!pItemData)

  0003e	85 ff		 test	 edi, edi
  00040	75 12		 jne	 SHORT $LN3@itemIsDeta

; 361  : 		return Py_BuildException("Can't find select item data");

  00042	68 00 00 00 00	 push	 OFFSET ??_C@_0BM@KPLEGEEH@Can?8t?5find?5select?5item?5data?$AA@
  00047	e8 00 00 00 00	 call	 ?Py_BuildException@@YAPAU_object@@PBDZZ ; Py_BuildException
  0004c	83 c4 04	 add	 esp, 4
  0004f	5f		 pop	 edi

; 372  : }

  00050	8b e5		 mov	 esp, ebp
  00052	5d		 pop	 ebp
  00053	c3		 ret	 0
$LN3@itemIsDeta:
  00054	56		 push	 esi

; 362  : 
; 363  : 	int iType = pItemData->GetType();

  00055	8b cf		 mov	 ecx, edi
  00057	e8 00 00 00 00	 call	 ?GetType@CItemData@@QBEEXZ ; CItemData::GetType

; 364  : 	int iSubType = pItemData->GetSubType();

  0005c	8b cf		 mov	 ecx, edi
  0005e	0f b6 f0	 movzx	 esi, al
  00061	e8 00 00 00 00	 call	 ?GetSubType@CItemData@@QBEEXZ ; CItemData::GetSubType

; 365  : 	if (iType == CItemData::ITEM_TYPE_USE)

  00066	83 fe 03	 cmp	 esi, 3
  00069	0f b6 c0	 movzx	 eax, al
  0006c	5e		 pop	 esi
  0006d	75 1a		 jne	 SHORT $LN1@itemIsDeta

; 366  : 	if (iSubType == CItemData::USE_DETACHMENT)

  0006f	83 f8 0e	 cmp	 eax, 14			; 0000000eH
  00072	75 15		 jne	 SHORT $LN1@itemIsDeta

; 367  : 	{
; 368  : 		return Py_BuildValue("i", TRUE);

  00074	6a 01		 push	 1

; 369  : 	}
; 370  : 
; 371  : 	return Py_BuildValue("i", FALSE);

  00076	68 00 00 00 00	 push	 OFFSET ??_C@_01KBJDNOO@i?$AA@
  0007b	ff 15 00 00 00
	00		 call	 DWORD PTR __imp__Py_BuildValue
  00081	83 c4 08	 add	 esp, 8
  00084	5f		 pop	 edi

; 372  : }

  00085	8b e5		 mov	 esp, ebp
  00087	5d		 pop	 ebp
  00088	c3		 ret	 0
$LN1@itemIsDeta:

; 369  : 	}
; 370  : 
; 371  : 	return Py_BuildValue("i", FALSE);

  00089	6a 00		 push	 0
  0008b	68 00 00 00 00	 push	 OFFSET ??_C@_01KBJDNOO@i?$AA@
  00090	ff 15 00 00 00
	00		 call	 DWORD PTR __imp__Py_BuildValue
  00096	83 c4 08	 add	 esp, 8
  00099	5f		 pop	 edi

; 372  : }

  0009a	8b e5		 mov	 esp, ebp
  0009c	5d		 pop	 ebp
  0009d	c3		 ret	 0
?itemIsDetachScroll@@YAPAU_object@@PAU1@0@Z ENDP	; itemIsDetachScroll
_TEXT	ENDS
; Function compile flags: /Ogtp
; File d:\metin2\metin2\client_source_clean\client_source_clean\source\userinterface\pythonitemmodule.cpp
;	COMDAT ?itemCanAddToQuickSlotItem@@YAPAU_object@@PAU1@0@Z
_TEXT	SEGMENT
_iItemIndex$ = -4					; size = 4
_poSelf$ = 8						; size = 4
_poArgs$ = 12						; size = 4
?itemCanAddToQuickSlotItem@@YAPAU_object@@PAU1@0@Z PROC	; itemCanAddToQuickSlotItem, COMDAT

; 375  : {

  00000	55		 push	 ebp
  00001	8b ec		 mov	 ebp, esp
  00003	51		 push	 ecx

; 376  : 	int iItemIndex;
; 377  : 	if (!PyTuple_GetInteger(poArgs, 0, &iItemIndex))

  00004	8d 45 fc	 lea	 eax, DWORD PTR _iItemIndex$[ebp]
  00007	50		 push	 eax
  00008	6a 00		 push	 0
  0000a	ff 75 0c	 push	 DWORD PTR _poArgs$[ebp]
  0000d	e8 00 00 00 00	 call	 ?PyTuple_GetInteger@@YA_NPAU_object@@HPAH@Z ; PyTuple_GetInteger
  00012	83 c4 0c	 add	 esp, 12			; 0000000cH
  00015	84 c0		 test	 al, al
  00017	75 09		 jne	 SHORT $LN4@itemCanAdd

; 378  : 		return Py_BadArgument();

  00019	e8 00 00 00 00	 call	 ?Py_BadArgument@@YAPAU_object@@XZ ; Py_BadArgument

; 391  : }

  0001e	8b e5		 mov	 esp, ebp
  00020	5d		 pop	 ebp
  00021	c3		 ret	 0
$LN4@itemCanAdd:

; 379  : 
; 380  : 	CItemManager::Instance().SelectItemData(iItemIndex);

  00022	8b 0d 00 00 00
	00		 mov	 ecx, DWORD PTR ?ms_singleton@?$CSingleton@VCItemManager@@@@0PAVCItemManager@@A ; CSingleton<CItemManager>::ms_singleton
  00028	56		 push	 esi
  00029	ff 75 fc	 push	 DWORD PTR _iItemIndex$[ebp]
  0002c	e8 00 00 00 00	 call	 ?SelectItemData@CItemManager@@QAEHK@Z ; CItemManager::SelectItemData

; 381  : 	CItemData * pItemData = CItemManager::Instance().GetSelectedItemDataPointer();

  00031	8b 0d 00 00 00
	00		 mov	 ecx, DWORD PTR ?ms_singleton@?$CSingleton@VCItemManager@@@@0PAVCItemManager@@A ; CSingleton<CItemManager>::ms_singleton
  00037	e8 00 00 00 00	 call	 ?GetSelectedItemDataPointer@CItemManager@@QAEPAVCItemData@@XZ ; CItemManager::GetSelectedItemDataPointer
  0003c	8b f0		 mov	 esi, eax

; 382  : 	if (!pItemData)

  0003e	85 f6		 test	 esi, esi
  00040	75 12		 jne	 SHORT $LN3@itemCanAdd

; 383  : 		return Py_BuildException("Can't find select item data");

  00042	68 00 00 00 00	 push	 OFFSET ??_C@_0BM@KPLEGEEH@Can?8t?5find?5select?5item?5data?$AA@
  00047	e8 00 00 00 00	 call	 ?Py_BuildException@@YAPAU_object@@PBDZZ ; Py_BuildException
  0004c	83 c4 04	 add	 esp, 4
  0004f	5e		 pop	 esi

; 391  : }

  00050	8b e5		 mov	 esp, ebp
  00052	5d		 pop	 ebp
  00053	c3		 ret	 0
$LN3@itemCanAdd:

; 384  : 
; 385  : 	if (CItemData::ITEM_TYPE_USE == pItemData->GetType() || CItemData::ITEM_TYPE_QUEST == pItemData->GetType())

  00054	8b ce		 mov	 ecx, esi
  00056	e8 00 00 00 00	 call	 ?GetType@CItemData@@QBEEXZ ; CItemData::GetType
  0005b	3c 03		 cmp	 al, 3
  0005d	74 20		 je	 SHORT $LN1@itemCanAdd
  0005f	8b ce		 mov	 ecx, esi
  00061	e8 00 00 00 00	 call	 ?GetType@CItemData@@QBEEXZ ; CItemData::GetType
  00066	3c 12		 cmp	 al, 18			; 00000012H
  00068	74 15		 je	 SHORT $LN1@itemCanAdd

; 388  : 	}
; 389  : 
; 390  : 	return Py_BuildValue("i", FALSE);

  0006a	6a 00		 push	 0
  0006c	68 00 00 00 00	 push	 OFFSET ??_C@_01KBJDNOO@i?$AA@
  00071	ff 15 00 00 00
	00		 call	 DWORD PTR __imp__Py_BuildValue
  00077	83 c4 08	 add	 esp, 8
  0007a	5e		 pop	 esi

; 391  : }

  0007b	8b e5		 mov	 esp, ebp
  0007d	5d		 pop	 ebp
  0007e	c3		 ret	 0
$LN1@itemCanAdd:

; 386  : 	{
; 387  : 		return Py_BuildValue("i", TRUE);

  0007f	6a 01		 push	 1
  00081	68 00 00 00 00	 push	 OFFSET ??_C@_01KBJDNOO@i?$AA@
  00086	ff 15 00 00 00
	00		 call	 DWORD PTR __imp__Py_BuildValue
  0008c	83 c4 08	 add	 esp, 8
  0008f	5e		 pop	 esi

; 391  : }

  00090	8b e5		 mov	 esp, ebp
  00092	5d		 pop	 ebp
  00093	c3		 ret	 0
?itemCanAddToQuickSlotItem@@YAPAU_object@@PAU1@0@Z ENDP	; itemCanAddToQuickSlotItem
_TEXT	ENDS
; Function compile flags: /Ogtp
; File d:\metin2\metin2\client_source_clean\client_source_clean\source\userinterface\pythonitemmodule.cpp
;	COMDAT ?itemIsKey@@YAPAU_object@@PAU1@0@Z
_TEXT	SEGMENT
_iItemIndex$ = -4					; size = 4
_poSelf$ = 8						; size = 4
_poArgs$ = 12						; size = 4
?itemIsKey@@YAPAU_object@@PAU1@0@Z PROC			; itemIsKey, COMDAT

; 394  : {

  00000	55		 push	 ebp
  00001	8b ec		 mov	 ebp, esp
  00003	51		 push	 ecx

; 395  : 	int iItemIndex;
; 396  : 	if (!PyTuple_GetInteger(poArgs, 0, &iItemIndex))

  00004	8d 45 fc	 lea	 eax, DWORD PTR _iItemIndex$[ebp]
  00007	50		 push	 eax
  00008	6a 00		 push	 0
  0000a	ff 75 0c	 push	 DWORD PTR _poArgs$[ebp]
  0000d	e8 00 00 00 00	 call	 ?PyTuple_GetInteger@@YA_NPAU_object@@HPAH@Z ; PyTuple_GetInteger
  00012	83 c4 0c	 add	 esp, 12			; 0000000cH
  00015	84 c0		 test	 al, al
  00017	75 09		 jne	 SHORT $LN3@itemIsKey

; 397  : 		return Py_BadArgument();

  00019	e8 00 00 00 00	 call	 ?Py_BadArgument@@YAPAU_object@@XZ ; Py_BadArgument

; 410  : }

  0001e	8b e5		 mov	 esp, ebp
  00020	5d		 pop	 ebp
  00021	c3		 ret	 0
$LN3@itemIsKey:

; 398  : 
; 399  : 	CItemManager::Instance().SelectItemData(iItemIndex);

  00022	ff 75 fc	 push	 DWORD PTR _iItemIndex$[ebp]
  00025	8b 0d 00 00 00
	00		 mov	 ecx, DWORD PTR ?ms_singleton@?$CSingleton@VCItemManager@@@@0PAVCItemManager@@A ; CSingleton<CItemManager>::ms_singleton
  0002b	e8 00 00 00 00	 call	 ?SelectItemData@CItemManager@@QAEHK@Z ; CItemManager::SelectItemData

; 400  : 	CItemData * pItemData = CItemManager::Instance().GetSelectedItemDataPointer();

  00030	8b 0d 00 00 00
	00		 mov	 ecx, DWORD PTR ?ms_singleton@?$CSingleton@VCItemManager@@@@0PAVCItemManager@@A ; CSingleton<CItemManager>::ms_singleton
  00036	e8 00 00 00 00	 call	 ?GetSelectedItemDataPointer@CItemManager@@QAEPAVCItemData@@XZ ; CItemManager::GetSelectedItemDataPointer

; 401  : 	if (!pItemData)

  0003b	85 c0		 test	 eax, eax
  0003d	75 11		 jne	 SHORT $LN2@itemIsKey

; 402  : 		return Py_BuildException("Can't find select item data");

  0003f	68 00 00 00 00	 push	 OFFSET ??_C@_0BM@KPLEGEEH@Can?8t?5find?5select?5item?5data?$AA@
  00044	e8 00 00 00 00	 call	 ?Py_BuildException@@YAPAU_object@@PBDZZ ; Py_BuildException
  00049	83 c4 04	 add	 esp, 4

; 410  : }

  0004c	8b e5		 mov	 esp, ebp
  0004e	5d		 pop	 ebp
  0004f	c3		 ret	 0
$LN2@itemIsKey:

; 403  : 
; 404  : 	if (CItemData::ITEM_TYPE_TREASURE_KEY == pItemData->GetType())

  00050	8b c8		 mov	 ecx, eax
  00052	e8 00 00 00 00	 call	 ?GetType@CItemData@@QBEEXZ ; CItemData::GetType
  00057	3c 15		 cmp	 al, 21			; 00000015H
  00059	75 14		 jne	 SHORT $LN1@itemIsKey

; 405  : 	{
; 406  : 		return Py_BuildValue("i", TRUE);

  0005b	6a 01		 push	 1

; 407  : 	}
; 408  : 
; 409  : 	return Py_BuildValue("i", FALSE);

  0005d	68 00 00 00 00	 push	 OFFSET ??_C@_01KBJDNOO@i?$AA@
  00062	ff 15 00 00 00
	00		 call	 DWORD PTR __imp__Py_BuildValue
  00068	83 c4 08	 add	 esp, 8

; 410  : }

  0006b	8b e5		 mov	 esp, ebp
  0006d	5d		 pop	 ebp
  0006e	c3		 ret	 0
$LN1@itemIsKey:

; 407  : 	}
; 408  : 
; 409  : 	return Py_BuildValue("i", FALSE);

  0006f	6a 00		 push	 0
  00071	68 00 00 00 00	 push	 OFFSET ??_C@_01KBJDNOO@i?$AA@
  00076	ff 15 00 00 00
	00		 call	 DWORD PTR __imp__Py_BuildValue
  0007c	83 c4 08	 add	 esp, 8

; 410  : }

  0007f	8b e5		 mov	 esp, ebp
  00081	5d		 pop	 ebp
  00082	c3		 ret	 0
?itemIsKey@@YAPAU_object@@PAU1@0@Z ENDP			; itemIsKey
_TEXT	ENDS
; Function compile flags: /Ogtp
; File d:\metin2\metin2\client_source_clean\client_source_clean\source\userinterface\pythonitemmodule.cpp
;	COMDAT ?itemIsMetin@@YAPAU_object@@PAU1@0@Z
_TEXT	SEGMENT
_iItemIndex$ = -4					; size = 4
_poSelf$ = 8						; size = 4
_poArgs$ = 12						; size = 4
?itemIsMetin@@YAPAU_object@@PAU1@0@Z PROC		; itemIsMetin, COMDAT

; 413  : {

  00000	55		 push	 ebp
  00001	8b ec		 mov	 ebp, esp
  00003	51		 push	 ecx

; 414  : 	int iItemIndex;
; 415  : 	if (!PyTuple_GetInteger(poArgs, 0, &iItemIndex))

  00004	8d 45 fc	 lea	 eax, DWORD PTR _iItemIndex$[ebp]
  00007	50		 push	 eax
  00008	6a 00		 push	 0
  0000a	ff 75 0c	 push	 DWORD PTR _poArgs$[ebp]
  0000d	e8 00 00 00 00	 call	 ?PyTuple_GetInteger@@YA_NPAU_object@@HPAH@Z ; PyTuple_GetInteger
  00012	83 c4 0c	 add	 esp, 12			; 0000000cH
  00015	84 c0		 test	 al, al
  00017	75 09		 jne	 SHORT $LN3@itemIsMeti

; 416  : 		return Py_BadArgument();

  00019	e8 00 00 00 00	 call	 ?Py_BadArgument@@YAPAU_object@@XZ ; Py_BadArgument

; 429  : }

  0001e	8b e5		 mov	 esp, ebp
  00020	5d		 pop	 ebp
  00021	c3		 ret	 0
$LN3@itemIsMeti:

; 417  : 
; 418  : 	CItemManager::Instance().SelectItemData(iItemIndex);

  00022	ff 75 fc	 push	 DWORD PTR _iItemIndex$[ebp]
  00025	8b 0d 00 00 00
	00		 mov	 ecx, DWORD PTR ?ms_singleton@?$CSingleton@VCItemManager@@@@0PAVCItemManager@@A ; CSingleton<CItemManager>::ms_singleton
  0002b	e8 00 00 00 00	 call	 ?SelectItemData@CItemManager@@QAEHK@Z ; CItemManager::SelectItemData

; 419  : 	CItemData * pItemData = CItemManager::Instance().GetSelectedItemDataPointer();

  00030	8b 0d 00 00 00
	00		 mov	 ecx, DWORD PTR ?ms_singleton@?$CSingleton@VCItemManager@@@@0PAVCItemManager@@A ; CSingleton<CItemManager>::ms_singleton
  00036	e8 00 00 00 00	 call	 ?GetSelectedItemDataPointer@CItemManager@@QAEPAVCItemData@@XZ ; CItemManager::GetSelectedItemDataPointer

; 420  : 	if (!pItemData)

  0003b	85 c0		 test	 eax, eax
  0003d	75 11		 jne	 SHORT $LN2@itemIsMeti

; 421  : 		return Py_BuildException("Can't find select item data");

  0003f	68 00 00 00 00	 push	 OFFSET ??_C@_0BM@KPLEGEEH@Can?8t?5find?5select?5item?5data?$AA@
  00044	e8 00 00 00 00	 call	 ?Py_BuildException@@YAPAU_object@@PBDZZ ; Py_BuildException
  00049	83 c4 04	 add	 esp, 4

; 429  : }

  0004c	8b e5		 mov	 esp, ebp
  0004e	5d		 pop	 ebp
  0004f	c3		 ret	 0
$LN2@itemIsMeti:

; 422  : 
; 423  : 	if (CItemData::ITEM_TYPE_METIN == pItemData->GetType())

  00050	8b c8		 mov	 ecx, eax
  00052	e8 00 00 00 00	 call	 ?GetType@CItemData@@QBEEXZ ; CItemData::GetType
  00057	3c 0a		 cmp	 al, 10			; 0000000aH
  00059	75 14		 jne	 SHORT $LN1@itemIsMeti

; 424  : 	{
; 425  : 		return Py_BuildValue("i", TRUE);

  0005b	6a 01		 push	 1

; 426  : 	}
; 427  : 
; 428  : 	return Py_BuildValue("i", FALSE);

  0005d	68 00 00 00 00	 push	 OFFSET ??_C@_01KBJDNOO@i?$AA@
  00062	ff 15 00 00 00
	00		 call	 DWORD PTR __imp__Py_BuildValue
  00068	83 c4 08	 add	 esp, 8

; 429  : }

  0006b	8b e5		 mov	 esp, ebp
  0006d	5d		 pop	 ebp
  0006e	c3		 ret	 0
$LN1@itemIsMeti:

; 426  : 	}
; 427  : 
; 428  : 	return Py_BuildValue("i", FALSE);

  0006f	6a 00		 push	 0
  00071	68 00 00 00 00	 push	 OFFSET ??_C@_01KBJDNOO@i?$AA@
  00076	ff 15 00 00 00
	00		 call	 DWORD PTR __imp__Py_BuildValue
  0007c	83 c4 08	 add	 esp, 8

; 429  : }

  0007f	8b e5		 mov	 esp, ebp
  00081	5d		 pop	 ebp
  00082	c3		 ret	 0
?itemIsMetin@@YAPAU_object@@PAU1@0@Z ENDP		; itemIsMetin
_TEXT	ENDS
; Function compile flags: /Ogtp
; File d:\metin2\metin2\client_source_clean\client_source_clean\source\userinterface\pythonitemmodule.cpp
;	COMDAT ?itemRender@@YAPAU_object@@PAU1@0@Z
_TEXT	SEGMENT
_poSelf$ = 8						; size = 4
_poArgs$ = 12						; size = 4
?itemRender@@YAPAU_object@@PAU1@0@Z PROC		; itemRender, COMDAT

; 433  : 	CPythonItem::Instance().Render();

  00000	8b 0d 00 00 00
	00		 mov	 ecx, DWORD PTR ?ms_singleton@?$CSingleton@VCPythonItem@@@@0PAVCPythonItem@@A ; CSingleton<CPythonItem>::ms_singleton
  00006	e8 00 00 00 00	 call	 ?Render@CPythonItem@@QAEXXZ ; CPythonItem::Render

; 434  : 	return Py_BuildNone();

  0000b	e9 00 00 00 00	 jmp	 ?Py_BuildNone@@YAPAU_object@@XZ ; Py_BuildNone
?itemRender@@YAPAU_object@@PAU1@0@Z ENDP		; itemRender
_TEXT	ENDS
; Function compile flags: /Ogtp
; File d:\metin2\metin2\client_source_clean\client_source_clean\source\userinterface\pythonitemmodule.cpp
;	COMDAT ?itemUpdate@@YAPAU_object@@PAU1@0@Z
_TEXT	SEGMENT
_ptMouse$ = -8						; size = 8
_poSelf$ = 8						; size = 4
_poArgs$ = 12						; size = 4
?itemUpdate@@YAPAU_object@@PAU1@0@Z PROC		; itemUpdate, COMDAT

; 438  : {

  00000	55		 push	 ebp
  00001	8b ec		 mov	 ebp, esp
  00003	83 e4 f8	 and	 esp, -8			; fffffff8H

; 439  : 	IAbstractApplication& rkApp=IAbstractApplication::GetSingleton();

  00006	8b 0d 00 00 00
	00		 mov	 ecx, DWORD PTR ?ms_singleton@?$TAbstractSingleton@VIAbstractApplication@@@@0PAVIAbstractApplication@@A ; TAbstractSingleton<IAbstractApplication>::ms_singleton

; 440  : 
; 441  : 	POINT ptMouse;
; 442  : 	rkApp.GetMousePosition(&ptMouse);	

  0000c	8d 54 24 f8	 lea	 edx, DWORD PTR _ptMouse$[esp]
  00010	83 ec 08	 sub	 esp, 8
  00013	8b 01		 mov	 eax, DWORD PTR [ecx]
  00015	52		 push	 edx
  00016	ff 50 04	 call	 DWORD PTR [eax+4]

; 443  : 
; 444  : 	CPythonItem::Instance().Update(ptMouse);

  00019	8b 0d 00 00 00
	00		 mov	 ecx, DWORD PTR ?ms_singleton@?$CSingleton@VCPythonItem@@@@0PAVCPythonItem@@A ; CSingleton<CPythonItem>::ms_singleton
  0001f	8d 04 24	 lea	 eax, DWORD PTR _ptMouse$[esp+8]
  00022	50		 push	 eax
  00023	e8 00 00 00 00	 call	 ?Update@CPythonItem@@QAEXABUtagPOINT@@@Z ; CPythonItem::Update

; 445  : 	return Py_BuildNone();

  00028	e8 00 00 00 00	 call	 ?Py_BuildNone@@YAPAU_object@@XZ ; Py_BuildNone

; 446  : }

  0002d	8b e5		 mov	 esp, ebp
  0002f	5d		 pop	 ebp
  00030	c3		 ret	 0
?itemUpdate@@YAPAU_object@@PAU1@0@Z ENDP		; itemUpdate
_TEXT	ENDS
; Function compile flags: /Ogtp
; File d:\metin2\metin2\client_source_clean\client_source_clean\source\userinterface\pythonitemmodule.cpp
;	COMDAT ?itemCreateItem@@YAPAU_object@@PAU1@0@Z
_TEXT	SEGMENT
_x$ = -24						; size = 4
_iVirtualID$ = -20					; size = 4
_iVirtualNumber$ = -16					; size = 4
_y$ = -12						; size = 4
_z$ = -8						; size = 4
_bDrop$ = -4						; size = 1
_poSelf$ = 8						; size = 4
_poArgs$ = 12						; size = 4
?itemCreateItem@@YAPAU_object@@PAU1@0@Z PROC		; itemCreateItem, COMDAT

; 449  : {

  00000	55		 push	 ebp
  00001	8b ec		 mov	 ebp, esp
  00003	83 ec 18	 sub	 esp, 24			; 00000018H

; 450  : 	int iVirtualID;
; 451  : 	if (!PyTuple_GetInteger(poArgs, 0, &iVirtualID))

  00006	8d 45 ec	 lea	 eax, DWORD PTR _iVirtualID$[ebp]
  00009	56		 push	 esi
  0000a	8b 75 0c	 mov	 esi, DWORD PTR _poArgs$[ebp]
  0000d	50		 push	 eax
  0000e	6a 00		 push	 0
  00010	56		 push	 esi
  00011	e8 00 00 00 00	 call	 ?PyTuple_GetInteger@@YA_NPAU_object@@HPAH@Z ; PyTuple_GetInteger
  00016	83 c4 0c	 add	 esp, 12			; 0000000cH
  00019	84 c0		 test	 al, al
  0001b	75 0a		 jne	 SHORT $LN5@itemCreate
$LN10@itemCreate:

; 452  : 		return Py_BadArgument();

  0001d	e8 00 00 00 00	 call	 ?Py_BadArgument@@YAPAU_object@@XZ ; Py_BadArgument
  00022	5e		 pop	 esi

; 473  : }

  00023	8b e5		 mov	 esp, ebp
  00025	5d		 pop	 ebp
  00026	c3		 ret	 0
$LN5@itemCreate:

; 453  : 	int iVirtualNumber;
; 454  : 	if (!PyTuple_GetInteger(poArgs, 1, &iVirtualNumber))

  00027	8d 45 f0	 lea	 eax, DWORD PTR _iVirtualNumber$[ebp]
  0002a	50		 push	 eax
  0002b	6a 01		 push	 1
  0002d	56		 push	 esi
  0002e	e8 00 00 00 00	 call	 ?PyTuple_GetInteger@@YA_NPAU_object@@HPAH@Z ; PyTuple_GetInteger
  00033	83 c4 0c	 add	 esp, 12			; 0000000cH
  00036	84 c0		 test	 al, al
  00038	74 e3		 je	 SHORT $LN10@itemCreate

; 455  : 		return Py_BadArgument();
; 456  : 
; 457  : 	float x;
; 458  : 	if (!PyTuple_GetFloat(poArgs, 2, &x))

  0003a	8d 45 e8	 lea	 eax, DWORD PTR _x$[ebp]
  0003d	50		 push	 eax
  0003e	6a 02		 push	 2
  00040	56		 push	 esi
  00041	e8 00 00 00 00	 call	 ?PyTuple_GetFloat@@YA_NPAU_object@@HPAM@Z ; PyTuple_GetFloat
  00046	83 c4 0c	 add	 esp, 12			; 0000000cH
  00049	84 c0		 test	 al, al
  0004b	74 d0		 je	 SHORT $LN10@itemCreate

; 459  : 		return Py_BadArgument();
; 460  : 	float y;
; 461  : 	if (!PyTuple_GetFloat(poArgs, 3, &y))

  0004d	8d 45 f4	 lea	 eax, DWORD PTR _y$[ebp]
  00050	50		 push	 eax
  00051	6a 03		 push	 3
  00053	56		 push	 esi
  00054	e8 00 00 00 00	 call	 ?PyTuple_GetFloat@@YA_NPAU_object@@HPAM@Z ; PyTuple_GetFloat
  00059	83 c4 0c	 add	 esp, 12			; 0000000cH
  0005c	84 c0		 test	 al, al
  0005e	74 bd		 je	 SHORT $LN10@itemCreate

; 462  : 		return Py_BadArgument();
; 463  : 	float z;
; 464  : 	if (!PyTuple_GetFloat(poArgs, 4, &z))

  00060	8d 45 f8	 lea	 eax, DWORD PTR _z$[ebp]
  00063	50		 push	 eax
  00064	6a 04		 push	 4
  00066	56		 push	 esi
  00067	e8 00 00 00 00	 call	 ?PyTuple_GetFloat@@YA_NPAU_object@@HPAM@Z ; PyTuple_GetFloat
  0006c	83 c4 0c	 add	 esp, 12			; 0000000cH
  0006f	84 c0		 test	 al, al
  00071	74 aa		 je	 SHORT $LN10@itemCreate

; 465  : 		return Py_BadArgument();
; 466  : 	
; 467  : 	bool bDrop = true;
; 468  : 	PyTuple_GetBoolean(poArgs, 5, &bDrop);

  00073	8d 45 fc	 lea	 eax, DWORD PTR _bDrop$[ebp]
  00076	c6 45 fc 01	 mov	 BYTE PTR _bDrop$[ebp], 1
  0007a	50		 push	 eax
  0007b	6a 05		 push	 5
  0007d	56		 push	 esi
  0007e	e8 00 00 00 00	 call	 ?PyTuple_GetBoolean@@YA_NPAU_object@@HPA_N@Z ; PyTuple_GetBoolean

; 469  : 
; 470  : 	CPythonItem::Instance().CreateItem(iVirtualID, iVirtualNumber, x, y, z, bDrop);

  00083	f3 0f 10 45 f8	 movss	 xmm0, DWORD PTR _z$[ebp]
  00088	83 c4 0c	 add	 esp, 12			; 0000000cH
  0008b	f3 0f 10 5d e8	 movss	 xmm3, DWORD PTR _x$[ebp]
  00090	8b 0d 00 00 00
	00		 mov	 ecx, DWORD PTR ?ms_singleton@?$CSingleton@VCPythonItem@@@@0PAVCPythonItem@@A ; CSingleton<CPythonItem>::ms_singleton
  00096	ff 75 fc	 push	 DWORD PTR _bDrop$[ebp]
  00099	83 ec 08	 sub	 esp, 8
  0009c	f3 0f 11 44 24
	04		 movss	 DWORD PTR [esp+4], xmm0
  000a2	f3 0f 10 45 f4	 movss	 xmm0, DWORD PTR _y$[ebp]
  000a7	f3 0f 11 04 24	 movss	 DWORD PTR [esp], xmm0
  000ac	ff 75 f0	 push	 DWORD PTR _iVirtualNumber$[ebp]
  000af	ff 75 ec	 push	 DWORD PTR _iVirtualID$[ebp]
  000b2	e8 00 00 00 00	 call	 ?CreateItem@CPythonItem@@QAEXKKMMM_N@Z ; CPythonItem::CreateItem

; 471  : 
; 472  : 	return Py_BuildNone();

  000b7	e8 00 00 00 00	 call	 ?Py_BuildNone@@YAPAU_object@@XZ ; Py_BuildNone
  000bc	5e		 pop	 esi

; 473  : }

  000bd	8b e5		 mov	 esp, ebp
  000bf	5d		 pop	 ebp
  000c0	c3		 ret	 0
?itemCreateItem@@YAPAU_object@@PAU1@0@Z ENDP		; itemCreateItem
_TEXT	ENDS
; Function compile flags: /Ogtp
; File d:\metin2\metin2\client_source_clean\client_source_clean\source\userinterface\pythonitemmodule.cpp
;	COMDAT ?itemDeleteItem@@YAPAU_object@@PAU1@0@Z
_TEXT	SEGMENT
_iVirtualID$ = -4					; size = 4
_poSelf$ = 8						; size = 4
_poArgs$ = 12						; size = 4
?itemDeleteItem@@YAPAU_object@@PAU1@0@Z PROC		; itemDeleteItem, COMDAT

; 476  : {

  00000	55		 push	 ebp
  00001	8b ec		 mov	 ebp, esp
  00003	51		 push	 ecx

; 477  : 	int iVirtualID;
; 478  : 	if (!PyTuple_GetInteger(poArgs, 0, &iVirtualID))

  00004	8d 45 fc	 lea	 eax, DWORD PTR _iVirtualID$[ebp]
  00007	50		 push	 eax
  00008	6a 00		 push	 0
  0000a	ff 75 0c	 push	 DWORD PTR _poArgs$[ebp]
  0000d	e8 00 00 00 00	 call	 ?PyTuple_GetInteger@@YA_NPAU_object@@HPAH@Z ; PyTuple_GetInteger
  00012	83 c4 0c	 add	 esp, 12			; 0000000cH
  00015	84 c0		 test	 al, al
  00017	75 09		 jne	 SHORT $LN1@itemDelete

; 479  : 		return Py_BadArgument();

  00019	e8 00 00 00 00	 call	 ?Py_BadArgument@@YAPAU_object@@XZ ; Py_BadArgument

; 483  : }

  0001e	8b e5		 mov	 esp, ebp
  00020	5d		 pop	 ebp
  00021	c3		 ret	 0
$LN1@itemDelete:

; 480  : 
; 481  : 	CPythonItem::Instance().DeleteItem(iVirtualID);

  00022	ff 75 fc	 push	 DWORD PTR _iVirtualID$[ebp]
  00025	8b 0d 00 00 00
	00		 mov	 ecx, DWORD PTR ?ms_singleton@?$CSingleton@VCPythonItem@@@@0PAVCPythonItem@@A ; CSingleton<CPythonItem>::ms_singleton
  0002b	e8 00 00 00 00	 call	 ?DeleteItem@CPythonItem@@QAEXK@Z ; CPythonItem::DeleteItem

; 482  : 	return Py_BuildNone();

  00030	e8 00 00 00 00	 call	 ?Py_BuildNone@@YAPAU_object@@XZ ; Py_BuildNone

; 483  : }

  00035	8b e5		 mov	 esp, ebp
  00037	5d		 pop	 ebp
  00038	c3		 ret	 0
?itemDeleteItem@@YAPAU_object@@PAU1@0@Z ENDP		; itemDeleteItem
_TEXT	ENDS
; Function compile flags: /Ogtp
; File d:\metin2\metin2\client_source_clean\client_source_clean\source\userinterface\pythonitemmodule.cpp
;	COMDAT ?itemPick@@YAPAU_object@@PAU1@0@Z
_TEXT	SEGMENT
_dwItemID$ = -4						; size = 4
_poSelf$ = 8						; size = 4
_poArgs$ = 12						; size = 4
?itemPick@@YAPAU_object@@PAU1@0@Z PROC			; itemPick, COMDAT

; 486  : {

  00000	55		 push	 ebp
  00001	8b ec		 mov	 ebp, esp
  00003	51		 push	 ecx

; 487  : 	DWORD dwItemID;
; 488  : 	if (CPythonItem::Instance().GetPickedItemID(&dwItemID))

  00004	8b 0d 00 00 00
	00		 mov	 ecx, DWORD PTR ?ms_singleton@?$CSingleton@VCPythonItem@@@@0PAVCPythonItem@@A ; CSingleton<CPythonItem>::ms_singleton
  0000a	8d 45 fc	 lea	 eax, DWORD PTR _dwItemID$[ebp]
  0000d	50		 push	 eax
  0000e	e8 00 00 00 00	 call	 ?GetPickedItemID@CPythonItem@@QAE_NPAK@Z ; CPythonItem::GetPickedItemID
  00013	84 c0		 test	 al, al
  00015	74 15		 je	 SHORT $LN2@itemPick

; 489  : 		return Py_BuildValue("i", dwItemID);

  00017	ff 75 fc	 push	 DWORD PTR _dwItemID$[ebp]

; 490  : 	else
; 491  : 		return Py_BuildValue("i", -1);

  0001a	68 00 00 00 00	 push	 OFFSET ??_C@_01KBJDNOO@i?$AA@
  0001f	ff 15 00 00 00
	00		 call	 DWORD PTR __imp__Py_BuildValue
  00025	83 c4 08	 add	 esp, 8

; 492  : }

  00028	8b e5		 mov	 esp, ebp
  0002a	5d		 pop	 ebp
  0002b	c3		 ret	 0
$LN2@itemPick:

; 490  : 	else
; 491  : 		return Py_BuildValue("i", -1);

  0002c	6a ff		 push	 -1
  0002e	68 00 00 00 00	 push	 OFFSET ??_C@_01KBJDNOO@i?$AA@
  00033	ff 15 00 00 00
	00		 call	 DWORD PTR __imp__Py_BuildValue
  00039	83 c4 08	 add	 esp, 8

; 492  : }

  0003c	8b e5		 mov	 esp, ebp
  0003e	5d		 pop	 ebp
  0003f	c3		 ret	 0
?itemPick@@YAPAU_object@@PAU1@0@Z ENDP			; itemPick
_TEXT	ENDS
; Function compile flags: /Ogtp
; File d:\metin2\metin2\client_source_clean\client_source_clean\source\userinterface\pythonitemmodule.cpp
;	COMDAT ?itemLoadItemTable@@YAPAU_object@@PAU1@0@Z
_TEXT	SEGMENT
_szFileName$ = -4					; size = 4
_poSelf$ = 8						; size = 4
_poArgs$ = 12						; size = 4
?itemLoadItemTable@@YAPAU_object@@PAU1@0@Z PROC		; itemLoadItemTable, COMDAT

; 495  : {

  00000	55		 push	 ebp
  00001	8b ec		 mov	 ebp, esp
  00003	51		 push	 ecx

; 496  : 	char * szFileName;
; 497  : 	if (!PyTuple_GetString(poArgs, 0, &szFileName))

  00004	8d 45 fc	 lea	 eax, DWORD PTR _szFileName$[ebp]
  00007	50		 push	 eax
  00008	6a 00		 push	 0
  0000a	ff 75 0c	 push	 DWORD PTR _poArgs$[ebp]
  0000d	e8 00 00 00 00	 call	 ?PyTuple_GetString@@YA_NPAU_object@@HPAPAD@Z ; PyTuple_GetString
  00012	83 c4 0c	 add	 esp, 12			; 0000000cH
  00015	84 c0		 test	 al, al
  00017	75 09		 jne	 SHORT $LN1@itemLoadIt

; 498  : 		return Py_BadArgument();

  00019	e8 00 00 00 00	 call	 ?Py_BadArgument@@YAPAU_object@@XZ ; Py_BadArgument

; 502  : }

  0001e	8b e5		 mov	 esp, ebp
  00020	5d		 pop	 ebp
  00021	c3		 ret	 0
$LN1@itemLoadIt:

; 499  : 
; 500  : 	CItemManager::Instance().LoadItemTable(szFileName);

  00022	ff 75 fc	 push	 DWORD PTR _szFileName$[ebp]
  00025	8b 0d 00 00 00
	00		 mov	 ecx, DWORD PTR ?ms_singleton@?$CSingleton@VCItemManager@@@@0PAVCItemManager@@A ; CSingleton<CItemManager>::ms_singleton
  0002b	e8 00 00 00 00	 call	 ?LoadItemTable@CItemManager@@QAE_NPBD@Z ; CItemManager::LoadItemTable

; 501  : 	return Py_BuildNone();

  00030	e8 00 00 00 00	 call	 ?Py_BuildNone@@YAPAU_object@@XZ ; Py_BuildNone

; 502  : }

  00035	8b e5		 mov	 esp, ebp
  00037	5d		 pop	 ebp
  00038	c3		 ret	 0
?itemLoadItemTable@@YAPAU_object@@PAU1@0@Z ENDP		; itemLoadItemTable
_TEXT	ENDS
; Function compile flags: /Ogtp
; File d:\metin2\metin2\client_source_clean\client_source_clean\source\userinterface\pythonitemmodule.cpp
;	COMDAT ?initItem@@YAXXZ
_TEXT	SEGMENT
?initItem@@YAXXZ PROC					; initItem, COMDAT

; 505  : {

  00000	56		 push	 esi
  00001	57		 push	 edi

; 506  : 	static PyMethodDef s_methods[] =
; 507  : 	{	
; 508  : 		{ "SetUseSoundFileName",			itemSetUseSoundFileName,				METH_VARARGS },
; 509  : 		{ "SetDropSoundFileName",			itemSetDropSoundFileName,				METH_VARARGS },
; 510  : 		{ "SelectItem",						itemSelectItem,							METH_VARARGS },
; 511  : 
; 512  : 		{ "GetItemName",					itemGetItemName,						METH_VARARGS },
; 513  : 		{ "GetItemDescription",				itemGetItemDescription,					METH_VARARGS },
; 514  : 		{ "GetItemSummary",					itemGetItemSummary,						METH_VARARGS },
; 515  : 		{ "GetIconImage",					itemGetIconImage,						METH_VARARGS },
; 516  : 		{ "GetIconImageFileName",			itemGetIconImageFileName,				METH_VARARGS },
; 517  : 		{ "GetItemSize",					itemGetItemSize,						METH_VARARGS },
; 518  : 		{ "GetItemType",					itemGetItemType,						METH_VARARGS },
; 519  : 		{ "GetItemSubType",					itemGetItemSubType,						METH_VARARGS },
; 520  : 		{ "GetIBuyItemPrice",				itemGetIBuyItemPrice,					METH_VARARGS },
; 521  : 		{ "GetISellItemPrice",				itemGetISellItemPrice,					METH_VARARGS },
; 522  : 		{ "IsAntiFlag",						itemIsAntiFlag,							METH_VARARGS },
; 523  : 		{ "IsFlag",							itemIsFlag,								METH_VARARGS },
; 524  : 		{ "IsWearableFlag",					itemIsWearableFlag,						METH_VARARGS },
; 525  : 		{ "Is1GoldItem",					itemIs1GoldItem,						METH_VARARGS },
; 526  : 		{ "GetLimit",						itemGetLimit,							METH_VARARGS },
; 527  : 		{ "GetAffect",						itemGetAffect,							METH_VARARGS },
; 528  : 		{ "GetValue",						itemGetValue,							METH_VARARGS },
; 529  : 		{ "GetSocket",						itemGetSocket,							METH_VARARGS },
; 530  : 		{ "GetIconInstance",				itemGetIconInstance,					METH_VARARGS },
; 531  : 		{ "GetUseType",						itemGetUseType,							METH_VARARGS },
; 532  : 		{ "DeleteIconInstance",				itemDeleteIconInstance,					METH_VARARGS },
; 533  : 		{ "IsEquipmentVID",					itemIsEquipmentVID,						METH_VARARGS },		
; 534  : 		{ "IsRefineScroll",					itemIsRefineScroll,						METH_VARARGS },
; 535  : 		{ "IsDetachScroll",					itemIsDetachScroll,						METH_VARARGS },
; 536  : 		{ "IsKey",							itemIsKey,								METH_VARARGS },
; 537  : 		{ "IsMetin",						itemIsMetin,							METH_VARARGS },
; 538  : 		{ "CanAddToQuickSlotItem",			itemCanAddToQuickSlotItem,				METH_VARARGS },
; 539  : 
; 540  : 		{ "Update",							itemUpdate,								METH_VARARGS },
; 541  : 		{ "Render",							itemRender,								METH_VARARGS },
; 542  : 		{ "CreateItem",						itemCreateItem,							METH_VARARGS },
; 543  : 		{ "DeleteItem",						itemDeleteItem,							METH_VARARGS },
; 544  : 		{ "Pick",							itemPick,								METH_VARARGS },
; 545  : 
; 546  : 		{ "LoadItemTable",					itemLoadItemTable,						METH_VARARGS },
; 547  : 
; 548  : 		{ NULL,								NULL,									NULL		 },
; 549  : 	};
; 550  : 
; 551  : 	PyObject * poModule = Py_InitModule("item", s_methods);

  00002	68 f5 03 00 00	 push	 1013			; 000003f5H
  00007	6a 00		 push	 0
  00009	6a 00		 push	 0
  0000b	68 00 00 00 00	 push	 OFFSET ?s_methods@?1??initItem@@YAXXZ@4PAUPyMethodDef@@A
  00010	68 00 00 00 00	 push	 OFFSET ??_C@_04NHONDGDE@item?$AA@
  00015	ff 15 00 00 00
	00		 call	 DWORD PTR __imp__Py_InitModule4

; 552  : 
; 553  : 	PyModule_AddIntConstant(poModule, "USESOUND_ACCESSORY",			CPythonItem::USESOUND_ACCESSORY);

  0001b	8b 35 00 00 00
	00		 mov	 esi, DWORD PTR __imp__PyModule_AddIntConstant
  00021	8b f8		 mov	 edi, eax
  00023	6a 05		 push	 5
  00025	68 00 00 00 00	 push	 OFFSET ??_C@_0BD@MEKMBKPM@USESOUND_ACCESSORY?$AA@
  0002a	57		 push	 edi
  0002b	ff d6		 call	 esi

; 554  : 	PyModule_AddIntConstant(poModule, "USESOUND_ARMOR",				CPythonItem::USESOUND_ARMOR);

  0002d	6a 02		 push	 2
  0002f	68 00 00 00 00	 push	 OFFSET ??_C@_0P@ENGKPPPD@USESOUND_ARMOR?$AA@
  00034	57		 push	 edi
  00035	ff d6		 call	 esi

; 555  : 	PyModule_AddIntConstant(poModule, "USESOUND_BOW",				CPythonItem::USESOUND_BOW);

  00037	6a 04		 push	 4
  00039	68 00 00 00 00	 push	 OFFSET ??_C@_0N@MDIFIDON@USESOUND_BOW?$AA@
  0003e	57		 push	 edi
  0003f	ff d6		 call	 esi

; 556  : 	PyModule_AddIntConstant(poModule, "USESOUND_DEFAULT",			CPythonItem::USESOUND_DEFAULT);

  00041	6a 01		 push	 1
  00043	68 00 00 00 00	 push	 OFFSET ??_C@_0BB@BHHNCGFC@USESOUND_DEFAULT?$AA@
  00048	57		 push	 edi
  00049	ff d6		 call	 esi
  0004b	83 c4 44	 add	 esp, 68			; 00000044H

; 557  : 	PyModule_AddIntConstant(poModule, "USESOUND_WEAPON",			CPythonItem::USESOUND_WEAPON);

  0004e	6a 03		 push	 3
  00050	68 00 00 00 00	 push	 OFFSET ??_C@_0BA@IJKKKKOO@USESOUND_WEAPON?$AA@
  00055	57		 push	 edi
  00056	ff d6		 call	 esi

; 558  : 	PyModule_AddIntConstant(poModule, "USESOUND_POTION",			CPythonItem::USESOUND_POTION);

  00058	6a 06		 push	 6
  0005a	68 00 00 00 00	 push	 OFFSET ??_C@_0BA@GIIHLHOB@USESOUND_POTION?$AA@
  0005f	57		 push	 edi
  00060	ff d6		 call	 esi

; 559  : 	PyModule_AddIntConstant(poModule, "USESOUND_PORTAL",			CPythonItem::USESOUND_PORTAL);

  00062	6a 07		 push	 7
  00064	68 00 00 00 00	 push	 OFFSET ??_C@_0BA@HNBMICIL@USESOUND_PORTAL?$AA@
  00069	57		 push	 edi
  0006a	ff d6		 call	 esi

; 560  : 
; 561  : 	PyModule_AddIntConstant(poModule, "DROPSOUND_ACCESSORY",		CPythonItem::DROPSOUND_ACCESSORY);

  0006c	6a 04		 push	 4
  0006e	68 00 00 00 00	 push	 OFFSET ??_C@_0BE@PBPPNIPJ@DROPSOUND_ACCESSORY?$AA@
  00073	57		 push	 edi
  00074	ff d6		 call	 esi

; 562  : 	PyModule_AddIntConstant(poModule, "DROPSOUND_ARMOR",			CPythonItem::DROPSOUND_ARMOR);

  00076	6a 01		 push	 1
  00078	68 00 00 00 00	 push	 OFFSET ??_C@_0BA@PCCDLKKO@DROPSOUND_ARMOR?$AA@
  0007d	57		 push	 edi
  0007e	ff d6		 call	 esi

; 563  : 	PyModule_AddIntConstant(poModule, "DROPSOUND_BOW",				CPythonItem::DROPSOUND_BOW);

  00080	6a 03		 push	 3
  00082	68 00 00 00 00	 push	 OFFSET ??_C@_0O@OOJPAKOO@DROPSOUND_BOW?$AA@
  00087	57		 push	 edi
  00088	ff d6		 call	 esi
  0008a	83 c4 48	 add	 esp, 72			; 00000048H

; 564  : 	PyModule_AddIntConstant(poModule, "DROPSOUND_DEFAULT",			CPythonItem::DROPSOUND_DEFAULT);

  0008d	6a 00		 push	 0
  0008f	68 00 00 00 00	 push	 OFFSET ??_C@_0BC@BONOAPBN@DROPSOUND_DEFAULT?$AA@
  00094	57		 push	 edi
  00095	ff d6		 call	 esi

; 565  : 	PyModule_AddIntConstant(poModule, "DROPSOUND_WEAPON",			CPythonItem::DROPSOUND_WEAPON);

  00097	6a 02		 push	 2
  00099	68 00 00 00 00	 push	 OFFSET ??_C@_0BB@JMMPMOOC@DROPSOUND_WEAPON?$AA@
  0009e	57		 push	 edi
  0009f	ff d6		 call	 esi

; 566  : 
; 567  : 	PyModule_AddIntConstant(poModule, "EQUIPMENT_COUNT",			c_Equipment_Count);

  000a1	6a 0c		 push	 12			; 0000000cH
  000a3	68 00 00 00 00	 push	 OFFSET ??_C@_0BA@KJELJAII@EQUIPMENT_COUNT?$AA@
  000a8	57		 push	 edi
  000a9	ff d6		 call	 esi

; 568  : 	PyModule_AddIntConstant(poModule, "EQUIPMENT_HEAD",				c_Equipment_Head);

  000ab	68 e2 00 00 00	 push	 226			; 000000e2H
  000b0	68 00 00 00 00	 push	 OFFSET ??_C@_0P@GCJFHMFC@EQUIPMENT_HEAD?$AA@
  000b5	57		 push	 edi
  000b6	ff d6		 call	 esi

; 569  : 	PyModule_AddIntConstant(poModule, "EQUIPMENT_BODY",				c_Equipment_Body);

  000b8	68 e1 00 00 00	 push	 225			; 000000e1H
  000bd	68 00 00 00 00	 push	 OFFSET ??_C@_0P@LODPCKGA@EQUIPMENT_BODY?$AA@
  000c2	57		 push	 edi
  000c3	ff d6		 call	 esi

; 570  : 	PyModule_AddIntConstant(poModule, "EQUIPMENT_WEAPON",			c_Equipment_Weapon);

  000c5	68 e5 00 00 00	 push	 229			; 000000e5H
  000ca	68 00 00 00 00	 push	 OFFSET ??_C@_0BB@IKOPOEMN@EQUIPMENT_WEAPON?$AA@
  000cf	57		 push	 edi
  000d0	ff d6		 call	 esi
  000d2	83 c4 48	 add	 esp, 72			; 00000048H

; 571  : 	PyModule_AddIntConstant(poModule, "EQUIPMENT_WRIST",			c_Equipment_Wrist);

  000d5	68 e4 00 00 00	 push	 228			; 000000e4H
  000da	68 00 00 00 00	 push	 OFFSET ??_C@_0BA@KHENFLDC@EQUIPMENT_WRIST?$AA@
  000df	57		 push	 edi
  000e0	ff d6		 call	 esi

; 572  : 	PyModule_AddIntConstant(poModule, "EQUIPMENT_SHOES",			c_Equipment_Shoes);

  000e2	68 e3 00 00 00	 push	 227			; 000000e3H
  000e7	68 00 00 00 00	 push	 OFFSET ??_C@_0BA@GEANIANO@EQUIPMENT_SHOES?$AA@
  000ec	57		 push	 edi
  000ed	ff d6		 call	 esi

; 573  : 	PyModule_AddIntConstant(poModule, "EQUIPMENT_NECK",				c_Equipment_Neck);

  000ef	68 e6 00 00 00	 push	 230			; 000000e6H
  000f4	68 00 00 00 00	 push	 OFFSET ??_C@_0P@GJMJEBFD@EQUIPMENT_NECK?$AA@
  000f9	57		 push	 edi
  000fa	ff d6		 call	 esi

; 574  : 	PyModule_AddIntConstant(poModule, "EQUIPMENT_EAR",				c_Equipment_Ear);

  000fc	68 e7 00 00 00	 push	 231			; 000000e7H
  00101	68 00 00 00 00	 push	 OFFSET ??_C@_0O@KNFMDJEG@EQUIPMENT_EAR?$AA@
  00106	57		 push	 edi
  00107	ff d6		 call	 esi

; 575  : 	PyModule_AddIntConstant(poModule, "EQUIPMENT_UNIQUE1",			c_Equipment_Unique1);

  00109	68 e8 00 00 00	 push	 232			; 000000e8H
  0010e	68 00 00 00 00	 push	 OFFSET ??_C@_0BC@IBOCPGBL@EQUIPMENT_UNIQUE1?$AA@
  00113	57		 push	 edi
  00114	ff d6		 call	 esi

; 576  : 	PyModule_AddIntConstant(poModule, "EQUIPMENT_UNIQUE2",			c_Equipment_Unique2);

  00116	68 e9 00 00 00	 push	 233			; 000000e9H
  0011b	68 00 00 00 00	 push	 OFFSET ??_C@_0BC@KKMPKFNI@EQUIPMENT_UNIQUE2?$AA@
  00120	57		 push	 edi
  00121	ff d6		 call	 esi
  00123	83 c4 48	 add	 esp, 72			; 00000048H

; 577  : 	PyModule_AddIntConstant(poModule, "EQUIPMENT_ARROW",			c_Equipment_Arrow);

  00126	68 ea 00 00 00	 push	 234			; 000000eaH
  0012b	68 00 00 00 00	 push	 OFFSET ??_C@_0BA@MLMLGDPN@EQUIPMENT_ARROW?$AA@
  00130	57		 push	 edi
  00131	ff d6		 call	 esi

; 578  : 
; 579  : #ifdef ENABLE_NEW_EQUIPMENT_SYSTEM
; 580  : 	PyModule_AddIntConstant(poModule, "EQUIPMENT_RING1",			c_Equipment_Ring1);
; 581  : 	PyModule_AddIntConstant(poModule, "EQUIPMENT_RING2",			c_Equipment_Ring2);
; 582  : 	PyModule_AddIntConstant(poModule, "EQUIPMENT_BELT",				c_Equipment_Belt);
; 583  : #endif
; 584  : 
; 585  : 	PyModule_AddIntConstant(poModule, "ITEM_TYPE_NONE",				CItemData::ITEM_TYPE_NONE);

  00133	6a 00		 push	 0
  00135	68 00 00 00 00	 push	 OFFSET ??_C@_0P@EMFHBOCE@ITEM_TYPE_NONE?$AA@
  0013a	57		 push	 edi
  0013b	ff d6		 call	 esi

; 586  : 	PyModule_AddIntConstant(poModule, "ITEM_TYPE_WEAPON",			CItemData::ITEM_TYPE_WEAPON);

  0013d	6a 01		 push	 1
  0013f	68 00 00 00 00	 push	 OFFSET ??_C@_0BB@KIJBPCOD@ITEM_TYPE_WEAPON?$AA@
  00144	57		 push	 edi
  00145	ff d6		 call	 esi

; 587  : 	PyModule_AddIntConstant(poModule, "ITEM_TYPE_ARMOR",			CItemData::ITEM_TYPE_ARMOR);

  00147	6a 02		 push	 2
  00149	68 00 00 00 00	 push	 OFFSET ??_C@_0BA@MCMGEHMH@ITEM_TYPE_ARMOR?$AA@
  0014e	57		 push	 edi
  0014f	ff d6		 call	 esi

; 588  : 	PyModule_AddIntConstant(poModule, "ITEM_TYPE_USE",				CItemData::ITEM_TYPE_USE);

  00151	6a 03		 push	 3
  00153	68 00 00 00 00	 push	 OFFSET ??_C@_0O@EJGIJMHP@ITEM_TYPE_USE?$AA@
  00158	57		 push	 edi
  00159	ff d6		 call	 esi

; 589  : 	PyModule_AddIntConstant(poModule, "ITEM_TYPE_AUTOUSE",			CItemData::ITEM_TYPE_AUTOUSE);

  0015b	6a 04		 push	 4
  0015d	68 00 00 00 00	 push	 OFFSET ??_C@_0BC@PDFOCJLB@ITEM_TYPE_AUTOUSE?$AA@
  00162	57		 push	 edi
  00163	ff d6		 call	 esi
  00165	83 c4 48	 add	 esp, 72			; 00000048H

; 590  : 	PyModule_AddIntConstant(poModule, "ITEM_TYPE_MATERIAL",			CItemData::ITEM_TYPE_MATERIAL);

  00168	6a 05		 push	 5
  0016a	68 00 00 00 00	 push	 OFFSET ??_C@_0BD@NFIKPBKO@ITEM_TYPE_MATERIAL?$AA@
  0016f	57		 push	 edi
  00170	ff d6		 call	 esi

; 591  : 	PyModule_AddIntConstant(poModule, "ITEM_TYPE_SPECIAL",			CItemData::ITEM_TYPE_SPECIAL);

  00172	6a 06		 push	 6
  00174	68 00 00 00 00	 push	 OFFSET ??_C@_0BC@EGCNCIAP@ITEM_TYPE_SPECIAL?$AA@
  00179	57		 push	 edi
  0017a	ff d6		 call	 esi

; 592  : 	PyModule_AddIntConstant(poModule, "ITEM_TYPE_TOOL",				CItemData::ITEM_TYPE_TOOL);

  0017c	6a 07		 push	 7
  0017e	68 00 00 00 00	 push	 OFFSET ??_C@_0P@LGAHEAHJ@ITEM_TYPE_TOOL?$AA@
  00183	57		 push	 edi
  00184	ff d6		 call	 esi

; 593  : 	PyModule_AddIntConstant(poModule, "ITEM_TYPE_LOTTERY",			CItemData::ITEM_TYPE_LOTTERY);

  00186	6a 08		 push	 8
  00188	68 00 00 00 00	 push	 OFFSET ??_C@_0BC@LGJDJIG@ITEM_TYPE_LOTTERY?$AA@
  0018d	57		 push	 edi
  0018e	ff d6		 call	 esi

; 594  : 	PyModule_AddIntConstant(poModule, "ITEM_TYPE_ELK",				CItemData::ITEM_TYPE_ELK);

  00190	6a 09		 push	 9
  00192	68 00 00 00 00	 push	 OFFSET ??_C@_0O@JAIIACCD@ITEM_TYPE_ELK?$AA@
  00197	57		 push	 edi
  00198	ff d6		 call	 esi

; 595  : 	PyModule_AddIntConstant(poModule, "ITEM_TYPE_METIN",			CItemData::ITEM_TYPE_METIN);

  0019a	6a 0a		 push	 10			; 0000000aH
  0019c	68 00 00 00 00	 push	 OFFSET ??_C@_0BA@KICPPFNE@ITEM_TYPE_METIN?$AA@
  001a1	57		 push	 edi
  001a2	ff d6		 call	 esi
  001a4	83 c4 48	 add	 esp, 72			; 00000048H

; 596  : 	PyModule_AddIntConstant(poModule, "ITEM_TYPE_CONTAINER",		CItemData::ITEM_TYPE_CONTAINER);

  001a7	6a 0b		 push	 11			; 0000000bH
  001a9	68 00 00 00 00	 push	 OFFSET ??_C@_0BE@JBBPDBJM@ITEM_TYPE_CONTAINER?$AA@
  001ae	57		 push	 edi
  001af	ff d6		 call	 esi

; 597  : 	PyModule_AddIntConstant(poModule, "ITEM_TYPE_FISH",				CItemData::ITEM_TYPE_FISH);

  001b1	6a 0c		 push	 12			; 0000000cH
  001b3	68 00 00 00 00	 push	 OFFSET ??_C@_0P@PIBMEEFH@ITEM_TYPE_FISH?$AA@
  001b8	57		 push	 edi
  001b9	ff d6		 call	 esi

; 598  : 	PyModule_AddIntConstant(poModule, "ITEM_TYPE_ROD",				CItemData::ITEM_TYPE_ROD);

  001bb	6a 0d		 push	 13			; 0000000dH
  001bd	68 00 00 00 00	 push	 OFFSET ??_C@_0O@NIJIMPJD@ITEM_TYPE_ROD?$AA@
  001c2	57		 push	 edi
  001c3	ff d6		 call	 esi

; 599  : 	PyModule_AddIntConstant(poModule, "ITEM_TYPE_RESOURCE",			CItemData::ITEM_TYPE_RESOURCE);

  001c5	6a 0e		 push	 14			; 0000000eH
  001c7	68 00 00 00 00	 push	 OFFSET ??_C@_0BD@KBPLAMLF@ITEM_TYPE_RESOURCE?$AA@
  001cc	57		 push	 edi
  001cd	ff d6		 call	 esi

; 600  : 	PyModule_AddIntConstant(poModule, "ITEM_TYPE_CAMPFIRE",			CItemData::ITEM_TYPE_CAMPFIRE);

  001cf	6a 0f		 push	 15			; 0000000fH
  001d1	68 00 00 00 00	 push	 OFFSET ??_C@_0BD@OGNHPHCL@ITEM_TYPE_CAMPFIRE?$AA@
  001d6	57		 push	 edi
  001d7	ff d6		 call	 esi

; 601  : 	PyModule_AddIntConstant(poModule, "ITEM_TYPE_UNIQUE",			CItemData::ITEM_TYPE_UNIQUE);

  001d9	6a 10		 push	 16			; 00000010H
  001db	68 00 00 00 00	 push	 OFFSET ??_C@_0BB@CPEAMAMA@ITEM_TYPE_UNIQUE?$AA@
  001e0	57		 push	 edi
  001e1	ff d6		 call	 esi
  001e3	83 c4 48	 add	 esp, 72			; 00000048H

; 602  : 	PyModule_AddIntConstant(poModule, "ITEM_TYPE_SKILLBOOK",		CItemData::ITEM_TYPE_SKILLBOOK);

  001e6	6a 11		 push	 17			; 00000011H
  001e8	68 00 00 00 00	 push	 OFFSET ??_C@_0BE@FAMMFDKM@ITEM_TYPE_SKILLBOOK?$AA@
  001ed	57		 push	 edi
  001ee	ff d6		 call	 esi

; 603  : 	PyModule_AddIntConstant(poModule, "ITEM_TYPE_QUEST",			CItemData::ITEM_TYPE_QUEST);

  001f0	6a 12		 push	 18			; 00000012H
  001f2	68 00 00 00 00	 push	 OFFSET ??_C@_0BA@PFOCEMDB@ITEM_TYPE_QUEST?$AA@
  001f7	57		 push	 edi
  001f8	ff d6		 call	 esi

; 604  : 	PyModule_AddIntConstant(poModule, "ITEM_TYPE_POLYMORPH",		CItemData::ITEM_TYPE_POLYMORPH);

  001fa	6a 13		 push	 19			; 00000013H
  001fc	68 00 00 00 00	 push	 OFFSET ??_C@_0BE@DGPJCLHG@ITEM_TYPE_POLYMORPH?$AA@
  00201	57		 push	 edi
  00202	ff d6		 call	 esi

; 605  : 	PyModule_AddIntConstant(poModule, "ITEM_TYPE_TREASURE_BOX",		CItemData::ITEM_TYPE_TREASURE_BOX);

  00204	6a 14		 push	 20			; 00000014H
  00206	68 00 00 00 00	 push	 OFFSET ??_C@_0BH@MPEMDLLF@ITEM_TYPE_TREASURE_BOX?$AA@
  0020b	57		 push	 edi
  0020c	ff d6		 call	 esi

; 606  : 	PyModule_AddIntConstant(poModule, "ITEM_TYPE_TREASURE_KEY",		CItemData::ITEM_TYPE_TREASURE_KEY);

  0020e	6a 15		 push	 21			; 00000015H
  00210	68 00 00 00 00	 push	 OFFSET ??_C@_0BH@KGMIMAKI@ITEM_TYPE_TREASURE_KEY?$AA@
  00215	57		 push	 edi
  00216	ff d6		 call	 esi

; 607  : 	PyModule_AddIntConstant(poModule, "ITEM_TYPE_PICK",				CItemData::ITEM_TYPE_PICK);

  00218	6a 18		 push	 24			; 00000018H
  0021a	68 00 00 00 00	 push	 OFFSET ??_C@_0P@CALHNGMG@ITEM_TYPE_PICK?$AA@
  0021f	57		 push	 edi
  00220	ff d6		 call	 esi
  00222	83 c4 48	 add	 esp, 72			; 00000048H

; 608  : 	PyModule_AddIntConstant(poModule, "ITEM_TYPE_BLEND",			CItemData::ITEM_TYPE_BLEND);

  00225	6a 1b		 push	 27			; 0000001bH
  00227	68 00 00 00 00	 push	 OFFSET ??_C@_0BA@EDGMOLIF@ITEM_TYPE_BLEND?$AA@
  0022c	57		 push	 edi
  0022d	ff d6		 call	 esi

; 609  : 	PyModule_AddIntConstant(poModule, "ITEM_TYPE_DS",				CItemData::ITEM_TYPE_DS);

  0022f	6a 1d		 push	 29			; 0000001dH
  00231	68 00 00 00 00	 push	 OFFSET ??_C@_0N@BKIJEOLO@ITEM_TYPE_DS?$AA@
  00236	57		 push	 edi
  00237	ff d6		 call	 esi

; 610  : 	PyModule_AddIntConstant(poModule, "ITEM_TYPE_SPECIAL_DS",		CItemData::ITEM_TYPE_SPECIAL_DS);

  00239	6a 1e		 push	 30			; 0000001eH
  0023b	68 00 00 00 00	 push	 OFFSET ??_C@_0BF@GGLFIBNL@ITEM_TYPE_SPECIAL_DS?$AA@
  00240	57		 push	 edi
  00241	ff d6		 call	 esi

; 611  : 	PyModule_AddIntConstant(poModule, "ITEM_TYPE_RING",				CItemData::ITEM_TYPE_RING);

  00243	6a 21		 push	 33			; 00000021H
  00245	68 00 00 00 00	 push	 OFFSET ??_C@_0P@POBKFJPJ@ITEM_TYPE_RING?$AA@
  0024a	57		 push	 edi
  0024b	ff d6		 call	 esi

; 612  : 	PyModule_AddIntConstant(poModule, "ITEM_TYPE_BELT",				CItemData::ITEM_TYPE_BELT);

  0024d	6a 22		 push	 34			; 00000022H
  0024f	68 00 00 00 00	 push	 OFFSET ??_C@_0P@LGEHOEDP@ITEM_TYPE_BELT?$AA@
  00254	57		 push	 edi
  00255	ff d6		 call	 esi

; 613  : 
; 614  : 
; 615  : #ifdef ENABLE_COSTUME_SYSTEM
; 616  : 	PyModule_AddIntConstant(poModule, "ITEM_TYPE_COSTUME",			CItemData::ITEM_TYPE_COSTUME);

  00257	6a 1c		 push	 28			; 0000001cH
  00259	68 00 00 00 00	 push	 OFFSET ??_C@_0BC@GOFIPFBN@ITEM_TYPE_COSTUME?$AA@
  0025e	57		 push	 edi
  0025f	ff d6		 call	 esi
  00261	83 c4 48	 add	 esp, 72			; 00000048H

; 617  : 
; 618  : 	// Item Sub Type
; 619  : 	PyModule_AddIntConstant(poModule, "COSTUME_TYPE_BODY",			CItemData::COSTUME_BODY);

  00264	6a 00		 push	 0
  00266	68 00 00 00 00	 push	 OFFSET ??_C@_0BC@IBLNMJBH@COSTUME_TYPE_BODY?$AA@
  0026b	57		 push	 edi
  0026c	ff d6		 call	 esi

; 620  : 	PyModule_AddIntConstant(poModule, "COSTUME_TYPE_HAIR",			CItemData::COSTUME_HAIR);

  0026e	6a 01		 push	 1
  00270	68 00 00 00 00	 push	 OFFSET ??_C@_0BC@MAPOOMBN@COSTUME_TYPE_HAIR?$AA@
  00275	57		 push	 edi
  00276	ff d6		 call	 esi

; 621  : 
; 622  : 	//     
; 623  : 	PyModule_AddIntConstant(poModule, "COSTUME_SLOT_START",			c_Costume_Slot_Start);

  00278	68 f4 00 00 00	 push	 244			; 000000f4H
  0027d	68 00 00 00 00	 push	 OFFSET ??_C@_0BD@JCGACLBK@COSTUME_SLOT_START?$AA@
  00282	57		 push	 edi
  00283	ff d6		 call	 esi

; 624  : 	PyModule_AddIntConstant(poModule, "COSTUME_SLOT_COUNT",			c_Costume_Slot_Count);

  00285	6a 02		 push	 2
  00287	68 00 00 00 00	 push	 OFFSET ??_C@_0BD@EMMBBFMO@COSTUME_SLOT_COUNT?$AA@
  0028c	57		 push	 edi
  0028d	ff d6		 call	 esi

; 625  : 	PyModule_AddIntConstant(poModule, "COSTUME_SLOT_BODY",			c_Costume_Slot_Body);

  0028f	68 f4 00 00 00	 push	 244			; 000000f4H
  00294	68 00 00 00 00	 push	 OFFSET ??_C@_0BC@OBAEGBKN@COSTUME_SLOT_BODY?$AA@
  00299	57		 push	 edi
  0029a	ff d6		 call	 esi

; 626  : 	PyModule_AddIntConstant(poModule, "COSTUME_SLOT_HAIR",			c_Costume_Slot_Hair);

  0029c	68 f5 00 00 00	 push	 245			; 000000f5H
  002a1	68 00 00 00 00	 push	 OFFSET ??_C@_0BC@KAEHEEKH@COSTUME_SLOT_HAIR?$AA@
  002a6	57		 push	 edi
  002a7	ff d6		 call	 esi
  002a9	83 c4 48	 add	 esp, 72			; 00000048H

; 627  : 	PyModule_AddIntConstant(poModule, "COSTUME_SLOT_END",			c_Costume_Slot_End);

  002ac	68 f6 00 00 00	 push	 246			; 000000f6H
  002b1	68 00 00 00 00	 push	 OFFSET ??_C@_0BB@IEFLAOJF@COSTUME_SLOT_END?$AA@
  002b6	57		 push	 edi
  002b7	ff d6		 call	 esi

; 628  : #endif
; 629  : 
; 630  : #ifdef ENABLE_NEW_EQUIPMENT_SYSTEM
; 631  : 	PyModule_AddIntConstant(poModule, "BELT_INVENTORY_SLOT_START",			c_Belt_Inventory_Slot_Start);
; 632  : 	PyModule_AddIntConstant(poModule, "BELT_INVENTORY_SLOT_COUNT",			c_Belt_Inventory_Slot_Count);
; 633  : 	PyModule_AddIntConstant(poModule, "BELT_INVENTORY_SLOT_END",			c_Belt_Inventory_Slot_End);
; 634  : 
; 635  : #endif
; 636  : 
; 637  : 	PyModule_AddIntConstant(poModule, "WEAPON_SWORD",				CItemData::WEAPON_SWORD);

  002b9	6a 00		 push	 0
  002bb	68 00 00 00 00	 push	 OFFSET ??_C@_0N@FCLCNMLC@WEAPON_SWORD?$AA@
  002c0	57		 push	 edi
  002c1	ff d6		 call	 esi

; 638  : 	PyModule_AddIntConstant(poModule, "WEAPON_DAGGER",				CItemData::WEAPON_DAGGER);

  002c3	6a 01		 push	 1
  002c5	68 00 00 00 00	 push	 OFFSET ??_C@_0O@IMDDJKDH@WEAPON_DAGGER?$AA@
  002ca	57		 push	 edi
  002cb	ff d6		 call	 esi

; 639  : 	PyModule_AddIntConstant(poModule, "WEAPON_BOW",					CItemData::WEAPON_BOW);

  002cd	6a 02		 push	 2
  002cf	68 00 00 00 00	 push	 OFFSET ??_C@_0L@KDNCAJJM@WEAPON_BOW?$AA@
  002d4	57		 push	 edi
  002d5	ff d6		 call	 esi

; 640  : 	PyModule_AddIntConstant(poModule, "WEAPON_TWO_HANDED",			CItemData::WEAPON_TWO_HANDED);

  002d7	6a 03		 push	 3
  002d9	68 00 00 00 00	 push	 OFFSET ??_C@_0BC@OILJBHHK@WEAPON_TWO_HANDED?$AA@
  002de	57		 push	 edi
  002df	ff d6		 call	 esi

; 641  : 	PyModule_AddIntConstant(poModule, "WEAPON_BELL",				CItemData::WEAPON_BELL);

  002e1	6a 04		 push	 4
  002e3	68 00 00 00 00	 push	 OFFSET ??_C@_0M@NKBIKBJK@WEAPON_BELL?$AA@
  002e8	57		 push	 edi
  002e9	ff d6		 call	 esi
  002eb	83 c4 48	 add	 esp, 72			; 00000048H

; 642  : 	PyModule_AddIntConstant(poModule, "WEAPON_FAN",					CItemData::WEAPON_FAN);

  002ee	6a 05		 push	 5
  002f0	68 00 00 00 00	 push	 OFFSET ??_C@_0L@LNCOBKNJ@WEAPON_FAN?$AA@
  002f5	57		 push	 edi
  002f6	ff d6		 call	 esi

; 643  : 	PyModule_AddIntConstant(poModule, "WEAPON_ARROW",				CItemData::WEAPON_ARROW);

  002f8	6a 06		 push	 6
  002fa	68 00 00 00 00	 push	 OFFSET ??_C@_0N@DCOAOKB@WEAPON_ARROW?$AA@
  002ff	57		 push	 edi
  00300	ff d6		 call	 esi

; 644  : 	PyModule_AddIntConstant(poModule, "WEAPON_NUM_TYPES",			CItemData::WEAPON_NUM_TYPES);

  00302	6a 07		 push	 7
  00304	68 00 00 00 00	 push	 OFFSET ??_C@_0BB@KFDFBDPL@WEAPON_NUM_TYPES?$AA@
  00309	57		 push	 edi
  0030a	ff d6		 call	 esi

; 645  : 
; 646  : 	PyModule_AddIntConstant(poModule, "USE_POTION",					CItemData::USE_POTION);

  0030c	6a 00		 push	 0
  0030e	68 00 00 00 00	 push	 OFFSET ??_C@_0L@DENJCCNI@USE_POTION?$AA@
  00313	57		 push	 edi
  00314	ff d6		 call	 esi

; 647  : 	PyModule_AddIntConstant(poModule, "USE_TALISMAN",				CItemData::USE_TALISMAN);

  00316	6a 01		 push	 1
  00318	68 00 00 00 00	 push	 OFFSET ??_C@_0N@CINBPLKM@USE_TALISMAN?$AA@
  0031d	57		 push	 edi
  0031e	ff d6		 call	 esi

; 648  : 	PyModule_AddIntConstant(poModule, "USE_TUNING",					CItemData::USE_TUNING);

  00320	6a 02		 push	 2
  00322	68 00 00 00 00	 push	 OFFSET ??_C@_0L@JIILHJGL@USE_TUNING?$AA@
  00327	57		 push	 edi
  00328	ff d6		 call	 esi
  0032a	83 c4 48	 add	 esp, 72			; 00000048H

; 649  : 	PyModule_AddIntConstant(poModule, "USE_MOVE",					CItemData::USE_MOVE);

  0032d	6a 03		 push	 3
  0032f	68 00 00 00 00	 push	 OFFSET ??_C@_08JHFKMGGA@USE_MOVE?$AA@
  00334	57		 push	 edi
  00335	ff d6		 call	 esi

; 650  : 	PyModule_AddIntConstant(poModule, "USE_TREASURE_BOX",			CItemData::USE_TREASURE_BOX);

  00337	6a 04		 push	 4
  00339	68 00 00 00 00	 push	 OFFSET ??_C@_0BB@BBPDKOFG@USE_TREASURE_BOX?$AA@
  0033e	57		 push	 edi
  0033f	ff d6		 call	 esi

; 651  : 	PyModule_AddIntConstant(poModule, "USE_MONEYBAG",				CItemData::USE_MONEYBAG);

  00341	6a 05		 push	 5
  00343	68 00 00 00 00	 push	 OFFSET ??_C@_0N@BOHEHPFI@USE_MONEYBAG?$AA@
  00348	57		 push	 edi
  00349	ff d6		 call	 esi

; 652  : 	PyModule_AddIntConstant(poModule, "USE_BAIT",					CItemData::USE_BAIT);

  0034b	6a 06		 push	 6
  0034d	68 00 00 00 00	 push	 OFFSET ??_C@_08LBHGOBNP@USE_BAIT?$AA@
  00352	57		 push	 edi
  00353	ff d6		 call	 esi

; 653  : 	PyModule_AddIntConstant(poModule, "USE_ABILITY_UP",				CItemData::USE_ABILITY_UP);

  00355	6a 07		 push	 7
  00357	68 00 00 00 00	 push	 OFFSET ??_C@_0P@JBLCKFGE@USE_ABILITY_UP?$AA@
  0035c	57		 push	 edi
  0035d	ff d6		 call	 esi

; 654  : 	PyModule_AddIntConstant(poModule, "USE_AFFECT",					CItemData::USE_AFFECT);

  0035f	6a 08		 push	 8
  00361	68 00 00 00 00	 push	 OFFSET ??_C@_0L@DLLOJMIP@USE_AFFECT?$AA@
  00366	57		 push	 edi
  00367	ff d6		 call	 esi
  00369	83 c4 48	 add	 esp, 72			; 00000048H

; 655  : 	PyModule_AddIntConstant(poModule, "USE_CREATE_STONE",			CItemData::USE_CREATE_STONE);

  0036c	6a 09		 push	 9
  0036e	68 00 00 00 00	 push	 OFFSET ??_C@_0BB@PBBDNJH@USE_CREATE_STONE?$AA@
  00373	57		 push	 edi
  00374	ff d6		 call	 esi

; 656  : 	PyModule_AddIntConstant(poModule, "USE_SPECIAL",				CItemData::USE_SPECIAL);

  00376	6a 0a		 push	 10			; 0000000aH
  00378	68 00 00 00 00	 push	 OFFSET ??_C@_0M@GHOELJHH@USE_SPECIAL?$AA@
  0037d	57		 push	 edi
  0037e	ff d6		 call	 esi

; 657  : 	PyModule_AddIntConstant(poModule, "USE_POTION_NODELAY",			CItemData::USE_POTION_NODELAY);

  00380	6a 0b		 push	 11			; 0000000bH
  00382	68 00 00 00 00	 push	 OFFSET ??_C@_0BD@MMDEHJ@USE_POTION_NODELAY?$AA@
  00387	57		 push	 edi
  00388	ff d6		 call	 esi

; 658  : 	PyModule_AddIntConstant(poModule, "USE_CLEAR",					CItemData::USE_CLEAR);

  0038a	6a 0c		 push	 12			; 0000000cH
  0038c	68 00 00 00 00	 push	 OFFSET ??_C@_09PNKHEPEF@USE_CLEAR?$AA@
  00391	57		 push	 edi
  00392	ff d6		 call	 esi

; 659  : 	PyModule_AddIntConstant(poModule, "USE_INVISIBILITY",			CItemData::USE_INVISIBILITY);

  00394	6a 0d		 push	 13			; 0000000dH
  00396	68 00 00 00 00	 push	 OFFSET ??_C@_0BB@NCIEFOD@USE_INVISIBILITY?$AA@
  0039b	57		 push	 edi
  0039c	ff d6		 call	 esi

; 660  : 	PyModule_AddIntConstant(poModule, "USE_DETACHMENT",				CItemData::USE_DETACHMENT);

  0039e	6a 0e		 push	 14			; 0000000eH
  003a0	68 00 00 00 00	 push	 OFFSET ??_C@_0P@MKAMDACK@USE_DETACHMENT?$AA@
  003a5	57		 push	 edi
  003a6	ff d6		 call	 esi
  003a8	83 c4 48	 add	 esp, 72			; 00000048H

; 661  : 	PyModule_AddIntConstant(poModule, "USE_TIME_CHARGE_PER",		CItemData::USE_TIME_CHARGE_PER);

  003ab	6a 1b		 push	 27			; 0000001bH
  003ad	68 00 00 00 00	 push	 OFFSET ??_C@_0BE@NEAJJELI@USE_TIME_CHARGE_PER?$AA@
  003b2	57		 push	 edi
  003b3	ff d6		 call	 esi

; 662  : 	PyModule_AddIntConstant(poModule, "USE_TIME_CHARGE_FIX",		CItemData::USE_TIME_CHARGE_FIX);

  003b5	6a 1c		 push	 28			; 0000001cH
  003b7	68 00 00 00 00	 push	 OFFSET ??_C@_0BE@FCIOINBF@USE_TIME_CHARGE_FIX?$AA@
  003bc	57		 push	 edi
  003bd	ff d6		 call	 esi

; 663  : 
; 664  : 	PyModule_AddIntConstant(poModule, "MATERIAL_DS_REFINE_NORMAL",	CItemData::MATERIAL_DS_REFINE_NORMAL);

  003bf	6a 05		 push	 5
  003c1	68 00 00 00 00	 push	 OFFSET ??_C@_0BK@FFJFCNLF@MATERIAL_DS_REFINE_NORMAL?$AA@
  003c6	57		 push	 edi
  003c7	ff d6		 call	 esi

; 665  : 	PyModule_AddIntConstant(poModule, "MATERIAL_DS_REFINE_BLESSED",	CItemData::MATERIAL_DS_REFINE_BLESSED);

  003c9	6a 06		 push	 6
  003cb	68 00 00 00 00	 push	 OFFSET ??_C@_0BL@HNMOOIKG@MATERIAL_DS_REFINE_BLESSED?$AA@
  003d0	57		 push	 edi
  003d1	ff d6		 call	 esi

; 666  : 	PyModule_AddIntConstant(poModule, "MATERIAL_DS_REFINE_HOLLY",	CItemData::MATERIAL_DS_REFINE_HOLLY);

  003d3	6a 07		 push	 7
  003d5	68 00 00 00 00	 push	 OFFSET ??_C@_0BJ@KCHKGND@MATERIAL_DS_REFINE_HOLLY?$AA@
  003da	57		 push	 edi
  003db	ff d6		 call	 esi

; 667  : 
; 668  : 	PyModule_AddIntConstant(poModule, "METIN_NORMAL",				CItemData::METIN_NORMAL);

  003dd	6a 00		 push	 0
  003df	68 00 00 00 00	 push	 OFFSET ??_C@_0N@HOHHHOFD@METIN_NORMAL?$AA@
  003e4	57		 push	 edi
  003e5	ff d6		 call	 esi
  003e7	83 c4 48	 add	 esp, 72			; 00000048H

; 669  : 	PyModule_AddIntConstant(poModule, "METIN_GOLD",					CItemData::METIN_GOLD);

  003ea	6a 01		 push	 1
  003ec	68 00 00 00 00	 push	 OFFSET ??_C@_0L@MFIGJJDC@METIN_GOLD?$AA@
  003f1	57		 push	 edi
  003f2	ff d6		 call	 esi

; 670  : 
; 671  : 	PyModule_AddIntConstant(poModule, "LIMIT_NONE",					CItemData::LIMIT_NONE);

  003f4	6a 00		 push	 0
  003f6	68 00 00 00 00	 push	 OFFSET ??_C@_0L@MKHGBGII@LIMIT_NONE?$AA@
  003fb	57		 push	 edi
  003fc	ff d6		 call	 esi

; 672  : 	PyModule_AddIntConstant(poModule, "LIMIT_LEVEL",				CItemData::LIMIT_LEVEL);

  003fe	6a 01		 push	 1
  00400	68 00 00 00 00	 push	 OFFSET ??_C@_0M@CNLALLNH@LIMIT_LEVEL?$AA@
  00405	57		 push	 edi
  00406	ff d6		 call	 esi

; 673  : 	PyModule_AddIntConstant(poModule, "LIMIT_STR",					CItemData::LIMIT_STR);

  00408	6a 02		 push	 2
  0040a	68 00 00 00 00	 push	 OFFSET ??_C@_09JOBFCJGA@LIMIT_STR?$AA@
  0040f	57		 push	 edi
  00410	ff d6		 call	 esi

; 674  : 	PyModule_AddIntConstant(poModule, "LIMIT_DEX",					CItemData::LIMIT_DEX);

  00412	6a 03		 push	 3
  00414	68 00 00 00 00	 push	 OFFSET ??_C@_09LENAGHIL@LIMIT_DEX?$AA@
  00419	57		 push	 edi
  0041a	ff d6		 call	 esi

; 675  : 	PyModule_AddIntConstant(poModule, "LIMIT_INT",					CItemData::LIMIT_INT);

  0041c	6a 04		 push	 4
  0041e	68 00 00 00 00	 push	 OFFSET ??_C@_09OGFKBPLL@LIMIT_INT?$AA@
  00423	57		 push	 edi
  00424	ff d6		 call	 esi
  00426	83 c4 48	 add	 esp, 72			; 00000048H

; 676  : 	PyModule_AddIntConstant(poModule, "LIMIT_CON",					CItemData::LIMIT_CON);

  00429	6a 05		 push	 5
  0042b	68 00 00 00 00	 push	 OFFSET ??_C@_09DIAIGPDD@LIMIT_CON?$AA@
  00430	57		 push	 edi
  00431	ff d6		 call	 esi

; 677  : 	PyModule_AddIntConstant(poModule, "LIMIT_PCBANG",				CItemData::LIMIT_PCBANG);

  00433	6a 06		 push	 6
  00435	68 00 00 00 00	 push	 OFFSET ??_C@_0N@MIADEJNC@LIMIT_PCBANG?$AA@
  0043a	57		 push	 edi
  0043b	ff d6		 call	 esi

; 678  : 	PyModule_AddIntConstant(poModule, "LIMIT_REAL_TIME",			CItemData::LIMIT_REAL_TIME);

  0043d	6a 07		 push	 7
  0043f	68 00 00 00 00	 push	 OFFSET ??_C@_0BA@FCJCAFPM@LIMIT_REAL_TIME?$AA@
  00444	57		 push	 edi
  00445	ff d6		 call	 esi

; 679  : 	PyModule_AddIntConstant(poModule, "LIMIT_REAL_TIME_START_FIRST_USE",	CItemData::LIMIT_REAL_TIME_START_FIRST_USE);

  00447	6a 08		 push	 8
  00449	68 00 00 00 00	 push	 OFFSET ??_C@_0CA@KECNELOI@LIMIT_REAL_TIME_START_FIRST_USE?$AA@
  0044e	57		 push	 edi
  0044f	ff d6		 call	 esi

; 680  : 	PyModule_AddIntConstant(poModule, "LIMIT_TIMER_BASED_ON_WEAR",	CItemData::LIMIT_TIMER_BASED_ON_WEAR);

  00451	6a 09		 push	 9
  00453	68 00 00 00 00	 push	 OFFSET ??_C@_0BK@DKGMKHOA@LIMIT_TIMER_BASED_ON_WEAR?$AA@
  00458	57		 push	 edi
  00459	ff d6		 call	 esi

; 681  : 	PyModule_AddIntConstant(poModule, "LIMIT_TYPE_MAX_NUM",			CItemData::LIMIT_MAX_NUM);

  0045b	6a 0a		 push	 10			; 0000000aH
  0045d	68 00 00 00 00	 push	 OFFSET ??_C@_0BD@JIAJEJNL@LIMIT_TYPE_MAX_NUM?$AA@
  00462	57		 push	 edi
  00463	ff d6		 call	 esi
  00465	83 c4 48	 add	 esp, 72			; 00000048H

; 682  : 	PyModule_AddIntConstant(poModule, "LIMIT_MAX_NUM",				CItemData::ITEM_LIMIT_MAX_NUM);

  00468	6a 02		 push	 2
  0046a	68 00 00 00 00	 push	 OFFSET ??_C@_0O@DPNMMLCK@LIMIT_MAX_NUM?$AA@
  0046f	57		 push	 edi
  00470	ff d6		 call	 esi

; 683  : 
; 684  : 	PyModule_AddIntConstant(poModule, "ITEM_ANTIFLAG_FEMALE",		CItemData::ITEM_ANTIFLAG_FEMALE);

  00472	6a 01		 push	 1
  00474	68 00 00 00 00	 push	 OFFSET ??_C@_0BF@DFHLBKDO@ITEM_ANTIFLAG_FEMALE?$AA@
  00479	57		 push	 edi
  0047a	ff d6		 call	 esi

; 685  : 	PyModule_AddIntConstant(poModule, "ITEM_ANTIFLAG_MALE",			CItemData::ITEM_ANTIFLAG_MALE);

  0047c	6a 02		 push	 2
  0047e	68 00 00 00 00	 push	 OFFSET ??_C@_0BD@DBFGLDPM@ITEM_ANTIFLAG_MALE?$AA@
  00483	57		 push	 edi
  00484	ff d6		 call	 esi

; 686  : 	PyModule_AddIntConstant(poModule, "ITEM_ANTIFLAG_WARRIOR",		CItemData::ITEM_ANTIFLAG_WARRIOR);

  00486	6a 04		 push	 4
  00488	68 00 00 00 00	 push	 OFFSET ??_C@_0BG@OCAOGEDJ@ITEM_ANTIFLAG_WARRIOR?$AA@
  0048d	57		 push	 edi
  0048e	ff d6		 call	 esi

; 687  : 	PyModule_AddIntConstant(poModule, "ITEM_ANTIFLAG_ASSASSIN",		CItemData::ITEM_ANTIFLAG_ASSASSIN);

  00490	6a 08		 push	 8
  00492	68 00 00 00 00	 push	 OFFSET ??_C@_0BH@NDIALJFO@ITEM_ANTIFLAG_ASSASSIN?$AA@
  00497	57		 push	 edi
  00498	ff d6		 call	 esi

; 688  : 	PyModule_AddIntConstant(poModule, "ITEM_ANTIFLAG_SURA",			CItemData::ITEM_ANTIFLAG_SURA);

  0049a	6a 10		 push	 16			; 00000010H
  0049c	68 00 00 00 00	 push	 OFFSET ??_C@_0BD@EDCJBBKJ@ITEM_ANTIFLAG_SURA?$AA@
  004a1	57		 push	 edi
  004a2	ff d6		 call	 esi
  004a4	83 c4 48	 add	 esp, 72			; 00000048H

; 689  : 	PyModule_AddIntConstant(poModule, "ITEM_ANTIFLAG_SHAMAN",		CItemData::ITEM_ANTIFLAG_SHAMAN);

  004a7	6a 20		 push	 32			; 00000020H
  004a9	68 00 00 00 00	 push	 OFFSET ??_C@_0BF@NIAJKCKI@ITEM_ANTIFLAG_SHAMAN?$AA@
  004ae	57		 push	 edi
  004af	ff d6		 call	 esi

; 690  : 	PyModule_AddIntConstant(poModule, "ITEM_ANTIFLAG_GET",			CItemData::ITEM_ANTIFLAG_GET);

  004b1	6a 40		 push	 64			; 00000040H
  004b3	68 00 00 00 00	 push	 OFFSET ??_C@_0BC@NECEHGFA@ITEM_ANTIFLAG_GET?$AA@
  004b8	57		 push	 edi
  004b9	ff d6		 call	 esi

; 691  : 	PyModule_AddIntConstant(poModule, "ITEM_ANTIFLAG_DROP",			CItemData::ITEM_ANTIFLAG_DROP);

  004bb	68 80 00 00 00	 push	 128			; 00000080H
  004c0	68 00 00 00 00	 push	 OFFSET ??_C@_0BD@ELBJHBLB@ITEM_ANTIFLAG_DROP?$AA@
  004c5	57		 push	 edi
  004c6	ff d6		 call	 esi

; 692  : 	PyModule_AddIntConstant(poModule, "ITEM_ANTIFLAG_SELL",			CItemData::ITEM_ANTIFLAG_SELL);

  004c8	68 00 01 00 00	 push	 256			; 00000100H
  004cd	68 00 00 00 00	 push	 OFFSET ??_C@_0BD@LACGLGAB@ITEM_ANTIFLAG_SELL?$AA@
  004d2	57		 push	 edi
  004d3	ff d6		 call	 esi

; 693  : 	PyModule_AddIntConstant(poModule, "ITEM_ANTIFLAG_EMPIRE_A",		CItemData::ITEM_ANTIFLAG_EMPIRE_A);

  004d5	68 00 02 00 00	 push	 512			; 00000200H
  004da	68 00 00 00 00	 push	 OFFSET ??_C@_0BH@ONMHLBEF@ITEM_ANTIFLAG_EMPIRE_A?$AA@
  004df	57		 push	 edi
  004e0	ff d6		 call	 esi

; 694  : 	PyModule_AddIntConstant(poModule, "ITEM_ANTIFLAG_EMPIRE_B",		CItemData::ITEM_ANTIFLAG_EMPIRE_B);

  004e2	68 00 04 00 00	 push	 1024			; 00000400H
  004e7	68 00 00 00 00	 push	 OFFSET ??_C@_0BH@MGOKOCIG@ITEM_ANTIFLAG_EMPIRE_B?$AA@
  004ec	57		 push	 edi
  004ed	ff d6		 call	 esi
  004ef	83 c4 48	 add	 esp, 72			; 00000048H

; 695  : 	PyModule_AddIntConstant(poModule, "ITEM_ANTIFLAG_EMPIRE_R",		CItemData::ITEM_ANTIFLAG_EMPIRE_R);

  004f2	68 00 08 00 00	 push	 2048			; 00000800H
  004f7	68 00 00 00 00	 push	 OFFSET ??_C@_0BH@IMCIPANH@ITEM_ANTIFLAG_EMPIRE_R?$AA@
  004fc	57		 push	 edi
  004fd	ff d6		 call	 esi

; 696  : 	PyModule_AddIntConstant(poModule, "ITEM_ANTIFLAG_SAVE",			CItemData::ITEM_ANTIFLAG_SAVE);

  004ff	68 00 10 00 00	 push	 4096			; 00001000H
  00504	68 00 00 00 00	 push	 OFFSET ??_C@_0BD@PPDHLMLJ@ITEM_ANTIFLAG_SAVE?$AA@
  00509	57		 push	 edi
  0050a	ff d6		 call	 esi

; 697  : 	PyModule_AddIntConstant(poModule, "ITEM_ANTIFLAG_GIVE",			CItemData::ITEM_ANTIFLAG_GIVE);

  0050c	68 00 20 00 00	 push	 8192			; 00002000H
  00511	68 00 00 00 00	 push	 OFFSET ??_C@_0BD@KPODKFBE@ITEM_ANTIFLAG_GIVE?$AA@
  00516	57		 push	 edi
  00517	ff d6		 call	 esi

; 698  : 	PyModule_AddIntConstant(poModule, "ITEM_ANTIFLAG_PKDROP",		CItemData::ITEM_ANTIFLAG_PKDROP);

  00519	68 00 40 00 00	 push	 16384			; 00004000H
  0051e	68 00 00 00 00	 push	 OFFSET ??_C@_0BF@HBDABAPH@ITEM_ANTIFLAG_PKDROP?$AA@
  00523	57		 push	 edi
  00524	ff d6		 call	 esi

; 699  : 	PyModule_AddIntConstant(poModule, "ITEM_ANTIFLAG_STACK",		CItemData::ITEM_ANTIFLAG_STACK);

  00526	68 00 80 00 00	 push	 32768			; 00008000H
  0052b	68 00 00 00 00	 push	 OFFSET ??_C@_0BE@MAIMKBDM@ITEM_ANTIFLAG_STACK?$AA@
  00530	57		 push	 edi
  00531	ff d6		 call	 esi

; 700  : 	PyModule_AddIntConstant(poModule, "ITEM_ANTIFLAG_MYSHOP",		CItemData::ITEM_ANTIFLAG_MYSHOP);

  00533	68 00 00 01 00	 push	 65536			; 00010000H
  00538	68 00 00 00 00	 push	 OFFSET ??_C@_0BF@NEEDLCAA@ITEM_ANTIFLAG_MYSHOP?$AA@
  0053d	57		 push	 edi
  0053e	ff d6		 call	 esi
  00540	83 c4 48	 add	 esp, 72			; 00000048H

; 701  : 
; 702  : 	PyModule_AddIntConstant(poModule, "ITEM_FLAG_RARE",				CItemData::ITEM_FLAG_RARE);

  00543	6a 20		 push	 32			; 00000020H
  00545	68 00 00 00 00	 push	 OFFSET ??_C@_0P@POCGDPPH@ITEM_FLAG_RARE?$AA@
  0054a	57		 push	 edi
  0054b	ff d6		 call	 esi

; 703  : 	PyModule_AddIntConstant(poModule, "ITEM_FLAG_UNIQUE",			CItemData::ITEM_FLAG_UNIQUE);

  0054d	6a 40		 push	 64			; 00000040H
  0054f	68 00 00 00 00	 push	 OFFSET ??_C@_0BB@PGFIBJHK@ITEM_FLAG_UNIQUE?$AA@
  00554	57		 push	 edi
  00555	ff d6		 call	 esi

; 704  : 	PyModule_AddIntConstant(poModule, "ITEM_FLAG_CONFIRM_WHEN_USE",	CItemData::ITEM_FLAG_CONFIRM_WHEN_USE);

  00557	68 00 02 00 00	 push	 512			; 00000200H
  0055c	68 00 00 00 00	 push	 OFFSET ??_C@_0BL@IPKGPKMA@ITEM_FLAG_CONFIRM_WHEN_USE?$AA@
  00561	57		 push	 edi
  00562	ff d6		 call	 esi

; 705  : 
; 706  : 	PyModule_AddIntConstant(poModule, "ANTIFLAG_FEMALE",			CItemData::ITEM_ANTIFLAG_FEMALE);

  00564	6a 01		 push	 1
  00566	68 00 00 00 00	 push	 OFFSET ??_C@_0BA@PLOPKCNG@ANTIFLAG_FEMALE?$AA@
  0056b	57		 push	 edi
  0056c	ff d6		 call	 esi

; 707  : 	PyModule_AddIntConstant(poModule, "ANTIFLAG_MALE",				CItemData::ITEM_ANTIFLAG_MALE);

  0056e	6a 02		 push	 2
  00570	68 00 00 00 00	 push	 OFFSET ??_C@_0O@GCOFJDKL@ANTIFLAG_MALE?$AA@
  00575	57		 push	 edi
  00576	ff d6		 call	 esi

; 708  : 	PyModule_AddIntConstant(poModule, "ANTIFLAG_WARRIOR",			CItemData::ITEM_ANTIFLAG_WARRIOR);

  00578	6a 04		 push	 4
  0057a	68 00 00 00 00	 push	 OFFSET ??_C@_0BB@EMBBJKML@ANTIFLAG_WARRIOR?$AA@
  0057f	57		 push	 edi
  00580	ff d6		 call	 esi
  00582	83 c4 48	 add	 esp, 72			; 00000048H

; 709  : 	PyModule_AddIntConstant(poModule, "ANTIFLAG_ASSASSIN",			CItemData::ITEM_ANTIFLAG_ASSASSIN);

  00585	6a 08		 push	 8
  00587	68 00 00 00 00	 push	 OFFSET ??_C@_0BC@IAJNDFJA@ANTIFLAG_ASSASSIN?$AA@
  0058c	57		 push	 edi
  0058d	ff d6		 call	 esi

; 710  : 	PyModule_AddIntConstant(poModule, "ANTIFLAG_SURA",				CItemData::ITEM_ANTIFLAG_SURA);

  0058f	6a 10		 push	 16			; 00000010H
  00591	68 00 00 00 00	 push	 OFFSET ??_C@_0O@BAJKDBPO@ANTIFLAG_SURA?$AA@
  00596	57		 push	 edi
  00597	ff d6		 call	 esi

; 711  : 	PyModule_AddIntConstant(poModule, "ANTIFLAG_SHAMAN",			CItemData::ITEM_ANTIFLAG_SHAMAN);

  00599	6a 20		 push	 32			; 00000020H
  0059b	68 00 00 00 00	 push	 OFFSET ??_C@_0BA@BGJNBKEA@ANTIFLAG_SHAMAN?$AA@
  005a0	57		 push	 edi
  005a1	ff d6		 call	 esi

; 712  : 	PyModule_AddIntConstant(poModule, "ANTIFLAG_GET",				CItemData::ITEM_ANTIFLAG_GET);

  005a3	6a 40		 push	 64			; 00000040H
  005a5	68 00 00 00 00	 push	 OFFSET ??_C@_0N@NEJHBBKC@ANTIFLAG_GET?$AA@
  005aa	57		 push	 edi
  005ab	ff d6		 call	 esi

; 713  : 	PyModule_AddIntConstant(poModule, "ANTIFLAG_DROP",				CItemData::ITEM_ANTIFLAG_DROP);

  005ad	68 80 00 00 00	 push	 128			; 00000080H
  005b2	68 00 00 00 00	 push	 OFFSET ??_C@_0O@BIKKFBOG@ANTIFLAG_DROP?$AA@
  005b7	57		 push	 edi
  005b8	ff d6		 call	 esi

; 714  : 	PyModule_AddIntConstant(poModule, "ANTIFLAG_SELL",				CItemData::ITEM_ANTIFLAG_SELL);

  005ba	68 00 01 00 00	 push	 256			; 00000100H
  005bf	68 00 00 00 00	 push	 OFFSET ??_C@_0O@ODJFJGFG@ANTIFLAG_SELL?$AA@
  005c4	57		 push	 edi
  005c5	ff d6		 call	 esi
  005c7	83 c4 48	 add	 esp, 72			; 00000048H

; 715  : 	PyModule_AddIntConstant(poModule, "ANTIFLAG_EMPIRE_A",			CItemData::ITEM_ANTIFLAG_EMPIRE_A);

  005ca	68 00 02 00 00	 push	 512			; 00000200H
  005cf	68 00 00 00 00	 push	 OFFSET ??_C@_0BC@LONKDNIL@ANTIFLAG_EMPIRE_A?$AA@
  005d4	57		 push	 edi
  005d5	ff d6		 call	 esi

; 716  : 	PyModule_AddIntConstant(poModule, "ANTIFLAG_EMPIRE_B",			CItemData::ITEM_ANTIFLAG_EMPIRE_B);

  005d7	68 00 04 00 00	 push	 1024			; 00000400H
  005dc	68 00 00 00 00	 push	 OFFSET ??_C@_0BC@JFPHGOEI@ANTIFLAG_EMPIRE_B?$AA@
  005e1	57		 push	 edi
  005e2	ff d6		 call	 esi

; 717  : 	PyModule_AddIntConstant(poModule, "ANTIFLAG_EMPIRE_R",			CItemData::ITEM_ANTIFLAG_EMPIRE_R);

  005e4	68 00 08 00 00	 push	 2048			; 00000800H
  005e9	68 00 00 00 00	 push	 OFFSET ??_C@_0BC@NPDFHMBJ@ANTIFLAG_EMPIRE_R?$AA@
  005ee	57		 push	 edi
  005ef	ff d6		 call	 esi

; 718  : 	PyModule_AddIntConstant(poModule, "ANTIFLAG_SAVE",				CItemData::ITEM_ANTIFLAG_SAVE);

  005f1	68 00 10 00 00	 push	 4096			; 00001000H
  005f6	68 00 00 00 00	 push	 OFFSET ??_C@_0O@KMIEJMOO@ANTIFLAG_SAVE?$AA@
  005fb	57		 push	 edi
  005fc	ff d6		 call	 esi

; 719  : 	PyModule_AddIntConstant(poModule, "ANTIFLAG_GIVE",				CItemData::ITEM_ANTIFLAG_GIVE);

  005fe	68 00 20 00 00	 push	 8192			; 00002000H
  00603	68 00 00 00 00	 push	 OFFSET ??_C@_0O@PMFAIFED@ANTIFLAG_GIVE?$AA@
  00608	57		 push	 edi
  00609	ff d6		 call	 esi

; 720  : 	PyModule_AddIntConstant(poModule, "ANTIFLAG_PKDROP",			CItemData::ITEM_ANTIFLAG_PKDROP);

  0060b	68 00 40 00 00	 push	 16384			; 00004000H
  00610	68 00 00 00 00	 push	 OFFSET ??_C@_0BA@LPKEKIBP@ANTIFLAG_PKDROP?$AA@
  00615	57		 push	 edi
  00616	ff d6		 call	 esi
  00618	83 c4 48	 add	 esp, 72			; 00000048H

; 721  : 	PyModule_AddIntConstant(poModule, "ANTIFLAG_STACK",				CItemData::ITEM_ANTIFLAG_STACK);

  0061b	68 00 80 00 00	 push	 32768			; 00008000H
  00620	68 00 00 00 00	 push	 OFFSET ??_C@_0P@DFNANGEL@ANTIFLAG_STACK?$AA@
  00625	57		 push	 edi
  00626	ff d6		 call	 esi

; 722  : 	PyModule_AddIntConstant(poModule, "ANTIFLAG_MYSHOP",			CItemData::ITEM_ANTIFLAG_MYSHOP);

  00628	68 00 00 01 00	 push	 65536			; 00010000H
  0062d	68 00 00 00 00	 push	 OFFSET ??_C@_0BA@BKNHAKOI@ANTIFLAG_MYSHOP?$AA@
  00632	57		 push	 edi
  00633	ff d6		 call	 esi

; 723  : 
; 724  : 	PyModule_AddIntConstant(poModule, "WEARABLE_BODY",				CItemData::WEARABLE_BODY);

  00635	6a 01		 push	 1
  00637	68 00 00 00 00	 push	 OFFSET ??_C@_0O@KOFPKKKF@WEARABLE_BODY?$AA@
  0063c	57		 push	 edi
  0063d	ff d6		 call	 esi

; 725  : 	PyModule_AddIntConstant(poModule, "WEARABLE_HEAD",				CItemData::WEARABLE_HEAD);

  0063f	6a 02		 push	 2
  00641	68 00 00 00 00	 push	 OFFSET ??_C@_0O@HCPFPMJH@WEARABLE_HEAD?$AA@
  00646	57		 push	 edi
  00647	ff d6		 call	 esi

; 726  : 	PyModule_AddIntConstant(poModule, "WEARABLE_FOOTS",				CItemData::WEARABLE_FOOTS);

  00649	6a 04		 push	 4
  0064b	68 00 00 00 00	 push	 OFFSET ??_C@_0P@HDMMFABO@WEARABLE_FOOTS?$AA@
  00650	57		 push	 edi
  00651	ff d6		 call	 esi

; 727  : 	PyModule_AddIntConstant(poModule, "WEARABLE_WRIST",				CItemData::WEARABLE_WRIST);

  00653	6a 08		 push	 8
  00655	68 00 00 00 00	 push	 OFFSET ??_C@_0P@EMFDANIN@WEARABLE_WRIST?$AA@
  0065a	57		 push	 edi
  0065b	ff d6		 call	 esi
  0065d	83 c4 48	 add	 esp, 72			; 00000048H

; 728  : 	PyModule_AddIntConstant(poModule, "WEARABLE_WEAPON",			CItemData::WEARABLE_WEAPON);

  00660	6a 10		 push	 16			; 00000010H
  00662	68 00 00 00 00	 push	 OFFSET ??_C@_0BA@NBNKFEIG@WEARABLE_WEAPON?$AA@
  00667	57		 push	 edi
  00668	ff d6		 call	 esi

; 729  : 	PyModule_AddIntConstant(poModule, "WEARABLE_NECK",				CItemData::WEARABLE_NECK);

  0066a	6a 20		 push	 32			; 00000020H
  0066c	68 00 00 00 00	 push	 OFFSET ??_C@_0O@HJKJMBJG@WEARABLE_NECK?$AA@
  00671	57		 push	 edi
  00672	ff d6		 call	 esi

; 730  : 	PyModule_AddIntConstant(poModule, "WEARABLE_EAR",				CItemData::WEARABLE_EAR);

  00674	6a 40		 push	 64			; 00000040H
  00676	68 00 00 00 00	 push	 OFFSET ??_C@_0N@BHKGKGNM@WEARABLE_EAR?$AA@
  0067b	57		 push	 edi
  0067c	ff d6		 call	 esi

; 731  : 	PyModule_AddIntConstant(poModule, "WEARABLE_UNIQUE",			CItemData::WEARABLE_UNIQUE);

  0067e	68 80 00 00 00	 push	 128			; 00000080H
  00683	68 00 00 00 00	 push	 OFFSET ??_C@_0BA@FGALGGKF@WEARABLE_UNIQUE?$AA@
  00688	57		 push	 edi
  00689	ff d6		 call	 esi

; 732  : 	PyModule_AddIntConstant(poModule, "WEARABLE_SHIELD",			CItemData::WEARABLE_SHIELD);

  0068b	68 00 01 00 00	 push	 256			; 00000100H
  00690	68 00 00 00 00	 push	 OFFSET ??_C@_0BA@DGBFNJPE@WEARABLE_SHIELD?$AA@
  00695	57		 push	 edi
  00696	ff d6		 call	 esi

; 733  : 	PyModule_AddIntConstant(poModule, "WEARABLE_ARROW",				CItemData::WEARABLE_ARROW);

  00698	68 00 02 00 00	 push	 512			; 00000200H
  0069d	68 00 00 00 00	 push	 OFFSET ??_C@_0P@CANFDFEC@WEARABLE_ARROW?$AA@
  006a2	57		 push	 edi
  006a3	ff d6		 call	 esi
  006a5	83 c4 48	 add	 esp, 72			; 00000048H

; 734  : 
; 735  : 	PyModule_AddIntConstant(poModule, "ARMOR_BODY",					CItemData::ARMOR_BODY);

  006a8	6a 00		 push	 0
  006aa	68 00 00 00 00	 push	 OFFSET ??_C@_0L@FFADCIKH@ARMOR_BODY?$AA@
  006af	57		 push	 edi
  006b0	ff d6		 call	 esi

; 736  : 	PyModule_AddIntConstant(poModule, "ARMOR_HEAD",					CItemData::ARMOR_HEAD);

  006b2	6a 01		 push	 1
  006b4	68 00 00 00 00	 push	 OFFSET ??_C@_0L@IJKJHOJF@ARMOR_HEAD?$AA@
  006b9	57		 push	 edi
  006ba	ff d6		 call	 esi

; 737  : 	PyModule_AddIntConstant(poModule, "ARMOR_SHIELD",				CItemData::ARMOR_SHIELD);

  006bc	6a 02		 push	 2
  006be	68 00 00 00 00	 push	 OFFSET ??_C@_0N@HJFKCCG@ARMOR_SHIELD?$AA@
  006c3	57		 push	 edi
  006c4	ff d6		 call	 esi

; 738  : 	PyModule_AddIntConstant(poModule, "ARMOR_WRIST",				CItemData::ARMOR_WRIST);

  006c6	6a 03		 push	 3
  006c8	68 00 00 00 00	 push	 OFFSET ??_C@_0M@KCKGDACD@ARMOR_WRIST?$AA@
  006cd	57		 push	 edi
  006ce	ff d6		 call	 esi

; 739  : 	PyModule_AddIntConstant(poModule, "ARMOR_FOOTS",				CItemData::ARMOR_FOOTS);

  006d0	6a 04		 push	 4
  006d2	68 00 00 00 00	 push	 OFFSET ??_C@_0M@JNDJGNLA@ARMOR_FOOTS?$AA@
  006d7	57		 push	 edi
  006d8	ff d6		 call	 esi

; 740  : 	PyModule_AddIntConstant(poModule, "ARMOR_NECK",					CItemData::ARMOR_NECK);

  006da	6a 05		 push	 5
  006dc	68 00 00 00 00	 push	 OFFSET ??_C@_0L@ICPFEDJE@ARMOR_NECK?$AA@
  006e1	57		 push	 edi
  006e2	ff d6		 call	 esi
  006e4	83 c4 48	 add	 esp, 72			; 00000048H

; 741  : 	PyModule_AddIntConstant(poModule, "ARMOR_EAR",					CItemData::ARMOR_EAR);

  006e7	6a 06		 push	 6
  006e9	68 00 00 00 00	 push	 OFFSET ??_C@_09JPGIMBID@ARMOR_EAR?$AA@
  006ee	57		 push	 edi
  006ef	ff d6		 call	 esi

; 742  : 	
; 743  : 	PyModule_AddIntConstant(poModule, "ITEM_APPLY_MAX_NUM",			CItemData::ITEM_APPLY_MAX_NUM);

  006f1	6a 03		 push	 3
  006f3	68 00 00 00 00	 push	 OFFSET ??_C@_0BD@POBJPMPE@ITEM_APPLY_MAX_NUM?$AA@
  006f8	57		 push	 edi
  006f9	ff d6		 call	 esi

; 744  : 	PyModule_AddIntConstant(poModule, "ITEM_SOCKET_MAX_NUM",		CItemData::ITEM_SOCKET_MAX_NUM);

  006fb	6a 03		 push	 3
  006fd	68 00 00 00 00	 push	 OFFSET ??_C@_0BE@PABFDMOM@ITEM_SOCKET_MAX_NUM?$AA@
  00702	57		 push	 edi
  00703	ff d6		 call	 esi

; 745  : 
; 746  : 	PyModule_AddIntConstant(poModule, "APPLY_NONE",					CItemData::APPLY_NONE);

  00705	6a 00		 push	 0
  00707	68 00 00 00 00	 push	 OFFSET ??_C@_0L@KOOBDLCP@APPLY_NONE?$AA@
  0070c	57		 push	 edi
  0070d	ff d6		 call	 esi

; 747  : 	PyModule_AddIntConstant(poModule, "APPLY_STR",					CItemData::APPLY_STR);

  0070f	6a 05		 push	 5
  00711	68 00 00 00 00	 push	 OFFSET ??_C@_09GCJAEOHJ@APPLY_STR?$AA@
  00716	57		 push	 edi
  00717	ff d6		 call	 esi

; 748  : 	PyModule_AddIntConstant(poModule, "APPLY_DEX",					CItemData::APPLY_DEX);

  00719	6a 06		 push	 6
  0071b	68 00 00 00 00	 push	 OFFSET ??_C@_09EIFFAAJC@APPLY_DEX?$AA@
  00720	57		 push	 edi
  00721	ff d6		 call	 esi
  00723	83 c4 48	 add	 esp, 72			; 00000048H

; 749  : 	PyModule_AddIntConstant(poModule, "APPLY_CON",					CItemData::APPLY_CON);

  00726	6a 03		 push	 3
  00728	68 00 00 00 00	 push	 OFFSET ??_C@_09MEINAICK@APPLY_CON?$AA@
  0072d	57		 push	 edi
  0072e	ff d6		 call	 esi

; 750  : 	PyModule_AddIntConstant(poModule, "APPLY_INT",					CItemData::APPLY_INT);

  00730	6a 04		 push	 4
  00732	68 00 00 00 00	 push	 OFFSET ??_C@_09BKNPHIKC@APPLY_INT?$AA@
  00737	57		 push	 edi
  00738	ff d6		 call	 esi

; 751  : 	PyModule_AddIntConstant(poModule, "APPLY_MAX_HP",				CItemData::APPLY_MAX_HP);

  0073a	6a 01		 push	 1
  0073c	68 00 00 00 00	 push	 OFFSET ??_C@_0N@LMMDFALA@APPLY_MAX_HP?$AA@
  00741	57		 push	 edi
  00742	ff d6		 call	 esi

; 752  : 	PyModule_AddIntConstant(poModule, "APPLY_MAX_SP",				CItemData::APPLY_MAX_SP);

  00744	6a 02		 push	 2
  00746	68 00 00 00 00	 push	 OFFSET ??_C@_0N@KMLABMCB@APPLY_MAX_SP?$AA@
  0074b	57		 push	 edi
  0074c	ff d6		 call	 esi

; 753  : 	PyModule_AddIntConstant(poModule, "APPLY_HP_REGEN",				CItemData::APPLY_HP_REGEN);

  0074e	6a 0a		 push	 10			; 0000000aH
  00750	68 00 00 00 00	 push	 OFFSET ??_C@_0P@CBOEJMBC@APPLY_HP_REGEN?$AA@
  00755	57		 push	 edi
  00756	ff d6		 call	 esi

; 754  : 	PyModule_AddIntConstant(poModule, "APPLY_SP_REGEN",				CItemData::APPLY_SP_REGEN);

  00758	6a 0b		 push	 11			; 0000000bH
  0075a	68 00 00 00 00	 push	 OFFSET ??_C@_0P@PHBEALO@APPLY_SP_REGEN?$AA@
  0075f	57		 push	 edi
  00760	ff d6		 call	 esi
  00762	83 c4 48	 add	 esp, 72			; 00000048H

; 755  : 	PyModule_AddIntConstant(poModule, "APPLY_DEF_GRADE_BONUS",		CItemData::APPLY_DEF_GRADE_BONUS);

  00765	6a 36		 push	 54			; 00000036H
  00767	68 00 00 00 00	 push	 OFFSET ??_C@_0BG@DJGIDNN@APPLY_DEF_GRADE_BONUS?$AA@
  0076c	57		 push	 edi
  0076d	ff d6		 call	 esi

; 756  : 	PyModule_AddIntConstant(poModule, "APPLY_ATT_GRADE_BONUS",		CItemData::APPLY_ATT_GRADE_BONUS);

  0076f	6a 35		 push	 53			; 00000035H
  00771	68 00 00 00 00	 push	 OFFSET ??_C@_0BG@DIKOCKN@APPLY_ATT_GRADE_BONUS?$AA@
  00776	57		 push	 edi
  00777	ff d6		 call	 esi

; 757  : 	PyModule_AddIntConstant(poModule, "APPLY_ATT_SPEED",			CItemData::APPLY_ATT_SPEED);

  00779	6a 07		 push	 7
  0077b	68 00 00 00 00	 push	 OFFSET ??_C@_0BA@PBNDFNHA@APPLY_ATT_SPEED?$AA@
  00780	57		 push	 edi
  00781	ff d6		 call	 esi

; 758  : 	PyModule_AddIntConstant(poModule, "APPLY_MOV_SPEED",			CItemData::APPLY_MOV_SPEED);

  00783	6a 08		 push	 8
  00785	68 00 00 00 00	 push	 OFFSET ??_C@_0BA@IHFPGGCP@APPLY_MOV_SPEED?$AA@
  0078a	57		 push	 edi
  0078b	ff d6		 call	 esi

; 759  : 	PyModule_AddIntConstant(poModule, "APPLY_CAST_SPEED",			CItemData::APPLY_CAST_SPEED);

  0078d	6a 09		 push	 9
  0078f	68 00 00 00 00	 push	 OFFSET ??_C@_0BB@IMPHMAIN@APPLY_CAST_SPEED?$AA@
  00794	57		 push	 edi
  00795	ff d6		 call	 esi

; 760  : 	PyModule_AddIntConstant(poModule, "APPLY_MAGIC_ATT_GRADE",		CItemData::APPLY_MAGIC_ATT_GRADE);

  00797	6a 37		 push	 55			; 00000037H
  00799	68 00 00 00 00	 push	 OFFSET ??_C@_0BG@JIJNNLOL@APPLY_MAGIC_ATT_GRADE?$AA@
  0079e	57		 push	 edi
  0079f	ff d6		 call	 esi
  007a1	83 c4 48	 add	 esp, 72			; 00000048H

; 761  : 	PyModule_AddIntConstant(poModule, "APPLY_MAGIC_DEF_GRADE",		CItemData::APPLY_MAGIC_DEF_GRADE);

  007a4	6a 38		 push	 56			; 00000038H
  007a6	68 00 00 00 00	 push	 OFFSET ??_C@_0BG@PLJBHAML@APPLY_MAGIC_DEF_GRADE?$AA@
  007ab	57		 push	 edi
  007ac	ff d6		 call	 esi

; 762  : 	PyModule_AddIntConstant(poModule, "APPLY_SKILL",				CItemData::APPLY_SKILL);

  007ae	6a 33		 push	 51			; 00000033H
  007b0	68 00 00 00 00	 push	 OFFSET ??_C@_0M@CPHNGINI@APPLY_SKILL?$AA@
  007b5	57		 push	 edi
  007b6	ff d6		 call	 esi

; 763  :     PyModule_AddIntConstant(poModule, "APPLY_ATTBONUS_ANIMAL",		CItemData::APPLY_ATTBONUS_ANIMAL);

  007b8	6a 12		 push	 18			; 00000012H
  007ba	68 00 00 00 00	 push	 OFFSET ??_C@_0BG@FCHNFPKG@APPLY_ATTBONUS_ANIMAL?$AA@
  007bf	57		 push	 edi
  007c0	ff d6		 call	 esi

; 764  :     PyModule_AddIntConstant(poModule, "APPLY_ATTBONUS_UNDEAD",		CItemData::APPLY_ATTBONUS_UNDEAD);

  007c2	6a 15		 push	 21			; 00000015H
  007c4	68 00 00 00 00	 push	 OFFSET ??_C@_0BG@DEBBIBCN@APPLY_ATTBONUS_UNDEAD?$AA@
  007c9	57		 push	 edi
  007ca	ff d6		 call	 esi

; 765  :     PyModule_AddIntConstant(poModule, "APPLY_ATTBONUS_DEVIL", 		CItemData::APPLY_ATTBONUS_DEVIL);

  007cc	6a 16		 push	 22			; 00000016H
  007ce	68 00 00 00 00	 push	 OFFSET ??_C@_0BF@PHBHKMPC@APPLY_ATTBONUS_DEVIL?$AA@
  007d3	57		 push	 edi
  007d4	ff d6		 call	 esi

; 766  :     PyModule_AddIntConstant(poModule, "APPLY_ATTBONUS_HUMAN",		CItemData::APPLY_ATTBONUS_HUMAN);

  007d6	6a 11		 push	 17			; 00000011H
  007d8	68 00 00 00 00	 push	 OFFSET ??_C@_0BF@FLAIBIKP@APPLY_ATTBONUS_HUMAN?$AA@
  007dd	57		 push	 edi
  007de	ff d6		 call	 esi
  007e0	83 c4 48	 add	 esp, 72			; 00000048H

; 767  :     PyModule_AddIntConstant(poModule, "APPLY_BOW_DISTANCE", 		CItemData::APPLY_BOW_DISTANCE);

  007e3	6a 34		 push	 52			; 00000034H
  007e5	68 00 00 00 00	 push	 OFFSET ??_C@_0BD@DGLENODO@APPLY_BOW_DISTANCE?$AA@
  007ea	57		 push	 edi
  007eb	ff d6		 call	 esi

; 768  :     PyModule_AddIntConstant(poModule, "APPLY_RESIST_BOW", 			CItemData::APPLY_RESIST_BOW);

  007ed	6a 22		 push	 34			; 00000022H
  007ef	68 00 00 00 00	 push	 OFFSET ??_C@_0BB@KEIAGOOG@APPLY_RESIST_BOW?$AA@
  007f4	57		 push	 edi
  007f5	ff d6		 call	 esi

; 769  :     PyModule_AddIntConstant(poModule, "APPLY_RESIST_FIRE", 			CItemData::APPLY_RESIST_FIRE);

  007f7	6a 23		 push	 35			; 00000023H
  007f9	68 00 00 00 00	 push	 OFFSET ??_C@_0BC@BCODEHJE@APPLY_RESIST_FIRE?$AA@
  007fe	57		 push	 edi
  007ff	ff d6		 call	 esi

; 770  :     PyModule_AddIntConstant(poModule, "APPLY_RESIST_ELEC", 			CItemData::APPLY_RESIST_ELEC);

  00801	6a 24		 push	 36			; 00000024H
  00803	68 00 00 00 00	 push	 OFFSET ??_C@_0BC@CNKONPAF@APPLY_RESIST_ELEC?$AA@
  00808	57		 push	 edi
  00809	ff d6		 call	 esi

; 771  :     PyModule_AddIntConstant(poModule, "APPLY_RESIST_MAGIC", 		CItemData::APPLY_RESIST_MAGIC);

  0080b	6a 25		 push	 37			; 00000025H
  0080d	68 00 00 00 00	 push	 OFFSET ??_C@_0BD@BIEOENBH@APPLY_RESIST_MAGIC?$AA@
  00812	57		 push	 edi
  00813	ff d6		 call	 esi

; 772  :     PyModule_AddIntConstant(poModule, "APPLY_POISON_PCT",			CItemData::APPLY_POISON_PCT);

  00815	6a 0c		 push	 12			; 0000000cH
  00817	68 00 00 00 00	 push	 OFFSET ??_C@_0BB@OFEPEABG@APPLY_POISON_PCT?$AA@
  0081c	57		 push	 edi
  0081d	ff d6		 call	 esi
  0081f	83 c4 48	 add	 esp, 72			; 00000048H

; 773  :     PyModule_AddIntConstant(poModule, "APPLY_SLOW_PCT", 			CItemData::APPLY_SLOW_PCT);

  00822	6a 0e		 push	 14			; 0000000eH
  00824	68 00 00 00 00	 push	 OFFSET ??_C@_0P@EAEIAPML@APPLY_SLOW_PCT?$AA@
  00829	57		 push	 edi
  0082a	ff d6		 call	 esi

; 774  :     PyModule_AddIntConstant(poModule, "APPLY_STUN_PCT", 			CItemData::APPLY_STUN_PCT);

  0082c	6a 0d		 push	 13			; 0000000dH
  0082e	68 00 00 00 00	 push	 OFFSET ??_C@_0P@IGBLFIG@APPLY_STUN_PCT?$AA@
  00833	57		 push	 edi
  00834	ff d6		 call	 esi

; 775  : 	PyModule_AddIntConstant(poModule, "APPLY_CRITICAL_PCT",			CItemData::APPLY_CRITICAL_PCT);			// n%   

  00836	6a 0f		 push	 15			; 0000000fH
  00838	68 00 00 00 00	 push	 OFFSET ??_C@_0BD@DOHBCDEC@APPLY_CRITICAL_PCT?$AA@
  0083d	57		 push	 edi
  0083e	ff d6		 call	 esi

; 776  : 	PyModule_AddIntConstant(poModule, "APPLY_PENETRATE_PCT",		CItemData::APPLY_PENETRATE_PCT);		// n%    

  00840	6a 10		 push	 16			; 00000010H
  00842	68 00 00 00 00	 push	 OFFSET ??_C@_0BE@MIHOPHBF@APPLY_PENETRATE_PCT?$AA@
  00847	57		 push	 edi
  00848	ff d6		 call	 esi

; 777  : 	PyModule_AddIntConstant(poModule, "APPLY_ATTBONUS_ORC",			CItemData::APPLY_ATTBONUS_ORC);			//  n%  

  0084a	6a 13		 push	 19			; 00000013H
  0084c	68 00 00 00 00	 push	 OFFSET ??_C@_0BD@GHNBCFFK@APPLY_ATTBONUS_ORC?$AA@
  00851	57		 push	 edi
  00852	ff d6		 call	 esi

; 778  : 	PyModule_AddIntConstant(poModule, "APPLY_ATTBONUS_MILGYO",		CItemData::APPLY_ATTBONUS_MILGYO);		//  n%  

  00854	6a 14		 push	 20			; 00000014H
  00856	68 00 00 00 00	 push	 OFFSET ??_C@_0BG@BGJNMLHF@APPLY_ATTBONUS_MILGYO?$AA@
  0085b	57		 push	 edi
  0085c	ff d6		 call	 esi
  0085e	83 c4 48	 add	 esp, 72			; 00000048H

; 779  : 	PyModule_AddIntConstant(poModule, "APPLY_ATTBONUS_UNDEAD",		CItemData::APPLY_ATTBONUS_UNDEAD);		//  n%  

  00861	6a 15		 push	 21			; 00000015H
  00863	68 00 00 00 00	 push	 OFFSET ??_C@_0BG@DEBBIBCN@APPLY_ATTBONUS_UNDEAD?$AA@
  00868	57		 push	 edi
  00869	ff d6		 call	 esi

; 780  : 	PyModule_AddIntConstant(poModule, "APPLY_ATTBONUS_DEVIL",		CItemData::APPLY_ATTBONUS_DEVIL);		//  n%  

  0086b	6a 16		 push	 22			; 00000016H
  0086d	68 00 00 00 00	 push	 OFFSET ??_C@_0BF@PHBHKMPC@APPLY_ATTBONUS_DEVIL?$AA@
  00872	57		 push	 edi
  00873	ff d6		 call	 esi

; 781  : 	PyModule_AddIntConstant(poModule, "APPLY_STEAL_HP",				CItemData::APPLY_STEAL_HP);				// n%   10%   

  00875	6a 17		 push	 23			; 00000017H
  00877	68 00 00 00 00	 push	 OFFSET ??_C@_0P@IJPDEMHM@APPLY_STEAL_HP?$AA@
  0087c	57		 push	 edi
  0087d	ff d6		 call	 esi

; 782  : 	PyModule_AddIntConstant(poModule, "APPLY_STEAL_SP",				CItemData::APPLY_STEAL_SP);				// n%   10%   

  0087f	6a 18		 push	 24			; 00000018H
  00881	68 00 00 00 00	 push	 OFFSET ??_C@_0P@JJIAAAON@APPLY_STEAL_SP?$AA@
  00886	57		 push	 edi
  00887	ff d6		 call	 esi

; 783  : 	PyModule_AddIntConstant(poModule, "APPLY_MANA_BURN_PCT",		CItemData::APPLY_MANA_BURN_PCT);		// n%    

  00889	6a 19		 push	 25			; 00000019H
  0088b	68 00 00 00 00	 push	 OFFSET ??_C@_0BE@MMJAOBJI@APPLY_MANA_BURN_PCT?$AA@
  00890	57		 push	 edi
  00891	ff d6		 call	 esi

; 784  : 	PyModule_AddIntConstant(poModule, "APPLY_DAMAGE_SP_RECOVER",	CItemData::APPLY_DAMAGE_SP_RECOVER);	// n%   2 

  00893	6a 1a		 push	 26			; 0000001aH
  00895	68 00 00 00 00	 push	 OFFSET ??_C@_0BI@CNPFJGMF@APPLY_DAMAGE_SP_RECOVER?$AA@
  0089a	57		 push	 edi
  0089b	ff d6		 call	 esi
  0089d	83 c4 48	 add	 esp, 72			; 00000048H

; 785  : 	PyModule_AddIntConstant(poModule, "APPLY_BLOCK",				CItemData::APPLY_BLOCK);				// n%    

  008a0	6a 1b		 push	 27			; 0000001bH
  008a2	68 00 00 00 00	 push	 OFFSET ??_C@_0M@DEKBOLNA@APPLY_BLOCK?$AA@
  008a7	57		 push	 edi
  008a8	ff d6		 call	 esi

; 786  : 	PyModule_AddIntConstant(poModule, "APPLY_DODGE",				CItemData::APPLY_DODGE);				// n%    

  008aa	6a 1c		 push	 28			; 0000001cH
  008ac	68 00 00 00 00	 push	 OFFSET ??_C@_0M@OLNDHAEO@APPLY_DODGE?$AA@
  008b1	57		 push	 edi
  008b2	ff d6		 call	 esi

; 787  : 	PyModule_AddIntConstant(poModule, "APPLY_RESIST_SWORD",			CItemData::APPLY_RESIST_SWORD);			//    n% 

  008b4	6a 1d		 push	 29			; 0000001dH
  008b6	68 00 00 00 00	 push	 OFFSET ??_C@_0BD@FELELOGH@APPLY_RESIST_SWORD?$AA@
  008bb	57		 push	 edi
  008bc	ff d6		 call	 esi

; 788  : 	PyModule_AddIntConstant(poModule, "APPLY_RESIST_TWOHAND",		CItemData::APPLY_RESIST_TWOHAND);		//    n% 

  008be	6a 1e		 push	 30			; 0000001eH
  008c0	68 00 00 00 00	 push	 OFFSET ??_C@_0BF@PPDPGLJM@APPLY_RESIST_TWOHAND?$AA@
  008c5	57		 push	 edi
  008c6	ff d6		 call	 esi

; 789  : 	PyModule_AddIntConstant(poModule, "APPLY_RESIST_DAGGER",		CItemData::APPLY_RESIST_DAGGER);		//    n% 

  008c8	6a 1f		 push	 31			; 0000001fH
  008ca	68 00 00 00 00	 push	 OFFSET ??_C@_0BE@HKIMLKAO@APPLY_RESIST_DAGGER?$AA@
  008cf	57		 push	 edi
  008d0	ff d6		 call	 esi

; 790  : 	PyModule_AddIntConstant(poModule, "APPLY_RESIST_BELL",			CItemData::APPLY_RESIST_BELL);			//    n% 

  008d2	6a 20		 push	 32			; 00000020H
  008d4	68 00 00 00 00	 push	 OFFSET ??_C@_0BC@GKMPGLNP@APPLY_RESIST_BELL?$AA@
  008d9	57		 push	 edi
  008da	ff d6		 call	 esi
  008dc	83 c4 48	 add	 esp, 72			; 00000048H

; 791  : 	PyModule_AddIntConstant(poModule, "APPLY_RESIST_FAN",			CItemData::APPLY_RESIST_FAN);			//    n% 

  008df	6a 21		 push	 33			; 00000021H
  008e1	68 00 00 00 00	 push	 OFFSET ??_C@_0BB@LKHMHNKD@APPLY_RESIST_FAN?$AA@
  008e6	57		 push	 edi
  008e7	ff d6		 call	 esi

; 792  : 	PyModule_AddIntConstant(poModule, "APPLY_RESIST_WIND",			CItemData::APPLY_RESIST_WIND);			//    n% 

  008e9	6a 26		 push	 38			; 00000026H
  008eb	68 00 00 00 00	 push	 OFFSET ??_C@_0BC@EDEEJCPD@APPLY_RESIST_WIND?$AA@
  008f0	57		 push	 edi
  008f1	ff d6		 call	 esi

; 793  : 	PyModule_AddIntConstant(poModule, "APPLY_REFLECT_MELEE",		CItemData::APPLY_REFLECT_MELEE);		//   n%   

  008f3	6a 27		 push	 39			; 00000027H
  008f5	68 00 00 00 00	 push	 OFFSET ??_C@_0BE@JKECBGFJ@APPLY_REFLECT_MELEE?$AA@
  008fa	57		 push	 edi
  008fb	ff d6		 call	 esi

; 794  : 	PyModule_AddIntConstant(poModule, "APPLY_REFLECT_CURSE",		CItemData::APPLY_REFLECT_CURSE);		//     n%  

  008fd	6a 28		 push	 40			; 00000028H
  008ff	68 00 00 00 00	 push	 OFFSET ??_C@_0BE@GIMFBPMF@APPLY_REFLECT_CURSE?$AA@
  00904	57		 push	 edi
  00905	ff d6		 call	 esi

; 795  : 	PyModule_AddIntConstant(poModule, "APPLY_POISON_REDUCE",		CItemData::APPLY_POISON_REDUCE);		//    

  00907	6a 29		 push	 41			; 00000029H
  00909	68 00 00 00 00	 push	 OFFSET ??_C@_0BE@CMJGNONM@APPLY_POISON_REDUCE?$AA@
  0090e	57		 push	 edi
  0090f	ff d6		 call	 esi

; 796  : 	PyModule_AddIntConstant(poModule, "APPLY_KILL_SP_RECOVER",		CItemData::APPLY_KILL_SP_RECOVER);		//   n%   10 

  00911	6a 2a		 push	 42			; 0000002aH
  00913	68 00 00 00 00	 push	 OFFSET ??_C@_0BG@NAAMOKGC@APPLY_KILL_SP_RECOVER?$AA@
  00918	57		 push	 edi
  00919	ff d6		 call	 esi
  0091b	83 c4 48	 add	 esp, 72			; 00000048H

; 797  : 	PyModule_AddIntConstant(poModule, "APPLY_EXP_DOUBLE_BONUS",		CItemData::APPLY_EXP_DOUBLE_BONUS);		// n%    2

  0091e	6a 2b		 push	 43			; 0000002bH
  00920	68 00 00 00 00	 push	 OFFSET ??_C@_0BH@BOFCHNGC@APPLY_EXP_DOUBLE_BONUS?$AA@
  00925	57		 push	 edi
  00926	ff d6		 call	 esi

; 798  : 	PyModule_AddIntConstant(poModule, "APPLY_GOLD_DOUBLE_BONUS",	CItemData::APPLY_GOLD_DOUBLE_BONUS);	// n%    2

  00928	6a 2c		 push	 44			; 0000002cH
  0092a	68 00 00 00 00	 push	 OFFSET ??_C@_0BI@CPGCKKHM@APPLY_GOLD_DOUBLE_BONUS?$AA@
  0092f	57		 push	 edi
  00930	ff d6		 call	 esi

; 799  : 	PyModule_AddIntConstant(poModule, "APPLY_ITEM_DROP_BONUS",		CItemData::APPLY_ITEM_DROP_BONUS);		// n%    2

  00932	6a 2d		 push	 45			; 0000002dH
  00934	68 00 00 00 00	 push	 OFFSET ??_C@_0BG@GJLPLNJK@APPLY_ITEM_DROP_BONUS?$AA@
  00939	57		 push	 edi
  0093a	ff d6		 call	 esi

; 800  : 	PyModule_AddIntConstant(poModule, "APPLY_POTION_BONUS",			CItemData::APPLY_POTION_BONUS);			//   n%   

  0093c	6a 2e		 push	 46			; 0000002eH
  0093e	68 00 00 00 00	 push	 OFFSET ??_C@_0BD@HAABJCED@APPLY_POTION_BONUS?$AA@
  00943	57		 push	 edi
  00944	ff d6		 call	 esi

; 801  : 	PyModule_AddIntConstant(poModule, "APPLY_KILL_HP_RECOVER",		CItemData::APPLY_KILL_HP_RECOVER);		//    

  00946	6a 2f		 push	 47			; 0000002fH
  00948	68 00 00 00 00	 push	 OFFSET ??_C@_0BG@FNNLKJON@APPLY_KILL_HP_RECOVER?$AA@
  0094d	57		 push	 edi
  0094e	ff d6		 call	 esi

; 802  : 	PyModule_AddIntConstant(poModule, "APPLY_IMMUNE_STUN",			CItemData::APPLY_IMMUNE_STUN);			//   

  00950	6a 30		 push	 48			; 00000030H
  00952	68 00 00 00 00	 push	 OFFSET ??_C@_0BC@GMOGAEGD@APPLY_IMMUNE_STUN?$AA@
  00957	57		 push	 edi
  00958	ff d6		 call	 esi
  0095a	83 c4 48	 add	 esp, 72			; 00000048H

; 803  : 	PyModule_AddIntConstant(poModule, "APPLY_IMMUNE_SLOW",			CItemData::APPLY_IMMUNE_SLOW);			//  

  0095d	6a 31		 push	 49			; 00000031H
  0095f	68 00 00 00 00	 push	 OFFSET ??_C@_0BC@HDPKPEKN@APPLY_IMMUNE_SLOW?$AA@
  00964	57		 push	 edi
  00965	ff d6		 call	 esi

; 804  : 	PyModule_AddIntConstant(poModule, "APPLY_IMMUNE_FALL",			CItemData::APPLY_IMMUNE_FALL);			//  

  00967	6a 32		 push	 50			; 00000032H
  00969	68 00 00 00 00	 push	 OFFSET ??_C@_0BC@ICOAEBEB@APPLY_IMMUNE_FALL?$AA@
  0096e	57		 push	 edi
  0096f	ff d6		 call	 esi

; 805  : 	PyModule_AddIntConstant(poModule, "APPLY_MAX_STAMINA",			CItemData::APPLY_MAX_STAMINA);			//   

  00971	6a 3a		 push	 58			; 0000003aH
  00973	68 00 00 00 00	 push	 OFFSET ??_C@_0BC@MENAELHN@APPLY_MAX_STAMINA?$AA@
  00978	57		 push	 edi
  00979	ff d6		 call	 esi

; 806  : 	PyModule_AddIntConstant(poModule, "APPLY_ATTBONUS_WARRIOR",		CItemData::APPLY_ATT_BONUS_TO_WARRIOR);

  0097b	6a 3b		 push	 59			; 0000003bH
  0097d	68 00 00 00 00	 push	 OFFSET ??_C@_0BH@LHKFGIKM@APPLY_ATTBONUS_WARRIOR?$AA@
  00982	57		 push	 edi
  00983	ff d6		 call	 esi

; 807  : 	PyModule_AddIntConstant(poModule, "APPLY_ATTBONUS_ASSASSIN",	CItemData::APPLY_ATT_BONUS_TO_ASSASSIN);

  00985	6a 3c		 push	 60			; 0000003cH
  00987	68 00 00 00 00	 push	 OFFSET ??_C@_0BI@FDLAHFJJ@APPLY_ATTBONUS_ASSASSIN?$AA@
  0098c	57		 push	 edi
  0098d	ff d6		 call	 esi

; 808  : 	PyModule_AddIntConstant(poModule, "APPLY_ATTBONUS_SURA",		CItemData::APPLY_ATT_BONUS_TO_SURA);

  0098f	6a 3d		 push	 61			; 0000003dH
  00991	68 00 00 00 00	 push	 OFFSET ??_C@_0BE@EHJIJMPG@APPLY_ATTBONUS_SURA?$AA@
  00996	57		 push	 edi
  00997	ff d6		 call	 esi
  00999	83 c4 48	 add	 esp, 72			; 00000048H

; 809  : 	PyModule_AddIntConstant(poModule, "APPLY_ATTBONUS_SHAMAN",		CItemData::APPLY_ATT_BONUS_TO_SHAMAN);

  0099c	6a 3e		 push	 62			; 0000003eH
  0099e	68 00 00 00 00	 push	 OFFSET ??_C@_0BG@HGCDBIBP@APPLY_ATTBONUS_SHAMAN?$AA@
  009a3	57		 push	 edi
  009a4	ff d6		 call	 esi

; 810  : 	PyModule_AddIntConstant(poModule, "APPLY_ATTBONUS_MONSTER",		CItemData::APPLY_ATT_BONUS_TO_MONSTER);

  009a6	6a 3f		 push	 63			; 0000003fH
  009a8	68 00 00 00 00	 push	 OFFSET ??_C@_0BH@OMHBNPNG@APPLY_ATTBONUS_MONSTER?$AA@
  009ad	57		 push	 edi
  009ae	ff d6		 call	 esi

; 811  : 	PyModule_AddIntConstant(poModule, "APPLY_MALL_ATTBONUS",		CItemData::APPLY_MALL_ATTBONUS);

  009b0	6a 40		 push	 64			; 00000040H
  009b2	68 00 00 00 00	 push	 OFFSET ??_C@_0BE@INMGAFDB@APPLY_MALL_ATTBONUS?$AA@
  009b7	57		 push	 edi
  009b8	ff d6		 call	 esi

; 812  : 	PyModule_AddIntConstant(poModule, "APPLY_MALL_DEFBONUS",		CItemData::APPLY_MALL_DEFBONUS);

  009ba	6a 41		 push	 65			; 00000041H
  009bc	68 00 00 00 00	 push	 OFFSET ??_C@_0BE@IHABPMCM@APPLY_MALL_DEFBONUS?$AA@
  009c1	57		 push	 edi
  009c2	ff d6		 call	 esi

; 813  : 	PyModule_AddIntConstant(poModule, "APPLY_MALL_EXPBONUS",		CItemData::APPLY_MALL_EXPBONUS);

  009c4	6a 42		 push	 66			; 00000042H
  009c6	68 00 00 00 00	 push	 OFFSET ??_C@_0BE@HDMKGFGB@APPLY_MALL_EXPBONUS?$AA@
  009cb	57		 push	 edi
  009cc	ff d6		 call	 esi

; 814  : 	PyModule_AddIntConstant(poModule, "APPLY_MALL_ITEMBONUS",		CItemData::APPLY_MALL_ITEMBONUS);

  009ce	6a 43		 push	 67			; 00000043H
  009d0	68 00 00 00 00	 push	 OFFSET ??_C@_0BF@JHCAFPEC@APPLY_MALL_ITEMBONUS?$AA@
  009d5	57		 push	 edi
  009d6	ff d6		 call	 esi
  009d8	83 c4 48	 add	 esp, 72			; 00000048H

; 815  : 	PyModule_AddIntConstant(poModule, "APPLY_MALL_GOLDBONUS",		CItemData::APPLY_MALL_GOLDBONUS);

  009db	6a 44		 push	 68			; 00000044H
  009dd	68 00 00 00 00	 push	 OFFSET ??_C@_0BF@CNKLONKF@APPLY_MALL_GOLDBONUS?$AA@
  009e2	57		 push	 edi
  009e3	ff d6		 call	 esi

; 816  : 	PyModule_AddIntConstant(poModule, "APPLY_MAX_HP_PCT",			CItemData::APPLY_MAX_HP_PCT);

  009e5	6a 45		 push	 69			; 00000045H
  009e7	68 00 00 00 00	 push	 OFFSET ??_C@_0BB@IOILOHHB@APPLY_MAX_HP_PCT?$AA@
  009ec	57		 push	 edi
  009ed	ff d6		 call	 esi

; 817  : 	PyModule_AddIntConstant(poModule, "APPLY_MAX_SP_PCT",			CItemData::APPLY_MAX_SP_PCT);

  009ef	6a 46		 push	 70			; 00000046H
  009f1	68 00 00 00 00	 push	 OFFSET ??_C@_0BB@OLFCCPEF@APPLY_MAX_SP_PCT?$AA@
  009f6	57		 push	 edi
  009f7	ff d6		 call	 esi

; 818  : 	PyModule_AddIntConstant(poModule, "APPLY_SKILL_DAMAGE_BONUS",		CItemData::APPLY_SKILL_DAMAGE_BONUS);

  009f9	6a 47		 push	 71			; 00000047H
  009fb	68 00 00 00 00	 push	 OFFSET ??_C@_0BJ@ILJOEJMP@APPLY_SKILL_DAMAGE_BONUS?$AA@
  00a00	57		 push	 edi
  00a01	ff d6		 call	 esi

; 819  : 	PyModule_AddIntConstant(poModule, "APPLY_NORMAL_HIT_DAMAGE_BONUS",	CItemData::APPLY_NORMAL_HIT_DAMAGE_BONUS);

  00a03	6a 48		 push	 72			; 00000048H
  00a05	68 00 00 00 00	 push	 OFFSET ??_C@_0BO@KJDLNPKH@APPLY_NORMAL_HIT_DAMAGE_BONUS?$AA@
  00a0a	57		 push	 edi
  00a0b	ff d6		 call	 esi

; 820  : 	PyModule_AddIntConstant(poModule, "APPLY_SKILL_DEFEND_BONUS",		CItemData::APPLY_SKILL_DEFEND_BONUS);

  00a0d	6a 49		 push	 73			; 00000049H
  00a0f	68 00 00 00 00	 push	 OFFSET ??_C@_0BJ@MCFLODEL@APPLY_SKILL_DEFEND_BONUS?$AA@
  00a14	57		 push	 edi
  00a15	ff d6		 call	 esi
  00a17	83 c4 48	 add	 esp, 72			; 00000048H

; 821  : 	PyModule_AddIntConstant(poModule, "APPLY_NORMAL_HIT_DEFEND_BONUS",	CItemData::APPLY_NORMAL_HIT_DEFEND_BONUS);

  00a1a	6a 4a		 push	 74			; 0000004aH
  00a1c	68 00 00 00 00	 push	 OFFSET ??_C@_0BO@OAPOHFCD@APPLY_NORMAL_HIT_DEFEND_BONUS?$AA@
  00a21	57		 push	 edi
  00a22	ff d6		 call	 esi

; 822  : 
; 823  : 	PyModule_AddIntConstant(poModule, "APPLY_PC_BANG_EXP_BONUS",	CItemData::APPLY_PC_BANG_EXP_BONUS);

  00a24	6a 4c		 push	 76			; 0000004cH
  00a26	68 00 00 00 00	 push	 OFFSET ??_C@_0BI@MMJMNMDE@APPLY_PC_BANG_EXP_BONUS?$AA@
  00a2b	57		 push	 edi
  00a2c	ff d6		 call	 esi

; 824  : 	PyModule_AddIntConstant(poModule, "APPLY_PC_BANG_DROP_BONUS",	CItemData::APPLY_PC_BANG_DROP_BONUS);

  00a2e	6a 4d		 push	 77			; 0000004dH
  00a30	68 00 00 00 00	 push	 OFFSET ??_C@_0BJ@MIHJNNLH@APPLY_PC_BANG_DROP_BONUS?$AA@
  00a35	57		 push	 edi
  00a36	ff d6		 call	 esi

; 825  : 
; 826  : 	PyModule_AddIntConstant(poModule, "APPLY_RESIST_WARRIOR",	CItemData::APPLY_RESIST_WARRIOR );

  00a38	6a 4e		 push	 78			; 0000004eH
  00a3a	68 00 00 00 00	 push	 OFFSET ??_C@_0BF@DIEIKMOC@APPLY_RESIST_WARRIOR?$AA@
  00a3f	57		 push	 edi
  00a40	ff d6		 call	 esi

; 827  : 	PyModule_AddIntConstant(poModule, "APPLY_RESIST_ASSASSIN",	CItemData::APPLY_RESIST_ASSASSIN );

  00a42	6a 4f		 push	 79			; 0000004fH
  00a44	68 00 00 00 00	 push	 OFFSET ??_C@_0BG@MCFLPEMK@APPLY_RESIST_ASSASSIN?$AA@
  00a49	57		 push	 edi
  00a4a	ff d6		 call	 esi

; 828  : 	PyModule_AddIntConstant(poModule, "APPLY_RESIST_SURA",		CItemData::APPLY_RESIST_SURA );

  00a4c	6a 50		 push	 80			; 00000050H
  00a4e	68 00 00 00 00	 push	 OFFSET ??_C@_0BC@MEEAHCEF@APPLY_RESIST_SURA?$AA@
  00a53	57		 push	 edi
  00a54	ff d6		 call	 esi
  00a56	83 c4 48	 add	 esp, 72			; 00000048H

; 829  : 	PyModule_AddIntConstant(poModule, "APPLY_RESIST_SHAMAN",	CItemData::APPLY_RESIST_SHAMAN );

  00a59	6a 51		 push	 81			; 00000051H
  00a5b	68 00 00 00 00	 push	 OFFSET ??_C@_0BE@POHJKJMD@APPLY_RESIST_SHAMAN?$AA@
  00a60	57		 push	 edi
  00a61	ff d6		 call	 esi

; 830  : 	PyModule_AddIntConstant(poModule, "APPLY_ENERGY",	CItemData::APPLY_ENERGY );		// 

  00a63	6a 52		 push	 82			; 00000052H
  00a65	68 00 00 00 00	 push	 OFFSET ??_C@_0N@MOPONLJI@APPLY_ENERGY?$AA@
  00a6a	57		 push	 edi
  00a6b	ff d6		 call	 esi

; 831  : 	PyModule_AddIntConstant(poModule, "APPLY_COSTUME_ATTR_BONUS",	CItemData::APPLY_COSTUME_ATTR_BONUS );		

  00a6d	6a 54		 push	 84			; 00000054H
  00a6f	68 00 00 00 00	 push	 OFFSET ??_C@_0BJ@IGOAELFN@APPLY_COSTUME_ATTR_BONUS?$AA@
  00a74	57		 push	 edi
  00a75	ff d6		 call	 esi

; 832  : 
; 833  : 	PyModule_AddIntConstant(poModule, "APPLY_MAGIC_ATTBONUS_PER",	CItemData::APPLY_MAGIC_ATTBONUS_PER );		

  00a77	6a 55		 push	 85			; 00000055H
  00a79	68 00 00 00 00	 push	 OFFSET ??_C@_0BJ@JJJKDKFC@APPLY_MAGIC_ATTBONUS_PER?$AA@
  00a7e	57		 push	 edi
  00a7f	ff d6		 call	 esi

; 834  : 	PyModule_AddIntConstant(poModule, "APPLY_MELEE_MAGIC_ATTBONUS_PER",	CItemData::APPLY_MELEE_MAGIC_ATTBONUS_PER );		

  00a81	6a 56		 push	 86			; 00000056H
  00a83	68 00 00 00 00	 push	 OFFSET ??_C@_0BP@MGKGKJGA@APPLY_MELEE_MAGIC_ATTBONUS_PER?$AA@
  00a88	57		 push	 edi
  00a89	ff d6		 call	 esi

; 835  : 	PyModule_AddIntConstant(poModule, "APPLY_RESIST_ICE",	CItemData::APPLY_RESIST_ICE );		

  00a8b	6a 57		 push	 87			; 00000057H
  00a8d	68 00 00 00 00	 push	 OFFSET ??_C@_0BB@CGPGAFA@APPLY_RESIST_ICE?$AA@
  00a92	57		 push	 edi
  00a93	ff d6		 call	 esi
  00a95	83 c4 48	 add	 esp, 72			; 00000048H

; 836  : 	PyModule_AddIntConstant(poModule, "APPLY_RESIST_EARTH",	CItemData::APPLY_RESIST_EARTH );		

  00a98	6a 58		 push	 88			; 00000058H
  00a9a	68 00 00 00 00	 push	 OFFSET ??_C@_0BD@GENAIBDP@APPLY_RESIST_EARTH?$AA@
  00a9f	57		 push	 edi
  00aa0	ff d6		 call	 esi

; 837  : 	PyModule_AddIntConstant(poModule, "APPLY_RESIST_DARK",	CItemData::APPLY_RESIST_DARK );		

  00aa2	6a 59		 push	 89			; 00000059H
  00aa4	68 00 00 00 00	 push	 OFFSET ??_C@_0BC@DDBEBBJF@APPLY_RESIST_DARK?$AA@
  00aa9	57		 push	 edi
  00aaa	ff d6		 call	 esi

; 838  : 	PyModule_AddIntConstant(poModule, "APPLY_ANTI_CRITICAL_PCT",	CItemData::APPLY_ANTI_CRITICAL_PCT );		

  00aac	6a 5a		 push	 90			; 0000005aH
  00aae	68 00 00 00 00	 push	 OFFSET ??_C@_0BI@KIMFHHIO@APPLY_ANTI_CRITICAL_PCT?$AA@
  00ab3	57		 push	 edi
  00ab4	ff d6		 call	 esi

; 839  : 	PyModule_AddIntConstant(poModule, "APPLY_ANTI_PENETRATE_PCT",	CItemData::APPLY_ANTI_PENETRATE_PCT );		

  00ab6	6a 5b		 push	 91			; 0000005bH
  00ab8	68 00 00 00 00	 push	 OFFSET ??_C@_0BJ@FKDKMNNK@APPLY_ANTI_PENETRATE_PCT?$AA@
  00abd	57		 push	 edi
  00abe	ff d6		 call	 esi
  00ac0	83 c4 30	 add	 esp, 48			; 00000030H
  00ac3	5f		 pop	 edi
  00ac4	5e		 pop	 esi

; 840  : }

  00ac5	c3		 ret	 0
?initItem@@YAXXZ ENDP					; initItem
_TEXT	ENDS
END
