; Listing generated by Microsoft (R) Optimizing Compiler Version 18.00.40629.0 

	TITLE	D:\Metin2\Metin2\client_source_clean\client_source_clean\source\UserInterface\PythonChatModule.cpp
	.686P
	.XMM
	include listing.inc
	.model	flat

INCLUDELIB OLDNAMES

PUBLIC	??_C@_01JLIPDDHJ@?3?$AA@			; `string'
PUBLIC	??_C@_04NHONDGDE@item?$AA@			; `string'
PUBLIC	??_C@_0BE@FGPADLIF@item?3?$CFx?3?$CFx?3?$CFx?3?$CFx?3?$CFx?$AA@ ; `string'
PUBLIC	??_C@_06FAMCNHHL@?3?$CFx?3?$CFd?$AA@		; `string'
PUBLIC	??_C@_0BJ@DABMGIOF@?$HMcffffc700?$HMH?$CFs?$HMh?$FL?$CFs?$FN?$HMh?$HMr?$AA@ ; `string'
PUBLIC	??_C@_0BJ@GPGFNPLK@?$HMcfff1e6c0?$HMH?$CFs?$HMh?$FL?$CFs?$FN?$HMh?$HMr?$AA@ ; `string'
PUBLIC	??_C@_0N@JBENFECF@SetChatColor?$AA@		; `string'
PUBLIC	??_C@_05MDNHABIA@Clear?$AA@			; `string'
PUBLIC	??_C@_05LGELBCGM@Close?$AA@			; `string'
PUBLIC	??_C@_0O@NIPGGDN@CreateChatSet?$AA@		; `string'
PUBLIC	??_C@_0O@HLECNMMJ@SetBoardState?$AA@		; `string'
PUBLIC	??_C@_0M@GKIFPNAD@SetPosition?$AA@		; `string'
PUBLIC	??_C@_09GACBKIFI@SetHeight?$AA@			; `string'
PUBLIC	??_C@_07PCIEAKML@SetStep?$AA@			; `string'
PUBLIC	??_C@_0P@HJNLNPCF@ToggleChatMode?$AA@		; `string'
PUBLIC	??_C@_0P@CBALNCDJ@EnableChatMode?$AA@		; `string'
PUBLIC	??_C@_0BA@PMFEPLLL@DisableChatMode?$AA@		; `string'
PUBLIC	??_C@_09LEFDLNLA@SetEndPos?$AA@			; `string'
PUBLIC	??_C@_0N@GBIDIHNF@GetLineCount?$AA@		; `string'
PUBLIC	??_C@_0BE@ECGLNJIP@GetVisibleLineCount?$AA@	; `string'
PUBLIC	??_C@_0M@JAIPGIEI@GetLineStep?$AA@		; `string'
PUBLIC	??_C@_0L@LGDEPKMK@AppendChat?$AA@		; `string'
PUBLIC	??_C@_0BE@OLLFFMAP@AppendChatWithDelay?$AA@	; `string'
PUBLIC	??_C@_0BD@PGAGKLIB@ArrangeShowingChat?$AA@	; `string'
PUBLIC	??_C@_0BA@OBLLPMIK@IgnoreCharacter?$AA@		; `string'
PUBLIC	??_C@_0BC@BPLLIFOI@IsIgnoreCharacter?$AA@	; `string'
PUBLIC	??_C@_0O@EPNAKAMH@CreateWhisper?$AA@		; `string'
PUBLIC	??_C@_0O@MNHHDNCN@AppendWhisper?$AA@		; `string'
PUBLIC	??_C@_0O@HNBBBAHN@RenderWhisper?$AA@		; `string'
PUBLIC	??_C@_0BC@IEABADGD@SetWhisperBoxSize?$AA@	; `string'
PUBLIC	??_C@_0BD@NNNKEDJK@SetWhisperPosition?$AA@	; `string'
PUBLIC	??_C@_0N@FCHOFFAF@ClearWhisper?$AA@		; `string'
PUBLIC	??_C@_0M@OFOGDKFP@InitWhisper?$AA@		; `string'
PUBLIC	??_C@_0BF@BJFLHIAM@GetLinkFromHyperlink?$AA@	; `string'
PUBLIC	??_C@_04BLJLMHHG@chat?$AA@			; `string'
PUBLIC	??_C@_0BC@EHLMCJH@CHAT_TYPE_TALKING?$AA@	; `string'
PUBLIC	??_C@_0P@MIHHHBMP@CHAT_TYPE_INFO?$AA@		; `string'
PUBLIC	??_C@_0BB@KFACLMJA@CHAT_TYPE_NOTICE?$AA@	; `string'
PUBLIC	??_C@_0BA@JOLAGJG@CHAT_TYPE_PARTY?$AA@		; `string'
PUBLIC	??_C@_0BA@OIBJELLN@CHAT_TYPE_GUILD?$AA@		; `string'
PUBLIC	??_C@_0BC@IILPNMNB@CHAT_TYPE_COMMAND?$AA@	; `string'
PUBLIC	??_C@_0BA@JEHAINHB@CHAT_TYPE_SHOUT?$AA@		; `string'
PUBLIC	??_C@_0BC@JMANMLH@CHAT_TYPE_WHISPER?$AA@	; `string'
PUBLIC	??_C@_0BC@LIEDKBDG@WHISPER_TYPE_CHAT?$AA@	; `string'
PUBLIC	??_C@_0BE@KODPENDJ@WHISPER_TYPE_SYSTEM?$AA@	; `string'
PUBLIC	??_C@_0BA@KLIHGMFD@WHISPER_TYPE_GM?$AA@		; `string'
PUBLIC	??_C@_0BB@OJGJMFKD@BOARD_STATE_VIEW?$AA@	; `string'
PUBLIC	??_C@_0BB@BOHEFKIL@BOARD_STATE_EDIT?$AA@	; `string'
PUBLIC	??_C@_0BA@PGHAPLJK@BOARD_STATE_LOG?$AA@		; `string'
PUBLIC	??_C@_0BF@FCHEGAKH@CHAT_SET_CHAT_WINDOW?$AA@	; `string'
PUBLIC	??_C@_0BE@OPDJLJMH@CHAT_SET_LOG_WINDOW?$AA@	; `string'
EXTRN	?GetName@CItemData@@QBEPBDXZ:PROC		; CItemData::GetName
EXTRN	__atoi64:PROC
EXTRN	?split_string@@YAHABV?$basic_string@DU?$char_traits@D@std@@V?$allocator@D@2@@std@@0AAV?$vector@V?$basic_string@DU?$char_traits@D@std@@V?$allocator@D@2@@std@@V?$allocator@V?$basic_string@DU?$char_traits@D@std@@V?$allocator@D@2@@std@@@2@@2@_N@Z:PROC ; split_string
;	COMDAT ?s_methods@?1??initChat@@YAXXZ@4PAUPyMethodDef@@A
_DATA	SEGMENT
?s_methods@?1??initChat@@YAXXZ@4PAUPyMethodDef@@A DD FLAT:??_C@_0N@JBENFECF@SetChatColor?$AA@ ; `initChat'::`2'::s_methods
	DD	FLAT:?chatSetChatColor@@YAPAU_object@@PAU1@0@Z
	DD	01H
	ORG $+4
	DD	FLAT:??_C@_05MDNHABIA@Clear?$AA@
	DD	FLAT:?chatClear@@YAPAU_object@@PAU1@0@Z
	DD	01H
	ORG $+4
	DD	FLAT:??_C@_05LGELBCGM@Close?$AA@
	DD	FLAT:?chatClose@@YAPAU_object@@PAU1@0@Z
	DD	01H
	ORG $+4
	DD	FLAT:??_C@_0O@NIPGGDN@CreateChatSet?$AA@
	DD	FLAT:?chatCreateChatSet@@YAPAU_object@@PAU1@0@Z
	DD	01H
	ORG $+4
	DD	FLAT:??_C@_06LMAGPFNF@Update?$AA@
	DD	FLAT:?chatUpdate@@YAPAU_object@@PAU1@0@Z
	DD	01H
	ORG $+4
	DD	FLAT:??_C@_06EPLDPNDB@Render?$AA@
	DD	FLAT:?chatRender@@YAPAU_object@@PAU1@0@Z
	DD	01H
	ORG $+4
	DD	FLAT:??_C@_0O@HLECNMMJ@SetBoardState?$AA@
	DD	FLAT:?chatSetBoardState@@YAPAU_object@@PAU1@0@Z
	DD	01H
	ORG $+4
	DD	FLAT:??_C@_0M@GKIFPNAD@SetPosition?$AA@
	DD	FLAT:?chatSetPosition@@YAPAU_object@@PAU1@0@Z
	DD	01H
	ORG $+4
	DD	FLAT:??_C@_09GACBKIFI@SetHeight?$AA@
	DD	FLAT:?chatSetHeight@@YAPAU_object@@PAU1@0@Z
	DD	01H
	ORG $+4
	DD	FLAT:??_C@_07PCIEAKML@SetStep?$AA@
	DD	FLAT:?chatSetStep@@YAPAU_object@@PAU1@0@Z
	DD	01H
	ORG $+4
	DD	FLAT:??_C@_0P@HJNLNPCF@ToggleChatMode?$AA@
	DD	FLAT:?chatToggleChatMode@@YAPAU_object@@PAU1@0@Z
	DD	01H
	ORG $+4
	DD	FLAT:??_C@_0P@CBALNCDJ@EnableChatMode?$AA@
	DD	FLAT:?chatEnableChatMode@@YAPAU_object@@PAU1@0@Z
	DD	01H
	ORG $+4
	DD	FLAT:??_C@_0BA@PMFEPLLL@DisableChatMode?$AA@
	DD	FLAT:?chatDisableChatMode@@YAPAU_object@@PAU1@0@Z
	DD	01H
	ORG $+4
	DD	FLAT:??_C@_09LEFDLNLA@SetEndPos?$AA@
	DD	FLAT:?chatSetEndPos@@YAPAU_object@@PAU1@0@Z
	DD	01H
	ORG $+4
	DD	FLAT:??_C@_0N@GBIDIHNF@GetLineCount?$AA@
	DD	FLAT:?chatGetLineCount@@YAPAU_object@@PAU1@0@Z
	DD	01H
	ORG $+4
	DD	FLAT:??_C@_0BE@ECGLNJIP@GetVisibleLineCount?$AA@
	DD	FLAT:?chatGetVisibleLineCount@@YAPAU_object@@PAU1@0@Z
	DD	01H
	ORG $+4
	DD	FLAT:??_C@_0M@JAIPGIEI@GetLineStep?$AA@
	DD	FLAT:?chatGetLineStep@@YAPAU_object@@PAU1@0@Z
	DD	01H
	ORG $+4
	DD	FLAT:??_C@_0L@LGDEPKMK@AppendChat?$AA@
	DD	FLAT:?chatAppendChat@@YAPAU_object@@PAU1@0@Z
	DD	01H
	ORG $+4
	DD	FLAT:??_C@_0BE@OLLFFMAP@AppendChatWithDelay?$AA@
	DD	FLAT:?chatAppendChatWithDelay@@YAPAU_object@@PAU1@0@Z
	DD	01H
	ORG $+4
	DD	FLAT:??_C@_0BD@PGAGKLIB@ArrangeShowingChat?$AA@
	DD	FLAT:?chatArrangeShowingChat@@YAPAU_object@@PAU1@0@Z
	DD	01H
	ORG $+4
	DD	FLAT:??_C@_0BA@OBLLPMIK@IgnoreCharacter?$AA@
	DD	FLAT:?chatIgnoreCharacter@@YAPAU_object@@PAU1@0@Z
	DD	01H
	ORG $+4
	DD	FLAT:??_C@_0BC@BPLLIFOI@IsIgnoreCharacter?$AA@
	DD	FLAT:?chatIsIgnoreCharacter@@YAPAU_object@@PAU1@0@Z
	DD	01H
	ORG $+4
	DD	FLAT:??_C@_0O@EPNAKAMH@CreateWhisper?$AA@
	DD	FLAT:?chatCreateWhisper@@YAPAU_object@@PAU1@0@Z
	DD	01H
	ORG $+4
	DD	FLAT:??_C@_0O@MNHHDNCN@AppendWhisper?$AA@
	DD	FLAT:?chatAppendWhisper@@YAPAU_object@@PAU1@0@Z
	DD	01H
	ORG $+4
	DD	FLAT:??_C@_0O@HNBBBAHN@RenderWhisper?$AA@
	DD	FLAT:?chatRenderWhisper@@YAPAU_object@@PAU1@0@Z
	DD	01H
	ORG $+4
	DD	FLAT:??_C@_0BC@IEABADGD@SetWhisperBoxSize?$AA@
	DD	FLAT:?chatSetWhisperBoxSize@@YAPAU_object@@PAU1@0@Z
	DD	01H
	ORG $+4
	DD	FLAT:??_C@_0BD@NNNKEDJK@SetWhisperPosition?$AA@
	DD	FLAT:?chatSetWhisperPosition@@YAPAU_object@@PAU1@0@Z
	DD	01H
	ORG $+4
	DD	FLAT:??_C@_0N@FCHOFFAF@ClearWhisper?$AA@
	DD	FLAT:?chatClearWhisper@@YAPAU_object@@PAU1@0@Z
	DD	01H
	ORG $+4
	DD	FLAT:??_C@_0M@OFOGDKFP@InitWhisper?$AA@
	DD	FLAT:?chatInitWhisper@@YAPAU_object@@PAU1@0@Z
	DD	01H
	ORG $+4
	DD	FLAT:??_C@_0BF@BJFLHIAM@GetLinkFromHyperlink?$AA@
	DD	FLAT:?chatGetLinkFromHyperlink@@YAPAU_object@@PAU1@0@Z
	DD	01H
	ORG $+4
	DD	00H
	DD	00H
	DD	00H
	ORG $+4
_DATA	ENDS
;	COMDAT ??_C@_0BE@OPDJLJMH@CHAT_SET_LOG_WINDOW?$AA@
CONST	SEGMENT
??_C@_0BE@OPDJLJMH@CHAT_SET_LOG_WINDOW?$AA@ DB 'CHAT_SET_LOG_WINDOW', 00H ; `string'
CONST	ENDS
;	COMDAT ??_C@_0BF@FCHEGAKH@CHAT_SET_CHAT_WINDOW?$AA@
CONST	SEGMENT
??_C@_0BF@FCHEGAKH@CHAT_SET_CHAT_WINDOW?$AA@ DB 'CHAT_SET_CHAT_WINDOW', 00H ; `string'
CONST	ENDS
;	COMDAT ??_C@_0BA@PGHAPLJK@BOARD_STATE_LOG?$AA@
CONST	SEGMENT
??_C@_0BA@PGHAPLJK@BOARD_STATE_LOG?$AA@ DB 'BOARD_STATE_LOG', 00H ; `string'
CONST	ENDS
;	COMDAT ??_C@_0BB@BOHEFKIL@BOARD_STATE_EDIT?$AA@
CONST	SEGMENT
??_C@_0BB@BOHEFKIL@BOARD_STATE_EDIT?$AA@ DB 'BOARD_STATE_EDIT', 00H ; `string'
CONST	ENDS
;	COMDAT ??_C@_0BB@OJGJMFKD@BOARD_STATE_VIEW?$AA@
CONST	SEGMENT
??_C@_0BB@OJGJMFKD@BOARD_STATE_VIEW?$AA@ DB 'BOARD_STATE_VIEW', 00H ; `string'
CONST	ENDS
;	COMDAT ??_C@_0BA@KLIHGMFD@WHISPER_TYPE_GM?$AA@
CONST	SEGMENT
??_C@_0BA@KLIHGMFD@WHISPER_TYPE_GM?$AA@ DB 'WHISPER_TYPE_GM', 00H ; `string'
CONST	ENDS
;	COMDAT ??_C@_0BE@KODPENDJ@WHISPER_TYPE_SYSTEM?$AA@
CONST	SEGMENT
??_C@_0BE@KODPENDJ@WHISPER_TYPE_SYSTEM?$AA@ DB 'WHISPER_TYPE_SYSTEM', 00H ; `string'
CONST	ENDS
;	COMDAT ??_C@_0BC@LIEDKBDG@WHISPER_TYPE_CHAT?$AA@
CONST	SEGMENT
??_C@_0BC@LIEDKBDG@WHISPER_TYPE_CHAT?$AA@ DB 'WHISPER_TYPE_CHAT', 00H ; `string'
CONST	ENDS
;	COMDAT ??_C@_0BC@JMANMLH@CHAT_TYPE_WHISPER?$AA@
CONST	SEGMENT
??_C@_0BC@JMANMLH@CHAT_TYPE_WHISPER?$AA@ DB 'CHAT_TYPE_WHISPER', 00H ; `string'
CONST	ENDS
;	COMDAT ??_C@_0BA@JEHAINHB@CHAT_TYPE_SHOUT?$AA@
CONST	SEGMENT
??_C@_0BA@JEHAINHB@CHAT_TYPE_SHOUT?$AA@ DB 'CHAT_TYPE_SHOUT', 00H ; `string'
CONST	ENDS
;	COMDAT ??_C@_0BC@IILPNMNB@CHAT_TYPE_COMMAND?$AA@
CONST	SEGMENT
??_C@_0BC@IILPNMNB@CHAT_TYPE_COMMAND?$AA@ DB 'CHAT_TYPE_COMMAND', 00H ; `string'
CONST	ENDS
;	COMDAT ??_C@_0BA@OIBJELLN@CHAT_TYPE_GUILD?$AA@
CONST	SEGMENT
??_C@_0BA@OIBJELLN@CHAT_TYPE_GUILD?$AA@ DB 'CHAT_TYPE_GUILD', 00H ; `string'
CONST	ENDS
;	COMDAT ??_C@_0BA@JOLAGJG@CHAT_TYPE_PARTY?$AA@
CONST	SEGMENT
??_C@_0BA@JOLAGJG@CHAT_TYPE_PARTY?$AA@ DB 'CHAT_TYPE_PARTY', 00H ; `string'
CONST	ENDS
;	COMDAT ??_C@_0BB@KFACLMJA@CHAT_TYPE_NOTICE?$AA@
CONST	SEGMENT
??_C@_0BB@KFACLMJA@CHAT_TYPE_NOTICE?$AA@ DB 'CHAT_TYPE_NOTICE', 00H ; `string'
CONST	ENDS
;	COMDAT ??_C@_0P@MIHHHBMP@CHAT_TYPE_INFO?$AA@
CONST	SEGMENT
??_C@_0P@MIHHHBMP@CHAT_TYPE_INFO?$AA@ DB 'CHAT_TYPE_INFO', 00H ; `string'
CONST	ENDS
;	COMDAT ??_C@_0BC@EHLMCJH@CHAT_TYPE_TALKING?$AA@
CONST	SEGMENT
??_C@_0BC@EHLMCJH@CHAT_TYPE_TALKING?$AA@ DB 'CHAT_TYPE_TALKING', 00H ; `string'
CONST	ENDS
;	COMDAT ??_C@_04BLJLMHHG@chat?$AA@
CONST	SEGMENT
??_C@_04BLJLMHHG@chat?$AA@ DB 'chat', 00H		; `string'
CONST	ENDS
;	COMDAT ??_C@_0BF@BJFLHIAM@GetLinkFromHyperlink?$AA@
CONST	SEGMENT
??_C@_0BF@BJFLHIAM@GetLinkFromHyperlink?$AA@ DB 'GetLinkFromHyperlink', 00H ; `string'
CONST	ENDS
;	COMDAT ??_C@_0M@OFOGDKFP@InitWhisper?$AA@
CONST	SEGMENT
??_C@_0M@OFOGDKFP@InitWhisper?$AA@ DB 'InitWhisper', 00H ; `string'
CONST	ENDS
;	COMDAT ??_C@_0N@FCHOFFAF@ClearWhisper?$AA@
CONST	SEGMENT
??_C@_0N@FCHOFFAF@ClearWhisper?$AA@ DB 'ClearWhisper', 00H ; `string'
CONST	ENDS
;	COMDAT ??_C@_0BD@NNNKEDJK@SetWhisperPosition?$AA@
CONST	SEGMENT
??_C@_0BD@NNNKEDJK@SetWhisperPosition?$AA@ DB 'SetWhisperPosition', 00H ; `string'
CONST	ENDS
;	COMDAT ??_C@_0BC@IEABADGD@SetWhisperBoxSize?$AA@
CONST	SEGMENT
??_C@_0BC@IEABADGD@SetWhisperBoxSize?$AA@ DB 'SetWhisperBoxSize', 00H ; `string'
CONST	ENDS
;	COMDAT ??_C@_0O@HNBBBAHN@RenderWhisper?$AA@
CONST	SEGMENT
??_C@_0O@HNBBBAHN@RenderWhisper?$AA@ DB 'RenderWhisper', 00H ; `string'
CONST	ENDS
;	COMDAT ??_C@_0O@MNHHDNCN@AppendWhisper?$AA@
CONST	SEGMENT
??_C@_0O@MNHHDNCN@AppendWhisper?$AA@ DB 'AppendWhisper', 00H ; `string'
CONST	ENDS
;	COMDAT ??_C@_0O@EPNAKAMH@CreateWhisper?$AA@
CONST	SEGMENT
??_C@_0O@EPNAKAMH@CreateWhisper?$AA@ DB 'CreateWhisper', 00H ; `string'
CONST	ENDS
;	COMDAT ??_C@_0BC@BPLLIFOI@IsIgnoreCharacter?$AA@
CONST	SEGMENT
??_C@_0BC@BPLLIFOI@IsIgnoreCharacter?$AA@ DB 'IsIgnoreCharacter', 00H ; `string'
CONST	ENDS
;	COMDAT ??_C@_0BA@OBLLPMIK@IgnoreCharacter?$AA@
CONST	SEGMENT
??_C@_0BA@OBLLPMIK@IgnoreCharacter?$AA@ DB 'IgnoreCharacter', 00H ; `string'
CONST	ENDS
;	COMDAT ??_C@_0BD@PGAGKLIB@ArrangeShowingChat?$AA@
CONST	SEGMENT
??_C@_0BD@PGAGKLIB@ArrangeShowingChat?$AA@ DB 'ArrangeShowingChat', 00H ; `string'
CONST	ENDS
;	COMDAT ??_C@_0BE@OLLFFMAP@AppendChatWithDelay?$AA@
CONST	SEGMENT
??_C@_0BE@OLLFFMAP@AppendChatWithDelay?$AA@ DB 'AppendChatWithDelay', 00H ; `string'
CONST	ENDS
;	COMDAT ??_C@_0L@LGDEPKMK@AppendChat?$AA@
CONST	SEGMENT
??_C@_0L@LGDEPKMK@AppendChat?$AA@ DB 'AppendChat', 00H	; `string'
CONST	ENDS
;	COMDAT ??_C@_0M@JAIPGIEI@GetLineStep?$AA@
CONST	SEGMENT
??_C@_0M@JAIPGIEI@GetLineStep?$AA@ DB 'GetLineStep', 00H ; `string'
CONST	ENDS
;	COMDAT ??_C@_0BE@ECGLNJIP@GetVisibleLineCount?$AA@
CONST	SEGMENT
??_C@_0BE@ECGLNJIP@GetVisibleLineCount?$AA@ DB 'GetVisibleLineCount', 00H ; `string'
CONST	ENDS
;	COMDAT ??_C@_0N@GBIDIHNF@GetLineCount?$AA@
CONST	SEGMENT
??_C@_0N@GBIDIHNF@GetLineCount?$AA@ DB 'GetLineCount', 00H ; `string'
CONST	ENDS
;	COMDAT ??_C@_09LEFDLNLA@SetEndPos?$AA@
CONST	SEGMENT
??_C@_09LEFDLNLA@SetEndPos?$AA@ DB 'SetEndPos', 00H	; `string'
CONST	ENDS
;	COMDAT ??_C@_0BA@PMFEPLLL@DisableChatMode?$AA@
CONST	SEGMENT
??_C@_0BA@PMFEPLLL@DisableChatMode?$AA@ DB 'DisableChatMode', 00H ; `string'
CONST	ENDS
;	COMDAT ??_C@_0P@CBALNCDJ@EnableChatMode?$AA@
CONST	SEGMENT
??_C@_0P@CBALNCDJ@EnableChatMode?$AA@ DB 'EnableChatMode', 00H ; `string'
CONST	ENDS
;	COMDAT ??_C@_0P@HJNLNPCF@ToggleChatMode?$AA@
CONST	SEGMENT
??_C@_0P@HJNLNPCF@ToggleChatMode?$AA@ DB 'ToggleChatMode', 00H ; `string'
CONST	ENDS
;	COMDAT ??_C@_07PCIEAKML@SetStep?$AA@
CONST	SEGMENT
??_C@_07PCIEAKML@SetStep?$AA@ DB 'SetStep', 00H		; `string'
CONST	ENDS
;	COMDAT ??_C@_09GACBKIFI@SetHeight?$AA@
CONST	SEGMENT
??_C@_09GACBKIFI@SetHeight?$AA@ DB 'SetHeight', 00H	; `string'
CONST	ENDS
;	COMDAT ??_C@_0M@GKIFPNAD@SetPosition?$AA@
CONST	SEGMENT
??_C@_0M@GKIFPNAD@SetPosition?$AA@ DB 'SetPosition', 00H ; `string'
CONST	ENDS
;	COMDAT ??_C@_0O@HLECNMMJ@SetBoardState?$AA@
CONST	SEGMENT
??_C@_0O@HLECNMMJ@SetBoardState?$AA@ DB 'SetBoardState', 00H ; `string'
CONST	ENDS
;	COMDAT ??_C@_0O@NIPGGDN@CreateChatSet?$AA@
CONST	SEGMENT
??_C@_0O@NIPGGDN@CreateChatSet?$AA@ DB 'CreateChatSet', 00H ; `string'
CONST	ENDS
;	COMDAT ??_C@_05LGELBCGM@Close?$AA@
CONST	SEGMENT
??_C@_05LGELBCGM@Close?$AA@ DB 'Close', 00H		; `string'
CONST	ENDS
;	COMDAT ??_C@_05MDNHABIA@Clear?$AA@
CONST	SEGMENT
??_C@_05MDNHABIA@Clear?$AA@ DB 'Clear', 00H		; `string'
CONST	ENDS
;	COMDAT ??_C@_0N@JBENFECF@SetChatColor?$AA@
CONST	SEGMENT
??_C@_0N@JBENFECF@SetChatColor?$AA@ DB 'SetChatColor', 00H ; `string'
CONST	ENDS
;	COMDAT ??_C@_0BJ@GPGFNPLK@?$HMcfff1e6c0?$HMH?$CFs?$HMh?$FL?$CFs?$FN?$HMh?$HMr?$AA@
CONST	SEGMENT
??_C@_0BJ@GPGFNPLK@?$HMcfff1e6c0?$HMH?$CFs?$HMh?$FL?$CFs?$FN?$HMh?$HMr?$AA@ DB '|'
	DB	'cfff1e6c0|H%s|h[%s]|h|r', 00H		; `string'
CONST	ENDS
;	COMDAT ??_C@_0BJ@DABMGIOF@?$HMcffffc700?$HMH?$CFs?$HMh?$FL?$CFs?$FN?$HMh?$HMr?$AA@
CONST	SEGMENT
??_C@_0BJ@DABMGIOF@?$HMcffffc700?$HMH?$CFs?$HMh?$FL?$CFs?$FN?$HMh?$HMr?$AA@ DB '|'
	DB	'cffffc700|H%s|h[%s]|h|r', 00H		; `string'
CONST	ENDS
;	COMDAT ??_C@_06FAMCNHHL@?3?$CFx?3?$CFd?$AA@
CONST	SEGMENT
??_C@_06FAMCNHHL@?3?$CFx?3?$CFd?$AA@ DB ':%x:%d', 00H	; `string'
CONST	ENDS
;	COMDAT ??_C@_0BE@FGPADLIF@item?3?$CFx?3?$CFx?3?$CFx?3?$CFx?3?$CFx?$AA@
CONST	SEGMENT
??_C@_0BE@FGPADLIF@item?3?$CFx?3?$CFx?3?$CFx?3?$CFx?3?$CFx?$AA@ DB 'item:'
	DB	'%x:%x:%x:%x:%x', 00H			; `string'
CONST	ENDS
;	COMDAT ??_C@_04NHONDGDE@item?$AA@
CONST	SEGMENT
??_C@_04NHONDGDE@item?$AA@ DB 'item', 00H		; `string'
CONST	ENDS
;	COMDAT ??_C@_01JLIPDDHJ@?3?$AA@
CONST	SEGMENT
??_C@_01JLIPDDHJ@?3?$AA@ DB ':', 00H			; `string'
PUBLIC	?htoi@@YAHPBD@Z					; htoi
PUBLIC	?Instance@?$CSingleton@VCPythonChat@@@@SAAAVCPythonChat@@XZ ; CSingleton<CPythonChat>::Instance
PUBLIC	??A?$vector@V?$basic_string@DU?$char_traits@D@std@@V?$allocator@D@2@@std@@V?$allocator@V?$basic_string@DU?$char_traits@D@std@@V?$allocator@D@2@@std@@@2@@std@@QAEAAV?$basic_string@DU?$char_traits@D@std@@V?$allocator@D@2@@1@I@Z ; std::vector<std::basic_string<char,std::char_traits<char>,std::allocator<char> >,std::allocator<std::basic_string<char,std::char_traits<char>,std::allocator<char> > > >::operator[]
PUBLIC	?initChat@@YAXXZ				; initChat
PUBLIC	?chatGetLinkFromHyperlink@@YAPAU_object@@PAU1@0@Z ; chatGetLinkFromHyperlink
PUBLIC	?chatInitWhisper@@YAPAU_object@@PAU1@0@Z	; chatInitWhisper
PUBLIC	?chatClearWhisper@@YAPAU_object@@PAU1@0@Z	; chatClearWhisper
PUBLIC	?chatSetWhisperPosition@@YAPAU_object@@PAU1@0@Z	; chatSetWhisperPosition
PUBLIC	?chatSetWhisperBoxSize@@YAPAU_object@@PAU1@0@Z	; chatSetWhisperBoxSize
PUBLIC	?chatRenderWhisper@@YAPAU_object@@PAU1@0@Z	; chatRenderWhisper
PUBLIC	?chatAppendWhisper@@YAPAU_object@@PAU1@0@Z	; chatAppendWhisper
PUBLIC	?chatCreateWhisper@@YAPAU_object@@PAU1@0@Z	; chatCreateWhisper
PUBLIC	?chatIsIgnoreCharacter@@YAPAU_object@@PAU1@0@Z	; chatIsIgnoreCharacter
PUBLIC	?chatIgnoreCharacter@@YAPAU_object@@PAU1@0@Z	; chatIgnoreCharacter
PUBLIC	?chatArrangeShowingChat@@YAPAU_object@@PAU1@0@Z	; chatArrangeShowingChat
PUBLIC	?chatAppendChatWithDelay@@YAPAU_object@@PAU1@0@Z ; chatAppendChatWithDelay
PUBLIC	?chatAppendChat@@YAPAU_object@@PAU1@0@Z		; chatAppendChat
PUBLIC	?chatGetLineStep@@YAPAU_object@@PAU1@0@Z	; chatGetLineStep
PUBLIC	?chatGetVisibleLineCount@@YAPAU_object@@PAU1@0@Z ; chatGetVisibleLineCount
PUBLIC	?chatGetLineCount@@YAPAU_object@@PAU1@0@Z	; chatGetLineCount
PUBLIC	?chatSetEndPos@@YAPAU_object@@PAU1@0@Z		; chatSetEndPos
PUBLIC	?chatDisableChatMode@@YAPAU_object@@PAU1@0@Z	; chatDisableChatMode
PUBLIC	?chatEnableChatMode@@YAPAU_object@@PAU1@0@Z	; chatEnableChatMode
PUBLIC	?chatToggleChatMode@@YAPAU_object@@PAU1@0@Z	; chatToggleChatMode
PUBLIC	?chatSetStep@@YAPAU_object@@PAU1@0@Z		; chatSetStep
PUBLIC	?chatSetHeight@@YAPAU_object@@PAU1@0@Z		; chatSetHeight
PUBLIC	?chatSetPosition@@YAPAU_object@@PAU1@0@Z	; chatSetPosition
PUBLIC	?chatSetBoardState@@YAPAU_object@@PAU1@0@Z	; chatSetBoardState
PUBLIC	?chatRender@@YAPAU_object@@PAU1@0@Z		; chatRender
PUBLIC	?chatUpdate@@YAPAU_object@@PAU1@0@Z		; chatUpdate
PUBLIC	?chatCreateChatSet@@YAPAU_object@@PAU1@0@Z	; chatCreateChatSet
PUBLIC	?chatClose@@YAPAU_object@@PAU1@0@Z		; chatClose
PUBLIC	?chatClear@@YAPAU_object@@PAU1@0@Z		; chatClear
PUBLIC	?chatSetChatColor@@YAPAU_object@@PAU1@0@Z	; chatSetChatColor
;	COMDAT xdata$x
xdata$x	SEGMENT
__ehfuncinfo$?chatGetLinkFromHyperlink@@YAPAU_object@@PAU1@0@Z DD 019930522H
	DD	03H
	DD	FLAT:__unwindtable$?chatGetLinkFromHyperlink@@YAPAU_object@@PAU1@0@Z
	DD	2 DUP(00H)
	DD	2 DUP(00H)
	DD	00H
	DD	01H
__unwindtable$?chatGetLinkFromHyperlink@@YAPAU_object@@PAU1@0@Z DD 0ffffffffH
	DD	FLAT:__unwindfunclet$?chatGetLinkFromHyperlink@@YAPAU_object@@PAU1@0@Z$0
	DD	00H
	DD	FLAT:__unwindfunclet$?chatGetLinkFromHyperlink@@YAPAU_object@@PAU1@0@Z$1
	DD	01H
	DD	FLAT:__unwindfunclet$?chatGetLinkFromHyperlink@@YAPAU_object@@PAU1@0@Z$2
; Function compile flags: /Ogtp
; File d:\metin2\metin2\client_source_clean\client_source_clean\source\userinterface\pythonchatmodule.cpp
;	COMDAT ?chatSetChatColor@@YAPAU_object@@PAU1@0@Z
_TEXT	SEGMENT
_iType$ = -16						; size = 4
_r$ = -12						; size = 4
_g$ = -8						; size = 4
_b$ = -4						; size = 4
_poSelf$ = 8						; size = 4
_poArgs$ = 12						; size = 4
?chatSetChatColor@@YAPAU_object@@PAU1@0@Z PROC		; chatSetChatColor, COMDAT

; 7    : {

  00000	55		 push	 ebp
  00001	8b ec		 mov	 ebp, esp
  00003	83 ec 10	 sub	 esp, 16			; 00000010H

; 8    : 	int iType;
; 9    : 	if (!PyTuple_GetInteger(poArgs, 0, &iType))

  00006	8d 45 f0	 lea	 eax, DWORD PTR _iType$[ebp]
  00009	56		 push	 esi
  0000a	8b 75 0c	 mov	 esi, DWORD PTR _poArgs$[ebp]
  0000d	50		 push	 eax
  0000e	6a 00		 push	 0
  00010	56		 push	 esi
  00011	e8 00 00 00 00	 call	 ?PyTuple_GetInteger@@YA_NPAU_object@@HPAH@Z ; PyTuple_GetInteger
  00016	83 c4 0c	 add	 esp, 12			; 0000000cH
  00019	84 c0		 test	 al, al
  0001b	75 0f		 jne	 SHORT $LN4@chatSetCha
$LN9@chatSetCha:

; 10   : 		return Py_BuildException();

  0001d	6a 00		 push	 0
  0001f	e8 00 00 00 00	 call	 ?Py_BuildException@@YAPAU_object@@PBDZZ ; Py_BuildException
  00024	83 c4 04	 add	 esp, 4
  00027	5e		 pop	 esi

; 26   : }

  00028	8b e5		 mov	 esp, ebp
  0002a	5d		 pop	 ebp
  0002b	c3		 ret	 0
$LN4@chatSetCha:

; 11   : 
; 12   : 	int r;
; 13   : 	if (!PyTuple_GetInteger(poArgs, 1, &r))

  0002c	8d 45 f4	 lea	 eax, DWORD PTR _r$[ebp]
  0002f	50		 push	 eax
  00030	6a 01		 push	 1
  00032	56		 push	 esi
  00033	e8 00 00 00 00	 call	 ?PyTuple_GetInteger@@YA_NPAU_object@@HPAH@Z ; PyTuple_GetInteger
  00038	83 c4 0c	 add	 esp, 12			; 0000000cH
  0003b	84 c0		 test	 al, al
  0003d	74 de		 je	 SHORT $LN9@chatSetCha

; 14   : 		return Py_BuildException();
; 15   : 
; 16   : 	int g;
; 17   : 	if (!PyTuple_GetInteger(poArgs, 2, &g))

  0003f	8d 45 f8	 lea	 eax, DWORD PTR _g$[ebp]
  00042	50		 push	 eax
  00043	6a 02		 push	 2
  00045	56		 push	 esi
  00046	e8 00 00 00 00	 call	 ?PyTuple_GetInteger@@YA_NPAU_object@@HPAH@Z ; PyTuple_GetInteger
  0004b	83 c4 0c	 add	 esp, 12			; 0000000cH
  0004e	84 c0		 test	 al, al
  00050	74 cb		 je	 SHORT $LN9@chatSetCha

; 18   : 		return Py_BuildException();
; 19   : 
; 20   : 	int b;
; 21   : 	if (!PyTuple_GetInteger(poArgs, 3, &b))

  00052	8d 45 fc	 lea	 eax, DWORD PTR _b$[ebp]
  00055	50		 push	 eax
  00056	6a 03		 push	 3
  00058	56		 push	 esi
  00059	e8 00 00 00 00	 call	 ?PyTuple_GetInteger@@YA_NPAU_object@@HPAH@Z ; PyTuple_GetInteger
  0005e	83 c4 0c	 add	 esp, 12			; 0000000cH
  00061	84 c0		 test	 al, al
  00063	74 b8		 je	 SHORT $LN9@chatSetCha

; 22   : 		return Py_BuildException();
; 23   : 
; 24   : 	CPythonChat::Instance().SetChatColor(iType, r, g, b);

  00065	ff 75 fc	 push	 DWORD PTR _b$[ebp]
  00068	8b 0d 00 00 00
	00		 mov	 ecx, DWORD PTR ?ms_singleton@?$CSingleton@VCPythonChat@@@@0PAVCPythonChat@@A ; CSingleton<CPythonChat>::ms_singleton
  0006e	ff 75 f8	 push	 DWORD PTR _g$[ebp]
  00071	ff 75 f4	 push	 DWORD PTR _r$[ebp]
  00074	ff 75 f0	 push	 DWORD PTR _iType$[ebp]
  00077	e8 00 00 00 00	 call	 ?SetChatColor@CPythonChat@@QAEXIIII@Z ; CPythonChat::SetChatColor

; 25   : 	return Py_BuildNone();

  0007c	e8 00 00 00 00	 call	 ?Py_BuildNone@@YAPAU_object@@XZ ; Py_BuildNone
  00081	5e		 pop	 esi

; 26   : }

  00082	8b e5		 mov	 esp, ebp
  00084	5d		 pop	 ebp
  00085	c3		 ret	 0
?chatSetChatColor@@YAPAU_object@@PAU1@0@Z ENDP		; chatSetChatColor
_TEXT	ENDS
; Function compile flags: /Ogtp
; File d:\metin2\metin2\client_source_clean\client_source_clean\source\userinterface\pythonchatmodule.cpp
;	COMDAT ?chatClear@@YAPAU_object@@PAU1@0@Z
_TEXT	SEGMENT
_poSelf$ = 8						; size = 4
_poArgs$ = 12						; size = 4
?chatClear@@YAPAU_object@@PAU1@0@Z PROC			; chatClear, COMDAT

; 30   : 	CPythonChat::Instance().Destroy();

  00000	8b 0d 00 00 00
	00		 mov	 ecx, DWORD PTR ?ms_singleton@?$CSingleton@VCPythonChat@@@@0PAVCPythonChat@@A ; CSingleton<CPythonChat>::ms_singleton
  00006	e8 00 00 00 00	 call	 ?Destroy@CPythonChat@@QAEXXZ ; CPythonChat::Destroy

; 31   : 	return Py_BuildNone();

  0000b	e9 00 00 00 00	 jmp	 ?Py_BuildNone@@YAPAU_object@@XZ ; Py_BuildNone
?chatClear@@YAPAU_object@@PAU1@0@Z ENDP			; chatClear
_TEXT	ENDS
; Function compile flags: /Ogtp
; File d:\metin2\metin2\client_source_clean\client_source_clean\source\userinterface\pythonchatmodule.cpp
;	COMDAT ?chatClose@@YAPAU_object@@PAU1@0@Z
_TEXT	SEGMENT
_poSelf$ = 8						; size = 4
_poArgs$ = 12						; size = 4
?chatClose@@YAPAU_object@@PAU1@0@Z PROC			; chatClose, COMDAT

; 36   : 	CPythonChat::Instance().Close();

  00000	8b 0d 00 00 00
	00		 mov	 ecx, DWORD PTR ?ms_singleton@?$CSingleton@VCPythonChat@@@@0PAVCPythonChat@@A ; CSingleton<CPythonChat>::ms_singleton
  00006	e8 00 00 00 00	 call	 ?Close@CPythonChat@@QAEXXZ ; CPythonChat::Close

; 37   : 	return Py_BuildNone();

  0000b	e9 00 00 00 00	 jmp	 ?Py_BuildNone@@YAPAU_object@@XZ ; Py_BuildNone
?chatClose@@YAPAU_object@@PAU1@0@Z ENDP			; chatClose
_TEXT	ENDS
; Function compile flags: /Ogtp
; File d:\metin2\metin2\client_source_clean\client_source_clean\source\userinterface\pythonchatmodule.cpp
;	COMDAT ?chatCreateChatSet@@YAPAU_object@@PAU1@0@Z
_TEXT	SEGMENT
_iID$ = -4						; size = 4
_poSelf$ = 8						; size = 4
_poArgs$ = 12						; size = 4
?chatCreateChatSet@@YAPAU_object@@PAU1@0@Z PROC		; chatCreateChatSet, COMDAT

; 41   : {

  00000	55		 push	 ebp
  00001	8b ec		 mov	 ebp, esp
  00003	51		 push	 ecx

; 42   : 	int iID;
; 43   : 	if (!PyTuple_GetInteger(poArgs, 0, &iID))

  00004	8d 45 fc	 lea	 eax, DWORD PTR _iID$[ebp]
  00007	50		 push	 eax
  00008	6a 00		 push	 0
  0000a	ff 75 0c	 push	 DWORD PTR _poArgs$[ebp]
  0000d	e8 00 00 00 00	 call	 ?PyTuple_GetInteger@@YA_NPAU_object@@HPAH@Z ; PyTuple_GetInteger
  00012	83 c4 0c	 add	 esp, 12			; 0000000cH
  00015	84 c0		 test	 al, al
  00017	75 0e		 jne	 SHORT $LN1@chatCreate

; 44   : 		return Py_BuildException();

  00019	6a 00		 push	 0
  0001b	e8 00 00 00 00	 call	 ?Py_BuildException@@YAPAU_object@@PBDZZ ; Py_BuildException
  00020	83 c4 04	 add	 esp, 4

; 47   : }

  00023	8b e5		 mov	 esp, ebp
  00025	5d		 pop	 ebp
  00026	c3		 ret	 0
$LN1@chatCreate:

; 45   : 
; 46   : 	return Py_BuildValue("i", CPythonChat::Instance().CreateChatSet(iID));

  00027	ff 75 fc	 push	 DWORD PTR _iID$[ebp]
  0002a	8b 0d 00 00 00
	00		 mov	 ecx, DWORD PTR ?ms_singleton@?$CSingleton@VCPythonChat@@@@0PAVCPythonChat@@A ; CSingleton<CPythonChat>::ms_singleton
  00030	e8 00 00 00 00	 call	 ?CreateChatSet@CPythonChat@@QAEHK@Z ; CPythonChat::CreateChatSet
  00035	50		 push	 eax
  00036	68 00 00 00 00	 push	 OFFSET ??_C@_01KBJDNOO@i?$AA@
  0003b	ff 15 00 00 00
	00		 call	 DWORD PTR __imp__Py_BuildValue
  00041	83 c4 08	 add	 esp, 8

; 47   : }

  00044	8b e5		 mov	 esp, ebp
  00046	5d		 pop	 ebp
  00047	c3		 ret	 0
?chatCreateChatSet@@YAPAU_object@@PAU1@0@Z ENDP		; chatCreateChatSet
_TEXT	ENDS
; Function compile flags: /Ogtp
; File d:\metin2\metin2\client_source_clean\client_source_clean\source\userinterface\pythonchatmodule.cpp
;	COMDAT ?chatUpdate@@YAPAU_object@@PAU1@0@Z
_TEXT	SEGMENT
_iID$ = -4						; size = 4
_poSelf$ = 8						; size = 4
_poArgs$ = 12						; size = 4
?chatUpdate@@YAPAU_object@@PAU1@0@Z PROC		; chatUpdate, COMDAT

; 50   : {

  00000	55		 push	 ebp
  00001	8b ec		 mov	 ebp, esp
  00003	51		 push	 ecx

; 51   : 	int iID;
; 52   : 	if (!PyTuple_GetInteger(poArgs, 0, &iID))

  00004	8d 45 fc	 lea	 eax, DWORD PTR _iID$[ebp]
  00007	50		 push	 eax
  00008	6a 00		 push	 0
  0000a	ff 75 0c	 push	 DWORD PTR _poArgs$[ebp]
  0000d	e8 00 00 00 00	 call	 ?PyTuple_GetInteger@@YA_NPAU_object@@HPAH@Z ; PyTuple_GetInteger
  00012	83 c4 0c	 add	 esp, 12			; 0000000cH
  00015	84 c0		 test	 al, al
  00017	75 0e		 jne	 SHORT $LN1@chatUpdate

; 53   : 		return Py_BuildException();

  00019	6a 00		 push	 0
  0001b	e8 00 00 00 00	 call	 ?Py_BuildException@@YAPAU_object@@PBDZZ ; Py_BuildException
  00020	83 c4 04	 add	 esp, 4

; 57   : }

  00023	8b e5		 mov	 esp, ebp
  00025	5d		 pop	 ebp
  00026	c3		 ret	 0
$LN1@chatUpdate:

; 54   : 
; 55   : 	CPythonChat::Instance().Update(iID);

  00027	ff 75 fc	 push	 DWORD PTR _iID$[ebp]
  0002a	8b 0d 00 00 00
	00		 mov	 ecx, DWORD PTR ?ms_singleton@?$CSingleton@VCPythonChat@@@@0PAVCPythonChat@@A ; CSingleton<CPythonChat>::ms_singleton
  00030	e8 00 00 00 00	 call	 ?Update@CPythonChat@@QAEXK@Z ; CPythonChat::Update

; 56   : 	return Py_BuildNone();

  00035	e8 00 00 00 00	 call	 ?Py_BuildNone@@YAPAU_object@@XZ ; Py_BuildNone

; 57   : }

  0003a	8b e5		 mov	 esp, ebp
  0003c	5d		 pop	 ebp
  0003d	c3		 ret	 0
?chatUpdate@@YAPAU_object@@PAU1@0@Z ENDP		; chatUpdate
_TEXT	ENDS
; Function compile flags: /Ogtp
; File d:\metin2\metin2\client_source_clean\client_source_clean\source\userinterface\pythonchatmodule.cpp
;	COMDAT ?chatRender@@YAPAU_object@@PAU1@0@Z
_TEXT	SEGMENT
_iID$ = -4						; size = 4
_poSelf$ = 8						; size = 4
_poArgs$ = 12						; size = 4
?chatRender@@YAPAU_object@@PAU1@0@Z PROC		; chatRender, COMDAT

; 60   : {

  00000	55		 push	 ebp
  00001	8b ec		 mov	 ebp, esp
  00003	51		 push	 ecx

; 61   : 	int iID;
; 62   : 	if (!PyTuple_GetInteger(poArgs, 0, &iID))

  00004	8d 45 fc	 lea	 eax, DWORD PTR _iID$[ebp]
  00007	50		 push	 eax
  00008	6a 00		 push	 0
  0000a	ff 75 0c	 push	 DWORD PTR _poArgs$[ebp]
  0000d	e8 00 00 00 00	 call	 ?PyTuple_GetInteger@@YA_NPAU_object@@HPAH@Z ; PyTuple_GetInteger
  00012	83 c4 0c	 add	 esp, 12			; 0000000cH
  00015	84 c0		 test	 al, al
  00017	75 0e		 jne	 SHORT $LN1@chatRender

; 63   : 		return Py_BuildException();

  00019	6a 00		 push	 0
  0001b	e8 00 00 00 00	 call	 ?Py_BuildException@@YAPAU_object@@PBDZZ ; Py_BuildException
  00020	83 c4 04	 add	 esp, 4

; 67   : }

  00023	8b e5		 mov	 esp, ebp
  00025	5d		 pop	 ebp
  00026	c3		 ret	 0
$LN1@chatRender:

; 64   : 
; 65   : 	CPythonChat::Instance().Render(iID);

  00027	ff 75 fc	 push	 DWORD PTR _iID$[ebp]
  0002a	8b 0d 00 00 00
	00		 mov	 ecx, DWORD PTR ?ms_singleton@?$CSingleton@VCPythonChat@@@@0PAVCPythonChat@@A ; CSingleton<CPythonChat>::ms_singleton
  00030	e8 00 00 00 00	 call	 ?Render@CPythonChat@@QAEXK@Z ; CPythonChat::Render

; 66   : 	return Py_BuildNone();

  00035	e8 00 00 00 00	 call	 ?Py_BuildNone@@YAPAU_object@@XZ ; Py_BuildNone

; 67   : }

  0003a	8b e5		 mov	 esp, ebp
  0003c	5d		 pop	 ebp
  0003d	c3		 ret	 0
?chatRender@@YAPAU_object@@PAU1@0@Z ENDP		; chatRender
_TEXT	ENDS
; Function compile flags: /Ogtp
; File d:\metin2\metin2\client_source_clean\client_source_clean\source\userinterface\pythonchatmodule.cpp
;	COMDAT ?chatSetBoardState@@YAPAU_object@@PAU1@0@Z
_TEXT	SEGMENT
_iID$ = -8						; size = 4
_iState$ = -4						; size = 4
_poSelf$ = 8						; size = 4
_poArgs$ = 12						; size = 4
?chatSetBoardState@@YAPAU_object@@PAU1@0@Z PROC		; chatSetBoardState, COMDAT

; 70   : {

  00000	55		 push	 ebp
  00001	8b ec		 mov	 ebp, esp
  00003	83 ec 08	 sub	 esp, 8

; 71   : 	int iID;
; 72   : 	if (!PyTuple_GetInteger(poArgs, 0, &iID))

  00006	8d 45 f8	 lea	 eax, DWORD PTR _iID$[ebp]
  00009	50		 push	 eax
  0000a	6a 00		 push	 0
  0000c	ff 75 0c	 push	 DWORD PTR _poArgs$[ebp]
  0000f	e8 00 00 00 00	 call	 ?PyTuple_GetInteger@@YA_NPAU_object@@HPAH@Z ; PyTuple_GetInteger
  00014	83 c4 0c	 add	 esp, 12			; 0000000cH
  00017	84 c0		 test	 al, al
  00019	75 0e		 jne	 SHORT $LN2@chatSetBoa
$LN7@chatSetBoa:

; 73   : 		return Py_BuildException();

  0001b	6a 00		 push	 0
  0001d	e8 00 00 00 00	 call	 ?Py_BuildException@@YAPAU_object@@PBDZZ ; Py_BuildException
  00022	83 c4 04	 add	 esp, 4

; 81   : }

  00025	8b e5		 mov	 esp, ebp
  00027	5d		 pop	 ebp
  00028	c3		 ret	 0
$LN2@chatSetBoa:

; 74   : 	int iState;
; 75   : 	if (!PyTuple_GetInteger(poArgs, 1, &iState))

  00029	8d 45 fc	 lea	 eax, DWORD PTR _iState$[ebp]
  0002c	50		 push	 eax
  0002d	6a 01		 push	 1
  0002f	ff 75 0c	 push	 DWORD PTR _poArgs$[ebp]
  00032	e8 00 00 00 00	 call	 ?PyTuple_GetInteger@@YA_NPAU_object@@HPAH@Z ; PyTuple_GetInteger
  00037	83 c4 0c	 add	 esp, 12			; 0000000cH
  0003a	84 c0		 test	 al, al
  0003c	74 dd		 je	 SHORT $LN7@chatSetBoa

; 76   : 		return Py_BuildException();
; 77   : 
; 78   : 	CPythonChat::Instance().SetBoardState(iID, iState);

  0003e	ff 75 fc	 push	 DWORD PTR _iState$[ebp]
  00041	8b 0d 00 00 00
	00		 mov	 ecx, DWORD PTR ?ms_singleton@?$CSingleton@VCPythonChat@@@@0PAVCPythonChat@@A ; CSingleton<CPythonChat>::ms_singleton
  00047	ff 75 f8	 push	 DWORD PTR _iID$[ebp]
  0004a	e8 00 00 00 00	 call	 ?SetBoardState@CPythonChat@@QAEXKH@Z ; CPythonChat::SetBoardState

; 79   : 
; 80   : 	return Py_BuildNone();

  0004f	e8 00 00 00 00	 call	 ?Py_BuildNone@@YAPAU_object@@XZ ; Py_BuildNone

; 81   : }

  00054	8b e5		 mov	 esp, ebp
  00056	5d		 pop	 ebp
  00057	c3		 ret	 0
?chatSetBoardState@@YAPAU_object@@PAU1@0@Z ENDP		; chatSetBoardState
_TEXT	ENDS
; Function compile flags: /Ogtp
; File d:\metin2\metin2\client_source_clean\client_source_clean\source\userinterface\pythonchatmodule.cpp
;	COMDAT ?chatSetPosition@@YAPAU_object@@PAU1@0@Z
_TEXT	SEGMENT
_iID$ = -12						; size = 4
_ix$ = -8						; size = 4
_iy$ = -4						; size = 4
_poSelf$ = 8						; size = 4
_poArgs$ = 12						; size = 4
?chatSetPosition@@YAPAU_object@@PAU1@0@Z PROC		; chatSetPosition, COMDAT

; 84   : {

  00000	55		 push	 ebp
  00001	8b ec		 mov	 ebp, esp
  00003	83 ec 0c	 sub	 esp, 12			; 0000000cH

; 85   : 	int iID;
; 86   : 	if (!PyTuple_GetInteger(poArgs, 0, &iID))

  00006	8d 45 f4	 lea	 eax, DWORD PTR _iID$[ebp]
  00009	56		 push	 esi
  0000a	8b 75 0c	 mov	 esi, DWORD PTR _poArgs$[ebp]
  0000d	50		 push	 eax
  0000e	6a 00		 push	 0
  00010	56		 push	 esi
  00011	e8 00 00 00 00	 call	 ?PyTuple_GetInteger@@YA_NPAU_object@@HPAH@Z ; PyTuple_GetInteger
  00016	83 c4 0c	 add	 esp, 12			; 0000000cH
  00019	84 c0		 test	 al, al
  0001b	75 0f		 jne	 SHORT $LN3@chatSetPos
$LN8@chatSetPos:

; 87   : 		return Py_BuildException();

  0001d	6a 00		 push	 0
  0001f	e8 00 00 00 00	 call	 ?Py_BuildException@@YAPAU_object@@PBDZZ ; Py_BuildException
  00024	83 c4 04	 add	 esp, 4
  00027	5e		 pop	 esi

; 98   : }

  00028	8b e5		 mov	 esp, ebp
  0002a	5d		 pop	 ebp
  0002b	c3		 ret	 0
$LN3@chatSetPos:

; 88   : 	int ix;
; 89   : 	if (!PyTuple_GetInteger(poArgs, 1, &ix))

  0002c	8d 45 f8	 lea	 eax, DWORD PTR _ix$[ebp]
  0002f	50		 push	 eax
  00030	6a 01		 push	 1
  00032	56		 push	 esi
  00033	e8 00 00 00 00	 call	 ?PyTuple_GetInteger@@YA_NPAU_object@@HPAH@Z ; PyTuple_GetInteger
  00038	83 c4 0c	 add	 esp, 12			; 0000000cH
  0003b	84 c0		 test	 al, al
  0003d	74 de		 je	 SHORT $LN8@chatSetPos

; 90   : 		return Py_BuildException();
; 91   : 	int iy;
; 92   : 	if (!PyTuple_GetInteger(poArgs, 2, &iy))

  0003f	8d 45 fc	 lea	 eax, DWORD PTR _iy$[ebp]
  00042	50		 push	 eax
  00043	6a 02		 push	 2
  00045	56		 push	 esi
  00046	e8 00 00 00 00	 call	 ?PyTuple_GetInteger@@YA_NPAU_object@@HPAH@Z ; PyTuple_GetInteger
  0004b	83 c4 0c	 add	 esp, 12			; 0000000cH
  0004e	84 c0		 test	 al, al
  00050	74 cb		 je	 SHORT $LN8@chatSetPos

; 93   : 		return Py_BuildException();
; 94   : 
; 95   : 	CPythonChat::Instance().SetPosition(iID, ix, iy);

  00052	ff 75 fc	 push	 DWORD PTR _iy$[ebp]
  00055	8b 0d 00 00 00
	00		 mov	 ecx, DWORD PTR ?ms_singleton@?$CSingleton@VCPythonChat@@@@0PAVCPythonChat@@A ; CSingleton<CPythonChat>::ms_singleton
  0005b	ff 75 f8	 push	 DWORD PTR _ix$[ebp]
  0005e	ff 75 f4	 push	 DWORD PTR _iID$[ebp]
  00061	e8 00 00 00 00	 call	 ?SetPosition@CPythonChat@@QAEXKHH@Z ; CPythonChat::SetPosition

; 96   : 
; 97   : 	return Py_BuildNone();

  00066	e8 00 00 00 00	 call	 ?Py_BuildNone@@YAPAU_object@@XZ ; Py_BuildNone
  0006b	5e		 pop	 esi

; 98   : }

  0006c	8b e5		 mov	 esp, ebp
  0006e	5d		 pop	 ebp
  0006f	c3		 ret	 0
?chatSetPosition@@YAPAU_object@@PAU1@0@Z ENDP		; chatSetPosition
_TEXT	ENDS
; Function compile flags: /Ogtp
; File d:\metin2\metin2\client_source_clean\client_source_clean\source\userinterface\pythonchatmodule.cpp
;	COMDAT ?chatSetHeight@@YAPAU_object@@PAU1@0@Z
_TEXT	SEGMENT
_iID$ = -8						; size = 4
_iHeight$ = -4						; size = 4
_poSelf$ = 8						; size = 4
_poArgs$ = 12						; size = 4
?chatSetHeight@@YAPAU_object@@PAU1@0@Z PROC		; chatSetHeight, COMDAT

; 101  : {

  00000	55		 push	 ebp
  00001	8b ec		 mov	 ebp, esp
  00003	83 ec 08	 sub	 esp, 8

; 102  : 	int iID;
; 103  : 	if (!PyTuple_GetInteger(poArgs, 0, &iID))

  00006	8d 45 f8	 lea	 eax, DWORD PTR _iID$[ebp]
  00009	50		 push	 eax
  0000a	6a 00		 push	 0
  0000c	ff 75 0c	 push	 DWORD PTR _poArgs$[ebp]
  0000f	e8 00 00 00 00	 call	 ?PyTuple_GetInteger@@YA_NPAU_object@@HPAH@Z ; PyTuple_GetInteger
  00014	83 c4 0c	 add	 esp, 12			; 0000000cH
  00017	84 c0		 test	 al, al
  00019	75 0e		 jne	 SHORT $LN2@chatSetHei
$LN7@chatSetHei:

; 104  : 		return Py_BuildException();

  0001b	6a 00		 push	 0
  0001d	e8 00 00 00 00	 call	 ?Py_BuildException@@YAPAU_object@@PBDZZ ; Py_BuildException
  00022	83 c4 04	 add	 esp, 4

; 112  : }

  00025	8b e5		 mov	 esp, ebp
  00027	5d		 pop	 ebp
  00028	c3		 ret	 0
$LN2@chatSetHei:

; 105  : 	int iHeight;
; 106  : 	if (!PyTuple_GetInteger(poArgs, 1, &iHeight))

  00029	8d 45 fc	 lea	 eax, DWORD PTR _iHeight$[ebp]
  0002c	50		 push	 eax
  0002d	6a 01		 push	 1
  0002f	ff 75 0c	 push	 DWORD PTR _poArgs$[ebp]
  00032	e8 00 00 00 00	 call	 ?PyTuple_GetInteger@@YA_NPAU_object@@HPAH@Z ; PyTuple_GetInteger
  00037	83 c4 0c	 add	 esp, 12			; 0000000cH
  0003a	84 c0		 test	 al, al
  0003c	74 dd		 je	 SHORT $LN7@chatSetHei

; 107  : 		return Py_BuildException();
; 108  : 
; 109  : 	CPythonChat::Instance().SetHeight(iID, iHeight);

  0003e	ff 75 fc	 push	 DWORD PTR _iHeight$[ebp]
  00041	8b 0d 00 00 00
	00		 mov	 ecx, DWORD PTR ?ms_singleton@?$CSingleton@VCPythonChat@@@@0PAVCPythonChat@@A ; CSingleton<CPythonChat>::ms_singleton
  00047	ff 75 f8	 push	 DWORD PTR _iID$[ebp]
  0004a	e8 00 00 00 00	 call	 ?SetHeight@CPythonChat@@QAEXKH@Z ; CPythonChat::SetHeight

; 110  : 
; 111  : 	return Py_BuildNone();

  0004f	e8 00 00 00 00	 call	 ?Py_BuildNone@@YAPAU_object@@XZ ; Py_BuildNone

; 112  : }

  00054	8b e5		 mov	 esp, ebp
  00056	5d		 pop	 ebp
  00057	c3		 ret	 0
?chatSetHeight@@YAPAU_object@@PAU1@0@Z ENDP		; chatSetHeight
_TEXT	ENDS
; Function compile flags: /Ogtp
; File d:\metin2\metin2\client_source_clean\client_source_clean\source\userinterface\pythonchatmodule.cpp
;	COMDAT ?chatSetStep@@YAPAU_object@@PAU1@0@Z
_TEXT	SEGMENT
_iID$ = -8						; size = 4
_iStep$ = -4						; size = 4
_poSelf$ = 8						; size = 4
_poArgs$ = 12						; size = 4
?chatSetStep@@YAPAU_object@@PAU1@0@Z PROC		; chatSetStep, COMDAT

; 115  : {

  00000	55		 push	 ebp
  00001	8b ec		 mov	 ebp, esp
  00003	83 ec 08	 sub	 esp, 8

; 116  : 	int iID;
; 117  : 	if (!PyTuple_GetInteger(poArgs, 0, &iID))

  00006	8d 45 f8	 lea	 eax, DWORD PTR _iID$[ebp]
  00009	50		 push	 eax
  0000a	6a 00		 push	 0
  0000c	ff 75 0c	 push	 DWORD PTR _poArgs$[ebp]
  0000f	e8 00 00 00 00	 call	 ?PyTuple_GetInteger@@YA_NPAU_object@@HPAH@Z ; PyTuple_GetInteger
  00014	83 c4 0c	 add	 esp, 12			; 0000000cH
  00017	84 c0		 test	 al, al
  00019	75 0e		 jne	 SHORT $LN2@chatSetSte
$LN7@chatSetSte:

; 118  : 		return Py_BuildException();

  0001b	6a 00		 push	 0
  0001d	e8 00 00 00 00	 call	 ?Py_BuildException@@YAPAU_object@@PBDZZ ; Py_BuildException
  00022	83 c4 04	 add	 esp, 4

; 126  : }

  00025	8b e5		 mov	 esp, ebp
  00027	5d		 pop	 ebp
  00028	c3		 ret	 0
$LN2@chatSetSte:

; 119  : 	int iStep;
; 120  : 	if (!PyTuple_GetInteger(poArgs, 1, &iStep))

  00029	8d 45 fc	 lea	 eax, DWORD PTR _iStep$[ebp]
  0002c	50		 push	 eax
  0002d	6a 01		 push	 1
  0002f	ff 75 0c	 push	 DWORD PTR _poArgs$[ebp]
  00032	e8 00 00 00 00	 call	 ?PyTuple_GetInteger@@YA_NPAU_object@@HPAH@Z ; PyTuple_GetInteger
  00037	83 c4 0c	 add	 esp, 12			; 0000000cH
  0003a	84 c0		 test	 al, al
  0003c	74 dd		 je	 SHORT $LN7@chatSetSte

; 121  : 		return Py_BuildException();
; 122  : 
; 123  : 	CPythonChat::Instance().SetStep(iID, iStep);

  0003e	ff 75 fc	 push	 DWORD PTR _iStep$[ebp]
  00041	8b 0d 00 00 00
	00		 mov	 ecx, DWORD PTR ?ms_singleton@?$CSingleton@VCPythonChat@@@@0PAVCPythonChat@@A ; CSingleton<CPythonChat>::ms_singleton
  00047	ff 75 f8	 push	 DWORD PTR _iID$[ebp]
  0004a	e8 00 00 00 00	 call	 ?SetStep@CPythonChat@@QAEXKH@Z ; CPythonChat::SetStep

; 124  : 
; 125  : 	return Py_BuildNone();

  0004f	e8 00 00 00 00	 call	 ?Py_BuildNone@@YAPAU_object@@XZ ; Py_BuildNone

; 126  : }

  00054	8b e5		 mov	 esp, ebp
  00056	5d		 pop	 ebp
  00057	c3		 ret	 0
?chatSetStep@@YAPAU_object@@PAU1@0@Z ENDP		; chatSetStep
_TEXT	ENDS
; Function compile flags: /Ogtp
; File d:\metin2\metin2\client_source_clean\client_source_clean\source\userinterface\pythonchatmodule.cpp
;	COMDAT ?chatToggleChatMode@@YAPAU_object@@PAU1@0@Z
_TEXT	SEGMENT
_iID$ = -8						; size = 4
_iType$ = -4						; size = 4
_poSelf$ = 8						; size = 4
_poArgs$ = 12						; size = 4
?chatToggleChatMode@@YAPAU_object@@PAU1@0@Z PROC	; chatToggleChatMode, COMDAT

; 129  : {

  00000	55		 push	 ebp
  00001	8b ec		 mov	 ebp, esp
  00003	83 ec 08	 sub	 esp, 8

; 130  : 	int iID;
; 131  : 	if (!PyTuple_GetInteger(poArgs, 0, &iID))

  00006	8d 45 f8	 lea	 eax, DWORD PTR _iID$[ebp]
  00009	50		 push	 eax
  0000a	6a 00		 push	 0
  0000c	ff 75 0c	 push	 DWORD PTR _poArgs$[ebp]
  0000f	e8 00 00 00 00	 call	 ?PyTuple_GetInteger@@YA_NPAU_object@@HPAH@Z ; PyTuple_GetInteger
  00014	83 c4 0c	 add	 esp, 12			; 0000000cH
  00017	84 c0		 test	 al, al
  00019	75 0e		 jne	 SHORT $LN2@chatToggle
$LN7@chatToggle:

; 132  : 		return Py_BuildException();

  0001b	6a 00		 push	 0
  0001d	e8 00 00 00 00	 call	 ?Py_BuildException@@YAPAU_object@@PBDZZ ; Py_BuildException
  00022	83 c4 04	 add	 esp, 4

; 140  : }

  00025	8b e5		 mov	 esp, ebp
  00027	5d		 pop	 ebp
  00028	c3		 ret	 0
$LN2@chatToggle:

; 133  : 	int iType;
; 134  : 	if (!PyTuple_GetInteger(poArgs, 1, &iType))

  00029	8d 45 fc	 lea	 eax, DWORD PTR _iType$[ebp]
  0002c	50		 push	 eax
  0002d	6a 01		 push	 1
  0002f	ff 75 0c	 push	 DWORD PTR _poArgs$[ebp]
  00032	e8 00 00 00 00	 call	 ?PyTuple_GetInteger@@YA_NPAU_object@@HPAH@Z ; PyTuple_GetInteger
  00037	83 c4 0c	 add	 esp, 12			; 0000000cH
  0003a	84 c0		 test	 al, al
  0003c	74 dd		 je	 SHORT $LN7@chatToggle

; 135  : 		return Py_BuildException();
; 136  : 
; 137  : 	CPythonChat::Instance().ToggleChatMode(iID, iType);

  0003e	ff 75 fc	 push	 DWORD PTR _iType$[ebp]
  00041	8b 0d 00 00 00
	00		 mov	 ecx, DWORD PTR ?ms_singleton@?$CSingleton@VCPythonChat@@@@0PAVCPythonChat@@A ; CSingleton<CPythonChat>::ms_singleton
  00047	ff 75 f8	 push	 DWORD PTR _iID$[ebp]
  0004a	e8 00 00 00 00	 call	 ?ToggleChatMode@CPythonChat@@QAEXKH@Z ; CPythonChat::ToggleChatMode

; 138  : 
; 139  : 	return Py_BuildNone();

  0004f	e8 00 00 00 00	 call	 ?Py_BuildNone@@YAPAU_object@@XZ ; Py_BuildNone

; 140  : }

  00054	8b e5		 mov	 esp, ebp
  00056	5d		 pop	 ebp
  00057	c3		 ret	 0
?chatToggleChatMode@@YAPAU_object@@PAU1@0@Z ENDP	; chatToggleChatMode
_TEXT	ENDS
; Function compile flags: /Ogtp
; File d:\metin2\metin2\client_source_clean\client_source_clean\source\userinterface\pythonchatmodule.cpp
;	COMDAT ?chatEnableChatMode@@YAPAU_object@@PAU1@0@Z
_TEXT	SEGMENT
_iID$ = -8						; size = 4
_iType$ = -4						; size = 4
_poSelf$ = 8						; size = 4
_poArgs$ = 12						; size = 4
?chatEnableChatMode@@YAPAU_object@@PAU1@0@Z PROC	; chatEnableChatMode, COMDAT

; 143  : {

  00000	55		 push	 ebp
  00001	8b ec		 mov	 ebp, esp
  00003	83 ec 08	 sub	 esp, 8

; 144  : 	int iID;
; 145  : 	if (!PyTuple_GetInteger(poArgs, 0, &iID))

  00006	8d 45 f8	 lea	 eax, DWORD PTR _iID$[ebp]
  00009	50		 push	 eax
  0000a	6a 00		 push	 0
  0000c	ff 75 0c	 push	 DWORD PTR _poArgs$[ebp]
  0000f	e8 00 00 00 00	 call	 ?PyTuple_GetInteger@@YA_NPAU_object@@HPAH@Z ; PyTuple_GetInteger
  00014	83 c4 0c	 add	 esp, 12			; 0000000cH
  00017	84 c0		 test	 al, al
  00019	75 0e		 jne	 SHORT $LN2@chatEnable
$LN7@chatEnable:

; 146  : 		return Py_BuildException();

  0001b	6a 00		 push	 0
  0001d	e8 00 00 00 00	 call	 ?Py_BuildException@@YAPAU_object@@PBDZZ ; Py_BuildException
  00022	83 c4 04	 add	 esp, 4

; 154  : }

  00025	8b e5		 mov	 esp, ebp
  00027	5d		 pop	 ebp
  00028	c3		 ret	 0
$LN2@chatEnable:

; 147  : 	int iType;
; 148  : 	if (!PyTuple_GetInteger(poArgs, 1, &iType))

  00029	8d 45 fc	 lea	 eax, DWORD PTR _iType$[ebp]
  0002c	50		 push	 eax
  0002d	6a 01		 push	 1
  0002f	ff 75 0c	 push	 DWORD PTR _poArgs$[ebp]
  00032	e8 00 00 00 00	 call	 ?PyTuple_GetInteger@@YA_NPAU_object@@HPAH@Z ; PyTuple_GetInteger
  00037	83 c4 0c	 add	 esp, 12			; 0000000cH
  0003a	84 c0		 test	 al, al
  0003c	74 dd		 je	 SHORT $LN7@chatEnable

; 149  : 		return Py_BuildException();
; 150  : 
; 151  : 	CPythonChat::Instance().EnableChatMode(iID, iType);

  0003e	ff 75 fc	 push	 DWORD PTR _iType$[ebp]
  00041	8b 0d 00 00 00
	00		 mov	 ecx, DWORD PTR ?ms_singleton@?$CSingleton@VCPythonChat@@@@0PAVCPythonChat@@A ; CSingleton<CPythonChat>::ms_singleton
  00047	ff 75 f8	 push	 DWORD PTR _iID$[ebp]
  0004a	e8 00 00 00 00	 call	 ?EnableChatMode@CPythonChat@@QAEXKH@Z ; CPythonChat::EnableChatMode

; 152  : 
; 153  : 	return Py_BuildNone();

  0004f	e8 00 00 00 00	 call	 ?Py_BuildNone@@YAPAU_object@@XZ ; Py_BuildNone

; 154  : }

  00054	8b e5		 mov	 esp, ebp
  00056	5d		 pop	 ebp
  00057	c3		 ret	 0
?chatEnableChatMode@@YAPAU_object@@PAU1@0@Z ENDP	; chatEnableChatMode
_TEXT	ENDS
; Function compile flags: /Ogtp
; File d:\metin2\metin2\client_source_clean\client_source_clean\source\userinterface\pythonchatmodule.cpp
;	COMDAT ?chatDisableChatMode@@YAPAU_object@@PAU1@0@Z
_TEXT	SEGMENT
_iID$ = -8						; size = 4
_iType$ = -4						; size = 4
_poSelf$ = 8						; size = 4
_poArgs$ = 12						; size = 4
?chatDisableChatMode@@YAPAU_object@@PAU1@0@Z PROC	; chatDisableChatMode, COMDAT

; 157  : {

  00000	55		 push	 ebp
  00001	8b ec		 mov	 ebp, esp
  00003	83 ec 08	 sub	 esp, 8

; 158  : 	int iID;
; 159  : 	if (!PyTuple_GetInteger(poArgs, 0, &iID))

  00006	8d 45 f8	 lea	 eax, DWORD PTR _iID$[ebp]
  00009	50		 push	 eax
  0000a	6a 00		 push	 0
  0000c	ff 75 0c	 push	 DWORD PTR _poArgs$[ebp]
  0000f	e8 00 00 00 00	 call	 ?PyTuple_GetInteger@@YA_NPAU_object@@HPAH@Z ; PyTuple_GetInteger
  00014	83 c4 0c	 add	 esp, 12			; 0000000cH
  00017	84 c0		 test	 al, al
  00019	75 0e		 jne	 SHORT $LN2@chatDisabl
$LN7@chatDisabl:

; 160  : 		return Py_BuildException();

  0001b	6a 00		 push	 0
  0001d	e8 00 00 00 00	 call	 ?Py_BuildException@@YAPAU_object@@PBDZZ ; Py_BuildException
  00022	83 c4 04	 add	 esp, 4

; 168  : }

  00025	8b e5		 mov	 esp, ebp
  00027	5d		 pop	 ebp
  00028	c3		 ret	 0
$LN2@chatDisabl:

; 161  : 	int iType;
; 162  : 	if (!PyTuple_GetInteger(poArgs, 1, &iType))

  00029	8d 45 fc	 lea	 eax, DWORD PTR _iType$[ebp]
  0002c	50		 push	 eax
  0002d	6a 01		 push	 1
  0002f	ff 75 0c	 push	 DWORD PTR _poArgs$[ebp]
  00032	e8 00 00 00 00	 call	 ?PyTuple_GetInteger@@YA_NPAU_object@@HPAH@Z ; PyTuple_GetInteger
  00037	83 c4 0c	 add	 esp, 12			; 0000000cH
  0003a	84 c0		 test	 al, al
  0003c	74 dd		 je	 SHORT $LN7@chatDisabl

; 163  : 		return Py_BuildException();
; 164  : 
; 165  : 	CPythonChat::Instance().DisableChatMode(iID, iType);

  0003e	ff 75 fc	 push	 DWORD PTR _iType$[ebp]
  00041	8b 0d 00 00 00
	00		 mov	 ecx, DWORD PTR ?ms_singleton@?$CSingleton@VCPythonChat@@@@0PAVCPythonChat@@A ; CSingleton<CPythonChat>::ms_singleton
  00047	ff 75 f8	 push	 DWORD PTR _iID$[ebp]
  0004a	e8 00 00 00 00	 call	 ?DisableChatMode@CPythonChat@@QAEXKH@Z ; CPythonChat::DisableChatMode

; 166  : 
; 167  : 	return Py_BuildNone();

  0004f	e8 00 00 00 00	 call	 ?Py_BuildNone@@YAPAU_object@@XZ ; Py_BuildNone

; 168  : }

  00054	8b e5		 mov	 esp, ebp
  00056	5d		 pop	 ebp
  00057	c3		 ret	 0
?chatDisableChatMode@@YAPAU_object@@PAU1@0@Z ENDP	; chatDisableChatMode
_TEXT	ENDS
; Function compile flags: /Ogtp
; File d:\metin2\metin2\client_source_clean\client_source_clean\source\userinterface\pythonchatmodule.cpp
;	COMDAT ?chatSetEndPos@@YAPAU_object@@PAU1@0@Z
_TEXT	SEGMENT
_fPos$ = -8						; size = 4
_iID$ = -4						; size = 4
_poSelf$ = 8						; size = 4
_poArgs$ = 12						; size = 4
?chatSetEndPos@@YAPAU_object@@PAU1@0@Z PROC		; chatSetEndPos, COMDAT

; 171  : {

  00000	55		 push	 ebp
  00001	8b ec		 mov	 ebp, esp
  00003	83 ec 08	 sub	 esp, 8

; 172  : 	int iID;
; 173  : 	if (!PyTuple_GetInteger(poArgs, 0, &iID))

  00006	8d 45 fc	 lea	 eax, DWORD PTR _iID$[ebp]
  00009	50		 push	 eax
  0000a	6a 00		 push	 0
  0000c	ff 75 0c	 push	 DWORD PTR _poArgs$[ebp]
  0000f	e8 00 00 00 00	 call	 ?PyTuple_GetInteger@@YA_NPAU_object@@HPAH@Z ; PyTuple_GetInteger
  00014	83 c4 0c	 add	 esp, 12			; 0000000cH
  00017	84 c0		 test	 al, al
  00019	75 0e		 jne	 SHORT $LN2@chatSetEnd
$LN7@chatSetEnd:

; 174  : 		return Py_BuildException();

  0001b	6a 00		 push	 0
  0001d	e8 00 00 00 00	 call	 ?Py_BuildException@@YAPAU_object@@PBDZZ ; Py_BuildException
  00022	83 c4 04	 add	 esp, 4

; 182  : }

  00025	8b e5		 mov	 esp, ebp
  00027	5d		 pop	 ebp
  00028	c3		 ret	 0
$LN2@chatSetEnd:

; 175  : 	float fPos;
; 176  : 	if (!PyTuple_GetFloat(poArgs, 1, &fPos))

  00029	8d 45 f8	 lea	 eax, DWORD PTR _fPos$[ebp]
  0002c	50		 push	 eax
  0002d	6a 01		 push	 1
  0002f	ff 75 0c	 push	 DWORD PTR _poArgs$[ebp]
  00032	e8 00 00 00 00	 call	 ?PyTuple_GetFloat@@YA_NPAU_object@@HPAM@Z ; PyTuple_GetFloat
  00037	83 c4 0c	 add	 esp, 12			; 0000000cH
  0003a	84 c0		 test	 al, al
  0003c	74 dd		 je	 SHORT $LN7@chatSetEnd

; 177  : 		return Py_BuildException();
; 178  : 
; 179  : 	CPythonChat::Instance().SetEndPos(iID, fPos);

  0003e	ff 75 fc	 push	 DWORD PTR _iID$[ebp]
  00041	f3 0f 10 55 f8	 movss	 xmm2, DWORD PTR _fPos$[ebp]
  00046	8b 0d 00 00 00
	00		 mov	 ecx, DWORD PTR ?ms_singleton@?$CSingleton@VCPythonChat@@@@0PAVCPythonChat@@A ; CSingleton<CPythonChat>::ms_singleton
  0004c	e8 00 00 00 00	 call	 ?SetEndPos@CPythonChat@@QAEXKM@Z ; CPythonChat::SetEndPos

; 180  : 
; 181  : 	return Py_BuildNone();

  00051	e8 00 00 00 00	 call	 ?Py_BuildNone@@YAPAU_object@@XZ ; Py_BuildNone

; 182  : }

  00056	8b e5		 mov	 esp, ebp
  00058	5d		 pop	 ebp
  00059	c3		 ret	 0
?chatSetEndPos@@YAPAU_object@@PAU1@0@Z ENDP		; chatSetEndPos
_TEXT	ENDS
; Function compile flags: /Ogtp
; File d:\metin2\metin2\client_source_clean\client_source_clean\source\userinterface\pythonchatmodule.cpp
;	COMDAT ?chatGetLineCount@@YAPAU_object@@PAU1@0@Z
_TEXT	SEGMENT
_iID$ = -4						; size = 4
_poSelf$ = 8						; size = 4
_poArgs$ = 12						; size = 4
?chatGetLineCount@@YAPAU_object@@PAU1@0@Z PROC		; chatGetLineCount, COMDAT

; 185  : {

  00000	55		 push	 ebp
  00001	8b ec		 mov	 ebp, esp
  00003	51		 push	 ecx

; 186  : 	int iID;
; 187  : 	if (!PyTuple_GetInteger(poArgs, 0, &iID))

  00004	8d 45 fc	 lea	 eax, DWORD PTR _iID$[ebp]
  00007	50		 push	 eax
  00008	6a 00		 push	 0
  0000a	ff 75 0c	 push	 DWORD PTR _poArgs$[ebp]
  0000d	e8 00 00 00 00	 call	 ?PyTuple_GetInteger@@YA_NPAU_object@@HPAH@Z ; PyTuple_GetInteger
  00012	83 c4 0c	 add	 esp, 12			; 0000000cH
  00015	84 c0		 test	 al, al
  00017	75 0e		 jne	 SHORT $LN1@chatGetLin

; 188  : 		return Py_BuildException();

  00019	6a 00		 push	 0
  0001b	e8 00 00 00 00	 call	 ?Py_BuildException@@YAPAU_object@@PBDZZ ; Py_BuildException
  00020	83 c4 04	 add	 esp, 4

; 191  : }

  00023	8b e5		 mov	 esp, ebp
  00025	5d		 pop	 ebp
  00026	c3		 ret	 0
$LN1@chatGetLin:

; 189  : 
; 190  : 	return Py_BuildValue("i", CPythonChat::Instance().GetLineCount(iID));

  00027	ff 75 fc	 push	 DWORD PTR _iID$[ebp]
  0002a	8b 0d 00 00 00
	00		 mov	 ecx, DWORD PTR ?ms_singleton@?$CSingleton@VCPythonChat@@@@0PAVCPythonChat@@A ; CSingleton<CPythonChat>::ms_singleton
  00030	e8 00 00 00 00	 call	 ?GetLineCount@CPythonChat@@QAEHK@Z ; CPythonChat::GetLineCount
  00035	50		 push	 eax
  00036	68 00 00 00 00	 push	 OFFSET ??_C@_01KBJDNOO@i?$AA@
  0003b	ff 15 00 00 00
	00		 call	 DWORD PTR __imp__Py_BuildValue
  00041	83 c4 08	 add	 esp, 8

; 191  : }

  00044	8b e5		 mov	 esp, ebp
  00046	5d		 pop	 ebp
  00047	c3		 ret	 0
?chatGetLineCount@@YAPAU_object@@PAU1@0@Z ENDP		; chatGetLineCount
_TEXT	ENDS
; Function compile flags: /Ogtp
; File d:\metin2\metin2\client_source_clean\client_source_clean\source\userinterface\pythonchatmodule.cpp
;	COMDAT ?chatGetVisibleLineCount@@YAPAU_object@@PAU1@0@Z
_TEXT	SEGMENT
_iID$ = -4						; size = 4
_poSelf$ = 8						; size = 4
_poArgs$ = 12						; size = 4
?chatGetVisibleLineCount@@YAPAU_object@@PAU1@0@Z PROC	; chatGetVisibleLineCount, COMDAT

; 194  : {

  00000	55		 push	 ebp
  00001	8b ec		 mov	 ebp, esp
  00003	51		 push	 ecx

; 195  : 	int iID;
; 196  : 	if (!PyTuple_GetInteger(poArgs, 0, &iID))

  00004	8d 45 fc	 lea	 eax, DWORD PTR _iID$[ebp]
  00007	50		 push	 eax
  00008	6a 00		 push	 0
  0000a	ff 75 0c	 push	 DWORD PTR _poArgs$[ebp]
  0000d	e8 00 00 00 00	 call	 ?PyTuple_GetInteger@@YA_NPAU_object@@HPAH@Z ; PyTuple_GetInteger
  00012	83 c4 0c	 add	 esp, 12			; 0000000cH
  00015	84 c0		 test	 al, al
  00017	75 0e		 jne	 SHORT $LN1@chatGetVis

; 197  : 		return Py_BuildException();

  00019	6a 00		 push	 0
  0001b	e8 00 00 00 00	 call	 ?Py_BuildException@@YAPAU_object@@PBDZZ ; Py_BuildException
  00020	83 c4 04	 add	 esp, 4

; 200  : }

  00023	8b e5		 mov	 esp, ebp
  00025	5d		 pop	 ebp
  00026	c3		 ret	 0
$LN1@chatGetVis:

; 198  : 
; 199  : 	return Py_BuildValue("i", CPythonChat::Instance().GetVisibleLineCount(iID));

  00027	ff 75 fc	 push	 DWORD PTR _iID$[ebp]
  0002a	8b 0d 00 00 00
	00		 mov	 ecx, DWORD PTR ?ms_singleton@?$CSingleton@VCPythonChat@@@@0PAVCPythonChat@@A ; CSingleton<CPythonChat>::ms_singleton
  00030	e8 00 00 00 00	 call	 ?GetVisibleLineCount@CPythonChat@@QAEHK@Z ; CPythonChat::GetVisibleLineCount
  00035	50		 push	 eax
  00036	68 00 00 00 00	 push	 OFFSET ??_C@_01KBJDNOO@i?$AA@
  0003b	ff 15 00 00 00
	00		 call	 DWORD PTR __imp__Py_BuildValue
  00041	83 c4 08	 add	 esp, 8

; 200  : }

  00044	8b e5		 mov	 esp, ebp
  00046	5d		 pop	 ebp
  00047	c3		 ret	 0
?chatGetVisibleLineCount@@YAPAU_object@@PAU1@0@Z ENDP	; chatGetVisibleLineCount
_TEXT	ENDS
; Function compile flags: /Ogtp
; File d:\metin2\metin2\client_source_clean\client_source_clean\source\userinterface\pythonchatmodule.cpp
;	COMDAT ?chatGetLineStep@@YAPAU_object@@PAU1@0@Z
_TEXT	SEGMENT
_iID$ = -4						; size = 4
_poSelf$ = 8						; size = 4
_poArgs$ = 12						; size = 4
?chatGetLineStep@@YAPAU_object@@PAU1@0@Z PROC		; chatGetLineStep, COMDAT

; 203  : {

  00000	55		 push	 ebp
  00001	8b ec		 mov	 ebp, esp
  00003	51		 push	 ecx

; 204  : 	int iID;
; 205  : 	if (!PyTuple_GetInteger(poArgs, 0, &iID))

  00004	8d 45 fc	 lea	 eax, DWORD PTR _iID$[ebp]
  00007	50		 push	 eax
  00008	6a 00		 push	 0
  0000a	ff 75 0c	 push	 DWORD PTR _poArgs$[ebp]
  0000d	e8 00 00 00 00	 call	 ?PyTuple_GetInteger@@YA_NPAU_object@@HPAH@Z ; PyTuple_GetInteger
  00012	83 c4 0c	 add	 esp, 12			; 0000000cH
  00015	84 c0		 test	 al, al
  00017	75 0e		 jne	 SHORT $LN1@chatGetLin

; 206  : 		return Py_BuildException();

  00019	6a 00		 push	 0
  0001b	e8 00 00 00 00	 call	 ?Py_BuildException@@YAPAU_object@@PBDZZ ; Py_BuildException
  00020	83 c4 04	 add	 esp, 4

; 209  : }

  00023	8b e5		 mov	 esp, ebp
  00025	5d		 pop	 ebp
  00026	c3		 ret	 0
$LN1@chatGetLin:

; 207  : 
; 208  : 	return Py_BuildValue("i", CPythonChat::Instance().GetLineStep(iID));

  00027	ff 75 fc	 push	 DWORD PTR _iID$[ebp]
  0002a	8b 0d 00 00 00
	00		 mov	 ecx, DWORD PTR ?ms_singleton@?$CSingleton@VCPythonChat@@@@0PAVCPythonChat@@A ; CSingleton<CPythonChat>::ms_singleton
  00030	e8 00 00 00 00	 call	 ?GetLineStep@CPythonChat@@QAEHK@Z ; CPythonChat::GetLineStep
  00035	50		 push	 eax
  00036	68 00 00 00 00	 push	 OFFSET ??_C@_01KBJDNOO@i?$AA@
  0003b	ff 15 00 00 00
	00		 call	 DWORD PTR __imp__Py_BuildValue
  00041	83 c4 08	 add	 esp, 8

; 209  : }

  00044	8b e5		 mov	 esp, ebp
  00046	5d		 pop	 ebp
  00047	c3		 ret	 0
?chatGetLineStep@@YAPAU_object@@PAU1@0@Z ENDP		; chatGetLineStep
_TEXT	ENDS
; Function compile flags: /Ogtp
; File d:\metin2\metin2\client_source_clean\client_source_clean\source\userinterface\pythonchatmodule.cpp
;	COMDAT ?chatAppendChat@@YAPAU_object@@PAU1@0@Z
_TEXT	SEGMENT
_iType$ = -8						; size = 4
_szChat$ = -4						; size = 4
_poSelf$ = 8						; size = 4
_poArgs$ = 12						; size = 4
?chatAppendChat@@YAPAU_object@@PAU1@0@Z PROC		; chatAppendChat, COMDAT

; 212  : {

  00000	55		 push	 ebp
  00001	8b ec		 mov	 ebp, esp
  00003	83 ec 08	 sub	 esp, 8

; 213  : 	int iType;
; 214  : 	if (!PyTuple_GetInteger(poArgs, 0, &iType))

  00006	8d 45 f8	 lea	 eax, DWORD PTR _iType$[ebp]
  00009	50		 push	 eax
  0000a	6a 00		 push	 0
  0000c	ff 75 0c	 push	 DWORD PTR _poArgs$[ebp]
  0000f	e8 00 00 00 00	 call	 ?PyTuple_GetInteger@@YA_NPAU_object@@HPAH@Z ; PyTuple_GetInteger
  00014	83 c4 0c	 add	 esp, 12			; 0000000cH
  00017	84 c0		 test	 al, al
  00019	75 0e		 jne	 SHORT $LN2@chatAppend
$LN7@chatAppend:

; 215  : 		return Py_BuildException();

  0001b	6a 00		 push	 0
  0001d	e8 00 00 00 00	 call	 ?Py_BuildException@@YAPAU_object@@PBDZZ ; Py_BuildException
  00022	83 c4 04	 add	 esp, 4

; 224  : }

  00025	8b e5		 mov	 esp, ebp
  00027	5d		 pop	 ebp
  00028	c3		 ret	 0
$LN2@chatAppend:

; 216  : 
; 217  : 	char * szChat;
; 218  : 	if (!PyTuple_GetString(poArgs, 1, &szChat))

  00029	8d 45 fc	 lea	 eax, DWORD PTR _szChat$[ebp]
  0002c	50		 push	 eax
  0002d	6a 01		 push	 1
  0002f	ff 75 0c	 push	 DWORD PTR _poArgs$[ebp]
  00032	e8 00 00 00 00	 call	 ?PyTuple_GetString@@YA_NPAU_object@@HPAPAD@Z ; PyTuple_GetString
  00037	83 c4 0c	 add	 esp, 12			; 0000000cH
  0003a	84 c0		 test	 al, al
  0003c	74 dd		 je	 SHORT $LN7@chatAppend

; 219  : 		return Py_BuildException();
; 220  : 
; 221  : 	CPythonChat::Instance().AppendChat(iType, szChat);

  0003e	8b 0d 00 00 00
	00		 mov	 ecx, DWORD PTR ?ms_singleton@?$CSingleton@VCPythonChat@@@@0PAVCPythonChat@@A ; CSingleton<CPythonChat>::ms_singleton
  00044	ff 75 fc	 push	 DWORD PTR _szChat$[ebp]
  00047	83 c1 04	 add	 ecx, 4
  0004a	ff 75 f8	 push	 DWORD PTR _iType$[ebp]
  0004d	8b 01		 mov	 eax, DWORD PTR [ecx]
  0004f	ff 50 04	 call	 DWORD PTR [eax+4]

; 222  : 
; 223  : 	return Py_BuildNone();

  00052	e8 00 00 00 00	 call	 ?Py_BuildNone@@YAPAU_object@@XZ ; Py_BuildNone

; 224  : }

  00057	8b e5		 mov	 esp, ebp
  00059	5d		 pop	 ebp
  0005a	c3		 ret	 0
?chatAppendChat@@YAPAU_object@@PAU1@0@Z ENDP		; chatAppendChat
_TEXT	ENDS
; Function compile flags: /Ogtp
; File d:\metin2\metin2\client_source_clean\client_source_clean\source\userinterface\pythonchatmodule.cpp
;	COMDAT ?chatAppendChatWithDelay@@YAPAU_object@@PAU1@0@Z
_TEXT	SEGMENT
_iType$ = -12						; size = 4
_szChat$ = -8						; size = 4
_iDelay$ = -4						; size = 4
_poSelf$ = 8						; size = 4
_poArgs$ = 12						; size = 4
?chatAppendChatWithDelay@@YAPAU_object@@PAU1@0@Z PROC	; chatAppendChatWithDelay, COMDAT

; 227  : {

  00000	55		 push	 ebp
  00001	8b ec		 mov	 ebp, esp
  00003	83 ec 0c	 sub	 esp, 12			; 0000000cH

; 228  : 	int iType;
; 229  : 	if (!PyTuple_GetInteger(poArgs, 0, &iType))

  00006	8d 45 f4	 lea	 eax, DWORD PTR _iType$[ebp]
  00009	56		 push	 esi
  0000a	8b 75 0c	 mov	 esi, DWORD PTR _poArgs$[ebp]
  0000d	50		 push	 eax
  0000e	6a 00		 push	 0
  00010	56		 push	 esi
  00011	e8 00 00 00 00	 call	 ?PyTuple_GetInteger@@YA_NPAU_object@@HPAH@Z ; PyTuple_GetInteger
  00016	83 c4 0c	 add	 esp, 12			; 0000000cH
  00019	84 c0		 test	 al, al
  0001b	75 0f		 jne	 SHORT $LN3@chatAppend
$LN8@chatAppend:

; 230  : 		return Py_BuildException();

  0001d	6a 00		 push	 0
  0001f	e8 00 00 00 00	 call	 ?Py_BuildException@@YAPAU_object@@PBDZZ ; Py_BuildException
  00024	83 c4 04	 add	 esp, 4
  00027	5e		 pop	 esi

; 243  : }

  00028	8b e5		 mov	 esp, ebp
  0002a	5d		 pop	 ebp
  0002b	c3		 ret	 0
$LN3@chatAppend:

; 231  : 
; 232  : 	char * szChat;
; 233  : 	if (!PyTuple_GetString(poArgs, 1, &szChat))

  0002c	8d 45 f8	 lea	 eax, DWORD PTR _szChat$[ebp]
  0002f	50		 push	 eax
  00030	6a 01		 push	 1
  00032	56		 push	 esi
  00033	e8 00 00 00 00	 call	 ?PyTuple_GetString@@YA_NPAU_object@@HPAPAD@Z ; PyTuple_GetString
  00038	83 c4 0c	 add	 esp, 12			; 0000000cH
  0003b	84 c0		 test	 al, al
  0003d	74 de		 je	 SHORT $LN8@chatAppend

; 234  : 		return Py_BuildException();
; 235  : 
; 236  : 	int iDelay;
; 237  : 	if (!PyTuple_GetInteger(poArgs, 2, &iDelay))

  0003f	8d 45 fc	 lea	 eax, DWORD PTR _iDelay$[ebp]
  00042	50		 push	 eax
  00043	6a 02		 push	 2
  00045	56		 push	 esi
  00046	e8 00 00 00 00	 call	 ?PyTuple_GetInteger@@YA_NPAU_object@@HPAH@Z ; PyTuple_GetInteger
  0004b	83 c4 0c	 add	 esp, 12			; 0000000cH
  0004e	84 c0		 test	 al, al
  00050	74 cb		 je	 SHORT $LN8@chatAppend

; 238  : 		return Py_BuildException();
; 239  : 
; 240  : 	CPythonChat::Instance().AppendChatWithDelay(iType, szChat, iDelay);

  00052	ff 75 fc	 push	 DWORD PTR _iDelay$[ebp]
  00055	8b 0d 00 00 00
	00		 mov	 ecx, DWORD PTR ?ms_singleton@?$CSingleton@VCPythonChat@@@@0PAVCPythonChat@@A ; CSingleton<CPythonChat>::ms_singleton
  0005b	ff 75 f8	 push	 DWORD PTR _szChat$[ebp]
  0005e	ff 75 f4	 push	 DWORD PTR _iType$[ebp]
  00061	e8 00 00 00 00	 call	 ?AppendChatWithDelay@CPythonChat@@QAEXHPBDH@Z ; CPythonChat::AppendChatWithDelay

; 241  : 
; 242  : 	return Py_BuildNone();

  00066	e8 00 00 00 00	 call	 ?Py_BuildNone@@YAPAU_object@@XZ ; Py_BuildNone
  0006b	5e		 pop	 esi

; 243  : }

  0006c	8b e5		 mov	 esp, ebp
  0006e	5d		 pop	 ebp
  0006f	c3		 ret	 0
?chatAppendChatWithDelay@@YAPAU_object@@PAU1@0@Z ENDP	; chatAppendChatWithDelay
_TEXT	ENDS
; Function compile flags: /Ogtp
; File d:\metin2\metin2\client_source_clean\client_source_clean\source\userinterface\pythonchatmodule.cpp
;	COMDAT ?chatArrangeShowingChat@@YAPAU_object@@PAU1@0@Z
_TEXT	SEGMENT
_iID$ = -4						; size = 4
_poSelf$ = 8						; size = 4
_poArgs$ = 12						; size = 4
?chatArrangeShowingChat@@YAPAU_object@@PAU1@0@Z PROC	; chatArrangeShowingChat, COMDAT

; 246  : {

  00000	55		 push	 ebp
  00001	8b ec		 mov	 ebp, esp
  00003	51		 push	 ecx

; 247  : 	int iID;
; 248  : 	if (!PyTuple_GetInteger(poArgs, 0, &iID))

  00004	8d 45 fc	 lea	 eax, DWORD PTR _iID$[ebp]
  00007	50		 push	 eax
  00008	6a 00		 push	 0
  0000a	ff 75 0c	 push	 DWORD PTR _poArgs$[ebp]
  0000d	e8 00 00 00 00	 call	 ?PyTuple_GetInteger@@YA_NPAU_object@@HPAH@Z ; PyTuple_GetInteger
  00012	83 c4 0c	 add	 esp, 12			; 0000000cH
  00015	84 c0		 test	 al, al
  00017	75 0e		 jne	 SHORT $LN1@chatArrang

; 249  : 		return Py_BuildException();

  00019	6a 00		 push	 0
  0001b	e8 00 00 00 00	 call	 ?Py_BuildException@@YAPAU_object@@PBDZZ ; Py_BuildException
  00020	83 c4 04	 add	 esp, 4

; 254  : }

  00023	8b e5		 mov	 esp, ebp
  00025	5d		 pop	 ebp
  00026	c3		 ret	 0
$LN1@chatArrang:

; 250  : 
; 251  : 	CPythonChat::Instance().ArrangeShowingChat(iID);

  00027	ff 75 fc	 push	 DWORD PTR _iID$[ebp]
  0002a	8b 0d 00 00 00
	00		 mov	 ecx, DWORD PTR ?ms_singleton@?$CSingleton@VCPythonChat@@@@0PAVCPythonChat@@A ; CSingleton<CPythonChat>::ms_singleton
  00030	e8 00 00 00 00	 call	 ?ArrangeShowingChat@CPythonChat@@QAEXK@Z ; CPythonChat::ArrangeShowingChat

; 252  : 
; 253  : 	return Py_BuildNone();

  00035	e8 00 00 00 00	 call	 ?Py_BuildNone@@YAPAU_object@@XZ ; Py_BuildNone

; 254  : }

  0003a	8b e5		 mov	 esp, ebp
  0003c	5d		 pop	 ebp
  0003d	c3		 ret	 0
?chatArrangeShowingChat@@YAPAU_object@@PAU1@0@Z ENDP	; chatArrangeShowingChat
_TEXT	ENDS
; Function compile flags: /Ogtp
; File d:\metin2\metin2\client_source_clean\client_source_clean\source\userinterface\pythonchatmodule.cpp
;	COMDAT ?chatIgnoreCharacter@@YAPAU_object@@PAU1@0@Z
_TEXT	SEGMENT
_szName$ = -4						; size = 4
_poSelf$ = 8						; size = 4
_poArgs$ = 12						; size = 4
?chatIgnoreCharacter@@YAPAU_object@@PAU1@0@Z PROC	; chatIgnoreCharacter, COMDAT

; 257  : {

  00000	55		 push	 ebp
  00001	8b ec		 mov	 ebp, esp
  00003	51		 push	 ecx

; 258  : 	char * szName;
; 259  : 	if (!PyTuple_GetString(poArgs, 0, &szName))

  00004	8d 45 fc	 lea	 eax, DWORD PTR _szName$[ebp]
  00007	50		 push	 eax
  00008	6a 00		 push	 0
  0000a	ff 75 0c	 push	 DWORD PTR _poArgs$[ebp]
  0000d	e8 00 00 00 00	 call	 ?PyTuple_GetString@@YA_NPAU_object@@HPAPAD@Z ; PyTuple_GetString
  00012	83 c4 0c	 add	 esp, 12			; 0000000cH
  00015	84 c0		 test	 al, al
  00017	75 0e		 jne	 SHORT $LN1@chatIgnore

; 260  : 		return Py_BuildException();

  00019	6a 00		 push	 0
  0001b	e8 00 00 00 00	 call	 ?Py_BuildException@@YAPAU_object@@PBDZZ ; Py_BuildException
  00020	83 c4 04	 add	 esp, 4

; 265  : }

  00023	8b e5		 mov	 esp, ebp
  00025	5d		 pop	 ebp
  00026	c3		 ret	 0
$LN1@chatIgnore:

; 261  : 
; 262  : 	CPythonChat::Instance().IgnoreCharacter(szName);

  00027	ff 75 fc	 push	 DWORD PTR _szName$[ebp]
  0002a	8b 0d 00 00 00
	00		 mov	 ecx, DWORD PTR ?ms_singleton@?$CSingleton@VCPythonChat@@@@0PAVCPythonChat@@A ; CSingleton<CPythonChat>::ms_singleton
  00030	e8 00 00 00 00	 call	 ?IgnoreCharacter@CPythonChat@@QAEXPBD@Z ; CPythonChat::IgnoreCharacter

; 263  : 
; 264  : 	return Py_BuildNone();

  00035	e8 00 00 00 00	 call	 ?Py_BuildNone@@YAPAU_object@@XZ ; Py_BuildNone

; 265  : }

  0003a	8b e5		 mov	 esp, ebp
  0003c	5d		 pop	 ebp
  0003d	c3		 ret	 0
?chatIgnoreCharacter@@YAPAU_object@@PAU1@0@Z ENDP	; chatIgnoreCharacter
_TEXT	ENDS
; Function compile flags: /Ogtp
; File d:\metin2\metin2\client_source_clean\client_source_clean\source\userinterface\pythonchatmodule.cpp
;	COMDAT ?chatIsIgnoreCharacter@@YAPAU_object@@PAU1@0@Z
_TEXT	SEGMENT
_szName$ = -4						; size = 4
_poSelf$ = 8						; size = 4
_poArgs$ = 12						; size = 4
?chatIsIgnoreCharacter@@YAPAU_object@@PAU1@0@Z PROC	; chatIsIgnoreCharacter, COMDAT

; 268  : {

  00000	55		 push	 ebp
  00001	8b ec		 mov	 ebp, esp
  00003	51		 push	 ecx

; 269  : 	char * szName;
; 270  : 	if (!PyTuple_GetString(poArgs, 0, &szName))

  00004	8d 45 fc	 lea	 eax, DWORD PTR _szName$[ebp]
  00007	50		 push	 eax
  00008	6a 00		 push	 0
  0000a	ff 75 0c	 push	 DWORD PTR _poArgs$[ebp]
  0000d	e8 00 00 00 00	 call	 ?PyTuple_GetString@@YA_NPAU_object@@HPAPAD@Z ; PyTuple_GetString
  00012	83 c4 0c	 add	 esp, 12			; 0000000cH
  00015	84 c0		 test	 al, al
  00017	75 0e		 jne	 SHORT $LN1@chatIsIgno

; 271  : 		return Py_BuildException();

  00019	6a 00		 push	 0
  0001b	e8 00 00 00 00	 call	 ?Py_BuildException@@YAPAU_object@@PBDZZ ; Py_BuildException
  00020	83 c4 04	 add	 esp, 4

; 276  : }

  00023	8b e5		 mov	 esp, ebp
  00025	5d		 pop	 ebp
  00026	c3		 ret	 0
$LN1@chatIsIgno:

; 272  : 
; 273  : 	CPythonChat::Instance().IsIgnoreCharacter(szName);

  00027	ff 75 fc	 push	 DWORD PTR _szName$[ebp]
  0002a	8b 0d 00 00 00
	00		 mov	 ecx, DWORD PTR ?ms_singleton@?$CSingleton@VCPythonChat@@@@0PAVCPythonChat@@A ; CSingleton<CPythonChat>::ms_singleton
  00030	e8 00 00 00 00	 call	 ?IsIgnoreCharacter@CPythonChat@@QAEHPBD@Z ; CPythonChat::IsIgnoreCharacter

; 274  : 
; 275  : 	return Py_BuildNone();

  00035	e8 00 00 00 00	 call	 ?Py_BuildNone@@YAPAU_object@@XZ ; Py_BuildNone

; 276  : }

  0003a	8b e5		 mov	 esp, ebp
  0003c	5d		 pop	 ebp
  0003d	c3		 ret	 0
?chatIsIgnoreCharacter@@YAPAU_object@@PAU1@0@Z ENDP	; chatIsIgnoreCharacter
_TEXT	ENDS
; Function compile flags: /Ogtp
; File d:\metin2\metin2\client_source_clean\client_source_clean\source\userinterface\pythonchatmodule.cpp
;	COMDAT ?chatCreateWhisper@@YAPAU_object@@PAU1@0@Z
_TEXT	SEGMENT
_szName$ = -4						; size = 4
_poSelf$ = 8						; size = 4
_poArgs$ = 12						; size = 4
?chatCreateWhisper@@YAPAU_object@@PAU1@0@Z PROC		; chatCreateWhisper, COMDAT

; 279  : {

  00000	55		 push	 ebp
  00001	8b ec		 mov	 ebp, esp
  00003	51		 push	 ecx

; 280  : 	char * szName;
; 281  : 	if (!PyTuple_GetString(poArgs, 0, &szName))

  00004	8d 45 fc	 lea	 eax, DWORD PTR _szName$[ebp]
  00007	50		 push	 eax
  00008	6a 00		 push	 0
  0000a	ff 75 0c	 push	 DWORD PTR _poArgs$[ebp]
  0000d	e8 00 00 00 00	 call	 ?PyTuple_GetString@@YA_NPAU_object@@HPAPAD@Z ; PyTuple_GetString
  00012	83 c4 0c	 add	 esp, 12			; 0000000cH
  00015	84 c0		 test	 al, al
  00017	75 0e		 jne	 SHORT $LN1@chatCreate

; 282  : 		return Py_BuildException();

  00019	6a 00		 push	 0
  0001b	e8 00 00 00 00	 call	 ?Py_BuildException@@YAPAU_object@@PBDZZ ; Py_BuildException
  00020	83 c4 04	 add	 esp, 4

; 287  : }

  00023	8b e5		 mov	 esp, ebp
  00025	5d		 pop	 ebp
  00026	c3		 ret	 0
$LN1@chatCreate:

; 283  : 
; 284  : 	CPythonChat::Instance().CreateWhisper(szName);

  00027	ff 75 fc	 push	 DWORD PTR _szName$[ebp]
  0002a	8b 0d 00 00 00
	00		 mov	 ecx, DWORD PTR ?ms_singleton@?$CSingleton@VCPythonChat@@@@0PAVCPythonChat@@A ; CSingleton<CPythonChat>::ms_singleton
  00030	e8 00 00 00 00	 call	 ?CreateWhisper@CPythonChat@@QAEPAVCWhisper@@PBD@Z ; CPythonChat::CreateWhisper

; 285  : 
; 286  : 	return Py_BuildNone();

  00035	e8 00 00 00 00	 call	 ?Py_BuildNone@@YAPAU_object@@XZ ; Py_BuildNone

; 287  : }

  0003a	8b e5		 mov	 esp, ebp
  0003c	5d		 pop	 ebp
  0003d	c3		 ret	 0
?chatCreateWhisper@@YAPAU_object@@PAU1@0@Z ENDP		; chatCreateWhisper
_TEXT	ENDS
; Function compile flags: /Ogtp
; File d:\metin2\metin2\client_source_clean\client_source_clean\source\userinterface\pythonchatmodule.cpp
;	COMDAT ?chatAppendWhisper@@YAPAU_object@@PAU1@0@Z
_TEXT	SEGMENT
_iType$ = -12						; size = 4
_szName$ = -8						; size = 4
_szChat$ = -4						; size = 4
_poSelf$ = 8						; size = 4
_poArgs$ = 12						; size = 4
?chatAppendWhisper@@YAPAU_object@@PAU1@0@Z PROC		; chatAppendWhisper, COMDAT

; 290  : {

  00000	55		 push	 ebp
  00001	8b ec		 mov	 ebp, esp
  00003	83 ec 0c	 sub	 esp, 12			; 0000000cH

; 291  : 	int iType;
; 292  : 	if (!PyTuple_GetInteger(poArgs, 0, &iType))

  00006	8d 45 f4	 lea	 eax, DWORD PTR _iType$[ebp]
  00009	56		 push	 esi
  0000a	8b 75 0c	 mov	 esi, DWORD PTR _poArgs$[ebp]
  0000d	50		 push	 eax
  0000e	6a 00		 push	 0
  00010	56		 push	 esi
  00011	e8 00 00 00 00	 call	 ?PyTuple_GetInteger@@YA_NPAU_object@@HPAH@Z ; PyTuple_GetInteger
  00016	83 c4 0c	 add	 esp, 12			; 0000000cH
  00019	84 c0		 test	 al, al
  0001b	75 0f		 jne	 SHORT $LN3@chatAppend
$LN8@chatAppend:

; 293  : 		return Py_BuildException();

  0001d	6a 00		 push	 0
  0001f	e8 00 00 00 00	 call	 ?Py_BuildException@@YAPAU_object@@PBDZZ ; Py_BuildException
  00024	83 c4 04	 add	 esp, 4
  00027	5e		 pop	 esi

; 305  : }

  00028	8b e5		 mov	 esp, ebp
  0002a	5d		 pop	 ebp
  0002b	c3		 ret	 0
$LN3@chatAppend:

; 294  : 
; 295  : 	char * szName;
; 296  : 	if (!PyTuple_GetString(poArgs, 1, &szName))

  0002c	8d 45 f8	 lea	 eax, DWORD PTR _szName$[ebp]
  0002f	50		 push	 eax
  00030	6a 01		 push	 1
  00032	56		 push	 esi
  00033	e8 00 00 00 00	 call	 ?PyTuple_GetString@@YA_NPAU_object@@HPAPAD@Z ; PyTuple_GetString
  00038	83 c4 0c	 add	 esp, 12			; 0000000cH
  0003b	84 c0		 test	 al, al
  0003d	74 de		 je	 SHORT $LN8@chatAppend

; 297  : 		return Py_BuildException();
; 298  : 
; 299  : 	char * szChat;
; 300  : 	if (!PyTuple_GetString(poArgs, 2, &szChat))

  0003f	8d 45 fc	 lea	 eax, DWORD PTR _szChat$[ebp]
  00042	50		 push	 eax
  00043	6a 02		 push	 2
  00045	56		 push	 esi
  00046	e8 00 00 00 00	 call	 ?PyTuple_GetString@@YA_NPAU_object@@HPAPAD@Z ; PyTuple_GetString
  0004b	83 c4 0c	 add	 esp, 12			; 0000000cH
  0004e	84 c0		 test	 al, al
  00050	74 cb		 je	 SHORT $LN8@chatAppend

; 301  : 		return Py_BuildException();
; 302  : 
; 303  : 	CPythonChat::Instance().AppendWhisper(iType, szName, szChat);

  00052	ff 75 fc	 push	 DWORD PTR _szChat$[ebp]
  00055	8b 0d 00 00 00
	00		 mov	 ecx, DWORD PTR ?ms_singleton@?$CSingleton@VCPythonChat@@@@0PAVCPythonChat@@A ; CSingleton<CPythonChat>::ms_singleton
  0005b	ff 75 f8	 push	 DWORD PTR _szName$[ebp]
  0005e	ff 75 f4	 push	 DWORD PTR _iType$[ebp]
  00061	e8 00 00 00 00	 call	 ?AppendWhisper@CPythonChat@@QAEXHPBD0@Z ; CPythonChat::AppendWhisper

; 304  : 	return Py_BuildNone();

  00066	e8 00 00 00 00	 call	 ?Py_BuildNone@@YAPAU_object@@XZ ; Py_BuildNone
  0006b	5e		 pop	 esi

; 305  : }

  0006c	8b e5		 mov	 esp, ebp
  0006e	5d		 pop	 ebp
  0006f	c3		 ret	 0
?chatAppendWhisper@@YAPAU_object@@PAU1@0@Z ENDP		; chatAppendWhisper
_TEXT	ENDS
; Function compile flags: /Ogtp
; File d:\metin2\metin2\client_source_clean\client_source_clean\source\userinterface\pythonchatmodule.cpp
;	COMDAT ?chatRenderWhisper@@YAPAU_object@@PAU1@0@Z
_TEXT	SEGMENT
_szName$ = -16						; size = 4
_fy$ = -12						; size = 4
_fx$ = -8						; size = 4
_pWhisper$ = -4						; size = 4
_poSelf$ = 8						; size = 4
_poArgs$ = 12						; size = 4
?chatRenderWhisper@@YAPAU_object@@PAU1@0@Z PROC		; chatRenderWhisper, COMDAT

; 308  : {

  00000	55		 push	 ebp
  00001	8b ec		 mov	 ebp, esp
  00003	83 e4 f8	 and	 esp, -8			; fffffff8H
  00006	83 ec 14	 sub	 esp, 20			; 00000014H

; 309  : 	char * szName;
; 310  : 	if (!PyTuple_GetString(poArgs, 0, &szName))

  00009	8d 44 24 04	 lea	 eax, DWORD PTR _szName$[esp+20]
  0000d	56		 push	 esi
  0000e	8b 75 0c	 mov	 esi, DWORD PTR _poArgs$[ebp]
  00011	50		 push	 eax
  00012	6a 00		 push	 0
  00014	56		 push	 esi
  00015	e8 00 00 00 00	 call	 ?PyTuple_GetString@@YA_NPAU_object@@HPAPAD@Z ; PyTuple_GetString
  0001a	83 c4 0c	 add	 esp, 12			; 0000000cH
  0001d	84 c0		 test	 al, al
  0001f	75 0f		 jne	 SHORT $LN4@chatRender
$LN9@chatRender:

; 311  : 		return Py_BuildException();

  00021	6a 00		 push	 0
  00023	e8 00 00 00 00	 call	 ?Py_BuildException@@YAPAU_object@@PBDZZ ; Py_BuildException
  00028	83 c4 04	 add	 esp, 4

; 328  : }

  0002b	5e		 pop	 esi
  0002c	8b e5		 mov	 esp, ebp
  0002e	5d		 pop	 ebp
  0002f	c3		 ret	 0
$LN4@chatRender:

; 312  : 
; 313  : 	float fx;
; 314  : 	if (!PyTuple_GetFloat(poArgs, 1, &fx))

  00030	8d 44 24 10	 lea	 eax, DWORD PTR _fx$[esp+24]
  00034	50		 push	 eax
  00035	6a 01		 push	 1
  00037	56		 push	 esi
  00038	e8 00 00 00 00	 call	 ?PyTuple_GetFloat@@YA_NPAU_object@@HPAM@Z ; PyTuple_GetFloat
  0003d	83 c4 0c	 add	 esp, 12			; 0000000cH
  00040	84 c0		 test	 al, al
  00042	74 dd		 je	 SHORT $LN9@chatRender

; 315  : 		return Py_BuildException();
; 316  : 
; 317  : 	float fy;
; 318  : 	if (!PyTuple_GetFloat(poArgs, 2, &fy))

  00044	8d 44 24 0c	 lea	 eax, DWORD PTR _fy$[esp+24]
  00048	50		 push	 eax
  00049	6a 02		 push	 2
  0004b	56		 push	 esi
  0004c	e8 00 00 00 00	 call	 ?PyTuple_GetFloat@@YA_NPAU_object@@HPAM@Z ; PyTuple_GetFloat
  00051	83 c4 0c	 add	 esp, 12			; 0000000cH
  00054	84 c0		 test	 al, al
  00056	74 c9		 je	 SHORT $LN9@chatRender

; 319  : 		return Py_BuildException();
; 320  : 
; 321  : 	CWhisper * pWhisper;
; 322  : 	if (CPythonChat::Instance().GetWhisper(szName, &pWhisper))

  00058	8b 0d 00 00 00
	00		 mov	 ecx, DWORD PTR ?ms_singleton@?$CSingleton@VCPythonChat@@@@0PAVCPythonChat@@A ; CSingleton<CPythonChat>::ms_singleton
  0005e	8d 44 24 14	 lea	 eax, DWORD PTR _pWhisper$[esp+24]
  00062	50		 push	 eax
  00063	ff 74 24 0c	 push	 DWORD PTR _szName$[esp+28]
  00067	e8 00 00 00 00	 call	 ?GetWhisper@CPythonChat@@QAEHPBDPAPAVCWhisper@@@Z ; CPythonChat::GetWhisper
  0006c	85 c0		 test	 eax, eax
  0006e	74 15		 je	 SHORT $LN1@chatRender

; 323  : 	{
; 324  : 		pWhisper->Render(fx, fy);

  00070	f3 0f 10 54 24
	0c		 movss	 xmm2, DWORD PTR _fy$[esp+24]
  00076	f3 0f 10 4c 24
	10		 movss	 xmm1, DWORD PTR _fx$[esp+24]
  0007c	8b 4c 24 14	 mov	 ecx, DWORD PTR _pWhisper$[esp+24]
  00080	e8 00 00 00 00	 call	 ?Render@CWhisper@@QAEXMM@Z ; CWhisper::Render
$LN1@chatRender:

; 325  : 	}
; 326  : 
; 327  : 	return Py_BuildNone();

  00085	e8 00 00 00 00	 call	 ?Py_BuildNone@@YAPAU_object@@XZ ; Py_BuildNone

; 328  : }

  0008a	5e		 pop	 esi
  0008b	8b e5		 mov	 esp, ebp
  0008d	5d		 pop	 ebp
  0008e	c3		 ret	 0
?chatRenderWhisper@@YAPAU_object@@PAU1@0@Z ENDP		; chatRenderWhisper
_TEXT	ENDS
; Function compile flags: /Ogtp
; File d:\metin2\metin2\client_source_clean\client_source_clean\source\userinterface\pythonchatmodule.cpp
;	COMDAT ?chatSetWhisperBoxSize@@YAPAU_object@@PAU1@0@Z
_TEXT	SEGMENT
_pWhisper$ = -16					; size = 4
_fWidth$ = -12						; size = 4
_fHeight$ = -8						; size = 4
_szName$ = -4						; size = 4
_poSelf$ = 8						; size = 4
_poArgs$ = 12						; size = 4
?chatSetWhisperBoxSize@@YAPAU_object@@PAU1@0@Z PROC	; chatSetWhisperBoxSize, COMDAT

; 331  : {

  00000	55		 push	 ebp
  00001	8b ec		 mov	 ebp, esp
  00003	83 ec 10	 sub	 esp, 16			; 00000010H

; 332  : 	char * szName;
; 333  : 	if (!PyTuple_GetString(poArgs, 0, &szName))

  00006	8d 45 fc	 lea	 eax, DWORD PTR _szName$[ebp]
  00009	56		 push	 esi
  0000a	8b 75 0c	 mov	 esi, DWORD PTR _poArgs$[ebp]
  0000d	50		 push	 eax
  0000e	6a 00		 push	 0
  00010	56		 push	 esi
  00011	e8 00 00 00 00	 call	 ?PyTuple_GetString@@YA_NPAU_object@@HPAPAD@Z ; PyTuple_GetString
  00016	83 c4 0c	 add	 esp, 12			; 0000000cH
  00019	84 c0		 test	 al, al
  0001b	75 0f		 jne	 SHORT $LN4@chatSetWhi
$LN9@chatSetWhi:

; 334  : 		return Py_BuildException();

  0001d	6a 00		 push	 0
  0001f	e8 00 00 00 00	 call	 ?Py_BuildException@@YAPAU_object@@PBDZZ ; Py_BuildException
  00024	83 c4 04	 add	 esp, 4
  00027	5e		 pop	 esi

; 351  : }

  00028	8b e5		 mov	 esp, ebp
  0002a	5d		 pop	 ebp
  0002b	c3		 ret	 0
$LN4@chatSetWhi:

; 335  : 
; 336  : 	float fWidth;
; 337  : 	if (!PyTuple_GetFloat(poArgs, 1, &fWidth))

  0002c	8d 45 f4	 lea	 eax, DWORD PTR _fWidth$[ebp]
  0002f	50		 push	 eax
  00030	6a 01		 push	 1
  00032	56		 push	 esi
  00033	e8 00 00 00 00	 call	 ?PyTuple_GetFloat@@YA_NPAU_object@@HPAM@Z ; PyTuple_GetFloat
  00038	83 c4 0c	 add	 esp, 12			; 0000000cH
  0003b	84 c0		 test	 al, al
  0003d	74 de		 je	 SHORT $LN9@chatSetWhi

; 338  : 		return Py_BuildException();
; 339  : 
; 340  : 	float fHeight;
; 341  : 	if (!PyTuple_GetFloat(poArgs, 2, &fHeight))

  0003f	8d 45 f8	 lea	 eax, DWORD PTR _fHeight$[ebp]
  00042	50		 push	 eax
  00043	6a 02		 push	 2
  00045	56		 push	 esi
  00046	e8 00 00 00 00	 call	 ?PyTuple_GetFloat@@YA_NPAU_object@@HPAM@Z ; PyTuple_GetFloat
  0004b	83 c4 0c	 add	 esp, 12			; 0000000cH
  0004e	84 c0		 test	 al, al
  00050	74 cb		 je	 SHORT $LN9@chatSetWhi

; 342  : 		return Py_BuildException();
; 343  : 
; 344  : 	CWhisper * pWhisper;
; 345  : 	if (CPythonChat::Instance().GetWhisper(szName, &pWhisper))

  00052	8b 0d 00 00 00
	00		 mov	 ecx, DWORD PTR ?ms_singleton@?$CSingleton@VCPythonChat@@@@0PAVCPythonChat@@A ; CSingleton<CPythonChat>::ms_singleton
  00058	8d 45 f0	 lea	 eax, DWORD PTR _pWhisper$[ebp]
  0005b	50		 push	 eax
  0005c	ff 75 fc	 push	 DWORD PTR _szName$[ebp]
  0005f	e8 00 00 00 00	 call	 ?GetWhisper@CPythonChat@@QAEHPBDPAPAVCWhisper@@@Z ; CPythonChat::GetWhisper
  00064	85 c0		 test	 eax, eax
  00066	74 12		 je	 SHORT $LN1@chatSetWhi

; 346  : 	{
; 347  : 		pWhisper->SetBoxSize(fWidth, fHeight);

  00068	f3 0f 10 55 f8	 movss	 xmm2, DWORD PTR _fHeight$[ebp]
  0006d	f3 0f 10 4d f4	 movss	 xmm1, DWORD PTR _fWidth$[ebp]
  00072	8b 4d f0	 mov	 ecx, DWORD PTR _pWhisper$[ebp]
  00075	e8 00 00 00 00	 call	 ?SetBoxSize@CWhisper@@QAEXMM@Z ; CWhisper::SetBoxSize
$LN1@chatSetWhi:

; 348  : 	}
; 349  : 
; 350  : 	return Py_BuildNone();

  0007a	e8 00 00 00 00	 call	 ?Py_BuildNone@@YAPAU_object@@XZ ; Py_BuildNone
  0007f	5e		 pop	 esi

; 351  : }

  00080	8b e5		 mov	 esp, ebp
  00082	5d		 pop	 ebp
  00083	c3		 ret	 0
?chatSetWhisperBoxSize@@YAPAU_object@@PAU1@0@Z ENDP	; chatSetWhisperBoxSize
_TEXT	ENDS
; Function compile flags: /Ogtp
; File d:\metin2\metin2\client_source_clean\client_source_clean\source\userinterface\pythonchatmodule.cpp
;	COMDAT ?chatSetWhisperPosition@@YAPAU_object@@PAU1@0@Z
_TEXT	SEGMENT
_pWhisper$ = -12					; size = 4
_fPosition$ = -8					; size = 4
_szName$ = -4						; size = 4
_poSelf$ = 8						; size = 4
_poArgs$ = 12						; size = 4
?chatSetWhisperPosition@@YAPAU_object@@PAU1@0@Z PROC	; chatSetWhisperPosition, COMDAT

; 354  : {

  00000	55		 push	 ebp
  00001	8b ec		 mov	 ebp, esp
  00003	83 ec 0c	 sub	 esp, 12			; 0000000cH

; 355  : 	char * szName;
; 356  : 	if (!PyTuple_GetString(poArgs, 0, &szName))

  00006	8d 45 fc	 lea	 eax, DWORD PTR _szName$[ebp]
  00009	50		 push	 eax
  0000a	6a 00		 push	 0
  0000c	ff 75 0c	 push	 DWORD PTR _poArgs$[ebp]
  0000f	e8 00 00 00 00	 call	 ?PyTuple_GetString@@YA_NPAU_object@@HPAPAD@Z ; PyTuple_GetString
  00014	83 c4 0c	 add	 esp, 12			; 0000000cH
  00017	84 c0		 test	 al, al
  00019	75 0e		 jne	 SHORT $LN3@chatSetWhi
$LN8@chatSetWhi:

; 357  : 		return Py_BuildException();

  0001b	6a 00		 push	 0
  0001d	e8 00 00 00 00	 call	 ?Py_BuildException@@YAPAU_object@@PBDZZ ; Py_BuildException
  00022	83 c4 04	 add	 esp, 4

; 370  : }

  00025	8b e5		 mov	 esp, ebp
  00027	5d		 pop	 ebp
  00028	c3		 ret	 0
$LN3@chatSetWhi:

; 358  : 
; 359  : 	float fPosition;
; 360  : 	if (!PyTuple_GetFloat(poArgs, 1, &fPosition))

  00029	8d 45 f8	 lea	 eax, DWORD PTR _fPosition$[ebp]
  0002c	50		 push	 eax
  0002d	6a 01		 push	 1
  0002f	ff 75 0c	 push	 DWORD PTR _poArgs$[ebp]
  00032	e8 00 00 00 00	 call	 ?PyTuple_GetFloat@@YA_NPAU_object@@HPAM@Z ; PyTuple_GetFloat
  00037	83 c4 0c	 add	 esp, 12			; 0000000cH
  0003a	84 c0		 test	 al, al
  0003c	74 dd		 je	 SHORT $LN8@chatSetWhi

; 361  : 		return Py_BuildException();
; 362  : 
; 363  : 	CWhisper * pWhisper;
; 364  : 	if (CPythonChat::Instance().GetWhisper(szName, &pWhisper))

  0003e	8b 0d 00 00 00
	00		 mov	 ecx, DWORD PTR ?ms_singleton@?$CSingleton@VCPythonChat@@@@0PAVCPythonChat@@A ; CSingleton<CPythonChat>::ms_singleton
  00044	8d 45 f4	 lea	 eax, DWORD PTR _pWhisper$[ebp]
  00047	50		 push	 eax
  00048	ff 75 fc	 push	 DWORD PTR _szName$[ebp]
  0004b	e8 00 00 00 00	 call	 ?GetWhisper@CPythonChat@@QAEHPBDPAPAVCWhisper@@@Z ; CPythonChat::GetWhisper
  00050	85 c0		 test	 eax, eax
  00052	74 0d		 je	 SHORT $LN1@chatSetWhi

; 365  : 	{
; 366  : 		pWhisper->SetPosition(fPosition);

  00054	f3 0f 10 4d f8	 movss	 xmm1, DWORD PTR _fPosition$[ebp]
  00059	8b 4d f4	 mov	 ecx, DWORD PTR _pWhisper$[ebp]
  0005c	e8 00 00 00 00	 call	 ?SetPosition@CWhisper@@QAEXM@Z ; CWhisper::SetPosition
$LN1@chatSetWhi:

; 367  : 	}
; 368  : 
; 369  : 	return Py_BuildNone();

  00061	e8 00 00 00 00	 call	 ?Py_BuildNone@@YAPAU_object@@XZ ; Py_BuildNone

; 370  : }

  00066	8b e5		 mov	 esp, ebp
  00068	5d		 pop	 ebp
  00069	c3		 ret	 0
?chatSetWhisperPosition@@YAPAU_object@@PAU1@0@Z ENDP	; chatSetWhisperPosition
_TEXT	ENDS
; Function compile flags: /Ogtp
; File d:\metin2\metin2\client_source_clean\client_source_clean\source\userinterface\pythonchatmodule.cpp
;	COMDAT ?chatClearWhisper@@YAPAU_object@@PAU1@0@Z
_TEXT	SEGMENT
_szName$ = -4						; size = 4
_poSelf$ = 8						; size = 4
_poArgs$ = 12						; size = 4
?chatClearWhisper@@YAPAU_object@@PAU1@0@Z PROC		; chatClearWhisper, COMDAT

; 373  : {

  00000	55		 push	 ebp
  00001	8b ec		 mov	 ebp, esp
  00003	51		 push	 ecx

; 374  : 	char * szName;
; 375  : 	if (!PyTuple_GetString(poArgs, 0, &szName))

  00004	8d 45 fc	 lea	 eax, DWORD PTR _szName$[ebp]
  00007	50		 push	 eax
  00008	6a 00		 push	 0
  0000a	ff 75 0c	 push	 DWORD PTR _poArgs$[ebp]
  0000d	e8 00 00 00 00	 call	 ?PyTuple_GetString@@YA_NPAU_object@@HPAPAD@Z ; PyTuple_GetString
  00012	83 c4 0c	 add	 esp, 12			; 0000000cH
  00015	84 c0		 test	 al, al
  00017	75 0e		 jne	 SHORT $LN1@chatClearW

; 376  : 		return Py_BuildException();

  00019	6a 00		 push	 0
  0001b	e8 00 00 00 00	 call	 ?Py_BuildException@@YAPAU_object@@PBDZZ ; Py_BuildException
  00020	83 c4 04	 add	 esp, 4

; 381  : }

  00023	8b e5		 mov	 esp, ebp
  00025	5d		 pop	 ebp
  00026	c3		 ret	 0
$LN1@chatClearW:

; 377  : 
; 378  : 	CPythonChat::Instance().ClearWhisper(szName);

  00027	ff 75 fc	 push	 DWORD PTR _szName$[ebp]
  0002a	8b 0d 00 00 00
	00		 mov	 ecx, DWORD PTR ?ms_singleton@?$CSingleton@VCPythonChat@@@@0PAVCPythonChat@@A ; CSingleton<CPythonChat>::ms_singleton
  00030	e8 00 00 00 00	 call	 ?ClearWhisper@CPythonChat@@QAEXPBD@Z ; CPythonChat::ClearWhisper

; 379  : 
; 380  : 	return Py_BuildNone();

  00035	e8 00 00 00 00	 call	 ?Py_BuildNone@@YAPAU_object@@XZ ; Py_BuildNone

; 381  : }

  0003a	8b e5		 mov	 esp, ebp
  0003c	5d		 pop	 ebp
  0003d	c3		 ret	 0
?chatClearWhisper@@YAPAU_object@@PAU1@0@Z ENDP		; chatClearWhisper
_TEXT	ENDS
; Function compile flags: /Ogtp
; File d:\metin2\metin2\client_source_clean\client_source_clean\source\userinterface\pythonchatmodule.cpp
;	COMDAT ?chatInitWhisper@@YAPAU_object@@PAU1@0@Z
_TEXT	SEGMENT
_poInterface$ = -4					; size = 4
_poSelf$ = 8						; size = 4
_poArgs$ = 12						; size = 4
?chatInitWhisper@@YAPAU_object@@PAU1@0@Z PROC		; chatInitWhisper, COMDAT

; 384  : {

  00000	55		 push	 ebp
  00001	8b ec		 mov	 ebp, esp
  00003	51		 push	 ecx

; 385  : 	PyObject * poInterface;
; 386  : 	if (!PyTuple_GetObject(poArgs, 0, &poInterface))

  00004	8d 45 fc	 lea	 eax, DWORD PTR _poInterface$[ebp]
  00007	50		 push	 eax
  00008	6a 00		 push	 0
  0000a	ff 75 0c	 push	 DWORD PTR _poArgs$[ebp]
  0000d	e8 00 00 00 00	 call	 ?PyTuple_GetObject@@YA_NPAU_object@@HPAPAU1@@Z ; PyTuple_GetObject
  00012	83 c4 0c	 add	 esp, 12			; 0000000cH
  00015	84 c0		 test	 al, al
  00017	75 0e		 jne	 SHORT $LN1@chatInitWh

; 387  : 		return Py_BuildException();

  00019	6a 00		 push	 0
  0001b	e8 00 00 00 00	 call	 ?Py_BuildException@@YAPAU_object@@PBDZZ ; Py_BuildException
  00020	83 c4 04	 add	 esp, 4

; 391  : }

  00023	8b e5		 mov	 esp, ebp
  00025	5d		 pop	 ebp
  00026	c3		 ret	 0
$LN1@chatInitWh:

; 388  : 
; 389  : 	CPythonChat::Instance().InitWhisper(poInterface);

  00027	ff 75 fc	 push	 DWORD PTR _poInterface$[ebp]
  0002a	8b 0d 00 00 00
	00		 mov	 ecx, DWORD PTR ?ms_singleton@?$CSingleton@VCPythonChat@@@@0PAVCPythonChat@@A ; CSingleton<CPythonChat>::ms_singleton
  00030	e8 00 00 00 00	 call	 ?InitWhisper@CPythonChat@@QAEXPAU_object@@@Z ; CPythonChat::InitWhisper

; 390  : 	return Py_BuildNone();

  00035	e8 00 00 00 00	 call	 ?Py_BuildNone@@YAPAU_object@@XZ ; Py_BuildNone

; 391  : }

  0003a	8b e5		 mov	 esp, ebp
  0003c	5d		 pop	 ebp
  0003d	c3		 ret	 0
?chatInitWhisper@@YAPAU_object@@PAU1@0@Z ENDP		; chatInitWhisper
_TEXT	ENDS
; Function compile flags: /Ogtp
; File d:\metin2\metin2\client_source_clean\client_source_clean\source\userinterface\pythonchatmodule.cpp
; File c:\program files (x86)\microsoft visual studio 12.0\vc\include\iosfwd
; File c:\program files (x86)\microsoft visual studio 12.0\vc\include\xstring
; File c:\program files (x86)\microsoft visual studio 12.0\vc\include\iosfwd
; File c:\program files (x86)\microsoft visual studio 12.0\vc\include\xstring
; File d:\metin2\metin2\client_source_clean\client_source_clean\source\userinterface\pythonchatmodule.cpp
; File c:\program files (x86)\microsoft visual studio 12.0\vc\include\vector
; File d:\metin2\metin2\client_source_clean\client_source_clean\source\userinterface\pythonchatmodule.cpp
; File c:\program files (x86)\microsoft visual studio 12.0\vc\include\xstring
; File c:\program files (x86)\microsoft visual studio 12.0\vc\include\iosfwd
; File c:\program files (x86)\microsoft visual studio 12.0\vc\include\xstring
; File d:\metin2\metin2\client_source_clean\client_source_clean\source\userinterface\pythonchatmodule.cpp
; File c:\program files (x86)\microsoft visual studio 12.0\vc\include\xstring
; File c:\program files (x86)\microsoft visual studio 12.0\vc\include\xmemory0
; File c:\program files (x86)\microsoft visual studio 12.0\vc\include\xstring
; File d:\metin2\metin2\client_source_clean\client_source_clean\source\userinterface\pythonchatmodule.cpp
; File c:\program files (x86)\microsoft visual studio 12.0\vc\include\vector
; File d:\metin2\metin2\client_source_clean\client_source_clean\source\userinterface\pythonchatmodule.cpp
; File c:\program files (x86)\microsoft visual studio 12.0\vc\include\vector
; File d:\metin2\metin2\client_source_clean\client_source_clean\source\userinterface\pythonchatmodule.cpp
; File c:\program files (x86)\microsoft visual studio 12.0\vc\include\xstring
; File c:\program files (x86)\microsoft visual studio 12.0\vc\include\xstddef
; File d:\metin2\metin2\client_source_clean\client_source_clean\source\eterbase\utils.h
; File d:\metin2\metin2\client_source_clean\client_source_clean\source\userinterface\pythonchatmodule.cpp
; File d:\metin2\metin2\client_source_clean\client_source_clean\source\eterbase\utils.h
; File d:\metin2\metin2\client_source_clean\client_source_clean\source\userinterface\pythonchatmodule.cpp
; File c:\program files (x86)\microsoft visual studio 12.0\vc\include\vector
; File d:\metin2\metin2\client_source_clean\client_source_clean\source\userinterface\pythonchatmodule.cpp
; File c:\program files (x86)\microsoft visual studio 12.0\vc\include\vector
; File c:\program files (x86)\microsoft visual studio 12.0\vc\include\xstring
; File c:\program files (x86)\microsoft visual studio 12.0\vc\include\xstddef
; File d:\metin2\metin2\client_source_clean\client_source_clean\source\eterbase\utils.h
; File d:\metin2\metin2\client_source_clean\client_source_clean\source\userinterface\pythonchatmodule.cpp
; File d:\metin2\metin2\client_source_clean\client_source_clean\source\eterbase\utils.h
; File c:\program files (x86)\microsoft visual studio 12.0\vc\include\vector
; File c:\program files (x86)\microsoft visual studio 12.0\vc\include\xstring
; File c:\program files (x86)\microsoft visual studio 12.0\vc\include\vector
; File c:\program files (x86)\microsoft visual studio 12.0\vc\include\xstring
; File c:\program files (x86)\microsoft visual studio 12.0\vc\include\xstddef
; File d:\metin2\metin2\client_source_clean\client_source_clean\source\eterbase\utils.h
; File d:\metin2\metin2\client_source_clean\client_source_clean\source\userinterface\pythonchatmodule.cpp
; File d:\metin2\metin2\client_source_clean\client_source_clean\source\eterbase\utils.h
; File c:\program files (x86)\microsoft visual studio 12.0\vc\include\vector
; File c:\program files (x86)\microsoft visual studio 12.0\vc\include\xstring
; File c:\program files (x86)\microsoft visual studio 12.0\vc\include\vector
; File c:\program files (x86)\microsoft visual studio 12.0\vc\include\xstring
; File c:\program files (x86)\microsoft visual studio 12.0\vc\include\xstddef
; File d:\metin2\metin2\client_source_clean\client_source_clean\source\eterbase\utils.h
; File d:\metin2\metin2\client_source_clean\client_source_clean\source\userinterface\pythonchatmodule.cpp
; File d:\metin2\metin2\client_source_clean\client_source_clean\source\eterbase\utils.h
; File c:\program files (x86)\microsoft visual studio 12.0\vc\include\vector
; File c:\program files (x86)\microsoft visual studio 12.0\vc\include\xstring
; File c:\program files (x86)\microsoft visual studio 12.0\vc\include\xstddef
; File d:\metin2\metin2\client_source_clean\client_source_clean\source\eterbase\utils.h
; File d:\metin2\metin2\client_source_clean\client_source_clean\source\userinterface\pythonchatmodule.cpp
; File d:\metin2\metin2\client_source_clean\client_source_clean\source\eterbase\utils.h
; File c:\program files (x86)\microsoft visual studio 12.0\vc\include\vector
; File c:\program files (x86)\microsoft visual studio 12.0\vc\include\xstring
; File c:\program files (x86)\microsoft visual studio 12.0\vc\include\xstddef
; File d:\metin2\metin2\client_source_clean\client_source_clean\source\eterbase\utils.h
; File d:\metin2\metin2\client_source_clean\client_source_clean\source\userinterface\pythonchatmodule.cpp
; File d:\metin2\metin2\client_source_clean\client_source_clean\source\eterbase\utils.h
; File d:\metin2\metin2\client_source_clean\client_source_clean\source\userinterface\pythonchatmodule.cpp
; File c:\program files (x86)\microsoft visual studio 12.0\vc\include\vector
; File d:\metin2\metin2\client_source_clean\client_source_clean\source\userinterface\pythonchatmodule.cpp
; File c:\program files (x86)\microsoft visual studio 12.0\vc\include\vector
; File d:\metin2\metin2\client_source_clean\client_source_clean\source\userinterface\pythonchatmodule.cpp
; File c:\program files (x86)\microsoft visual studio 12.0\vc\include\vector
; File d:\metin2\metin2\client_source_clean\client_source_clean\source\userinterface\pythonchatmodule.cpp
; File c:\program files (x86)\microsoft visual studio 12.0\vc\include\vector
; File c:\program files (x86)\microsoft visual studio 12.0\vc\include\xstring
; File c:\program files (x86)\microsoft visual studio 12.0\vc\include\vector
; File c:\program files (x86)\microsoft visual studio 12.0\vc\include\xstring
; File c:\program files (x86)\microsoft visual studio 12.0\vc\include\xstddef
; File c:\program files (x86)\microsoft visual studio 12.0\vc\include\xstring
; File c:\program files (x86)\microsoft visual studio 12.0\vc\include\xstddef
; File d:\metin2\metin2\client_source_clean\client_source_clean\source\eterbase\utils.h
; File d:\metin2\metin2\client_source_clean\client_source_clean\source\userinterface\pythonchatmodule.cpp
; File d:\metin2\metin2\client_source_clean\client_source_clean\source\eterbase\utils.h
; File d:\metin2\metin2\client_source_clean\client_source_clean\source\userinterface\pythonchatmodule.cpp
; File c:\program files (x86)\microsoft visual studio 12.0\vc\include\vector
; File d:\metin2\metin2\client_source_clean\client_source_clean\source\userinterface\pythonchatmodule.cpp
; File c:\program files (x86)\microsoft visual studio 12.0\vc\include\vector
; File d:\metin2\metin2\client_source_clean\client_source_clean\source\userinterface\pythonchatmodule.cpp
; File c:\program files (x86)\microsoft visual studio 12.0\vc\include\vector
; File d:\metin2\metin2\client_source_clean\client_source_clean\source\userinterface\pythonchatmodule.cpp
; File c:\program files (x86)\microsoft visual studio 12.0\vc\include\vector
; File d:\metin2\metin2\client_source_clean\client_source_clean\source\userinterface\pythonchatmodule.cpp
; File c:\program files (x86)\microsoft visual studio 12.0\vc\include\vector
; File d:\metin2\metin2\client_source_clean\client_source_clean\source\userinterface\pythonchatmodule.cpp
; File c:\program files (x86)\microsoft visual studio 12.0\vc\include\vector
; File d:\metin2\metin2\client_source_clean\client_source_clean\source\userinterface\pythonchatmodule.cpp
; File c:\program files (x86)\microsoft visual studio 12.0\vc\include\vector
; File c:\program files (x86)\microsoft visual studio 12.0\vc\include\xmemory0
; File c:\program files (x86)\microsoft visual studio 12.0\vc\include\vector
; File c:\program files (x86)\microsoft visual studio 12.0\vc\include\xstring
; File c:\program files (x86)\microsoft visual studio 12.0\vc\include\xmemory0
; File d:\metin2\metin2\client_source_clean\client_source_clean\source\userinterface\pythonchatmodule.cpp
;	COMDAT ?chatGetLinkFromHyperlink@@YAPAU_object@@PAU1@0@Z
_TEXT	SEGMENT
$T2 = -1392						; size = 4
_i$1$ = -1392						; size = 4
$T3 = -1388						; size = 4
_len$1$ = -1388						; size = 4
_results$ = -1384					; size = 12
tv1630 = -1372						; size = 4
tv1627 = -1372						; size = 4
tv1604 = -1372						; size = 4
$T4 = -1368						; size = 4
_t$1$ = -1368						; size = 4
_pItemData$5 = -1364					; size = 4
__Alval$6 = -1357					; size = 1
__Cat$7 = -1356						; size = 1
_szHyperlink$ = -1356					; size = 4
$T8 = -1352						; size = 24
_stHyperlink$ = -1328					; size = 24
_itemlink$9 = -1304					; size = 256
_buf$10 = -1048						; size = 1024
__$ArrayPad$ = -20					; size = 4
__$EHRec$ = -12						; size = 12
_poSelf$ = 8						; size = 4
_poArgs$ = 12						; size = 4
?chatGetLinkFromHyperlink@@YAPAU_object@@PAU1@0@Z PROC	; chatGetLinkFromHyperlink, COMDAT

; 394  : {

  00000	55		 push	 ebp
  00001	8b ec		 mov	 ebp, esp
  00003	83 e4 f8	 and	 esp, -8			; fffffff8H
  00006	6a ff		 push	 -1
  00008	68 00 00 00 00	 push	 __ehhandler$?chatGetLinkFromHyperlink@@YAPAU_object@@PAU1@0@Z
  0000d	64 a1 00 00 00
	00		 mov	 eax, DWORD PTR fs:0
  00013	50		 push	 eax
  00014	81 ec 68 05 00
	00		 sub	 esp, 1384		; 00000568H
  0001a	a1 00 00 00 00	 mov	 eax, DWORD PTR ___security_cookie
  0001f	33 c4		 xor	 eax, esp
  00021	89 84 24 60 05
	00 00		 mov	 DWORD PTR __$ArrayPad$[esp+1396], eax
  00028	53		 push	 ebx
  00029	56		 push	 esi
  0002a	57		 push	 edi
  0002b	a1 00 00 00 00	 mov	 eax, DWORD PTR ___security_cookie
  00030	33 c4		 xor	 eax, esp
  00032	50		 push	 eax
  00033	8d 84 24 78 05
	00 00		 lea	 eax, DWORD PTR __$EHRec$[esp+1412]
  0003a	64 a3 00 00 00
	00		 mov	 DWORD PTR fs:0, eax
  00040	8b 45 0c	 mov	 eax, DWORD PTR _poArgs$[ebp]

; 395  : 	char * szHyperlink;
; 396  : 	
; 397  : 	if (!PyTuple_GetString(poArgs, 0, &szHyperlink))

  00043	8d 4c 24 38	 lea	 ecx, DWORD PTR _szHyperlink$[esp+1412]
  00047	51		 push	 ecx
  00048	6a 00		 push	 0
  0004a	50		 push	 eax
  0004b	e8 00 00 00 00	 call	 ?PyTuple_GetString@@YA_NPAU_object@@HPAPAD@Z ; PyTuple_GetString
  00050	83 c4 0c	 add	 esp, 12			; 0000000cH
  00053	84 c0		 test	 al, al
  00055	75 0f		 jne	 SHORT $LN10@chatGetLin

; 398  : 		return Py_BuildException();

  00057	6a 00		 push	 0
  00059	e8 00 00 00 00	 call	 ?Py_BuildException@@YAPAU_object@@PBDZZ ; Py_BuildException
  0005e	83 c4 04	 add	 esp, 4
  00061	e9 04 06 00 00	 jmp	 $LN11@chatGetLin
$LN10@chatGetLin:
; File c:\program files (x86)\microsoft visual studio 12.0\vc\include\iosfwd

; 523  : 			: _CSTD strlen(_First));

  00066	8b 54 24 38	 mov	 edx, DWORD PTR _szHyperlink$[esp+1412]
; File c:\program files (x86)\microsoft visual studio 12.0\vc\include\xstring

; 2284 : 		this->_Myres = this->_BUF_SIZE - 1;

  0006a	c7 44 24 68 0f
	00 00 00	 mov	 DWORD PTR _stHyperlink$[esp+1432], 15 ; 0000000fH

; 2160 : 		}
; 2161 : 
; 2162 : 	int compare(size_type _Off, size_type _N0, const _Elem *_Ptr) const
; 2163 : 		{	// compare [_Off, _Off + _N0) with [_Ptr, <null>)
; 2164 : 		_DEBUG_POINTER(_Ptr);
; 2165 : 		return (compare(_Off, _N0, _Ptr, _Traits::length(_Ptr)));
; 2166 : 		}
; 2167 : 
; 2168 : 	int compare(size_type _Off,
; 2169 : 		size_type _N0, const _Elem *_Ptr, size_type _Count) const
; 2170 : 		{	// compare [_Off, _Off + _N0) with [_Ptr, _Ptr + _Count)
; 2171 :  #if _ITERATOR_DEBUG_LEVEL == 2
; 2172 : 		if (_Count != 0)
; 2173 : 			_DEBUG_POINTER(_Ptr);
; 2174 :  #endif /* _ITERATOR_DEBUG_LEVEL == 2 */
; 2175 : 
; 2176 : 		if (this->_Mysize < _Off)
; 2177 : 			_Xran();	// _Off off end
; 2178 : 		if (this->_Mysize - _Off < _N0)
; 2179 : 			_N0 = this->_Mysize - _Off;	// trim _N0 to size
; 2180 : 
; 2181 : 		size_type _Ans = _Traits::compare(this->_Myptr() + _Off, _Ptr,
; 2182 : 			_N0 < _Count ? _N0 : _Count);
; 2183 : 		return (_Ans != 0 ? (int)_Ans : _N0 < _Count ? -1
; 2184 : 			: _N0 == _Count ? 0 : +1);
; 2185 : 		}
; 2186 : 
; 2187 : 	allocator_type get_allocator() const _NOEXCEPT
; 2188 : 		{	// return allocator object for values
; 2189 : 		return (this->_Getal());
; 2190 : 		}
; 2191 : 
; 2192 : 	void _Chassign(size_type _Off, size_type _Count, _Elem _Ch)
; 2193 : 		{	// assign _Count copies of _Ch beginning at _Off
; 2194 : 		if (_Count == 1)
; 2195 : 			_Traits::assign(*(this->_Myptr() + _Off), _Ch);
; 2196 : 		else
; 2197 : 			_Traits::assign(this->_Myptr() + _Off, _Count, _Ch);
; 2198 : 		}
; 2199 : 
; 2200 : 	void _Copy(size_type _Newsize, size_type _Oldlen)
; 2201 : 		{	// copy _Oldlen elements to newly allocated buffer
; 2202 : 		size_type _Newres = _Newsize | this->_ALLOC_MASK;
; 2203 : 		if (max_size() < _Newres)
; 2204 : 			_Newres = _Newsize;	// undo roundup if too big
; 2205 : 		else if (this->_Myres / 2 <= _Newres / 3)
; 2206 : 			;
; 2207 : 		else if (this->_Myres <= max_size() - this->_Myres / 2)
; 2208 : 			_Newres = this->_Myres
; 2209 : 				+ this->_Myres / 2;	// grow exponentially if possible
; 2210 : 		else
; 2211 : 			_Newres = max_size();	// settle for max_size()
; 2212 : 
; 2213 : 		_Elem *_Ptr;
; 2214 : 		_TRY_BEGIN
; 2215 : 			_Ptr = this->_Getal().allocate(_Newres + 1);
; 2216 : 		_CATCH_ALL
; 2217 : 			_Newres = _Newsize;	// allocation failed, undo roundup and retry
; 2218 : 			_TRY_BEGIN
; 2219 : 				_Ptr = this->_Getal().allocate(_Newres + 1);
; 2220 : 			_CATCH_ALL
; 2221 : 			_Tidy(true);	// failed again, discard storage and reraise
; 2222 : 			_RERAISE;
; 2223 : 			_CATCH_END
; 2224 : 		_CATCH_END
; 2225 : 
; 2226 : 		if (0 < _Oldlen)
; 2227 : 			_Traits::copy(_Ptr, this->_Myptr(),
; 2228 : 				_Oldlen);	// copy existing elements
; 2229 : 		_Tidy(true);
; 2230 : 		this->_Getal().construct(&this->_Bx._Ptr, _Ptr);
; 2231 : 		this->_Myres = _Newres;
; 2232 : 		_Eos(_Oldlen);
; 2233 : 		}
; 2234 : 
; 2235 : 	void _Eos(size_type _Newsize)
; 2236 : 		{	// set new length and null terminator
; 2237 : 		_Traits::assign(this->_Myptr()[this->_Mysize = _Newsize], _Elem());

  00072	c7 44 24 64 00
	00 00 00	 mov	 DWORD PTR _stHyperlink$[esp+1428], 0
; File c:\program files (x86)\microsoft visual studio 12.0\vc\include\iosfwd

; 564  : 		_Left = _Right;

  0007a	c6 44 24 54 00	 mov	 BYTE PTR _stHyperlink$[esp+1412], 0

; 523  : 			: _CSTD strlen(_First));

  0007f	80 3a 00	 cmp	 BYTE PTR [edx], 0
  00082	75 04		 jne	 SHORT $LN60@chatGetLin
  00084	33 c9		 xor	 ecx, ecx
  00086	eb 11		 jmp	 SHORT $LN61@chatGetLin
$LN60@chatGetLin:
  00088	8b ca		 mov	 ecx, edx
  0008a	8d 71 01	 lea	 esi, DWORD PTR [ecx+1]
  0008d	8d 49 00	 npad	 3
$LL396@chatGetLin:
  00090	8a 01		 mov	 al, BYTE PTR [ecx]
  00092	41		 inc	 ecx
  00093	84 c0		 test	 al, al
  00095	75 f9		 jne	 SHORT $LL396@chatGetLin
  00097	2b ce		 sub	 ecx, esi
$LN61@chatGetLin:
; File c:\program files (x86)\microsoft visual studio 12.0\vc\include\xstring

; 1169 : 		return (assign(_Ptr, _Traits::length(_Ptr)));

  00099	51		 push	 ecx
  0009a	52		 push	 edx
  0009b	8d 4c 24 5c	 lea	 ecx, DWORD PTR _stHyperlink$[esp+1420]
  0009f	e8 00 00 00 00	 call	 ?assign@?$basic_string@DU?$char_traits@D@std@@V?$allocator@D@2@@std@@QAEAAV12@PBDI@Z ; std::basic_string<char,std::char_traits<char>,std::allocator<char> >::assign
; File d:\metin2\metin2\client_source_clean\client_source_clean\source\userinterface\pythonchatmodule.cpp

; 400  : 	std::string stHyperlink(szHyperlink);

  000a4	c7 84 24 80 05
	00 00 00 00 00
	00		 mov	 DWORD PTR __$EHRec$[esp+1420], 0
; File c:\program files (x86)\microsoft visual studio 12.0\vc\include\vector

; 482  : 		_Myfirst = pointer();

  000af	c7 44 24 1c 00
	00 00 00	 mov	 DWORD PTR _results$[esp+1412], 0

; 483  : 		_Mylast = pointer();

  000b7	c7 44 24 20 00
	00 00 00	 mov	 DWORD PTR _results$[esp+1416], 0

; 484  : 		_Myend = pointer();

  000bf	c7 44 24 24 00
	00 00 00	 mov	 DWORD PTR _results$[esp+1420], 0
; File d:\metin2\metin2\client_source_clean\client_source_clean\source\userinterface\pythonchatmodule.cpp

; 401  : 	std::vector<std::string> results;

  000c7	c6 84 24 80 05
	00 00 01	 mov	 BYTE PTR __$EHRec$[esp+1420], 1
; File c:\program files (x86)\microsoft visual studio 12.0\vc\include\xstring

; 1169 : 		return (assign(_Ptr, _Traits::length(_Ptr)));

  000cf	8d 4c 24 3c	 lea	 ecx, DWORD PTR $T8[esp+1412]
  000d3	6a 01		 push	 1
  000d5	68 00 00 00 00	 push	 OFFSET ??_C@_01JLIPDDHJ@?3?$AA@

; 2284 : 		this->_Myres = this->_BUF_SIZE - 1;

  000da	c7 44 24 58 0f
	00 00 00	 mov	 DWORD PTR $T8[esp+1440], 15 ; 0000000fH

; 2160 : 		}
; 2161 : 
; 2162 : 	int compare(size_type _Off, size_type _N0, const _Elem *_Ptr) const
; 2163 : 		{	// compare [_Off, _Off + _N0) with [_Ptr, <null>)
; 2164 : 		_DEBUG_POINTER(_Ptr);
; 2165 : 		return (compare(_Off, _N0, _Ptr, _Traits::length(_Ptr)));
; 2166 : 		}
; 2167 : 
; 2168 : 	int compare(size_type _Off,
; 2169 : 		size_type _N0, const _Elem *_Ptr, size_type _Count) const
; 2170 : 		{	// compare [_Off, _Off + _N0) with [_Ptr, _Ptr + _Count)
; 2171 :  #if _ITERATOR_DEBUG_LEVEL == 2
; 2172 : 		if (_Count != 0)
; 2173 : 			_DEBUG_POINTER(_Ptr);
; 2174 :  #endif /* _ITERATOR_DEBUG_LEVEL == 2 */
; 2175 : 
; 2176 : 		if (this->_Mysize < _Off)
; 2177 : 			_Xran();	// _Off off end
; 2178 : 		if (this->_Mysize - _Off < _N0)
; 2179 : 			_N0 = this->_Mysize - _Off;	// trim _N0 to size
; 2180 : 
; 2181 : 		size_type _Ans = _Traits::compare(this->_Myptr() + _Off, _Ptr,
; 2182 : 			_N0 < _Count ? _N0 : _Count);
; 2183 : 		return (_Ans != 0 ? (int)_Ans : _N0 < _Count ? -1
; 2184 : 			: _N0 == _Count ? 0 : +1);
; 2185 : 		}
; 2186 : 
; 2187 : 	allocator_type get_allocator() const _NOEXCEPT
; 2188 : 		{	// return allocator object for values
; 2189 : 		return (this->_Getal());
; 2190 : 		}
; 2191 : 
; 2192 : 	void _Chassign(size_type _Off, size_type _Count, _Elem _Ch)
; 2193 : 		{	// assign _Count copies of _Ch beginning at _Off
; 2194 : 		if (_Count == 1)
; 2195 : 			_Traits::assign(*(this->_Myptr() + _Off), _Ch);
; 2196 : 		else
; 2197 : 			_Traits::assign(this->_Myptr() + _Off, _Count, _Ch);
; 2198 : 		}
; 2199 : 
; 2200 : 	void _Copy(size_type _Newsize, size_type _Oldlen)
; 2201 : 		{	// copy _Oldlen elements to newly allocated buffer
; 2202 : 		size_type _Newres = _Newsize | this->_ALLOC_MASK;
; 2203 : 		if (max_size() < _Newres)
; 2204 : 			_Newres = _Newsize;	// undo roundup if too big
; 2205 : 		else if (this->_Myres / 2 <= _Newres / 3)
; 2206 : 			;
; 2207 : 		else if (this->_Myres <= max_size() - this->_Myres / 2)
; 2208 : 			_Newres = this->_Myres
; 2209 : 				+ this->_Myres / 2;	// grow exponentially if possible
; 2210 : 		else
; 2211 : 			_Newres = max_size();	// settle for max_size()
; 2212 : 
; 2213 : 		_Elem *_Ptr;
; 2214 : 		_TRY_BEGIN
; 2215 : 			_Ptr = this->_Getal().allocate(_Newres + 1);
; 2216 : 		_CATCH_ALL
; 2217 : 			_Newres = _Newsize;	// allocation failed, undo roundup and retry
; 2218 : 			_TRY_BEGIN
; 2219 : 				_Ptr = this->_Getal().allocate(_Newres + 1);
; 2220 : 			_CATCH_ALL
; 2221 : 			_Tidy(true);	// failed again, discard storage and reraise
; 2222 : 			_RERAISE;
; 2223 : 			_CATCH_END
; 2224 : 		_CATCH_END
; 2225 : 
; 2226 : 		if (0 < _Oldlen)
; 2227 : 			_Traits::copy(_Ptr, this->_Myptr(),
; 2228 : 				_Oldlen);	// copy existing elements
; 2229 : 		_Tidy(true);
; 2230 : 		this->_Getal().construct(&this->_Bx._Ptr, _Ptr);
; 2231 : 		this->_Myres = _Newres;
; 2232 : 		_Eos(_Oldlen);
; 2233 : 		}
; 2234 : 
; 2235 : 	void _Eos(size_type _Newsize)
; 2236 : 		{	// set new length and null terminator
; 2237 : 		_Traits::assign(this->_Myptr()[this->_Mysize = _Newsize], _Elem());

  000e2	c7 44 24 54 00
	00 00 00	 mov	 DWORD PTR $T8[esp+1436], 0
; File c:\program files (x86)\microsoft visual studio 12.0\vc\include\iosfwd

; 564  : 		_Left = _Right;

  000ea	c6 44 24 44 00	 mov	 BYTE PTR $T8[esp+1420], 0
; File c:\program files (x86)\microsoft visual studio 12.0\vc\include\xstring

; 1169 : 		return (assign(_Ptr, _Traits::length(_Ptr)));

  000ef	e8 00 00 00 00	 call	 ?assign@?$basic_string@DU?$char_traits@D@std@@V?$allocator@D@2@@std@@QAEAAV12@PBDI@Z ; std::basic_string<char,std::char_traits<char>,std::allocator<char> >::assign
; File d:\metin2\metin2\client_source_clean\client_source_clean\source\userinterface\pythonchatmodule.cpp

; 403  : 	split_string(stHyperlink, ":", results, false);

  000f4	6a 00		 push	 0
  000f6	8d 44 24 20	 lea	 eax, DWORD PTR _results$[esp+1416]
  000fa	c6 84 24 84 05
	00 00 02	 mov	 BYTE PTR __$EHRec$[esp+1424], 2
  00102	50		 push	 eax
  00103	8d 44 24 44	 lea	 eax, DWORD PTR $T8[esp+1420]
  00107	50		 push	 eax
  00108	8d 44 24 60	 lea	 eax, DWORD PTR _stHyperlink$[esp+1424]
  0010c	50		 push	 eax
  0010d	e8 00 00 00 00	 call	 ?split_string@@YAHABV?$basic_string@DU?$char_traits@D@std@@V?$allocator@D@2@@std@@0AAV?$vector@V?$basic_string@DU?$char_traits@D@std@@V?$allocator@D@2@@std@@V?$allocator@V?$basic_string@DU?$char_traits@D@std@@V?$allocator@D@2@@std@@@2@@2@_N@Z ; split_string
  00112	83 c4 10	 add	 esp, 16			; 00000010H
  00115	c6 84 24 80 05
	00 00 01	 mov	 BYTE PTR __$EHRec$[esp+1420], 1
; File c:\program files (x86)\microsoft visual studio 12.0\vc\include\xstring

; 2275 : 		else if (this->_BUF_SIZE <= this->_Myres)

  0011d	83 7c 24 50 10	 cmp	 DWORD PTR $T8[esp+1432], 16 ; 00000010H
  00122	72 0c		 jb	 SHORT $LN134@chatGetLin
; File c:\program files (x86)\microsoft visual studio 12.0\vc\include\xmemory0

; 573  : 		::operator delete(_Ptr);

  00124	ff 74 24 3c	 push	 DWORD PTR $T8[esp+1412]
  00128	e8 00 00 00 00	 call	 ??3@YAXPAX@Z		; operator delete
  0012d	83 c4 04	 add	 esp, 4
$LN134@chatGetLin:
; File c:\program files (x86)\microsoft visual studio 12.0\vc\include\xstring

; 2159 : 		return (compare(0, this->_Mysize, _Ptr, _Traits::length(_Ptr)));

  00130	8b 4c 24 1c	 mov	 ecx, DWORD PTR _results$[esp+1412]
  00134	6a 04		 push	 4
  00136	68 00 00 00 00	 push	 OFFSET ??_C@_04NHONDGDE@item?$AA@
  0013b	ff 71 10	 push	 DWORD PTR [ecx+16]
  0013e	6a 00		 push	 0
  00140	e8 00 00 00 00	 call	 ?compare@?$basic_string@DU?$char_traits@D@std@@V?$allocator@D@2@@std@@QBEHIIPBDI@Z ; std::basic_string<char,std::char_traits<char>,std::allocator<char> >::compare
; File d:\metin2\metin2\client_source_clean\client_source_clean\source\userinterface\pythonchatmodule.cpp

; 406  : 	if (0 == results[0].compare("item"))

  00145	85 c0		 test	 eax, eax
  00147	0f 85 b4 04 00
	00		 jne	 $LN7@chatGetLin
; File c:\program files (x86)\microsoft visual studio 12.0\vc\include\vector

; 1148 : 		return (this->_Mylast - this->_Myfirst);

  0014d	8b 4c 24 20	 mov	 ecx, DWORD PTR _results$[esp+1416]
  00151	b8 ab aa aa 2a	 mov	 eax, 715827883		; 2aaaaaabH
  00156	8b 7c 24 1c	 mov	 edi, DWORD PTR _results$[esp+1412]
  0015a	2b cf		 sub	 ecx, edi
  0015c	f7 e9		 imul	 ecx
  0015e	c1 fa 02	 sar	 edx, 2
  00161	8b c2		 mov	 eax, edx
  00163	c1 e8 1f	 shr	 eax, 31			; 0000001fH
  00166	03 c2		 add	 eax, edx
; File d:\metin2\metin2\client_source_clean\client_source_clean\source\userinterface\pythonchatmodule.cpp

; 408  : 		if (results.size() < 6)

  00168	83 f8 06	 cmp	 eax, 6
  0016b	0f 82 90 04 00
	00		 jb	 $LN7@chatGetLin
; File c:\program files (x86)\microsoft visual studio 12.0\vc\include\vector

; 1209 : 		return (*(this->_Myfirst + _Pos));

  00171	83 c7 18	 add	 edi, 24			; 00000018H
; File d:\metin2\metin2\client_source_clean\client_source_clean\source\userinterface\pythonchatmodule.cpp

; 411  : 		CItemData * pItemData = NULL;

  00174	c7 44 24 30 00
	00 00 00	 mov	 DWORD PTR _pItemData$5[esp+1412], 0
; File c:\program files (x86)\microsoft visual studio 12.0\vc\include\xstring

; 520  : 			: this->_Bx._Buf);

  0017c	83 7f 14 10	 cmp	 DWORD PTR [edi+20], 16	; 00000010H
  00180	72 02		 jb	 SHORT $LN163@chatGetLin
; File c:\program files (x86)\microsoft visual studio 12.0\vc\include\xstddef

; 95   : 		reinterpret_cast<const volatile char&>(_Val)))));

  00182	8b 3f		 mov	 edi, DWORD PTR [edi]
$LN163@chatGetLin:
; File d:\metin2\metin2\client_source_clean\client_source_clean\source\eterbase\utils.h

; 193  :     int x = 0, y = 1;

  00184	33 c9		 xor	 ecx, ecx

; 194  :     s += strlen(s);

  00186	8b f7		 mov	 esi, edi
  00188	8d 51 01	 lea	 edx, DWORD PTR [ecx+1]
  0018b	8d 5e 01	 lea	 ebx, DWORD PTR [esi+1]
  0018e	8b ff		 npad	 2
$LL397@chatGetLin:
  00190	8a 06		 mov	 al, BYTE PTR [esi]
  00192	46		 inc	 esi
  00193	84 c0		 test	 al, al
  00195	75 f9		 jne	 SHORT $LL397@chatGetLin
  00197	2b f3		 sub	 esi, ebx

; 195  : 
; 196  :     while (t <= --s)

  00199	4e		 dec	 esi
  0019a	03 f7		 add	 esi, edi
  0019c	3b fe		 cmp	 edi, esi
  0019e	77 42		 ja	 SHORT $LN174@chatGetLin
$LL173@chatGetLin:

; 197  :     {
; 198  : 		if ('0' <= *s && *s <= '9')

  001a0	8a 06		 mov	 al, BYTE PTR [esi]
  001a2	3c 30		 cmp	 al, 48			; 00000030H
  001a4	7c 0c		 jl	 SHORT $LN171@chatGetLin
  001a6	3c 39		 cmp	 al, 57			; 00000039H
  001a8	7f 08		 jg	 SHORT $LN171@chatGetLin

; 199  :             x += y * (*s - '0');

  001aa	0f be c0	 movsx	 eax, al
  001ad	83 e8 30	 sub	 eax, 48			; 00000030H
  001b0	eb 1e		 jmp	 SHORT $LN405@chatGetLin
$LN171@chatGetLin:

; 200  :         else if ('a' <= *s && *s <= 'f')

  001b2	3c 61		 cmp	 al, 97			; 00000061H
  001b4	7c 0c		 jl	 SHORT $LN169@chatGetLin
  001b6	3c 66		 cmp	 al, 102			; 00000066H
  001b8	7f 08		 jg	 SHORT $LN169@chatGetLin

; 201  :             x += y * (*s - 'a' + 10);

  001ba	0f be c0	 movsx	 eax, al
  001bd	83 e8 57	 sub	 eax, 87			; 00000057H
  001c0	eb 0e		 jmp	 SHORT $LN405@chatGetLin
$LN169@chatGetLin:

; 202  :         else if ('A' <= *s && *s <= 'F')

  001c2	3c 41		 cmp	 al, 65			; 00000041H
  001c4	7c 19		 jl	 SHORT $LN167@chatGetLin
  001c6	3c 46		 cmp	 al, 70			; 00000046H
  001c8	7f 15		 jg	 SHORT $LN167@chatGetLin

; 203  :             x += y * (10 + *s - 'A');

  001ca	0f be c0	 movsx	 eax, al
  001cd	83 e8 37	 sub	 eax, 55			; 00000037H
$LN405@chatGetLin:
  001d0	0f af c2	 imul	 eax, edx
  001d3	4e		 dec	 esi

; 206  :         y <<= 4;

  001d4	c1 e2 04	 shl	 edx, 4
  001d7	03 c8		 add	 ecx, eax
  001d9	3b fe		 cmp	 edi, esi
  001db	76 c3		 jbe	 SHORT $LL173@chatGetLin
; File d:\metin2\metin2\client_source_clean\client_source_clean\source\userinterface\pythonchatmodule.cpp

; 429  : 				for (int i = 6; i < results.size(); i += 2)

  001dd	eb 03		 jmp	 SHORT $LN174@chatGetLin
$LN167@chatGetLin:
; File d:\metin2\metin2\client_source_clean\client_source_clean\source\eterbase\utils.h

; 205  :             return -1; /* invalid input! */

  001df	83 c9 ff	 or	 ecx, -1
$LN174@chatGetLin:
; File d:\metin2\metin2\client_source_clean\client_source_clean\source\userinterface\pythonchatmodule.cpp

; 413  : 		if (CItemManager::Instance().GetItemDataPointer(htoi(results[1].c_str()), &pItemData))

  001e2	8d 44 24 30	 lea	 eax, DWORD PTR _pItemData$5[esp+1412]
  001e6	50		 push	 eax
  001e7	51		 push	 ecx
  001e8	8b 0d 00 00 00
	00		 mov	 ecx, DWORD PTR ?ms_singleton@?$CSingleton@VCItemManager@@@@0PAVCItemManager@@A ; CSingleton<CItemManager>::ms_singleton
  001ee	e8 00 00 00 00	 call	 ?GetItemDataPointer@CItemManager@@QAEHKPAPAVCItemData@@@Z ; CItemManager::GetItemDataPointer
  001f3	85 c0		 test	 eax, eax
  001f5	0f 84 06 04 00
	00		 je	 $LN7@chatGetLin

; 415  : 			char buf[1024] = { 0 };

  001fb	68 ff 03 00 00	 push	 1023			; 000003ffH
  00200	8d 84 24 71 01
	00 00		 lea	 eax, DWORD PTR _buf$10[esp+1417]
  00207	c6 84 24 70 01
	00 00 00	 mov	 BYTE PTR _buf$10[esp+1416], 0
  0020f	6a 00		 push	 0
  00211	50		 push	 eax
  00212	e8 00 00 00 00	 call	 _memset
; File c:\program files (x86)\microsoft visual studio 12.0\vc\include\vector

; 1209 : 		return (*(this->_Myfirst + _Pos));

  00217	8b 74 24 28	 mov	 esi, DWORD PTR _results$[esp+1424]
; File d:\metin2\metin2\client_source_clean\client_source_clean\source\userinterface\pythonchatmodule.cpp

; 415  : 			char buf[1024] = { 0 };

  0021b	83 c4 0c	 add	 esp, 12			; 0000000cH
; File c:\program files (x86)\microsoft visual studio 12.0\vc\include\vector

; 1209 : 		return (*(this->_Myfirst + _Pos));

  0021e	83 c6 78	 add	 esi, 120		; 00000078H
; File c:\program files (x86)\microsoft visual studio 12.0\vc\include\xstring

; 520  : 			: this->_Bx._Buf);

  00221	83 7e 14 10	 cmp	 DWORD PTR [esi+20], 16	; 00000010H
  00225	72 02		 jb	 SHORT $LN185@chatGetLin
; File c:\program files (x86)\microsoft visual studio 12.0\vc\include\xstddef

; 95   : 		reinterpret_cast<const volatile char&>(_Val)))));

  00227	8b 36		 mov	 esi, DWORD PTR [esi]
$LN185@chatGetLin:
; File d:\metin2\metin2\client_source_clean\client_source_clean\source\eterbase\utils.h

; 193  :     int x = 0, y = 1;

  00229	33 db		 xor	 ebx, ebx

; 194  :     s += strlen(s);

  0022b	8b d6		 mov	 edx, esi
  0022d	89 5c 24 14	 mov	 DWORD PTR $T2[esp+1412], ebx
  00231	8d 4b 01	 lea	 ecx, DWORD PTR [ebx+1]
  00234	8d 7a 01	 lea	 edi, DWORD PTR [edx+1]
$LL398@chatGetLin:
  00237	8a 02		 mov	 al, BYTE PTR [edx]
  00239	42		 inc	 edx
  0023a	84 c0		 test	 al, al
  0023c	75 f9		 jne	 SHORT $LL398@chatGetLin
  0023e	2b d7		 sub	 edx, edi

; 195  : 
; 196  :     while (t <= --s)

  00240	4a		 dec	 edx
  00241	03 d6		 add	 edx, esi
  00243	3b f2		 cmp	 esi, edx
  00245	77 4b		 ja	 SHORT $LN196@chatGetLin
$LL195@chatGetLin:

; 197  :     {
; 198  : 		if ('0' <= *s && *s <= '9')

  00247	8a 02		 mov	 al, BYTE PTR [edx]
  00249	3c 30		 cmp	 al, 48			; 00000030H
  0024b	7c 0c		 jl	 SHORT $LN193@chatGetLin
  0024d	3c 39		 cmp	 al, 57			; 00000039H
  0024f	7f 08		 jg	 SHORT $LN193@chatGetLin

; 199  :             x += y * (*s - '0');

  00251	0f be c0	 movsx	 eax, al
  00254	83 e8 30	 sub	 eax, 48			; 00000030H
  00257	eb 1e		 jmp	 SHORT $LN406@chatGetLin
$LN193@chatGetLin:

; 200  :         else if ('a' <= *s && *s <= 'f')

  00259	3c 61		 cmp	 al, 97			; 00000061H
  0025b	7c 0c		 jl	 SHORT $LN191@chatGetLin
  0025d	3c 66		 cmp	 al, 102			; 00000066H
  0025f	7f 08		 jg	 SHORT $LN191@chatGetLin

; 201  :             x += y * (*s - 'a' + 10);

  00261	0f be c0	 movsx	 eax, al
  00264	83 e8 57	 sub	 eax, 87			; 00000057H
  00267	eb 0e		 jmp	 SHORT $LN406@chatGetLin
$LN191@chatGetLin:

; 202  :         else if ('A' <= *s && *s <= 'F')

  00269	3c 41		 cmp	 al, 65			; 00000041H
  0026b	7c 1d		 jl	 SHORT $LN189@chatGetLin
  0026d	3c 46		 cmp	 al, 70			; 00000046H
  0026f	7f 19		 jg	 SHORT $LN189@chatGetLin

; 203  :             x += y * (10 + *s - 'A');

  00271	0f be c0	 movsx	 eax, al
  00274	83 e8 37	 sub	 eax, 55			; 00000037H
$LN406@chatGetLin:
  00277	0f af c1	 imul	 eax, ecx
  0027a	4a		 dec	 edx

; 206  :         y <<= 4;

  0027b	c1 e1 04	 shl	 ecx, 4
  0027e	03 d8		 add	 ebx, eax
  00280	89 5c 24 14	 mov	 DWORD PTR $T2[esp+1412], ebx
  00284	3b f2		 cmp	 esi, edx
  00286	76 bf		 jbe	 SHORT $LL195@chatGetLin
; File d:\metin2\metin2\client_source_clean\client_source_clean\source\userinterface\pythonchatmodule.cpp

; 429  : 				for (int i = 6; i < results.size(); i += 2)

  00288	eb 08		 jmp	 SHORT $LN196@chatGetLin
$LN189@chatGetLin:
; File d:\metin2\metin2\client_source_clean\client_source_clean\source\eterbase\utils.h

; 205  :             return -1; /* invalid input! */

  0028a	c7 44 24 14 ff
	ff ff ff	 mov	 DWORD PTR $T2[esp+1412], -1
$LN196@chatGetLin:
; File c:\program files (x86)\microsoft visual studio 12.0\vc\include\vector

; 1209 : 		return (*(this->_Myfirst + _Pos));

  00292	8b 44 24 1c	 mov	 eax, DWORD PTR _results$[esp+1412]
; File c:\program files (x86)\microsoft visual studio 12.0\vc\include\xstring

; 520  : 			: this->_Bx._Buf);

  00296	83 78 74 10	 cmp	 DWORD PTR [eax+116], 16	; 00000010H
; File c:\program files (x86)\microsoft visual studio 12.0\vc\include\vector

; 1209 : 		return (*(this->_Myfirst + _Pos));

  0029a	8d 70 60	 lea	 esi, DWORD PTR [eax+96]
; File c:\program files (x86)\microsoft visual studio 12.0\vc\include\xstring

; 520  : 			: this->_Bx._Buf);

  0029d	72 02		 jb	 SHORT $LN205@chatGetLin
; File c:\program files (x86)\microsoft visual studio 12.0\vc\include\xstddef

; 95   : 		reinterpret_cast<const volatile char&>(_Val)))));

  0029f	8b 36		 mov	 esi, DWORD PTR [esi]
$LN205@chatGetLin:
; File d:\metin2\metin2\client_source_clean\client_source_clean\source\eterbase\utils.h

; 193  :     int x = 0, y = 1;

  002a1	33 db		 xor	 ebx, ebx

; 194  :     s += strlen(s);

  002a3	8b d6		 mov	 edx, esi
  002a5	89 5c 24 18	 mov	 DWORD PTR $T3[esp+1412], ebx
  002a9	8d 4b 01	 lea	 ecx, DWORD PTR [ebx+1]
  002ac	8d 7a 01	 lea	 edi, DWORD PTR [edx+1]
  002af	90		 npad	 1
$LL399@chatGetLin:
  002b0	8a 02		 mov	 al, BYTE PTR [edx]
  002b2	42		 inc	 edx
  002b3	84 c0		 test	 al, al
  002b5	75 f9		 jne	 SHORT $LL399@chatGetLin
  002b7	2b d7		 sub	 edx, edi

; 195  : 
; 196  :     while (t <= --s)

  002b9	4a		 dec	 edx
  002ba	03 d6		 add	 edx, esi
  002bc	3b f2		 cmp	 esi, edx
  002be	77 4b		 ja	 SHORT $LN216@chatGetLin
$LL215@chatGetLin:

; 197  :     {
; 198  : 		if ('0' <= *s && *s <= '9')

  002c0	8a 02		 mov	 al, BYTE PTR [edx]
  002c2	3c 30		 cmp	 al, 48			; 00000030H
  002c4	7c 0c		 jl	 SHORT $LN213@chatGetLin
  002c6	3c 39		 cmp	 al, 57			; 00000039H
  002c8	7f 08		 jg	 SHORT $LN213@chatGetLin

; 199  :             x += y * (*s - '0');

  002ca	0f be c0	 movsx	 eax, al
  002cd	83 e8 30	 sub	 eax, 48			; 00000030H
  002d0	eb 1e		 jmp	 SHORT $LN407@chatGetLin
$LN213@chatGetLin:

; 200  :         else if ('a' <= *s && *s <= 'f')

  002d2	3c 61		 cmp	 al, 97			; 00000061H
  002d4	7c 0c		 jl	 SHORT $LN211@chatGetLin
  002d6	3c 66		 cmp	 al, 102			; 00000066H
  002d8	7f 08		 jg	 SHORT $LN211@chatGetLin

; 201  :             x += y * (*s - 'a' + 10);

  002da	0f be c0	 movsx	 eax, al
  002dd	83 e8 57	 sub	 eax, 87			; 00000057H
  002e0	eb 0e		 jmp	 SHORT $LN407@chatGetLin
$LN211@chatGetLin:

; 202  :         else if ('A' <= *s && *s <= 'F')

  002e2	3c 41		 cmp	 al, 65			; 00000041H
  002e4	7c 1d		 jl	 SHORT $LN209@chatGetLin
  002e6	3c 46		 cmp	 al, 70			; 00000046H
  002e8	7f 19		 jg	 SHORT $LN209@chatGetLin

; 203  :             x += y * (10 + *s - 'A');

  002ea	0f be c0	 movsx	 eax, al
  002ed	83 e8 37	 sub	 eax, 55			; 00000037H
$LN407@chatGetLin:
  002f0	0f af c1	 imul	 eax, ecx
  002f3	4a		 dec	 edx

; 206  :         y <<= 4;

  002f4	c1 e1 04	 shl	 ecx, 4
  002f7	03 d8		 add	 ebx, eax
  002f9	89 5c 24 18	 mov	 DWORD PTR $T3[esp+1412], ebx
  002fd	3b f2		 cmp	 esi, edx
  002ff	76 bf		 jbe	 SHORT $LL215@chatGetLin
; File d:\metin2\metin2\client_source_clean\client_source_clean\source\userinterface\pythonchatmodule.cpp

; 429  : 				for (int i = 6; i < results.size(); i += 2)

  00301	eb 08		 jmp	 SHORT $LN216@chatGetLin
$LN209@chatGetLin:
; File d:\metin2\metin2\client_source_clean\client_source_clean\source\eterbase\utils.h

; 205  :             return -1; /* invalid input! */

  00303	c7 44 24 18 ff
	ff ff ff	 mov	 DWORD PTR $T3[esp+1412], -1
$LN216@chatGetLin:
; File c:\program files (x86)\microsoft visual studio 12.0\vc\include\vector

; 1209 : 		return (*(this->_Myfirst + _Pos));

  0030b	8b 44 24 1c	 mov	 eax, DWORD PTR _results$[esp+1412]
; File c:\program files (x86)\microsoft visual studio 12.0\vc\include\xstring

; 520  : 			: this->_Bx._Buf);

  0030f	83 78 5c 10	 cmp	 DWORD PTR [eax+92], 16	; 00000010H
; File c:\program files (x86)\microsoft visual studio 12.0\vc\include\vector

; 1209 : 		return (*(this->_Myfirst + _Pos));

  00313	8d 70 48	 lea	 esi, DWORD PTR [eax+72]
; File c:\program files (x86)\microsoft visual studio 12.0\vc\include\xstring

; 520  : 			: this->_Bx._Buf);

  00316	72 02		 jb	 SHORT $LN225@chatGetLin
; File c:\program files (x86)\microsoft visual studio 12.0\vc\include\xstddef

; 95   : 		reinterpret_cast<const volatile char&>(_Val)))));

  00318	8b 36		 mov	 esi, DWORD PTR [esi]
$LN225@chatGetLin:
; File d:\metin2\metin2\client_source_clean\client_source_clean\source\eterbase\utils.h

; 193  :     int x = 0, y = 1;

  0031a	33 db		 xor	 ebx, ebx

; 194  :     s += strlen(s);

  0031c	8b d6		 mov	 edx, esi
  0031e	8d 4b 01	 lea	 ecx, DWORD PTR [ebx+1]
  00321	8d 7a 01	 lea	 edi, DWORD PTR [edx+1]
$LL400@chatGetLin:
  00324	8a 02		 mov	 al, BYTE PTR [edx]
  00326	42		 inc	 edx
  00327	84 c0		 test	 al, al
  00329	75 f9		 jne	 SHORT $LL400@chatGetLin
  0032b	2b d7		 sub	 edx, edi

; 195  : 
; 196  :     while (t <= --s)

  0032d	4a		 dec	 edx
  0032e	03 d6		 add	 edx, esi
  00330	3b f2		 cmp	 esi, edx
  00332	77 42		 ja	 SHORT $LN236@chatGetLin
$LL235@chatGetLin:

; 197  :     {
; 198  : 		if ('0' <= *s && *s <= '9')

  00334	8a 02		 mov	 al, BYTE PTR [edx]
  00336	3c 30		 cmp	 al, 48			; 00000030H
  00338	7c 0c		 jl	 SHORT $LN233@chatGetLin
  0033a	3c 39		 cmp	 al, 57			; 00000039H
  0033c	7f 08		 jg	 SHORT $LN233@chatGetLin

; 199  :             x += y * (*s - '0');

  0033e	0f be c0	 movsx	 eax, al
  00341	83 e8 30	 sub	 eax, 48			; 00000030H
  00344	eb 1e		 jmp	 SHORT $LN408@chatGetLin
$LN233@chatGetLin:

; 200  :         else if ('a' <= *s && *s <= 'f')

  00346	3c 61		 cmp	 al, 97			; 00000061H
  00348	7c 0c		 jl	 SHORT $LN231@chatGetLin
  0034a	3c 66		 cmp	 al, 102			; 00000066H
  0034c	7f 08		 jg	 SHORT $LN231@chatGetLin

; 201  :             x += y * (*s - 'a' + 10);

  0034e	0f be c0	 movsx	 eax, al
  00351	83 e8 57	 sub	 eax, 87			; 00000057H
  00354	eb 0e		 jmp	 SHORT $LN408@chatGetLin
$LN231@chatGetLin:

; 202  :         else if ('A' <= *s && *s <= 'F')

  00356	3c 41		 cmp	 al, 65			; 00000041H
  00358	7c 19		 jl	 SHORT $LN229@chatGetLin
  0035a	3c 46		 cmp	 al, 70			; 00000046H
  0035c	7f 15		 jg	 SHORT $LN229@chatGetLin

; 203  :             x += y * (10 + *s - 'A');

  0035e	0f be c0	 movsx	 eax, al
  00361	83 e8 37	 sub	 eax, 55			; 00000037H
$LN408@chatGetLin:
  00364	0f af c1	 imul	 eax, ecx
  00367	4a		 dec	 edx

; 206  :         y <<= 4;

  00368	c1 e1 04	 shl	 ecx, 4
  0036b	03 d8		 add	 ebx, eax
  0036d	3b f2		 cmp	 esi, edx
  0036f	76 c3		 jbe	 SHORT $LL235@chatGetLin
; File d:\metin2\metin2\client_source_clean\client_source_clean\source\userinterface\pythonchatmodule.cpp

; 429  : 				for (int i = 6; i < results.size(); i += 2)

  00371	eb 03		 jmp	 SHORT $LN236@chatGetLin
$LN229@chatGetLin:
; File d:\metin2\metin2\client_source_clean\client_source_clean\source\eterbase\utils.h

; 205  :             return -1; /* invalid input! */

  00373	83 cb ff	 or	 ebx, -1
$LN236@chatGetLin:
; File c:\program files (x86)\microsoft visual studio 12.0\vc\include\vector

; 1209 : 		return (*(this->_Myfirst + _Pos));

  00376	8b 7c 24 1c	 mov	 edi, DWORD PTR _results$[esp+1412]
  0037a	83 c7 30	 add	 edi, 48			; 00000030H
; File c:\program files (x86)\microsoft visual studio 12.0\vc\include\xstring

; 520  : 			: this->_Bx._Buf);

  0037d	83 7f 14 10	 cmp	 DWORD PTR [edi+20], 16	; 00000010H
  00381	72 02		 jb	 SHORT $LN245@chatGetLin
; File c:\program files (x86)\microsoft visual studio 12.0\vc\include\xstddef

; 95   : 		reinterpret_cast<const volatile char&>(_Val)))));

  00383	8b 3f		 mov	 edi, DWORD PTR [edi]
$LN245@chatGetLin:
; File d:\metin2\metin2\client_source_clean\client_source_clean\source\eterbase\utils.h

; 194  :     s += strlen(s);

  00385	8b d7		 mov	 edx, edi
  00387	33 f6		 xor	 esi, esi
  00389	8d 42 01	 lea	 eax, DWORD PTR [edx+1]
  0038c	8d 4e 01	 lea	 ecx, DWORD PTR [esi+1]
  0038f	89 44 24 28	 mov	 DWORD PTR tv1627[esp+1412], eax
$LL401@chatGetLin:
  00393	8a 02		 mov	 al, BYTE PTR [edx]
  00395	42		 inc	 edx
  00396	84 c0		 test	 al, al
  00398	75 f9		 jne	 SHORT $LL401@chatGetLin
  0039a	2b 54 24 28	 sub	 edx, DWORD PTR tv1627[esp+1412]

; 195  : 
; 196  :     while (t <= --s)

  0039e	4a		 dec	 edx
  0039f	03 d7		 add	 edx, edi
  003a1	3b fa		 cmp	 edi, edx
  003a3	77 42		 ja	 SHORT $LN256@chatGetLin
$LL255@chatGetLin:

; 197  :     {
; 198  : 		if ('0' <= *s && *s <= '9')

  003a5	8a 02		 mov	 al, BYTE PTR [edx]
  003a7	3c 30		 cmp	 al, 48			; 00000030H
  003a9	7c 0c		 jl	 SHORT $LN253@chatGetLin
  003ab	3c 39		 cmp	 al, 57			; 00000039H
  003ad	7f 08		 jg	 SHORT $LN253@chatGetLin

; 199  :             x += y * (*s - '0');

  003af	0f be c0	 movsx	 eax, al
  003b2	83 e8 30	 sub	 eax, 48			; 00000030H
  003b5	eb 1e		 jmp	 SHORT $LN409@chatGetLin
$LN253@chatGetLin:

; 200  :         else if ('a' <= *s && *s <= 'f')

  003b7	3c 61		 cmp	 al, 97			; 00000061H
  003b9	7c 0c		 jl	 SHORT $LN251@chatGetLin
  003bb	3c 66		 cmp	 al, 102			; 00000066H
  003bd	7f 08		 jg	 SHORT $LN251@chatGetLin

; 201  :             x += y * (*s - 'a' + 10);

  003bf	0f be c0	 movsx	 eax, al
  003c2	83 e8 57	 sub	 eax, 87			; 00000057H
  003c5	eb 0e		 jmp	 SHORT $LN409@chatGetLin
$LN251@chatGetLin:

; 202  :         else if ('A' <= *s && *s <= 'F')

  003c7	3c 41		 cmp	 al, 65			; 00000041H
  003c9	7c 19		 jl	 SHORT $LN249@chatGetLin
  003cb	3c 46		 cmp	 al, 70			; 00000046H
  003cd	7f 15		 jg	 SHORT $LN249@chatGetLin

; 203  :             x += y * (10 + *s - 'A');

  003cf	0f be c0	 movsx	 eax, al
  003d2	83 e8 37	 sub	 eax, 55			; 00000037H
$LN409@chatGetLin:
  003d5	0f af c1	 imul	 eax, ecx
  003d8	4a		 dec	 edx

; 206  :         y <<= 4;

  003d9	c1 e1 04	 shl	 ecx, 4
  003dc	03 f0		 add	 esi, eax
  003de	3b fa		 cmp	 edi, edx
  003e0	76 c3		 jbe	 SHORT $LL255@chatGetLin
; File d:\metin2\metin2\client_source_clean\client_source_clean\source\userinterface\pythonchatmodule.cpp

; 429  : 				for (int i = 6; i < results.size(); i += 2)

  003e2	eb 03		 jmp	 SHORT $LN256@chatGetLin
$LN249@chatGetLin:
; File d:\metin2\metin2\client_source_clean\client_source_clean\source\eterbase\utils.h

; 205  :             return -1; /* invalid input! */

  003e4	83 ce ff	 or	 esi, -1
$LN256@chatGetLin:
; File c:\program files (x86)\microsoft visual studio 12.0\vc\include\vector

; 1209 : 		return (*(this->_Myfirst + _Pos));

  003e7	8b 44 24 1c	 mov	 eax, DWORD PTR _results$[esp+1412]
  003eb	83 c0 18	 add	 eax, 24			; 00000018H
  003ee	89 44 24 2c	 mov	 DWORD PTR _t$1$[esp+1412], eax
; File c:\program files (x86)\microsoft visual studio 12.0\vc\include\xstring

; 520  : 			: this->_Bx._Buf);

  003f2	83 78 14 10	 cmp	 DWORD PTR [eax+20], 16	; 00000010H
  003f6	72 06		 jb	 SHORT $LN265@chatGetLin
; File c:\program files (x86)\microsoft visual studio 12.0\vc\include\xstddef

; 95   : 		reinterpret_cast<const volatile char&>(_Val)))));

  003f8	8b 00		 mov	 eax, DWORD PTR [eax]
  003fa	89 44 24 2c	 mov	 DWORD PTR _t$1$[esp+1412], eax
$LN265@chatGetLin:
; File d:\metin2\metin2\client_source_clean\client_source_clean\source\eterbase\utils.h

; 194  :     s += strlen(s);

  003fe	8b f8		 mov	 edi, eax
  00400	33 c9		 xor	 ecx, ecx
  00402	8d 47 01	 lea	 eax, DWORD PTR [edi+1]
  00405	8d 51 01	 lea	 edx, DWORD PTR [ecx+1]
  00408	89 44 24 28	 mov	 DWORD PTR tv1630[esp+1412], eax
  0040c	8d 64 24 00	 npad	 4
$LL402@chatGetLin:
  00410	8a 07		 mov	 al, BYTE PTR [edi]
  00412	47		 inc	 edi
  00413	84 c0		 test	 al, al
  00415	75 f9		 jne	 SHORT $LL402@chatGetLin
  00417	2b 7c 24 28	 sub	 edi, DWORD PTR tv1630[esp+1412]

; 195  : 
; 196  :     while (t <= --s)

  0041b	8b 44 24 2c	 mov	 eax, DWORD PTR _t$1$[esp+1412]
  0041f	4f		 dec	 edi
  00420	03 f8		 add	 edi, eax
  00422	3b c7		 cmp	 eax, edi
  00424	77 44		 ja	 SHORT $LN276@chatGetLin
$LL275@chatGetLin:

; 197  :     {
; 198  : 		if ('0' <= *s && *s <= '9')

  00426	8a 07		 mov	 al, BYTE PTR [edi]
  00428	3c 30		 cmp	 al, 48			; 00000030H
  0042a	7c 0c		 jl	 SHORT $LN273@chatGetLin
  0042c	3c 39		 cmp	 al, 57			; 00000039H
  0042e	7f 08		 jg	 SHORT $LN273@chatGetLin

; 199  :             x += y * (*s - '0');

  00430	0f be c0	 movsx	 eax, al
  00433	83 e8 30	 sub	 eax, 48			; 00000030H
  00436	eb 1e		 jmp	 SHORT $LN410@chatGetLin
$LN273@chatGetLin:

; 200  :         else if ('a' <= *s && *s <= 'f')

  00438	3c 61		 cmp	 al, 97			; 00000061H
  0043a	7c 0c		 jl	 SHORT $LN271@chatGetLin
  0043c	3c 66		 cmp	 al, 102			; 00000066H
  0043e	7f 08		 jg	 SHORT $LN271@chatGetLin

; 201  :             x += y * (*s - 'a' + 10);

  00440	0f be c0	 movsx	 eax, al
  00443	83 e8 57	 sub	 eax, 87			; 00000057H
  00446	eb 0e		 jmp	 SHORT $LN410@chatGetLin
$LN271@chatGetLin:

; 202  :         else if ('A' <= *s && *s <= 'F')

  00448	3c 41		 cmp	 al, 65			; 00000041H
  0044a	7c 1b		 jl	 SHORT $LN269@chatGetLin
  0044c	3c 46		 cmp	 al, 70			; 00000046H
  0044e	7f 17		 jg	 SHORT $LN269@chatGetLin

; 203  :             x += y * (10 + *s - 'A');

  00450	0f be c0	 movsx	 eax, al
  00453	83 e8 37	 sub	 eax, 55			; 00000037H
$LN410@chatGetLin:
  00456	0f af c2	 imul	 eax, edx
  00459	4f		 dec	 edi

; 206  :         y <<= 4;

  0045a	c1 e2 04	 shl	 edx, 4
  0045d	03 c8		 add	 ecx, eax
  0045f	39 7c 24 2c	 cmp	 DWORD PTR _t$1$[esp+1412], edi
  00463	76 c1		 jbe	 SHORT $LL275@chatGetLin
; File d:\metin2\metin2\client_source_clean\client_source_clean\source\userinterface\pythonchatmodule.cpp

; 429  : 				for (int i = 6; i < results.size(); i += 2)

  00465	eb 03		 jmp	 SHORT $LN276@chatGetLin
$LN269@chatGetLin:
; File d:\metin2\metin2\client_source_clean\client_source_clean\source\eterbase\utils.h

; 205  :             return -1; /* invalid input! */

  00467	83 c9 ff	 or	 ecx, -1
$LN276@chatGetLin:
; File d:\metin2\metin2\client_source_clean\client_source_clean\source\userinterface\pythonchatmodule.cpp

; 425  : 					htoi(results[5].c_str()));

  0046a	ff 74 24 14	 push	 DWORD PTR $T2[esp+1412]
  0046e	8d 44 24 70	 lea	 eax, DWORD PTR _itemlink$9[esp+1416]
  00472	ff 74 24 1c	 push	 DWORD PTR $T3[esp+1416]
  00476	53		 push	 ebx
  00477	56		 push	 esi
  00478	51		 push	 ecx
  00479	68 00 00 00 00	 push	 OFFSET ??_C@_0BE@FGPADLIF@item?3?$CFx?3?$CFx?3?$CFx?3?$CFx?3?$CFx?$AA@
  0047e	68 00 01 00 00	 push	 256			; 00000100H
  00483	50		 push	 eax
  00484	e8 00 00 00 00	 call	 __snprintf
; File c:\program files (x86)\microsoft visual studio 12.0\vc\include\vector

; 1148 : 		return (this->_Mylast - this->_Myfirst);

  00489	8b 4c 24 40	 mov	 ecx, DWORD PTR _results$[esp+1448]
; File d:\metin2\metin2\client_source_clean\client_source_clean\source\userinterface\pythonchatmodule.cpp

; 425  : 					htoi(results[5].c_str()));

  0048d	83 c4 20	 add	 esp, 32			; 00000020H
; File c:\program files (x86)\microsoft visual studio 12.0\vc\include\vector

; 1148 : 		return (this->_Mylast - this->_Myfirst);

  00490	8b 74 24 1c	 mov	 esi, DWORD PTR _results$[esp+1412]
  00494	2b ce		 sub	 ecx, esi
; File d:\metin2\metin2\client_source_clean\client_source_clean\source\userinterface\pythonchatmodule.cpp

; 425  : 					htoi(results[5].c_str()));

  00496	89 44 24 18	 mov	 DWORD PTR _len$1$[esp+1412], eax
; File c:\program files (x86)\microsoft visual studio 12.0\vc\include\vector

; 1148 : 		return (this->_Mylast - this->_Myfirst);

  0049a	b8 ab aa aa 2a	 mov	 eax, 715827883		; 2aaaaaabH
  0049f	f7 e9		 imul	 ecx
  004a1	c1 fa 02	 sar	 edx, 2
  004a4	8b c2		 mov	 eax, edx
  004a6	c1 e8 1f	 shr	 eax, 31			; 0000001fH
  004a9	03 c2		 add	 eax, edx
; File d:\metin2\metin2\client_source_clean\client_source_clean\source\userinterface\pythonchatmodule.cpp

; 427  : 			if (results.size() >= 8)

  004ab	83 f8 08	 cmp	 eax, 8
  004ae	0f 82 1a 01 00
	00		 jb	 $LN2@chatGetLin

; 429  : 				for (int i = 6; i < results.size(); i += 2)

  004b4	c7 44 24 14 06
	00 00 00	 mov	 DWORD PTR _i$1$[esp+1412], 6
  004bc	83 f8 06	 cmp	 eax, 6
  004bf	0f 86 09 01 00
	00		 jbe	 $LN2@chatGetLin
  004c5	bb 90 00 00 00	 mov	 ebx, 144		; 00000090H
  004ca	89 5c 24 28	 mov	 DWORD PTR tv1604[esp+1412], ebx
  004ce	8b ff		 npad	 2
$LL5@chatGetLin:
; File c:\program files (x86)\microsoft visual studio 12.0\vc\include\vector

; 1209 : 		return (*(this->_Myfirst + _Pos));

  004d0	8d 3c 33	 lea	 edi, DWORD PTR [ebx+esi]
; File c:\program files (x86)\microsoft visual studio 12.0\vc\include\xstring

; 520  : 			: this->_Bx._Buf);

  004d3	83 7f 2c 10	 cmp	 DWORD PTR [edi+44], 16	; 00000010H
; File c:\program files (x86)\microsoft visual studio 12.0\vc\include\vector

; 1209 : 		return (*(this->_Myfirst + _Pos));

  004d7	8d 47 18	 lea	 eax, DWORD PTR [edi+24]
  004da	89 44 24 2c	 mov	 DWORD PTR $T4[esp+1412], eax
; File c:\program files (x86)\microsoft visual studio 12.0\vc\include\xstring

; 520  : 			: this->_Bx._Buf);

  004de	72 06		 jb	 SHORT $LN289@chatGetLin
; File c:\program files (x86)\microsoft visual studio 12.0\vc\include\xstddef

; 95   : 		reinterpret_cast<const volatile char&>(_Val)))));

  004e0	8b 00		 mov	 eax, DWORD PTR [eax]
  004e2	89 44 24 2c	 mov	 DWORD PTR $T4[esp+1412], eax
$LN289@chatGetLin:
; File c:\program files (x86)\microsoft visual studio 12.0\vc\include\xstring

; 520  : 			: this->_Bx._Buf);

  004e6	83 7f 14 10	 cmp	 DWORD PTR [edi+20], 16	; 00000010H
  004ea	72 02		 jb	 SHORT $LN299@chatGetLin
; File c:\program files (x86)\microsoft visual studio 12.0\vc\include\xstddef

; 95   : 		reinterpret_cast<const volatile char&>(_Val)))));

  004ec	8b 3f		 mov	 edi, DWORD PTR [edi]
$LN299@chatGetLin:
; File d:\metin2\metin2\client_source_clean\client_source_clean\source\eterbase\utils.h

; 193  :     int x = 0, y = 1;

  004ee	33 f6		 xor	 esi, esi

; 194  :     s += strlen(s);

  004f0	8b d7		 mov	 edx, edi
  004f2	8d 4e 01	 lea	 ecx, DWORD PTR [esi+1]
  004f5	8d 5a 01	 lea	 ebx, DWORD PTR [edx+1]
$LL403@chatGetLin:
  004f8	8a 02		 mov	 al, BYTE PTR [edx]
  004fa	42		 inc	 edx
  004fb	84 c0		 test	 al, al
  004fd	75 f9		 jne	 SHORT $LL403@chatGetLin
  004ff	2b d3		 sub	 edx, ebx

; 195  : 
; 196  :     while (t <= --s)

  00501	4a		 dec	 edx
  00502	03 d7		 add	 edx, edi
  00504	3b fa		 cmp	 edi, edx
  00506	77 42		 ja	 SHORT $LN310@chatGetLin
$LL309@chatGetLin:

; 197  :     {
; 198  : 		if ('0' <= *s && *s <= '9')

  00508	8a 02		 mov	 al, BYTE PTR [edx]
  0050a	3c 30		 cmp	 al, 48			; 00000030H
  0050c	7c 0c		 jl	 SHORT $LN307@chatGetLin
  0050e	3c 39		 cmp	 al, 57			; 00000039H
  00510	7f 08		 jg	 SHORT $LN307@chatGetLin

; 199  :             x += y * (*s - '0');

  00512	0f be c0	 movsx	 eax, al
  00515	83 e8 30	 sub	 eax, 48			; 00000030H
  00518	eb 1e		 jmp	 SHORT $LN411@chatGetLin
$LN307@chatGetLin:

; 200  :         else if ('a' <= *s && *s <= 'f')

  0051a	3c 61		 cmp	 al, 97			; 00000061H
  0051c	7c 0c		 jl	 SHORT $LN305@chatGetLin
  0051e	3c 66		 cmp	 al, 102			; 00000066H
  00520	7f 08		 jg	 SHORT $LN305@chatGetLin

; 201  :             x += y * (*s - 'a' + 10);

  00522	0f be c0	 movsx	 eax, al
  00525	83 e8 57	 sub	 eax, 87			; 00000057H
  00528	eb 0e		 jmp	 SHORT $LN411@chatGetLin
$LN305@chatGetLin:

; 202  :         else if ('A' <= *s && *s <= 'F')

  0052a	3c 41		 cmp	 al, 65			; 00000041H
  0052c	7c 19		 jl	 SHORT $LN303@chatGetLin
  0052e	3c 46		 cmp	 al, 70			; 00000046H
  00530	7f 15		 jg	 SHORT $LN303@chatGetLin

; 203  :             x += y * (10 + *s - 'A');

  00532	0f be c0	 movsx	 eax, al
  00535	83 e8 37	 sub	 eax, 55			; 00000037H
$LN411@chatGetLin:
  00538	0f af c1	 imul	 eax, ecx
  0053b	4a		 dec	 edx

; 206  :         y <<= 4;

  0053c	c1 e1 04	 shl	 ecx, 4
  0053f	03 f0		 add	 esi, eax
  00541	3b fa		 cmp	 edi, edx
  00543	76 c3		 jbe	 SHORT $LL309@chatGetLin
; File d:\metin2\metin2\client_source_clean\client_source_clean\source\userinterface\pythonchatmodule.cpp

; 429  : 				for (int i = 6; i < results.size(); i += 2)

  00545	eb 03		 jmp	 SHORT $LN310@chatGetLin
$LN303@chatGetLin:
; File d:\metin2\metin2\client_source_clean\client_source_clean\source\eterbase\utils.h

; 205  :             return -1; /* invalid input! */

  00547	83 ce ff	 or	 esi, -1
$LN310@chatGetLin:
; File d:\metin2\metin2\client_source_clean\client_source_clean\source\userinterface\pythonchatmodule.cpp

; 433  : 							atoi(results[i+1].c_str()));

  0054a	ff 74 24 2c	 push	 DWORD PTR $T4[esp+1412]
  0054e	e8 00 00 00 00	 call	 __atoi64
  00553	8b 5c 24 1c	 mov	 ebx, DWORD PTR _len$1$[esp+1416]
  00557	52		 push	 edx
  00558	50		 push	 eax
  00559	56		 push	 esi
  0055a	b8 00 01 00 00	 mov	 eax, 256		; 00000100H
  0055f	2b c3		 sub	 eax, ebx
  00561	68 00 00 00 00	 push	 OFFSET ??_C@_06FAMCNHHL@?3?$CFx?3?$CFd?$AA@
  00566	50		 push	 eax
  00567	8d 84 24 84 00
	00 00		 lea	 eax, DWORD PTR _itemlink$9[esp+1436]
  0056e	03 c3		 add	 eax, ebx
  00570	50		 push	 eax
  00571	e8 00 00 00 00	 call	 __snprintf
; File c:\program files (x86)\microsoft visual studio 12.0\vc\include\vector

; 1148 : 		return (this->_Mylast - this->_Myfirst);

  00576	8b 4c 24 3c	 mov	 ecx, DWORD PTR _results$[esp+1444]
; File d:\metin2\metin2\client_source_clean\client_source_clean\source\userinterface\pythonchatmodule.cpp

; 433  : 							atoi(results[i+1].c_str()));

  0057a	03 d8		 add	 ebx, eax
; File c:\program files (x86)\microsoft visual studio 12.0\vc\include\vector

; 1148 : 		return (this->_Mylast - this->_Myfirst);

  0057c	8b 74 24 38	 mov	 esi, DWORD PTR _results$[esp+1440]
  00580	b8 ab aa aa 2a	 mov	 eax, 715827883		; 2aaaaaabH
; File d:\metin2\metin2\client_source_clean\client_source_clean\source\userinterface\pythonchatmodule.cpp

; 429  : 				for (int i = 6; i < results.size(); i += 2)

  00585	8b 7c 24 30	 mov	 edi, DWORD PTR _i$1$[esp+1440]
; File c:\program files (x86)\microsoft visual studio 12.0\vc\include\vector

; 1148 : 		return (this->_Mylast - this->_Myfirst);

  00589	2b ce		 sub	 ecx, esi
  0058b	f7 e9		 imul	 ecx
; File d:\metin2\metin2\client_source_clean\client_source_clean\source\userinterface\pythonchatmodule.cpp

; 433  : 							atoi(results[i+1].c_str()));

  0058d	89 5c 24 34	 mov	 DWORD PTR _len$1$[esp+1440], ebx
  00591	83 c7 02	 add	 edi, 2
  00594	8b 5c 24 44	 mov	 ebx, DWORD PTR tv1604[esp+1440]
  00598	83 c4 1c	 add	 esp, 28			; 0000001cH
; File c:\program files (x86)\microsoft visual studio 12.0\vc\include\vector

; 1148 : 		return (this->_Mylast - this->_Myfirst);

  0059b	c1 fa 02	 sar	 edx, 2
; File d:\metin2\metin2\client_source_clean\client_source_clean\source\userinterface\pythonchatmodule.cpp

; 429  : 				for (int i = 6; i < results.size(); i += 2)

  0059e	83 c3 30	 add	 ebx, 48			; 00000030H
; File c:\program files (x86)\microsoft visual studio 12.0\vc\include\vector

; 1148 : 		return (this->_Mylast - this->_Myfirst);

  005a1	8b c2		 mov	 eax, edx
; File d:\metin2\metin2\client_source_clean\client_source_clean\source\userinterface\pythonchatmodule.cpp

; 429  : 				for (int i = 6; i < results.size(); i += 2)

  005a3	89 7c 24 14	 mov	 DWORD PTR _i$1$[esp+1412], edi
; File c:\program files (x86)\microsoft visual studio 12.0\vc\include\vector

; 1148 : 		return (this->_Mylast - this->_Myfirst);

  005a7	c1 e8 1f	 shr	 eax, 31			; 0000001fH
  005aa	03 c2		 add	 eax, edx
; File d:\metin2\metin2\client_source_clean\client_source_clean\source\userinterface\pythonchatmodule.cpp

; 429  : 				for (int i = 6; i < results.size(); i += 2)

  005ac	89 5c 24 28	 mov	 DWORD PTR tv1604[esp+1412], ebx
  005b0	3b f8		 cmp	 edi, eax
  005b2	0f 82 18 ff ff
	ff		 jb	 $LL5@chatGetLin

; 434  : 					isAttr = true;
; 435  : 				}
; 436  : 			}
; 437  : 
; 438  : 			if (isAttr)
; 439  : 				//"item:::0:1:2"
; 440  : 				snprintf(buf, sizeof(buf), "|cffffc700|H%s|h[%s]|h|r", itemlink, pItemData->GetName());

  005b8	8b 4c 24 30	 mov	 ecx, DWORD PTR _pItemData$5[esp+1412]
  005bc	e8 00 00 00 00	 call	 ?GetName@CItemData@@QBEPBDXZ ; CItemData::GetName
  005c1	50		 push	 eax
  005c2	8d 44 24 70	 lea	 eax, DWORD PTR _itemlink$9[esp+1416]
  005c6	50		 push	 eax
  005c7	68 00 00 00 00	 push	 OFFSET ??_C@_0BJ@DABMGIOF@?$HMcffffc700?$HMH?$CFs?$HMh?$FL?$CFs?$FN?$HMh?$HMr?$AA@

; 441  : 			else

  005cc	eb 14		 jmp	 SHORT $LN412@chatGetLin
$LN2@chatGetLin:

; 442  : 				snprintf(buf, sizeof(buf), "|cfff1e6c0|H%s|h[%s]|h|r", itemlink, pItemData->GetName());

  005ce	8b 4c 24 30	 mov	 ecx, DWORD PTR _pItemData$5[esp+1412]
  005d2	e8 00 00 00 00	 call	 ?GetName@CItemData@@QBEPBDXZ ; CItemData::GetName
  005d7	50		 push	 eax
  005d8	8d 44 24 70	 lea	 eax, DWORD PTR _itemlink$9[esp+1416]
  005dc	50		 push	 eax
  005dd	68 00 00 00 00	 push	 OFFSET ??_C@_0BJ@GPGFNPLK@?$HMcfff1e6c0?$HMH?$CFs?$HMh?$FL?$CFs?$FN?$HMh?$HMr?$AA@
$LN412@chatGetLin:
  005e2	8d 84 24 78 01
	00 00		 lea	 eax, DWORD PTR _buf$10[esp+1424]
  005e9	68 00 04 00 00	 push	 1024			; 00000400H
  005ee	50		 push	 eax
  005ef	e8 00 00 00 00	 call	 __snprintf
  005f4	83 c4 14	 add	 esp, 20			; 00000014H

; 443  : 
; 444  : 			return Py_BuildValue("s", buf);

  005f7	8d 84 24 6c 01
	00 00		 lea	 eax, DWORD PTR _buf$10[esp+1412]
  005fe	50		 push	 eax
  005ff	eb 05		 jmp	 SHORT $LN413@chatGetLin
$LN7@chatGetLin:

; 448  : 	return Py_BuildValue("s", "");

  00601	68 00 00 00 00	 push	 OFFSET ??_C@_00CNPNBAHC@?$AA@
$LN413@chatGetLin:
  00606	68 00 00 00 00	 push	 OFFSET ??_C@_01LKDEMHDF@s?$AA@
  0060b	ff 15 00 00 00
	00		 call	 DWORD PTR __imp__Py_BuildValue
  00611	8b f0		 mov	 esi, eax
  00613	83 c4 08	 add	 esp, 8
; File c:\program files (x86)\microsoft visual studio 12.0\vc\include\vector

; 1623 : 		if (this->_Myfirst != pointer())

  00616	8b 44 24 1c	 mov	 eax, DWORD PTR _results$[esp+1412]
  0061a	85 c0		 test	 eax, eax
  0061c	74 37		 je	 SHORT $LN314@chatGetLin
; File c:\program files (x86)\microsoft visual studio 12.0\vc\include\xmemory0

; 96   : 	_Destroy_range(_First, _Last, _Al, _Ptr_cat(_First, _Last));

  0061e	ff 74 24 38	 push	 DWORD PTR __Cat$7[esp+1412]
  00622	8d 4c 24 3b	 lea	 ecx, DWORD PTR __Alval$6[esp+1416]
  00626	51		 push	 ecx
  00627	ff 74 24 28	 push	 DWORD PTR _results$[esp+1424]
  0062b	50		 push	 eax
  0062c	e8 00 00 00 00	 call	 ??$_Destroy_range@U?$_Wrap_alloc@V?$allocator@V?$basic_string@DU?$char_traits@D@std@@V?$allocator@D@2@@std@@@std@@@std@@@std@@YAXPAV?$basic_string@DU?$char_traits@D@std@@V?$allocator@D@2@@0@0AAU?$_Wrap_alloc@V?$allocator@V?$basic_string@DU?$char_traits@D@std@@V?$allocator@D@2@@std@@@std@@@0@U_Nonscalar_ptr_iterator_tag@0@@Z ; std::_Destroy_range<std::_Wrap_alloc<std::allocator<std::basic_string<char,std::char_traits<char>,std::allocator<char> > > > >

; 573  : 		::operator delete(_Ptr);

  00631	ff 74 24 2c	 push	 DWORD PTR _results$[esp+1428]
  00635	e8 00 00 00 00	 call	 ??3@YAXPAX@Z		; operator delete
  0063a	83 c4 14	 add	 esp, 20			; 00000014H
; File c:\program files (x86)\microsoft visual studio 12.0\vc\include\vector

; 1629 : 			this->_Myfirst = pointer();

  0063d	c7 44 24 1c 00
	00 00 00	 mov	 DWORD PTR _results$[esp+1412], 0

; 1630 : 			this->_Mylast = pointer();

  00645	c7 44 24 20 00
	00 00 00	 mov	 DWORD PTR _results$[esp+1416], 0

; 1631 : 			this->_Myend = pointer();

  0064d	c7 44 24 24 00
	00 00 00	 mov	 DWORD PTR _results$[esp+1420], 0
$LN314@chatGetLin:
; File c:\program files (x86)\microsoft visual studio 12.0\vc\include\xstring

; 2275 : 		else if (this->_BUF_SIZE <= this->_Myres)

  00655	83 7c 24 68 10	 cmp	 DWORD PTR _stHyperlink$[esp+1432], 16 ; 00000010H
  0065a	72 0c		 jb	 SHORT $LN351@chatGetLin
; File c:\program files (x86)\microsoft visual studio 12.0\vc\include\xmemory0

; 573  : 		::operator delete(_Ptr);

  0065c	ff 74 24 54	 push	 DWORD PTR _stHyperlink$[esp+1412]
  00660	e8 00 00 00 00	 call	 ??3@YAXPAX@Z		; operator delete
  00665	83 c4 04	 add	 esp, 4
$LN351@chatGetLin:
; File d:\metin2\metin2\client_source_clean\client_source_clean\source\userinterface\pythonchatmodule.cpp

; 448  : 	return Py_BuildValue("s", "");

  00668	8b c6		 mov	 eax, esi
$LN11@chatGetLin:

; 449  : }

  0066a	8b 8c 24 78 05
	00 00		 mov	 ecx, DWORD PTR __$EHRec$[esp+1412]
  00671	64 89 0d 00 00
	00 00		 mov	 DWORD PTR fs:0, ecx
  00678	59		 pop	 ecx
  00679	5f		 pop	 edi
  0067a	5e		 pop	 esi
  0067b	5b		 pop	 ebx
  0067c	8b 8c 24 60 05
	00 00		 mov	 ecx, DWORD PTR __$ArrayPad$[esp+1396]
  00683	33 cc		 xor	 ecx, esp
  00685	e8 00 00 00 00	 call	 @__security_check_cookie@4
  0068a	8b e5		 mov	 esp, ebp
  0068c	5d		 pop	 ebp
  0068d	c3		 ret	 0
_TEXT	ENDS
;	COMDAT text$x
text$x	SEGMENT
__unwindfunclet$?chatGetLinkFromHyperlink@@YAPAU_object@@PAU1@0@Z$0:
  00000	8d 8d d0 fa ff
	ff		 lea	 ecx, DWORD PTR _stHyperlink$[ebp]
  00006	e9 00 00 00 00	 jmp	 ??1?$basic_string@DU?$char_traits@D@std@@V?$allocator@D@2@@std@@QAE@XZ ; std::basic_string<char,std::char_traits<char>,std::allocator<char> >::~basic_string<char,std::char_traits<char>,std::allocator<char> >
__unwindfunclet$?chatGetLinkFromHyperlink@@YAPAU_object@@PAU1@0@Z$1:
  0000b	8d 8d 98 fa ff
	ff		 lea	 ecx, DWORD PTR _results$[ebp]
  00011	e9 00 00 00 00	 jmp	 ??1?$vector@V?$basic_string@DU?$char_traits@D@std@@V?$allocator@D@2@@std@@V?$allocator@V?$basic_string@DU?$char_traits@D@std@@V?$allocator@D@2@@std@@@2@@std@@QAE@XZ ; std::vector<std::basic_string<char,std::char_traits<char>,std::allocator<char> >,std::allocator<std::basic_string<char,std::char_traits<char>,std::allocator<char> > > >::~vector<std::basic_string<char,std::char_traits<char>,std::allocator<char> >,std::allocator<std::basic_string<char,std::char_traits<char>,std::allocator<char> > > >
__unwindfunclet$?chatGetLinkFromHyperlink@@YAPAU_object@@PAU1@0@Z$2:
  00016	8d 8d b8 fa ff
	ff		 lea	 ecx, DWORD PTR $T8[ebp]
  0001c	e9 00 00 00 00	 jmp	 ??1?$basic_string@DU?$char_traits@D@std@@V?$allocator@D@2@@std@@QAE@XZ ; std::basic_string<char,std::char_traits<char>,std::allocator<char> >::~basic_string<char,std::char_traits<char>,std::allocator<char> >
__ehhandler$?chatGetLinkFromHyperlink@@YAPAU_object@@PAU1@0@Z:
  00021	8b 54 24 08	 mov	 edx, DWORD PTR [esp+8]
  00025	8d 82 8c fa ff
	ff		 lea	 eax, DWORD PTR [edx-1396]
  0002b	8b 8a 88 fa ff
	ff		 mov	 ecx, DWORD PTR [edx-1400]
  00031	33 c8		 xor	 ecx, eax
  00033	e8 00 00 00 00	 call	 @__security_check_cookie@4
  00038	83 c0 0c	 add	 eax, 12			; 0000000cH
  0003b	8b 4a f8	 mov	 ecx, DWORD PTR [edx-8]
  0003e	33 c8		 xor	 ecx, eax
  00040	e8 00 00 00 00	 call	 @__security_check_cookie@4
  00045	b8 00 00 00 00	 mov	 eax, OFFSET __ehfuncinfo$?chatGetLinkFromHyperlink@@YAPAU_object@@PAU1@0@Z
  0004a	e9 00 00 00 00	 jmp	 ___CxxFrameHandler3
text$x	ENDS
?chatGetLinkFromHyperlink@@YAPAU_object@@PAU1@0@Z ENDP	; chatGetLinkFromHyperlink
; Function compile flags: /Ogtp
; File d:\metin2\metin2\client_source_clean\client_source_clean\source\userinterface\pythonchatmodule.cpp
;	COMDAT ?initChat@@YAXXZ
_TEXT	SEGMENT
?initChat@@YAXXZ PROC					; initChat, COMDAT

; 452  : {

  00000	56		 push	 esi
  00001	57		 push	 edi

; 453  : 	static PyMethodDef s_methods[] = 
; 454  : 	{
; 455  : 		{ "SetChatColor",			chatSetChatColor,			METH_VARARGS },
; 456  : 		{ "Clear",					chatClear,					METH_VARARGS },
; 457  : 		{ "Close",					chatClose,					METH_VARARGS },
; 458  : 
; 459  : 		{ "CreateChatSet",			chatCreateChatSet,			METH_VARARGS },
; 460  : 		{ "Update",					chatUpdate,					METH_VARARGS },
; 461  : 		{ "Render",					chatRender,					METH_VARARGS },
; 462  : 
; 463  : 		{ "SetBoardState",			chatSetBoardState,			METH_VARARGS },
; 464  : 		{ "SetPosition",			chatSetPosition,			METH_VARARGS },
; 465  : 		{ "SetHeight",				chatSetHeight,				METH_VARARGS },
; 466  : 		{ "SetStep",				chatSetStep,				METH_VARARGS },
; 467  : 		{ "ToggleChatMode",			chatToggleChatMode,			METH_VARARGS },
; 468  : 		{ "EnableChatMode",			chatEnableChatMode,			METH_VARARGS },
; 469  : 		{ "DisableChatMode",		chatDisableChatMode,		METH_VARARGS },
; 470  : 		{ "SetEndPos",				chatSetEndPos,				METH_VARARGS },
; 471  : 
; 472  : 		{ "GetLineCount",			chatGetLineCount,			METH_VARARGS },
; 473  : 		{ "GetVisibleLineCount",	chatGetVisibleLineCount,	METH_VARARGS },
; 474  : 		{ "GetLineStep",			chatGetLineStep,			METH_VARARGS },
; 475  : 
; 476  : 		// Chat
; 477  : 		{ "AppendChat",				chatAppendChat,				METH_VARARGS },
; 478  : 		{ "AppendChatWithDelay",	chatAppendChatWithDelay,	METH_VARARGS },
; 479  : 		{ "ArrangeShowingChat",		chatArrangeShowingChat,		METH_VARARGS },
; 480  : 
; 481  : 		// Ignore
; 482  : 		{ "IgnoreCharacter",		chatIgnoreCharacter,		METH_VARARGS },
; 483  : 		{ "IsIgnoreCharacter",		chatIsIgnoreCharacter,		METH_VARARGS },
; 484  : 
; 485  : 		// Whisper
; 486  : 		{ "CreateWhisper",			chatCreateWhisper,			METH_VARARGS },
; 487  : 		{ "AppendWhisper",			chatAppendWhisper,			METH_VARARGS },
; 488  : 		{ "RenderWhisper",			chatRenderWhisper,			METH_VARARGS },
; 489  : 		{ "SetWhisperBoxSize",		chatSetWhisperBoxSize,		METH_VARARGS },
; 490  : 		{ "SetWhisperPosition",		chatSetWhisperPosition,		METH_VARARGS },
; 491  : 		{ "ClearWhisper",			chatClearWhisper,			METH_VARARGS },
; 492  : 		{ "InitWhisper",			chatInitWhisper,			METH_VARARGS },
; 493  : 
; 494  : 		// Link
; 495  : 		{ "GetLinkFromHyperlink",	chatGetLinkFromHyperlink,	METH_VARARGS },
; 496  : 
; 497  : 		{ NULL,						NULL,						NULL },
; 498  : 	};
; 499  : 
; 500  : 	PyObject * poModule = Py_InitModule("chat", s_methods);

  00002	68 f5 03 00 00	 push	 1013			; 000003f5H
  00007	6a 00		 push	 0
  00009	6a 00		 push	 0
  0000b	68 00 00 00 00	 push	 OFFSET ?s_methods@?1??initChat@@YAXXZ@4PAUPyMethodDef@@A
  00010	68 00 00 00 00	 push	 OFFSET ??_C@_04BLJLMHHG@chat?$AA@
  00015	ff 15 00 00 00
	00		 call	 DWORD PTR __imp__Py_InitModule4

; 501  : 
; 502  : 	PyModule_AddIntConstant(poModule, "CHAT_TYPE_TALKING",		CHAT_TYPE_TALKING);

  0001b	8b 35 00 00 00
	00		 mov	 esi, DWORD PTR __imp__PyModule_AddIntConstant
  00021	8b f8		 mov	 edi, eax
  00023	6a 00		 push	 0
  00025	68 00 00 00 00	 push	 OFFSET ??_C@_0BC@EHLMCJH@CHAT_TYPE_TALKING?$AA@
  0002a	57		 push	 edi
  0002b	ff d6		 call	 esi

; 503  : 	PyModule_AddIntConstant(poModule, "CHAT_TYPE_INFO",			CHAT_TYPE_INFO);

  0002d	6a 01		 push	 1
  0002f	68 00 00 00 00	 push	 OFFSET ??_C@_0P@MIHHHBMP@CHAT_TYPE_INFO?$AA@
  00034	57		 push	 edi
  00035	ff d6		 call	 esi

; 504  : 	PyModule_AddIntConstant(poModule, "CHAT_TYPE_NOTICE",		CHAT_TYPE_NOTICE);

  00037	6a 02		 push	 2
  00039	68 00 00 00 00	 push	 OFFSET ??_C@_0BB@KFACLMJA@CHAT_TYPE_NOTICE?$AA@
  0003e	57		 push	 edi
  0003f	ff d6		 call	 esi

; 505  : 	PyModule_AddIntConstant(poModule, "CHAT_TYPE_PARTY",		CHAT_TYPE_PARTY);

  00041	6a 03		 push	 3
  00043	68 00 00 00 00	 push	 OFFSET ??_C@_0BA@JOLAGJG@CHAT_TYPE_PARTY?$AA@
  00048	57		 push	 edi
  00049	ff d6		 call	 esi
  0004b	83 c4 44	 add	 esp, 68			; 00000044H

; 506  : 	PyModule_AddIntConstant(poModule, "CHAT_TYPE_GUILD",		CHAT_TYPE_GUILD);

  0004e	6a 04		 push	 4
  00050	68 00 00 00 00	 push	 OFFSET ??_C@_0BA@OIBJELLN@CHAT_TYPE_GUILD?$AA@
  00055	57		 push	 edi
  00056	ff d6		 call	 esi

; 507  : 	PyModule_AddIntConstant(poModule, "CHAT_TYPE_COMMAND",		CHAT_TYPE_COMMAND);

  00058	6a 05		 push	 5
  0005a	68 00 00 00 00	 push	 OFFSET ??_C@_0BC@IILPNMNB@CHAT_TYPE_COMMAND?$AA@
  0005f	57		 push	 edi
  00060	ff d6		 call	 esi

; 508  : 	PyModule_AddIntConstant(poModule, "CHAT_TYPE_SHOUT",		CHAT_TYPE_SHOUT);

  00062	6a 06		 push	 6
  00064	68 00 00 00 00	 push	 OFFSET ??_C@_0BA@JEHAINHB@CHAT_TYPE_SHOUT?$AA@
  00069	57		 push	 edi
  0006a	ff d6		 call	 esi

; 509  : 	PyModule_AddIntConstant(poModule, "CHAT_TYPE_WHISPER",		CHAT_TYPE_WHISPER);

  0006c	6a 07		 push	 7
  0006e	68 00 00 00 00	 push	 OFFSET ??_C@_0BC@JMANMLH@CHAT_TYPE_WHISPER?$AA@
  00073	57		 push	 edi
  00074	ff d6		 call	 esi

; 510  : 	PyModule_AddIntConstant(poModule, "WHISPER_TYPE_CHAT",		CPythonChat::WHISPER_TYPE_CHAT);

  00076	6a 00		 push	 0
  00078	68 00 00 00 00	 push	 OFFSET ??_C@_0BC@LIEDKBDG@WHISPER_TYPE_CHAT?$AA@
  0007d	57		 push	 edi
  0007e	ff d6		 call	 esi

; 511  : 	PyModule_AddIntConstant(poModule, "WHISPER_TYPE_SYSTEM",	CPythonChat::WHISPER_TYPE_SYSTEM);

  00080	68 ff 00 00 00	 push	 255			; 000000ffH
  00085	68 00 00 00 00	 push	 OFFSET ??_C@_0BE@KODPENDJ@WHISPER_TYPE_SYSTEM?$AA@
  0008a	57		 push	 edi
  0008b	ff d6		 call	 esi
  0008d	83 c4 48	 add	 esp, 72			; 00000048H

; 512  : 	PyModule_AddIntConstant(poModule, "WHISPER_TYPE_GM",		CPythonChat::WHISPER_TYPE_GM);

  00090	6a 05		 push	 5
  00092	68 00 00 00 00	 push	 OFFSET ??_C@_0BA@KLIHGMFD@WHISPER_TYPE_GM?$AA@
  00097	57		 push	 edi
  00098	ff d6		 call	 esi

; 513  : 
; 514  : 	PyModule_AddIntConstant(poModule, "BOARD_STATE_VIEW",		CPythonChat::BOARD_STATE_VIEW);

  0009a	6a 00		 push	 0
  0009c	68 00 00 00 00	 push	 OFFSET ??_C@_0BB@OJGJMFKD@BOARD_STATE_VIEW?$AA@
  000a1	57		 push	 edi
  000a2	ff d6		 call	 esi

; 515  : 	PyModule_AddIntConstant(poModule, "BOARD_STATE_EDIT",		CPythonChat::BOARD_STATE_EDIT);

  000a4	6a 01		 push	 1
  000a6	68 00 00 00 00	 push	 OFFSET ??_C@_0BB@BOHEFKIL@BOARD_STATE_EDIT?$AA@
  000ab	57		 push	 edi
  000ac	ff d6		 call	 esi

; 516  : 	PyModule_AddIntConstant(poModule, "BOARD_STATE_LOG",		CPythonChat::BOARD_STATE_LOG);

  000ae	6a 02		 push	 2
  000b0	68 00 00 00 00	 push	 OFFSET ??_C@_0BA@PGHAPLJK@BOARD_STATE_LOG?$AA@
  000b5	57		 push	 edi
  000b6	ff d6		 call	 esi

; 517  : 
; 518  : 	PyModule_AddIntConstant(poModule, "CHAT_SET_CHAT_WINDOW",	0);

  000b8	6a 00		 push	 0
  000ba	68 00 00 00 00	 push	 OFFSET ??_C@_0BF@FCHEGAKH@CHAT_SET_CHAT_WINDOW?$AA@
  000bf	57		 push	 edi
  000c0	ff d6		 call	 esi

; 519  : 	PyModule_AddIntConstant(poModule, "CHAT_SET_LOG_WINDOW",	1);

  000c2	6a 01		 push	 1
  000c4	68 00 00 00 00	 push	 OFFSET ??_C@_0BE@OPDJLJMH@CHAT_SET_LOG_WINDOW?$AA@
  000c9	57		 push	 edi
  000ca	ff d6		 call	 esi
  000cc	83 c4 48	 add	 esp, 72			; 00000048H
  000cf	5f		 pop	 edi
  000d0	5e		 pop	 esi

; 520  : }

  000d1	c3		 ret	 0
?initChat@@YAXXZ ENDP					; initChat
_TEXT	ENDS
; Function compile flags: /Ogtp
; File c:\program files (x86)\microsoft visual studio 12.0\vc\include\vector
;	COMDAT ??A?$vector@V?$basic_string@DU?$char_traits@D@std@@V?$allocator@D@2@@std@@V?$allocator@V?$basic_string@DU?$char_traits@D@std@@V?$allocator@D@2@@std@@@2@@std@@QAEAAV?$basic_string@DU?$char_traits@D@std@@V?$allocator@D@2@@1@I@Z
_TEXT	SEGMENT
__Pos$ = 8						; size = 4
??A?$vector@V?$basic_string@DU?$char_traits@D@std@@V?$allocator@D@2@@std@@V?$allocator@V?$basic_string@DU?$char_traits@D@std@@V?$allocator@D@2@@std@@@2@@std@@QAEAAV?$basic_string@DU?$char_traits@D@std@@V?$allocator@D@2@@1@I@Z PROC ; std::vector<std::basic_string<char,std::char_traits<char>,std::allocator<char> >,std::allocator<std::basic_string<char,std::char_traits<char>,std::allocator<char> > > >::operator[], COMDAT
; _this$ = ecx

; 1197 : 		{	// subscript mutable sequence

  00000	55		 push	 ebp
  00001	8b ec		 mov	 ebp, esp

; 1198 :  #if _ITERATOR_DEBUG_LEVEL == 2
; 1199 : 		if (size() <= _Pos)
; 1200 : 			{	// report error
; 1201 : 			_DEBUG_ERROR("vector subscript out of range");
; 1202 : 			_SCL_SECURE_OUT_OF_RANGE;
; 1203 : 			}
; 1204 : 
; 1205 :  #elif _ITERATOR_DEBUG_LEVEL == 1
; 1206 : 		_SCL_SECURE_VALIDATE_RANGE(_Pos < size());
; 1207 :  #endif /* _ITERATOR_DEBUG_LEVEL */
; 1208 : 
; 1209 : 		return (*(this->_Myfirst + _Pos));

  00003	8b 45 08	 mov	 eax, DWORD PTR __Pos$[ebp]
  00006	8d 14 40	 lea	 edx, DWORD PTR [eax+eax*2]
  00009	8b 01		 mov	 eax, DWORD PTR [ecx]
  0000b	8d 04 d0	 lea	 eax, DWORD PTR [eax+edx*8]

; 1210 : 		}

  0000e	5d		 pop	 ebp
  0000f	c2 04 00	 ret	 4
??A?$vector@V?$basic_string@DU?$char_traits@D@std@@V?$allocator@D@2@@std@@V?$allocator@V?$basic_string@DU?$char_traits@D@std@@V?$allocator@D@2@@std@@@2@@std@@QAEAAV?$basic_string@DU?$char_traits@D@std@@V?$allocator@D@2@@1@I@Z ENDP ; std::vector<std::basic_string<char,std::char_traits<char>,std::allocator<char> >,std::allocator<std::basic_string<char,std::char_traits<char>,std::allocator<char> > > >::operator[]
_TEXT	ENDS
; Function compile flags: /Ogtp
; File d:\metin2\metin2\client_source_clean\client_source_clean\source\eterbase\singleton.h
;	COMDAT ?Instance@?$CSingleton@VCPythonChat@@@@SAAAVCPythonChat@@XZ
_TEXT	SEGMENT
?Instance@?$CSingleton@VCPythonChat@@@@SAAAVCPythonChat@@XZ PROC ; CSingleton<CPythonChat>::Instance, COMDAT

; 26   : 		assert(ms_singleton);
; 27   : 		return (*ms_singleton);

  00000	a1 00 00 00 00	 mov	 eax, DWORD PTR ?ms_singleton@?$CSingleton@VCPythonChat@@@@0PAVCPythonChat@@A ; CSingleton<CPythonChat>::ms_singleton

; 28   : 	}

  00005	c3		 ret	 0
?Instance@?$CSingleton@VCPythonChat@@@@SAAAVCPythonChat@@XZ ENDP ; CSingleton<CPythonChat>::Instance
_TEXT	ENDS
; Function compile flags: /Ogtp
; File d:\metin2\metin2\client_source_clean\client_source_clean\source\eterbase\utils.h
;	COMDAT ?htoi@@YAHPBD@Z
_TEXT	SEGMENT
?htoi@@YAHPBD@Z PROC					; htoi, COMDAT
; _s$ = ecx

; 191  : {

  00000	53		 push	 ebx
  00001	56		 push	 esi
  00002	8b d9		 mov	 ebx, ecx

; 192  :     const char *t = s;
; 193  :     int x = 0, y = 1;

  00004	33 d2		 xor	 edx, edx
  00006	57		 push	 edi

; 194  :     s += strlen(s);

  00007	8b fb		 mov	 edi, ebx
  00009	8d 72 01	 lea	 esi, DWORD PTR [edx+1]
  0000c	8d 4f 01	 lea	 ecx, DWORD PTR [edi+1]
  0000f	90		 npad	 1
$LL15@htoi:
  00010	8a 07		 mov	 al, BYTE PTR [edi]
  00012	47		 inc	 edi
  00013	84 c0		 test	 al, al
  00015	75 f9		 jne	 SHORT $LL15@htoi
  00017	2b f9		 sub	 edi, ecx

; 195  : 
; 196  :     while (t <= --s)

  00019	8d 4b ff	 lea	 ecx, DWORD PTR [ebx-1]
  0001c	03 cf		 add	 ecx, edi
  0001e	3b d9		 cmp	 ebx, ecx
  00020	77 3d		 ja	 SHORT $LN7@htoi
$LL8@htoi:

; 197  :     {
; 198  : 		if ('0' <= *s && *s <= '9')

  00022	8a 01		 mov	 al, BYTE PTR [ecx]
  00024	3c 30		 cmp	 al, 48			; 00000030H
  00026	7c 0c		 jl	 SHORT $LN6@htoi
  00028	3c 39		 cmp	 al, 57			; 00000039H
  0002a	7f 08		 jg	 SHORT $LN6@htoi

; 199  :             x += y * (*s - '0');

  0002c	0f be c0	 movsx	 eax, al
  0002f	83 e8 30	 sub	 eax, 48			; 00000030H
  00032	eb 1e		 jmp	 SHORT $LN16@htoi
$LN6@htoi:

; 200  :         else if ('a' <= *s && *s <= 'f')

  00034	3c 61		 cmp	 al, 97			; 00000061H
  00036	7c 0c		 jl	 SHORT $LN4@htoi
  00038	3c 66		 cmp	 al, 102			; 00000066H
  0003a	7f 08		 jg	 SHORT $LN4@htoi

; 201  :             x += y * (*s - 'a' + 10);

  0003c	0f be c0	 movsx	 eax, al
  0003f	83 e8 57	 sub	 eax, 87			; 00000057H
  00042	eb 0e		 jmp	 SHORT $LN16@htoi
$LN4@htoi:

; 202  :         else if ('A' <= *s && *s <= 'F')

  00044	3c 41		 cmp	 al, 65			; 00000041H
  00046	7c 1d		 jl	 SHORT $LN2@htoi
  00048	3c 46		 cmp	 al, 70			; 00000046H
  0004a	7f 19		 jg	 SHORT $LN2@htoi

; 203  :             x += y * (10 + *s - 'A');

  0004c	0f be c0	 movsx	 eax, al
  0004f	83 e8 37	 sub	 eax, 55			; 00000037H
$LN16@htoi:
  00052	0f af c6	 imul	 eax, esi
  00055	49		 dec	 ecx

; 206  :         y <<= 4;

  00056	c1 e6 04	 shl	 esi, 4
  00059	03 d0		 add	 edx, eax
  0005b	3b d9		 cmp	 ebx, ecx
  0005d	76 c3		 jbe	 SHORT $LL8@htoi
$LN7@htoi:
  0005f	5f		 pop	 edi
  00060	5e		 pop	 esi

; 207  :     }
; 208  : 
; 209  :     return x;

  00061	8b c2		 mov	 eax, edx
  00063	5b		 pop	 ebx

; 210  : }

  00064	c3		 ret	 0
$LN2@htoi:
  00065	5f		 pop	 edi
  00066	5e		 pop	 esi

; 204  :         else
; 205  :             return -1; /* invalid input! */

  00067	83 c8 ff	 or	 eax, -1
  0006a	5b		 pop	 ebx

; 210  : }

  0006b	c3		 ret	 0
?htoi@@YAHPBD@Z ENDP					; htoi
_TEXT	ENDS
END
