; Listing generated by Microsoft (R) Optimizing Compiler Version 18.00.40629.0 

	TITLE	D:\Metin2\Metin2\client_source_clean\client_source_clean\source\UserInterface\PythonApplicationWebPage.cpp
	.686P
	.XMM
	include listing.inc
	.model	flat

INCLUDELIB OLDNAMES

PUBLIC	??_C@_0BL@GGLNANO@CREATE_WEBBROWSER_ERROR?3?$CFd?$AA@ ; `string'
EXTRN	_WebBrowser_Hide:PROC
EXTRN	?DisableWebBrowserMode@CGraphicDevice@@QAEXXZ:PROC ; CGraphicDevice::DisableWebBrowserMode
EXTRN	?MoveWebBrowserRect@CGraphicDevice@@QAEXABUtagRECT@@@Z:PROC ; CGraphicDevice::MoveWebBrowserRect
EXTRN	_WebBrowser_Move:PROC
EXTRN	_WebBrowser_Show:PROC
EXTRN	?EnableWebBrowserMode@CGraphicDevice@@QAEXABUtagRECT@@@Z:PROC ; CGraphicDevice::EnableWebBrowserMode
;	COMDAT ??_C@_0BL@GGLNANO@CREATE_WEBBROWSER_ERROR?3?$CFd?$AA@
CONST	SEGMENT
??_C@_0BL@GGLNANO@CREATE_WEBBROWSER_ERROR?3?$CFd?$AA@ DB 'CREATE_WEBBROWS'
	DB	'ER_ERROR:%d', 00H				; `string'
PUBLIC	?ShowWebPage@CPythonApplication@@QAEXPBDABUtagRECT@@@Z ; CPythonApplication::ShowWebPage
PUBLIC	?MoveWebPage@CPythonApplication@@QAEXABUtagRECT@@@Z ; CPythonApplication::MoveWebPage
PUBLIC	?HideWebPage@CPythonApplication@@QAEXXZ		; CPythonApplication::HideWebPage
PUBLIC	?IsWebPageMode@CPythonApplication@@QAE_NXZ	; CPythonApplication::IsWebPageMode
	ALIGN	4

_piecewise_construct DB 01H DUP (?)
_BSS	ENDS
; Function compile flags: /Ogtp
; File d:\metin2\metin2\client_source_clean\client_source_clean\source\userinterface\pythonapplicationwebpage.cpp
;	COMDAT ?IsWebPageMode@CPythonApplication@@QAE_NXZ
_TEXT	SEGMENT
?IsWebPageMode@CPythonApplication@@QAE_NXZ PROC		; CPythonApplication::IsWebPageMode, COMDAT
; _this$dead$ = ecx

; 7    : 	return WebBrowser_IsVisible() ? true : false;

  00000	e8 00 00 00 00	 call	 _WebBrowser_IsVisible
  00005	85 c0		 test	 eax, eax
  00007	0f 95 c0	 setne	 al

; 8    : }

  0000a	c3		 ret	 0
?IsWebPageMode@CPythonApplication@@QAE_NXZ ENDP		; CPythonApplication::IsWebPageMode
_TEXT	ENDS
; Function compile flags: /Ogtp
; File d:\metin2\metin2\client_source_clean\client_source_clean\source\userinterface\pythonapplicationwebpage.cpp
;	COMDAT ?HideWebPage@CPythonApplication@@QAEXXZ
_TEXT	SEGMENT
?HideWebPage@CPythonApplication@@QAEXXZ PROC		; CPythonApplication::HideWebPage, COMDAT
; _this$ = ecx

; 34   : {

  00000	56		 push	 esi
  00001	8b f1		 mov	 esi, ecx

; 35   : 	if (WebBrowser_IsVisible())

  00003	e8 00 00 00 00	 call	 _WebBrowser_IsVisible
  00008	85 c0		 test	 eax, eax
  0000a	74 31		 je	 SHORT $LN1@HideWebPag

; 36   : 	{
; 37   : 		WebBrowser_Hide();

  0000c	e8 00 00 00 00	 call	 _WebBrowser_Hide

; 38   : 
; 39   : 		m_grpDevice.DisableWebBrowserMode();	

  00011	8d 8e 54 d8 01
	00		 lea	 ecx, DWORD PTR [esi+120916]
  00017	e8 00 00 00 00	 call	 ?DisableWebBrowserMode@CGraphicDevice@@QAEXXZ ; CGraphicDevice::DisableWebBrowserMode

; 40   : 
; 41   : 		if (m_pySystem.IsSoftwareCursor())

  0001c	8d 8e 70 d8 01
	00		 lea	 ecx, DWORD PTR [esi+120944]
  00022	e8 00 00 00 00	 call	 ?IsSoftwareCursor@CPythonSystem@@QAE_NXZ ; CPythonSystem::IsSoftwareCursor

; 42   : 			SetCursorMode(CURSOR_MODE_SOFTWARE);

  00027	8b ce		 mov	 ecx, esi
  00029	84 c0		 test	 al, al
  0002b	74 09		 je	 SHORT $LN2@HideWebPag
  0002d	6a 01		 push	 1

; 43   : 		else
; 44   : 			SetCursorMode(CURSOR_MODE_HARDWARE);

  0002f	e8 00 00 00 00	 call	 ?SetCursorMode@CPythonApplication@@QAEXH@Z ; CPythonApplication::SetCursorMode
  00034	5e		 pop	 esi

; 45   : 	}
; 46   : }

  00035	c3		 ret	 0
$LN2@HideWebPag:

; 43   : 		else
; 44   : 			SetCursorMode(CURSOR_MODE_HARDWARE);

  00036	6a 00		 push	 0
  00038	e8 00 00 00 00	 call	 ?SetCursorMode@CPythonApplication@@QAEXH@Z ; CPythonApplication::SetCursorMode
$LN1@HideWebPag:
  0003d	5e		 pop	 esi

; 45   : 	}
; 46   : }

  0003e	c3		 ret	 0
?HideWebPage@CPythonApplication@@QAEXXZ ENDP		; CPythonApplication::HideWebPage
_TEXT	ENDS
; Function compile flags: /Ogtp
; File d:\metin2\metin2\client_source_clean\client_source_clean\source\userinterface\pythonapplicationwebpage.cpp
;	COMDAT ?MoveWebPage@CPythonApplication@@QAEXABUtagRECT@@@Z
_TEXT	SEGMENT
_c_rcWebPage$ = 8					; size = 4
?MoveWebPage@CPythonApplication@@QAEXABUtagRECT@@@Z PROC ; CPythonApplication::MoveWebPage, COMDAT
; _this$ = ecx

; 25   : {

  00000	55		 push	 ebp
  00001	8b ec		 mov	 ebp, esp
  00003	57		 push	 edi
  00004	8b f9		 mov	 edi, ecx

; 26   : 	if (WebBrowser_IsVisible())

  00006	e8 00 00 00 00	 call	 _WebBrowser_IsVisible
  0000b	85 c0		 test	 eax, eax
  0000d	74 19		 je	 SHORT $LN1@MoveWebPag

; 27   : 	{
; 28   : 		m_grpDevice.MoveWebBrowserRect(c_rcWebPage);

  0000f	ff 75 08	 push	 DWORD PTR _c_rcWebPage$[ebp]
  00012	8d 8f 54 d8 01
	00		 lea	 ecx, DWORD PTR [edi+120916]
  00018	e8 00 00 00 00	 call	 ?MoveWebBrowserRect@CGraphicDevice@@QAEXABUtagRECT@@@Z ; CGraphicDevice::MoveWebBrowserRect

; 29   : 		WebBrowser_Move(&c_rcWebPage);

  0001d	ff 75 08	 push	 DWORD PTR _c_rcWebPage$[ebp]
  00020	e8 00 00 00 00	 call	 _WebBrowser_Move
  00025	83 c4 04	 add	 esp, 4
$LN1@MoveWebPag:
  00028	5f		 pop	 edi

; 30   : 	}
; 31   : }

  00029	5d		 pop	 ebp
  0002a	c2 04 00	 ret	 4
?MoveWebPage@CPythonApplication@@QAEXABUtagRECT@@@Z ENDP ; CPythonApplication::MoveWebPage
_TEXT	ENDS
; Function compile flags: /Ogtp
; File d:\metin2\metin2\client_source_clean\client_source_clean\source\userinterface\pythonapplicationwebpage.cpp
;	COMDAT ?ShowWebPage@CPythonApplication@@QAEXPBDABUtagRECT@@@Z
_TEXT	SEGMENT
_c_szURL$ = 8						; size = 4
_c_rcWebPage$ = 12					; size = 4
?ShowWebPage@CPythonApplication@@QAEXPBDABUtagRECT@@@Z PROC ; CPythonApplication::ShowWebPage, COMDAT
; _this$ = ecx

; 11   : {

  00000	55		 push	 ebp
  00001	8b ec		 mov	 ebp, esp
  00003	57		 push	 edi
  00004	8b f9		 mov	 edi, ecx

; 12   : 	if (WebBrowser_IsVisible())

  00006	e8 00 00 00 00	 call	 _WebBrowser_IsVisible
  0000b	85 c0		 test	 eax, eax
  0000d	75 45		 jne	 SHORT $LN3@ShowWebPag

; 13   : 		return;
; 14   : 
; 15   : 	m_grpDevice.EnableWebBrowserMode(c_rcWebPage);

  0000f	ff 75 0c	 push	 DWORD PTR _c_rcWebPage$[ebp]
  00012	8d 8f 54 d8 01
	00		 lea	 ecx, DWORD PTR [edi+120916]
  00018	e8 00 00 00 00	 call	 ?EnableWebBrowserMode@CGraphicDevice@@QAEXABUtagRECT@@@Z ; CGraphicDevice::EnableWebBrowserMode

; 16   : 	if (!WebBrowser_Show(GetWindowHandle(), c_szURL, &c_rcWebPage))

  0001d	ff 75 0c	 push	 DWORD PTR _c_rcWebPage$[ebp]
  00020	8b cf		 mov	 ecx, edi
  00022	ff 75 08	 push	 DWORD PTR _c_szURL$[ebp]
  00025	e8 00 00 00 00	 call	 ?GetWindowHandle@CMSWindow@@QAEPAUHWND__@@XZ ; CMSWindow::GetWindowHandle
  0002a	50		 push	 eax
  0002b	e8 00 00 00 00	 call	 _WebBrowser_Show
  00030	83 c4 0c	 add	 esp, 12			; 0000000cH
  00033	85 c0		 test	 eax, eax
  00035	75 14		 jne	 SHORT $LN1@ShowWebPag

; 17   : 	{
; 18   : 		TraceError("CREATE_WEBBROWSER_ERROR:%d", GetLastError());

  00037	ff 15 00 00 00
	00		 call	 DWORD PTR __imp__GetLastError@0
  0003d	50		 push	 eax
  0003e	68 00 00 00 00	 push	 OFFSET ??_C@_0BL@GGLNANO@CREATE_WEBBROWSER_ERROR?3?$CFd?$AA@
  00043	e8 00 00 00 00	 call	 ?TraceError@@YAXPBDZZ	; TraceError
  00048	83 c4 08	 add	 esp, 8
$LN1@ShowWebPag:

; 19   : 	}
; 20   : 
; 21   : 	SetCursorMode(CURSOR_MODE_HARDWARE);

  0004b	6a 00		 push	 0
  0004d	8b cf		 mov	 ecx, edi
  0004f	e8 00 00 00 00	 call	 ?SetCursorMode@CPythonApplication@@QAEXH@Z ; CPythonApplication::SetCursorMode
$LN3@ShowWebPag:
  00054	5f		 pop	 edi

; 22   : }

  00055	5d		 pop	 ebp
  00056	c2 08 00	 ret	 8
?ShowWebPage@CPythonApplication@@QAEXPBDABUtagRECT@@@Z ENDP ; CPythonApplication::ShowWebPage
_TEXT	ENDS
END
