; Listing generated by Microsoft (R) Optimizing Compiler Version 18.00.40629.0 

	TITLE	D:\Metin2\Metin2\client_source_clean\client_source_clean\source\UserInterface\PythonEffectModule.cpp
	.686P
	.XMM
	include listing.inc
	.model	flat

INCLUDELIB OLDNAMES

PUBLIC	?ms_singleton@?$CSingleton@VCFlyingManager@@@@0PAVCFlyingManager@@A ; CSingleton<CFlyingManager>::ms_singleton
PUBLIC	??_C@_0N@MBIJMIIP@CreateEffect?$AA@		; `string'
PUBLIC	??_C@_0N@LGNMFEFL@DeleteEffect?$AA@		; `string'
PUBLIC	??_C@_0BH@PGAJPGN@RegisterIndexedFlyData?$AA@	; `string'
PUBLIC	??_C@_06HOPIODND@effect?$AA@			; `string'
PUBLIC	??_C@_0BG@DHHMHMCC@INDEX_FLY_TYPE_NORMAL?$AA@	; `string'
PUBLIC	??_C@_0BM@LAJEFEPL@INDEX_FLY_TYPE_FIRE_CRACKER?$AA@ ; `string'
PUBLIC	??_C@_0BJ@PKDDPPL@INDEX_FLY_TYPE_AUTO_FIRE?$AA@	; `string'
PUBLIC	??_C@_08FCGHOFPB@FLY_NONE?$AA@			; `string'
PUBLIC	??_C@_07BDJIHPIH@FLY_EXP?$AA@			; `string'
PUBLIC	??_C@_0O@JHCDAHFD@FLY_HP_MEDIUM?$AA@		; `string'
PUBLIC	??_C@_0L@EMLDPIBO@FLY_HP_BIG?$AA@		; `string'
PUBLIC	??_C@_0N@HEJPIJGB@FLY_SP_SMALL?$AA@		; `string'
PUBLIC	??_C@_0O@EIGNHNEM@FLY_SP_MEDIUM?$AA@		; `string'
PUBLIC	??_C@_0L@CJGKDACK@FLY_SP_BIG?$AA@		; `string'
PUBLIC	??_C@_0O@KIHGCOD@FLY_FIREWORK1?$AA@		; `string'
PUBLIC	??_C@_0O@CBKKDBCA@FLY_FIREWORK2?$AA@		; `string'
PUBLIC	??_C@_0O@DILBAAGB@FLY_FIREWORK3?$AA@		; `string'
PUBLIC	??_C@_0O@HHPAJGKG@FLY_FIREWORK4?$AA@		; `string'
PUBLIC	??_C@_0O@GOOLKHOH@FLY_FIREWORK5?$AA@		; `string'
PUBLIC	??_C@_0O@EFMGPECE@FLY_FIREWORK6?$AA@		; `string'
PUBLIC	??_C@_0BC@KIKDJFKK@FLY_FIREWORK_XMAS?$AA@	; `string'
PUBLIC	??_C@_0BE@CLABALOD@FLY_CHAIN_LIGHTNING?$AA@	; `string'
PUBLIC	??_C@_0N@FKAKFFMN@FLY_HP_SMALL?$AA@		; `string'
PUBLIC	??_C@_0BC@MAPBBCA@FLY_SKILL_MUYEONG?$AA@	; `string'
EXTRN	?DestroyEffectInstance@CEffectManager@@QAE_NK@Z:PROC ; CEffectManager::DestroyEffectInstance
EXTRN	?RegisterIndexedFlyData@CFlyingManager@@QAE_NKEPBD@Z:PROC ; CFlyingManager::RegisterIndexedFlyData
EXTRN	?SetEffectInstancePosition@CEffectManager@@QAEXABUD3DXVECTOR3@@@Z:PROC ; CEffectManager::SetEffectInstancePosition
EXTRN	?CreateEffect@CEffectManager@@QAEHPBDABUD3DXVECTOR3@@1@Z:PROC ; CEffectManager::CreateEffect
EXTRN	?RegisterEffect@CEffectManager@@QAEHPBD_N1@Z:PROC ; CEffectManager::RegisterEffect
;	COMDAT ?ms_singleton@?$CSingleton@VCFlyingManager@@@@0PAVCFlyingManager@@A
_BSS	SEGMENT
?ms_singleton@?$CSingleton@VCFlyingManager@@@@0PAVCFlyingManager@@A DD 01H DUP (?) ; CSingleton<CFlyingManager>::ms_singleton
_BSS	ENDS
;	COMDAT ??_C@_0BC@MAPBBCA@FLY_SKILL_MUYEONG?$AA@
CONST	SEGMENT
??_C@_0BC@MAPBBCA@FLY_SKILL_MUYEONG?$AA@ DB 'FLY_SKILL_MUYEONG', 00H ; `string'
CONST	ENDS
;	COMDAT ??_C@_0N@FKAKFFMN@FLY_HP_SMALL?$AA@
CONST	SEGMENT
??_C@_0N@FKAKFFMN@FLY_HP_SMALL?$AA@ DB 'FLY_HP_SMALL', 00H ; `string'
CONST	ENDS
;	COMDAT ??_C@_0BE@CLABALOD@FLY_CHAIN_LIGHTNING?$AA@
CONST	SEGMENT
??_C@_0BE@CLABALOD@FLY_CHAIN_LIGHTNING?$AA@ DB 'FLY_CHAIN_LIGHTNING', 00H ; `string'
CONST	ENDS
;	COMDAT ??_C@_0BC@KIKDJFKK@FLY_FIREWORK_XMAS?$AA@
CONST	SEGMENT
??_C@_0BC@KIKDJFKK@FLY_FIREWORK_XMAS?$AA@ DB 'FLY_FIREWORK_XMAS', 00H ; `string'
CONST	ENDS
;	COMDAT ??_C@_0O@EFMGPECE@FLY_FIREWORK6?$AA@
CONST	SEGMENT
??_C@_0O@EFMGPECE@FLY_FIREWORK6?$AA@ DB 'FLY_FIREWORK6', 00H ; `string'
CONST	ENDS
;	COMDAT ??_C@_0O@GOOLKHOH@FLY_FIREWORK5?$AA@
CONST	SEGMENT
??_C@_0O@GOOLKHOH@FLY_FIREWORK5?$AA@ DB 'FLY_FIREWORK5', 00H ; `string'
CONST	ENDS
;	COMDAT ??_C@_0O@HHPAJGKG@FLY_FIREWORK4?$AA@
CONST	SEGMENT
??_C@_0O@HHPAJGKG@FLY_FIREWORK4?$AA@ DB 'FLY_FIREWORK4', 00H ; `string'
CONST	ENDS
;	COMDAT ??_C@_0O@DILBAAGB@FLY_FIREWORK3?$AA@
CONST	SEGMENT
??_C@_0O@DILBAAGB@FLY_FIREWORK3?$AA@ DB 'FLY_FIREWORK3', 00H ; `string'
CONST	ENDS
;	COMDAT ??_C@_0O@CBKKDBCA@FLY_FIREWORK2?$AA@
CONST	SEGMENT
??_C@_0O@CBKKDBCA@FLY_FIREWORK2?$AA@ DB 'FLY_FIREWORK2', 00H ; `string'
CONST	ENDS
;	COMDAT ??_C@_0O@KIHGCOD@FLY_FIREWORK1?$AA@
CONST	SEGMENT
??_C@_0O@KIHGCOD@FLY_FIREWORK1?$AA@ DB 'FLY_FIREWORK1', 00H ; `string'
CONST	ENDS
;	COMDAT ??_C@_0L@CJGKDACK@FLY_SP_BIG?$AA@
CONST	SEGMENT
??_C@_0L@CJGKDACK@FLY_SP_BIG?$AA@ DB 'FLY_SP_BIG', 00H	; `string'
CONST	ENDS
;	COMDAT ??_C@_0O@EIGNHNEM@FLY_SP_MEDIUM?$AA@
CONST	SEGMENT
??_C@_0O@EIGNHNEM@FLY_SP_MEDIUM?$AA@ DB 'FLY_SP_MEDIUM', 00H ; `string'
CONST	ENDS
;	COMDAT ??_C@_0N@HEJPIJGB@FLY_SP_SMALL?$AA@
CONST	SEGMENT
??_C@_0N@HEJPIJGB@FLY_SP_SMALL?$AA@ DB 'FLY_SP_SMALL', 00H ; `string'
CONST	ENDS
;	COMDAT ??_C@_0L@EMLDPIBO@FLY_HP_BIG?$AA@
CONST	SEGMENT
??_C@_0L@EMLDPIBO@FLY_HP_BIG?$AA@ DB 'FLY_HP_BIG', 00H	; `string'
CONST	ENDS
;	COMDAT ??_C@_0O@JHCDAHFD@FLY_HP_MEDIUM?$AA@
CONST	SEGMENT
??_C@_0O@JHCDAHFD@FLY_HP_MEDIUM?$AA@ DB 'FLY_HP_MEDIUM', 00H ; `string'
CONST	ENDS
;	COMDAT ??_C@_07BDJIHPIH@FLY_EXP?$AA@
CONST	SEGMENT
??_C@_07BDJIHPIH@FLY_EXP?$AA@ DB 'FLY_EXP', 00H		; `string'
CONST	ENDS
;	COMDAT ??_C@_08FCGHOFPB@FLY_NONE?$AA@
CONST	SEGMENT
??_C@_08FCGHOFPB@FLY_NONE?$AA@ DB 'FLY_NONE', 00H	; `string'
CONST	ENDS
;	COMDAT ??_C@_0BJ@PKDDPPL@INDEX_FLY_TYPE_AUTO_FIRE?$AA@
CONST	SEGMENT
??_C@_0BJ@PKDDPPL@INDEX_FLY_TYPE_AUTO_FIRE?$AA@ DB 'INDEX_FLY_TYPE_AUTO_F'
	DB	'IRE', 00H					; `string'
CONST	ENDS
;	COMDAT ??_C@_0BM@LAJEFEPL@INDEX_FLY_TYPE_FIRE_CRACKER?$AA@
CONST	SEGMENT
??_C@_0BM@LAJEFEPL@INDEX_FLY_TYPE_FIRE_CRACKER?$AA@ DB 'INDEX_FLY_TYPE_FI'
	DB	'RE_CRACKER', 00H				; `string'
CONST	ENDS
;	COMDAT ??_C@_0BG@DHHMHMCC@INDEX_FLY_TYPE_NORMAL?$AA@
CONST	SEGMENT
??_C@_0BG@DHHMHMCC@INDEX_FLY_TYPE_NORMAL?$AA@ DB 'INDEX_FLY_TYPE_NORMAL', 00H ; `string'
CONST	ENDS
;	COMDAT ??_C@_06HOPIODND@effect?$AA@
CONST	SEGMENT
??_C@_06HOPIODND@effect?$AA@ DB 'effect', 00H		; `string'
CONST	ENDS
;	COMDAT ??_C@_0BH@PGAJPGN@RegisterIndexedFlyData?$AA@
CONST	SEGMENT
??_C@_0BH@PGAJPGN@RegisterIndexedFlyData?$AA@ DB 'RegisterIndexedFlyData', 00H ; `string'
CONST	ENDS
;	COMDAT ??_C@_0N@LGNMFEFL@DeleteEffect?$AA@
CONST	SEGMENT
??_C@_0N@LGNMFEFL@DeleteEffect?$AA@ DB 'DeleteEffect', 00H ; `string'
CONST	ENDS
;	COMDAT ??_C@_0N@MBIJMIIP@CreateEffect?$AA@
CONST	SEGMENT
??_C@_0N@MBIJMIIP@CreateEffect?$AA@ DB 'CreateEffect', 00H ; `string'
CONST	ENDS
;	COMDAT ?s_methods@?1??initeffect@@YAXXZ@4PAUPyMethodDef@@A
_DATA	SEGMENT
?s_methods@?1??initeffect@@YAXXZ@4PAUPyMethodDef@@A DD FLAT:??_C@_0P@HDADHLLI@RegisterEffect?$AA@ ; `initeffect'::`2'::s_methods
	DD	FLAT:?effectRegisterEffect@@YAPAU_object@@PAU1@0@Z
	DD	01H
	ORG $+4
	DD	FLAT:??_C@_0N@MBIJMIIP@CreateEffect?$AA@
	DD	FLAT:?effectCreateEffect@@YAPAU_object@@PAU1@0@Z
	DD	01H
	ORG $+4
	DD	FLAT:??_C@_0N@LGNMFEFL@DeleteEffect?$AA@
	DD	FLAT:?effectDeleteEffect@@YAPAU_object@@PAU1@0@Z
	DD	01H
	ORG $+4
	DD	FLAT:??_C@_0M@GKIFPNAD@SetPosition?$AA@
	DD	FLAT:?effectSetPosition@@YAPAU_object@@PAU1@0@Z
	DD	01H
	ORG $+4
	DD	FLAT:??_C@_0BH@PGAJPGN@RegisterIndexedFlyData?$AA@
	DD	FLAT:?effectRegisterIndexedFlyData@@YAPAU_object@@PAU1@0@Z
	DD	01H
	ORG $+4
	DD	FLAT:??_C@_06LMAGPFNF@Update?$AA@
	DD	FLAT:?effectUpdate@@YAPAU_object@@PAU1@0@Z
	DD	01H
	ORG $+4
	DD	FLAT:??_C@_06EPLDPNDB@Render?$AA@
	DD	FLAT:?effectRender@@YAPAU_object@@PAU1@0@Z
	DD	01H
	ORG $+4
	DD	00H
	DD	00H
	DD	00H
	ORG $+4
PUBLIC	?Instance@?$CSingleton@VCFlyingManager@@@@SAAAVCFlyingManager@@XZ ; CSingleton<CFlyingManager>::Instance
PUBLIC	?initeffect@@YAXXZ				; initeffect
PUBLIC	?effectRegisterIndexedFlyData@@YAPAU_object@@PAU1@0@Z ; effectRegisterIndexedFlyData
PUBLIC	?effectSetPosition@@YAPAU_object@@PAU1@0@Z	; effectSetPosition
PUBLIC	?effectDeleteEffect@@YAPAU_object@@PAU1@0@Z	; effectDeleteEffect
PUBLIC	?effectCreateEffect@@YAPAU_object@@PAU1@0@Z	; effectCreateEffect
PUBLIC	?effectRender@@YAPAU_object@@PAU1@0@Z		; effectRender
PUBLIC	?effectUpdate@@YAPAU_object@@PAU1@0@Z		; effectUpdate
PUBLIC	?effectRegisterEffect@@YAPAU_object@@PAU1@0@Z	; effectRegisterEffect
; Function compile flags: /Ogtp
; File d:\metin2\metin2\client_source_clean\client_source_clean\source\userinterface\pythoneffectmodule.cpp
;	COMDAT ?effectRegisterEffect@@YAPAU_object@@PAU1@0@Z
_TEXT	SEGMENT
_szFileName$ = -4					; size = 4
_poSelf$ = 8						; size = 4
_poArgs$ = 12						; size = 4
?effectRegisterEffect@@YAPAU_object@@PAU1@0@Z PROC	; effectRegisterEffect, COMDAT

; 6    : {

  00000	55		 push	 ebp
  00001	8b ec		 mov	 ebp, esp
  00003	51		 push	 ecx

; 7    : 	char * szFileName;
; 8    : 	if (!PyTuple_GetString(poArgs, 0, &szFileName))

  00004	8d 45 fc	 lea	 eax, DWORD PTR _szFileName$[ebp]
  00007	50		 push	 eax
  00008	6a 00		 push	 0
  0000a	ff 75 0c	 push	 DWORD PTR _poArgs$[ebp]
  0000d	e8 00 00 00 00	 call	 ?PyTuple_GetString@@YA_NPAU_object@@HPAPAD@Z ; PyTuple_GetString
  00012	83 c4 0c	 add	 esp, 12			; 0000000cH

; 9    : 		return Py_BuildException();

  00015	6a 00		 push	 0
  00017	84 c0		 test	 al, al
  00019	75 0c		 jne	 SHORT $LN1@effectRegi
  0001b	e8 00 00 00 00	 call	 ?Py_BuildException@@YAPAU_object@@PBDZZ ; Py_BuildException
  00020	83 c4 04	 add	 esp, 4

; 13   : }

  00023	8b e5		 mov	 esp, ebp
  00025	5d		 pop	 ebp
  00026	c3		 ret	 0
$LN1@effectRegi:

; 10   : 
; 11   : 	CEffectManager::Instance().RegisterEffect(szFileName);

  00027	8b 0d 00 00 00
	00		 mov	 ecx, DWORD PTR ?ms_singleton@?$CSingleton@VCEffectManager@@@@0PAVCEffectManager@@A ; CSingleton<CEffectManager>::ms_singleton
  0002d	6a 00		 push	 0
  0002f	ff 75 fc	 push	 DWORD PTR _szFileName$[ebp]
  00032	e8 00 00 00 00	 call	 ?RegisterEffect@CEffectManager@@QAEHPBD_N1@Z ; CEffectManager::RegisterEffect

; 12   : 	return Py_BuildNone();

  00037	e8 00 00 00 00	 call	 ?Py_BuildNone@@YAPAU_object@@XZ ; Py_BuildNone

; 13   : }

  0003c	8b e5		 mov	 esp, ebp
  0003e	5d		 pop	 ebp
  0003f	c3		 ret	 0
?effectRegisterEffect@@YAPAU_object@@PAU1@0@Z ENDP	; effectRegisterEffect
_TEXT	ENDS
; Function compile flags: /Ogtp
; File d:\metin2\metin2\client_source_clean\client_source_clean\source\userinterface\pythoneffectmodule.cpp
;	COMDAT ?effectUpdate@@YAPAU_object@@PAU1@0@Z
_TEXT	SEGMENT
_poSelf$ = 8						; size = 4
_poArgs$ = 12						; size = 4
?effectUpdate@@YAPAU_object@@PAU1@0@Z PROC		; effectUpdate, COMDAT

; 17   : 	CEffectManager::Instance().Update();

  00000	8b 0d 00 00 00
	00		 mov	 ecx, DWORD PTR ?ms_singleton@?$CSingleton@VCEffectManager@@@@0PAVCEffectManager@@A ; CSingleton<CEffectManager>::ms_singleton
  00006	e8 00 00 00 00	 call	 ?Update@CEffectManager@@QAEXXZ ; CEffectManager::Update

; 18   : 	return Py_BuildNone();

  0000b	e9 00 00 00 00	 jmp	 ?Py_BuildNone@@YAPAU_object@@XZ ; Py_BuildNone
?effectUpdate@@YAPAU_object@@PAU1@0@Z ENDP		; effectUpdate
_TEXT	ENDS
; Function compile flags: /Ogtp
; File d:\metin2\metin2\client_source_clean\client_source_clean\source\userinterface\pythoneffectmodule.cpp
;	COMDAT ?effectRender@@YAPAU_object@@PAU1@0@Z
_TEXT	SEGMENT
_poSelf$ = 8						; size = 4
_poArgs$ = 12						; size = 4
?effectRender@@YAPAU_object@@PAU1@0@Z PROC		; effectRender, COMDAT

; 23   : 	CEffectManager::Instance().Render();

  00000	8b 0d 00 00 00
	00		 mov	 ecx, DWORD PTR ?ms_singleton@?$CSingleton@VCEffectManager@@@@0PAVCEffectManager@@A ; CSingleton<CEffectManager>::ms_singleton
  00006	e8 00 00 00 00	 call	 ?Render@CEffectManager@@QAEXXZ ; CEffectManager::Render

; 24   : 	return Py_BuildNone();

  0000b	e9 00 00 00 00	 jmp	 ?Py_BuildNone@@YAPAU_object@@XZ ; Py_BuildNone
?effectRender@@YAPAU_object@@PAU1@0@Z ENDP		; effectRender
_TEXT	ENDS
; Function compile flags: /Ogtp
; File d:\metin2\metin2\client_source_clean\client_source_clean\source\userinterface\pythoneffectmodule.cpp
; File d:\metin2\metin2\client_source_clean\client_source_clean\extern\include\d3dx8math.inl
; File d:\metin2\metin2\client_source_clean\client_source_clean\source\userinterface\pythoneffectmodule.cpp
; File d:\metin2\metin2\client_source_clean\client_source_clean\extern\include\d3dx8math.inl
; File d:\metin2\metin2\client_source_clean\client_source_clean\source\userinterface\pythoneffectmodule.cpp
;	COMDAT ?effectCreateEffect@@YAPAU_object@@PAU1@0@Z
_TEXT	SEGMENT
_szEffectName$ = -32					; size = 4
_PixelPosition$ = -28					; size = 12
$T1 = -16						; size = 12
__$ArrayPad$ = -4					; size = 4
_poSelf$ = 8						; size = 4
_poArgs$ = 12						; size = 4
?effectCreateEffect@@YAPAU_object@@PAU1@0@Z PROC	; effectCreateEffect, COMDAT

; 28   : {

  00000	55		 push	 ebp
  00001	8b ec		 mov	 ebp, esp
  00003	83 ec 20	 sub	 esp, 32			; 00000020H
  00006	a1 00 00 00 00	 mov	 eax, DWORD PTR ___security_cookie
  0000b	33 c5		 xor	 eax, ebp
  0000d	89 45 fc	 mov	 DWORD PTR __$ArrayPad$[ebp], eax
  00010	8b 45 0c	 mov	 eax, DWORD PTR _poArgs$[ebp]

; 29   : 	char * szEffectName;
; 30   : 	if (!PyTuple_GetString(poArgs, 0, &szEffectName))

  00013	8d 4d e0	 lea	 ecx, DWORD PTR _szEffectName$[ebp]
  00016	51		 push	 ecx
  00017	6a 00		 push	 0
  00019	50		 push	 eax
  0001a	e8 00 00 00 00	 call	 ?PyTuple_GetString@@YA_NPAU_object@@HPAPAD@Z ; PyTuple_GetString
  0001f	83 c4 0c	 add	 esp, 12			; 0000000cH
  00022	84 c0		 test	 al, al
  00024	75 18		 jne	 SHORT $LN1@effectCrea

; 31   : 		return Py_BuildException();

  00026	6a 00		 push	 0
  00028	e8 00 00 00 00	 call	 ?Py_BuildException@@YAPAU_object@@PBDZZ ; Py_BuildException
  0002d	83 c4 04	 add	 esp, 4

; 39   : }

  00030	8b 4d fc	 mov	 ecx, DWORD PTR __$ArrayPad$[ebp]
  00033	33 cd		 xor	 ecx, ebp
  00035	e8 00 00 00 00	 call	 @__security_check_cookie@4
  0003a	8b e5		 mov	 esp, ebp
  0003c	5d		 pop	 ebp
  0003d	c3		 ret	 0
$LN1@effectCrea:

; 32   : 
; 33   : 	CInstanceBase * pInstance = CPythonCharacterManager::Instance().GetSelectedInstancePtr();

  0003e	8b 0d 00 00 00
	00		 mov	 ecx, DWORD PTR ?ms_singleton@?$CSingleton@VCPythonCharacterManager@@@@0PAVCPythonCharacterManager@@A ; CSingleton<CPythonCharacterManager>::ms_singleton

; 34   : 	TPixelPosition PixelPosition;
; 35   : 	pInstance->NEW_GetPixelPosition(&PixelPosition);

  00044	8d 45 e4	 lea	 eax, DWORD PTR _PixelPosition$[ebp]
  00047	50		 push	 eax
  00048	e8 00 00 00 00	 call	 ?GetSelectedInstancePtr@CPythonCharacterManager@@QAEPAVCInstanceBase@@XZ ; CPythonCharacterManager::GetSelectedInstancePtr
  0004d	8b c8		 mov	 ecx, eax
  0004f	e8 00 00 00 00	 call	 ?NEW_GetPixelPosition@CInstanceBase@@QAEXPAUD3DXVECTOR3@@@Z ; CInstanceBase::NEW_GetPixelPosition

; 36   : 	int iIndex = CEffectManager::Instance().CreateEffect(szEffectName, PixelPosition, D3DXVECTOR3(0.0f, 0.0f, 0.0f));

  00054	8b 0d 00 00 00
	00		 mov	 ecx, DWORD PTR ?ms_singleton@?$CSingleton@VCEffectManager@@@@0PAVCEffectManager@@A ; CSingleton<CEffectManager>::ms_singleton
  0005a	8d 45 f0	 lea	 eax, DWORD PTR $T1[ebp]
  0005d	50		 push	 eax
  0005e	8d 45 e4	 lea	 eax, DWORD PTR _PixelPosition$[ebp]
; File d:\metin2\metin2\client_source_clean\client_source_clean\extern\include\d3dx8math.inl

; 180  :     x = fx;

  00061	c7 45 f0 00 00
	00 00		 mov	 DWORD PTR $T1[ebp], 0
; File d:\metin2\metin2\client_source_clean\client_source_clean\source\userinterface\pythoneffectmodule.cpp

; 36   : 	int iIndex = CEffectManager::Instance().CreateEffect(szEffectName, PixelPosition, D3DXVECTOR3(0.0f, 0.0f, 0.0f));

  00068	50		 push	 eax
  00069	ff 75 e0	 push	 DWORD PTR _szEffectName$[ebp]
; File d:\metin2\metin2\client_source_clean\client_source_clean\extern\include\d3dx8math.inl

; 181  :     y = fy;

  0006c	c7 45 f4 00 00
	00 00		 mov	 DWORD PTR $T1[ebp+4], 0

; 182  :     z = fz;

  00073	c7 45 f8 00 00
	00 00		 mov	 DWORD PTR $T1[ebp+8], 0
; File d:\metin2\metin2\client_source_clean\client_source_clean\source\userinterface\pythoneffectmodule.cpp

; 36   : 	int iIndex = CEffectManager::Instance().CreateEffect(szEffectName, PixelPosition, D3DXVECTOR3(0.0f, 0.0f, 0.0f));

  0007a	e8 00 00 00 00	 call	 ?CreateEffect@CEffectManager@@QAEHPBDABUD3DXVECTOR3@@1@Z ; CEffectManager::CreateEffect

; 37   : 
; 38   : 	return Py_BuildValue("i", iIndex);

  0007f	50		 push	 eax
  00080	68 00 00 00 00	 push	 OFFSET ??_C@_01KBJDNOO@i?$AA@
  00085	ff 15 00 00 00
	00		 call	 DWORD PTR __imp__Py_BuildValue

; 39   : }

  0008b	8b 4d fc	 mov	 ecx, DWORD PTR __$ArrayPad$[ebp]
  0008e	83 c4 08	 add	 esp, 8
  00091	33 cd		 xor	 ecx, ebp
  00093	e8 00 00 00 00	 call	 @__security_check_cookie@4
  00098	8b e5		 mov	 esp, ebp
  0009a	5d		 pop	 ebp
  0009b	c3		 ret	 0
?effectCreateEffect@@YAPAU_object@@PAU1@0@Z ENDP	; effectCreateEffect
_TEXT	ENDS
; Function compile flags: /Ogtp
; File d:\metin2\metin2\client_source_clean\client_source_clean\source\userinterface\pythoneffectmodule.cpp
;	COMDAT ?effectDeleteEffect@@YAPAU_object@@PAU1@0@Z
_TEXT	SEGMENT
_iIndex$ = -4						; size = 4
_poSelf$ = 8						; size = 4
_poArgs$ = 12						; size = 4
?effectDeleteEffect@@YAPAU_object@@PAU1@0@Z PROC	; effectDeleteEffect, COMDAT

; 42   : {

  00000	55		 push	 ebp
  00001	8b ec		 mov	 ebp, esp
  00003	51		 push	 ecx

; 43   : 	int iIndex;
; 44   : 	if (!PyTuple_GetInteger(poArgs, 0, &iIndex))

  00004	8d 45 fc	 lea	 eax, DWORD PTR _iIndex$[ebp]
  00007	50		 push	 eax
  00008	6a 00		 push	 0
  0000a	ff 75 0c	 push	 DWORD PTR _poArgs$[ebp]
  0000d	e8 00 00 00 00	 call	 ?PyTuple_GetInteger@@YA_NPAU_object@@HPAH@Z ; PyTuple_GetInteger
  00012	83 c4 0c	 add	 esp, 12			; 0000000cH
  00015	84 c0		 test	 al, al
  00017	75 0e		 jne	 SHORT $LN1@effectDele

; 45   : 		return Py_BuildException();

  00019	6a 00		 push	 0
  0001b	e8 00 00 00 00	 call	 ?Py_BuildException@@YAPAU_object@@PBDZZ ; Py_BuildException
  00020	83 c4 04	 add	 esp, 4

; 50   : }

  00023	8b e5		 mov	 esp, ebp
  00025	5d		 pop	 ebp
  00026	c3		 ret	 0
$LN1@effectDele:

; 46   : 
; 47   : 	CEffectManager::Instance().DestroyEffectInstance(iIndex);

  00027	ff 75 fc	 push	 DWORD PTR _iIndex$[ebp]
  0002a	8b 0d 00 00 00
	00		 mov	 ecx, DWORD PTR ?ms_singleton@?$CSingleton@VCEffectManager@@@@0PAVCEffectManager@@A ; CSingleton<CEffectManager>::ms_singleton
  00030	e8 00 00 00 00	 call	 ?DestroyEffectInstance@CEffectManager@@QAE_NK@Z ; CEffectManager::DestroyEffectInstance

; 48   : 
; 49   : 	return Py_BuildNone();

  00035	e8 00 00 00 00	 call	 ?Py_BuildNone@@YAPAU_object@@XZ ; Py_BuildNone

; 50   : }

  0003a	8b e5		 mov	 esp, ebp
  0003c	5d		 pop	 ebp
  0003d	c3		 ret	 0
?effectDeleteEffect@@YAPAU_object@@PAU1@0@Z ENDP	; effectDeleteEffect
_TEXT	ENDS
; Function compile flags: /Ogtp
; File d:\metin2\metin2\client_source_clean\client_source_clean\source\userinterface\pythoneffectmodule.cpp
; File d:\metin2\metin2\client_source_clean\client_source_clean\extern\include\d3dx8math.inl
; File d:\metin2\metin2\client_source_clean\client_source_clean\source\userinterface\pythoneffectmodule.cpp
; File d:\metin2\metin2\client_source_clean\client_source_clean\extern\include\d3dx8math.inl
; File d:\metin2\metin2\client_source_clean\client_source_clean\source\userinterface\pythoneffectmodule.cpp
; File d:\metin2\metin2\client_source_clean\client_source_clean\extern\include\d3dx8math.inl
; File d:\metin2\metin2\client_source_clean\client_source_clean\source\userinterface\pythoneffectmodule.cpp
;	COMDAT ?effectSetPosition@@YAPAU_object@@PAU1@0@Z
_TEXT	SEGMENT
_fx$ = -32						; size = 4
_iIndex$ = -28						; size = 4
_fz$ = -24						; size = 4
_fy$ = -20						; size = 4
$T1 = -16						; size = 12
__$ArrayPad$ = -4					; size = 4
_poSelf$ = 8						; size = 4
_poArgs$ = 12						; size = 4
?effectSetPosition@@YAPAU_object@@PAU1@0@Z PROC		; effectSetPosition, COMDAT

; 53   : {

  00000	55		 push	 ebp
  00001	8b ec		 mov	 ebp, esp
  00003	83 ec 20	 sub	 esp, 32			; 00000020H
  00006	a1 00 00 00 00	 mov	 eax, DWORD PTR ___security_cookie
  0000b	33 c5		 xor	 eax, ebp
  0000d	89 45 fc	 mov	 DWORD PTR __$ArrayPad$[ebp], eax
  00010	56		 push	 esi
  00011	8b 75 0c	 mov	 esi, DWORD PTR _poArgs$[ebp]

; 54   : 	int iIndex;
; 55   : 	if (!PyTuple_GetInteger(poArgs, 0, &iIndex))

  00014	8d 45 e4	 lea	 eax, DWORD PTR _iIndex$[ebp]
  00017	50		 push	 eax
  00018	6a 00		 push	 0
  0001a	56		 push	 esi
  0001b	e8 00 00 00 00	 call	 ?PyTuple_GetInteger@@YA_NPAU_object@@HPAH@Z ; PyTuple_GetInteger
  00020	83 c4 0c	 add	 esp, 12			; 0000000cH
  00023	84 c0		 test	 al, al
  00025	75 19		 jne	 SHORT $LN4@effectSetP
$LN13@effectSetP:

; 56   : 		return Py_BuildException();

  00027	6a 00		 push	 0
  00029	e8 00 00 00 00	 call	 ?Py_BuildException@@YAPAU_object@@PBDZZ ; Py_BuildException
  0002e	83 c4 04	 add	 esp, 4
  00031	5e		 pop	 esi

; 71   : }

  00032	8b 4d fc	 mov	 ecx, DWORD PTR __$ArrayPad$[ebp]
  00035	33 cd		 xor	 ecx, ebp
  00037	e8 00 00 00 00	 call	 @__security_check_cookie@4
  0003c	8b e5		 mov	 esp, ebp
  0003e	5d		 pop	 ebp
  0003f	c3		 ret	 0
$LN4@effectSetP:

; 57   : 	float fx;
; 58   : 	if (!PyTuple_GetFloat(poArgs, 1, &fx))

  00040	8d 45 e0	 lea	 eax, DWORD PTR _fx$[ebp]
  00043	50		 push	 eax
  00044	6a 01		 push	 1
  00046	56		 push	 esi
  00047	e8 00 00 00 00	 call	 ?PyTuple_GetFloat@@YA_NPAU_object@@HPAM@Z ; PyTuple_GetFloat
  0004c	83 c4 0c	 add	 esp, 12			; 0000000cH
  0004f	84 c0		 test	 al, al
  00051	74 d4		 je	 SHORT $LN13@effectSetP

; 59   : 		return Py_BuildException();
; 60   : 	float fy;
; 61   : 	if (!PyTuple_GetFloat(poArgs, 2, &fy))

  00053	8d 45 ec	 lea	 eax, DWORD PTR _fy$[ebp]
  00056	50		 push	 eax
  00057	6a 02		 push	 2
  00059	56		 push	 esi
  0005a	e8 00 00 00 00	 call	 ?PyTuple_GetFloat@@YA_NPAU_object@@HPAM@Z ; PyTuple_GetFloat
  0005f	83 c4 0c	 add	 esp, 12			; 0000000cH
  00062	84 c0		 test	 al, al
  00064	74 c1		 je	 SHORT $LN13@effectSetP

; 62   : 		return Py_BuildException();
; 63   : 	float fz;
; 64   : 	if (!PyTuple_GetFloat(poArgs, 3, &fz))

  00066	8d 45 e8	 lea	 eax, DWORD PTR _fz$[ebp]
  00069	50		 push	 eax
  0006a	6a 03		 push	 3
  0006c	56		 push	 esi
  0006d	e8 00 00 00 00	 call	 ?PyTuple_GetFloat@@YA_NPAU_object@@HPAM@Z ; PyTuple_GetFloat
  00072	83 c4 0c	 add	 esp, 12			; 0000000cH
  00075	84 c0		 test	 al, al
  00077	74 ae		 je	 SHORT $LN13@effectSetP

; 65   : 		return Py_BuildException();
; 66   : 
; 67   : 	CEffectManager::Instance().SelectEffectInstance(iIndex);

  00079	ff 75 e4	 push	 DWORD PTR _iIndex$[ebp]
  0007c	8b 0d 00 00 00
	00		 mov	 ecx, DWORD PTR ?ms_singleton@?$CSingleton@VCEffectManager@@@@0PAVCEffectManager@@A ; CSingleton<CEffectManager>::ms_singleton
  00082	e8 00 00 00 00	 call	 ?SelectEffectInstance@CEffectManager@@QAEHK@Z ; CEffectManager::SelectEffectInstance
; File d:\metin2\metin2\client_source_clean\client_source_clean\extern\include\d3dx8math.inl

; 180  :     x = fx;

  00087	f3 0f 10 45 e0	 movss	 xmm0, DWORD PTR _fx$[ebp]
; File d:\metin2\metin2\client_source_clean\client_source_clean\source\userinterface\pythoneffectmodule.cpp

; 68   : 	CEffectManager::Instance().SetEffectInstancePosition(D3DXVECTOR3(fx, fy, fz));

  0008c	8d 45 f0	 lea	 eax, DWORD PTR $T1[ebp]
  0008f	8b 0d 00 00 00
	00		 mov	 ecx, DWORD PTR ?ms_singleton@?$CSingleton@VCEffectManager@@@@0PAVCEffectManager@@A ; CSingleton<CEffectManager>::ms_singleton
; File d:\metin2\metin2\client_source_clean\client_source_clean\extern\include\d3dx8math.inl

; 180  :     x = fx;

  00095	f3 0f 11 45 f0	 movss	 DWORD PTR $T1[ebp], xmm0

; 181  :     y = fy;

  0009a	f3 0f 10 45 ec	 movss	 xmm0, DWORD PTR _fy$[ebp]
  0009f	f3 0f 11 45 f4	 movss	 DWORD PTR $T1[ebp+4], xmm0

; 182  :     z = fz;

  000a4	f3 0f 10 45 e8	 movss	 xmm0, DWORD PTR _fz$[ebp]
; File d:\metin2\metin2\client_source_clean\client_source_clean\source\userinterface\pythoneffectmodule.cpp

; 68   : 	CEffectManager::Instance().SetEffectInstancePosition(D3DXVECTOR3(fx, fy, fz));

  000a9	50		 push	 eax
; File d:\metin2\metin2\client_source_clean\client_source_clean\extern\include\d3dx8math.inl

; 182  :     z = fz;

  000aa	f3 0f 11 45 f8	 movss	 DWORD PTR $T1[ebp+8], xmm0
; File d:\metin2\metin2\client_source_clean\client_source_clean\source\userinterface\pythoneffectmodule.cpp

; 68   : 	CEffectManager::Instance().SetEffectInstancePosition(D3DXVECTOR3(fx, fy, fz));

  000af	e8 00 00 00 00	 call	 ?SetEffectInstancePosition@CEffectManager@@QAEXABUD3DXVECTOR3@@@Z ; CEffectManager::SetEffectInstancePosition

; 69   : 
; 70   : 	return Py_BuildNone();

  000b4	e8 00 00 00 00	 call	 ?Py_BuildNone@@YAPAU_object@@XZ ; Py_BuildNone

; 71   : }

  000b9	8b 4d fc	 mov	 ecx, DWORD PTR __$ArrayPad$[ebp]
  000bc	33 cd		 xor	 ecx, ebp
  000be	5e		 pop	 esi
  000bf	e8 00 00 00 00	 call	 @__security_check_cookie@4
  000c4	8b e5		 mov	 esp, ebp
  000c6	5d		 pop	 ebp
  000c7	c3		 ret	 0
?effectSetPosition@@YAPAU_object@@PAU1@0@Z ENDP		; effectSetPosition
_TEXT	ENDS
; Function compile flags: /Ogtp
; File d:\metin2\metin2\client_source_clean\client_source_clean\source\userinterface\pythoneffectmodule.cpp
;	COMDAT ?effectRegisterIndexedFlyData@@YAPAU_object@@PAU1@0@Z
_TEXT	SEGMENT
_iIndex$ = -12						; size = 4
_iType$ = -8						; size = 4
_szFlyDataName$ = -4					; size = 4
_poSelf$ = 8						; size = 4
_poArgs$ = 12						; size = 4
?effectRegisterIndexedFlyData@@YAPAU_object@@PAU1@0@Z PROC ; effectRegisterIndexedFlyData, COMDAT

; 74   : {

  00000	55		 push	 ebp
  00001	8b ec		 mov	 ebp, esp
  00003	83 ec 0c	 sub	 esp, 12			; 0000000cH

; 75   : 	int iIndex;
; 76   : 	if (!PyTuple_GetInteger(poArgs, 0, &iIndex))

  00006	8d 45 f4	 lea	 eax, DWORD PTR _iIndex$[ebp]
  00009	56		 push	 esi
  0000a	8b 75 0c	 mov	 esi, DWORD PTR _poArgs$[ebp]
  0000d	50		 push	 eax
  0000e	6a 00		 push	 0
  00010	56		 push	 esi
  00011	e8 00 00 00 00	 call	 ?PyTuple_GetInteger@@YA_NPAU_object@@HPAH@Z ; PyTuple_GetInteger
  00016	83 c4 0c	 add	 esp, 12			; 0000000cH
  00019	84 c0		 test	 al, al
  0001b	75 0f		 jne	 SHORT $LN3@effectRegi
$LN8@effectRegi:

; 77   : 		return Py_BuildException();

  0001d	6a 00		 push	 0
  0001f	e8 00 00 00 00	 call	 ?Py_BuildException@@YAPAU_object@@PBDZZ ; Py_BuildException
  00024	83 c4 04	 add	 esp, 4
  00027	5e		 pop	 esi

; 88   : }

  00028	8b e5		 mov	 esp, ebp
  0002a	5d		 pop	 ebp
  0002b	c3		 ret	 0
$LN3@effectRegi:

; 78   : 	int iType;
; 79   : 	if (!PyTuple_GetInteger(poArgs, 1, &iType))

  0002c	8d 45 f8	 lea	 eax, DWORD PTR _iType$[ebp]
  0002f	50		 push	 eax
  00030	6a 01		 push	 1
  00032	56		 push	 esi
  00033	e8 00 00 00 00	 call	 ?PyTuple_GetInteger@@YA_NPAU_object@@HPAH@Z ; PyTuple_GetInteger
  00038	83 c4 0c	 add	 esp, 12			; 0000000cH
  0003b	84 c0		 test	 al, al
  0003d	74 de		 je	 SHORT $LN8@effectRegi

; 80   : 		return Py_BuildException();
; 81   : 	char * szFlyDataName;
; 82   : 	if (!PyTuple_GetString(poArgs, 2, &szFlyDataName))

  0003f	8d 45 fc	 lea	 eax, DWORD PTR _szFlyDataName$[ebp]
  00042	50		 push	 eax
  00043	6a 02		 push	 2
  00045	56		 push	 esi
  00046	e8 00 00 00 00	 call	 ?PyTuple_GetString@@YA_NPAU_object@@HPAPAD@Z ; PyTuple_GetString
  0004b	83 c4 0c	 add	 esp, 12			; 0000000cH
  0004e	84 c0		 test	 al, al
  00050	74 cb		 je	 SHORT $LN8@effectRegi

; 83   : 		return Py_BuildException();
; 84   : 
; 85   : 	CFlyingManager::Instance().RegisterIndexedFlyData(iIndex, iType, szFlyDataName);

  00052	ff 75 fc	 push	 DWORD PTR _szFlyDataName$[ebp]
  00055	8b 0d 00 00 00
	00		 mov	 ecx, DWORD PTR ?ms_singleton@?$CSingleton@VCFlyingManager@@@@0PAVCFlyingManager@@A ; CSingleton<CFlyingManager>::ms_singleton
  0005b	ff 75 f8	 push	 DWORD PTR _iType$[ebp]
  0005e	ff 75 f4	 push	 DWORD PTR _iIndex$[ebp]
  00061	e8 00 00 00 00	 call	 ?RegisterIndexedFlyData@CFlyingManager@@QAE_NKEPBD@Z ; CFlyingManager::RegisterIndexedFlyData

; 86   : 
; 87   : 	return Py_BuildNone();

  00066	e8 00 00 00 00	 call	 ?Py_BuildNone@@YAPAU_object@@XZ ; Py_BuildNone
  0006b	5e		 pop	 esi

; 88   : }

  0006c	8b e5		 mov	 esp, ebp
  0006e	5d		 pop	 ebp
  0006f	c3		 ret	 0
?effectRegisterIndexedFlyData@@YAPAU_object@@PAU1@0@Z ENDP ; effectRegisterIndexedFlyData
_TEXT	ENDS
; Function compile flags: /Ogtp
; File d:\metin2\metin2\client_source_clean\client_source_clean\source\userinterface\pythoneffectmodule.cpp
;	COMDAT ?initeffect@@YAXXZ
_TEXT	SEGMENT
?initeffect@@YAXXZ PROC					; initeffect, COMDAT

; 91   : {

  00000	56		 push	 esi
  00001	57		 push	 edi

; 92   : 	static PyMethodDef s_methods[] =
; 93   : 	{
; 94   : 		{ "RegisterEffect",				effectRegisterEffect,			METH_VARARGS },
; 95   : 		{ "CreateEffect",				effectCreateEffect,				METH_VARARGS },
; 96   : 		{ "DeleteEffect",				effectDeleteEffect,				METH_VARARGS },
; 97   : 		{ "SetPosition",				effectSetPosition,				METH_VARARGS },
; 98   : 
; 99   : 		{ "RegisterIndexedFlyData",		effectRegisterIndexedFlyData,	METH_VARARGS },
; 100  : 
; 101  : 		{ "Update",						effectUpdate,					METH_VARARGS },
; 102  : 		{ "Render",						effectRender,					METH_VARARGS },
; 103  : 
; 104  : 		{ NULL,							NULL,							NULL         },
; 105  : 	};
; 106  : 
; 107  : 	PyObject * poModule = Py_InitModule("effect", s_methods);

  00002	68 f5 03 00 00	 push	 1013			; 000003f5H
  00007	6a 00		 push	 0
  00009	6a 00		 push	 0
  0000b	68 00 00 00 00	 push	 OFFSET ?s_methods@?1??initeffect@@YAXXZ@4PAUPyMethodDef@@A
  00010	68 00 00 00 00	 push	 OFFSET ??_C@_06HOPIODND@effect?$AA@
  00015	ff 15 00 00 00
	00		 call	 DWORD PTR __imp__Py_InitModule4

; 108  : 	PyModule_AddIntConstant(poModule, "INDEX_FLY_TYPE_NORMAL",			CFlyingManager::INDEX_FLY_TYPE_NORMAL);

  0001b	8b 35 00 00 00
	00		 mov	 esi, DWORD PTR __imp__PyModule_AddIntConstant
  00021	8b f8		 mov	 edi, eax
  00023	6a 00		 push	 0
  00025	68 00 00 00 00	 push	 OFFSET ??_C@_0BG@DHHMHMCC@INDEX_FLY_TYPE_NORMAL?$AA@
  0002a	57		 push	 edi
  0002b	ff d6		 call	 esi

; 109  : 	PyModule_AddIntConstant(poModule, "INDEX_FLY_TYPE_FIRE_CRACKER",	CFlyingManager::INDEX_FLY_TYPE_FIRE_CRACKER);

  0002d	6a 01		 push	 1
  0002f	68 00 00 00 00	 push	 OFFSET ??_C@_0BM@LAJEFEPL@INDEX_FLY_TYPE_FIRE_CRACKER?$AA@
  00034	57		 push	 edi
  00035	ff d6		 call	 esi

; 110  : 	PyModule_AddIntConstant(poModule, "INDEX_FLY_TYPE_AUTO_FIRE",		CFlyingManager::INDEX_FLY_TYPE_AUTO_FIRE);

  00037	6a 02		 push	 2
  00039	68 00 00 00 00	 push	 OFFSET ??_C@_0BJ@PKDDPPL@INDEX_FLY_TYPE_AUTO_FIRE?$AA@
  0003e	57		 push	 edi
  0003f	ff d6		 call	 esi

; 111  : 
; 112  : 	enum
; 113  : 	{
; 114  : 		FLY_NONE,
; 115  : 		FLY_EXP,
; 116  : 		FLY_HP_MEDIUM,
; 117  : 		FLY_HP_BIG,
; 118  : 		FLY_SP_SMALL,
; 119  : 		FLY_SP_MEDIUM,
; 120  : 		FLY_SP_BIG,
; 121  : 		FLY_FIREWORK1,
; 122  : 		FLY_FIREWORK2,
; 123  : 		FLY_FIREWORK3,
; 124  : 		FLY_FIREWORK4,
; 125  : 		FLY_FIREWORK5,
; 126  : 		FLY_FIREWORK6,
; 127  : 		FLY_FIREWORK_XMAS,
; 128  : 		FLY_CHAIN_LIGHTNING,
; 129  : 		FLY_HP_SMALL,
; 130  : 		FLY_SKILL_MUYEONG,
; 131  : 	};
; 132  : 
; 133  : 	PyModule_AddIntConstant(poModule, "FLY_NONE",				FLY_NONE);

  00041	6a 00		 push	 0
  00043	68 00 00 00 00	 push	 OFFSET ??_C@_08FCGHOFPB@FLY_NONE?$AA@
  00048	57		 push	 edi
  00049	ff d6		 call	 esi
  0004b	83 c4 44	 add	 esp, 68			; 00000044H

; 134  : 	PyModule_AddIntConstant(poModule, "FLY_EXP",				FLY_EXP);

  0004e	6a 01		 push	 1
  00050	68 00 00 00 00	 push	 OFFSET ??_C@_07BDJIHPIH@FLY_EXP?$AA@
  00055	57		 push	 edi
  00056	ff d6		 call	 esi

; 135  : 	PyModule_AddIntConstant(poModule, "FLY_HP_MEDIUM",			FLY_HP_MEDIUM);

  00058	6a 02		 push	 2
  0005a	68 00 00 00 00	 push	 OFFSET ??_C@_0O@JHCDAHFD@FLY_HP_MEDIUM?$AA@
  0005f	57		 push	 edi
  00060	ff d6		 call	 esi

; 136  : 	PyModule_AddIntConstant(poModule, "FLY_HP_BIG",				FLY_HP_BIG);

  00062	6a 03		 push	 3
  00064	68 00 00 00 00	 push	 OFFSET ??_C@_0L@EMLDPIBO@FLY_HP_BIG?$AA@
  00069	57		 push	 edi
  0006a	ff d6		 call	 esi

; 137  : 	PyModule_AddIntConstant(poModule, "FLY_SP_SMALL",			FLY_SP_SMALL);

  0006c	6a 04		 push	 4
  0006e	68 00 00 00 00	 push	 OFFSET ??_C@_0N@HEJPIJGB@FLY_SP_SMALL?$AA@
  00073	57		 push	 edi
  00074	ff d6		 call	 esi

; 138  : 	PyModule_AddIntConstant(poModule, "FLY_SP_MEDIUM",			FLY_SP_MEDIUM);

  00076	6a 05		 push	 5
  00078	68 00 00 00 00	 push	 OFFSET ??_C@_0O@EIGNHNEM@FLY_SP_MEDIUM?$AA@
  0007d	57		 push	 edi
  0007e	ff d6		 call	 esi

; 139  : 	PyModule_AddIntConstant(poModule, "FLY_SP_BIG",				FLY_SP_BIG);

  00080	6a 06		 push	 6
  00082	68 00 00 00 00	 push	 OFFSET ??_C@_0L@CJGKDACK@FLY_SP_BIG?$AA@
  00087	57		 push	 edi
  00088	ff d6		 call	 esi
  0008a	83 c4 48	 add	 esp, 72			; 00000048H

; 140  : 	PyModule_AddIntConstant(poModule, "FLY_FIREWORK1",			FLY_FIREWORK1);

  0008d	6a 07		 push	 7
  0008f	68 00 00 00 00	 push	 OFFSET ??_C@_0O@KIHGCOD@FLY_FIREWORK1?$AA@
  00094	57		 push	 edi
  00095	ff d6		 call	 esi

; 141  : 	PyModule_AddIntConstant(poModule, "FLY_FIREWORK2",			FLY_FIREWORK2);

  00097	6a 08		 push	 8
  00099	68 00 00 00 00	 push	 OFFSET ??_C@_0O@CBKKDBCA@FLY_FIREWORK2?$AA@
  0009e	57		 push	 edi
  0009f	ff d6		 call	 esi

; 142  : 	PyModule_AddIntConstant(poModule, "FLY_FIREWORK3",			FLY_FIREWORK3);

  000a1	6a 09		 push	 9
  000a3	68 00 00 00 00	 push	 OFFSET ??_C@_0O@DILBAAGB@FLY_FIREWORK3?$AA@
  000a8	57		 push	 edi
  000a9	ff d6		 call	 esi

; 143  : 	PyModule_AddIntConstant(poModule, "FLY_FIREWORK4",			FLY_FIREWORK4);

  000ab	6a 0a		 push	 10			; 0000000aH
  000ad	68 00 00 00 00	 push	 OFFSET ??_C@_0O@HHPAJGKG@FLY_FIREWORK4?$AA@
  000b2	57		 push	 edi
  000b3	ff d6		 call	 esi

; 144  : 	PyModule_AddIntConstant(poModule, "FLY_FIREWORK5",			FLY_FIREWORK5);

  000b5	6a 0b		 push	 11			; 0000000bH
  000b7	68 00 00 00 00	 push	 OFFSET ??_C@_0O@GOOLKHOH@FLY_FIREWORK5?$AA@
  000bc	57		 push	 edi
  000bd	ff d6		 call	 esi

; 145  : 	PyModule_AddIntConstant(poModule, "FLY_FIREWORK6",			FLY_FIREWORK6);

  000bf	6a 0c		 push	 12			; 0000000cH
  000c1	68 00 00 00 00	 push	 OFFSET ??_C@_0O@EFMGPECE@FLY_FIREWORK6?$AA@
  000c6	57		 push	 edi
  000c7	ff d6		 call	 esi
  000c9	83 c4 48	 add	 esp, 72			; 00000048H

; 146  : 	PyModule_AddIntConstant(poModule, "FLY_FIREWORK_XMAS",		FLY_FIREWORK_XMAS);

  000cc	6a 0d		 push	 13			; 0000000dH
  000ce	68 00 00 00 00	 push	 OFFSET ??_C@_0BC@KIKDJFKK@FLY_FIREWORK_XMAS?$AA@
  000d3	57		 push	 edi
  000d4	ff d6		 call	 esi

; 147  : 	PyModule_AddIntConstant(poModule, "FLY_CHAIN_LIGHTNING",	FLY_CHAIN_LIGHTNING);

  000d6	6a 0e		 push	 14			; 0000000eH
  000d8	68 00 00 00 00	 push	 OFFSET ??_C@_0BE@CLABALOD@FLY_CHAIN_LIGHTNING?$AA@
  000dd	57		 push	 edi
  000de	ff d6		 call	 esi

; 148  : 	PyModule_AddIntConstant(poModule, "FLY_HP_SMALL",			FLY_HP_SMALL);

  000e0	6a 0f		 push	 15			; 0000000fH
  000e2	68 00 00 00 00	 push	 OFFSET ??_C@_0N@FKAKFFMN@FLY_HP_SMALL?$AA@
  000e7	57		 push	 edi
  000e8	ff d6		 call	 esi

; 149  : 	PyModule_AddIntConstant(poModule, "FLY_SKILL_MUYEONG",		FLY_SKILL_MUYEONG);

  000ea	6a 10		 push	 16			; 00000010H
  000ec	68 00 00 00 00	 push	 OFFSET ??_C@_0BC@MAPBBCA@FLY_SKILL_MUYEONG?$AA@
  000f1	57		 push	 edi
  000f2	ff d6		 call	 esi
  000f4	83 c4 30	 add	 esp, 48			; 00000030H
  000f7	5f		 pop	 edi
  000f8	5e		 pop	 esi

; 150  : }

  000f9	c3		 ret	 0
?initeffect@@YAXXZ ENDP					; initeffect
_TEXT	ENDS
; Function compile flags: /Ogtp
; File d:\metin2\metin2\client_source_clean\client_source_clean\source\eterbase\singleton.h
;	COMDAT ?Instance@?$CSingleton@VCFlyingManager@@@@SAAAVCFlyingManager@@XZ
_TEXT	SEGMENT
?Instance@?$CSingleton@VCFlyingManager@@@@SAAAVCFlyingManager@@XZ PROC ; CSingleton<CFlyingManager>::Instance, COMDAT

; 26   : 		assert(ms_singleton);
; 27   : 		return (*ms_singleton);

  00000	a1 00 00 00 00	 mov	 eax, DWORD PTR ?ms_singleton@?$CSingleton@VCFlyingManager@@@@0PAVCFlyingManager@@A ; CSingleton<CFlyingManager>::ms_singleton

; 28   : 	}

  00005	c3		 ret	 0
?Instance@?$CSingleton@VCFlyingManager@@@@SAAAVCFlyingManager@@XZ ENDP ; CSingleton<CFlyingManager>::Instance
_TEXT	ENDS
END
