; Listing generated by Microsoft (R) Optimizing Compiler Version 18.00.40629.0 

	TITLE	D:\Metin2\Metin2\client_source_clean\client_source_clean\source\UserInterface\PythonSoundManagerModule.cpp
	.686P
	.XMM
	include listing.inc
	.model	flat

INCLUDELIB OLDNAMES

PUBLIC	??_C@_09PEMGNEEO@PlaySound?$AA@			; `string'
PUBLIC	??_C@_09IICPOHBI@PlayMusic?$AA@			; `string'
PUBLIC	??_C@_0M@FNHMFBEI@PlaySound3D?$AA@		; `string'
PUBLIC	??_C@_0N@IGMDOLEM@FadeOutMusic?$AA@		; `string'
PUBLIC	??_C@_0M@BLCFFNFD@FadeInMusic?$AA@		; `string'
PUBLIC	??_C@_0BC@MLGHBKAP@FadeLimitOutMusic?$AA@	; `string'
PUBLIC	??_C@_0BA@NBPABKIH@FadeOutAllMusic?$AA@		; `string'
PUBLIC	??_C@_0BA@NHPCCPF@SetMusicVolumef?$AA@		; `string'
PUBLIC	??_C@_0N@NKBILJOM@StopAllSound?$AA@		; `string'
PUBLIC	??_C@_0BA@MLLJDBPB@SetSoundVolumef?$AA@		; `string'
PUBLIC	??_C@_0P@LGJJAPOH@SetMusicVolume?$AA@		; `string'
PUBLIC	??_C@_0O@OPHEJIB@SetSoundScale?$AA@		; `string'
PUBLIC	??_C@_0P@HMFDLJNN@SetSoundVolume?$AA@		; `string'
PUBLIC	??_C@_03OEOJGHBI@snd?$AA@			; `string'
PUBLIC	??_C@_0BG@NFCFIEJP@SetAmbienceSoundScale?$AA@	; `string'
EXTRN	?SetSoundVolumeGrade@CSoundManager@@QAEXH@Z:PROC ; CSoundManager::SetSoundVolumeGrade
EXTRN	?SetSoundScale@CSoundManager@@QAEXM@Z:PROC	; CSoundManager::SetSoundScale
EXTRN	?SetAmbienceSoundScale@CSoundManager@@QAEXM@Z:PROC ; CSoundManager::SetAmbienceSoundScale
EXTRN	?FadeLimitOutMusic@CSoundManager@@QAEXPBDMM@Z:PROC ; CSoundManager::FadeLimitOutMusic
EXTRN	?StopAllSound3D@CSoundManager@@QAEXXZ:PROC	; CSoundManager::StopAllSound3D
EXTRN	?SetMusicVolume@CSoundManager@@QAEXM@Z:PROC	; CSoundManager::SetMusicVolume
EXTRN	?SetSoundVolumeRatio@CSoundManager@@QAEXM@Z:PROC ; CSoundManager::SetSoundVolumeRatio
EXTRN	?PlayMusic@CSoundManager@@QAEXPBD@Z:PROC	; CSoundManager::PlayMusic
EXTRN	?FadeInMusic@CSoundManager@@QAEXPBDM@Z:PROC	; CSoundManager::FadeInMusic
EXTRN	?FadeOutMusic@CSoundManager@@QAEXPBDM@Z:PROC	; CSoundManager::FadeOutMusic
EXTRN	?FadeOutAllMusic@CSoundManager@@QAEXXZ:PROC	; CSoundManager::FadeOutAllMusic
;	COMDAT ?s_methods@?1??initsnd@@YAXXZ@4PAUPyMethodDef@@A
_DATA	SEGMENT
?s_methods@?1??initsnd@@YAXXZ@4PAUPyMethodDef@@A DD FLAT:??_C@_09PEMGNEEO@PlaySound?$AA@ ; `initsnd'::`2'::s_methods
	DD	FLAT:?sndPlaySoundA@@YAPAU_object@@PAU1@0@Z
	DD	01H
	ORG $+4
	DD	FLAT:??_C@_0M@FNHMFBEI@PlaySound3D?$AA@
	DD	FLAT:?sndPlaySound3D@@YAPAU_object@@PAU1@0@Z
	DD	01H
	ORG $+4
	DD	FLAT:??_C@_09IICPOHBI@PlayMusic?$AA@
	DD	FLAT:?sndPlayMusic@@YAPAU_object@@PAU1@0@Z
	DD	01H
	ORG $+4
	DD	FLAT:??_C@_0M@BLCFFNFD@FadeInMusic?$AA@
	DD	FLAT:?sndFadeInMusic@@YAPAU_object@@PAU1@0@Z
	DD	01H
	ORG $+4
	DD	FLAT:??_C@_0N@IGMDOLEM@FadeOutMusic?$AA@
	DD	FLAT:?sndFadeOutMusic@@YAPAU_object@@PAU1@0@Z
	DD	01H
	ORG $+4
	DD	FLAT:??_C@_0BA@NBPABKIH@FadeOutAllMusic?$AA@
	DD	FLAT:?sndFadeOutAllMusic@@YAPAU_object@@PAU1@0@Z
	DD	01H
	ORG $+4
	DD	FLAT:??_C@_0BC@MLGHBKAP@FadeLimitOutMusic?$AA@
	DD	FLAT:?sndFadeLimitOutMusic@@YAPAU_object@@PAU1@0@Z
	DD	01H
	ORG $+4
	DD	FLAT:??_C@_0N@NKBILJOM@StopAllSound?$AA@
	DD	FLAT:?sndStopAllSound@@YAPAU_object@@PAU1@0@Z
	DD	01H
	ORG $+4
	DD	FLAT:??_C@_0BA@NHPCCPF@SetMusicVolumef?$AA@
	DD	FLAT:?sndSetMusicVolume@@YAPAU_object@@PAU1@0@Z
	DD	01H
	ORG $+4
	DD	FLAT:??_C@_0P@LGJJAPOH@SetMusicVolume?$AA@
	DD	FLAT:?sndSetMusicVolume@@YAPAU_object@@PAU1@0@Z
	DD	01H
	ORG $+4
	DD	FLAT:??_C@_0BA@MLLJDBPB@SetSoundVolumef?$AA@
	DD	FLAT:?sndSetSoundVolumef@@YAPAU_object@@PAU1@0@Z
	DD	01H
	ORG $+4
	DD	FLAT:??_C@_0P@HMFDLJNN@SetSoundVolume?$AA@
	DD	FLAT:?sndSetSoundVolume@@YAPAU_object@@PAU1@0@Z
	DD	01H
	ORG $+4
	DD	FLAT:??_C@_0O@OPHEJIB@SetSoundScale?$AA@
	DD	FLAT:?sndSetSoundScale@@YAPAU_object@@PAU1@0@Z
	DD	01H
	ORG $+4
	DD	FLAT:??_C@_0BG@NFCFIEJP@SetAmbienceSoundScale?$AA@
	DD	FLAT:?sndSetAmbienceSoundScale@@YAPAU_object@@PAU1@0@Z
	DD	01H
	ORG $+4
	DD	00H
	DD	00H
	DD	00H
	ORG $+4
_DATA	ENDS
;	COMDAT ??_C@_0BG@NFCFIEJP@SetAmbienceSoundScale?$AA@
CONST	SEGMENT
??_C@_0BG@NFCFIEJP@SetAmbienceSoundScale?$AA@ DB 'SetAmbienceSoundScale', 00H ; `string'
CONST	ENDS
;	COMDAT ??_C@_03OEOJGHBI@snd?$AA@
CONST	SEGMENT
??_C@_03OEOJGHBI@snd?$AA@ DB 'snd', 00H			; `string'
CONST	ENDS
;	COMDAT ??_C@_0P@HMFDLJNN@SetSoundVolume?$AA@
CONST	SEGMENT
??_C@_0P@HMFDLJNN@SetSoundVolume?$AA@ DB 'SetSoundVolume', 00H ; `string'
CONST	ENDS
;	COMDAT ??_C@_0O@OPHEJIB@SetSoundScale?$AA@
CONST	SEGMENT
??_C@_0O@OPHEJIB@SetSoundScale?$AA@ DB 'SetSoundScale', 00H ; `string'
CONST	ENDS
;	COMDAT ??_C@_0P@LGJJAPOH@SetMusicVolume?$AA@
CONST	SEGMENT
??_C@_0P@LGJJAPOH@SetMusicVolume?$AA@ DB 'SetMusicVolume', 00H ; `string'
CONST	ENDS
;	COMDAT ??_C@_0BA@MLLJDBPB@SetSoundVolumef?$AA@
CONST	SEGMENT
??_C@_0BA@MLLJDBPB@SetSoundVolumef?$AA@ DB 'SetSoundVolumef', 00H ; `string'
CONST	ENDS
;	COMDAT ??_C@_0N@NKBILJOM@StopAllSound?$AA@
CONST	SEGMENT
??_C@_0N@NKBILJOM@StopAllSound?$AA@ DB 'StopAllSound', 00H ; `string'
CONST	ENDS
;	COMDAT ??_C@_0BA@NHPCCPF@SetMusicVolumef?$AA@
CONST	SEGMENT
??_C@_0BA@NHPCCPF@SetMusicVolumef?$AA@ DB 'SetMusicVolumef', 00H ; `string'
CONST	ENDS
;	COMDAT ??_C@_0BA@NBPABKIH@FadeOutAllMusic?$AA@
CONST	SEGMENT
??_C@_0BA@NBPABKIH@FadeOutAllMusic?$AA@ DB 'FadeOutAllMusic', 00H ; `string'
CONST	ENDS
;	COMDAT ??_C@_0BC@MLGHBKAP@FadeLimitOutMusic?$AA@
CONST	SEGMENT
??_C@_0BC@MLGHBKAP@FadeLimitOutMusic?$AA@ DB 'FadeLimitOutMusic', 00H ; `string'
CONST	ENDS
;	COMDAT ??_C@_0M@BLCFFNFD@FadeInMusic?$AA@
CONST	SEGMENT
??_C@_0M@BLCFFNFD@FadeInMusic?$AA@ DB 'FadeInMusic', 00H ; `string'
CONST	ENDS
;	COMDAT ??_C@_0N@IGMDOLEM@FadeOutMusic?$AA@
CONST	SEGMENT
??_C@_0N@IGMDOLEM@FadeOutMusic?$AA@ DB 'FadeOutMusic', 00H ; `string'
CONST	ENDS
;	COMDAT ??_C@_0M@FNHMFBEI@PlaySound3D?$AA@
CONST	SEGMENT
??_C@_0M@FNHMFBEI@PlaySound3D?$AA@ DB 'PlaySound3D', 00H ; `string'
CONST	ENDS
;	COMDAT ??_C@_09IICPOHBI@PlayMusic?$AA@
CONST	SEGMENT
??_C@_09IICPOHBI@PlayMusic?$AA@ DB 'PlayMusic', 00H	; `string'
CONST	ENDS
;	COMDAT ??_C@_09PEMGNEEO@PlaySound?$AA@
CONST	SEGMENT
??_C@_09PEMGNEEO@PlaySound?$AA@ DB 'PlaySound', 00H	; `string'
PUBLIC	?initsnd@@YAXXZ					; initsnd
PUBLIC	?sndSetAmbienceSoundScale@@YAPAU_object@@PAU1@0@Z ; sndSetAmbienceSoundScale
PUBLIC	?sndSetSoundScale@@YAPAU_object@@PAU1@0@Z	; sndSetSoundScale
PUBLIC	?sndSetSoundVolume@@YAPAU_object@@PAU1@0@Z	; sndSetSoundVolume
PUBLIC	?sndSetSoundVolumef@@YAPAU_object@@PAU1@0@Z	; sndSetSoundVolumef
PUBLIC	?sndSetMusicVolume@@YAPAU_object@@PAU1@0@Z	; sndSetMusicVolume
PUBLIC	?sndStopAllSound@@YAPAU_object@@PAU1@0@Z	; sndStopAllSound
PUBLIC	?sndFadeLimitOutMusic@@YAPAU_object@@PAU1@0@Z	; sndFadeLimitOutMusic
PUBLIC	?sndFadeOutAllMusic@@YAPAU_object@@PAU1@0@Z	; sndFadeOutAllMusic
PUBLIC	?sndFadeOutMusic@@YAPAU_object@@PAU1@0@Z	; sndFadeOutMusic
PUBLIC	?sndFadeInMusic@@YAPAU_object@@PAU1@0@Z		; sndFadeInMusic
PUBLIC	?sndPlayMusic@@YAPAU_object@@PAU1@0@Z		; sndPlayMusic
PUBLIC	?sndPlaySound3D@@YAPAU_object@@PAU1@0@Z		; sndPlaySound3D
PUBLIC	?sndPlaySoundA@@YAPAU_object@@PAU1@0@Z		; sndPlaySoundA
	ALIGN	4

_piecewise_construct DB 01H DUP (?)
_BSS	ENDS
; Function compile flags: /Ogtp
; File d:\metin2\metin2\client_source_clean\client_source_clean\source\userinterface\pythonsoundmanagermodule.cpp
;	COMDAT ?sndPlaySoundA@@YAPAU_object@@PAU1@0@Z
_TEXT	SEGMENT
_szFileName$ = -4					; size = 4
_poSelf$ = 8						; size = 4
_poArgs$ = 12						; size = 4
?sndPlaySoundA@@YAPAU_object@@PAU1@0@Z PROC		; sndPlaySoundA, COMDAT

; 5    : {

  00000	55		 push	 ebp
  00001	8b ec		 mov	 ebp, esp
  00003	51		 push	 ecx

; 6    : 	char * szFileName;
; 7    : 	if (!PyTuple_GetString(poArgs, 0, &szFileName))

  00004	8d 45 fc	 lea	 eax, DWORD PTR _szFileName$[ebp]
  00007	50		 push	 eax
  00008	6a 00		 push	 0
  0000a	ff 75 0c	 push	 DWORD PTR _poArgs$[ebp]
  0000d	e8 00 00 00 00	 call	 ?PyTuple_GetString@@YA_NPAU_object@@HPAPAD@Z ; PyTuple_GetString
  00012	83 c4 0c	 add	 esp, 12			; 0000000cH
  00015	84 c0		 test	 al, al
  00017	75 0e		 jne	 SHORT $LN1@sndPlaySou

; 8    : 		return Py_BuildException();

  00019	6a 00		 push	 0
  0001b	e8 00 00 00 00	 call	 ?Py_BuildException@@YAPAU_object@@PBDZZ ; Py_BuildException
  00020	83 c4 04	 add	 esp, 4

; 13   : }

  00023	8b e5		 mov	 esp, ebp
  00025	5d		 pop	 ebp
  00026	c3		 ret	 0
$LN1@sndPlaySou:

; 9    : 
; 10   : 	CSoundManager& rkSndMgr=CSoundManager::Instance();
; 11   : 	rkSndMgr.PlaySound2D(szFileName);

  00027	ff 75 fc	 push	 DWORD PTR _szFileName$[ebp]
  0002a	8b 0d 00 00 00
	00		 mov	 ecx, DWORD PTR ?ms_singleton@?$CSingleton@VCSoundManager@@@@0PAVCSoundManager@@A ; CSingleton<CSoundManager>::ms_singleton
  00030	e8 00 00 00 00	 call	 ?PlaySound2D@CSoundManager@@QAEXPBD@Z ; CSoundManager::PlaySound2D

; 12   : 	return Py_BuildNone();

  00035	e8 00 00 00 00	 call	 ?Py_BuildNone@@YAPAU_object@@XZ ; Py_BuildNone

; 13   : }

  0003a	8b e5		 mov	 esp, ebp
  0003c	5d		 pop	 ebp
  0003d	c3		 ret	 0
?sndPlaySoundA@@YAPAU_object@@PAU1@0@Z ENDP		; sndPlaySoundA
_TEXT	ENDS
; Function compile flags: /Ogtp
; File d:\metin2\metin2\client_source_clean\client_source_clean\source\userinterface\pythonsoundmanagermodule.cpp
;	COMDAT ?sndPlaySound3D@@YAPAU_object@@PAU1@0@Z
_TEXT	SEGMENT
_fx$ = -16						; size = 4
_fy$ = -12						; size = 4
_fz$ = -8						; size = 4
_szFileName$ = -4					; size = 4
_poSelf$ = 8						; size = 4
_poArgs$ = 12						; size = 4
?sndPlaySound3D@@YAPAU_object@@PAU1@0@Z PROC		; sndPlaySound3D, COMDAT

; 16   : {

  00000	55		 push	 ebp
  00001	8b ec		 mov	 ebp, esp
  00003	83 ec 10	 sub	 esp, 16			; 00000010H

; 17   : 	float fx;
; 18   : 	if (!PyTuple_GetFloat(poArgs, 0, &fx))

  00006	8d 45 f0	 lea	 eax, DWORD PTR _fx$[ebp]
  00009	56		 push	 esi
  0000a	8b 75 0c	 mov	 esi, DWORD PTR _poArgs$[ebp]
  0000d	50		 push	 eax
  0000e	6a 00		 push	 0
  00010	56		 push	 esi
  00011	e8 00 00 00 00	 call	 ?PyTuple_GetFloat@@YA_NPAU_object@@HPAM@Z ; PyTuple_GetFloat
  00016	83 c4 0c	 add	 esp, 12			; 0000000cH
  00019	84 c0		 test	 al, al
  0001b	75 0f		 jne	 SHORT $LN4@sndPlaySou
$LN9@sndPlaySou:

; 19   : 		return Py_BuildException();

  0001d	6a 00		 push	 0
  0001f	e8 00 00 00 00	 call	 ?Py_BuildException@@YAPAU_object@@PBDZZ ; Py_BuildException
  00024	83 c4 04	 add	 esp, 4
  00027	5e		 pop	 esi

; 33   : }

  00028	8b e5		 mov	 esp, ebp
  0002a	5d		 pop	 ebp
  0002b	c3		 ret	 0
$LN4@sndPlaySou:

; 20   : 	float fy;
; 21   : 	if (!PyTuple_GetFloat(poArgs, 1, &fy))

  0002c	8d 45 f4	 lea	 eax, DWORD PTR _fy$[ebp]
  0002f	50		 push	 eax
  00030	6a 01		 push	 1
  00032	56		 push	 esi
  00033	e8 00 00 00 00	 call	 ?PyTuple_GetFloat@@YA_NPAU_object@@HPAM@Z ; PyTuple_GetFloat
  00038	83 c4 0c	 add	 esp, 12			; 0000000cH
  0003b	84 c0		 test	 al, al
  0003d	74 de		 je	 SHORT $LN9@sndPlaySou

; 22   : 		return Py_BuildException();
; 23   : 	float fz;
; 24   : 	if (!PyTuple_GetFloat(poArgs, 2, &fz))

  0003f	8d 45 f8	 lea	 eax, DWORD PTR _fz$[ebp]
  00042	50		 push	 eax
  00043	6a 02		 push	 2
  00045	56		 push	 esi
  00046	e8 00 00 00 00	 call	 ?PyTuple_GetFloat@@YA_NPAU_object@@HPAM@Z ; PyTuple_GetFloat
  0004b	83 c4 0c	 add	 esp, 12			; 0000000cH
  0004e	84 c0		 test	 al, al
  00050	74 cb		 je	 SHORT $LN9@sndPlaySou

; 25   : 		return Py_BuildException();
; 26   : 	char * szFileName;
; 27   : 	if (!PyTuple_GetString(poArgs, 3, &szFileName))

  00052	8d 45 fc	 lea	 eax, DWORD PTR _szFileName$[ebp]
  00055	50		 push	 eax
  00056	6a 03		 push	 3
  00058	56		 push	 esi
  00059	e8 00 00 00 00	 call	 ?PyTuple_GetString@@YA_NPAU_object@@HPAPAD@Z ; PyTuple_GetString
  0005e	83 c4 0c	 add	 esp, 12			; 0000000cH
  00061	84 c0		 test	 al, al
  00063	74 b8		 je	 SHORT $LN9@sndPlaySou

; 28   : 		return Py_BuildException();
; 29   : 
; 30   : 	CSoundManager& rkSndMgr=CSoundManager::Instance();
; 31   : 	rkSndMgr.PlaySound3D(fx, fy, fz, szFileName);

  00065	f3 0f 10 45 f8	 movss	 xmm0, DWORD PTR _fz$[ebp]
  0006a	8b 0d 00 00 00
	00		 mov	 ecx, DWORD PTR ?ms_singleton@?$CSingleton@VCSoundManager@@@@0PAVCSoundManager@@A ; CSingleton<CSoundManager>::ms_singleton
  00070	6a 01		 push	 1
  00072	ff 75 fc	 push	 DWORD PTR _szFileName$[ebp]
  00075	83 ec 0c	 sub	 esp, 12			; 0000000cH
  00078	f3 0f 11 44 24
	08		 movss	 DWORD PTR [esp+8], xmm0
  0007e	f3 0f 10 45 f4	 movss	 xmm0, DWORD PTR _fy$[ebp]
  00083	f3 0f 11 44 24
	04		 movss	 DWORD PTR [esp+4], xmm0
  00089	f3 0f 10 45 f0	 movss	 xmm0, DWORD PTR _fx$[ebp]
  0008e	f3 0f 11 04 24	 movss	 DWORD PTR [esp], xmm0
  00093	e8 00 00 00 00	 call	 ?PlaySound3D@CSoundManager@@QAEXMMMPBDH@Z ; CSoundManager::PlaySound3D

; 32   : 	return Py_BuildNone();

  00098	e8 00 00 00 00	 call	 ?Py_BuildNone@@YAPAU_object@@XZ ; Py_BuildNone
  0009d	5e		 pop	 esi

; 33   : }

  0009e	8b e5		 mov	 esp, ebp
  000a0	5d		 pop	 ebp
  000a1	c3		 ret	 0
?sndPlaySound3D@@YAPAU_object@@PAU1@0@Z ENDP		; sndPlaySound3D
_TEXT	ENDS
; Function compile flags: /Ogtp
; File d:\metin2\metin2\client_source_clean\client_source_clean\source\userinterface\pythonsoundmanagermodule.cpp
;	COMDAT ?sndPlayMusic@@YAPAU_object@@PAU1@0@Z
_TEXT	SEGMENT
_szFileName$ = -4					; size = 4
_poSelf$ = 8						; size = 4
_poArgs$ = 12						; size = 4
?sndPlayMusic@@YAPAU_object@@PAU1@0@Z PROC		; sndPlayMusic, COMDAT

; 36   : {

  00000	55		 push	 ebp
  00001	8b ec		 mov	 ebp, esp
  00003	51		 push	 ecx

; 37   : 	char * szFileName;
; 38   : 	if (!PyTuple_GetString(poArgs, 0, &szFileName))

  00004	8d 45 fc	 lea	 eax, DWORD PTR _szFileName$[ebp]
  00007	50		 push	 eax
  00008	6a 00		 push	 0
  0000a	ff 75 0c	 push	 DWORD PTR _poArgs$[ebp]
  0000d	e8 00 00 00 00	 call	 ?PyTuple_GetString@@YA_NPAU_object@@HPAPAD@Z ; PyTuple_GetString
  00012	83 c4 0c	 add	 esp, 12			; 0000000cH
  00015	84 c0		 test	 al, al
  00017	75 0e		 jne	 SHORT $LN1@sndPlayMus

; 39   : 		return Py_BuildException();

  00019	6a 00		 push	 0
  0001b	e8 00 00 00 00	 call	 ?Py_BuildException@@YAPAU_object@@PBDZZ ; Py_BuildException
  00020	83 c4 04	 add	 esp, 4

; 44   : }

  00023	8b e5		 mov	 esp, ebp
  00025	5d		 pop	 ebp
  00026	c3		 ret	 0
$LN1@sndPlayMus:

; 40   : 
; 41   : 	CSoundManager& rkSndMgr=CSoundManager::Instance();
; 42   : 	rkSndMgr.PlayMusic(szFileName);

  00027	ff 75 fc	 push	 DWORD PTR _szFileName$[ebp]
  0002a	8b 0d 00 00 00
	00		 mov	 ecx, DWORD PTR ?ms_singleton@?$CSingleton@VCSoundManager@@@@0PAVCSoundManager@@A ; CSingleton<CSoundManager>::ms_singleton
  00030	e8 00 00 00 00	 call	 ?PlayMusic@CSoundManager@@QAEXPBD@Z ; CSoundManager::PlayMusic

; 43   : 	return Py_BuildNone();

  00035	e8 00 00 00 00	 call	 ?Py_BuildNone@@YAPAU_object@@XZ ; Py_BuildNone

; 44   : }

  0003a	8b e5		 mov	 esp, ebp
  0003c	5d		 pop	 ebp
  0003d	c3		 ret	 0
?sndPlayMusic@@YAPAU_object@@PAU1@0@Z ENDP		; sndPlayMusic
_TEXT	ENDS
; Function compile flags: /Ogtp
; File d:\metin2\metin2\client_source_clean\client_source_clean\source\userinterface\pythonsoundmanagermodule.cpp
;	COMDAT ?sndFadeInMusic@@YAPAU_object@@PAU1@0@Z
_TEXT	SEGMENT
_szFileName$ = -4					; size = 4
_poSelf$ = 8						; size = 4
_poArgs$ = 12						; size = 4
?sndFadeInMusic@@YAPAU_object@@PAU1@0@Z PROC		; sndFadeInMusic, COMDAT

; 47   : {

  00000	55		 push	 ebp
  00001	8b ec		 mov	 ebp, esp
  00003	51		 push	 ecx

; 48   : 	char * szFileName;
; 49   : 	if (!PyTuple_GetString(poArgs, 0, &szFileName))

  00004	8d 45 fc	 lea	 eax, DWORD PTR _szFileName$[ebp]
  00007	50		 push	 eax
  00008	6a 00		 push	 0
  0000a	ff 75 0c	 push	 DWORD PTR _poArgs$[ebp]
  0000d	e8 00 00 00 00	 call	 ?PyTuple_GetString@@YA_NPAU_object@@HPAPAD@Z ; PyTuple_GetString
  00012	83 c4 0c	 add	 esp, 12			; 0000000cH
  00015	84 c0		 test	 al, al
  00017	75 0e		 jne	 SHORT $LN1@sndFadeInM

; 50   : 		return Py_BuildException();

  00019	6a 00		 push	 0
  0001b	e8 00 00 00 00	 call	 ?Py_BuildException@@YAPAU_object@@PBDZZ ; Py_BuildException
  00020	83 c4 04	 add	 esp, 4

; 55   : }

  00023	8b e5		 mov	 esp, ebp
  00025	5d		 pop	 ebp
  00026	c3		 ret	 0
$LN1@sndFadeInM:

; 51   : 
; 52   : 	CSoundManager& rkSndMgr=CSoundManager::Instance();
; 53   : 	rkSndMgr.FadeInMusic(szFileName);

  00027	51		 push	 ecx
  00028	8b 0d 00 00 00
	00		 mov	 ecx, DWORD PTR ?ms_singleton@?$CSingleton@VCSoundManager@@@@0PAVCSoundManager@@A ; CSingleton<CSoundManager>::ms_singleton
  0002e	c7 04 24 6f 12
	83 3c		 mov	 DWORD PTR [esp], 1015222895 ; 3c83126fH
  00035	ff 75 fc	 push	 DWORD PTR _szFileName$[ebp]
  00038	e8 00 00 00 00	 call	 ?FadeInMusic@CSoundManager@@QAEXPBDM@Z ; CSoundManager::FadeInMusic

; 54   : 	return Py_BuildNone();

  0003d	e8 00 00 00 00	 call	 ?Py_BuildNone@@YAPAU_object@@XZ ; Py_BuildNone

; 55   : }

  00042	8b e5		 mov	 esp, ebp
  00044	5d		 pop	 ebp
  00045	c3		 ret	 0
?sndFadeInMusic@@YAPAU_object@@PAU1@0@Z ENDP		; sndFadeInMusic
_TEXT	ENDS
; Function compile flags: /Ogtp
; File d:\metin2\metin2\client_source_clean\client_source_clean\source\userinterface\pythonsoundmanagermodule.cpp
;	COMDAT ?sndFadeOutMusic@@YAPAU_object@@PAU1@0@Z
_TEXT	SEGMENT
_szFileName$ = -4					; size = 4
_poSelf$ = 8						; size = 4
_poArgs$ = 12						; size = 4
?sndFadeOutMusic@@YAPAU_object@@PAU1@0@Z PROC		; sndFadeOutMusic, COMDAT

; 58   : {

  00000	55		 push	 ebp
  00001	8b ec		 mov	 ebp, esp
  00003	51		 push	 ecx

; 59   : 	char * szFileName;
; 60   : 	if (!PyTuple_GetString(poArgs, 0, &szFileName))

  00004	8d 45 fc	 lea	 eax, DWORD PTR _szFileName$[ebp]
  00007	50		 push	 eax
  00008	6a 00		 push	 0
  0000a	ff 75 0c	 push	 DWORD PTR _poArgs$[ebp]
  0000d	e8 00 00 00 00	 call	 ?PyTuple_GetString@@YA_NPAU_object@@HPAPAD@Z ; PyTuple_GetString
  00012	83 c4 0c	 add	 esp, 12			; 0000000cH
  00015	84 c0		 test	 al, al
  00017	75 0e		 jne	 SHORT $LN1@sndFadeOut

; 61   : 		return Py_BuildException();

  00019	6a 00		 push	 0
  0001b	e8 00 00 00 00	 call	 ?Py_BuildException@@YAPAU_object@@PBDZZ ; Py_BuildException
  00020	83 c4 04	 add	 esp, 4

; 66   : }

  00023	8b e5		 mov	 esp, ebp
  00025	5d		 pop	 ebp
  00026	c3		 ret	 0
$LN1@sndFadeOut:

; 62   : 
; 63   : 	CSoundManager& rkSndMgr=CSoundManager::Instance();
; 64   : 	rkSndMgr.FadeOutMusic(szFileName);

  00027	51		 push	 ecx
  00028	8b 0d 00 00 00
	00		 mov	 ecx, DWORD PTR ?ms_singleton@?$CSingleton@VCSoundManager@@@@0PAVCSoundManager@@A ; CSingleton<CSoundManager>::ms_singleton
  0002e	c7 04 24 6f 12
	83 3c		 mov	 DWORD PTR [esp], 1015222895 ; 3c83126fH
  00035	ff 75 fc	 push	 DWORD PTR _szFileName$[ebp]
  00038	e8 00 00 00 00	 call	 ?FadeOutMusic@CSoundManager@@QAEXPBDM@Z ; CSoundManager::FadeOutMusic

; 65   : 	return Py_BuildNone();

  0003d	e8 00 00 00 00	 call	 ?Py_BuildNone@@YAPAU_object@@XZ ; Py_BuildNone

; 66   : }

  00042	8b e5		 mov	 esp, ebp
  00044	5d		 pop	 ebp
  00045	c3		 ret	 0
?sndFadeOutMusic@@YAPAU_object@@PAU1@0@Z ENDP		; sndFadeOutMusic
_TEXT	ENDS
; Function compile flags: /Ogtp
; File d:\metin2\metin2\client_source_clean\client_source_clean\source\userinterface\pythonsoundmanagermodule.cpp
;	COMDAT ?sndFadeOutAllMusic@@YAPAU_object@@PAU1@0@Z
_TEXT	SEGMENT
_poSelf$ = 8						; size = 4
_poArgs$ = 12						; size = 4
?sndFadeOutAllMusic@@YAPAU_object@@PAU1@0@Z PROC	; sndFadeOutAllMusic, COMDAT

; 70   : 	CSoundManager& rkSndMgr=CSoundManager::Instance();
; 71   : 	rkSndMgr.FadeOutAllMusic();

  00000	8b 0d 00 00 00
	00		 mov	 ecx, DWORD PTR ?ms_singleton@?$CSingleton@VCSoundManager@@@@0PAVCSoundManager@@A ; CSingleton<CSoundManager>::ms_singleton
  00006	e8 00 00 00 00	 call	 ?FadeOutAllMusic@CSoundManager@@QAEXXZ ; CSoundManager::FadeOutAllMusic

; 72   : 	return Py_BuildNone();

  0000b	e9 00 00 00 00	 jmp	 ?Py_BuildNone@@YAPAU_object@@XZ ; Py_BuildNone
?sndFadeOutAllMusic@@YAPAU_object@@PAU1@0@Z ENDP	; sndFadeOutAllMusic
_TEXT	ENDS
; Function compile flags: /Ogtp
; File d:\metin2\metin2\client_source_clean\client_source_clean\source\userinterface\pythonsoundmanagermodule.cpp
;	COMDAT ?sndFadeLimitOutMusic@@YAPAU_object@@PAU1@0@Z
_TEXT	SEGMENT
_szFileName$ = -8					; size = 4
_fLimitVolume$ = -4					; size = 4
_poSelf$ = 8						; size = 4
_poArgs$ = 12						; size = 4
?sndFadeLimitOutMusic@@YAPAU_object@@PAU1@0@Z PROC	; sndFadeLimitOutMusic, COMDAT

; 76   : {

  00000	55		 push	 ebp
  00001	8b ec		 mov	 ebp, esp
  00003	83 ec 08	 sub	 esp, 8

; 77   : 	char * szFileName;
; 78   : 	if (!PyTuple_GetString(poArgs, 0, &szFileName))

  00006	8d 45 f8	 lea	 eax, DWORD PTR _szFileName$[ebp]
  00009	50		 push	 eax
  0000a	6a 00		 push	 0
  0000c	ff 75 0c	 push	 DWORD PTR _poArgs$[ebp]
  0000f	e8 00 00 00 00	 call	 ?PyTuple_GetString@@YA_NPAU_object@@HPAPAD@Z ; PyTuple_GetString
  00014	83 c4 0c	 add	 esp, 12			; 0000000cH
  00017	84 c0		 test	 al, al
  00019	75 0e		 jne	 SHORT $LN2@sndFadeLim
$LN7@sndFadeLim:

; 79   : 		return Py_BuildException();

  0001b	6a 00		 push	 0
  0001d	e8 00 00 00 00	 call	 ?Py_BuildException@@YAPAU_object@@PBDZZ ; Py_BuildException
  00022	83 c4 04	 add	 esp, 4

; 88   : }

  00025	8b e5		 mov	 esp, ebp
  00027	5d		 pop	 ebp
  00028	c3		 ret	 0
$LN2@sndFadeLim:

; 80   : 
; 81   : 	float fLimitVolume;
; 82   : 	if (!PyTuple_GetFloat(poArgs, 1, &fLimitVolume))

  00029	8d 45 fc	 lea	 eax, DWORD PTR _fLimitVolume$[ebp]
  0002c	50		 push	 eax
  0002d	6a 01		 push	 1
  0002f	ff 75 0c	 push	 DWORD PTR _poArgs$[ebp]
  00032	e8 00 00 00 00	 call	 ?PyTuple_GetFloat@@YA_NPAU_object@@HPAM@Z ; PyTuple_GetFloat
  00037	83 c4 0c	 add	 esp, 12			; 0000000cH
  0003a	84 c0		 test	 al, al
  0003c	74 dd		 je	 SHORT $LN7@sndFadeLim

; 83   : 		return Py_BuildException();
; 84   : 
; 85   : 	CSoundManager& rkSndMgr=CSoundManager::Instance();
; 86   : 	rkSndMgr.FadeLimitOutMusic(szFileName, fLimitVolume);

  0003e	f3 0f 10 45 fc	 movss	 xmm0, DWORD PTR _fLimitVolume$[ebp]
  00043	83 ec 08	 sub	 esp, 8
  00046	8b 0d 00 00 00
	00		 mov	 ecx, DWORD PTR ?ms_singleton@?$CSingleton@VCSoundManager@@@@0PAVCSoundManager@@A ; CSingleton<CSoundManager>::ms_singleton
  0004c	c7 44 24 04 6f
	12 83 3c	 mov	 DWORD PTR [esp+4], 1015222895 ; 3c83126fH
  00054	f3 0f 11 04 24	 movss	 DWORD PTR [esp], xmm0
  00059	ff 75 f8	 push	 DWORD PTR _szFileName$[ebp]
  0005c	e8 00 00 00 00	 call	 ?FadeLimitOutMusic@CSoundManager@@QAEXPBDMM@Z ; CSoundManager::FadeLimitOutMusic

; 87   : 	return Py_BuildNone();

  00061	e8 00 00 00 00	 call	 ?Py_BuildNone@@YAPAU_object@@XZ ; Py_BuildNone

; 88   : }

  00066	8b e5		 mov	 esp, ebp
  00068	5d		 pop	 ebp
  00069	c3		 ret	 0
?sndFadeLimitOutMusic@@YAPAU_object@@PAU1@0@Z ENDP	; sndFadeLimitOutMusic
_TEXT	ENDS
; Function compile flags: /Ogtp
; File d:\metin2\metin2\client_source_clean\client_source_clean\source\userinterface\pythonsoundmanagermodule.cpp
;	COMDAT ?sndStopAllSound@@YAPAU_object@@PAU1@0@Z
_TEXT	SEGMENT
_poSelf$ = 8						; size = 4
_poArgs$ = 12						; size = 4
?sndStopAllSound@@YAPAU_object@@PAU1@0@Z PROC		; sndStopAllSound, COMDAT

; 92   : 	CSoundManager& rkSndMgr=CSoundManager::Instance();
; 93   : 	rkSndMgr.StopAllSound3D();

  00000	8b 0d 00 00 00
	00		 mov	 ecx, DWORD PTR ?ms_singleton@?$CSingleton@VCSoundManager@@@@0PAVCSoundManager@@A ; CSingleton<CSoundManager>::ms_singleton
  00006	e8 00 00 00 00	 call	 ?StopAllSound3D@CSoundManager@@QAEXXZ ; CSoundManager::StopAllSound3D

; 94   : 	return Py_BuildNone();

  0000b	e9 00 00 00 00	 jmp	 ?Py_BuildNone@@YAPAU_object@@XZ ; Py_BuildNone
?sndStopAllSound@@YAPAU_object@@PAU1@0@Z ENDP		; sndStopAllSound
_TEXT	ENDS
; Function compile flags: /Ogtp
; File d:\metin2\metin2\client_source_clean\client_source_clean\source\userinterface\pythonsoundmanagermodule.cpp
;	COMDAT ?sndSetMusicVolume@@YAPAU_object@@PAU1@0@Z
_TEXT	SEGMENT
_fVolume$ = -4						; size = 4
_poSelf$ = 8						; size = 4
_poArgs$ = 12						; size = 4
?sndSetMusicVolume@@YAPAU_object@@PAU1@0@Z PROC		; sndSetMusicVolume, COMDAT

; 98   : {

  00000	55		 push	 ebp
  00001	8b ec		 mov	 ebp, esp
  00003	51		 push	 ecx

; 99   : 	float fVolume;
; 100  : 	if (!PyTuple_GetFloat(poArgs, 0, &fVolume))

  00004	8d 45 fc	 lea	 eax, DWORD PTR _fVolume$[ebp]
  00007	50		 push	 eax
  00008	6a 00		 push	 0
  0000a	ff 75 0c	 push	 DWORD PTR _poArgs$[ebp]
  0000d	e8 00 00 00 00	 call	 ?PyTuple_GetFloat@@YA_NPAU_object@@HPAM@Z ; PyTuple_GetFloat
  00012	83 c4 0c	 add	 esp, 12			; 0000000cH
  00015	84 c0		 test	 al, al
  00017	75 0e		 jne	 SHORT $LN1@sndSetMusi

; 101  : 		return Py_BuildException();

  00019	6a 00		 push	 0
  0001b	e8 00 00 00 00	 call	 ?Py_BuildException@@YAPAU_object@@PBDZZ ; Py_BuildException
  00020	83 c4 04	 add	 esp, 4

; 106  : }

  00023	8b e5		 mov	 esp, ebp
  00025	5d		 pop	 ebp
  00026	c3		 ret	 0
$LN1@sndSetMusi:

; 102  : 
; 103  : 	CSoundManager& rkSndMgr=CSoundManager::Instance();	
; 104  : 	rkSndMgr.SetMusicVolume(fVolume);

  00027	f3 0f 10 45 fc	 movss	 xmm0, DWORD PTR _fVolume$[ebp]
  0002c	51		 push	 ecx
  0002d	8b 0d 00 00 00
	00		 mov	 ecx, DWORD PTR ?ms_singleton@?$CSingleton@VCSoundManager@@@@0PAVCSoundManager@@A ; CSingleton<CSoundManager>::ms_singleton
  00033	f3 0f 11 04 24	 movss	 DWORD PTR [esp], xmm0
  00038	e8 00 00 00 00	 call	 ?SetMusicVolume@CSoundManager@@QAEXM@Z ; CSoundManager::SetMusicVolume

; 105  : 	return Py_BuildNone();

  0003d	e8 00 00 00 00	 call	 ?Py_BuildNone@@YAPAU_object@@XZ ; Py_BuildNone

; 106  : }

  00042	8b e5		 mov	 esp, ebp
  00044	5d		 pop	 ebp
  00045	c3		 ret	 0
?sndSetMusicVolume@@YAPAU_object@@PAU1@0@Z ENDP		; sndSetMusicVolume
_TEXT	ENDS
; Function compile flags: /Ogtp
; File d:\metin2\metin2\client_source_clean\client_source_clean\source\userinterface\pythonsoundmanagermodule.cpp
;	COMDAT ?sndSetSoundVolumef@@YAPAU_object@@PAU1@0@Z
_TEXT	SEGMENT
_fVolume$ = -4						; size = 4
_poSelf$ = 8						; size = 4
_poArgs$ = 12						; size = 4
?sndSetSoundVolumef@@YAPAU_object@@PAU1@0@Z PROC	; sndSetSoundVolumef, COMDAT

; 109  : {

  00000	55		 push	 ebp
  00001	8b ec		 mov	 ebp, esp
  00003	51		 push	 ecx

; 110  : 	float fVolume;
; 111  : 	if (!PyTuple_GetFloat(poArgs, 0, &fVolume))

  00004	8d 45 fc	 lea	 eax, DWORD PTR _fVolume$[ebp]
  00007	50		 push	 eax
  00008	6a 00		 push	 0
  0000a	ff 75 0c	 push	 DWORD PTR _poArgs$[ebp]
  0000d	e8 00 00 00 00	 call	 ?PyTuple_GetFloat@@YA_NPAU_object@@HPAM@Z ; PyTuple_GetFloat
  00012	83 c4 0c	 add	 esp, 12			; 0000000cH
  00015	84 c0		 test	 al, al
  00017	75 0e		 jne	 SHORT $LN1@sndSetSoun

; 112  : 		return Py_BuildException();

  00019	6a 00		 push	 0
  0001b	e8 00 00 00 00	 call	 ?Py_BuildException@@YAPAU_object@@PBDZZ ; Py_BuildException
  00020	83 c4 04	 add	 esp, 4

; 117  : }

  00023	8b e5		 mov	 esp, ebp
  00025	5d		 pop	 ebp
  00026	c3		 ret	 0
$LN1@sndSetSoun:

; 113  : 
; 114  : 	CSoundManager& rkSndMgr=CSoundManager::Instance();	
; 115  : 	rkSndMgr.SetSoundVolumeRatio(fVolume);

  00027	f3 0f 10 45 fc	 movss	 xmm0, DWORD PTR _fVolume$[ebp]
  0002c	51		 push	 ecx
  0002d	8b 0d 00 00 00
	00		 mov	 ecx, DWORD PTR ?ms_singleton@?$CSingleton@VCSoundManager@@@@0PAVCSoundManager@@A ; CSingleton<CSoundManager>::ms_singleton
  00033	f3 0f 11 04 24	 movss	 DWORD PTR [esp], xmm0
  00038	e8 00 00 00 00	 call	 ?SetSoundVolumeRatio@CSoundManager@@QAEXM@Z ; CSoundManager::SetSoundVolumeRatio

; 116  : 	return Py_BuildNone();

  0003d	e8 00 00 00 00	 call	 ?Py_BuildNone@@YAPAU_object@@XZ ; Py_BuildNone

; 117  : }

  00042	8b e5		 mov	 esp, ebp
  00044	5d		 pop	 ebp
  00045	c3		 ret	 0
?sndSetSoundVolumef@@YAPAU_object@@PAU1@0@Z ENDP	; sndSetSoundVolumef
_TEXT	ENDS
; Function compile flags: /Ogtp
; File d:\metin2\metin2\client_source_clean\client_source_clean\source\userinterface\pythonsoundmanagermodule.cpp
;	COMDAT ?sndSetSoundVolume@@YAPAU_object@@PAU1@0@Z
_TEXT	SEGMENT
_iVolume$ = -4						; size = 4
_poSelf$ = 8						; size = 4
_poArgs$ = 12						; size = 4
?sndSetSoundVolume@@YAPAU_object@@PAU1@0@Z PROC		; sndSetSoundVolume, COMDAT

; 121  : {

  00000	55		 push	 ebp
  00001	8b ec		 mov	 ebp, esp
  00003	51		 push	 ecx

; 122  : 	int iVolume;
; 123  : 	if (!PyTuple_GetInteger(poArgs, 0, &iVolume))

  00004	8d 45 fc	 lea	 eax, DWORD PTR _iVolume$[ebp]
  00007	50		 push	 eax
  00008	6a 00		 push	 0
  0000a	ff 75 0c	 push	 DWORD PTR _poArgs$[ebp]
  0000d	e8 00 00 00 00	 call	 ?PyTuple_GetInteger@@YA_NPAU_object@@HPAH@Z ; PyTuple_GetInteger
  00012	83 c4 0c	 add	 esp, 12			; 0000000cH
  00015	84 c0		 test	 al, al
  00017	75 0e		 jne	 SHORT $LN1@sndSetSoun

; 124  : 		return Py_BuildException();

  00019	6a 00		 push	 0
  0001b	e8 00 00 00 00	 call	 ?Py_BuildException@@YAPAU_object@@PBDZZ ; Py_BuildException
  00020	83 c4 04	 add	 esp, 4

; 129  : }

  00023	8b e5		 mov	 esp, ebp
  00025	5d		 pop	 ebp
  00026	c3		 ret	 0
$LN1@sndSetSoun:

; 125  : 
; 126  : 	CSoundManager& rkSndMgr=CSoundManager::Instance();
; 127  : 	rkSndMgr.SetSoundVolumeGrade(iVolume);

  00027	ff 75 fc	 push	 DWORD PTR _iVolume$[ebp]
  0002a	8b 0d 00 00 00
	00		 mov	 ecx, DWORD PTR ?ms_singleton@?$CSingleton@VCSoundManager@@@@0PAVCSoundManager@@A ; CSingleton<CSoundManager>::ms_singleton
  00030	e8 00 00 00 00	 call	 ?SetSoundVolumeGrade@CSoundManager@@QAEXH@Z ; CSoundManager::SetSoundVolumeGrade

; 128  : 	return Py_BuildNone();

  00035	e8 00 00 00 00	 call	 ?Py_BuildNone@@YAPAU_object@@XZ ; Py_BuildNone

; 129  : }

  0003a	8b e5		 mov	 esp, ebp
  0003c	5d		 pop	 ebp
  0003d	c3		 ret	 0
?sndSetSoundVolume@@YAPAU_object@@PAU1@0@Z ENDP		; sndSetSoundVolume
_TEXT	ENDS
; Function compile flags: /Ogtp
; File d:\metin2\metin2\client_source_clean\client_source_clean\source\userinterface\pythonsoundmanagermodule.cpp
;	COMDAT ?sndSetSoundScale@@YAPAU_object@@PAU1@0@Z
_TEXT	SEGMENT
_fScale$ = -4						; size = 4
_poSelf$ = 8						; size = 4
_poArgs$ = 12						; size = 4
?sndSetSoundScale@@YAPAU_object@@PAU1@0@Z PROC		; sndSetSoundScale, COMDAT

; 132  : {

  00000	55		 push	 ebp
  00001	8b ec		 mov	 ebp, esp
  00003	51		 push	 ecx

; 133  : 	float fScale;
; 134  : 	if (!PyTuple_GetFloat(poArgs, 0, &fScale))

  00004	8d 45 fc	 lea	 eax, DWORD PTR _fScale$[ebp]
  00007	50		 push	 eax
  00008	6a 00		 push	 0
  0000a	ff 75 0c	 push	 DWORD PTR _poArgs$[ebp]
  0000d	e8 00 00 00 00	 call	 ?PyTuple_GetFloat@@YA_NPAU_object@@HPAM@Z ; PyTuple_GetFloat
  00012	83 c4 0c	 add	 esp, 12			; 0000000cH
  00015	84 c0		 test	 al, al
  00017	75 0e		 jne	 SHORT $LN1@sndSetSoun

; 135  : 		return Py_BuildException();

  00019	6a 00		 push	 0
  0001b	e8 00 00 00 00	 call	 ?Py_BuildException@@YAPAU_object@@PBDZZ ; Py_BuildException
  00020	83 c4 04	 add	 esp, 4

; 140  : }

  00023	8b e5		 mov	 esp, ebp
  00025	5d		 pop	 ebp
  00026	c3		 ret	 0
$LN1@sndSetSoun:

; 136  : 
; 137  : 	CSoundManager& rkSndMgr=CSoundManager::Instance();
; 138  : 	rkSndMgr.SetSoundScale(fScale);

  00027	f3 0f 10 45 fc	 movss	 xmm0, DWORD PTR _fScale$[ebp]
  0002c	51		 push	 ecx
  0002d	8b 0d 00 00 00
	00		 mov	 ecx, DWORD PTR ?ms_singleton@?$CSingleton@VCSoundManager@@@@0PAVCSoundManager@@A ; CSingleton<CSoundManager>::ms_singleton
  00033	f3 0f 11 04 24	 movss	 DWORD PTR [esp], xmm0
  00038	e8 00 00 00 00	 call	 ?SetSoundScale@CSoundManager@@QAEXM@Z ; CSoundManager::SetSoundScale

; 139  : 	return Py_BuildNone();

  0003d	e8 00 00 00 00	 call	 ?Py_BuildNone@@YAPAU_object@@XZ ; Py_BuildNone

; 140  : }

  00042	8b e5		 mov	 esp, ebp
  00044	5d		 pop	 ebp
  00045	c3		 ret	 0
?sndSetSoundScale@@YAPAU_object@@PAU1@0@Z ENDP		; sndSetSoundScale
_TEXT	ENDS
; Function compile flags: /Ogtp
; File d:\metin2\metin2\client_source_clean\client_source_clean\source\userinterface\pythonsoundmanagermodule.cpp
;	COMDAT ?sndSetAmbienceSoundScale@@YAPAU_object@@PAU1@0@Z
_TEXT	SEGMENT
_fScale$ = -4						; size = 4
_poSelf$ = 8						; size = 4
_poArgs$ = 12						; size = 4
?sndSetAmbienceSoundScale@@YAPAU_object@@PAU1@0@Z PROC	; sndSetAmbienceSoundScale, COMDAT

; 143  : {

  00000	55		 push	 ebp
  00001	8b ec		 mov	 ebp, esp
  00003	51		 push	 ecx

; 144  : 	float fScale;
; 145  : 	if (!PyTuple_GetFloat(poArgs, 0, &fScale))

  00004	8d 45 fc	 lea	 eax, DWORD PTR _fScale$[ebp]
  00007	50		 push	 eax
  00008	6a 00		 push	 0
  0000a	ff 75 0c	 push	 DWORD PTR _poArgs$[ebp]
  0000d	e8 00 00 00 00	 call	 ?PyTuple_GetFloat@@YA_NPAU_object@@HPAM@Z ; PyTuple_GetFloat
  00012	83 c4 0c	 add	 esp, 12			; 0000000cH
  00015	84 c0		 test	 al, al
  00017	75 0e		 jne	 SHORT $LN1@sndSetAmbi

; 146  : 		return Py_BuildException();

  00019	6a 00		 push	 0
  0001b	e8 00 00 00 00	 call	 ?Py_BuildException@@YAPAU_object@@PBDZZ ; Py_BuildException
  00020	83 c4 04	 add	 esp, 4

; 151  : }

  00023	8b e5		 mov	 esp, ebp
  00025	5d		 pop	 ebp
  00026	c3		 ret	 0
$LN1@sndSetAmbi:

; 147  : 
; 148  : 	CSoundManager& rkSndMgr=CSoundManager::Instance();
; 149  : 	rkSndMgr.SetAmbienceSoundScale(fScale);

  00027	f3 0f 10 45 fc	 movss	 xmm0, DWORD PTR _fScale$[ebp]
  0002c	51		 push	 ecx
  0002d	8b 0d 00 00 00
	00		 mov	 ecx, DWORD PTR ?ms_singleton@?$CSingleton@VCSoundManager@@@@0PAVCSoundManager@@A ; CSingleton<CSoundManager>::ms_singleton
  00033	f3 0f 11 04 24	 movss	 DWORD PTR [esp], xmm0
  00038	e8 00 00 00 00	 call	 ?SetAmbienceSoundScale@CSoundManager@@QAEXM@Z ; CSoundManager::SetAmbienceSoundScale

; 150  : 	return Py_BuildNone();

  0003d	e8 00 00 00 00	 call	 ?Py_BuildNone@@YAPAU_object@@XZ ; Py_BuildNone

; 151  : }

  00042	8b e5		 mov	 esp, ebp
  00044	5d		 pop	 ebp
  00045	c3		 ret	 0
?sndSetAmbienceSoundScale@@YAPAU_object@@PAU1@0@Z ENDP	; sndSetAmbienceSoundScale
_TEXT	ENDS
; Function compile flags: /Ogtp
; File d:\metin2\metin2\client_source_clean\client_source_clean\source\userinterface\pythonsoundmanagermodule.cpp
;	COMDAT ?initsnd@@YAXXZ
_TEXT	SEGMENT
?initsnd@@YAXXZ PROC					; initsnd, COMDAT

; 155  : 	static PyMethodDef s_methods[] = 
; 156  : 	{
; 157  : 		{ "PlaySound",				sndPlaySound,				METH_VARARGS },
; 158  : 		{ "PlaySound3D",			sndPlaySound3D,				METH_VARARGS },
; 159  : 		{ "PlayMusic",				sndPlayMusic,				METH_VARARGS },
; 160  : 		{ "FadeInMusic",			sndFadeInMusic,				METH_VARARGS },
; 161  : 		{ "FadeOutMusic",			sndFadeOutMusic,			METH_VARARGS },
; 162  : 		{ "FadeOutAllMusic",		sndFadeOutAllMusic,			METH_VARARGS },
; 163  : 		{ "FadeLimitOutMusic",		sndFadeLimitOutMusic,		METH_VARARGS },
; 164  : 		{ "StopAllSound",			sndStopAllSound,			METH_VARARGS },
; 165  : 
; 166  : 		{ "SetMusicVolumef",		sndSetMusicVolume,			METH_VARARGS },
; 167  : 		{ "SetMusicVolume",			sndSetMusicVolume,			METH_VARARGS },
; 168  : 		{ "SetSoundVolumef",		sndSetSoundVolumef,			METH_VARARGS },
; 169  : 		{ "SetSoundVolume",			sndSetSoundVolume,			METH_VARARGS },
; 170  : 		{ "SetSoundScale",			sndSetSoundScale,			METH_VARARGS },
; 171  : 		{ "SetAmbienceSoundScale",	sndSetAmbienceSoundScale,	METH_VARARGS },
; 172  : 		{ NULL,						NULL,						NULL },
; 173  : 	};
; 174  : 
; 175  : 	Py_InitModule("snd", s_methods);

  00000	68 f5 03 00 00	 push	 1013			; 000003f5H
  00005	6a 00		 push	 0
  00007	6a 00		 push	 0
  00009	68 00 00 00 00	 push	 OFFSET ?s_methods@?1??initsnd@@YAXXZ@4PAUPyMethodDef@@A
  0000e	68 00 00 00 00	 push	 OFFSET ??_C@_03OEOJGHBI@snd?$AA@
  00013	ff 15 00 00 00
	00		 call	 DWORD PTR __imp__Py_InitModule4
  00019	83 c4 14	 add	 esp, 20			; 00000014H

; 176  : }

  0001c	c3		 ret	 0
?initsnd@@YAXXZ ENDP					; initsnd
_TEXT	ENDS
END
