; Listing generated by Microsoft (R) Optimizing Compiler Version 18.00.40629.0 

	TITLE	D:\Metin2\Metin2\client_source_clean\client_source_clean\source\UserInterface\PythonCharacterModule.cpp
	.686P
	.XMM
	include listing.inc
	.model	flat

INCLUDELIB OLDNAMES

PUBLIC	??_C@_06LJIOOKLP@NONAME?$AA@			; `string'
PUBLIC	??_C@_05DOPDBCAL@horse?$AA@			; `string'
PUBLIC	??_C@_01FJMABOPO@x?$AA@				; `string'
PUBLIC	??_C@_01EANLCPLP@y?$AA@				; `string'
PUBLIC	??_C@_04OHJIHAFH@None?$AA@			; `string'
PUBLIC	??_C@_0O@HFPHAOI@DismountHorse?$AA@		; `string'
PUBLIC	??_C@_0L@LJFIMMEM@MountHorse?$AA@		; `string'
PUBLIC	??_C@_06HIPPCDGO@Deform?$AA@			; `string'
PUBLIC	??_C@_0P@PGGGILHJ@CreateInstance?$AA@		; `string'
PUBLIC	??_C@_0P@OKILCDFI@DeleteInstance?$AA@		; `string'
PUBLIC	??_C@_0BF@EFFECMK@DeleteInstanceByFade?$AA@	; `string'
PUBLIC	??_C@_0P@HKEJIIJD@SelectInstance?$AA@		; `string'
PUBLIC	??_C@_0M@OJLCDJBP@HasInstance?$AA@		; `string'
PUBLIC	??_C@_07LKBCPMOI@IsEnemy?$AA@			; `string'
PUBLIC	??_C@_05BEDLICJP@IsNPC?$AA@			; `string'
PUBLIC	??_C@_0N@ICHIKNBJ@IsGameMaster?$AA@		; `string'
PUBLIC	??_C@_0O@FJCFNEGL@IsPartyMember?$AA@		; `string'
PUBLIC	??_C@_06HJGPBJLE@Select?$AA@			; `string'
PUBLIC	??_C@_0BB@FAHKALE@SetAddRenderMode?$AA@		; `string'
PUBLIC	??_C@_0BD@GJEGGPMO@SetBlendRenderMode?$AA@	; `string'
PUBLIC	??_C@_08DABDFNEI@Unselect?$AA@			; `string'
PUBLIC	??_C@_04EACEFPPN@Hide?$AA@			; `string'
PUBLIC	??_C@_04JLAJABDJ@Show?$AA@			; `string'
PUBLIC	??_C@_04ILHILILF@Pick?$AA@			; `string'
PUBLIC	??_C@_07BKHKMIHJ@PickAll?$AA@			; `string'
PUBLIC	??_C@_08CNNBONE@SetArmor?$AA@			; `string'
PUBLIC	??_C@_09LJGLIMMG@SetWeapon?$AA@			; `string'
PUBLIC	??_C@_0M@GMFNPFHE@ChangeShape?$AA@		; `string'
PUBLIC	??_C@_07JLBLBOHA@SetRace?$AA@			; `string'
PUBLIC	??_C@_07LJFPJABD@SetHair?$AA@			; `string'
PUBLIC	??_C@_0L@DAKFNGKA@ChangeHair?$AA@		; `string'
PUBLIC	??_C@_0N@GNEKMNPE@SetVirtualID?$AA@		; `string'
PUBLIC	??_C@_0O@OBMFICKC@SetNameString?$AA@		; `string'
PUBLIC	??_C@_0BA@OIHHKEBP@SetInstanceType?$AA@		; `string'
PUBLIC	??_C@_0BB@PNLNCHED@SetPixelPosition?$AA@	; `string'
PUBLIC	??_C@_0N@JGECPEGH@SetDirection?$AA@		; `string'
PUBLIC	??_C@_07POIENIBA@Refresh?$AA@			; `string'
PUBLIC	??_C@_06PGKKGABA@Revive?$AA@			; `string'
PUBLIC	??_C@_03JFEBIAME@Die?$AA@			; `string'
PUBLIC	??_C@_0BB@NOBBHECI@AttachEffectByID?$AA@	; `string'
PUBLIC	??_C@_0BD@HHHMIBBD@AttachEffectByName?$AA@	; `string'
PUBLIC	??_C@_06NFNEEJJI@LookAt?$AA@			; `string'
PUBLIC	??_C@_0O@MFBHEMHB@SetMotionMode?$AA@		; `string'
PUBLIC	??_C@_0O@LMHNCNAM@SetLoopMotion?$AA@		; `string'
PUBLIC	??_C@_0BA@JHKNHNFN@BlendLoopMotion?$AA@		; `string'
PUBLIC	??_C@_0P@LIJFJIGO@PushOnceMotion?$AA@		; `string'
PUBLIC	??_C@_0P@BMNKFJAK@PushLoopMotion?$AA@		; `string'
PUBLIC	??_C@_0BB@JJOEJJPB@GetPixelPosition?$AA@	; `string'
PUBLIC	??_C@_0M@GNIHGJGG@SetRotation?$AA@		; `string'
PUBLIC	??_C@_0P@CAJEFICF@SetRotationAll?$AA@		; `string'
PUBLIC	??_C@_0O@MOMBDHP@BlendRotation?$AA@		; `string'
PUBLIC	??_C@_0M@GCJJLPOF@GetRotation?$AA@		; `string'
PUBLIC	??_C@_07GDOKCBKB@GetRace?$AA@			; `string'
PUBLIC	??_C@_07MMGEHGCI@GetName?$AA@			; `string'
PUBLIC	??_C@_0N@CEBOCFNC@GetNameByVID?$AA@		; `string'
PUBLIC	??_C@_0L@EAKBLDCO@GetGuildID?$AA@		; `string'
PUBLIC	??_C@_0BD@EDCEKIDC@GetProjectPosition?$AA@	; `string'
PUBLIC	??_C@_0BB@GEKGPEHG@GetVirtualNumber?$AA@	; `string'
PUBLIC	??_C@_0BA@NKGBNGAG@GetInstanceType?$AA@		; `string'
PUBLIC	??_C@_0BC@NEGEPOJK@GetBoundBoxOnlyXY?$AA@	; `string'
PUBLIC	??_C@_09BPCAHBN@RaceToJob?$AA@			; `string'
PUBLIC	??_C@_09JBFJGAAF@RaceToSex?$AA@			; `string'
PUBLIC	??_C@_0O@NGEBABJL@testGetPKData?$AA@		; `string'
PUBLIC	??_C@_09JMNILCLH@FaintTest?$AA@			; `string'
PUBLIC	??_C@_0N@NBFDNLFE@SetMoveSpeed?$AA@		; `string'
PUBLIC	??_C@_0P@HDBEGKGG@SetAttackSpeed?$AA@		; `string'
PUBLIC	??_C@_0BG@IFMOLBHG@WeaponTraceSetTexture?$AA@	; `string'
PUBLIC	??_C@_0BE@EGNCJJPB@WeaponTraceUseAlpha?$AA@	; `string'
PUBLIC	??_C@_0BG@PMHANMKI@WeaponTraceUseTexture?$AA@	; `string'
PUBLIC	??_C@_0BD@DOJIBHBJ@MoveToDestPosition?$AA@	; `string'
PUBLIC	??_C@_0BB@DPBIMGC@testSetComboType?$AA@		; `string'
PUBLIC	??_C@_0BF@KKAOKOCP@testSetAddRenderMode?$AA@	; `string'
PUBLIC	??_C@_0BK@MMJPLJAB@testSetModulateRenderMode?$AA@ ; `string'
PUBLIC	??_C@_0BI@DCLDMMPM@testSetAddRenderModeRGB?$AA@	; `string'
PUBLIC	??_C@_0BN@ICOLIADE@testSetModulateRenderModeRGB?$AA@ ; `string'
PUBLIC	??_C@_0BK@PFCOBJBF@testSetSpecularRenderMode?$AA@ ; `string'
PUBLIC	??_C@_0BL@IAFIJOID@testSetSpecularRenderMode2?$AA@ ; `string'
PUBLIC	??_C@_0BG@PPLDMJLI@testRestoreRenderMode?$AA@	; `string'
PUBLIC	??_C@_0P@OHFCMBLI@testSetRideMan?$AA@		; `string'
PUBLIC	??_C@_03KMOFPJOC@chr?$AA@			; `string'
PUBLIC	??_C@_0BE@BCBGONIE@PLAYER_NAME_MAX_LEN?$AA@	; `string'
PUBLIC	??_C@_0M@GHHHCAEH@MOTION_NONE?$AA@		; `string'
PUBLIC	??_C@_0N@JMBMLHMG@MOTION_SPAWN?$AA@		; `string'
PUBLIC	??_C@_0M@LMMOJHBC@MOTION_WAIT?$AA@		; `string'
PUBLIC	??_C@_0M@HHFPFLGH@MOTION_WALK?$AA@		; `string'
PUBLIC	??_C@_0L@KHKCPAAF@MOTION_RUN?$AA@		; `string'
PUBLIC	??_C@_0BF@ICKHJCNJ@MOTION_CHANGE_WEAPON?$AA@	; `string'
PUBLIC	??_C@_0O@CKDFGNMB@MOTION_DAMAGE?$AA@		; `string'
PUBLIC	??_C@_0BF@LNCKFICM@MOTION_DAMAGE_FLYING?$AA@	; `string'
PUBLIC	??_C@_0BA@IDCGGFKN@MOTION_STAND_UP?$AA@		; `string'
PUBLIC	??_C@_0BD@MNOACOOC@MOTION_DAMAGE_BACK?$AA@	; `string'
PUBLIC	??_C@_0BK@PDCLNNIP@MOTION_DAMAGE_FLYING_BACK?$AA@ ; `string'
PUBLIC	??_C@_0BF@DFDDIGMI@MOTION_STAND_UP_BACK?$AA@	; `string'
PUBLIC	??_C@_0M@FADNKOPO@MOTION_DEAD?$AA@		; `string'
PUBLIC	??_C@_0BB@FBKKIAJJ@MOTION_DEAD_BACK?$AA@	; `string'
PUBLIC	??_C@_0BF@PDLLCGCI@MOTION_NORMAL_ATTACK?$AA@	; `string'
PUBLIC	??_C@_0BG@NHAANOLG@MOTION_COMBO_ATTACK_1?$AA@	; `string'
PUBLIC	??_C@_0BG@PMCNINHF@MOTION_COMBO_ATTACK_2?$AA@	; `string'
PUBLIC	??_C@_0BG@OFDGLMDE@MOTION_COMBO_ATTACK_3?$AA@	; `string'
PUBLIC	??_C@_0BG@KKHHCKPD@MOTION_COMBO_ATTACK_4?$AA@	; `string'
PUBLIC	??_C@_0BG@LDGMBLLC@MOTION_COMBO_ATTACK_5?$AA@	; `string'
PUBLIC	??_C@_0BG@JIEBEIHB@MOTION_COMBO_ATTACK_6?$AA@	; `string'
PUBLIC	??_C@_0BG@IBFKHJDA@MOTION_COMBO_ATTACK_7?$AA@	; `string'
PUBLIC	??_C@_0BG@GMCGFPP@MOTION_COMBO_ATTACK_8?$AA@	; `string'
PUBLIC	??_C@_0BC@KGBJGDBO@MOTION_INTRO_WAIT?$AA@	; `string'
PUBLIC	??_C@_0BG@KEIOCEDJ@MOTION_INTRO_SELECTED?$AA@	; `string'
PUBLIC	??_C@_0BK@BEALLN@MOTION_INTRO_NOT_SELECTED?$AA@	; `string'
PUBLIC	??_C@_0BF@CHLKIEFK@MOTION_FISHING_THROW?$AA@	; `string'
PUBLIC	??_C@_0BE@MOCHIGHH@MOTION_FISHING_WAIT?$AA@	; `string'
PUBLIC	??_C@_0BE@DMIBDOKM@MOTION_FISHING_STOP?$AA@	; `string'
PUBLIC	??_C@_0BF@GJOIPBCA@MOTION_FISHING_REACT?$AA@	; `string'
PUBLIC	??_C@_0BF@NFFCHMCO@MOTION_FISHING_CATCH?$AA@	; `string'
PUBLIC	??_C@_0BE@BBLMKABM@MOTION_FISHING_FAIL?$AA@	; `string'
PUBLIC	??_C@_0M@EOGICPMJ@MOTION_STOP?$AA@		; `string'
PUBLIC	??_C@_0N@GMNNBHKJ@MOTION_SKILL?$AA@		; `string'
PUBLIC	??_C@_0M@LBLLOKDB@MOTION_CLAP?$AA@		; `string'
PUBLIC	??_C@_0P@GNPIAPBK@MOTION_DANCE_1?$AA@		; `string'
PUBLIC	??_C@_0P@EGNFFMNJ@MOTION_DANCE_2?$AA@		; `string'
PUBLIC	??_C@_0P@FPMOGNJI@MOTION_DANCE_3?$AA@		; `string'
PUBLIC	??_C@_0P@BAIPPLFP@MOTION_DANCE_4?$AA@		; `string'
PUBLIC	??_C@_0P@JJEMKBO@MOTION_DANCE_5?$AA@		; `string'
PUBLIC	??_C@_0P@CCLJJJNN@MOTION_DANCE_6?$AA@		; `string'
PUBLIC	??_C@_0BG@BMOIGNKG@MOTION_CONGRATULATION?$AA@	; `string'
PUBLIC	??_C@_0P@PACCCPNP@MOTION_FORGIVE?$AA@		; `string'
PUBLIC	??_C@_0N@CLPBCEBE@MOTION_ANGRY?$AA@		; `string'
PUBLIC	??_C@_0BC@MOMKLPKF@MOTION_ATTRACTIVE?$AA@	; `string'
PUBLIC	??_C@_0L@PONOHEEG@MOTION_SAD?$AA@		; `string'
PUBLIC	??_C@_0L@OGDCDNF@MOTION_SHY?$AA@		; `string'
PUBLIC	??_C@_0P@KLJNPGKF@MOTION_CHEERUP?$AA@		; `string'
PUBLIC	??_C@_0O@GPIFNFHO@MOTION_BANTER?$AA@		; `string'
PUBLIC	??_C@_0L@CGDNCNEF@MOTION_JOY?$AA@		; `string'
PUBLIC	??_C@_0BA@EOHNNFMC@MOTION_CHEERS_1?$AA@		; `string'
PUBLIC	??_C@_0BA@GFFAIGAB@MOTION_CHEERS_2?$AA@		; `string'
PUBLIC	??_C@_0BJ@BNMGACEI@MOTION_KISS_WITH_WARRIOR?$AA@ ; `string'
PUBLIC	??_C@_0BK@PEHNDAJC@MOTION_KISS_WITH_ASSASSIN?$AA@ ; `string'
PUBLIC	??_C@_0BG@FBINLMID@MOTION_KISS_WITH_SURA?$AA@	; `string'
PUBLIC	??_C@_0BI@BPAFKDHB@MOTION_KISS_WITH_SHAMAN?$AA@	; `string'
PUBLIC	??_C@_0CA@MCOGAAOA@MOTION_FRENCH_KISS_WITH_WARRIOR?$AA@ ; `string'
PUBLIC	??_C@_0CB@CMKPDLEK@MOTION_FRENCH_KISS_WITH_ASSASSIN@ ; `string'
PUBLIC	??_C@_0BN@OJCLLFKP@MOTION_FRENCH_KISS_WITH_SURA?$AA@ ; `string'
PUBLIC	??_C@_0BP@FPOIMINN@MOTION_FRENCH_KISS_WITH_SHAMAN?$AA@ ; `string'
PUBLIC	??_C@_0BN@KKCFGBMO@MOTION_SLAP_HIT_WITH_WARRIOR?$AA@ ; `string'
PUBLIC	??_C@_0BO@PABBPFOE@MOTION_SLAP_HIT_WITH_ASSASSIN?$AA@ ; `string'
PUBLIC	??_C@_0BK@BLGFNMMI@MOTION_SLAP_HIT_WITH_SURA?$AA@ ; `string'
PUBLIC	??_C@_0BM@EBDKBOAP@MOTION_SLAP_HIT_WITH_SHAMAN?$AA@ ; `string'
PUBLIC	??_C@_0BO@ENJIKGO@MOTION_SLAP_HURT_WITH_WARRIOR?$AA@ ; `string'
PUBLIC	??_C@_0BP@CGGJKKOH@MOTION_SLAP_HURT_WITH_ASSASSIN?$AA@ ; `string'
PUBLIC	??_C@_0BL@MNIFOENP@MOTION_SLAP_HURT_WITH_SURA?$AA@ ; `string'
PUBLIC	??_C@_0BN@GMLLPEOH@MOTION_SLAP_HURT_WITH_SHAMAN?$AA@ ; `string'
PUBLIC	??_C@_0L@BGCOBJBL@MOTION_DIG?$AA@		; `string'
PUBLIC	??_C@_0BF@JPHCAJND@MOTION_MODE_RESERVED?$AA@	; `string'
PUBLIC	??_C@_0BE@PPOENDHJ@MOTION_MODE_GENERAL?$AA@	; `string'
PUBLIC	??_C@_0BK@EGEANFHJ@MOTION_MODE_ONEHAND_SWORD?$AA@ ; `string'
PUBLIC	??_C@_0BK@LGGPJGKL@MOTION_MODE_TWOHAND_SWORD?$AA@ ; `string'
PUBLIC	??_C@_0BL@BILJFJA@MOTION_MODE_DUALHAND_SWORD?$AA@ ; `string'
PUBLIC	??_C@_0BA@BFLJJHOH@MOTION_MODE_BOW?$AA@		; `string'
PUBLIC	??_C@_0BA@LEFIEKC@MOTION_MODE_FAN?$AA@		; `string'
PUBLIC	??_C@_0BB@BNHJGCLA@MOTION_MODE_BELL?$AA@	; `string'
PUBLIC	??_C@_0BE@NMIGCCAP@MOTION_MODE_FISHING?$AA@	; `string'
PUBLIC	??_C@_0BC@KOFIOII@MOTION_MODE_HORSE?$AA@	; `string'
PUBLIC	??_C@_0CA@LBDCIFIC@MOTION_MODE_HORSE_ONEHAND_SWORD?$AA@ ; `string'
PUBLIC	??_C@_0CA@EBBNMGFA@MOTION_MODE_HORSE_TWOHAND_SWORD?$AA@ ; `string'
PUBLIC	??_C@_0CB@CLBDMMFE@MOTION_MODE_HORSE_DUALHAND_SWORD@ ; `string'
PUBLIC	??_C@_0BG@FPIIPCL@MOTION_MODE_HORSE_BOW?$AA@	; `string'
PUBLIC	??_C@_0BG@BLAEJMGO@MOTION_MODE_HORSE_FAN?$AA@	; `string'
PUBLIC	??_C@_0BH@IPLLKNDD@MOTION_MODE_HORSE_BELL?$AA@	; `string'
PUBLIC	??_C@_0BK@EFEKGCKJ@MOTION_MODE_WEDDING_DRESS?$AA@ ; `string'
PUBLIC	??_C@_09OGGLMICG@DIR_NORTH?$AA@			; `string'
PUBLIC	??_C@_0O@NGBDCCOD@DIR_NORTHEAST?$AA@		; `string'
PUBLIC	??_C@_08OGFOMCPI@DIR_EAST?$AA@			; `string'
PUBLIC	??_C@_0O@OIGCBKC@DIR_SOUTHEAST?$AA@		; `string'
PUBLIC	??_C@_09MEPEOBNK@DIR_SOUTH?$AA@			; `string'
PUBLIC	??_C@_0O@JLMEHCBH@DIR_SOUTHWEST?$AA@		; `string'
PUBLIC	??_C@_08HDBMJBEN@DIR_WEST?$AA@			; `string'
PUBLIC	??_C@_0O@EDFBHBFG@DIR_NORTHWEST?$AA@		; `string'
PUBLIC	??_C@_0BF@LBEOLJOH@INSTANCE_TYPE_PLAYER?$AA@	; `string'
PUBLIC	??_C@_0BC@HPKLHBPD@INSTANCE_TYPE_NPC?$AA@	; `string'
PUBLIC	??_C@_0BE@JLNEPCAN@INSTANCE_TYPE_ENEMY?$AA@	; `string'
PUBLIC	??_C@_0BH@FNPAMCND@INSTANCE_TYPE_BUILDING?$AA@	; `string'
PUBLIC	??_C@_0BF@CFBKDGLC@INSTANCE_TYPE_OBJECT?$AA@	; `string'
PUBLIC	??_C@_09HAMNFDMJ@PART_HEAD?$AA@			; `string'
PUBLIC	??_C@_0O@FFCFHML@AFFECT_POISON?$AA@		; `string'
PUBLIC	??_C@_0M@LLKNMBHE@AFFECT_SLOW?$AA@		; `string'
PUBLIC	??_C@_0M@KELBDBLK@AFFECT_STUN?$AA@		; `string'
PUBLIC	??_C@_0BI@BEKPJJEK@AFFECT_MOV_SPEED_POTION?$AA@	; `string'
PUBLIC	??_C@_0BI@JFMNFFKJ@AFFECT_ATT_SPEED_POTION?$AA@	; `string'
PUBLIC	??_C@_0BB@HABGKKCK@AFFECT_FISH_MIND?$AA@	; `string'
PUBLIC	??_C@_0P@PMGJMPLA@AFFECT_JEONGWI?$AA@		; `string'
PUBLIC	??_C@_0BC@BPIBLGH@AFFECT_GEOMGYEONG?$AA@	; `string'
PUBLIC	??_C@_0BB@NMEHKBDD@AFFECT_CHEONGEUN?$AA@	; `string'
PUBLIC	??_C@_0BC@DNOFICLK@AFFECT_GYEONGGONG?$AA@	; `string'
PUBLIC	??_C@_0BB@NOAECAHF@AFFECT_EUNHYEONG?$AA@	; `string'
PUBLIC	??_C@_0P@JADECJKN@AFFECT_GWIGEOM?$AA@		; `string'
PUBLIC	??_C@_0O@MEBBDMFP@AFFECT_GONGPO?$AA@		; `string'
PUBLIC	??_C@_0P@NHIEBDHO@AFFECT_JUMAGAP?$AA@		; `string'
PUBLIC	??_C@_0N@BLOPJELK@AFFECT_HOSIN?$AA@		; `string'
PUBLIC	??_C@_0M@HDMMFOHE@AFFECT_BOHO?$AA@		; `string'
PUBLIC	??_C@_0P@HCCAECCK@AFFECT_KWAESOK?$AA@		; `string'
PUBLIC	??_C@_0P@FCGDLODF@AFFECT_HEUKSIN?$AA@		; `string'
PUBLIC	??_C@_0P@HLONBHGO@AFFECT_MUYEONG?$AA@		; `string'
PUBLIC	??_C@_0P@KPDDCJEK@AFFECT_GICHEON?$AA@		; `string'
PUBLIC	??_C@_0BC@HABANGHD@AFFECT_JEUNGRYEOK?$AA@	; `string'
PUBLIC	??_C@_0O@OJLLDADG@AFFECT_PABEOP?$AA@		; `string'
PUBLIC	??_C@_0BI@CFDHLOMB@AFFECT_FALLEN_CHEONGEUN?$AA@	; `string'
PUBLIC	??_C@_0BG@DFBDCPEK@AFFECT_CHINA_FIREWORK?$AA@	; `string'
PUBLIC	??_C@_0BA@DBLFIOAN@NEW_AFFECT_MALL?$AA@		; `string'
PUBLIC	??_C@_0BM@NOKMEHMP@NEW_AFFECT_NO_DEATH_PENALTY?$AA@ ; `string'
PUBLIC	??_C@_0BM@ELPJNNPH@NEW_AFFECT_SKILL_BOOK_BONUS?$AA@ ; `string'
PUBLIC	??_C@_0BP@ILCIKFOJ@NEW_AFFECT_SKILL_BOOK_NO_DELAY?$AA@ ; `string'
PUBLIC	??_C@_0BF@IGFBIBCE@NEW_AFFECT_EXP_BONUS?$AA@	; `string'
PUBLIC	??_C@_0BP@PLLCKPKL@NEW_AFFECT_EXP_BONUS_EURO_FREE?$AA@ ; `string'
PUBLIC	??_C@_0CI@CIBKFDJK@NEW_AFFECT_EXP_BONUS_EURO_FREE_U@ ; `string'
PUBLIC	??_C@_0BG@GBJOJDKK@NEW_AFFECT_ITEM_BONUS?$AA@	; `string'
PUBLIC	??_C@_0BD@OLNAIOLN@NEW_AFFECT_SAFEBOX?$AA@	; `string'
PUBLIC	??_C@_0BE@OGKIHHNM@NEW_AFFECT_AUTOLOOT?$AA@	; `string'
PUBLIC	??_C@_0BF@LHIEHLCN@NEW_AFFECT_FISH_MIND?$AA@	; `string'
PUBLIC	??_C@_0BJ@DEPPJPLB@NEW_AFFECT_MARRIAGE_FAST?$AA@ ; `string'
PUBLIC	??_C@_0BG@FPEKGPMD@NEW_AFFECT_GOLD_BONUS?$AA@	; `string'
PUBLIC	??_C@_0BM@DLPBDIOI@NEW_AFFECT_AUTO_HP_RECOVERY?$AA@ ; `string'
PUBLIC	??_C@_0BM@EGHLHBBK@NEW_AFFECT_AUTO_SP_RECOVERY?$AA@ ; `string'
PUBLIC	??_C@_0CB@MMNLNBEI@NEW_AFFECT_DRAGON_SOUL_QUALIFIED@ ; `string'
PUBLIC	??_C@_0BN@DIIGGCFL@NEW_AFFECT_DRAGON_SOUL_DECK1?$AA@ ; `string'
PUBLIC	??_C@_0BN@BDKLDBJI@NEW_AFFECT_DRAGON_SOUL_DECK2?$AA@ ; `string'
EXTRN	?UseAlphaWeaponTrace@CActorInstance@@QAEXXZ:PROC ; CActorInstance::UseAlphaWeaponTrace
EXTRN	?SetWeaponTraceTexture@CActorInstance@@QAEXPBD@Z:PROC ; CActorInstance::SetWeaponTraceTexture
EXTRN	?UseTextureWeaponTrace@CActorInstance@@QAEXXZ:PROC ; CActorInstance::UseTextureWeaponTrace
EXTRN	?IsFaint@CActorInstance@@QAEHXZ:PROC		; CActorInstance::IsFaint
EXTRN	?SetFaint@CActorInstance@@QAEX_N@Z:PROC		; CActorInstance::SetFaint
EXTRN	?SetSpecularInfo@CActorInstance@@QAEXHHM@Z:PROC	; CActorInstance::SetSpecularInfo
EXTRN	?SetSpecularInfoForce@CActorInstance@@QAEXHHM@Z:PROC ; CActorInstance::SetSpecularInfoForce
EXTRN	?SetXYRotation@CActorInstance@@QAEXMM@Z:PROC	; CActorInstance::SetXYRotation
EXTRN	?ProjectPosition@CScreen@@QAEXMMMPAM00@Z:PROC	; CScreen::ProjectPosition
EXTRN	__imp__PyLong_AsLong:PROC
EXTRN	__imp__PyDict_GetItemString:PROC
EXTRN	__imp__PyTuple_Size:PROC
;	COMDAT ?s_methods@?1??initchr@@YAXXZ@4PAUPyMethodDef@@A
_DATA	SEGMENT
?s_methods@?1??initchr@@YAXXZ@4PAUPyMethodDef@@A DD FLAT:??_C@_0O@HFPHAOI@DismountHorse?$AA@ ; `initchr'::`2'::s_methods
	DD	FLAT:?chrDismountHorse@@YAPAU_object@@PAU1@0@Z
	DD	01H
	ORG $+4
	DD	FLAT:??_C@_0L@LJFIMMEM@MountHorse?$AA@
	DD	FLAT:?chrMountHorse@@YAPAU_object@@PAU1@0@Z
	DD	01H
	ORG $+4
	DD	FLAT:??_C@_07BDCAJABG@Destroy?$AA@
	DD	FLAT:?chrDestroy@@YAPAU_object@@PAU1@0@Z
	DD	01H
	ORG $+4
	DD	FLAT:??_C@_06LMAGPFNF@Update?$AA@
	DD	FLAT:?chrUpdate@@YAPAU_object@@PAU1@0@Z
	DD	01H
	ORG $+4
	DD	FLAT:??_C@_06HIPPCDGO@Deform?$AA@
	DD	FLAT:?chrDeform@@YAPAU_object@@PAU1@0@Z
	DD	01H
	ORG $+4
	DD	FLAT:??_C@_06EPLDPNDB@Render?$AA@
	DD	FLAT:?chrRender@@YAPAU_object@@PAU1@0@Z
	DD	01H
	ORG $+4
	DD	FLAT:??_C@_0BA@OAOAOPAN@RenderCollision?$AA@
	DD	FLAT:?chrRenderCollision@@YAPAU_object@@PAU1@0@Z
	DD	01H
	ORG $+4
	DD	FLAT:??_C@_0P@PGGGILHJ@CreateInstance?$AA@
	DD	FLAT:?chrCreateInstance@@YAPAU_object@@PAU1@0@Z
	DD	01H
	ORG $+4
	DD	FLAT:??_C@_0P@OKILCDFI@DeleteInstance?$AA@
	DD	FLAT:?chrDeleteInstance@@YAPAU_object@@PAU1@0@Z
	DD	01H
	ORG $+4
	DD	FLAT:??_C@_0BF@EFFECMK@DeleteInstanceByFade?$AA@
	DD	FLAT:?chrDeleteInstanceByFade@@YAPAU_object@@PAU1@0@Z
	DD	01H
	ORG $+4
	DD	FLAT:??_C@_0P@HKEJIIJD@SelectInstance?$AA@
	DD	FLAT:?chrSelectInstance@@YAPAU_object@@PAU1@0@Z
	DD	01H
	ORG $+4
	DD	FLAT:??_C@_0M@OJLCDJBP@HasInstance?$AA@
	DD	FLAT:?chrHasInstance@@YAPAU_object@@PAU1@0@Z
	DD	01H
	ORG $+4
	DD	FLAT:??_C@_07LKBCPMOI@IsEnemy?$AA@
	DD	FLAT:?chrIsEnemy@@YAPAU_object@@PAU1@0@Z
	DD	01H
	ORG $+4
	DD	FLAT:??_C@_05BEDLICJP@IsNPC?$AA@
	DD	FLAT:?chrIsNPC@@YAPAU_object@@PAU1@0@Z
	DD	01H
	ORG $+4
	DD	FLAT:??_C@_0N@ICHIKNBJ@IsGameMaster?$AA@
	DD	FLAT:?chrIsGameMaster@@YAPAU_object@@PAU1@0@Z
	DD	01H
	ORG $+4
	DD	FLAT:??_C@_0O@FJCFNEGL@IsPartyMember?$AA@
	DD	FLAT:?chrIsPartyMember@@YAPAU_object@@PAU1@0@Z
	DD	01H
	ORG $+4
	DD	FLAT:??_C@_06HJGPBJLE@Select?$AA@
	DD	FLAT:?chrSelect@@YAPAU_object@@PAU1@0@Z
	DD	01H
	ORG $+4
	DD	FLAT:??_C@_0BB@FAHKALE@SetAddRenderMode?$AA@
	DD	FLAT:?chrSetAddRenderMode@@YAPAU_object@@PAU1@0@Z
	DD	01H
	ORG $+4
	DD	FLAT:??_C@_0BD@GJEGGPMO@SetBlendRenderMode?$AA@
	DD	FLAT:?chrSetBlendRenderMode@@YAPAU_object@@PAU1@0@Z
	DD	01H
	ORG $+4
	DD	FLAT:??_C@_08DABDFNEI@Unselect?$AA@
	DD	FLAT:?chrUnselect@@YAPAU_object@@PAU1@0@Z
	DD	01H
	ORG $+4
	DD	FLAT:??_C@_04EACEFPPN@Hide?$AA@
	DD	FLAT:?chrHide@@YAPAU_object@@PAU1@0@Z
	DD	01H
	ORG $+4
	DD	FLAT:??_C@_04JLAJABDJ@Show?$AA@
	DD	FLAT:?chrShow@@YAPAU_object@@PAU1@0@Z
	DD	01H
	ORG $+4
	DD	FLAT:??_C@_04ILHILILF@Pick?$AA@
	DD	FLAT:?chrPick@@YAPAU_object@@PAU1@0@Z
	DD	01H
	ORG $+4
	DD	FLAT:??_C@_07BKHKMIHJ@PickAll?$AA@
	DD	FLAT:?chrPickAll@@YAPAU_object@@PAU1@0@Z
	DD	01H
	ORG $+4
	DD	FLAT:??_C@_08CNNBONE@SetArmor?$AA@
	DD	FLAT:?chrSetArmor@@YAPAU_object@@PAU1@0@Z
	DD	01H
	ORG $+4
	DD	FLAT:??_C@_09LJGLIMMG@SetWeapon?$AA@
	DD	FLAT:?chrSetWeapon@@YAPAU_object@@PAU1@0@Z
	DD	01H
	ORG $+4
	DD	FLAT:??_C@_0M@GMFNPFHE@ChangeShape?$AA@
	DD	FLAT:?chrChangeShape@@YAPAU_object@@PAU1@0@Z
	DD	01H
	ORG $+4
	DD	FLAT:??_C@_07JLBLBOHA@SetRace?$AA@
	DD	FLAT:?chrSetRace@@YAPAU_object@@PAU1@0@Z
	DD	01H
	ORG $+4
	DD	FLAT:??_C@_07LJFPJABD@SetHair?$AA@
	DD	FLAT:?chrSetHair@@YAPAU_object@@PAU1@0@Z
	DD	01H
	ORG $+4
	DD	FLAT:??_C@_0L@DAKFNGKA@ChangeHair?$AA@
	DD	FLAT:?chrChangeHair@@YAPAU_object@@PAU1@0@Z
	DD	01H
	ORG $+4
	DD	FLAT:??_C@_0N@GNEKMNPE@SetVirtualID?$AA@
	DD	FLAT:?chrSetVirtualID@@YAPAU_object@@PAU1@0@Z
	DD	01H
	ORG $+4
	DD	FLAT:??_C@_0O@OBMFICKC@SetNameString?$AA@
	DD	FLAT:?chrSetNameString@@YAPAU_object@@PAU1@0@Z
	DD	01H
	ORG $+4
	DD	FLAT:??_C@_0BA@OIHHKEBP@SetInstanceType?$AA@
	DD	FLAT:?chrSetInstanceType@@YAPAU_object@@PAU1@0@Z
	DD	01H
	ORG $+4
	DD	FLAT:??_C@_0BB@PNLNCHED@SetPixelPosition?$AA@
	DD	FLAT:?chrSetPixelPosition@@YAPAU_object@@PAU1@0@Z
	DD	01H
	ORG $+4
	DD	FLAT:??_C@_0N@JGECPEGH@SetDirection?$AA@
	DD	FLAT:?chrSetDirection@@YAPAU_object@@PAU1@0@Z
	DD	01H
	ORG $+4
	DD	FLAT:??_C@_07POIENIBA@Refresh?$AA@
	DD	FLAT:?chrRefresh@@YAPAU_object@@PAU1@0@Z
	DD	01H
	ORG $+4
	DD	FLAT:??_C@_06PGKKGABA@Revive?$AA@
	DD	FLAT:?chrRevive@@YAPAU_object@@PAU1@0@Z
	DD	01H
	ORG $+4
	DD	FLAT:??_C@_03JFEBIAME@Die?$AA@
	DD	FLAT:?chrDie@@YAPAU_object@@PAU1@0@Z
	DD	01H
	ORG $+4
	DD	FLAT:??_C@_0BB@NOBBHECI@AttachEffectByID?$AA@
	DD	FLAT:?chrAttachEffectByID@@YAPAU_object@@PAU1@0@Z
	DD	01H
	ORG $+4
	DD	FLAT:??_C@_0BD@HHHMIBBD@AttachEffectByName?$AA@
	DD	FLAT:?chrAttachEffectByName@@YAPAU_object@@PAU1@0@Z
	DD	01H
	ORG $+4
	DD	FLAT:??_C@_06NFNEEJJI@LookAt?$AA@
	DD	FLAT:?chrLookAt@@YAPAU_object@@PAU1@0@Z
	DD	01H
	ORG $+4
	DD	FLAT:??_C@_0O@MFBHEMHB@SetMotionMode?$AA@
	DD	FLAT:?chrSetMotionMode@@YAPAU_object@@PAU1@0@Z
	DD	01H
	ORG $+4
	DD	FLAT:??_C@_0O@LMHNCNAM@SetLoopMotion?$AA@
	DD	FLAT:?chrSetLoopMotion@@YAPAU_object@@PAU1@0@Z
	DD	01H
	ORG $+4
	DD	FLAT:??_C@_0BA@JHKNHNFN@BlendLoopMotion?$AA@
	DD	FLAT:?chrBlendLoopMotion@@YAPAU_object@@PAU1@0@Z
	DD	01H
	ORG $+4
	DD	FLAT:??_C@_0P@LIJFJIGO@PushOnceMotion?$AA@
	DD	FLAT:?chrPushOnceMotion@@YAPAU_object@@PAU1@0@Z
	DD	01H
	ORG $+4
	DD	FLAT:??_C@_0P@BMNKFJAK@PushLoopMotion?$AA@
	DD	FLAT:?chrPushLoopMotion@@YAPAU_object@@PAU1@0@Z
	DD	01H
	ORG $+4
	DD	FLAT:??_C@_0BB@JJOEJJPB@GetPixelPosition?$AA@
	DD	FLAT:?chrGetPixelPosition@@YAPAU_object@@PAU1@0@Z
	DD	01H
	ORG $+4
	DD	FLAT:??_C@_0M@GNIHGJGG@SetRotation?$AA@
	DD	FLAT:?chrSetRotation@@YAPAU_object@@PAU1@0@Z
	DD	01H
	ORG $+4
	DD	FLAT:??_C@_0P@CAJEFICF@SetRotationAll?$AA@
	DD	FLAT:?chrSetRotationAll@@YAPAU_object@@PAU1@0@Z
	DD	01H
	ORG $+4
	DD	FLAT:??_C@_0O@MOMBDHP@BlendRotation?$AA@
	DD	FLAT:?chrBlendRotation@@YAPAU_object@@PAU1@0@Z
	DD	01H
	ORG $+4
	DD	FLAT:??_C@_0M@GCJJLPOF@GetRotation?$AA@
	DD	FLAT:?chrGetRotation@@YAPAU_object@@PAU1@0@Z
	DD	01H
	ORG $+4
	DD	FLAT:??_C@_07GDOKCBKB@GetRace?$AA@
	DD	FLAT:?chrGetRace@@YAPAU_object@@PAU1@0@Z
	DD	01H
	ORG $+4
	DD	FLAT:??_C@_07MMGEHGCI@GetName?$AA@
	DD	FLAT:?chrGetName@@YAPAU_object@@PAU1@0@Z
	DD	01H
	ORG $+4
	DD	FLAT:??_C@_0N@CEBOCFNC@GetNameByVID?$AA@
	DD	FLAT:?chrGetNameByVID@@YAPAU_object@@PAU1@0@Z
	DD	01H
	ORG $+4
	DD	FLAT:??_C@_0L@EAKBLDCO@GetGuildID?$AA@
	DD	FLAT:?chrGetGuildID@@YAPAU_object@@PAU1@0@Z
	DD	01H
	ORG $+4
	DD	FLAT:??_C@_0BD@EDCEKIDC@GetProjectPosition?$AA@
	DD	FLAT:?chrGetProjectPosition@@YAPAU_object@@PAU1@0@Z
	DD	01H
	ORG $+4
	DD	FLAT:??_C@_0BB@GEKGPEHG@GetVirtualNumber?$AA@
	DD	FLAT:?chrGetVirtualNumber@@YAPAU_object@@PAU1@0@Z
	DD	01H
	ORG $+4
	DD	FLAT:??_C@_0BA@NKGBNGAG@GetInstanceType?$AA@
	DD	FLAT:?chrGetInstanceType@@YAPAU_object@@PAU1@0@Z
	DD	01H
	ORG $+4
	DD	FLAT:??_C@_0BC@NEGEPOJK@GetBoundBoxOnlyXY?$AA@
	DD	FLAT:?chrGetBoundBoxOnlyXY@@YAPAU_object@@PAU1@0@Z
	DD	01H
	ORG $+4
	DD	FLAT:??_C@_09BPCAHBN@RaceToJob?$AA@
	DD	FLAT:?chrRaceToJob@@YAPAU_object@@PAU1@0@Z
	DD	01H
	ORG $+4
	DD	FLAT:??_C@_09JBFJGAAF@RaceToSex?$AA@
	DD	FLAT:?chrRaceToSex@@YAPAU_object@@PAU1@0@Z
	DD	01H
	ORG $+4
	DD	FLAT:??_C@_0O@NGEBABJL@testGetPKData?$AA@
	DD	FLAT:?chrtestGetPKData@@YAPAU_object@@PAU1@0@Z
	DD	01H
	ORG $+4
	DD	FLAT:??_C@_09JMNILCLH@FaintTest?$AA@
	DD	FLAT:?chrFaintTest@@YAPAU_object@@PAU1@0@Z
	DD	01H
	ORG $+4
	DD	FLAT:??_C@_0N@NBFDNLFE@SetMoveSpeed?$AA@
	DD	FLAT:?chrSetMoveSpeed@@YAPAU_object@@PAU1@0@Z
	DD	01H
	ORG $+4
	DD	FLAT:??_C@_0P@HDBEGKGG@SetAttackSpeed?$AA@
	DD	FLAT:?chrSetAttackSpeed@@YAPAU_object@@PAU1@0@Z
	DD	01H
	ORG $+4
	DD	FLAT:??_C@_0BG@IFMOLBHG@WeaponTraceSetTexture?$AA@
	DD	FLAT:?chrWeaponTraceSetTexture@@YAPAU_object@@PAU1@0@Z
	DD	01H
	ORG $+4
	DD	FLAT:??_C@_0BE@EGNCJJPB@WeaponTraceUseAlpha?$AA@
	DD	FLAT:?chrWeaponTraceUseAlpha@@YAPAU_object@@PAU1@0@Z
	DD	01H
	ORG $+4
	DD	FLAT:??_C@_0BG@PMHANMKI@WeaponTraceUseTexture?$AA@
	DD	FLAT:?chrWeaponTraceUseTexture@@YAPAU_object@@PAU1@0@Z
	DD	01H
	ORG $+4
	DD	FLAT:??_C@_0BD@DOJIBHBJ@MoveToDestPosition?$AA@
	DD	FLAT:?chrMoveToDestPosition@@YAPAU_object@@PAU1@0@Z
	DD	01H
	ORG $+4
	DD	FLAT:??_C@_0BB@DPBIMGC@testSetComboType?$AA@
	DD	FLAT:?chrtestSetComboType@@YAPAU_object@@PAU1@0@Z
	DD	01H
	ORG $+4
	DD	FLAT:??_C@_0BF@KKAOKOCP@testSetAddRenderMode?$AA@
	DD	FLAT:?chrtestSetAddRenderMode@@YAPAU_object@@PAU1@0@Z
	DD	01H
	ORG $+4
	DD	FLAT:??_C@_0BK@MMJPLJAB@testSetModulateRenderMode?$AA@
	DD	FLAT:?chrtestSetModulateRenderMode@@YAPAU_object@@PAU1@0@Z
	DD	01H
	ORG $+4
	DD	FLAT:??_C@_0BI@DCLDMMPM@testSetAddRenderModeRGB?$AA@
	DD	FLAT:?chrtestSetAddRenderModeRGB@@YAPAU_object@@PAU1@0@Z
	DD	01H
	ORG $+4
	DD	FLAT:??_C@_0BN@ICOLIADE@testSetModulateRenderModeRGB?$AA@
	DD	FLAT:?chrtestSetModulateRenderModeRGB@@YAPAU_object@@PAU1@0@Z
	DD	01H
	ORG $+4
	DD	FLAT:??_C@_0BK@PFCOBJBF@testSetSpecularRenderMode?$AA@
	DD	FLAT:?chrtestSetSpecularRenderMode@@YAPAU_object@@PAU1@0@Z
	DD	01H
	ORG $+4
	DD	FLAT:??_C@_0BL@IAFIJOID@testSetSpecularRenderMode2?$AA@
	DD	FLAT:?chrtestSetSpecularRenderMode2@@YAPAU_object@@PAU1@0@Z
	DD	01H
	ORG $+4
	DD	FLAT:??_C@_0BG@PPLDMJLI@testRestoreRenderMode?$AA@
	DD	FLAT:?chrtestRestoreRenderMode@@YAPAU_object@@PAU1@0@Z
	DD	01H
	ORG $+4
	DD	FLAT:??_C@_0P@OHFCMBLI@testSetRideMan?$AA@
	DD	FLAT:?chrtestSetRideMan@@YAPAU_object@@PAU1@0@Z
	DD	01H
	ORG $+4
	DD	00H
	DD	00H
	DD	00H
	ORG $+4
_DATA	ENDS
;	COMDAT ??_C@_0BN@BDKLDBJI@NEW_AFFECT_DRAGON_SOUL_DECK2?$AA@
CONST	SEGMENT
??_C@_0BN@BDKLDBJI@NEW_AFFECT_DRAGON_SOUL_DECK2?$AA@ DB 'NEW_AFFECT_DRAGO'
	DB	'N_SOUL_DECK2', 00H				; `string'
CONST	ENDS
;	COMDAT ??_C@_0BN@DIIGGCFL@NEW_AFFECT_DRAGON_SOUL_DECK1?$AA@
CONST	SEGMENT
??_C@_0BN@DIIGGCFL@NEW_AFFECT_DRAGON_SOUL_DECK1?$AA@ DB 'NEW_AFFECT_DRAGO'
	DB	'N_SOUL_DECK1', 00H				; `string'
CONST	ENDS
;	COMDAT ??_C@_0CB@MMNLNBEI@NEW_AFFECT_DRAGON_SOUL_QUALIFIED@
CONST	SEGMENT
??_C@_0CB@MMNLNBEI@NEW_AFFECT_DRAGON_SOUL_QUALIFIED@ DB 'NEW_AFFECT_DRAGO'
	DB	'N_SOUL_QUALIFIED', 00H			; `string'
CONST	ENDS
;	COMDAT ??_C@_0BM@EGHLHBBK@NEW_AFFECT_AUTO_SP_RECOVERY?$AA@
CONST	SEGMENT
??_C@_0BM@EGHLHBBK@NEW_AFFECT_AUTO_SP_RECOVERY?$AA@ DB 'NEW_AFFECT_AUTO_S'
	DB	'P_RECOVERY', 00H				; `string'
CONST	ENDS
;	COMDAT ??_C@_0BM@DLPBDIOI@NEW_AFFECT_AUTO_HP_RECOVERY?$AA@
CONST	SEGMENT
??_C@_0BM@DLPBDIOI@NEW_AFFECT_AUTO_HP_RECOVERY?$AA@ DB 'NEW_AFFECT_AUTO_H'
	DB	'P_RECOVERY', 00H				; `string'
CONST	ENDS
;	COMDAT ??_C@_0BG@FPEKGPMD@NEW_AFFECT_GOLD_BONUS?$AA@
CONST	SEGMENT
??_C@_0BG@FPEKGPMD@NEW_AFFECT_GOLD_BONUS?$AA@ DB 'NEW_AFFECT_GOLD_BONUS', 00H ; `string'
CONST	ENDS
;	COMDAT ??_C@_0BJ@DEPPJPLB@NEW_AFFECT_MARRIAGE_FAST?$AA@
CONST	SEGMENT
??_C@_0BJ@DEPPJPLB@NEW_AFFECT_MARRIAGE_FAST?$AA@ DB 'NEW_AFFECT_MARRIAGE_'
	DB	'FAST', 00H					; `string'
CONST	ENDS
;	COMDAT ??_C@_0BF@LHIEHLCN@NEW_AFFECT_FISH_MIND?$AA@
CONST	SEGMENT
??_C@_0BF@LHIEHLCN@NEW_AFFECT_FISH_MIND?$AA@ DB 'NEW_AFFECT_FISH_MIND', 00H ; `string'
CONST	ENDS
;	COMDAT ??_C@_0BE@OGKIHHNM@NEW_AFFECT_AUTOLOOT?$AA@
CONST	SEGMENT
??_C@_0BE@OGKIHHNM@NEW_AFFECT_AUTOLOOT?$AA@ DB 'NEW_AFFECT_AUTOLOOT', 00H ; `string'
CONST	ENDS
;	COMDAT ??_C@_0BD@OLNAIOLN@NEW_AFFECT_SAFEBOX?$AA@
CONST	SEGMENT
??_C@_0BD@OLNAIOLN@NEW_AFFECT_SAFEBOX?$AA@ DB 'NEW_AFFECT_SAFEBOX', 00H ; `string'
CONST	ENDS
;	COMDAT ??_C@_0BG@GBJOJDKK@NEW_AFFECT_ITEM_BONUS?$AA@
CONST	SEGMENT
??_C@_0BG@GBJOJDKK@NEW_AFFECT_ITEM_BONUS?$AA@ DB 'NEW_AFFECT_ITEM_BONUS', 00H ; `string'
CONST	ENDS
;	COMDAT ??_C@_0CI@CIBKFDJK@NEW_AFFECT_EXP_BONUS_EURO_FREE_U@
CONST	SEGMENT
??_C@_0CI@CIBKFDJK@NEW_AFFECT_EXP_BONUS_EURO_FREE_U@ DB 'NEW_AFFECT_EXP_B'
	DB	'ONUS_EURO_FREE_UNDER_15', 00H		; `string'
CONST	ENDS
;	COMDAT ??_C@_0BP@PLLCKPKL@NEW_AFFECT_EXP_BONUS_EURO_FREE?$AA@
CONST	SEGMENT
??_C@_0BP@PLLCKPKL@NEW_AFFECT_EXP_BONUS_EURO_FREE?$AA@ DB 'NEW_AFFECT_EXP'
	DB	'_BONUS_EURO_FREE', 00H			; `string'
CONST	ENDS
;	COMDAT ??_C@_0BF@IGFBIBCE@NEW_AFFECT_EXP_BONUS?$AA@
CONST	SEGMENT
??_C@_0BF@IGFBIBCE@NEW_AFFECT_EXP_BONUS?$AA@ DB 'NEW_AFFECT_EXP_BONUS', 00H ; `string'
CONST	ENDS
;	COMDAT ??_C@_0BP@ILCIKFOJ@NEW_AFFECT_SKILL_BOOK_NO_DELAY?$AA@
CONST	SEGMENT
??_C@_0BP@ILCIKFOJ@NEW_AFFECT_SKILL_BOOK_NO_DELAY?$AA@ DB 'NEW_AFFECT_SKI'
	DB	'LL_BOOK_NO_DELAY', 00H			; `string'
CONST	ENDS
;	COMDAT ??_C@_0BM@ELPJNNPH@NEW_AFFECT_SKILL_BOOK_BONUS?$AA@
CONST	SEGMENT
??_C@_0BM@ELPJNNPH@NEW_AFFECT_SKILL_BOOK_BONUS?$AA@ DB 'NEW_AFFECT_SKILL_'
	DB	'BOOK_BONUS', 00H				; `string'
CONST	ENDS
;	COMDAT ??_C@_0BM@NOKMEHMP@NEW_AFFECT_NO_DEATH_PENALTY?$AA@
CONST	SEGMENT
??_C@_0BM@NOKMEHMP@NEW_AFFECT_NO_DEATH_PENALTY?$AA@ DB 'NEW_AFFECT_NO_DEA'
	DB	'TH_PENALTY', 00H				; `string'
CONST	ENDS
;	COMDAT ??_C@_0BA@DBLFIOAN@NEW_AFFECT_MALL?$AA@
CONST	SEGMENT
??_C@_0BA@DBLFIOAN@NEW_AFFECT_MALL?$AA@ DB 'NEW_AFFECT_MALL', 00H ; `string'
CONST	ENDS
;	COMDAT ??_C@_0BG@DFBDCPEK@AFFECT_CHINA_FIREWORK?$AA@
CONST	SEGMENT
??_C@_0BG@DFBDCPEK@AFFECT_CHINA_FIREWORK?$AA@ DB 'AFFECT_CHINA_FIREWORK', 00H ; `string'
CONST	ENDS
;	COMDAT ??_C@_0BI@CFDHLOMB@AFFECT_FALLEN_CHEONGEUN?$AA@
CONST	SEGMENT
??_C@_0BI@CFDHLOMB@AFFECT_FALLEN_CHEONGEUN?$AA@ DB 'AFFECT_FALLEN_CHEONGE'
	DB	'UN', 00H					; `string'
CONST	ENDS
;	COMDAT ??_C@_0O@OJLLDADG@AFFECT_PABEOP?$AA@
CONST	SEGMENT
??_C@_0O@OJLLDADG@AFFECT_PABEOP?$AA@ DB 'AFFECT_PABEOP', 00H ; `string'
CONST	ENDS
;	COMDAT ??_C@_0BC@HABANGHD@AFFECT_JEUNGRYEOK?$AA@
CONST	SEGMENT
??_C@_0BC@HABANGHD@AFFECT_JEUNGRYEOK?$AA@ DB 'AFFECT_JEUNGRYEOK', 00H ; `string'
CONST	ENDS
;	COMDAT ??_C@_0P@KPDDCJEK@AFFECT_GICHEON?$AA@
CONST	SEGMENT
??_C@_0P@KPDDCJEK@AFFECT_GICHEON?$AA@ DB 'AFFECT_GICHEON', 00H ; `string'
CONST	ENDS
;	COMDAT ??_C@_0P@HLONBHGO@AFFECT_MUYEONG?$AA@
CONST	SEGMENT
??_C@_0P@HLONBHGO@AFFECT_MUYEONG?$AA@ DB 'AFFECT_MUYEONG', 00H ; `string'
CONST	ENDS
;	COMDAT ??_C@_0P@FCGDLODF@AFFECT_HEUKSIN?$AA@
CONST	SEGMENT
??_C@_0P@FCGDLODF@AFFECT_HEUKSIN?$AA@ DB 'AFFECT_HEUKSIN', 00H ; `string'
CONST	ENDS
;	COMDAT ??_C@_0P@HCCAECCK@AFFECT_KWAESOK?$AA@
CONST	SEGMENT
??_C@_0P@HCCAECCK@AFFECT_KWAESOK?$AA@ DB 'AFFECT_KWAESOK', 00H ; `string'
CONST	ENDS
;	COMDAT ??_C@_0M@HDMMFOHE@AFFECT_BOHO?$AA@
CONST	SEGMENT
??_C@_0M@HDMMFOHE@AFFECT_BOHO?$AA@ DB 'AFFECT_BOHO', 00H ; `string'
CONST	ENDS
;	COMDAT ??_C@_0N@BLOPJELK@AFFECT_HOSIN?$AA@
CONST	SEGMENT
??_C@_0N@BLOPJELK@AFFECT_HOSIN?$AA@ DB 'AFFECT_HOSIN', 00H ; `string'
CONST	ENDS
;	COMDAT ??_C@_0P@NHIEBDHO@AFFECT_JUMAGAP?$AA@
CONST	SEGMENT
??_C@_0P@NHIEBDHO@AFFECT_JUMAGAP?$AA@ DB 'AFFECT_JUMAGAP', 00H ; `string'
CONST	ENDS
;	COMDAT ??_C@_0O@MEBBDMFP@AFFECT_GONGPO?$AA@
CONST	SEGMENT
??_C@_0O@MEBBDMFP@AFFECT_GONGPO?$AA@ DB 'AFFECT_GONGPO', 00H ; `string'
CONST	ENDS
;	COMDAT ??_C@_0P@JADECJKN@AFFECT_GWIGEOM?$AA@
CONST	SEGMENT
??_C@_0P@JADECJKN@AFFECT_GWIGEOM?$AA@ DB 'AFFECT_GWIGEOM', 00H ; `string'
CONST	ENDS
;	COMDAT ??_C@_0BB@NOAECAHF@AFFECT_EUNHYEONG?$AA@
CONST	SEGMENT
??_C@_0BB@NOAECAHF@AFFECT_EUNHYEONG?$AA@ DB 'AFFECT_EUNHYEONG', 00H ; `string'
CONST	ENDS
;	COMDAT ??_C@_0BC@DNOFICLK@AFFECT_GYEONGGONG?$AA@
CONST	SEGMENT
??_C@_0BC@DNOFICLK@AFFECT_GYEONGGONG?$AA@ DB 'AFFECT_GYEONGGONG', 00H ; `string'
CONST	ENDS
;	COMDAT ??_C@_0BB@NMEHKBDD@AFFECT_CHEONGEUN?$AA@
CONST	SEGMENT
??_C@_0BB@NMEHKBDD@AFFECT_CHEONGEUN?$AA@ DB 'AFFECT_CHEONGEUN', 00H ; `string'
CONST	ENDS
;	COMDAT ??_C@_0BC@BPIBLGH@AFFECT_GEOMGYEONG?$AA@
CONST	SEGMENT
??_C@_0BC@BPIBLGH@AFFECT_GEOMGYEONG?$AA@ DB 'AFFECT_GEOMGYEONG', 00H ; `string'
CONST	ENDS
;	COMDAT ??_C@_0P@PMGJMPLA@AFFECT_JEONGWI?$AA@
CONST	SEGMENT
??_C@_0P@PMGJMPLA@AFFECT_JEONGWI?$AA@ DB 'AFFECT_JEONGWI', 00H ; `string'
CONST	ENDS
;	COMDAT ??_C@_0BB@HABGKKCK@AFFECT_FISH_MIND?$AA@
CONST	SEGMENT
??_C@_0BB@HABGKKCK@AFFECT_FISH_MIND?$AA@ DB 'AFFECT_FISH_MIND', 00H ; `string'
CONST	ENDS
;	COMDAT ??_C@_0BI@JFMNFFKJ@AFFECT_ATT_SPEED_POTION?$AA@
CONST	SEGMENT
??_C@_0BI@JFMNFFKJ@AFFECT_ATT_SPEED_POTION?$AA@ DB 'AFFECT_ATT_SPEED_POTI'
	DB	'ON', 00H					; `string'
CONST	ENDS
;	COMDAT ??_C@_0BI@BEKPJJEK@AFFECT_MOV_SPEED_POTION?$AA@
CONST	SEGMENT
??_C@_0BI@BEKPJJEK@AFFECT_MOV_SPEED_POTION?$AA@ DB 'AFFECT_MOV_SPEED_POTI'
	DB	'ON', 00H					; `string'
CONST	ENDS
;	COMDAT ??_C@_0M@KELBDBLK@AFFECT_STUN?$AA@
CONST	SEGMENT
??_C@_0M@KELBDBLK@AFFECT_STUN?$AA@ DB 'AFFECT_STUN', 00H ; `string'
CONST	ENDS
;	COMDAT ??_C@_0M@LLKNMBHE@AFFECT_SLOW?$AA@
CONST	SEGMENT
??_C@_0M@LLKNMBHE@AFFECT_SLOW?$AA@ DB 'AFFECT_SLOW', 00H ; `string'
CONST	ENDS
;	COMDAT ??_C@_0O@FFCFHML@AFFECT_POISON?$AA@
CONST	SEGMENT
??_C@_0O@FFCFHML@AFFECT_POISON?$AA@ DB 'AFFECT_POISON', 00H ; `string'
CONST	ENDS
;	COMDAT ??_C@_09HAMNFDMJ@PART_HEAD?$AA@
CONST	SEGMENT
??_C@_09HAMNFDMJ@PART_HEAD?$AA@ DB 'PART_HEAD', 00H	; `string'
CONST	ENDS
;	COMDAT ??_C@_0BF@CFBKDGLC@INSTANCE_TYPE_OBJECT?$AA@
CONST	SEGMENT
??_C@_0BF@CFBKDGLC@INSTANCE_TYPE_OBJECT?$AA@ DB 'INSTANCE_TYPE_OBJECT', 00H ; `string'
CONST	ENDS
;	COMDAT ??_C@_0BH@FNPAMCND@INSTANCE_TYPE_BUILDING?$AA@
CONST	SEGMENT
??_C@_0BH@FNPAMCND@INSTANCE_TYPE_BUILDING?$AA@ DB 'INSTANCE_TYPE_BUILDING'
	DB	00H						; `string'
CONST	ENDS
;	COMDAT ??_C@_0BE@JLNEPCAN@INSTANCE_TYPE_ENEMY?$AA@
CONST	SEGMENT
??_C@_0BE@JLNEPCAN@INSTANCE_TYPE_ENEMY?$AA@ DB 'INSTANCE_TYPE_ENEMY', 00H ; `string'
CONST	ENDS
;	COMDAT ??_C@_0BC@HPKLHBPD@INSTANCE_TYPE_NPC?$AA@
CONST	SEGMENT
??_C@_0BC@HPKLHBPD@INSTANCE_TYPE_NPC?$AA@ DB 'INSTANCE_TYPE_NPC', 00H ; `string'
CONST	ENDS
;	COMDAT ??_C@_0BF@LBEOLJOH@INSTANCE_TYPE_PLAYER?$AA@
CONST	SEGMENT
??_C@_0BF@LBEOLJOH@INSTANCE_TYPE_PLAYER?$AA@ DB 'INSTANCE_TYPE_PLAYER', 00H ; `string'
CONST	ENDS
;	COMDAT ??_C@_0O@EDFBHBFG@DIR_NORTHWEST?$AA@
CONST	SEGMENT
??_C@_0O@EDFBHBFG@DIR_NORTHWEST?$AA@ DB 'DIR_NORTHWEST', 00H ; `string'
CONST	ENDS
;	COMDAT ??_C@_08HDBMJBEN@DIR_WEST?$AA@
CONST	SEGMENT
??_C@_08HDBMJBEN@DIR_WEST?$AA@ DB 'DIR_WEST', 00H	; `string'
CONST	ENDS
;	COMDAT ??_C@_0O@JLMEHCBH@DIR_SOUTHWEST?$AA@
CONST	SEGMENT
??_C@_0O@JLMEHCBH@DIR_SOUTHWEST?$AA@ DB 'DIR_SOUTHWEST', 00H ; `string'
CONST	ENDS
;	COMDAT ??_C@_09MEPEOBNK@DIR_SOUTH?$AA@
CONST	SEGMENT
??_C@_09MEPEOBNK@DIR_SOUTH?$AA@ DB 'DIR_SOUTH', 00H	; `string'
CONST	ENDS
;	COMDAT ??_C@_0O@OIGCBKC@DIR_SOUTHEAST?$AA@
CONST	SEGMENT
??_C@_0O@OIGCBKC@DIR_SOUTHEAST?$AA@ DB 'DIR_SOUTHEAST', 00H ; `string'
CONST	ENDS
;	COMDAT ??_C@_08OGFOMCPI@DIR_EAST?$AA@
CONST	SEGMENT
??_C@_08OGFOMCPI@DIR_EAST?$AA@ DB 'DIR_EAST', 00H	; `string'
CONST	ENDS
;	COMDAT ??_C@_0O@NGBDCCOD@DIR_NORTHEAST?$AA@
CONST	SEGMENT
??_C@_0O@NGBDCCOD@DIR_NORTHEAST?$AA@ DB 'DIR_NORTHEAST', 00H ; `string'
CONST	ENDS
;	COMDAT ??_C@_09OGGLMICG@DIR_NORTH?$AA@
CONST	SEGMENT
??_C@_09OGGLMICG@DIR_NORTH?$AA@ DB 'DIR_NORTH', 00H	; `string'
CONST	ENDS
;	COMDAT ??_C@_0BK@EFEKGCKJ@MOTION_MODE_WEDDING_DRESS?$AA@
CONST	SEGMENT
??_C@_0BK@EFEKGCKJ@MOTION_MODE_WEDDING_DRESS?$AA@ DB 'MOTION_MODE_WEDDING'
	DB	'_DRESS', 00H				; `string'
CONST	ENDS
;	COMDAT ??_C@_0BH@IPLLKNDD@MOTION_MODE_HORSE_BELL?$AA@
CONST	SEGMENT
??_C@_0BH@IPLLKNDD@MOTION_MODE_HORSE_BELL?$AA@ DB 'MOTION_MODE_HORSE_BELL'
	DB	00H						; `string'
CONST	ENDS
;	COMDAT ??_C@_0BG@BLAEJMGO@MOTION_MODE_HORSE_FAN?$AA@
CONST	SEGMENT
??_C@_0BG@BLAEJMGO@MOTION_MODE_HORSE_FAN?$AA@ DB 'MOTION_MODE_HORSE_FAN', 00H ; `string'
CONST	ENDS
;	COMDAT ??_C@_0BG@FPIIPCL@MOTION_MODE_HORSE_BOW?$AA@
CONST	SEGMENT
??_C@_0BG@FPIIPCL@MOTION_MODE_HORSE_BOW?$AA@ DB 'MOTION_MODE_HORSE_BOW', 00H ; `string'
CONST	ENDS
;	COMDAT ??_C@_0CB@CLBDMMFE@MOTION_MODE_HORSE_DUALHAND_SWORD@
CONST	SEGMENT
??_C@_0CB@CLBDMMFE@MOTION_MODE_HORSE_DUALHAND_SWORD@ DB 'MOTION_MODE_HORS'
	DB	'E_DUALHAND_SWORD', 00H			; `string'
CONST	ENDS
;	COMDAT ??_C@_0CA@EBBNMGFA@MOTION_MODE_HORSE_TWOHAND_SWORD?$AA@
CONST	SEGMENT
??_C@_0CA@EBBNMGFA@MOTION_MODE_HORSE_TWOHAND_SWORD?$AA@ DB 'MOTION_MODE_H'
	DB	'ORSE_TWOHAND_SWORD', 00H			; `string'
CONST	ENDS
;	COMDAT ??_C@_0CA@LBDCIFIC@MOTION_MODE_HORSE_ONEHAND_SWORD?$AA@
CONST	SEGMENT
??_C@_0CA@LBDCIFIC@MOTION_MODE_HORSE_ONEHAND_SWORD?$AA@ DB 'MOTION_MODE_H'
	DB	'ORSE_ONEHAND_SWORD', 00H			; `string'
CONST	ENDS
;	COMDAT ??_C@_0BC@KOFIOII@MOTION_MODE_HORSE?$AA@
CONST	SEGMENT
??_C@_0BC@KOFIOII@MOTION_MODE_HORSE?$AA@ DB 'MOTION_MODE_HORSE', 00H ; `string'
CONST	ENDS
;	COMDAT ??_C@_0BE@NMIGCCAP@MOTION_MODE_FISHING?$AA@
CONST	SEGMENT
??_C@_0BE@NMIGCCAP@MOTION_MODE_FISHING?$AA@ DB 'MOTION_MODE_FISHING', 00H ; `string'
CONST	ENDS
;	COMDAT ??_C@_0BB@BNHJGCLA@MOTION_MODE_BELL?$AA@
CONST	SEGMENT
??_C@_0BB@BNHJGCLA@MOTION_MODE_BELL?$AA@ DB 'MOTION_MODE_BELL', 00H ; `string'
CONST	ENDS
;	COMDAT ??_C@_0BA@LEFIEKC@MOTION_MODE_FAN?$AA@
CONST	SEGMENT
??_C@_0BA@LEFIEKC@MOTION_MODE_FAN?$AA@ DB 'MOTION_MODE_FAN', 00H ; `string'
CONST	ENDS
;	COMDAT ??_C@_0BA@BFLJJHOH@MOTION_MODE_BOW?$AA@
CONST	SEGMENT
??_C@_0BA@BFLJJHOH@MOTION_MODE_BOW?$AA@ DB 'MOTION_MODE_BOW', 00H ; `string'
CONST	ENDS
;	COMDAT ??_C@_0BL@BILJFJA@MOTION_MODE_DUALHAND_SWORD?$AA@
CONST	SEGMENT
??_C@_0BL@BILJFJA@MOTION_MODE_DUALHAND_SWORD?$AA@ DB 'MOTION_MODE_DUALHAN'
	DB	'D_SWORD', 00H				; `string'
CONST	ENDS
;	COMDAT ??_C@_0BK@LGGPJGKL@MOTION_MODE_TWOHAND_SWORD?$AA@
CONST	SEGMENT
??_C@_0BK@LGGPJGKL@MOTION_MODE_TWOHAND_SWORD?$AA@ DB 'MOTION_MODE_TWOHAND'
	DB	'_SWORD', 00H				; `string'
CONST	ENDS
;	COMDAT ??_C@_0BK@EGEANFHJ@MOTION_MODE_ONEHAND_SWORD?$AA@
CONST	SEGMENT
??_C@_0BK@EGEANFHJ@MOTION_MODE_ONEHAND_SWORD?$AA@ DB 'MOTION_MODE_ONEHAND'
	DB	'_SWORD', 00H				; `string'
CONST	ENDS
;	COMDAT ??_C@_0BE@PPOENDHJ@MOTION_MODE_GENERAL?$AA@
CONST	SEGMENT
??_C@_0BE@PPOENDHJ@MOTION_MODE_GENERAL?$AA@ DB 'MOTION_MODE_GENERAL', 00H ; `string'
CONST	ENDS
;	COMDAT ??_C@_0BF@JPHCAJND@MOTION_MODE_RESERVED?$AA@
CONST	SEGMENT
??_C@_0BF@JPHCAJND@MOTION_MODE_RESERVED?$AA@ DB 'MOTION_MODE_RESERVED', 00H ; `string'
CONST	ENDS
;	COMDAT ??_C@_0L@BGCOBJBL@MOTION_DIG?$AA@
CONST	SEGMENT
??_C@_0L@BGCOBJBL@MOTION_DIG?$AA@ DB 'MOTION_DIG', 00H	; `string'
CONST	ENDS
;	COMDAT ??_C@_0BN@GMLLPEOH@MOTION_SLAP_HURT_WITH_SHAMAN?$AA@
CONST	SEGMENT
??_C@_0BN@GMLLPEOH@MOTION_SLAP_HURT_WITH_SHAMAN?$AA@ DB 'MOTION_SLAP_HURT'
	DB	'_WITH_SHAMAN', 00H				; `string'
CONST	ENDS
;	COMDAT ??_C@_0BL@MNIFOENP@MOTION_SLAP_HURT_WITH_SURA?$AA@
CONST	SEGMENT
??_C@_0BL@MNIFOENP@MOTION_SLAP_HURT_WITH_SURA?$AA@ DB 'MOTION_SLAP_HURT_W'
	DB	'ITH_SURA', 00H				; `string'
CONST	ENDS
;	COMDAT ??_C@_0BP@CGGJKKOH@MOTION_SLAP_HURT_WITH_ASSASSIN?$AA@
CONST	SEGMENT
??_C@_0BP@CGGJKKOH@MOTION_SLAP_HURT_WITH_ASSASSIN?$AA@ DB 'MOTION_SLAP_HU'
	DB	'RT_WITH_ASSASSIN', 00H			; `string'
CONST	ENDS
;	COMDAT ??_C@_0BO@ENJIKGO@MOTION_SLAP_HURT_WITH_WARRIOR?$AA@
CONST	SEGMENT
??_C@_0BO@ENJIKGO@MOTION_SLAP_HURT_WITH_WARRIOR?$AA@ DB 'MOTION_SLAP_HURT'
	DB	'_WITH_WARRIOR', 00H				; `string'
CONST	ENDS
;	COMDAT ??_C@_0BM@EBDKBOAP@MOTION_SLAP_HIT_WITH_SHAMAN?$AA@
CONST	SEGMENT
??_C@_0BM@EBDKBOAP@MOTION_SLAP_HIT_WITH_SHAMAN?$AA@ DB 'MOTION_SLAP_HIT_W'
	DB	'ITH_SHAMAN', 00H				; `string'
CONST	ENDS
;	COMDAT ??_C@_0BK@BLGFNMMI@MOTION_SLAP_HIT_WITH_SURA?$AA@
CONST	SEGMENT
??_C@_0BK@BLGFNMMI@MOTION_SLAP_HIT_WITH_SURA?$AA@ DB 'MOTION_SLAP_HIT_WIT'
	DB	'H_SURA', 00H				; `string'
CONST	ENDS
;	COMDAT ??_C@_0BO@PABBPFOE@MOTION_SLAP_HIT_WITH_ASSASSIN?$AA@
CONST	SEGMENT
??_C@_0BO@PABBPFOE@MOTION_SLAP_HIT_WITH_ASSASSIN?$AA@ DB 'MOTION_SLAP_HIT'
	DB	'_WITH_ASSASSIN', 00H			; `string'
CONST	ENDS
;	COMDAT ??_C@_0BN@KKCFGBMO@MOTION_SLAP_HIT_WITH_WARRIOR?$AA@
CONST	SEGMENT
??_C@_0BN@KKCFGBMO@MOTION_SLAP_HIT_WITH_WARRIOR?$AA@ DB 'MOTION_SLAP_HIT_'
	DB	'WITH_WARRIOR', 00H				; `string'
CONST	ENDS
;	COMDAT ??_C@_0BP@FPOIMINN@MOTION_FRENCH_KISS_WITH_SHAMAN?$AA@
CONST	SEGMENT
??_C@_0BP@FPOIMINN@MOTION_FRENCH_KISS_WITH_SHAMAN?$AA@ DB 'MOTION_FRENCH_'
	DB	'KISS_WITH_SHAMAN', 00H			; `string'
CONST	ENDS
;	COMDAT ??_C@_0BN@OJCLLFKP@MOTION_FRENCH_KISS_WITH_SURA?$AA@
CONST	SEGMENT
??_C@_0BN@OJCLLFKP@MOTION_FRENCH_KISS_WITH_SURA?$AA@ DB 'MOTION_FRENCH_KI'
	DB	'SS_WITH_SURA', 00H				; `string'
CONST	ENDS
;	COMDAT ??_C@_0CB@CMKPDLEK@MOTION_FRENCH_KISS_WITH_ASSASSIN@
CONST	SEGMENT
??_C@_0CB@CMKPDLEK@MOTION_FRENCH_KISS_WITH_ASSASSIN@ DB 'MOTION_FRENCH_KI'
	DB	'SS_WITH_ASSASSIN', 00H			; `string'
CONST	ENDS
;	COMDAT ??_C@_0CA@MCOGAAOA@MOTION_FRENCH_KISS_WITH_WARRIOR?$AA@
CONST	SEGMENT
??_C@_0CA@MCOGAAOA@MOTION_FRENCH_KISS_WITH_WARRIOR?$AA@ DB 'MOTION_FRENCH'
	DB	'_KISS_WITH_WARRIOR', 00H			; `string'
CONST	ENDS
;	COMDAT ??_C@_0BI@BPAFKDHB@MOTION_KISS_WITH_SHAMAN?$AA@
CONST	SEGMENT
??_C@_0BI@BPAFKDHB@MOTION_KISS_WITH_SHAMAN?$AA@ DB 'MOTION_KISS_WITH_SHAM'
	DB	'AN', 00H					; `string'
CONST	ENDS
;	COMDAT ??_C@_0BG@FBINLMID@MOTION_KISS_WITH_SURA?$AA@
CONST	SEGMENT
??_C@_0BG@FBINLMID@MOTION_KISS_WITH_SURA?$AA@ DB 'MOTION_KISS_WITH_SURA', 00H ; `string'
CONST	ENDS
;	COMDAT ??_C@_0BK@PEHNDAJC@MOTION_KISS_WITH_ASSASSIN?$AA@
CONST	SEGMENT
??_C@_0BK@PEHNDAJC@MOTION_KISS_WITH_ASSASSIN?$AA@ DB 'MOTION_KISS_WITH_AS'
	DB	'SASSIN', 00H				; `string'
CONST	ENDS
;	COMDAT ??_C@_0BJ@BNMGACEI@MOTION_KISS_WITH_WARRIOR?$AA@
CONST	SEGMENT
??_C@_0BJ@BNMGACEI@MOTION_KISS_WITH_WARRIOR?$AA@ DB 'MOTION_KISS_WITH_WAR'
	DB	'RIOR', 00H					; `string'
CONST	ENDS
;	COMDAT ??_C@_0BA@GFFAIGAB@MOTION_CHEERS_2?$AA@
CONST	SEGMENT
??_C@_0BA@GFFAIGAB@MOTION_CHEERS_2?$AA@ DB 'MOTION_CHEERS_2', 00H ; `string'
CONST	ENDS
;	COMDAT ??_C@_0BA@EOHNNFMC@MOTION_CHEERS_1?$AA@
CONST	SEGMENT
??_C@_0BA@EOHNNFMC@MOTION_CHEERS_1?$AA@ DB 'MOTION_CHEERS_1', 00H ; `string'
CONST	ENDS
;	COMDAT ??_C@_0L@CGDNCNEF@MOTION_JOY?$AA@
CONST	SEGMENT
??_C@_0L@CGDNCNEF@MOTION_JOY?$AA@ DB 'MOTION_JOY', 00H	; `string'
CONST	ENDS
;	COMDAT ??_C@_0O@GPIFNFHO@MOTION_BANTER?$AA@
CONST	SEGMENT
??_C@_0O@GPIFNFHO@MOTION_BANTER?$AA@ DB 'MOTION_BANTER', 00H ; `string'
CONST	ENDS
;	COMDAT ??_C@_0P@KLJNPGKF@MOTION_CHEERUP?$AA@
CONST	SEGMENT
??_C@_0P@KLJNPGKF@MOTION_CHEERUP?$AA@ DB 'MOTION_CHEERUP', 00H ; `string'
CONST	ENDS
;	COMDAT ??_C@_0L@OGDCDNF@MOTION_SHY?$AA@
CONST	SEGMENT
??_C@_0L@OGDCDNF@MOTION_SHY?$AA@ DB 'MOTION_SHY', 00H	; `string'
CONST	ENDS
;	COMDAT ??_C@_0L@PONOHEEG@MOTION_SAD?$AA@
CONST	SEGMENT
??_C@_0L@PONOHEEG@MOTION_SAD?$AA@ DB 'MOTION_SAD', 00H	; `string'
CONST	ENDS
;	COMDAT ??_C@_0BC@MOMKLPKF@MOTION_ATTRACTIVE?$AA@
CONST	SEGMENT
??_C@_0BC@MOMKLPKF@MOTION_ATTRACTIVE?$AA@ DB 'MOTION_ATTRACTIVE', 00H ; `string'
CONST	ENDS
;	COMDAT ??_C@_0N@CLPBCEBE@MOTION_ANGRY?$AA@
CONST	SEGMENT
??_C@_0N@CLPBCEBE@MOTION_ANGRY?$AA@ DB 'MOTION_ANGRY', 00H ; `string'
CONST	ENDS
;	COMDAT ??_C@_0P@PACCCPNP@MOTION_FORGIVE?$AA@
CONST	SEGMENT
??_C@_0P@PACCCPNP@MOTION_FORGIVE?$AA@ DB 'MOTION_FORGIVE', 00H ; `string'
CONST	ENDS
;	COMDAT ??_C@_0BG@BMOIGNKG@MOTION_CONGRATULATION?$AA@
CONST	SEGMENT
??_C@_0BG@BMOIGNKG@MOTION_CONGRATULATION?$AA@ DB 'MOTION_CONGRATULATION', 00H ; `string'
CONST	ENDS
;	COMDAT ??_C@_0P@CCLJJJNN@MOTION_DANCE_6?$AA@
CONST	SEGMENT
??_C@_0P@CCLJJJNN@MOTION_DANCE_6?$AA@ DB 'MOTION_DANCE_6', 00H ; `string'
CONST	ENDS
;	COMDAT ??_C@_0P@JJEMKBO@MOTION_DANCE_5?$AA@
CONST	SEGMENT
??_C@_0P@JJEMKBO@MOTION_DANCE_5?$AA@ DB 'MOTION_DANCE_5', 00H ; `string'
CONST	ENDS
;	COMDAT ??_C@_0P@BAIPPLFP@MOTION_DANCE_4?$AA@
CONST	SEGMENT
??_C@_0P@BAIPPLFP@MOTION_DANCE_4?$AA@ DB 'MOTION_DANCE_4', 00H ; `string'
CONST	ENDS
;	COMDAT ??_C@_0P@FPMOGNJI@MOTION_DANCE_3?$AA@
CONST	SEGMENT
??_C@_0P@FPMOGNJI@MOTION_DANCE_3?$AA@ DB 'MOTION_DANCE_3', 00H ; `string'
CONST	ENDS
;	COMDAT ??_C@_0P@EGNFFMNJ@MOTION_DANCE_2?$AA@
CONST	SEGMENT
??_C@_0P@EGNFFMNJ@MOTION_DANCE_2?$AA@ DB 'MOTION_DANCE_2', 00H ; `string'
CONST	ENDS
;	COMDAT ??_C@_0P@GNPIAPBK@MOTION_DANCE_1?$AA@
CONST	SEGMENT
??_C@_0P@GNPIAPBK@MOTION_DANCE_1?$AA@ DB 'MOTION_DANCE_1', 00H ; `string'
CONST	ENDS
;	COMDAT ??_C@_0M@LBLLOKDB@MOTION_CLAP?$AA@
CONST	SEGMENT
??_C@_0M@LBLLOKDB@MOTION_CLAP?$AA@ DB 'MOTION_CLAP', 00H ; `string'
CONST	ENDS
;	COMDAT ??_C@_0N@GMNNBHKJ@MOTION_SKILL?$AA@
CONST	SEGMENT
??_C@_0N@GMNNBHKJ@MOTION_SKILL?$AA@ DB 'MOTION_SKILL', 00H ; `string'
CONST	ENDS
;	COMDAT ??_C@_0M@EOGICPMJ@MOTION_STOP?$AA@
CONST	SEGMENT
??_C@_0M@EOGICPMJ@MOTION_STOP?$AA@ DB 'MOTION_STOP', 00H ; `string'
CONST	ENDS
;	COMDAT ??_C@_0BE@BBLMKABM@MOTION_FISHING_FAIL?$AA@
CONST	SEGMENT
??_C@_0BE@BBLMKABM@MOTION_FISHING_FAIL?$AA@ DB 'MOTION_FISHING_FAIL', 00H ; `string'
CONST	ENDS
;	COMDAT ??_C@_0BF@NFFCHMCO@MOTION_FISHING_CATCH?$AA@
CONST	SEGMENT
??_C@_0BF@NFFCHMCO@MOTION_FISHING_CATCH?$AA@ DB 'MOTION_FISHING_CATCH', 00H ; `string'
CONST	ENDS
;	COMDAT ??_C@_0BF@GJOIPBCA@MOTION_FISHING_REACT?$AA@
CONST	SEGMENT
??_C@_0BF@GJOIPBCA@MOTION_FISHING_REACT?$AA@ DB 'MOTION_FISHING_REACT', 00H ; `string'
CONST	ENDS
;	COMDAT ??_C@_0BE@DMIBDOKM@MOTION_FISHING_STOP?$AA@
CONST	SEGMENT
??_C@_0BE@DMIBDOKM@MOTION_FISHING_STOP?$AA@ DB 'MOTION_FISHING_STOP', 00H ; `string'
CONST	ENDS
;	COMDAT ??_C@_0BE@MOCHIGHH@MOTION_FISHING_WAIT?$AA@
CONST	SEGMENT
??_C@_0BE@MOCHIGHH@MOTION_FISHING_WAIT?$AA@ DB 'MOTION_FISHING_WAIT', 00H ; `string'
CONST	ENDS
;	COMDAT ??_C@_0BF@CHLKIEFK@MOTION_FISHING_THROW?$AA@
CONST	SEGMENT
??_C@_0BF@CHLKIEFK@MOTION_FISHING_THROW?$AA@ DB 'MOTION_FISHING_THROW', 00H ; `string'
CONST	ENDS
;	COMDAT ??_C@_0BK@BEALLN@MOTION_INTRO_NOT_SELECTED?$AA@
CONST	SEGMENT
??_C@_0BK@BEALLN@MOTION_INTRO_NOT_SELECTED?$AA@ DB 'MOTION_INTRO_NOT_SELE'
	DB	'CTED', 00H					; `string'
CONST	ENDS
;	COMDAT ??_C@_0BG@KEIOCEDJ@MOTION_INTRO_SELECTED?$AA@
CONST	SEGMENT
??_C@_0BG@KEIOCEDJ@MOTION_INTRO_SELECTED?$AA@ DB 'MOTION_INTRO_SELECTED', 00H ; `string'
CONST	ENDS
;	COMDAT ??_C@_0BC@KGBJGDBO@MOTION_INTRO_WAIT?$AA@
CONST	SEGMENT
??_C@_0BC@KGBJGDBO@MOTION_INTRO_WAIT?$AA@ DB 'MOTION_INTRO_WAIT', 00H ; `string'
CONST	ENDS
;	COMDAT ??_C@_0BG@GMCGFPP@MOTION_COMBO_ATTACK_8?$AA@
CONST	SEGMENT
??_C@_0BG@GMCGFPP@MOTION_COMBO_ATTACK_8?$AA@ DB 'MOTION_COMBO_ATTACK_8', 00H ; `string'
CONST	ENDS
;	COMDAT ??_C@_0BG@IBFKHJDA@MOTION_COMBO_ATTACK_7?$AA@
CONST	SEGMENT
??_C@_0BG@IBFKHJDA@MOTION_COMBO_ATTACK_7?$AA@ DB 'MOTION_COMBO_ATTACK_7', 00H ; `string'
CONST	ENDS
;	COMDAT ??_C@_0BG@JIEBEIHB@MOTION_COMBO_ATTACK_6?$AA@
CONST	SEGMENT
??_C@_0BG@JIEBEIHB@MOTION_COMBO_ATTACK_6?$AA@ DB 'MOTION_COMBO_ATTACK_6', 00H ; `string'
CONST	ENDS
;	COMDAT ??_C@_0BG@LDGMBLLC@MOTION_COMBO_ATTACK_5?$AA@
CONST	SEGMENT
??_C@_0BG@LDGMBLLC@MOTION_COMBO_ATTACK_5?$AA@ DB 'MOTION_COMBO_ATTACK_5', 00H ; `string'
CONST	ENDS
;	COMDAT ??_C@_0BG@KKHHCKPD@MOTION_COMBO_ATTACK_4?$AA@
CONST	SEGMENT
??_C@_0BG@KKHHCKPD@MOTION_COMBO_ATTACK_4?$AA@ DB 'MOTION_COMBO_ATTACK_4', 00H ; `string'
CONST	ENDS
;	COMDAT ??_C@_0BG@OFDGLMDE@MOTION_COMBO_ATTACK_3?$AA@
CONST	SEGMENT
??_C@_0BG@OFDGLMDE@MOTION_COMBO_ATTACK_3?$AA@ DB 'MOTION_COMBO_ATTACK_3', 00H ; `string'
CONST	ENDS
;	COMDAT ??_C@_0BG@PMCNINHF@MOTION_COMBO_ATTACK_2?$AA@
CONST	SEGMENT
??_C@_0BG@PMCNINHF@MOTION_COMBO_ATTACK_2?$AA@ DB 'MOTION_COMBO_ATTACK_2', 00H ; `string'
CONST	ENDS
;	COMDAT ??_C@_0BG@NHAANOLG@MOTION_COMBO_ATTACK_1?$AA@
CONST	SEGMENT
??_C@_0BG@NHAANOLG@MOTION_COMBO_ATTACK_1?$AA@ DB 'MOTION_COMBO_ATTACK_1', 00H ; `string'
CONST	ENDS
;	COMDAT ??_C@_0BF@PDLLCGCI@MOTION_NORMAL_ATTACK?$AA@
CONST	SEGMENT
??_C@_0BF@PDLLCGCI@MOTION_NORMAL_ATTACK?$AA@ DB 'MOTION_NORMAL_ATTACK', 00H ; `string'
CONST	ENDS
;	COMDAT ??_C@_0BB@FBKKIAJJ@MOTION_DEAD_BACK?$AA@
CONST	SEGMENT
??_C@_0BB@FBKKIAJJ@MOTION_DEAD_BACK?$AA@ DB 'MOTION_DEAD_BACK', 00H ; `string'
CONST	ENDS
;	COMDAT ??_C@_0M@FADNKOPO@MOTION_DEAD?$AA@
CONST	SEGMENT
??_C@_0M@FADNKOPO@MOTION_DEAD?$AA@ DB 'MOTION_DEAD', 00H ; `string'
CONST	ENDS
;	COMDAT ??_C@_0BF@DFDDIGMI@MOTION_STAND_UP_BACK?$AA@
CONST	SEGMENT
??_C@_0BF@DFDDIGMI@MOTION_STAND_UP_BACK?$AA@ DB 'MOTION_STAND_UP_BACK', 00H ; `string'
CONST	ENDS
;	COMDAT ??_C@_0BK@PDCLNNIP@MOTION_DAMAGE_FLYING_BACK?$AA@
CONST	SEGMENT
??_C@_0BK@PDCLNNIP@MOTION_DAMAGE_FLYING_BACK?$AA@ DB 'MOTION_DAMAGE_FLYIN'
	DB	'G_BACK', 00H				; `string'
CONST	ENDS
;	COMDAT ??_C@_0BD@MNOACOOC@MOTION_DAMAGE_BACK?$AA@
CONST	SEGMENT
??_C@_0BD@MNOACOOC@MOTION_DAMAGE_BACK?$AA@ DB 'MOTION_DAMAGE_BACK', 00H ; `string'
CONST	ENDS
;	COMDAT ??_C@_0BA@IDCGGFKN@MOTION_STAND_UP?$AA@
CONST	SEGMENT
??_C@_0BA@IDCGGFKN@MOTION_STAND_UP?$AA@ DB 'MOTION_STAND_UP', 00H ; `string'
CONST	ENDS
;	COMDAT ??_C@_0BF@LNCKFICM@MOTION_DAMAGE_FLYING?$AA@
CONST	SEGMENT
??_C@_0BF@LNCKFICM@MOTION_DAMAGE_FLYING?$AA@ DB 'MOTION_DAMAGE_FLYING', 00H ; `string'
CONST	ENDS
;	COMDAT ??_C@_0O@CKDFGNMB@MOTION_DAMAGE?$AA@
CONST	SEGMENT
??_C@_0O@CKDFGNMB@MOTION_DAMAGE?$AA@ DB 'MOTION_DAMAGE', 00H ; `string'
CONST	ENDS
;	COMDAT ??_C@_0BF@ICKHJCNJ@MOTION_CHANGE_WEAPON?$AA@
CONST	SEGMENT
??_C@_0BF@ICKHJCNJ@MOTION_CHANGE_WEAPON?$AA@ DB 'MOTION_CHANGE_WEAPON', 00H ; `string'
CONST	ENDS
;	COMDAT ??_C@_0L@KHKCPAAF@MOTION_RUN?$AA@
CONST	SEGMENT
??_C@_0L@KHKCPAAF@MOTION_RUN?$AA@ DB 'MOTION_RUN', 00H	; `string'
CONST	ENDS
;	COMDAT ??_C@_0M@HHFPFLGH@MOTION_WALK?$AA@
CONST	SEGMENT
??_C@_0M@HHFPFLGH@MOTION_WALK?$AA@ DB 'MOTION_WALK', 00H ; `string'
CONST	ENDS
;	COMDAT ??_C@_0M@LMMOJHBC@MOTION_WAIT?$AA@
CONST	SEGMENT
??_C@_0M@LMMOJHBC@MOTION_WAIT?$AA@ DB 'MOTION_WAIT', 00H ; `string'
CONST	ENDS
;	COMDAT ??_C@_0N@JMBMLHMG@MOTION_SPAWN?$AA@
CONST	SEGMENT
??_C@_0N@JMBMLHMG@MOTION_SPAWN?$AA@ DB 'MOTION_SPAWN', 00H ; `string'
CONST	ENDS
;	COMDAT ??_C@_0M@GHHHCAEH@MOTION_NONE?$AA@
CONST	SEGMENT
??_C@_0M@GHHHCAEH@MOTION_NONE?$AA@ DB 'MOTION_NONE', 00H ; `string'
CONST	ENDS
;	COMDAT ??_C@_0BE@BCBGONIE@PLAYER_NAME_MAX_LEN?$AA@
CONST	SEGMENT
??_C@_0BE@BCBGONIE@PLAYER_NAME_MAX_LEN?$AA@ DB 'PLAYER_NAME_MAX_LEN', 00H ; `string'
CONST	ENDS
;	COMDAT ??_C@_03KMOFPJOC@chr?$AA@
CONST	SEGMENT
??_C@_03KMOFPJOC@chr?$AA@ DB 'chr', 00H			; `string'
CONST	ENDS
;	COMDAT ??_C@_0P@OHFCMBLI@testSetRideMan?$AA@
CONST	SEGMENT
??_C@_0P@OHFCMBLI@testSetRideMan?$AA@ DB 'testSetRideMan', 00H ; `string'
CONST	ENDS
;	COMDAT ??_C@_0BG@PPLDMJLI@testRestoreRenderMode?$AA@
CONST	SEGMENT
??_C@_0BG@PPLDMJLI@testRestoreRenderMode?$AA@ DB 'testRestoreRenderMode', 00H ; `string'
CONST	ENDS
;	COMDAT ??_C@_0BL@IAFIJOID@testSetSpecularRenderMode2?$AA@
CONST	SEGMENT
??_C@_0BL@IAFIJOID@testSetSpecularRenderMode2?$AA@ DB 'testSetSpecularRen'
	DB	'derMode2', 00H				; `string'
CONST	ENDS
;	COMDAT ??_C@_0BK@PFCOBJBF@testSetSpecularRenderMode?$AA@
CONST	SEGMENT
??_C@_0BK@PFCOBJBF@testSetSpecularRenderMode?$AA@ DB 'testSetSpecularRend'
	DB	'erMode', 00H				; `string'
CONST	ENDS
;	COMDAT ??_C@_0BN@ICOLIADE@testSetModulateRenderModeRGB?$AA@
CONST	SEGMENT
??_C@_0BN@ICOLIADE@testSetModulateRenderModeRGB?$AA@ DB 'testSetModulateR'
	DB	'enderModeRGB', 00H				; `string'
CONST	ENDS
;	COMDAT ??_C@_0BI@DCLDMMPM@testSetAddRenderModeRGB?$AA@
CONST	SEGMENT
??_C@_0BI@DCLDMMPM@testSetAddRenderModeRGB?$AA@ DB 'testSetAddRenderModeR'
	DB	'GB', 00H					; `string'
CONST	ENDS
;	COMDAT ??_C@_0BK@MMJPLJAB@testSetModulateRenderMode?$AA@
CONST	SEGMENT
??_C@_0BK@MMJPLJAB@testSetModulateRenderMode?$AA@ DB 'testSetModulateRend'
	DB	'erMode', 00H				; `string'
CONST	ENDS
;	COMDAT ??_C@_0BF@KKAOKOCP@testSetAddRenderMode?$AA@
CONST	SEGMENT
??_C@_0BF@KKAOKOCP@testSetAddRenderMode?$AA@ DB 'testSetAddRenderMode', 00H ; `string'
CONST	ENDS
;	COMDAT ??_C@_0BB@DPBIMGC@testSetComboType?$AA@
CONST	SEGMENT
??_C@_0BB@DPBIMGC@testSetComboType?$AA@ DB 'testSetComboType', 00H ; `string'
CONST	ENDS
;	COMDAT ??_C@_0BD@DOJIBHBJ@MoveToDestPosition?$AA@
CONST	SEGMENT
??_C@_0BD@DOJIBHBJ@MoveToDestPosition?$AA@ DB 'MoveToDestPosition', 00H ; `string'
CONST	ENDS
;	COMDAT ??_C@_0BG@PMHANMKI@WeaponTraceUseTexture?$AA@
CONST	SEGMENT
??_C@_0BG@PMHANMKI@WeaponTraceUseTexture?$AA@ DB 'WeaponTraceUseTexture', 00H ; `string'
CONST	ENDS
;	COMDAT ??_C@_0BE@EGNCJJPB@WeaponTraceUseAlpha?$AA@
CONST	SEGMENT
??_C@_0BE@EGNCJJPB@WeaponTraceUseAlpha?$AA@ DB 'WeaponTraceUseAlpha', 00H ; `string'
CONST	ENDS
;	COMDAT ??_C@_0BG@IFMOLBHG@WeaponTraceSetTexture?$AA@
CONST	SEGMENT
??_C@_0BG@IFMOLBHG@WeaponTraceSetTexture?$AA@ DB 'WeaponTraceSetTexture', 00H ; `string'
CONST	ENDS
;	COMDAT ??_C@_0P@HDBEGKGG@SetAttackSpeed?$AA@
CONST	SEGMENT
??_C@_0P@HDBEGKGG@SetAttackSpeed?$AA@ DB 'SetAttackSpeed', 00H ; `string'
CONST	ENDS
;	COMDAT ??_C@_0N@NBFDNLFE@SetMoveSpeed?$AA@
CONST	SEGMENT
??_C@_0N@NBFDNLFE@SetMoveSpeed?$AA@ DB 'SetMoveSpeed', 00H ; `string'
CONST	ENDS
;	COMDAT ??_C@_09JMNILCLH@FaintTest?$AA@
CONST	SEGMENT
??_C@_09JMNILCLH@FaintTest?$AA@ DB 'FaintTest', 00H	; `string'
CONST	ENDS
;	COMDAT ??_C@_0O@NGEBABJL@testGetPKData?$AA@
CONST	SEGMENT
??_C@_0O@NGEBABJL@testGetPKData?$AA@ DB 'testGetPKData', 00H ; `string'
CONST	ENDS
;	COMDAT ??_C@_09JBFJGAAF@RaceToSex?$AA@
CONST	SEGMENT
??_C@_09JBFJGAAF@RaceToSex?$AA@ DB 'RaceToSex', 00H	; `string'
CONST	ENDS
;	COMDAT ??_C@_09BPCAHBN@RaceToJob?$AA@
CONST	SEGMENT
??_C@_09BPCAHBN@RaceToJob?$AA@ DB 'RaceToJob', 00H	; `string'
CONST	ENDS
;	COMDAT ??_C@_0BC@NEGEPOJK@GetBoundBoxOnlyXY?$AA@
CONST	SEGMENT
??_C@_0BC@NEGEPOJK@GetBoundBoxOnlyXY?$AA@ DB 'GetBoundBoxOnlyXY', 00H ; `string'
CONST	ENDS
;	COMDAT ??_C@_0BA@NKGBNGAG@GetInstanceType?$AA@
CONST	SEGMENT
??_C@_0BA@NKGBNGAG@GetInstanceType?$AA@ DB 'GetInstanceType', 00H ; `string'
CONST	ENDS
;	COMDAT ??_C@_0BB@GEKGPEHG@GetVirtualNumber?$AA@
CONST	SEGMENT
??_C@_0BB@GEKGPEHG@GetVirtualNumber?$AA@ DB 'GetVirtualNumber', 00H ; `string'
CONST	ENDS
;	COMDAT ??_C@_0BD@EDCEKIDC@GetProjectPosition?$AA@
CONST	SEGMENT
??_C@_0BD@EDCEKIDC@GetProjectPosition?$AA@ DB 'GetProjectPosition', 00H ; `string'
CONST	ENDS
;	COMDAT ??_C@_0L@EAKBLDCO@GetGuildID?$AA@
CONST	SEGMENT
??_C@_0L@EAKBLDCO@GetGuildID?$AA@ DB 'GetGuildID', 00H	; `string'
CONST	ENDS
;	COMDAT ??_C@_0N@CEBOCFNC@GetNameByVID?$AA@
CONST	SEGMENT
??_C@_0N@CEBOCFNC@GetNameByVID?$AA@ DB 'GetNameByVID', 00H ; `string'
CONST	ENDS
;	COMDAT ??_C@_07MMGEHGCI@GetName?$AA@
CONST	SEGMENT
??_C@_07MMGEHGCI@GetName?$AA@ DB 'GetName', 00H		; `string'
CONST	ENDS
;	COMDAT ??_C@_07GDOKCBKB@GetRace?$AA@
CONST	SEGMENT
??_C@_07GDOKCBKB@GetRace?$AA@ DB 'GetRace', 00H		; `string'
CONST	ENDS
;	COMDAT ??_C@_0M@GCJJLPOF@GetRotation?$AA@
CONST	SEGMENT
??_C@_0M@GCJJLPOF@GetRotation?$AA@ DB 'GetRotation', 00H ; `string'
CONST	ENDS
;	COMDAT ??_C@_0O@MOMBDHP@BlendRotation?$AA@
CONST	SEGMENT
??_C@_0O@MOMBDHP@BlendRotation?$AA@ DB 'BlendRotation', 00H ; `string'
CONST	ENDS
;	COMDAT ??_C@_0P@CAJEFICF@SetRotationAll?$AA@
CONST	SEGMENT
??_C@_0P@CAJEFICF@SetRotationAll?$AA@ DB 'SetRotationAll', 00H ; `string'
CONST	ENDS
;	COMDAT ??_C@_0M@GNIHGJGG@SetRotation?$AA@
CONST	SEGMENT
??_C@_0M@GNIHGJGG@SetRotation?$AA@ DB 'SetRotation', 00H ; `string'
CONST	ENDS
;	COMDAT ??_C@_0BB@JJOEJJPB@GetPixelPosition?$AA@
CONST	SEGMENT
??_C@_0BB@JJOEJJPB@GetPixelPosition?$AA@ DB 'GetPixelPosition', 00H ; `string'
CONST	ENDS
;	COMDAT ??_C@_0P@BMNKFJAK@PushLoopMotion?$AA@
CONST	SEGMENT
??_C@_0P@BMNKFJAK@PushLoopMotion?$AA@ DB 'PushLoopMotion', 00H ; `string'
CONST	ENDS
;	COMDAT ??_C@_0P@LIJFJIGO@PushOnceMotion?$AA@
CONST	SEGMENT
??_C@_0P@LIJFJIGO@PushOnceMotion?$AA@ DB 'PushOnceMotion', 00H ; `string'
CONST	ENDS
;	COMDAT ??_C@_0BA@JHKNHNFN@BlendLoopMotion?$AA@
CONST	SEGMENT
??_C@_0BA@JHKNHNFN@BlendLoopMotion?$AA@ DB 'BlendLoopMotion', 00H ; `string'
CONST	ENDS
;	COMDAT ??_C@_0O@LMHNCNAM@SetLoopMotion?$AA@
CONST	SEGMENT
??_C@_0O@LMHNCNAM@SetLoopMotion?$AA@ DB 'SetLoopMotion', 00H ; `string'
CONST	ENDS
;	COMDAT ??_C@_0O@MFBHEMHB@SetMotionMode?$AA@
CONST	SEGMENT
??_C@_0O@MFBHEMHB@SetMotionMode?$AA@ DB 'SetMotionMode', 00H ; `string'
CONST	ENDS
;	COMDAT ??_C@_06NFNEEJJI@LookAt?$AA@
CONST	SEGMENT
??_C@_06NFNEEJJI@LookAt?$AA@ DB 'LookAt', 00H		; `string'
CONST	ENDS
;	COMDAT ??_C@_0BD@HHHMIBBD@AttachEffectByName?$AA@
CONST	SEGMENT
??_C@_0BD@HHHMIBBD@AttachEffectByName?$AA@ DB 'AttachEffectByName', 00H ; `string'
CONST	ENDS
;	COMDAT ??_C@_0BB@NOBBHECI@AttachEffectByID?$AA@
CONST	SEGMENT
??_C@_0BB@NOBBHECI@AttachEffectByID?$AA@ DB 'AttachEffectByID', 00H ; `string'
CONST	ENDS
;	COMDAT ??_C@_03JFEBIAME@Die?$AA@
CONST	SEGMENT
??_C@_03JFEBIAME@Die?$AA@ DB 'Die', 00H			; `string'
CONST	ENDS
;	COMDAT ??_C@_06PGKKGABA@Revive?$AA@
CONST	SEGMENT
??_C@_06PGKKGABA@Revive?$AA@ DB 'Revive', 00H		; `string'
CONST	ENDS
;	COMDAT ??_C@_07POIENIBA@Refresh?$AA@
CONST	SEGMENT
??_C@_07POIENIBA@Refresh?$AA@ DB 'Refresh', 00H		; `string'
CONST	ENDS
;	COMDAT ??_C@_0N@JGECPEGH@SetDirection?$AA@
CONST	SEGMENT
??_C@_0N@JGECPEGH@SetDirection?$AA@ DB 'SetDirection', 00H ; `string'
CONST	ENDS
;	COMDAT ??_C@_0BB@PNLNCHED@SetPixelPosition?$AA@
CONST	SEGMENT
??_C@_0BB@PNLNCHED@SetPixelPosition?$AA@ DB 'SetPixelPosition', 00H ; `string'
CONST	ENDS
;	COMDAT ??_C@_0BA@OIHHKEBP@SetInstanceType?$AA@
CONST	SEGMENT
??_C@_0BA@OIHHKEBP@SetInstanceType?$AA@ DB 'SetInstanceType', 00H ; `string'
CONST	ENDS
;	COMDAT ??_C@_0O@OBMFICKC@SetNameString?$AA@
CONST	SEGMENT
??_C@_0O@OBMFICKC@SetNameString?$AA@ DB 'SetNameString', 00H ; `string'
CONST	ENDS
;	COMDAT ??_C@_0N@GNEKMNPE@SetVirtualID?$AA@
CONST	SEGMENT
??_C@_0N@GNEKMNPE@SetVirtualID?$AA@ DB 'SetVirtualID', 00H ; `string'
CONST	ENDS
;	COMDAT ??_C@_0L@DAKFNGKA@ChangeHair?$AA@
CONST	SEGMENT
??_C@_0L@DAKFNGKA@ChangeHair?$AA@ DB 'ChangeHair', 00H	; `string'
CONST	ENDS
;	COMDAT ??_C@_07LJFPJABD@SetHair?$AA@
CONST	SEGMENT
??_C@_07LJFPJABD@SetHair?$AA@ DB 'SetHair', 00H		; `string'
CONST	ENDS
;	COMDAT ??_C@_07JLBLBOHA@SetRace?$AA@
CONST	SEGMENT
??_C@_07JLBLBOHA@SetRace?$AA@ DB 'SetRace', 00H		; `string'
CONST	ENDS
;	COMDAT ??_C@_0M@GMFNPFHE@ChangeShape?$AA@
CONST	SEGMENT
??_C@_0M@GMFNPFHE@ChangeShape?$AA@ DB 'ChangeShape', 00H ; `string'
CONST	ENDS
;	COMDAT ??_C@_09LJGLIMMG@SetWeapon?$AA@
CONST	SEGMENT
??_C@_09LJGLIMMG@SetWeapon?$AA@ DB 'SetWeapon', 00H	; `string'
CONST	ENDS
;	COMDAT ??_C@_08CNNBONE@SetArmor?$AA@
CONST	SEGMENT
??_C@_08CNNBONE@SetArmor?$AA@ DB 'SetArmor', 00H	; `string'
CONST	ENDS
;	COMDAT ??_C@_07BKHKMIHJ@PickAll?$AA@
CONST	SEGMENT
??_C@_07BKHKMIHJ@PickAll?$AA@ DB 'PickAll', 00H		; `string'
CONST	ENDS
;	COMDAT ??_C@_04ILHILILF@Pick?$AA@
CONST	SEGMENT
??_C@_04ILHILILF@Pick?$AA@ DB 'Pick', 00H		; `string'
CONST	ENDS
;	COMDAT ??_C@_04JLAJABDJ@Show?$AA@
CONST	SEGMENT
??_C@_04JLAJABDJ@Show?$AA@ DB 'Show', 00H		; `string'
CONST	ENDS
;	COMDAT ??_C@_04EACEFPPN@Hide?$AA@
CONST	SEGMENT
??_C@_04EACEFPPN@Hide?$AA@ DB 'Hide', 00H		; `string'
CONST	ENDS
;	COMDAT ??_C@_08DABDFNEI@Unselect?$AA@
CONST	SEGMENT
??_C@_08DABDFNEI@Unselect?$AA@ DB 'Unselect', 00H	; `string'
CONST	ENDS
;	COMDAT ??_C@_0BD@GJEGGPMO@SetBlendRenderMode?$AA@
CONST	SEGMENT
??_C@_0BD@GJEGGPMO@SetBlendRenderMode?$AA@ DB 'SetBlendRenderMode', 00H ; `string'
CONST	ENDS
;	COMDAT ??_C@_0BB@FAHKALE@SetAddRenderMode?$AA@
CONST	SEGMENT
??_C@_0BB@FAHKALE@SetAddRenderMode?$AA@ DB 'SetAddRenderMode', 00H ; `string'
CONST	ENDS
;	COMDAT ??_C@_06HJGPBJLE@Select?$AA@
CONST	SEGMENT
??_C@_06HJGPBJLE@Select?$AA@ DB 'Select', 00H		; `string'
CONST	ENDS
;	COMDAT ??_C@_0O@FJCFNEGL@IsPartyMember?$AA@
CONST	SEGMENT
??_C@_0O@FJCFNEGL@IsPartyMember?$AA@ DB 'IsPartyMember', 00H ; `string'
CONST	ENDS
;	COMDAT ??_C@_0N@ICHIKNBJ@IsGameMaster?$AA@
CONST	SEGMENT
??_C@_0N@ICHIKNBJ@IsGameMaster?$AA@ DB 'IsGameMaster', 00H ; `string'
CONST	ENDS
;	COMDAT ??_C@_05BEDLICJP@IsNPC?$AA@
CONST	SEGMENT
??_C@_05BEDLICJP@IsNPC?$AA@ DB 'IsNPC', 00H		; `string'
CONST	ENDS
;	COMDAT ??_C@_07LKBCPMOI@IsEnemy?$AA@
CONST	SEGMENT
??_C@_07LKBCPMOI@IsEnemy?$AA@ DB 'IsEnemy', 00H		; `string'
CONST	ENDS
;	COMDAT ??_C@_0M@OJLCDJBP@HasInstance?$AA@
CONST	SEGMENT
??_C@_0M@OJLCDJBP@HasInstance?$AA@ DB 'HasInstance', 00H ; `string'
CONST	ENDS
;	COMDAT ??_C@_0P@HKEJIIJD@SelectInstance?$AA@
CONST	SEGMENT
??_C@_0P@HKEJIIJD@SelectInstance?$AA@ DB 'SelectInstance', 00H ; `string'
CONST	ENDS
;	COMDAT ??_C@_0BF@EFFECMK@DeleteInstanceByFade?$AA@
CONST	SEGMENT
??_C@_0BF@EFFECMK@DeleteInstanceByFade?$AA@ DB 'DeleteInstanceByFade', 00H ; `string'
CONST	ENDS
;	COMDAT ??_C@_0P@OKILCDFI@DeleteInstance?$AA@
CONST	SEGMENT
??_C@_0P@OKILCDFI@DeleteInstance?$AA@ DB 'DeleteInstance', 00H ; `string'
CONST	ENDS
;	COMDAT ??_C@_0P@PGGGILHJ@CreateInstance?$AA@
CONST	SEGMENT
??_C@_0P@PGGGILHJ@CreateInstance?$AA@ DB 'CreateInstance', 00H ; `string'
CONST	ENDS
;	COMDAT ??_C@_06HIPPCDGO@Deform?$AA@
CONST	SEGMENT
??_C@_06HIPPCDGO@Deform?$AA@ DB 'Deform', 00H		; `string'
CONST	ENDS
;	COMDAT ??_C@_0L@LJFIMMEM@MountHorse?$AA@
CONST	SEGMENT
??_C@_0L@LJFIMMEM@MountHorse?$AA@ DB 'MountHorse', 00H	; `string'
CONST	ENDS
;	COMDAT ??_C@_0O@HFPHAOI@DismountHorse?$AA@
CONST	SEGMENT
??_C@_0O@HFPHAOI@DismountHorse?$AA@ DB 'DismountHorse', 00H ; `string'
CONST	ENDS
;	COMDAT ??_C@_04OHJIHAFH@None?$AA@
CONST	SEGMENT
??_C@_04OHJIHAFH@None?$AA@ DB 'None', 00H		; `string'
CONST	ENDS
;	COMDAT ??_C@_01EANLCPLP@y?$AA@
CONST	SEGMENT
??_C@_01EANLCPLP@y?$AA@ DB 'y', 00H			; `string'
CONST	ENDS
;	COMDAT ??_C@_01FJMABOPO@x?$AA@
CONST	SEGMENT
??_C@_01FJMABOPO@x?$AA@ DB 'x', 00H			; `string'
CONST	ENDS
;	COMDAT ??_C@_05DOPDBCAL@horse?$AA@
CONST	SEGMENT
??_C@_05DOPDBCAL@horse?$AA@ DB 'horse', 00H		; `string'
CONST	ENDS
;	COMDAT ??_C@_06LJIOOKLP@NONAME?$AA@
CONST	SEGMENT
??_C@_06LJIOOKLP@NONAME?$AA@ DB 'NONAME', 00H		; `string'
PUBLIC	?fmod@@YAMMM@Z					; fmod
PUBLIC	?initchr@@YAXXZ					; initchr
PUBLIC	?chrtestSetRideMan@@YAPAU_object@@PAU1@0@Z	; chrtestSetRideMan
PUBLIC	?chrMoveToDestPosition@@YAPAU_object@@PAU1@0@Z	; chrMoveToDestPosition
PUBLIC	?chrWeaponTraceUseAlpha@@YAPAU_object@@PAU1@0@Z	; chrWeaponTraceUseAlpha
PUBLIC	?chrWeaponTraceUseTexture@@YAPAU_object@@PAU1@0@Z ; chrWeaponTraceUseTexture
PUBLIC	?chrWeaponTraceSetTexture@@YAPAU_object@@PAU1@0@Z ; chrWeaponTraceSetTexture
PUBLIC	?chrSetAttackSpeed@@YAPAU_object@@PAU1@0@Z	; chrSetAttackSpeed
PUBLIC	?chrSetMoveSpeed@@YAPAU_object@@PAU1@0@Z	; chrSetMoveSpeed
PUBLIC	?chrFaintTest@@YAPAU_object@@PAU1@0@Z		; chrFaintTest
PUBLIC	?chrtestRestoreRenderMode@@YAPAU_object@@PAU1@0@Z ; chrtestRestoreRenderMode
PUBLIC	?chrtestSetSpecularRenderMode2@@YAPAU_object@@PAU1@0@Z ; chrtestSetSpecularRenderMode2
PUBLIC	?chrtestSetSpecularRenderMode@@YAPAU_object@@PAU1@0@Z ; chrtestSetSpecularRenderMode
PUBLIC	?chrtestSetModulateRenderModeRGB@@YAPAU_object@@PAU1@0@Z ; chrtestSetModulateRenderModeRGB
PUBLIC	?chrtestSetAddRenderModeRGB@@YAPAU_object@@PAU1@0@Z ; chrtestSetAddRenderModeRGB
PUBLIC	?chrtestSetModulateRenderMode@@YAPAU_object@@PAU1@0@Z ; chrtestSetModulateRenderMode
PUBLIC	?chrtestSetAddRenderMode@@YAPAU_object@@PAU1@0@Z ; chrtestSetAddRenderMode
PUBLIC	?chrtestSetComboType@@YAPAU_object@@PAU1@0@Z	; chrtestSetComboType
PUBLIC	?chrtestGetPKData@@YAPAU_object@@PAU1@0@Z	; chrtestGetPKData
PUBLIC	?chrGetBoundBoxOnlyXY@@YAPAU_object@@PAU1@0@Z	; chrGetBoundBoxOnlyXY
PUBLIC	?chrGetInstanceType@@YAPAU_object@@PAU1@0@Z	; chrGetInstanceType
PUBLIC	?chrGetVirtualNumber@@YAPAU_object@@PAU1@0@Z	; chrGetVirtualNumber
PUBLIC	?chrGetProjectPosition@@YAPAU_object@@PAU1@0@Z	; chrGetProjectPosition
PUBLIC	?chrGetGuildID@@YAPAU_object@@PAU1@0@Z		; chrGetGuildID
PUBLIC	?chrGetNameByVID@@YAPAU_object@@PAU1@0@Z	; chrGetNameByVID
PUBLIC	?chrGetName@@YAPAU_object@@PAU1@0@Z		; chrGetName
PUBLIC	?chrGetRace@@YAPAU_object@@PAU1@0@Z		; chrGetRace
PUBLIC	?chrGetRotation@@YAPAU_object@@PAU1@0@Z		; chrGetRotation
PUBLIC	?chrBlendRotation@@YAPAU_object@@PAU1@0@Z	; chrBlendRotation
PUBLIC	?chrSetRotationAll@@YAPAU_object@@PAU1@0@Z	; chrSetRotationAll
PUBLIC	?chrSetRotation@@YAPAU_object@@PAU1@0@Z		; chrSetRotation
PUBLIC	?chrGetPixelPosition@@YAPAU_object@@PAU1@0@Z	; chrGetPixelPosition
PUBLIC	?chrSetDirection@@YAPAU_object@@PAU1@0@Z	; chrSetDirection
PUBLIC	?chrSetPixelPosition@@YAPAU_object@@PAU1@0@Z	; chrSetPixelPosition
PUBLIC	?chrPushLoopMotion@@YAPAU_object@@PAU1@0@Z	; chrPushLoopMotion
PUBLIC	?chrPushOnceMotion@@YAPAU_object@@PAU1@0@Z	; chrPushOnceMotion
PUBLIC	?chrBlendLoopMotion@@YAPAU_object@@PAU1@0@Z	; chrBlendLoopMotion
PUBLIC	?chrSetLoopMotion@@YAPAU_object@@PAU1@0@Z	; chrSetLoopMotion
PUBLIC	?chrSetMotionMode@@YAPAU_object@@PAU1@0@Z	; chrSetMotionMode
PUBLIC	?chrLookAt@@YAPAU_object@@PAU1@0@Z		; chrLookAt
PUBLIC	?chrDie@@YAPAU_object@@PAU1@0@Z			; chrDie
PUBLIC	?chrRevive@@YAPAU_object@@PAU1@0@Z		; chrRevive
PUBLIC	?chrDismountHorse@@YAPAU_object@@PAU1@0@Z	; chrDismountHorse
PUBLIC	?chrMountHorse@@YAPAU_object@@PAU1@0@Z		; chrMountHorse
PUBLIC	?chrRefresh@@YAPAU_object@@PAU1@0@Z		; chrRefresh
PUBLIC	?chrAttachEffectByID@@YAPAU_object@@PAU1@0@Z	; chrAttachEffectByID
PUBLIC	?chrAttachEffectByName@@YAPAU_object@@PAU1@0@Z	; chrAttachEffectByName
PUBLIC	?chrSetInstanceType@@YAPAU_object@@PAU1@0@Z	; chrSetInstanceType
PUBLIC	?chrSetNameString@@YAPAU_object@@PAU1@0@Z	; chrSetNameString
PUBLIC	?chrSetVirtualID@@YAPAU_object@@PAU1@0@Z	; chrSetVirtualID
PUBLIC	?chrSetWeapon@@YAPAU_object@@PAU1@0@Z		; chrSetWeapon
PUBLIC	?chrChangeShape@@YAPAU_object@@PAU1@0@Z		; chrChangeShape
PUBLIC	?chrSetArmor@@YAPAU_object@@PAU1@0@Z		; chrSetArmor
PUBLIC	?chrChangeHair@@YAPAU_object@@PAU1@0@Z		; chrChangeHair
PUBLIC	?chrSetHair@@YAPAU_object@@PAU1@0@Z		; chrSetHair
PUBLIC	?chrSetRace@@YAPAU_object@@PAU1@0@Z		; chrSetRace
PUBLIC	?chrPickAll@@YAPAU_object@@PAU1@0@Z		; chrPickAll
PUBLIC	?chrShow@@YAPAU_object@@PAU1@0@Z		; chrShow
PUBLIC	?chrHide@@YAPAU_object@@PAU1@0@Z		; chrHide
PUBLIC	?chrPick@@YAPAU_object@@PAU1@0@Z		; chrPick
PUBLIC	?chrUnselect@@YAPAU_object@@PAU1@0@Z		; chrUnselect
PUBLIC	?chrSetBlendRenderMode@@YAPAU_object@@PAU1@0@Z	; chrSetBlendRenderMode
PUBLIC	?chrSetAddRenderMode@@YAPAU_object@@PAU1@0@Z	; chrSetAddRenderMode
PUBLIC	?chrSelect@@YAPAU_object@@PAU1@0@Z		; chrSelect
PUBLIC	?chrIsPartyMember@@YAPAU_object@@PAU1@0@Z	; chrIsPartyMember
PUBLIC	?chrIsGameMaster@@YAPAU_object@@PAU1@0@Z	; chrIsGameMaster
PUBLIC	?chrIsNPC@@YAPAU_object@@PAU1@0@Z		; chrIsNPC
PUBLIC	?chrIsEnemy@@YAPAU_object@@PAU1@0@Z		; chrIsEnemy
PUBLIC	?chrHasInstance@@YAPAU_object@@PAU1@0@Z		; chrHasInstance
PUBLIC	?chrSelectInstance@@YAPAU_object@@PAU1@0@Z	; chrSelectInstance
PUBLIC	?chrDeleteInstanceByFade@@YAPAU_object@@PAU1@0@Z ; chrDeleteInstanceByFade
PUBLIC	?chrDeleteInstance@@YAPAU_object@@PAU1@0@Z	; chrDeleteInstance
PUBLIC	?chrCreateInstance@@YAPAU_object@@PAU1@0@Z	; chrCreateInstance
PUBLIC	?chrRenderCollision@@YAPAU_object@@PAU1@0@Z	; chrRenderCollision
PUBLIC	?chrRender@@YAPAU_object@@PAU1@0@Z		; chrRender
PUBLIC	?chrDeform@@YAPAU_object@@PAU1@0@Z		; chrDeform
PUBLIC	?chrUpdate@@YAPAU_object@@PAU1@0@Z		; chrUpdate
PUBLIC	?chrDestroy@@YAPAU_object@@PAU1@0@Z		; chrDestroy
PUBLIC	?chrRaceToSex@@YAPAU_object@@PAU1@0@Z		; chrRaceToSex
PUBLIC	?chrRaceToJob@@YAPAU_object@@PAU1@0@Z		; chrRaceToJob
PUBLIC	?RaceToSex@@YAHH@Z				; RaceToSex
;	COMDAT xdata$x
xdata$x	SEGMENT
__ehfuncinfo$?chrCreateInstance@@YAPAU_object@@PAU1@0@Z DD 019930522H
	DD	01H
	DD	FLAT:__unwindtable$?chrCreateInstance@@YAPAU_object@@PAU1@0@Z
	DD	2 DUP(00H)
	DD	2 DUP(00H)
	DD	00H
	DD	01H
__unwindtable$?chrCreateInstance@@YAPAU_object@@PAU1@0@Z DD 0ffffffffH
	DD	FLAT:__unwindfunclet$?chrCreateInstance@@YAPAU_object@@PAU1@0@Z$0
xdata$x	ENDS
;	COMDAT xdata$x
xdata$x	SEGMENT
__ehfuncinfo$?chrtestSetRideMan@@YAPAU_object@@PAU1@0@Z DD 019930522H
	DD	01H
	DD	FLAT:__unwindtable$?chrtestSetRideMan@@YAPAU_object@@PAU1@0@Z
	DD	2 DUP(00H)
	DD	2 DUP(00H)
	DD	00H
	DD	01H
__unwindtable$?chrtestSetRideMan@@YAPAU_object@@PAU1@0@Z DD 0ffffffffH
	DD	FLAT:__unwindfunclet$?chrtestSetRideMan@@YAPAU_object@@PAU1@0@Z$0
; Function compile flags: /Ogtp
; File d:\metin2\metin2\client_source_clean\client_source_clean\source\userinterface\instancebase.h
;	COMDAT ?RaceToSex@@YAHH@Z
_TEXT	SEGMENT
?RaceToSex@@YAHH@Z PROC					; RaceToSex, COMDAT
; _race$ = ecx

; 1114 : 	switch (race)

  00000	83 f9 07	 cmp	 ecx, 7
  00003	77 14		 ja	 SHORT $LN3@RaceToSex
  00005	0f b6 81 00 00
	00 00		 movzx	 eax, BYTE PTR $LN7@RaceToSex[ecx]
  0000c	ff 24 85 00 00
	00 00		 jmp	 DWORD PTR $LN9@RaceToSex[eax*4]
$LN2@RaceToSex:

; 1115 : 	{
; 1116 : 		case 0:
; 1117 : 		case 2:
; 1118 : 		case 5:
; 1119 : 		case 7:
; 1120 : 			return 1;

  00013	b8 01 00 00 00	 mov	 eax, 1

; 1129 : }

  00018	c3		 ret	 0
$LN3@RaceToSex:

; 1121 : 		case 1:
; 1122 : 		case 3:
; 1123 : 		case 4:
; 1124 : 		case 6:
; 1125 : 			return 0;
; 1126 : 
; 1127 : 	}
; 1128 : 	return 0;

  00019	33 c0		 xor	 eax, eax

; 1129 : }

  0001b	c3		 ret	 0
$LN9@RaceToSex:
  0001c	00 00 00 00	 DD	 $LN2@RaceToSex
  00020	00 00 00 00	 DD	 $LN3@RaceToSex
$LN7@RaceToSex:
  00024	00		 DB	 0
  00025	01		 DB	 1
  00026	00		 DB	 0
  00027	01		 DB	 1
  00028	01		 DB	 1
  00029	00		 DB	 0
  0002a	01		 DB	 1
  0002b	00		 DB	 0
?RaceToSex@@YAHH@Z ENDP					; RaceToSex
_TEXT	ENDS
; Function compile flags: /Ogtp
; File d:\metin2\metin2\client_source_clean\client_source_clean\source\userinterface\pythoncharactermodule.cpp
; File d:\metin2\metin2\client_source_clean\client_source_clean\source\userinterface\instancebase.h
; File d:\metin2\metin2\client_source_clean\client_source_clean\source\userinterface\pythoncharactermodule.cpp
;	COMDAT ?chrRaceToJob@@YAPAU_object@@PAU1@0@Z
_TEXT	SEGMENT
_race$ = -4						; size = 4
_poSelf$ = 8						; size = 4
_poArgs$ = 12						; size = 4
?chrRaceToJob@@YAPAU_object@@PAU1@0@Z PROC		; chrRaceToJob, COMDAT

; 6    : {

  00000	55		 push	 ebp
  00001	8b ec		 mov	 ebp, esp
  00003	51		 push	 ecx

; 7    : 	int race;
; 8    : 	if (!PyTuple_GetInteger(poArgs, 0, &race))

  00004	8d 45 fc	 lea	 eax, DWORD PTR _race$[ebp]
  00007	50		 push	 eax
  00008	6a 00		 push	 0
  0000a	ff 75 0c	 push	 DWORD PTR _poArgs$[ebp]
  0000d	e8 00 00 00 00	 call	 ?PyTuple_GetInteger@@YA_NPAU_object@@HPAH@Z ; PyTuple_GetInteger
  00012	83 c4 0c	 add	 esp, 12			; 0000000cH
  00015	84 c0		 test	 al, al
  00017	75 0e		 jne	 SHORT $LN1@chrRaceToJ

; 9    : 		return Py_BuildException();

  00019	6a 00		 push	 0
  0001b	e8 00 00 00 00	 call	 ?Py_BuildException@@YAPAU_object@@PBDZZ ; Py_BuildException
  00020	83 c4 04	 add	 esp, 4

; 12   : }

  00023	8b e5		 mov	 esp, ebp
  00025	5d		 pop	 ebp
  00026	c3		 ret	 0
$LN1@chrRaceToJ:
; File d:\metin2\metin2\client_source_clean\client_source_clean\source\userinterface\instancebase.h

; 1109 : 	return race % JOB_NUM;

  00027	8b 45 fc	 mov	 eax, DWORD PTR _race$[ebp]
  0002a	25 03 00 00 80	 and	 eax, -2147483645	; 80000003H
  0002f	79 05		 jns	 SHORT $LN6@chrRaceToJ
  00031	48		 dec	 eax
  00032	83 c8 fc	 or	 eax, -4			; fffffffcH
  00035	40		 inc	 eax
$LN6@chrRaceToJ:
; File d:\metin2\metin2\client_source_clean\client_source_clean\source\userinterface\pythoncharactermodule.cpp

; 11   : 	return Py_BuildValue("i", RaceToJob(race));

  00036	50		 push	 eax
  00037	68 00 00 00 00	 push	 OFFSET ??_C@_01KBJDNOO@i?$AA@
  0003c	ff 15 00 00 00
	00		 call	 DWORD PTR __imp__Py_BuildValue
  00042	83 c4 08	 add	 esp, 8

; 12   : }

  00045	8b e5		 mov	 esp, ebp
  00047	5d		 pop	 ebp
  00048	c3		 ret	 0
?chrRaceToJob@@YAPAU_object@@PAU1@0@Z ENDP		; chrRaceToJob
_TEXT	ENDS
; Function compile flags: /Ogtp
; File d:\metin2\metin2\client_source_clean\client_source_clean\source\userinterface\pythoncharactermodule.cpp
; File d:\metin2\metin2\client_source_clean\client_source_clean\source\userinterface\instancebase.h
; File d:\metin2\metin2\client_source_clean\client_source_clean\source\userinterface\pythoncharactermodule.cpp
; File d:\metin2\metin2\client_source_clean\client_source_clean\source\userinterface\instancebase.h
; File d:\metin2\metin2\client_source_clean\client_source_clean\source\userinterface\pythoncharactermodule.cpp
;	COMDAT ?chrRaceToSex@@YAPAU_object@@PAU1@0@Z
_TEXT	SEGMENT
_race$ = -4						; size = 4
_poSelf$ = 8						; size = 4
_poArgs$ = 12						; size = 4
?chrRaceToSex@@YAPAU_object@@PAU1@0@Z PROC		; chrRaceToSex, COMDAT

; 15   : {

  00000	55		 push	 ebp
  00001	8b ec		 mov	 ebp, esp
  00003	51		 push	 ecx

; 16   : 	int race;
; 17   : 	if (!PyTuple_GetInteger(poArgs, 0, &race))

  00004	8d 45 fc	 lea	 eax, DWORD PTR _race$[ebp]
  00007	50		 push	 eax
  00008	6a 00		 push	 0
  0000a	ff 75 0c	 push	 DWORD PTR _poArgs$[ebp]
  0000d	e8 00 00 00 00	 call	 ?PyTuple_GetInteger@@YA_NPAU_object@@HPAH@Z ; PyTuple_GetInteger
  00012	83 c4 0c	 add	 esp, 12			; 0000000cH
  00015	84 c0		 test	 al, al
  00017	75 0e		 jne	 SHORT $LN1@chrRaceToS

; 18   : 		return Py_BuildException();

  00019	6a 00		 push	 0
  0001b	e8 00 00 00 00	 call	 ?Py_BuildException@@YAPAU_object@@PBDZZ ; Py_BuildException
  00020	83 c4 04	 add	 esp, 4

; 21   : }

  00023	8b e5		 mov	 esp, ebp
  00025	5d		 pop	 ebp
  00026	c3		 ret	 0
$LN1@chrRaceToS:
; File d:\metin2\metin2\client_source_clean\client_source_clean\source\userinterface\instancebase.h

; 1114 : 	switch (race)

  00027	8b 45 fc	 mov	 eax, DWORD PTR _race$[ebp]
  0002a	83 f8 07	 cmp	 eax, 7
  0002d	77 26		 ja	 SHORT $LN6@chrRaceToS
  0002f	0f b6 80 00 00
	00 00		 movzx	 eax, BYTE PTR $LN10@chrRaceToS[eax]
  00036	ff 24 85 00 00
	00 00		 jmp	 DWORD PTR $LN12@chrRaceToS[eax*4]
$LN5@chrRaceToS:

; 1115 : 	{
; 1116 : 		case 0:
; 1117 : 		case 2:
; 1118 : 		case 5:
; 1119 : 		case 7:
; 1120 : 			return 1;

  0003d	b8 01 00 00 00	 mov	 eax, 1
; File d:\metin2\metin2\client_source_clean\client_source_clean\source\userinterface\pythoncharactermodule.cpp

; 20   : 	return Py_BuildValue("i", RaceToSex(race));

  00042	50		 push	 eax
  00043	68 00 00 00 00	 push	 OFFSET ??_C@_01KBJDNOO@i?$AA@
  00048	ff 15 00 00 00
	00		 call	 DWORD PTR __imp__Py_BuildValue
  0004e	83 c4 08	 add	 esp, 8

; 21   : }

  00051	8b e5		 mov	 esp, ebp
  00053	5d		 pop	 ebp
  00054	c3		 ret	 0
$LN6@chrRaceToS:
; File d:\metin2\metin2\client_source_clean\client_source_clean\source\userinterface\instancebase.h

; 1128 : 	return 0;

  00055	33 c0		 xor	 eax, eax
; File d:\metin2\metin2\client_source_clean\client_source_clean\source\userinterface\pythoncharactermodule.cpp

; 20   : 	return Py_BuildValue("i", RaceToSex(race));

  00057	50		 push	 eax
  00058	68 00 00 00 00	 push	 OFFSET ??_C@_01KBJDNOO@i?$AA@
  0005d	ff 15 00 00 00
	00		 call	 DWORD PTR __imp__Py_BuildValue
  00063	83 c4 08	 add	 esp, 8

; 21   : }

  00066	8b e5		 mov	 esp, ebp
  00068	5d		 pop	 ebp
  00069	c3		 ret	 0
  0006a	8b ff		 npad	 2
$LN12@chrRaceToS:
  0006c	00 00 00 00	 DD	 $LN5@chrRaceToS
  00070	00 00 00 00	 DD	 $LN6@chrRaceToS
$LN10@chrRaceToS:
  00074	00		 DB	 0
  00075	01		 DB	 1
  00076	00		 DB	 0
  00077	01		 DB	 1
  00078	01		 DB	 1
  00079	00		 DB	 0
  0007a	01		 DB	 1
  0007b	00		 DB	 0
?chrRaceToSex@@YAPAU_object@@PAU1@0@Z ENDP		; chrRaceToSex
_TEXT	ENDS
; Function compile flags: /Ogtp
; File d:\metin2\metin2\client_source_clean\client_source_clean\source\userinterface\pythoncharactermodule.cpp
;	COMDAT ?chrDestroy@@YAPAU_object@@PAU1@0@Z
_TEXT	SEGMENT
_poSelf$ = 8						; size = 4
_poArgs$ = 12						; size = 4
?chrDestroy@@YAPAU_object@@PAU1@0@Z PROC		; chrDestroy, COMDAT

; 25   : 	CPythonCharacterManager::Instance().Destroy();

  00000	8b 0d 00 00 00
	00		 mov	 ecx, DWORD PTR ?ms_singleton@?$CSingleton@VCPythonCharacterManager@@@@0PAVCPythonCharacterManager@@A ; CSingleton<CPythonCharacterManager>::ms_singleton
  00006	83 c1 04	 add	 ecx, 4
  00009	8b 01		 mov	 eax, DWORD PTR [ecx]
  0000b	ff 50 04	 call	 DWORD PTR [eax+4]

; 26   : 	return Py_BuildNone();

  0000e	e9 00 00 00 00	 jmp	 ?Py_BuildNone@@YAPAU_object@@XZ ; Py_BuildNone
?chrDestroy@@YAPAU_object@@PAU1@0@Z ENDP		; chrDestroy
_TEXT	ENDS
; Function compile flags: /Ogtp
; File d:\metin2\metin2\client_source_clean\client_source_clean\source\userinterface\pythoncharactermodule.cpp
;	COMDAT ?chrUpdate@@YAPAU_object@@PAU1@0@Z
_TEXT	SEGMENT
_poSelf$ = 8						; size = 4
_poArgs$ = 12						; size = 4
?chrUpdate@@YAPAU_object@@PAU1@0@Z PROC			; chrUpdate, COMDAT

; 31   : 	CPythonCharacterManager::Instance().Update();

  00000	8b 0d 00 00 00
	00		 mov	 ecx, DWORD PTR ?ms_singleton@?$CSingleton@VCPythonCharacterManager@@@@0PAVCPythonCharacterManager@@A ; CSingleton<CPythonCharacterManager>::ms_singleton
  00006	e8 00 00 00 00	 call	 ?Update@CPythonCharacterManager@@QAEXXZ ; CPythonCharacterManager::Update

; 32   : 	return Py_BuildNone();

  0000b	e9 00 00 00 00	 jmp	 ?Py_BuildNone@@YAPAU_object@@XZ ; Py_BuildNone
?chrUpdate@@YAPAU_object@@PAU1@0@Z ENDP			; chrUpdate
_TEXT	ENDS
; Function compile flags: /Ogtp
; File d:\metin2\metin2\client_source_clean\client_source_clean\source\userinterface\pythoncharactermodule.cpp
;	COMDAT ?chrDeform@@YAPAU_object@@PAU1@0@Z
_TEXT	SEGMENT
_poSelf$ = 8						; size = 4
_poArgs$ = 12						; size = 4
?chrDeform@@YAPAU_object@@PAU1@0@Z PROC			; chrDeform, COMDAT

; 37   : 	CPythonCharacterManager::Instance().Deform();

  00000	8b 0d 00 00 00
	00		 mov	 ecx, DWORD PTR ?ms_singleton@?$CSingleton@VCPythonCharacterManager@@@@0PAVCPythonCharacterManager@@A ; CSingleton<CPythonCharacterManager>::ms_singleton
  00006	e8 00 00 00 00	 call	 ?Deform@CPythonCharacterManager@@QAEXXZ ; CPythonCharacterManager::Deform

; 38   : 	return Py_BuildNone();

  0000b	e9 00 00 00 00	 jmp	 ?Py_BuildNone@@YAPAU_object@@XZ ; Py_BuildNone
?chrDeform@@YAPAU_object@@PAU1@0@Z ENDP			; chrDeform
_TEXT	ENDS
; Function compile flags: /Ogtp
; File d:\metin2\metin2\client_source_clean\client_source_clean\source\userinterface\pythoncharactermodule.cpp
;	COMDAT ?chrRender@@YAPAU_object@@PAU1@0@Z
_TEXT	SEGMENT
_poSelf$ = 8						; size = 4
_poArgs$ = 12						; size = 4
?chrRender@@YAPAU_object@@PAU1@0@Z PROC			; chrRender, COMDAT

; 43   : 	CPythonCharacterManager::Instance().Render();

  00000	8b 0d 00 00 00
	00		 mov	 ecx, DWORD PTR ?ms_singleton@?$CSingleton@VCPythonCharacterManager@@@@0PAVCPythonCharacterManager@@A ; CSingleton<CPythonCharacterManager>::ms_singleton
  00006	e8 00 00 00 00	 call	 ?Render@CPythonCharacterManager@@QAEXXZ ; CPythonCharacterManager::Render

; 44   : 	return Py_BuildNone();

  0000b	e9 00 00 00 00	 jmp	 ?Py_BuildNone@@YAPAU_object@@XZ ; Py_BuildNone
?chrRender@@YAPAU_object@@PAU1@0@Z ENDP			; chrRender
_TEXT	ENDS
; Function compile flags: /Ogtp
; File d:\metin2\metin2\client_source_clean\client_source_clean\source\userinterface\pythoncharactermodule.cpp
;	COMDAT ?chrRenderCollision@@YAPAU_object@@PAU1@0@Z
_TEXT	SEGMENT
_poSelf$ = 8						; size = 4
_poArgs$ = 12						; size = 4
?chrRenderCollision@@YAPAU_object@@PAU1@0@Z PROC	; chrRenderCollision, COMDAT

; 49   : 	CPythonCharacterManager::Instance().RenderCollision();

  00000	8b 0d 00 00 00
	00		 mov	 ecx, DWORD PTR ?ms_singleton@?$CSingleton@VCPythonCharacterManager@@@@0PAVCPythonCharacterManager@@A ; CSingleton<CPythonCharacterManager>::ms_singleton
  00006	e8 00 00 00 00	 call	 ?RenderCollision@CPythonCharacterManager@@QAEXXZ ; CPythonCharacterManager::RenderCollision

; 50   : 	return Py_BuildNone();

  0000b	e9 00 00 00 00	 jmp	 ?Py_BuildNone@@YAPAU_object@@XZ ; Py_BuildNone
?chrRenderCollision@@YAPAU_object@@PAU1@0@Z ENDP	; chrRenderCollision
_TEXT	ENDS
; Function compile flags: /Ogtp
; File d:\metin2\metin2\client_source_clean\client_source_clean\source\userinterface\pythoncharactermodule.cpp
; File c:\program files (x86)\microsoft visual studio 12.0\vc\include\xstring
; File c:\program files (x86)\microsoft visual studio 12.0\vc\include\iosfwd
; File d:\metin2\metin2\client_source_clean\client_source_clean\source\userinterface\pythoncharactermodule.cpp
; File c:\program files (x86)\microsoft visual studio 12.0\vc\include\xstring
; File d:\metin2\metin2\client_source_clean\client_source_clean\source\userinterface\pythoncharactermodule.cpp
; File c:\program files (x86)\microsoft visual studio 12.0\vc\include\xstring
; File d:\metin2\metin2\client_source_clean\client_source_clean\source\userinterface\pythoncharactermodule.cpp
; File c:\program files (x86)\microsoft visual studio 12.0\vc\include\xstring
; File d:\metin2\metin2\client_source_clean\client_source_clean\source\userinterface\pythoncharactermodule.cpp
; File c:\program files (x86)\microsoft visual studio 12.0\vc\include\xstring
; File c:\program files (x86)\microsoft visual studio 12.0\vc\include\xmemory0
; File c:\program files (x86)\microsoft visual studio 12.0\vc\include\xstring
; File c:\program files (x86)\microsoft visual studio 12.0\vc\include\iosfwd
; File d:\metin2\metin2\client_source_clean\client_source_clean\source\userinterface\pythoncharactermodule.cpp
;	COMDAT ?chrCreateInstance@@YAPAU_object@@PAU1@0@Z
_TEXT	SEGMENT
_iVirtualID$ = -132					; size = 4
_kCreateData$2 = -128					; size = 104
__$ArrayPad$ = -20					; size = 4
__$EHRec$ = -12						; size = 12
_poSelf$ = 8						; size = 4
_poArgs$ = 12						; size = 4
?chrCreateInstance@@YAPAU_object@@PAU1@0@Z PROC		; chrCreateInstance, COMDAT

; 55   : {

  00000	55		 push	 ebp
  00001	8b ec		 mov	 ebp, esp
  00003	83 e4 f8	 and	 esp, -8			; fffffff8H
  00006	6a ff		 push	 -1
  00008	68 00 00 00 00	 push	 __ehhandler$?chrCreateInstance@@YAPAU_object@@PAU1@0@Z
  0000d	64 a1 00 00 00
	00		 mov	 eax, DWORD PTR fs:0
  00013	50		 push	 eax
  00014	83 ec 78	 sub	 esp, 120		; 00000078H
  00017	a1 00 00 00 00	 mov	 eax, DWORD PTR ___security_cookie
  0001c	33 c4		 xor	 eax, esp
  0001e	89 44 24 70	 mov	 DWORD PTR __$ArrayPad$[esp+132], eax
  00022	53		 push	 ebx
  00023	56		 push	 esi
  00024	57		 push	 edi
  00025	a1 00 00 00 00	 mov	 eax, DWORD PTR ___security_cookie
  0002a	33 c4		 xor	 eax, esp
  0002c	50		 push	 eax
  0002d	8d 84 24 88 00
	00 00		 lea	 eax, DWORD PTR __$EHRec$[esp+148]
  00034	64 a3 00 00 00
	00		 mov	 DWORD PTR fs:0, eax
  0003a	8b 75 0c	 mov	 esi, DWORD PTR _poArgs$[ebp]

; 56   : 	int iVirtualID;
; 57   : 	if (!PyTuple_GetInteger(poArgs, 0, &iVirtualID))

  0003d	8d 44 24 10	 lea	 eax, DWORD PTR _iVirtualID$[esp+148]
  00041	50		 push	 eax
  00042	6a 00		 push	 0
  00044	56		 push	 esi
  00045	e8 00 00 00 00	 call	 ?PyTuple_GetInteger@@YA_NPAU_object@@HPAH@Z ; PyTuple_GetInteger
  0004a	83 c4 0c	 add	 esp, 12			; 0000000cH
  0004d	84 c0		 test	 al, al
  0004f	75 0f		 jne	 SHORT $LN7@chrCreateI
$LN98@chrCreateI:

; 58   : 		return Py_BuildException();

  00051	6a 00		 push	 0
  00053	e8 00 00 00 00	 call	 ?Py_BuildException@@YAPAU_object@@PBDZZ ; Py_BuildException
  00058	83 c4 04	 add	 esp, 4
  0005b	e9 a6 01 00 00	 jmp	 $LN8@chrCreateI
$LN7@chrCreateI:

; 59   : 
; 60   : 	if (PyTuple_Size(poArgs)==2)

  00060	56		 push	 esi
  00061	ff 15 00 00 00
	00		 call	 DWORD PTR __imp__PyTuple_Size
  00067	83 c4 04	 add	 esp, 4
  0006a	83 f8 02	 cmp	 eax, 2
  0006d	0f 85 7f 01 00
	00		 jne	 $LN6@chrCreateI

; 61   : 	{
; 62   : 		PyObject* poDict=PyTuple_GetItem(poArgs, 1);

  00073	6a 01		 push	 1
  00075	56		 push	 esi
  00076	ff 15 00 00 00
	00		 call	 DWORD PTR __imp__PyTuple_GetItem
  0007c	8b f0		 mov	 esi, eax
  0007e	83 c4 08	 add	 esp, 8

; 63   : 		if (!PyDict_Check(poDict))

  00081	8b 4e 04	 mov	 ecx, DWORD PTR [esi+4]
  00084	f7 41 54 00 00
	00 20		 test	 DWORD PTR [ecx+84], 536870912 ; 20000000H
  0008b	74 c4		 je	 SHORT $LN98@chrCreateI
  0008d	8d 4c 24 57	 lea	 ecx, DWORD PTR _kCreateData$2[esp+215]
  00091	e8 00 00 00 00	 call	 ??0CAffectFlagContainer@@QAE@XZ ; CAffectFlagContainer::CAffectFlagContainer
; File c:\program files (x86)\microsoft visual studio 12.0\vc\include\xstring

; 2284 : 		this->_Myres = this->_BUF_SIZE - 1;

  00096	c7 44 24 74 0f
	00 00 00	 mov	 DWORD PTR _kCreateData$2[esp+244], 15 ; 0000000fH

; 1170 : 		}
; 1171 : 
; 1172 : 	_Myt& assign(size_type _Count, _Elem _Ch)
; 1173 : 		{	// assign _Count * _Ch
; 1174 : 		if (_Count == npos)
; 1175 : 			_Xlen();	// result too long
; 1176 : 
; 1177 : 		if (_Grow(_Count))
; 1178 : 			{	// make room and assign new stuff
; 1179 : 			_Chassign(0, _Count, _Ch);
; 1180 : 			_Eos(_Count);
; 1181 : 			}
; 1182 : 		return (*this);
; 1183 : 		}
; 1184 : 
; 1185 : 	template<class _Iter>
; 1186 : 		typename enable_if<_Is_iterator<_Iter>::value,
; 1187 : 			_Myt&>::type
; 1188 : 		assign(_Iter _First, _Iter _Last)
; 1189 : 		{	// assign [_First, _Last), input iterators
; 1190 : 		return (replace(begin(), end(), _First, _Last));
; 1191 : 		}
; 1192 : 
; 1193 : 	_Myt& assign(const_pointer _First, const_pointer _Last)
; 1194 : 		{	// assign [_First, _Last), const pointers
; 1195 : 		return (replace(begin(), end(), _First, _Last));
; 1196 : 		}
; 1197 : 
; 1198 : 	_Myt& assign(const_iterator _First, const_iterator _Last)
; 1199 : 		{	// assign [_First, _Last), const_iterators
; 1200 : 		return (replace(begin(), end(), _First, _Last));
; 1201 : 		}
; 1202 : 
; 1203 : 	_Myt& insert(size_type _Off, const _Myt& _Right)
; 1204 : 		{	// insert _Right at _Off
; 1205 : 		return (insert(_Off, _Right, 0, npos));
; 1206 : 		}
; 1207 : 
; 1208 : 	_Myt& insert(size_type _Off,
; 1209 : 		const _Myt& _Right, size_type _Roff, size_type _Count)
; 1210 : 		{	// insert _Right [_Roff, _Roff + _Count) at _Off
; 1211 : 		if (this->_Mysize < _Off || _Right.size() < _Roff)
; 1212 : 			_Xran();	// _Off or _Roff off end
; 1213 : 		size_type _Num = _Right.size() - _Roff;
; 1214 : 		if (_Num < _Count)
; 1215 : 			_Count = _Num;	// trim _Count to size
; 1216 : 		if (npos - this->_Mysize <= _Count)
; 1217 : 			_Xlen();	// result too long
; 1218 : 
; 1219 : 		if (0 < _Count && _Grow(_Num = this->_Mysize + _Count))
; 1220 : 			{	// make room and insert new stuff
; 1221 : 			_Traits::move(this->_Myptr() + _Off + _Count,
; 1222 : 				this->_Myptr() + _Off,
; 1223 : 				this->_Mysize - _Off);	// empty out hole
; 1224 : 			if (this == &_Right)
; 1225 : 				_Traits::move(this->_Myptr() + _Off,
; 1226 : 					this->_Myptr() + (_Off < _Roff ? _Roff + _Count : _Roff),
; 1227 : 						_Count);	// substring
; 1228 : 			else
; 1229 : 				_Traits::copy(this->_Myptr() + _Off,
; 1230 : 					_Right._Myptr() + _Roff, _Count);	// fill hole
; 1231 : 			_Eos(_Num);
; 1232 : 			}
; 1233 : 		return (*this);
; 1234 : 		}
; 1235 : 
; 1236 : 	_Myt& insert(size_type _Off,
; 1237 : 		const _Elem *_Ptr, size_type _Count)
; 1238 : 		{	// insert [_Ptr, _Ptr + _Count) at _Off
; 1239 :  #if _ITERATOR_DEBUG_LEVEL == 2
; 1240 : 		if (_Count != 0)
; 1241 : 			_DEBUG_POINTER(_Ptr);
; 1242 :  #endif /* _ITERATOR_DEBUG_LEVEL == 2 */
; 1243 : 
; 1244 : 		if (_Inside(_Ptr))
; 1245 : 			return (insert(_Off, *this,
; 1246 : 				_Ptr - this->_Myptr(), _Count));	// substring
; 1247 : 		if (this->_Mysize < _Off)
; 1248 : 			_Xran();	// _Off off end
; 1249 : 		if (npos - this->_Mysize <= _Count)
; 1250 : 			_Xlen();	// result too long
; 1251 : 		size_type _Num;
; 1252 : 		if (0 < _Count && _Grow(_Num = this->_Mysize + _Count))
; 1253 : 			{	// make room and insert new stuff
; 1254 : 			_Traits::move(this->_Myptr() + _Off + _Count,
; 1255 : 				this->_Myptr() + _Off,
; 1256 : 				this->_Mysize - _Off);	// empty out hole
; 1257 : 			_Traits::copy(this->_Myptr() + _Off, _Ptr, _Count);	// fill hole
; 1258 : 			_Eos(_Num);
; 1259 : 			}
; 1260 : 		return (*this);
; 1261 : 		}
; 1262 : 
; 1263 : 	_Myt& insert(size_type _Off, const _Elem *_Ptr)
; 1264 : 		{	// insert [_Ptr, <null>) at _Off
; 1265 : 		_DEBUG_POINTER(_Ptr);
; 1266 : 		return (insert(_Off, _Ptr, _Traits::length(_Ptr)));
; 1267 : 		}
; 1268 : 
; 1269 : 	_Myt& insert(size_type _Off,
; 1270 : 		size_type _Count, _Elem _Ch)
; 1271 : 		{	// insert _Count * _Ch at _Off
; 1272 : 		if (this->_Mysize < _Off)
; 1273 : 			_Xran();	// _Off off end
; 1274 : 		if (npos - this->_Mysize <= _Count)
; 1275 : 			_Xlen();	// result too long
; 1276 : 		size_type _Num;
; 1277 : 		if (0 < _Count && _Grow(_Num = this->_Mysize + _Count))
; 1278 : 			{	// make room and insert new stuff
; 1279 : 			_Traits::move(this->_Myptr() + _Off + _Count,
; 1280 : 				this->_Myptr() + _Off,
; 1281 : 				this->_Mysize - _Off);	// empty out hole
; 1282 : 			_Chassign(_Off, _Count, _Ch);	// fill hole
; 1283 : 			_Eos(_Num);
; 1284 : 			}
; 1285 : 		return (*this);
; 1286 : 		}
; 1287 : 
; 1288 : 	iterator insert(const_iterator _Where)
; 1289 : 		{	// insert <null> at _Where
; 1290 : 		return (insert(_Where, _Elem()));
; 1291 : 		}
; 1292 : 
; 1293 : 	iterator insert(const_iterator _Where, _Elem _Ch)
; 1294 : 		{	// insert _Ch at _Where
; 1295 : 		size_type _Off = _Pdif(_Where, begin());
; 1296 : 		insert(_Off, 1, _Ch);
; 1297 : 		return (begin() + _Off);
; 1298 : 		}
; 1299 : 
; 1300 : 	iterator insert(const_iterator _Where, size_type _Count, _Elem _Ch)
; 1301 : 		{	// insert _Count * _Elem at _Where
; 1302 : 		size_type _Off = _Pdif(_Where, begin());
; 1303 : 		insert(_Off, _Count, _Ch);
; 1304 : 		return (begin() + _Off);
; 1305 : 		}
; 1306 : 
; 1307 : 	template<class _Iter>
; 1308 : 		typename enable_if<_Is_iterator<_Iter>::value,
; 1309 : 			iterator>::type
; 1310 : 		insert(const_iterator _Where, _Iter _First, _Iter _Last)
; 1311 : 		{	// insert [_First, _Last) at _Where, input iterators
; 1312 : 		size_type _Off = _Pdif(_Where, begin());
; 1313 : 		replace(_Where, _Where, _First, _Last);
; 1314 : 		return (begin() + _Off);
; 1315 : 		}
; 1316 : 
; 1317 : 	iterator insert(const_iterator _Where,
; 1318 : 		const_pointer _First, const_pointer _Last)
; 1319 : 		{	// insert [_First, _Last) at _Where, const pointers
; 1320 : 		size_type _Off = _Pdif(_Where, begin());
; 1321 : 		replace(_Where, _Where, _First, _Last);
; 1322 : 		return (begin() + _Off);
; 1323 : 		}
; 1324 : 
; 1325 : 	iterator insert(const_iterator _Where,
; 1326 : 		const_iterator _First, const_iterator _Last)
; 1327 : 		{	// insert [_First, _Last) at _Where, const_iterators
; 1328 : 		size_type _Off = _Pdif(_Where, begin());
; 1329 : 		replace(_Where, _Where, _First, _Last);
; 1330 : 		return (begin() + _Off);
; 1331 : 		}
; 1332 : 
; 1333 : 	_Myt& erase(size_type _Off = 0)
; 1334 : 		{	// erase elements [_Off, ...)
; 1335 : 		if (this->_Mysize < _Off)
; 1336 : 			_Xran();	// _Off off end
; 1337 : 		_Eos(_Off);
; 1338 : 		return (*this);
; 1339 : 		}
; 1340 : 
; 1341 : 	_Myt& erase(size_type _Off, size_type _Count)
; 1342 : 		{	// erase elements [_Off, _Off + _Count)
; 1343 : 		if (this->_Mysize < _Off)
; 1344 : 			_Xran();	// _Off off end
; 1345 : 		if (this->_Mysize - _Off <= _Count)
; 1346 : 			_Eos(_Off);	// erase elements [_Off, ...)
; 1347 : 		else if (0 < _Count)
; 1348 : 			{	// move elements down
; 1349 : 			value_type *_Ptr = this->_Myptr() + _Off;
; 1350 : 			size_type _Newsize = this->_Mysize - _Count;
; 1351 : 			_Traits::move(_Ptr, _Ptr + _Count, _Newsize - _Off);
; 1352 : 			_Eos(_Newsize);
; 1353 : 			}
; 1354 : 		return (*this);
; 1355 : 		}
; 1356 : 
; 1357 : 	iterator erase(const_iterator _Where)
; 1358 : 		{	// erase element at _Where
; 1359 : 		size_type _Count = _Pdif(_Where, begin());
; 1360 : 		erase(_Count, 1);
; 1361 : 		return (_STRING_ITERATOR(this->_Myptr() + _Count));
; 1362 : 		}
; 1363 : 
; 1364 : 	iterator erase(const_iterator _First, const_iterator _Last)
; 1365 : 		{	// erase substring [_First, _Last)
; 1366 : 		_DEBUG_RANGE(_First, _Last);
; 1367 : 		size_type _Count = _Pdif(_First, begin());
; 1368 : 		erase(_Count, _Pdif(_Last, _First));
; 1369 : 		return (_STRING_ITERATOR(this->_Myptr() + _Count));
; 1370 : 		}
; 1371 : 
; 1372 : 	void clear() _NOEXCEPT
; 1373 : 		{	// erase all
; 1374 : 		_Eos(0);
; 1375 : 		}
; 1376 : 
; 1377 : 	_Myt& replace(size_type _Off, size_type _N0, const _Myt& _Right)
; 1378 : 		{	// replace [_Off, _Off + _N0) with _Right
; 1379 : 		return (replace(_Off, _N0, _Right, 0, npos));
; 1380 : 		}
; 1381 : 
; 1382 : 	_Myt& replace(size_type _Off,
; 1383 : 		size_type _N0, const _Myt& _Right, size_type _Roff, size_type _Count)
; 1384 : 		{	// replace [_Off, _Off + _N0) with _Right [_Roff, _Roff + _Count)
; 1385 : 		if (this->_Mysize < _Off || _Right.size() < _Roff)
; 1386 : 			_Xran();	// _Off or _Roff off end
; 1387 : 		if (this->_Mysize - _Off < _N0)
; 1388 : 			_N0 = this->_Mysize - _Off;	// trim _N0 to size
; 1389 : 		size_type _Num = _Right.size() - _Roff;
; 1390 : 		if (_Num < _Count)
; 1391 : 			_Count = _Num;	// trim _Count to size
; 1392 : 		if (npos - _Count <= this->_Mysize - _N0)
; 1393 : 			_Xlen();	// result too long
; 1394 : 
; 1395 : 		size_type _Nm = this->_Mysize - _N0 - _Off;	// length of kept tail
; 1396 : 		size_type _Newsize = this->_Mysize + _Count - _N0;
; 1397 : 		if (this->_Mysize < _Newsize)
; 1398 : 			_Grow(_Newsize);
; 1399 : 
; 1400 : 		if (this != &_Right)
; 1401 : 			{	// no overlap, just move down and copy in new stuff
; 1402 : 			_Traits::move(this->_Myptr() + _Off + _Count,
; 1403 : 				this->_Myptr() + _Off + _N0, _Nm);	// empty hole
; 1404 : 			_Traits::copy(this->_Myptr() + _Off,
; 1405 : 				_Right._Myptr() + _Roff, _Count);	// fill hole
; 1406 : 			}
; 1407 : 		else if (_Count <= _N0)
; 1408 : 			{	// hole doesn't get larger, just copy in substring
; 1409 : 			_Traits::move(this->_Myptr() + _Off,
; 1410 : 				this->_Myptr() + _Roff, _Count);	// fill hole
; 1411 : 			_Traits::move(this->_Myptr() + _Off + _Count,
; 1412 : 				this->_Myptr() + _Off + _N0, _Nm);	// move tail down
; 1413 : 			}
; 1414 : 		else if (_Roff <= _Off)
; 1415 : 			{	// hole gets larger, substring begins before hole
; 1416 : 			_Traits::move(this->_Myptr() + _Off + _Count,
; 1417 : 				this->_Myptr() + _Off + _N0, _Nm);	// move tail down
; 1418 : 			_Traits::move(this->_Myptr() + _Off,
; 1419 : 				this->_Myptr() + _Roff, _Count);	// fill hole
; 1420 : 			}
; 1421 : 		else if (_Off + _N0 <= _Roff)
; 1422 : 			{	// hole gets larger, substring begins after hole
; 1423 : 			_Traits::move(this->_Myptr() + _Off + _Count,
; 1424 : 				this->_Myptr() + _Off + _N0, _Nm);	// move tail down
; 1425 : 			_Traits::move(this->_Myptr() + _Off,
; 1426 : 				this->_Myptr() + (_Roff + _Count - _N0),
; 1427 : 				_Count);	// fill hole
; 1428 : 			}
; 1429 : 		else
; 1430 : 			{	// hole gets larger, substring begins in hole
; 1431 : 			_Traits::move(this->_Myptr() + _Off,
; 1432 : 				this->_Myptr() + _Roff, _N0);	// fill old hole
; 1433 : 			_Traits::move(this->_Myptr() + _Off + _Count,
; 1434 : 				this->_Myptr() + _Off + _N0, _Nm);	// move tail down
; 1435 : 			_Traits::move(this->_Myptr() + _Off + _N0,
; 1436 : 				this->_Myptr() + _Roff + _Count,
; 1437 : 				_Count - _N0);	// fill rest of new hole
; 1438 : 			}
; 1439 : 
; 1440 : 		_Eos(_Newsize);
; 1441 : 		return (*this);
; 1442 : 		}
; 1443 : 
; 1444 : 	_Myt& replace(size_type _Off,
; 1445 : 		size_type _N0, const _Elem *_Ptr, size_type _Count)
; 1446 : 		{	// replace [_Off, _Off + _N0) with [_Ptr, _Ptr + _Count)
; 1447 :  #if _ITERATOR_DEBUG_LEVEL == 2
; 1448 : 		if (_Count != 0)
; 1449 : 			_DEBUG_POINTER(_Ptr);
; 1450 :  #endif /* _ITERATOR_DEBUG_LEVEL == 2 */
; 1451 : 
; 1452 : 		if (_Inside(_Ptr))
; 1453 : 			return (replace(_Off, _N0, *this,
; 1454 : 				_Ptr - this->_Myptr(),
; 1455 : 				_Count));	// substring, replace carefully
; 1456 : 		if (this->_Mysize < _Off)
; 1457 : 			_Xran();	// _Off off end
; 1458 : 		if (this->_Mysize - _Off < _N0)
; 1459 : 			_N0 = this->_Mysize - _Off;	// trim _N0 to size
; 1460 : 		if (npos - _Count <= this->_Mysize - _N0)
; 1461 : 			_Xlen();	// result too long
; 1462 : 		size_type _Nm = this->_Mysize - _N0 - _Off;
; 1463 : 
; 1464 : 		if (_Count < _N0)
; 1465 : 			_Traits::move(this->_Myptr() + _Off + _Count,
; 1466 : 				this->_Myptr() + _Off + _N0,
; 1467 : 				_Nm);	// smaller hole, move tail up
; 1468 : 		size_type _Num;
; 1469 : 		if ((0 < _Count || 0 < _N0)
; 1470 : 			&& _Grow(_Num = this->_Mysize + _Count - _N0))
; 1471 : 			{	// make room and rearrange
; 1472 : 			if (_N0 < _Count)
; 1473 : 				_Traits::move(this->_Myptr() + _Off + _Count,
; 1474 : 					this->_Myptr() + _Off + _N0, _Nm);	// move tail down
; 1475 : 			_Traits::copy(this->_Myptr() + _Off, _Ptr, _Count);	// fill hole
; 1476 : 			_Eos(_Num);
; 1477 : 			}
; 1478 : 		return (*this);
; 1479 : 		}
; 1480 : 
; 1481 : 	_Myt& replace(size_type _Off, size_type _N0, const _Elem *_Ptr)
; 1482 : 		{	// replace [_Off, _Off + _N0) with [_Ptr, <null>)
; 1483 : 		_DEBUG_POINTER(_Ptr);
; 1484 : 		return (replace(_Off, _N0, _Ptr, _Traits::length(_Ptr)));
; 1485 : 		}
; 1486 : 
; 1487 : 	_Myt& replace(size_type _Off,
; 1488 : 		size_type _N0, size_type _Count, _Elem _Ch)
; 1489 : 		{	// replace [_Off, _Off + _N0) with _Count * _Ch
; 1490 : 		if (this->_Mysize < _Off)
; 1491 : 			_Xran();	// _Off off end
; 1492 : 		if (this->_Mysize - _Off < _N0)
; 1493 : 			_N0 = this->_Mysize - _Off;	// trim _N0 to size
; 1494 : 		if (npos - _Count <= this->_Mysize - _N0)
; 1495 : 			_Xlen();	// result too long
; 1496 : 		size_type _Nm = this->_Mysize - _N0 - _Off;
; 1497 : 
; 1498 : 		if (_Count < _N0)
; 1499 : 			_Traits::move(this->_Myptr() + _Off + _Count,
; 1500 : 				this->_Myptr() + _Off + _N0,
; 1501 : 				_Nm);	// smaller hole, move tail up
; 1502 : 		size_type _Num;
; 1503 : 		if ((0 < _Count || 0 < _N0)
; 1504 : 			&& _Grow(_Num = this->_Mysize + _Count - _N0))
; 1505 : 			{	// make room and rearrange
; 1506 : 			if (_N0 < _Count)
; 1507 : 				_Traits::move(this->_Myptr() + _Off + _Count,
; 1508 : 					this->_Myptr() + _Off + _N0, _Nm);	// move tail down
; 1509 : 			_Chassign(_Off, _Count, _Ch);	// fill hole
; 1510 : 			_Eos(_Num);
; 1511 : 			}
; 1512 : 		return (*this);
; 1513 : 		}
; 1514 : 
; 1515 : 	_Myt& replace(const_iterator _First, const_iterator _Last,
; 1516 : 		const _Myt& _Right)
; 1517 : 		{	// replace [_First, _Last) with _Right
; 1518 : 		return (replace(
; 1519 : 			_Pdif(_First, begin()), _Pdif(_Last, _First), _Right));
; 1520 : 		}
; 1521 : 
; 1522 : 	_Myt& replace(const_iterator _First, const_iterator _Last,
; 1523 : 		const _Elem *_Ptr, size_type _Count)
; 1524 : 		{	// replace [_First, _Last) with [_Ptr, _Ptr + _Count)
; 1525 : 		return (replace(
; 1526 : 			_Pdif(_First, begin()), _Pdif(_Last, _First), _Ptr, _Count));
; 1527 : 		}
; 1528 : 
; 1529 : 	_Myt& replace(const_iterator _First, const_iterator _Last,
; 1530 : 		const _Elem *_Ptr)
; 1531 : 		{	// replace [_First, _Last) with [_Ptr, <null>)
; 1532 : 		return (replace(
; 1533 : 			_Pdif(_First, begin()), _Pdif(_Last, _First), _Ptr));
; 1534 : 		}
; 1535 : 
; 1536 : 	_Myt& replace(const_iterator _First, const_iterator _Last,
; 1537 : 		size_type _Count, _Elem _Ch)
; 1538 : 		{	// replace [_First, _Last) with _Count * _Ch
; 1539 : 		return (replace(
; 1540 : 			_Pdif(_First, begin()), _Pdif(_Last, _First), _Count, _Ch));
; 1541 : 		}
; 1542 : 
; 1543 : 	template<class _Iter>
; 1544 : 		typename enable_if<_Is_iterator<_Iter>::value,
; 1545 : 			_Myt&>::type
; 1546 : 		replace(const_iterator _First, const_iterator _Last,
; 1547 : 			_Iter _First2, _Iter _Last2)
; 1548 : 		{	// replace [_First, _Last) with [_First2, _Last2), input iterators
; 1549 : 		_Myt _Right(_First2, _Last2);
; 1550 : 		replace(_First, _Last, _Right);
; 1551 : 		return (*this);
; 1552 : 		}
; 1553 : 
; 1554 : 	_Myt& replace(const_iterator _First, const_iterator _Last,
; 1555 : 		const_pointer _First2, const_pointer _Last2)
; 1556 : 		{	// replace [_First, _Last) with [_First2, _Last2), const pointers
; 1557 : 		if (_First2 == _Last2)
; 1558 : 			erase(_Pdif(_First, begin()), _Pdif(_Last, _First));
; 1559 : 		else
; 1560 : 			replace(_Pdif(_First, begin()), _Pdif(_Last, _First),
; 1561 : 				&*_First2, _Last2 - _First2);
; 1562 : 		return (*this);
; 1563 : 		}
; 1564 : 
; 1565 : 	_Myt& replace(const_iterator _First, const_iterator _Last,
; 1566 : 		pointer _First2, pointer _Last2)
; 1567 : 		{	// replace [_First, _Last) with [_First2, _Last2), const pointers
; 1568 : 		if (_First2 == _Last2)
; 1569 : 			erase(_Pdif(_First, begin()), _Pdif(_Last, _First));
; 1570 : 		else
; 1571 : 			replace(_Pdif(_First, begin()), _Pdif(_Last, _First),
; 1572 : 				&*_First2, _Last2 - _First2);
; 1573 : 		return (*this);
; 1574 : 		}
; 1575 : 
; 1576 : 	_Myt& replace(const_iterator _First, const_iterator _Last,
; 1577 : 		const_iterator _First2, const_iterator _Last2)
; 1578 : 		{	// replace [_First, _Last) with [_First2, _Last2), const_iterators
; 1579 : 		if (_First2 == _Last2)
; 1580 : 			erase(_Pdif(_First, begin()), _Pdif(_Last, _First));
; 1581 : 		else
; 1582 : 			replace(_Pdif(_First, begin()), _Pdif(_Last, _First),
; 1583 : 				&*_First2, _Last2 - _First2);
; 1584 : 		return (*this);
; 1585 : 		}
; 1586 : 
; 1587 : 	_Myt& replace(const_iterator _First, const_iterator _Last,
; 1588 : 		iterator _First2, iterator _Last2)
; 1589 : 		{	// replace [_First, _Last) with [_First2, _Last2), const_iterators
; 1590 : 		if (_First2 == _Last2)
; 1591 : 			erase(_Pdif(_First, begin()), _Pdif(_Last, _First));
; 1592 : 		else
; 1593 : 			replace(_Pdif(_First, begin()), _Pdif(_Last, _First),
; 1594 : 				&*_First2, _Last2 - _First2);
; 1595 : 		return (*this);
; 1596 : 		}
; 1597 : 
; 1598 : 	iterator begin() _NOEXCEPT
; 1599 : 		{	// return iterator for beginning of mutable sequence
; 1600 : 		return (_STRING_ITERATOR(this->_Myptr()));
; 1601 : 		}
; 1602 : 
; 1603 : 	const_iterator begin() const _NOEXCEPT
; 1604 : 		{	// return iterator for beginning of nonmutable sequence
; 1605 : 		return (_STRING_CONST_ITERATOR(this->_Myptr()));
; 1606 : 		}
; 1607 : 
; 1608 : 	iterator end() _NOEXCEPT
; 1609 : 		{	// return iterator for end of mutable sequence
; 1610 : 		return (_STRING_ITERATOR(this->_Myptr() + this->_Mysize));
; 1611 : 		}
; 1612 : 
; 1613 : 	const_iterator end() const _NOEXCEPT
; 1614 : 		{	// return iterator for end of nonmutable sequence
; 1615 : 		return (_STRING_CONST_ITERATOR(this->_Myptr() + this->_Mysize));
; 1616 : 		}
; 1617 : 
; 1618 : 	reverse_iterator rbegin() _NOEXCEPT
; 1619 : 		{	// return iterator for beginning of reversed mutable sequence
; 1620 : 		return (reverse_iterator(end()));
; 1621 : 		}
; 1622 : 
; 1623 : 	const_reverse_iterator rbegin() const _NOEXCEPT
; 1624 : 		{	// return iterator for beginning of reversed nonmutable sequence
; 1625 : 		return (const_reverse_iterator(end()));
; 1626 : 		}
; 1627 : 
; 1628 : 	reverse_iterator rend() _NOEXCEPT
; 1629 : 		{	// return iterator for end of reversed mutable sequence
; 1630 : 		return (reverse_iterator(begin()));
; 1631 : 		}
; 1632 : 
; 1633 : 	const_reverse_iterator rend() const _NOEXCEPT
; 1634 : 		{	// return iterator for end of reversed nonmutable sequence
; 1635 : 		return (const_reverse_iterator(begin()));
; 1636 : 		}
; 1637 : 
; 1638 : 	const_iterator cbegin() const _NOEXCEPT
; 1639 : 		{	// return iterator for beginning of nonmutable sequence
; 1640 : 		return (((const _Myt *)this)->begin());
; 1641 : 		}
; 1642 : 
; 1643 : 	const_iterator cend() const _NOEXCEPT
; 1644 : 		{	// return iterator for end of nonmutable sequence
; 1645 : 		return (((const _Myt *)this)->end());
; 1646 : 		}
; 1647 : 
; 1648 : 	const_reverse_iterator crbegin() const _NOEXCEPT
; 1649 : 		{	// return iterator for beginning of reversed nonmutable sequence
; 1650 : 		return (((const _Myt *)this)->rbegin());
; 1651 : 		}
; 1652 : 
; 1653 : 	const_reverse_iterator crend() const _NOEXCEPT
; 1654 : 		{	// return iterator for end of reversed nonmutable sequence
; 1655 : 		return (((const _Myt *)this)->rend());
; 1656 : 		}
; 1657 : 
; 1658 : 	void shrink_to_fit()
; 1659 : 		{	// reduce capacity
; 1660 : 		if ((size() | this->_ALLOC_MASK) < capacity())
; 1661 : 			{	// worth shrinking, do it
; 1662 : 			_Myt _Tmp(*this);
; 1663 : 			swap(_Tmp);
; 1664 : 			}
; 1665 : 		}
; 1666 : 
; 1667 : 	reference at(size_type _Off)
; 1668 : 		{	// subscript mutable sequence with checking
; 1669 : 		if (this->_Mysize <= _Off)
; 1670 : 			_Xran();	// _Off off end
; 1671 : 		return (this->_Myptr()[_Off]);
; 1672 : 		}
; 1673 : 
; 1674 : 	const_reference at(size_type _Off) const
; 1675 : 		{	// subscript nonmutable sequence with checking
; 1676 : 		if (this->_Mysize <= _Off)
; 1677 : 			_Xran();	// _Off off end
; 1678 : 		return (this->_Myptr()[_Off]);
; 1679 : 		}
; 1680 : 
; 1681 : 	reference operator[](size_type _Off)
; 1682 : 		{	// subscript mutable sequence
; 1683 :  #if _ITERATOR_DEBUG_LEVEL == 2
; 1684 : 		if (this->_Mysize < _Off)	// sic
; 1685 : 			_DEBUG_ERROR("string subscript out of range");
; 1686 : 
; 1687 :  #elif _ITERATOR_DEBUG_LEVEL == 1
; 1688 : 		_SCL_SECURE_VALIDATE_RANGE(_Off <= this->_Mysize);	// sic
; 1689 :  #endif /* _ITERATOR_DEBUG_LEVEL == 2 */
; 1690 : 
; 1691 : 		return (this->_Myptr()[_Off]);
; 1692 : 		}
; 1693 : 
; 1694 : 	const_reference operator[](size_type _Off) const
; 1695 : 		{	// subscript nonmutable sequence
; 1696 :  #if _ITERATOR_DEBUG_LEVEL == 2
; 1697 : 		if (this->_Mysize < _Off)	// sic
; 1698 : 			_DEBUG_ERROR("string subscript out of range");
; 1699 : 
; 1700 :  #elif _ITERATOR_DEBUG_LEVEL == 1
; 1701 : 		_SCL_SECURE_VALIDATE_RANGE(_Off <= this->_Mysize);	// sic
; 1702 :  #endif /* _ITERATOR_DEBUG_LEVEL == 2 */
; 1703 : 
; 1704 : 		return (this->_Myptr()[_Off]);
; 1705 : 		}
; 1706 : 
; 1707 : 	void push_back(_Elem _Ch)
; 1708 : 		{	// insert element at end
; 1709 : 		insert(end(), _Ch);
; 1710 : 		}
; 1711 : 
; 1712 : 	void pop_back()
; 1713 : 		{	// erase element at end
; 1714 : 		erase(this->_Mysize - 1);	// throws if _Mysize == 0
; 1715 : 		}
; 1716 : 
; 1717 : 	reference front()
; 1718 : 		{	// return first element of mutable sequence
; 1719 : 		return (*begin());
; 1720 : 		}
; 1721 : 
; 1722 : 	const_reference front() const
; 1723 : 		{	// return first element of nonmutable sequence
; 1724 : 		return (*begin());
; 1725 : 		}
; 1726 : 
; 1727 : 	reference back()
; 1728 : 		{	// return last element of mutable sequence
; 1729 : 		return (*(end() - 1));
; 1730 : 		}
; 1731 : 
; 1732 : 	const_reference back() const
; 1733 : 		{	// return last element of nonmutable sequence
; 1734 : 		return (*(end() - 1));
; 1735 : 		}
; 1736 : 
; 1737 : 	const _Elem *c_str() const _NOEXCEPT
; 1738 : 		{	// return pointer to null-terminated nonmutable array
; 1739 : 		return (this->_Myptr());
; 1740 : 		}
; 1741 : 
; 1742 : 	const _Elem *data() const _NOEXCEPT
; 1743 : 		{	// return pointer to nonmutable array
; 1744 : 		return (c_str());
; 1745 : 		}
; 1746 : 
; 1747 : 	size_type length() const _NOEXCEPT
; 1748 : 		{	// return length of sequence
; 1749 : 		return (this->_Mysize);
; 1750 : 		}
; 1751 : 
; 1752 : 	size_type size() const _NOEXCEPT
; 1753 : 		{	// return length of sequence
; 1754 : 		return (this->_Mysize);
; 1755 : 		}
; 1756 : 
; 1757 : 	size_type max_size() const _NOEXCEPT
; 1758 : 		{	// return maximum possible length of sequence
; 1759 : 		size_type _Num = this->_Getal().max_size();
; 1760 : 		return (_Num <= 1 ? 1 : _Num - 1);
; 1761 : 		}
; 1762 : 
; 1763 : 	void resize(size_type _Newsize)
; 1764 : 		{	// determine new length, padding with null elements as needed
; 1765 : 		resize(_Newsize, _Elem());
; 1766 : 		}
; 1767 : 
; 1768 : 	void resize(size_type _Newsize, _Elem _Ch)
; 1769 : 		{	// determine new length, padding with _Ch elements as needed
; 1770 : 		if (_Newsize <= this->_Mysize)
; 1771 : 			_Eos(_Newsize);
; 1772 : 		else
; 1773 : 			append(_Newsize - this->_Mysize, _Ch);
; 1774 : 		}
; 1775 : 
; 1776 : 	size_type capacity() const _NOEXCEPT
; 1777 : 		{	// return current length of allocated storage
; 1778 : 		return (this->_Myres);
; 1779 : 		}
; 1780 : 
; 1781 : 	void reserve(size_type _Newcap = 0)
; 1782 : 		{	// determine new minimum length of allocated storage
; 1783 : 		if (this->_Mysize <= _Newcap && this->_Myres != _Newcap)
; 1784 : 			{	// change reservation
; 1785 : 			size_type _Size = this->_Mysize;
; 1786 : 			if (_Grow(_Newcap, true))
; 1787 : 				_Eos(_Size);
; 1788 : 			}
; 1789 : 		}
; 1790 : 
; 1791 : 	bool empty() const _NOEXCEPT
; 1792 : 		{	// test if sequence is empty
; 1793 : 		return (this->_Mysize == 0);
; 1794 : 		}
; 1795 : 
; 1796 : 	_SCL_INSECURE_DEPRECATE
; 1797 : 
; 1798 : 	size_type copy(_Elem *_Ptr,
; 1799 : 		size_type _Count, size_type _Off = 0) const
; 1800 : 		{	// copy [_Off, _Off + _Count) to [_Ptr, _Ptr + _Count)
; 1801 :  #if _ITERATOR_DEBUG_LEVEL == 2
; 1802 : 		if (_Count != 0)
; 1803 : 			_DEBUG_POINTER(_Ptr);
; 1804 :  #endif /* _ITERATOR_DEBUG_LEVEL == 2 */
; 1805 : 
; 1806 : 		if (this->_Mysize < _Off)
; 1807 : 			_Xran();	// _Off off end
; 1808 : 		if (this->_Mysize - _Off < _Count)
; 1809 : 			_Count = this->_Mysize - _Off;
; 1810 : 		_Traits::copy(_Ptr, this->_Myptr() + _Off, _Count);
; 1811 : 		return (_Count);
; 1812 : 		}
; 1813 : 
; 1814 : 	size_type _Copy_s(_Elem *_Dest, size_type _Dest_size,
; 1815 : 		size_type _Count, size_type _Off = 0) const
; 1816 : 		{	// copy [_Off, _Off + _Count) to [_Dest, _Dest + _Count)
; 1817 :  #if _ITERATOR_DEBUG_LEVEL == 2
; 1818 : 		if (_Count != 0)
; 1819 : 			_DEBUG_POINTER(_Dest);
; 1820 :  #endif /* _ITERATOR_DEBUG_LEVEL == 2 */
; 1821 : 
; 1822 : 		if (this->_Mysize < _Off)
; 1823 : 			_Xran();	// _Off off end
; 1824 : 		if (this->_Mysize - _Off < _Count)
; 1825 : 			_Count = this->_Mysize - _Off;
; 1826 : 		_Traits::_Copy_s(_Dest, _Dest_size, this->_Myptr() + _Off, _Count);
; 1827 : 		return (_Count);
; 1828 : 		}
; 1829 : 
; 1830 : 	void _Swap_bx(_Myt& _Right)
; 1831 : 		{	// exchange _Bx with _Right._Bx
; 1832 : 		if (this->_BUF_SIZE <= this->_Myres)
; 1833 : 			if (this->_BUF_SIZE <= _Right._Myres)
; 1834 : 				_Swap_adl(this->_Bx._Ptr, _Right._Bx._Ptr);
; 1835 : 			else
; 1836 : 				{	// swap large with small
; 1837 : 				pointer _Ptr = this->_Bx._Ptr;
; 1838 : 				this->_Getal().destroy(&this->_Bx._Ptr);
; 1839 : 				_Traits::copy(this->_Bx._Buf,
; 1840 : 					_Right._Bx._Buf, _Right._Mysize + 1);
; 1841 : 				this->_Getal().construct(&_Right._Bx._Ptr, _Ptr);
; 1842 : 				}
; 1843 : 		else
; 1844 : 			if (_Right._Myres < this->_BUF_SIZE)
; 1845 : 				_STD swap(this->_Bx._Buf, _Right._Bx._Buf);
; 1846 : 			else
; 1847 : 				{	// swap small with large
; 1848 : 				pointer _Ptr = _Right._Bx._Ptr;
; 1849 : 				this->_Getal().destroy(&_Right._Bx._Ptr);
; 1850 : 				_Traits::copy(_Right._Bx._Buf,
; 1851 : 					this->_Bx._Buf, this->_Mysize + 1);
; 1852 : 				this->_Getal().construct(&this->_Bx._Ptr, _Ptr);
; 1853 : 				}
; 1854 : 		}
; 1855 : 
; 1856 : 	void swap(_Myt& _Right)
; 1857 : 		{	// exchange contents with _Right
; 1858 : 		if (this == &_Right)
; 1859 : 			;	// same object, do nothing
; 1860 : 		else if (this->_Getal() == _Right._Getal())
; 1861 : 			{	// same allocator, swap control information
; 1862 : 			this->_Swap_all(_Right);
; 1863 : 			_Swap_bx(_Right);
; 1864 : 			_STD swap(this->_Mysize, _Right._Mysize);
; 1865 : 			_STD swap(this->_Myres, _Right._Myres);
; 1866 : 			}
; 1867 : 
; 1868 : 		else if (_Alty::propagate_on_container_swap::value)
; 1869 : 			{	// swap allocators and control information
; 1870 : 			this->_Swap_alloc(_Right);
; 1871 : 			_Swap_bx(_Right);
; 1872 : 			_STD swap(this->_Bx, _Right._Bx);	// pointer bitwise copyable?
; 1873 : 			_STD swap(this->_Mysize, _Right._Mysize);
; 1874 : 			_STD swap(this->_Myres, _Right._Myres);
; 1875 : 			}
; 1876 : 
; 1877 : 		else
; 1878 : 			{	// different allocator, do multiple assigns
; 1879 : 			_Myt _Tmp = *this;
; 1880 : 
; 1881 : 			*this = _Right;
; 1882 : 			_Right = _Tmp;
; 1883 : 			}
; 1884 : 		}
; 1885 : 
; 1886 : 	size_type find(const _Myt& _Right, size_type _Off = 0) const _NOEXCEPT
; 1887 : 		{	// look for _Right beginning at or after _Off
; 1888 : 		return (find(_Right._Myptr(), _Off, _Right.size()));
; 1889 : 		}
; 1890 : 
; 1891 : 	size_type find(const _Elem *_Ptr,
; 1892 : 		size_type _Off, size_type _Count) const
; 1893 : 		{	// look for [_Ptr, _Ptr + _Count) beginning at or after _Off
; 1894 :  #if _ITERATOR_DEBUG_LEVEL == 2
; 1895 : 		if (_Count != 0)
; 1896 : 			_DEBUG_POINTER(_Ptr);
; 1897 :  #endif /* _ITERATOR_DEBUG_LEVEL == 2 */
; 1898 : 
; 1899 : 		if (_Count == 0 && _Off <= this->_Mysize)
; 1900 : 			return (_Off);	// null string always matches (if inside string)
; 1901 : 
; 1902 : 		size_type _Nm;
; 1903 : 		if (_Off < this->_Mysize && _Count <= (_Nm = this->_Mysize - _Off))
; 1904 : 			{	// room for match, look for it
; 1905 : 			const _Elem *_Uptr, *_Vptr;
; 1906 : 			for (_Nm -= _Count - 1, _Vptr = this->_Myptr() + _Off;
; 1907 : 				(_Uptr = _Traits::find(_Vptr, _Nm, *_Ptr)) != 0;
; 1908 : 				_Nm -= _Uptr - _Vptr + 1, _Vptr = _Uptr + 1)
; 1909 : 				if (_Traits::compare(_Uptr, _Ptr, _Count) == 0)
; 1910 : 					return (_Uptr - this->_Myptr());	// found a match
; 1911 : 			}
; 1912 : 
; 1913 : 		return (npos);	// no match
; 1914 : 		}
; 1915 : 
; 1916 : 	size_type find(const _Elem *_Ptr, size_type _Off = 0) const
; 1917 : 		{	// look for [_Ptr, <null>) beginning at or after _Off
; 1918 : 		_DEBUG_POINTER(_Ptr);
; 1919 : 		return (find(_Ptr, _Off, _Traits::length(_Ptr)));
; 1920 : 		}
; 1921 : 
; 1922 : 	size_type find(_Elem _Ch, size_type _Off = 0) const
; 1923 : 		{	// look for _Ch at or after _Off
; 1924 : 		return (find((const _Elem *)&_Ch, _Off, 1));
; 1925 : 		}
; 1926 : 
; 1927 : 	size_type rfind(const _Myt& _Right, size_type _Off = npos) const _NOEXCEPT
; 1928 : 		{	// look for _Right beginning before _Off
; 1929 : 		return (rfind(_Right._Myptr(), _Off, _Right.size()));
; 1930 : 		}
; 1931 : 
; 1932 : 	size_type rfind(const _Elem *_Ptr,
; 1933 : 		size_type _Off, size_type _Count) const
; 1934 : 		{	// look for [_Ptr, _Ptr + _Count) beginning before _Off
; 1935 :  #if _ITERATOR_DEBUG_LEVEL == 2
; 1936 : 		if (_Count != 0)
; 1937 : 			_DEBUG_POINTER(_Ptr);
; 1938 :  #endif /* _ITERATOR_DEBUG_LEVEL == 2 */
; 1939 : 
; 1940 : 		if (_Count == 0)
; 1941 : 			return (_Off < this->_Mysize ? _Off
; 1942 : 				: this->_Mysize);	// null always matches
; 1943 : 		if (_Count <= this->_Mysize)
; 1944 : 			{	// room for match, look for it
; 1945 : 			const _Elem *_Uptr = this->_Myptr() +
; 1946 : 				(_Off < this->_Mysize - _Count ? _Off
; 1947 : 					: this->_Mysize - _Count);
; 1948 : 			for (; ; --_Uptr)
; 1949 : 				if (_Traits::eq(*_Uptr, *_Ptr)
; 1950 : 					&& _Traits::compare(_Uptr, _Ptr, _Count) == 0)
; 1951 : 					return (_Uptr - this->_Myptr());	// found a match
; 1952 : 				else if (_Uptr == this->_Myptr())
; 1953 : 					break;	// at beginning, no more chance for match
; 1954 : 			}
; 1955 : 
; 1956 : 		return (npos);	// no match
; 1957 : 		}
; 1958 : 
; 1959 : 	size_type rfind(const _Elem *_Ptr, size_type _Off = npos) const
; 1960 : 		{	// look for [_Ptr, <null>) beginning before _Off
; 1961 : 		_DEBUG_POINTER(_Ptr);
; 1962 : 		return (rfind(_Ptr, _Off, _Traits::length(_Ptr)));
; 1963 : 		}
; 1964 : 
; 1965 : 	size_type rfind(_Elem _Ch, size_type _Off = npos) const
; 1966 : 		{	// look for _Ch before _Off
; 1967 : 		return (rfind((const _Elem *)&_Ch, _Off, 1));
; 1968 : 		}
; 1969 : 
; 1970 : 	size_type find_first_of(const _Myt& _Right,
; 1971 : 		size_type _Off = 0) const _NOEXCEPT
; 1972 : 		{	// look for one of _Right at or after _Off
; 1973 : 		return (find_first_of(_Right._Myptr(), _Off, _Right.size()));
; 1974 : 		}
; 1975 : 
; 1976 : 	size_type find_first_of(const _Elem *_Ptr,
; 1977 : 		size_type _Off, size_type _Count) const
; 1978 : 		{	// look for one of [_Ptr, _Ptr + _Count) at or after _Off
; 1979 :  #if _ITERATOR_DEBUG_LEVEL == 2
; 1980 : 		if (_Count != 0)
; 1981 : 			_DEBUG_POINTER(_Ptr);
; 1982 :  #endif /* _ITERATOR_DEBUG_LEVEL == 2 */
; 1983 : 
; 1984 : 		if (0 < _Count && _Off < this->_Mysize)
; 1985 : 			{	// room for match, look for it
; 1986 : 			const _Elem *const _Vptr = this->_Myptr() + this->_Mysize;
; 1987 : 			for (const _Elem *_Uptr = this->_Myptr() + _Off;
; 1988 : 				_Uptr < _Vptr; ++_Uptr)
; 1989 : 				if (_Traits::find(_Ptr, _Count, *_Uptr) != 0)
; 1990 : 					return (_Uptr - this->_Myptr());	// found a match
; 1991 : 			}
; 1992 : 
; 1993 : 		return (npos);	// no match
; 1994 : 		}
; 1995 : 
; 1996 : 	size_type find_first_of(const _Elem *_Ptr,
; 1997 : 		size_type _Off = 0) const
; 1998 : 		{	// look for one of [_Ptr, <null>) at or after _Off
; 1999 : 		_DEBUG_POINTER(_Ptr);
; 2000 : 		return (find_first_of(_Ptr, _Off, _Traits::length(_Ptr)));
; 2001 : 		}
; 2002 : 
; 2003 : 	size_type find_first_of(_Elem _Ch,
; 2004 : 		size_type _Off = 0) const
; 2005 : 		{	// look for _Ch at or after _Off
; 2006 : 		return (find((const _Elem *)&_Ch, _Off, 1));
; 2007 : 		}
; 2008 : 
; 2009 : 	size_type find_last_of(const _Myt& _Right,
; 2010 : 		size_type _Off = npos) const _NOEXCEPT
; 2011 : 		{	// look for one of _Right before _Off
; 2012 : 		return (find_last_of(_Right._Myptr(), _Off, _Right.size()));
; 2013 : 		}
; 2014 : 
; 2015 : 	size_type find_last_of(const _Elem *_Ptr,
; 2016 : 		size_type _Off, size_type _Count) const
; 2017 : 		{	// look for one of [_Ptr, _Ptr + _Count) before _Off
; 2018 :  #if _ITERATOR_DEBUG_LEVEL == 2
; 2019 : 		if (_Count != 0)
; 2020 : 			_DEBUG_POINTER(_Ptr);
; 2021 :  #endif /* _ITERATOR_DEBUG_LEVEL == 2 */
; 2022 : 
; 2023 : 		if (0 < _Count && 0 < this->_Mysize)
; 2024 : 			{	// worth searching, do it
; 2025 : 			const _Elem *_Uptr = this->_Myptr()
; 2026 : 				+ (_Off < this->_Mysize ? _Off : this->_Mysize - 1);
; 2027 : 			for (; ; --_Uptr)
; 2028 : 				if (_Traits::find(_Ptr, _Count, *_Uptr) != 0)
; 2029 : 					return (_Uptr - this->_Myptr());	// found a match
; 2030 : 				else if (_Uptr == this->_Myptr())
; 2031 : 					break;	// at beginning, no more chance for match
; 2032 : 			}
; 2033 : 
; 2034 : 		return (npos);	// no match
; 2035 : 		}
; 2036 : 
; 2037 : 	size_type find_last_of(const _Elem *_Ptr,
; 2038 : 		size_type _Off = npos) const
; 2039 : 		{	// look for one of [_Ptr, <null>) before _Off
; 2040 : 		_DEBUG_POINTER(_Ptr);
; 2041 : 		return (find_last_of(_Ptr, _Off, _Traits::length(_Ptr)));
; 2042 : 		}
; 2043 : 
; 2044 : 	size_type find_last_of(_Elem _Ch,
; 2045 : 		size_type _Off = npos) const
; 2046 : 		{	// look for _Ch before _Off
; 2047 : 		return (rfind((const _Elem *)&_Ch, _Off, 1));
; 2048 : 		}
; 2049 : 
; 2050 : 	size_type find_first_not_of(const _Myt& _Right,
; 2051 : 		size_type _Off = 0) const _NOEXCEPT
; 2052 : 		{	// look for none of _Right at or after _Off
; 2053 : 		return (find_first_not_of(_Right._Myptr(), _Off,
; 2054 : 			_Right.size()));
; 2055 : 		}
; 2056 : 
; 2057 : 	size_type find_first_not_of(const _Elem *_Ptr,
; 2058 : 		size_type _Off, size_type _Count) const
; 2059 : 		{	// look for none of [_Ptr, _Ptr + _Count) at or after _Off
; 2060 :  #if _ITERATOR_DEBUG_LEVEL == 2
; 2061 : 		if (_Count != 0)
; 2062 : 			_DEBUG_POINTER(_Ptr);
; 2063 :  #endif /* _ITERATOR_DEBUG_LEVEL == 2 */
; 2064 : 
; 2065 : 		if (_Off < this->_Mysize)
; 2066 : 			{	// room for match, look for it
; 2067 : 			const _Elem *const _Vptr = this->_Myptr() + this->_Mysize;
; 2068 : 			for (const _Elem *_Uptr = this->_Myptr() + _Off;
; 2069 : 				_Uptr < _Vptr; ++_Uptr)
; 2070 : 				if (_Traits::find(_Ptr, _Count, *_Uptr) == 0)
; 2071 : 					return (_Uptr - this->_Myptr());
; 2072 : 			}
; 2073 : 		return (npos);
; 2074 : 		}
; 2075 : 
; 2076 : 	size_type find_first_not_of(const _Elem *_Ptr,
; 2077 : 		size_type _Off = 0) const
; 2078 : 		{	// look for one of [_Ptr, <null>) at or after _Off
; 2079 : 		_DEBUG_POINTER(_Ptr);
; 2080 : 		return (find_first_not_of(_Ptr, _Off, _Traits::length(_Ptr)));
; 2081 : 		}
; 2082 : 
; 2083 : 	size_type find_first_not_of(_Elem _Ch,
; 2084 : 		size_type _Off = 0) const
; 2085 : 		{	// look for non _Ch at or after _Off
; 2086 : 		return (find_first_not_of((const _Elem *)&_Ch, _Off, 1));
; 2087 : 		}
; 2088 : 
; 2089 : 	size_type find_last_not_of(const _Myt& _Right,
; 2090 : 		size_type _Off = npos) const _NOEXCEPT
; 2091 : 		{	// look for none of _Right before _Off
; 2092 : 		return (find_last_not_of(_Right._Myptr(), _Off, _Right.size()));
; 2093 : 		}
; 2094 : 
; 2095 : 	size_type find_last_not_of(const _Elem *_Ptr,
; 2096 : 		size_type _Off, size_type _Count) const
; 2097 : 		{	// look for none of [_Ptr, _Ptr + _Count) before _Off
; 2098 :  #if _ITERATOR_DEBUG_LEVEL == 2
; 2099 : 		if (_Count != 0)
; 2100 : 			_DEBUG_POINTER(_Ptr);
; 2101 :  #endif /* _ITERATOR_DEBUG_LEVEL == 2 */
; 2102 : 
; 2103 : 		if (0 < this->_Mysize)
; 2104 : 			{	// worth searching, do it
; 2105 : 			const _Elem *_Uptr = this->_Myptr()
; 2106 : 				+ (_Off < this->_Mysize ? _Off : this->_Mysize - 1);
; 2107 : 			for (; ; --_Uptr)
; 2108 : 				if (_Traits::find(_Ptr, _Count, *_Uptr) == 0)
; 2109 : 					return (_Uptr - this->_Myptr());
; 2110 : 				else if (_Uptr == this->_Myptr())
; 2111 : 					break;
; 2112 : 			}
; 2113 : 		return (npos);
; 2114 : 		}
; 2115 : 
; 2116 : 	size_type find_last_not_of(const _Elem *_Ptr,
; 2117 : 		size_type _Off = npos) const
; 2118 : 		{	// look for none of [_Ptr, <null>) before _Off
; 2119 : 		_DEBUG_POINTER(_Ptr);
; 2120 : 		return (find_last_not_of(_Ptr, _Off, _Traits::length(_Ptr)));
; 2121 : 		}
; 2122 : 
; 2123 : 	size_type find_last_not_of(_Elem _Ch,
; 2124 : 		size_type _Off = npos) const
; 2125 : 		{	// look for non _Ch before _Off
; 2126 : 		return (find_last_not_of((const _Elem *)&_Ch, _Off, 1));
; 2127 : 		}
; 2128 : 
; 2129 : 	_Myt substr(size_type _Off = 0, size_type _Count = npos) const
; 2130 : 		{	// return [_Off, _Off + _Count) as new string
; 2131 : 		return (_Myt(*this, _Off, _Count, get_allocator()));
; 2132 : 		}
; 2133 : 
; 2134 : 	int compare(const _Myt& _Right) const _NOEXCEPT
; 2135 : 		{	// compare [0, _Mysize) with _Right
; 2136 : 		return (compare(0, this->_Mysize, _Right._Myptr(), _Right.size()));
; 2137 : 		}
; 2138 : 
; 2139 : 	int compare(size_type _Off, size_type _N0,
; 2140 : 		const _Myt& _Right) const
; 2141 : 		{	// compare [_Off, _Off + _N0) with _Right
; 2142 : 		return (compare(_Off, _N0, _Right, 0, npos));
; 2143 : 		}
; 2144 : 
; 2145 : 	int compare(size_type _Off,
; 2146 : 		size_type _N0, const _Myt& _Right,
; 2147 : 		size_type _Roff, size_type _Count) const
; 2148 : 		{	// compare [_Off, _Off + _N0) with _Right [_Roff, _Roff + _Count)
; 2149 : 		if (_Right.size() < _Roff)
; 2150 : 			_Xran();	// _Off off end
; 2151 : 		if (_Right._Mysize - _Roff < _Count)
; 2152 : 			_Count = _Right._Mysize - _Roff;	// trim _Count to size
; 2153 : 		return (compare(_Off, _N0, _Right._Myptr() + _Roff, _Count));
; 2154 : 		}
; 2155 : 
; 2156 : 	int compare(const _Elem *_Ptr) const
; 2157 : 		{	// compare [0, _Mysize) with [_Ptr, <null>)
; 2158 : 		_DEBUG_POINTER(_Ptr);
; 2159 : 		return (compare(0, this->_Mysize, _Ptr, _Traits::length(_Ptr)));
; 2160 : 		}
; 2161 : 
; 2162 : 	int compare(size_type _Off, size_type _N0, const _Elem *_Ptr) const
; 2163 : 		{	// compare [_Off, _Off + _N0) with [_Ptr, <null>)
; 2164 : 		_DEBUG_POINTER(_Ptr);
; 2165 : 		return (compare(_Off, _N0, _Ptr, _Traits::length(_Ptr)));
; 2166 : 		}
; 2167 : 
; 2168 : 	int compare(size_type _Off,
; 2169 : 		size_type _N0, const _Elem *_Ptr, size_type _Count) const
; 2170 : 		{	// compare [_Off, _Off + _N0) with [_Ptr, _Ptr + _Count)
; 2171 :  #if _ITERATOR_DEBUG_LEVEL == 2
; 2172 : 		if (_Count != 0)
; 2173 : 			_DEBUG_POINTER(_Ptr);
; 2174 :  #endif /* _ITERATOR_DEBUG_LEVEL == 2 */
; 2175 : 
; 2176 : 		if (this->_Mysize < _Off)
; 2177 : 			_Xran();	// _Off off end
; 2178 : 		if (this->_Mysize - _Off < _N0)
; 2179 : 			_N0 = this->_Mysize - _Off;	// trim _N0 to size
; 2180 : 
; 2181 : 		size_type _Ans = _Traits::compare(this->_Myptr() + _Off, _Ptr,
; 2182 : 			_N0 < _Count ? _N0 : _Count);
; 2183 : 		return (_Ans != 0 ? (int)_Ans : _N0 < _Count ? -1
; 2184 : 			: _N0 == _Count ? 0 : +1);
; 2185 : 		}
; 2186 : 
; 2187 : 	allocator_type get_allocator() const _NOEXCEPT
; 2188 : 		{	// return allocator object for values
; 2189 : 		return (this->_Getal());
; 2190 : 		}
; 2191 : 
; 2192 : 	void _Chassign(size_type _Off, size_type _Count, _Elem _Ch)
; 2193 : 		{	// assign _Count copies of _Ch beginning at _Off
; 2194 : 		if (_Count == 1)
; 2195 : 			_Traits::assign(*(this->_Myptr() + _Off), _Ch);
; 2196 : 		else
; 2197 : 			_Traits::assign(this->_Myptr() + _Off, _Count, _Ch);
; 2198 : 		}
; 2199 : 
; 2200 : 	void _Copy(size_type _Newsize, size_type _Oldlen)
; 2201 : 		{	// copy _Oldlen elements to newly allocated buffer
; 2202 : 		size_type _Newres = _Newsize | this->_ALLOC_MASK;
; 2203 : 		if (max_size() < _Newres)
; 2204 : 			_Newres = _Newsize;	// undo roundup if too big
; 2205 : 		else if (this->_Myres / 2 <= _Newres / 3)
; 2206 : 			;
; 2207 : 		else if (this->_Myres <= max_size() - this->_Myres / 2)
; 2208 : 			_Newres = this->_Myres
; 2209 : 				+ this->_Myres / 2;	// grow exponentially if possible
; 2210 : 		else
; 2211 : 			_Newres = max_size();	// settle for max_size()
; 2212 : 
; 2213 : 		_Elem *_Ptr;
; 2214 : 		_TRY_BEGIN
; 2215 : 			_Ptr = this->_Getal().allocate(_Newres + 1);
; 2216 : 		_CATCH_ALL
; 2217 : 			_Newres = _Newsize;	// allocation failed, undo roundup and retry
; 2218 : 			_TRY_BEGIN
; 2219 : 				_Ptr = this->_Getal().allocate(_Newres + 1);
; 2220 : 			_CATCH_ALL
; 2221 : 			_Tidy(true);	// failed again, discard storage and reraise
; 2222 : 			_RERAISE;
; 2223 : 			_CATCH_END
; 2224 : 		_CATCH_END
; 2225 : 
; 2226 : 		if (0 < _Oldlen)
; 2227 : 			_Traits::copy(_Ptr, this->_Myptr(),
; 2228 : 				_Oldlen);	// copy existing elements
; 2229 : 		_Tidy(true);
; 2230 : 		this->_Getal().construct(&this->_Bx._Ptr, _Ptr);
; 2231 : 		this->_Myres = _Newres;
; 2232 : 		_Eos(_Oldlen);
; 2233 : 		}
; 2234 : 
; 2235 : 	void _Eos(size_type _Newsize)
; 2236 : 		{	// set new length and null terminator
; 2237 : 		_Traits::assign(this->_Myptr()[this->_Mysize = _Newsize], _Elem());

  0009e	c7 44 24 70 00
	00 00 00	 mov	 DWORD PTR _kCreateData$2[esp+240], 0
; File c:\program files (x86)\microsoft visual studio 12.0\vc\include\iosfwd

; 564  : 		_Left = _Right;

  000a6	c6 44 24 60 00	 mov	 BYTE PTR _kCreateData$2[esp+224], 0
; File d:\metin2\metin2\client_source_clean\client_source_clean\source\userinterface\pythoncharactermodule.cpp

; 66   : 		CInstanceBase::SCreateData kCreateData;

  000ab	c7 84 24 90 00
	00 00 00 00 00
	00		 mov	 DWORD PTR __$EHRec$[esp+156], 0
; File c:\program files (x86)\microsoft visual studio 12.0\vc\include\xstring

; 1169 : 		return (assign(_Ptr, _Traits::length(_Ptr)));

  000b6	8d 4c 24 60	 lea	 ecx, DWORD PTR _kCreateData$2[esp+224]
; File d:\metin2\metin2\client_source_clean\client_source_clean\source\userinterface\pythoncharactermodule.cpp

; 71   : 		kCreateData.m_dwVID=iVirtualID;

  000ba	8b 44 24 10	 mov	 eax, DWORD PTR _iVirtualID$[esp+148]
; File c:\program files (x86)\microsoft visual studio 12.0\vc\include\xstring

; 1169 : 		return (assign(_Ptr, _Traits::length(_Ptr)));

  000be	6a 06		 push	 6
  000c0	68 00 00 00 00	 push	 OFFSET ??_C@_06LJIOOKLP@NONAME?$AA@
; File d:\metin2\metin2\client_source_clean\client_source_clean\source\userinterface\pythoncharactermodule.cpp

; 67   : 		kCreateData.m_bType=CActorInstance::TYPE_PC;

  000c5	c6 44 24 1c 06	 mov	 BYTE PTR _kCreateData$2[esp+156], 6

; 68   : 		kCreateData.m_dwLevel = 0;

  000ca	c7 44 24 2c 00
	00 00 00	 mov	 DWORD PTR _kCreateData$2[esp+172], 0

; 69   : 		kCreateData.m_dwGuildID=0;

  000d2	c7 44 24 28 00
	00 00 00	 mov	 DWORD PTR _kCreateData$2[esp+168], 0

; 70   : 		kCreateData.m_dwEmpireID=0;

  000da	c7 44 24 24 00
	00 00 00	 mov	 DWORD PTR _kCreateData$2[esp+164], 0

; 71   : 		kCreateData.m_dwVID=iVirtualID;

  000e2	89 44 24 30	 mov	 DWORD PTR _kCreateData$2[esp+176], eax

; 72   : 		kCreateData.m_dwMountVnum=0;

  000e6	c7 44 24 58 00
	00 00 00	 mov	 DWORD PTR _kCreateData$2[esp+216], 0

; 73   : 		kCreateData.m_dwRace=0;

  000ee	c7 44 24 34 00
	00 00 00	 mov	 DWORD PTR _kCreateData$2[esp+180], 0

; 74   : 		kCreateData.m_fRot=CInstanceBase::DIR_NORTH;

  000f6	c7 44 24 48 00
	00 00 00	 mov	 DWORD PTR _kCreateData$2[esp+200], 0

; 75   :  		kCreateData.m_lPosX=0;

  000fe	c7 44 24 40 00
	00 00 00	 mov	 DWORD PTR _kCreateData$2[esp+192], 0

; 76   : 		kCreateData.m_lPosY=0;

  00106	c7 44 24 44 00
	00 00 00	 mov	 DWORD PTR _kCreateData$2[esp+196], 0
; File c:\program files (x86)\microsoft visual studio 12.0\vc\include\xstring

; 1169 : 		return (assign(_Ptr, _Traits::length(_Ptr)));

  0010e	e8 00 00 00 00	 call	 ?assign@?$basic_string@DU?$char_traits@D@std@@V?$allocator@D@2@@std@@QAEAAV12@PBDI@Z ; std::basic_string<char,std::char_traits<char>,std::allocator<char> >::assign
; File d:\metin2\metin2\client_source_clean\client_source_clean\source\userinterface\pythoncharactermodule.cpp

; 81   : 		kCreateData.m_sAlignment=0;

  00113	33 c0		 xor	 eax, eax
  00115	c7 44 24 18 00
	00 00 00	 mov	 DWORD PTR _kCreateData$2[esp+152], 0

; 82   : 		kCreateData.m_byPKMode=0;
; 83   : 		kCreateData.m_kAffectFlags.Clear();

  0011d	8d 4c 24 57	 lea	 ecx, DWORD PTR _kCreateData$2[esp+215]
  00121	c7 44 24 30 64
	00 00 00	 mov	 DWORD PTR _kCreateData$2[esp+176], 100 ; 00000064H
  00129	c7 44 24 34 64
	00 00 00	 mov	 DWORD PTR _kCreateData$2[esp+180], 100 ; 00000064H
  00131	66 89 44 24 54	 mov	 WORD PTR _kCreateData$2[esp+212], ax
  00136	88 44 24 56	 mov	 BYTE PTR _kCreateData$2[esp+214], al
  0013a	e8 00 00 00 00	 call	 ?Clear@CAffectFlagContainer@@QAEXXZ ; CAffectFlagContainer::Clear

; 84   : 		kCreateData.m_dwArmor=8;
; 85   : 		kCreateData.m_dwWeapon=0;
; 86   : 		kCreateData.m_dwHair=0;
; 87   : 		kCreateData.m_isMain=false;
; 88   : 
; 89   : 		PyObject* poHorse=PyDict_GetItemString(poDict, "horse");

  0013f	8b 1d 00 00 00
	00		 mov	 ebx, DWORD PTR __imp__PyDict_GetItemString
  00145	68 00 00 00 00	 push	 OFFSET ??_C@_05DOPDBCAL@horse?$AA@
  0014a	56		 push	 esi
  0014b	c7 44 24 4c 08
	00 00 00	 mov	 DWORD PTR _kCreateData$2[esp+204], 8
  00153	89 44 24 50	 mov	 DWORD PTR _kCreateData$2[esp+208], eax
  00157	89 44 24 54	 mov	 DWORD PTR _kCreateData$2[esp+212], eax
  0015b	88 84 24 80 00
	00 00		 mov	 BYTE PTR _kCreateData$2[esp+256], al
  00162	ff d3		 call	 ebx

; 90   : 		if (poHorse)

  00164	8b 3d 00 00 00
	00		 mov	 edi, DWORD PTR __imp__PyLong_AsLong
  0016a	83 c4 08	 add	 esp, 8
  0016d	85 c0		 test	 eax, eax
  0016f	74 0a		 je	 SHORT $LN4@chrCreateI

; 91   : 			kCreateData.m_dwMountVnum=PyLong_AsLong(poHorse);

  00171	50		 push	 eax
  00172	ff d7		 call	 edi
  00174	83 c4 04	 add	 esp, 4
  00177	89 44 24 50	 mov	 DWORD PTR _kCreateData$2[esp+208], eax
$LN4@chrCreateI:

; 92   : 
; 93   : 		PyObject* poX=PyDict_GetItemString(poDict, "x");

  0017b	68 00 00 00 00	 push	 OFFSET ??_C@_01FJMABOPO@x?$AA@
  00180	56		 push	 esi
  00181	ff d3		 call	 ebx
  00183	83 c4 08	 add	 esp, 8

; 94   : 		if (poX)

  00186	85 c0		 test	 eax, eax
  00188	74 0a		 je	 SHORT $LN3@chrCreateI

; 95   : 			kCreateData.m_lPosX=PyLong_AsLong(poX);

  0018a	50		 push	 eax
  0018b	ff d7		 call	 edi
  0018d	83 c4 04	 add	 esp, 4
  00190	89 44 24 38	 mov	 DWORD PTR _kCreateData$2[esp+184], eax
$LN3@chrCreateI:

; 96   : 
; 97   : 		PyObject* poY=PyDict_GetItemString(poDict, "y");

  00194	68 00 00 00 00	 push	 OFFSET ??_C@_01EANLCPLP@y?$AA@
  00199	56		 push	 esi
  0019a	ff d3		 call	 ebx
  0019c	83 c4 08	 add	 esp, 8

; 98   : 		if (poY)

  0019f	85 c0		 test	 eax, eax
  001a1	74 0a		 je	 SHORT $LN2@chrCreateI

; 99   : 			kCreateData.m_lPosX=PyLong_AsLong(poY);

  001a3	50		 push	 eax
  001a4	ff d7		 call	 edi
  001a6	83 c4 04	 add	 esp, 4
  001a9	89 44 24 38	 mov	 DWORD PTR _kCreateData$2[esp+184], eax
$LN2@chrCreateI:

; 100  : 
; 101  : 		CPythonCharacterManager::Instance().CreateInstance(kCreateData);

  001ad	8b 0d 00 00 00
	00		 mov	 ecx, DWORD PTR ?ms_singleton@?$CSingleton@VCPythonCharacterManager@@@@0PAVCPythonCharacterManager@@A ; CSingleton<CPythonCharacterManager>::ms_singleton
  001b3	8d 44 24 14	 lea	 eax, DWORD PTR _kCreateData$2[esp+148]
  001b7	50		 push	 eax
  001b8	e8 00 00 00 00	 call	 ?CreateInstance@CPythonCharacterManager@@QAEPAVCInstanceBase@@ABUSCreateData@2@@Z ; CPythonCharacterManager::CreateInstance

; 102  : 	}

  001bd	c7 84 24 90 00
	00 00 ff ff ff
	ff		 mov	 DWORD PTR __$EHRec$[esp+156], -1
; File c:\program files (x86)\microsoft visual studio 12.0\vc\include\xstring

; 2275 : 		else if (this->_BUF_SIZE <= this->_Myres)

  001c8	83 7c 24 74 10	 cmp	 DWORD PTR _kCreateData$2[esp+244], 16 ; 00000010H
  001cd	72 0c		 jb	 SHORT $LN83@chrCreateI
; File c:\program files (x86)\microsoft visual studio 12.0\vc\include\xmemory0

; 573  : 		::operator delete(_Ptr);

  001cf	ff 74 24 60	 push	 DWORD PTR _kCreateData$2[esp+224]
  001d3	e8 00 00 00 00	 call	 ??3@YAXPAX@Z		; operator delete
  001d8	83 c4 04	 add	 esp, 4
$LN83@chrCreateI:
; File c:\program files (x86)\microsoft visual studio 12.0\vc\include\xstring

; 2284 : 		this->_Myres = this->_BUF_SIZE - 1;

  001db	c7 44 24 74 0f
	00 00 00	 mov	 DWORD PTR _kCreateData$2[esp+244], 15 ; 0000000fH

; 1170 : 		}
; 1171 : 
; 1172 : 	_Myt& assign(size_type _Count, _Elem _Ch)
; 1173 : 		{	// assign _Count * _Ch
; 1174 : 		if (_Count == npos)
; 1175 : 			_Xlen();	// result too long
; 1176 : 
; 1177 : 		if (_Grow(_Count))
; 1178 : 			{	// make room and assign new stuff
; 1179 : 			_Chassign(0, _Count, _Ch);
; 1180 : 			_Eos(_Count);
; 1181 : 			}
; 1182 : 		return (*this);
; 1183 : 		}
; 1184 : 
; 1185 : 	template<class _Iter>
; 1186 : 		typename enable_if<_Is_iterator<_Iter>::value,
; 1187 : 			_Myt&>::type
; 1188 : 		assign(_Iter _First, _Iter _Last)
; 1189 : 		{	// assign [_First, _Last), input iterators
; 1190 : 		return (replace(begin(), end(), _First, _Last));
; 1191 : 		}
; 1192 : 
; 1193 : 	_Myt& assign(const_pointer _First, const_pointer _Last)
; 1194 : 		{	// assign [_First, _Last), const pointers
; 1195 : 		return (replace(begin(), end(), _First, _Last));
; 1196 : 		}
; 1197 : 
; 1198 : 	_Myt& assign(const_iterator _First, const_iterator _Last)
; 1199 : 		{	// assign [_First, _Last), const_iterators
; 1200 : 		return (replace(begin(), end(), _First, _Last));
; 1201 : 		}
; 1202 : 
; 1203 : 	_Myt& insert(size_type _Off, const _Myt& _Right)
; 1204 : 		{	// insert _Right at _Off
; 1205 : 		return (insert(_Off, _Right, 0, npos));
; 1206 : 		}
; 1207 : 
; 1208 : 	_Myt& insert(size_type _Off,
; 1209 : 		const _Myt& _Right, size_type _Roff, size_type _Count)
; 1210 : 		{	// insert _Right [_Roff, _Roff + _Count) at _Off
; 1211 : 		if (this->_Mysize < _Off || _Right.size() < _Roff)
; 1212 : 			_Xran();	// _Off or _Roff off end
; 1213 : 		size_type _Num = _Right.size() - _Roff;
; 1214 : 		if (_Num < _Count)
; 1215 : 			_Count = _Num;	// trim _Count to size
; 1216 : 		if (npos - this->_Mysize <= _Count)
; 1217 : 			_Xlen();	// result too long
; 1218 : 
; 1219 : 		if (0 < _Count && _Grow(_Num = this->_Mysize + _Count))
; 1220 : 			{	// make room and insert new stuff
; 1221 : 			_Traits::move(this->_Myptr() + _Off + _Count,
; 1222 : 				this->_Myptr() + _Off,
; 1223 : 				this->_Mysize - _Off);	// empty out hole
; 1224 : 			if (this == &_Right)
; 1225 : 				_Traits::move(this->_Myptr() + _Off,
; 1226 : 					this->_Myptr() + (_Off < _Roff ? _Roff + _Count : _Roff),
; 1227 : 						_Count);	// substring
; 1228 : 			else
; 1229 : 				_Traits::copy(this->_Myptr() + _Off,
; 1230 : 					_Right._Myptr() + _Roff, _Count);	// fill hole
; 1231 : 			_Eos(_Num);
; 1232 : 			}
; 1233 : 		return (*this);
; 1234 : 		}
; 1235 : 
; 1236 : 	_Myt& insert(size_type _Off,
; 1237 : 		const _Elem *_Ptr, size_type _Count)
; 1238 : 		{	// insert [_Ptr, _Ptr + _Count) at _Off
; 1239 :  #if _ITERATOR_DEBUG_LEVEL == 2
; 1240 : 		if (_Count != 0)
; 1241 : 			_DEBUG_POINTER(_Ptr);
; 1242 :  #endif /* _ITERATOR_DEBUG_LEVEL == 2 */
; 1243 : 
; 1244 : 		if (_Inside(_Ptr))
; 1245 : 			return (insert(_Off, *this,
; 1246 : 				_Ptr - this->_Myptr(), _Count));	// substring
; 1247 : 		if (this->_Mysize < _Off)
; 1248 : 			_Xran();	// _Off off end
; 1249 : 		if (npos - this->_Mysize <= _Count)
; 1250 : 			_Xlen();	// result too long
; 1251 : 		size_type _Num;
; 1252 : 		if (0 < _Count && _Grow(_Num = this->_Mysize + _Count))
; 1253 : 			{	// make room and insert new stuff
; 1254 : 			_Traits::move(this->_Myptr() + _Off + _Count,
; 1255 : 				this->_Myptr() + _Off,
; 1256 : 				this->_Mysize - _Off);	// empty out hole
; 1257 : 			_Traits::copy(this->_Myptr() + _Off, _Ptr, _Count);	// fill hole
; 1258 : 			_Eos(_Num);
; 1259 : 			}
; 1260 : 		return (*this);
; 1261 : 		}
; 1262 : 
; 1263 : 	_Myt& insert(size_type _Off, const _Elem *_Ptr)
; 1264 : 		{	// insert [_Ptr, <null>) at _Off
; 1265 : 		_DEBUG_POINTER(_Ptr);
; 1266 : 		return (insert(_Off, _Ptr, _Traits::length(_Ptr)));
; 1267 : 		}
; 1268 : 
; 1269 : 	_Myt& insert(size_type _Off,
; 1270 : 		size_type _Count, _Elem _Ch)
; 1271 : 		{	// insert _Count * _Ch at _Off
; 1272 : 		if (this->_Mysize < _Off)
; 1273 : 			_Xran();	// _Off off end
; 1274 : 		if (npos - this->_Mysize <= _Count)
; 1275 : 			_Xlen();	// result too long
; 1276 : 		size_type _Num;
; 1277 : 		if (0 < _Count && _Grow(_Num = this->_Mysize + _Count))
; 1278 : 			{	// make room and insert new stuff
; 1279 : 			_Traits::move(this->_Myptr() + _Off + _Count,
; 1280 : 				this->_Myptr() + _Off,
; 1281 : 				this->_Mysize - _Off);	// empty out hole
; 1282 : 			_Chassign(_Off, _Count, _Ch);	// fill hole
; 1283 : 			_Eos(_Num);
; 1284 : 			}
; 1285 : 		return (*this);
; 1286 : 		}
; 1287 : 
; 1288 : 	iterator insert(const_iterator _Where)
; 1289 : 		{	// insert <null> at _Where
; 1290 : 		return (insert(_Where, _Elem()));
; 1291 : 		}
; 1292 : 
; 1293 : 	iterator insert(const_iterator _Where, _Elem _Ch)
; 1294 : 		{	// insert _Ch at _Where
; 1295 : 		size_type _Off = _Pdif(_Where, begin());
; 1296 : 		insert(_Off, 1, _Ch);
; 1297 : 		return (begin() + _Off);
; 1298 : 		}
; 1299 : 
; 1300 : 	iterator insert(const_iterator _Where, size_type _Count, _Elem _Ch)
; 1301 : 		{	// insert _Count * _Elem at _Where
; 1302 : 		size_type _Off = _Pdif(_Where, begin());
; 1303 : 		insert(_Off, _Count, _Ch);
; 1304 : 		return (begin() + _Off);
; 1305 : 		}
; 1306 : 
; 1307 : 	template<class _Iter>
; 1308 : 		typename enable_if<_Is_iterator<_Iter>::value,
; 1309 : 			iterator>::type
; 1310 : 		insert(const_iterator _Where, _Iter _First, _Iter _Last)
; 1311 : 		{	// insert [_First, _Last) at _Where, input iterators
; 1312 : 		size_type _Off = _Pdif(_Where, begin());
; 1313 : 		replace(_Where, _Where, _First, _Last);
; 1314 : 		return (begin() + _Off);
; 1315 : 		}
; 1316 : 
; 1317 : 	iterator insert(const_iterator _Where,
; 1318 : 		const_pointer _First, const_pointer _Last)
; 1319 : 		{	// insert [_First, _Last) at _Where, const pointers
; 1320 : 		size_type _Off = _Pdif(_Where, begin());
; 1321 : 		replace(_Where, _Where, _First, _Last);
; 1322 : 		return (begin() + _Off);
; 1323 : 		}
; 1324 : 
; 1325 : 	iterator insert(const_iterator _Where,
; 1326 : 		const_iterator _First, const_iterator _Last)
; 1327 : 		{	// insert [_First, _Last) at _Where, const_iterators
; 1328 : 		size_type _Off = _Pdif(_Where, begin());
; 1329 : 		replace(_Where, _Where, _First, _Last);
; 1330 : 		return (begin() + _Off);
; 1331 : 		}
; 1332 : 
; 1333 : 	_Myt& erase(size_type _Off = 0)
; 1334 : 		{	// erase elements [_Off, ...)
; 1335 : 		if (this->_Mysize < _Off)
; 1336 : 			_Xran();	// _Off off end
; 1337 : 		_Eos(_Off);
; 1338 : 		return (*this);
; 1339 : 		}
; 1340 : 
; 1341 : 	_Myt& erase(size_type _Off, size_type _Count)
; 1342 : 		{	// erase elements [_Off, _Off + _Count)
; 1343 : 		if (this->_Mysize < _Off)
; 1344 : 			_Xran();	// _Off off end
; 1345 : 		if (this->_Mysize - _Off <= _Count)
; 1346 : 			_Eos(_Off);	// erase elements [_Off, ...)
; 1347 : 		else if (0 < _Count)
; 1348 : 			{	// move elements down
; 1349 : 			value_type *_Ptr = this->_Myptr() + _Off;
; 1350 : 			size_type _Newsize = this->_Mysize - _Count;
; 1351 : 			_Traits::move(_Ptr, _Ptr + _Count, _Newsize - _Off);
; 1352 : 			_Eos(_Newsize);
; 1353 : 			}
; 1354 : 		return (*this);
; 1355 : 		}
; 1356 : 
; 1357 : 	iterator erase(const_iterator _Where)
; 1358 : 		{	// erase element at _Where
; 1359 : 		size_type _Count = _Pdif(_Where, begin());
; 1360 : 		erase(_Count, 1);
; 1361 : 		return (_STRING_ITERATOR(this->_Myptr() + _Count));
; 1362 : 		}
; 1363 : 
; 1364 : 	iterator erase(const_iterator _First, const_iterator _Last)
; 1365 : 		{	// erase substring [_First, _Last)
; 1366 : 		_DEBUG_RANGE(_First, _Last);
; 1367 : 		size_type _Count = _Pdif(_First, begin());
; 1368 : 		erase(_Count, _Pdif(_Last, _First));
; 1369 : 		return (_STRING_ITERATOR(this->_Myptr() + _Count));
; 1370 : 		}
; 1371 : 
; 1372 : 	void clear() _NOEXCEPT
; 1373 : 		{	// erase all
; 1374 : 		_Eos(0);
; 1375 : 		}
; 1376 : 
; 1377 : 	_Myt& replace(size_type _Off, size_type _N0, const _Myt& _Right)
; 1378 : 		{	// replace [_Off, _Off + _N0) with _Right
; 1379 : 		return (replace(_Off, _N0, _Right, 0, npos));
; 1380 : 		}
; 1381 : 
; 1382 : 	_Myt& replace(size_type _Off,
; 1383 : 		size_type _N0, const _Myt& _Right, size_type _Roff, size_type _Count)
; 1384 : 		{	// replace [_Off, _Off + _N0) with _Right [_Roff, _Roff + _Count)
; 1385 : 		if (this->_Mysize < _Off || _Right.size() < _Roff)
; 1386 : 			_Xran();	// _Off or _Roff off end
; 1387 : 		if (this->_Mysize - _Off < _N0)
; 1388 : 			_N0 = this->_Mysize - _Off;	// trim _N0 to size
; 1389 : 		size_type _Num = _Right.size() - _Roff;
; 1390 : 		if (_Num < _Count)
; 1391 : 			_Count = _Num;	// trim _Count to size
; 1392 : 		if (npos - _Count <= this->_Mysize - _N0)
; 1393 : 			_Xlen();	// result too long
; 1394 : 
; 1395 : 		size_type _Nm = this->_Mysize - _N0 - _Off;	// length of kept tail
; 1396 : 		size_type _Newsize = this->_Mysize + _Count - _N0;
; 1397 : 		if (this->_Mysize < _Newsize)
; 1398 : 			_Grow(_Newsize);
; 1399 : 
; 1400 : 		if (this != &_Right)
; 1401 : 			{	// no overlap, just move down and copy in new stuff
; 1402 : 			_Traits::move(this->_Myptr() + _Off + _Count,
; 1403 : 				this->_Myptr() + _Off + _N0, _Nm);	// empty hole
; 1404 : 			_Traits::copy(this->_Myptr() + _Off,
; 1405 : 				_Right._Myptr() + _Roff, _Count);	// fill hole
; 1406 : 			}
; 1407 : 		else if (_Count <= _N0)
; 1408 : 			{	// hole doesn't get larger, just copy in substring
; 1409 : 			_Traits::move(this->_Myptr() + _Off,
; 1410 : 				this->_Myptr() + _Roff, _Count);	// fill hole
; 1411 : 			_Traits::move(this->_Myptr() + _Off + _Count,
; 1412 : 				this->_Myptr() + _Off + _N0, _Nm);	// move tail down
; 1413 : 			}
; 1414 : 		else if (_Roff <= _Off)
; 1415 : 			{	// hole gets larger, substring begins before hole
; 1416 : 			_Traits::move(this->_Myptr() + _Off + _Count,
; 1417 : 				this->_Myptr() + _Off + _N0, _Nm);	// move tail down
; 1418 : 			_Traits::move(this->_Myptr() + _Off,
; 1419 : 				this->_Myptr() + _Roff, _Count);	// fill hole
; 1420 : 			}
; 1421 : 		else if (_Off + _N0 <= _Roff)
; 1422 : 			{	// hole gets larger, substring begins after hole
; 1423 : 			_Traits::move(this->_Myptr() + _Off + _Count,
; 1424 : 				this->_Myptr() + _Off + _N0, _Nm);	// move tail down
; 1425 : 			_Traits::move(this->_Myptr() + _Off,
; 1426 : 				this->_Myptr() + (_Roff + _Count - _N0),
; 1427 : 				_Count);	// fill hole
; 1428 : 			}
; 1429 : 		else
; 1430 : 			{	// hole gets larger, substring begins in hole
; 1431 : 			_Traits::move(this->_Myptr() + _Off,
; 1432 : 				this->_Myptr() + _Roff, _N0);	// fill old hole
; 1433 : 			_Traits::move(this->_Myptr() + _Off + _Count,
; 1434 : 				this->_Myptr() + _Off + _N0, _Nm);	// move tail down
; 1435 : 			_Traits::move(this->_Myptr() + _Off + _N0,
; 1436 : 				this->_Myptr() + _Roff + _Count,
; 1437 : 				_Count - _N0);	// fill rest of new hole
; 1438 : 			}
; 1439 : 
; 1440 : 		_Eos(_Newsize);
; 1441 : 		return (*this);
; 1442 : 		}
; 1443 : 
; 1444 : 	_Myt& replace(size_type _Off,
; 1445 : 		size_type _N0, const _Elem *_Ptr, size_type _Count)
; 1446 : 		{	// replace [_Off, _Off + _N0) with [_Ptr, _Ptr + _Count)
; 1447 :  #if _ITERATOR_DEBUG_LEVEL == 2
; 1448 : 		if (_Count != 0)
; 1449 : 			_DEBUG_POINTER(_Ptr);
; 1450 :  #endif /* _ITERATOR_DEBUG_LEVEL == 2 */
; 1451 : 
; 1452 : 		if (_Inside(_Ptr))
; 1453 : 			return (replace(_Off, _N0, *this,
; 1454 : 				_Ptr - this->_Myptr(),
; 1455 : 				_Count));	// substring, replace carefully
; 1456 : 		if (this->_Mysize < _Off)
; 1457 : 			_Xran();	// _Off off end
; 1458 : 		if (this->_Mysize - _Off < _N0)
; 1459 : 			_N0 = this->_Mysize - _Off;	// trim _N0 to size
; 1460 : 		if (npos - _Count <= this->_Mysize - _N0)
; 1461 : 			_Xlen();	// result too long
; 1462 : 		size_type _Nm = this->_Mysize - _N0 - _Off;
; 1463 : 
; 1464 : 		if (_Count < _N0)
; 1465 : 			_Traits::move(this->_Myptr() + _Off + _Count,
; 1466 : 				this->_Myptr() + _Off + _N0,
; 1467 : 				_Nm);	// smaller hole, move tail up
; 1468 : 		size_type _Num;
; 1469 : 		if ((0 < _Count || 0 < _N0)
; 1470 : 			&& _Grow(_Num = this->_Mysize + _Count - _N0))
; 1471 : 			{	// make room and rearrange
; 1472 : 			if (_N0 < _Count)
; 1473 : 				_Traits::move(this->_Myptr() + _Off + _Count,
; 1474 : 					this->_Myptr() + _Off + _N0, _Nm);	// move tail down
; 1475 : 			_Traits::copy(this->_Myptr() + _Off, _Ptr, _Count);	// fill hole
; 1476 : 			_Eos(_Num);
; 1477 : 			}
; 1478 : 		return (*this);
; 1479 : 		}
; 1480 : 
; 1481 : 	_Myt& replace(size_type _Off, size_type _N0, const _Elem *_Ptr)
; 1482 : 		{	// replace [_Off, _Off + _N0) with [_Ptr, <null>)
; 1483 : 		_DEBUG_POINTER(_Ptr);
; 1484 : 		return (replace(_Off, _N0, _Ptr, _Traits::length(_Ptr)));
; 1485 : 		}
; 1486 : 
; 1487 : 	_Myt& replace(size_type _Off,
; 1488 : 		size_type _N0, size_type _Count, _Elem _Ch)
; 1489 : 		{	// replace [_Off, _Off + _N0) with _Count * _Ch
; 1490 : 		if (this->_Mysize < _Off)
; 1491 : 			_Xran();	// _Off off end
; 1492 : 		if (this->_Mysize - _Off < _N0)
; 1493 : 			_N0 = this->_Mysize - _Off;	// trim _N0 to size
; 1494 : 		if (npos - _Count <= this->_Mysize - _N0)
; 1495 : 			_Xlen();	// result too long
; 1496 : 		size_type _Nm = this->_Mysize - _N0 - _Off;
; 1497 : 
; 1498 : 		if (_Count < _N0)
; 1499 : 			_Traits::move(this->_Myptr() + _Off + _Count,
; 1500 : 				this->_Myptr() + _Off + _N0,
; 1501 : 				_Nm);	// smaller hole, move tail up
; 1502 : 		size_type _Num;
; 1503 : 		if ((0 < _Count || 0 < _N0)
; 1504 : 			&& _Grow(_Num = this->_Mysize + _Count - _N0))
; 1505 : 			{	// make room and rearrange
; 1506 : 			if (_N0 < _Count)
; 1507 : 				_Traits::move(this->_Myptr() + _Off + _Count,
; 1508 : 					this->_Myptr() + _Off + _N0, _Nm);	// move tail down
; 1509 : 			_Chassign(_Off, _Count, _Ch);	// fill hole
; 1510 : 			_Eos(_Num);
; 1511 : 			}
; 1512 : 		return (*this);
; 1513 : 		}
; 1514 : 
; 1515 : 	_Myt& replace(const_iterator _First, const_iterator _Last,
; 1516 : 		const _Myt& _Right)
; 1517 : 		{	// replace [_First, _Last) with _Right
; 1518 : 		return (replace(
; 1519 : 			_Pdif(_First, begin()), _Pdif(_Last, _First), _Right));
; 1520 : 		}
; 1521 : 
; 1522 : 	_Myt& replace(const_iterator _First, const_iterator _Last,
; 1523 : 		const _Elem *_Ptr, size_type _Count)
; 1524 : 		{	// replace [_First, _Last) with [_Ptr, _Ptr + _Count)
; 1525 : 		return (replace(
; 1526 : 			_Pdif(_First, begin()), _Pdif(_Last, _First), _Ptr, _Count));
; 1527 : 		}
; 1528 : 
; 1529 : 	_Myt& replace(const_iterator _First, const_iterator _Last,
; 1530 : 		const _Elem *_Ptr)
; 1531 : 		{	// replace [_First, _Last) with [_Ptr, <null>)
; 1532 : 		return (replace(
; 1533 : 			_Pdif(_First, begin()), _Pdif(_Last, _First), _Ptr));
; 1534 : 		}
; 1535 : 
; 1536 : 	_Myt& replace(const_iterator _First, const_iterator _Last,
; 1537 : 		size_type _Count, _Elem _Ch)
; 1538 : 		{	// replace [_First, _Last) with _Count * _Ch
; 1539 : 		return (replace(
; 1540 : 			_Pdif(_First, begin()), _Pdif(_Last, _First), _Count, _Ch));
; 1541 : 		}
; 1542 : 
; 1543 : 	template<class _Iter>
; 1544 : 		typename enable_if<_Is_iterator<_Iter>::value,
; 1545 : 			_Myt&>::type
; 1546 : 		replace(const_iterator _First, const_iterator _Last,
; 1547 : 			_Iter _First2, _Iter _Last2)
; 1548 : 		{	// replace [_First, _Last) with [_First2, _Last2), input iterators
; 1549 : 		_Myt _Right(_First2, _Last2);
; 1550 : 		replace(_First, _Last, _Right);
; 1551 : 		return (*this);
; 1552 : 		}
; 1553 : 
; 1554 : 	_Myt& replace(const_iterator _First, const_iterator _Last,
; 1555 : 		const_pointer _First2, const_pointer _Last2)
; 1556 : 		{	// replace [_First, _Last) with [_First2, _Last2), const pointers
; 1557 : 		if (_First2 == _Last2)
; 1558 : 			erase(_Pdif(_First, begin()), _Pdif(_Last, _First));
; 1559 : 		else
; 1560 : 			replace(_Pdif(_First, begin()), _Pdif(_Last, _First),
; 1561 : 				&*_First2, _Last2 - _First2);
; 1562 : 		return (*this);
; 1563 : 		}
; 1564 : 
; 1565 : 	_Myt& replace(const_iterator _First, const_iterator _Last,
; 1566 : 		pointer _First2, pointer _Last2)
; 1567 : 		{	// replace [_First, _Last) with [_First2, _Last2), const pointers
; 1568 : 		if (_First2 == _Last2)
; 1569 : 			erase(_Pdif(_First, begin()), _Pdif(_Last, _First));
; 1570 : 		else
; 1571 : 			replace(_Pdif(_First, begin()), _Pdif(_Last, _First),
; 1572 : 				&*_First2, _Last2 - _First2);
; 1573 : 		return (*this);
; 1574 : 		}
; 1575 : 
; 1576 : 	_Myt& replace(const_iterator _First, const_iterator _Last,
; 1577 : 		const_iterator _First2, const_iterator _Last2)
; 1578 : 		{	// replace [_First, _Last) with [_First2, _Last2), const_iterators
; 1579 : 		if (_First2 == _Last2)
; 1580 : 			erase(_Pdif(_First, begin()), _Pdif(_Last, _First));
; 1581 : 		else
; 1582 : 			replace(_Pdif(_First, begin()), _Pdif(_Last, _First),
; 1583 : 				&*_First2, _Last2 - _First2);
; 1584 : 		return (*this);
; 1585 : 		}
; 1586 : 
; 1587 : 	_Myt& replace(const_iterator _First, const_iterator _Last,
; 1588 : 		iterator _First2, iterator _Last2)
; 1589 : 		{	// replace [_First, _Last) with [_First2, _Last2), const_iterators
; 1590 : 		if (_First2 == _Last2)
; 1591 : 			erase(_Pdif(_First, begin()), _Pdif(_Last, _First));
; 1592 : 		else
; 1593 : 			replace(_Pdif(_First, begin()), _Pdif(_Last, _First),
; 1594 : 				&*_First2, _Last2 - _First2);
; 1595 : 		return (*this);
; 1596 : 		}
; 1597 : 
; 1598 : 	iterator begin() _NOEXCEPT
; 1599 : 		{	// return iterator for beginning of mutable sequence
; 1600 : 		return (_STRING_ITERATOR(this->_Myptr()));
; 1601 : 		}
; 1602 : 
; 1603 : 	const_iterator begin() const _NOEXCEPT
; 1604 : 		{	// return iterator for beginning of nonmutable sequence
; 1605 : 		return (_STRING_CONST_ITERATOR(this->_Myptr()));
; 1606 : 		}
; 1607 : 
; 1608 : 	iterator end() _NOEXCEPT
; 1609 : 		{	// return iterator for end of mutable sequence
; 1610 : 		return (_STRING_ITERATOR(this->_Myptr() + this->_Mysize));
; 1611 : 		}
; 1612 : 
; 1613 : 	const_iterator end() const _NOEXCEPT
; 1614 : 		{	// return iterator for end of nonmutable sequence
; 1615 : 		return (_STRING_CONST_ITERATOR(this->_Myptr() + this->_Mysize));
; 1616 : 		}
; 1617 : 
; 1618 : 	reverse_iterator rbegin() _NOEXCEPT
; 1619 : 		{	// return iterator for beginning of reversed mutable sequence
; 1620 : 		return (reverse_iterator(end()));
; 1621 : 		}
; 1622 : 
; 1623 : 	const_reverse_iterator rbegin() const _NOEXCEPT
; 1624 : 		{	// return iterator for beginning of reversed nonmutable sequence
; 1625 : 		return (const_reverse_iterator(end()));
; 1626 : 		}
; 1627 : 
; 1628 : 	reverse_iterator rend() _NOEXCEPT
; 1629 : 		{	// return iterator for end of reversed mutable sequence
; 1630 : 		return (reverse_iterator(begin()));
; 1631 : 		}
; 1632 : 
; 1633 : 	const_reverse_iterator rend() const _NOEXCEPT
; 1634 : 		{	// return iterator for end of reversed nonmutable sequence
; 1635 : 		return (const_reverse_iterator(begin()));
; 1636 : 		}
; 1637 : 
; 1638 : 	const_iterator cbegin() const _NOEXCEPT
; 1639 : 		{	// return iterator for beginning of nonmutable sequence
; 1640 : 		return (((const _Myt *)this)->begin());
; 1641 : 		}
; 1642 : 
; 1643 : 	const_iterator cend() const _NOEXCEPT
; 1644 : 		{	// return iterator for end of nonmutable sequence
; 1645 : 		return (((const _Myt *)this)->end());
; 1646 : 		}
; 1647 : 
; 1648 : 	const_reverse_iterator crbegin() const _NOEXCEPT
; 1649 : 		{	// return iterator for beginning of reversed nonmutable sequence
; 1650 : 		return (((const _Myt *)this)->rbegin());
; 1651 : 		}
; 1652 : 
; 1653 : 	const_reverse_iterator crend() const _NOEXCEPT
; 1654 : 		{	// return iterator for end of reversed nonmutable sequence
; 1655 : 		return (((const _Myt *)this)->rend());
; 1656 : 		}
; 1657 : 
; 1658 : 	void shrink_to_fit()
; 1659 : 		{	// reduce capacity
; 1660 : 		if ((size() | this->_ALLOC_MASK) < capacity())
; 1661 : 			{	// worth shrinking, do it
; 1662 : 			_Myt _Tmp(*this);
; 1663 : 			swap(_Tmp);
; 1664 : 			}
; 1665 : 		}
; 1666 : 
; 1667 : 	reference at(size_type _Off)
; 1668 : 		{	// subscript mutable sequence with checking
; 1669 : 		if (this->_Mysize <= _Off)
; 1670 : 			_Xran();	// _Off off end
; 1671 : 		return (this->_Myptr()[_Off]);
; 1672 : 		}
; 1673 : 
; 1674 : 	const_reference at(size_type _Off) const
; 1675 : 		{	// subscript nonmutable sequence with checking
; 1676 : 		if (this->_Mysize <= _Off)
; 1677 : 			_Xran();	// _Off off end
; 1678 : 		return (this->_Myptr()[_Off]);
; 1679 : 		}
; 1680 : 
; 1681 : 	reference operator[](size_type _Off)
; 1682 : 		{	// subscript mutable sequence
; 1683 :  #if _ITERATOR_DEBUG_LEVEL == 2
; 1684 : 		if (this->_Mysize < _Off)	// sic
; 1685 : 			_DEBUG_ERROR("string subscript out of range");
; 1686 : 
; 1687 :  #elif _ITERATOR_DEBUG_LEVEL == 1
; 1688 : 		_SCL_SECURE_VALIDATE_RANGE(_Off <= this->_Mysize);	// sic
; 1689 :  #endif /* _ITERATOR_DEBUG_LEVEL == 2 */
; 1690 : 
; 1691 : 		return (this->_Myptr()[_Off]);
; 1692 : 		}
; 1693 : 
; 1694 : 	const_reference operator[](size_type _Off) const
; 1695 : 		{	// subscript nonmutable sequence
; 1696 :  #if _ITERATOR_DEBUG_LEVEL == 2
; 1697 : 		if (this->_Mysize < _Off)	// sic
; 1698 : 			_DEBUG_ERROR("string subscript out of range");
; 1699 : 
; 1700 :  #elif _ITERATOR_DEBUG_LEVEL == 1
; 1701 : 		_SCL_SECURE_VALIDATE_RANGE(_Off <= this->_Mysize);	// sic
; 1702 :  #endif /* _ITERATOR_DEBUG_LEVEL == 2 */
; 1703 : 
; 1704 : 		return (this->_Myptr()[_Off]);
; 1705 : 		}
; 1706 : 
; 1707 : 	void push_back(_Elem _Ch)
; 1708 : 		{	// insert element at end
; 1709 : 		insert(end(), _Ch);
; 1710 : 		}
; 1711 : 
; 1712 : 	void pop_back()
; 1713 : 		{	// erase element at end
; 1714 : 		erase(this->_Mysize - 1);	// throws if _Mysize == 0
; 1715 : 		}
; 1716 : 
; 1717 : 	reference front()
; 1718 : 		{	// return first element of mutable sequence
; 1719 : 		return (*begin());
; 1720 : 		}
; 1721 : 
; 1722 : 	const_reference front() const
; 1723 : 		{	// return first element of nonmutable sequence
; 1724 : 		return (*begin());
; 1725 : 		}
; 1726 : 
; 1727 : 	reference back()
; 1728 : 		{	// return last element of mutable sequence
; 1729 : 		return (*(end() - 1));
; 1730 : 		}
; 1731 : 
; 1732 : 	const_reference back() const
; 1733 : 		{	// return last element of nonmutable sequence
; 1734 : 		return (*(end() - 1));
; 1735 : 		}
; 1736 : 
; 1737 : 	const _Elem *c_str() const _NOEXCEPT
; 1738 : 		{	// return pointer to null-terminated nonmutable array
; 1739 : 		return (this->_Myptr());
; 1740 : 		}
; 1741 : 
; 1742 : 	const _Elem *data() const _NOEXCEPT
; 1743 : 		{	// return pointer to nonmutable array
; 1744 : 		return (c_str());
; 1745 : 		}
; 1746 : 
; 1747 : 	size_type length() const _NOEXCEPT
; 1748 : 		{	// return length of sequence
; 1749 : 		return (this->_Mysize);
; 1750 : 		}
; 1751 : 
; 1752 : 	size_type size() const _NOEXCEPT
; 1753 : 		{	// return length of sequence
; 1754 : 		return (this->_Mysize);
; 1755 : 		}
; 1756 : 
; 1757 : 	size_type max_size() const _NOEXCEPT
; 1758 : 		{	// return maximum possible length of sequence
; 1759 : 		size_type _Num = this->_Getal().max_size();
; 1760 : 		return (_Num <= 1 ? 1 : _Num - 1);
; 1761 : 		}
; 1762 : 
; 1763 : 	void resize(size_type _Newsize)
; 1764 : 		{	// determine new length, padding with null elements as needed
; 1765 : 		resize(_Newsize, _Elem());
; 1766 : 		}
; 1767 : 
; 1768 : 	void resize(size_type _Newsize, _Elem _Ch)
; 1769 : 		{	// determine new length, padding with _Ch elements as needed
; 1770 : 		if (_Newsize <= this->_Mysize)
; 1771 : 			_Eos(_Newsize);
; 1772 : 		else
; 1773 : 			append(_Newsize - this->_Mysize, _Ch);
; 1774 : 		}
; 1775 : 
; 1776 : 	size_type capacity() const _NOEXCEPT
; 1777 : 		{	// return current length of allocated storage
; 1778 : 		return (this->_Myres);
; 1779 : 		}
; 1780 : 
; 1781 : 	void reserve(size_type _Newcap = 0)
; 1782 : 		{	// determine new minimum length of allocated storage
; 1783 : 		if (this->_Mysize <= _Newcap && this->_Myres != _Newcap)
; 1784 : 			{	// change reservation
; 1785 : 			size_type _Size = this->_Mysize;
; 1786 : 			if (_Grow(_Newcap, true))
; 1787 : 				_Eos(_Size);
; 1788 : 			}
; 1789 : 		}
; 1790 : 
; 1791 : 	bool empty() const _NOEXCEPT
; 1792 : 		{	// test if sequence is empty
; 1793 : 		return (this->_Mysize == 0);
; 1794 : 		}
; 1795 : 
; 1796 : 	_SCL_INSECURE_DEPRECATE
; 1797 : 
; 1798 : 	size_type copy(_Elem *_Ptr,
; 1799 : 		size_type _Count, size_type _Off = 0) const
; 1800 : 		{	// copy [_Off, _Off + _Count) to [_Ptr, _Ptr + _Count)
; 1801 :  #if _ITERATOR_DEBUG_LEVEL == 2
; 1802 : 		if (_Count != 0)
; 1803 : 			_DEBUG_POINTER(_Ptr);
; 1804 :  #endif /* _ITERATOR_DEBUG_LEVEL == 2 */
; 1805 : 
; 1806 : 		if (this->_Mysize < _Off)
; 1807 : 			_Xran();	// _Off off end
; 1808 : 		if (this->_Mysize - _Off < _Count)
; 1809 : 			_Count = this->_Mysize - _Off;
; 1810 : 		_Traits::copy(_Ptr, this->_Myptr() + _Off, _Count);
; 1811 : 		return (_Count);
; 1812 : 		}
; 1813 : 
; 1814 : 	size_type _Copy_s(_Elem *_Dest, size_type _Dest_size,
; 1815 : 		size_type _Count, size_type _Off = 0) const
; 1816 : 		{	// copy [_Off, _Off + _Count) to [_Dest, _Dest + _Count)
; 1817 :  #if _ITERATOR_DEBUG_LEVEL == 2
; 1818 : 		if (_Count != 0)
; 1819 : 			_DEBUG_POINTER(_Dest);
; 1820 :  #endif /* _ITERATOR_DEBUG_LEVEL == 2 */
; 1821 : 
; 1822 : 		if (this->_Mysize < _Off)
; 1823 : 			_Xran();	// _Off off end
; 1824 : 		if (this->_Mysize - _Off < _Count)
; 1825 : 			_Count = this->_Mysize - _Off;
; 1826 : 		_Traits::_Copy_s(_Dest, _Dest_size, this->_Myptr() + _Off, _Count);
; 1827 : 		return (_Count);
; 1828 : 		}
; 1829 : 
; 1830 : 	void _Swap_bx(_Myt& _Right)
; 1831 : 		{	// exchange _Bx with _Right._Bx
; 1832 : 		if (this->_BUF_SIZE <= this->_Myres)
; 1833 : 			if (this->_BUF_SIZE <= _Right._Myres)
; 1834 : 				_Swap_adl(this->_Bx._Ptr, _Right._Bx._Ptr);
; 1835 : 			else
; 1836 : 				{	// swap large with small
; 1837 : 				pointer _Ptr = this->_Bx._Ptr;
; 1838 : 				this->_Getal().destroy(&this->_Bx._Ptr);
; 1839 : 				_Traits::copy(this->_Bx._Buf,
; 1840 : 					_Right._Bx._Buf, _Right._Mysize + 1);
; 1841 : 				this->_Getal().construct(&_Right._Bx._Ptr, _Ptr);
; 1842 : 				}
; 1843 : 		else
; 1844 : 			if (_Right._Myres < this->_BUF_SIZE)
; 1845 : 				_STD swap(this->_Bx._Buf, _Right._Bx._Buf);
; 1846 : 			else
; 1847 : 				{	// swap small with large
; 1848 : 				pointer _Ptr = _Right._Bx._Ptr;
; 1849 : 				this->_Getal().destroy(&_Right._Bx._Ptr);
; 1850 : 				_Traits::copy(_Right._Bx._Buf,
; 1851 : 					this->_Bx._Buf, this->_Mysize + 1);
; 1852 : 				this->_Getal().construct(&this->_Bx._Ptr, _Ptr);
; 1853 : 				}
; 1854 : 		}
; 1855 : 
; 1856 : 	void swap(_Myt& _Right)
; 1857 : 		{	// exchange contents with _Right
; 1858 : 		if (this == &_Right)
; 1859 : 			;	// same object, do nothing
; 1860 : 		else if (this->_Getal() == _Right._Getal())
; 1861 : 			{	// same allocator, swap control information
; 1862 : 			this->_Swap_all(_Right);
; 1863 : 			_Swap_bx(_Right);
; 1864 : 			_STD swap(this->_Mysize, _Right._Mysize);
; 1865 : 			_STD swap(this->_Myres, _Right._Myres);
; 1866 : 			}
; 1867 : 
; 1868 : 		else if (_Alty::propagate_on_container_swap::value)
; 1869 : 			{	// swap allocators and control information
; 1870 : 			this->_Swap_alloc(_Right);
; 1871 : 			_Swap_bx(_Right);
; 1872 : 			_STD swap(this->_Bx, _Right._Bx);	// pointer bitwise copyable?
; 1873 : 			_STD swap(this->_Mysize, _Right._Mysize);
; 1874 : 			_STD swap(this->_Myres, _Right._Myres);
; 1875 : 			}
; 1876 : 
; 1877 : 		else
; 1878 : 			{	// different allocator, do multiple assigns
; 1879 : 			_Myt _Tmp = *this;
; 1880 : 
; 1881 : 			*this = _Right;
; 1882 : 			_Right = _Tmp;
; 1883 : 			}
; 1884 : 		}
; 1885 : 
; 1886 : 	size_type find(const _Myt& _Right, size_type _Off = 0) const _NOEXCEPT
; 1887 : 		{	// look for _Right beginning at or after _Off
; 1888 : 		return (find(_Right._Myptr(), _Off, _Right.size()));
; 1889 : 		}
; 1890 : 
; 1891 : 	size_type find(const _Elem *_Ptr,
; 1892 : 		size_type _Off, size_type _Count) const
; 1893 : 		{	// look for [_Ptr, _Ptr + _Count) beginning at or after _Off
; 1894 :  #if _ITERATOR_DEBUG_LEVEL == 2
; 1895 : 		if (_Count != 0)
; 1896 : 			_DEBUG_POINTER(_Ptr);
; 1897 :  #endif /* _ITERATOR_DEBUG_LEVEL == 2 */
; 1898 : 
; 1899 : 		if (_Count == 0 && _Off <= this->_Mysize)
; 1900 : 			return (_Off);	// null string always matches (if inside string)
; 1901 : 
; 1902 : 		size_type _Nm;
; 1903 : 		if (_Off < this->_Mysize && _Count <= (_Nm = this->_Mysize - _Off))
; 1904 : 			{	// room for match, look for it
; 1905 : 			const _Elem *_Uptr, *_Vptr;
; 1906 : 			for (_Nm -= _Count - 1, _Vptr = this->_Myptr() + _Off;
; 1907 : 				(_Uptr = _Traits::find(_Vptr, _Nm, *_Ptr)) != 0;
; 1908 : 				_Nm -= _Uptr - _Vptr + 1, _Vptr = _Uptr + 1)
; 1909 : 				if (_Traits::compare(_Uptr, _Ptr, _Count) == 0)
; 1910 : 					return (_Uptr - this->_Myptr());	// found a match
; 1911 : 			}
; 1912 : 
; 1913 : 		return (npos);	// no match
; 1914 : 		}
; 1915 : 
; 1916 : 	size_type find(const _Elem *_Ptr, size_type _Off = 0) const
; 1917 : 		{	// look for [_Ptr, <null>) beginning at or after _Off
; 1918 : 		_DEBUG_POINTER(_Ptr);
; 1919 : 		return (find(_Ptr, _Off, _Traits::length(_Ptr)));
; 1920 : 		}
; 1921 : 
; 1922 : 	size_type find(_Elem _Ch, size_type _Off = 0) const
; 1923 : 		{	// look for _Ch at or after _Off
; 1924 : 		return (find((const _Elem *)&_Ch, _Off, 1));
; 1925 : 		}
; 1926 : 
; 1927 : 	size_type rfind(const _Myt& _Right, size_type _Off = npos) const _NOEXCEPT
; 1928 : 		{	// look for _Right beginning before _Off
; 1929 : 		return (rfind(_Right._Myptr(), _Off, _Right.size()));
; 1930 : 		}
; 1931 : 
; 1932 : 	size_type rfind(const _Elem *_Ptr,
; 1933 : 		size_type _Off, size_type _Count) const
; 1934 : 		{	// look for [_Ptr, _Ptr + _Count) beginning before _Off
; 1935 :  #if _ITERATOR_DEBUG_LEVEL == 2
; 1936 : 		if (_Count != 0)
; 1937 : 			_DEBUG_POINTER(_Ptr);
; 1938 :  #endif /* _ITERATOR_DEBUG_LEVEL == 2 */
; 1939 : 
; 1940 : 		if (_Count == 0)
; 1941 : 			return (_Off < this->_Mysize ? _Off
; 1942 : 				: this->_Mysize);	// null always matches
; 1943 : 		if (_Count <= this->_Mysize)
; 1944 : 			{	// room for match, look for it
; 1945 : 			const _Elem *_Uptr = this->_Myptr() +
; 1946 : 				(_Off < this->_Mysize - _Count ? _Off
; 1947 : 					: this->_Mysize - _Count);
; 1948 : 			for (; ; --_Uptr)
; 1949 : 				if (_Traits::eq(*_Uptr, *_Ptr)
; 1950 : 					&& _Traits::compare(_Uptr, _Ptr, _Count) == 0)
; 1951 : 					return (_Uptr - this->_Myptr());	// found a match
; 1952 : 				else if (_Uptr == this->_Myptr())
; 1953 : 					break;	// at beginning, no more chance for match
; 1954 : 			}
; 1955 : 
; 1956 : 		return (npos);	// no match
; 1957 : 		}
; 1958 : 
; 1959 : 	size_type rfind(const _Elem *_Ptr, size_type _Off = npos) const
; 1960 : 		{	// look for [_Ptr, <null>) beginning before _Off
; 1961 : 		_DEBUG_POINTER(_Ptr);
; 1962 : 		return (rfind(_Ptr, _Off, _Traits::length(_Ptr)));
; 1963 : 		}
; 1964 : 
; 1965 : 	size_type rfind(_Elem _Ch, size_type _Off = npos) const
; 1966 : 		{	// look for _Ch before _Off
; 1967 : 		return (rfind((const _Elem *)&_Ch, _Off, 1));
; 1968 : 		}
; 1969 : 
; 1970 : 	size_type find_first_of(const _Myt& _Right,
; 1971 : 		size_type _Off = 0) const _NOEXCEPT
; 1972 : 		{	// look for one of _Right at or after _Off
; 1973 : 		return (find_first_of(_Right._Myptr(), _Off, _Right.size()));
; 1974 : 		}
; 1975 : 
; 1976 : 	size_type find_first_of(const _Elem *_Ptr,
; 1977 : 		size_type _Off, size_type _Count) const
; 1978 : 		{	// look for one of [_Ptr, _Ptr + _Count) at or after _Off
; 1979 :  #if _ITERATOR_DEBUG_LEVEL == 2
; 1980 : 		if (_Count != 0)
; 1981 : 			_DEBUG_POINTER(_Ptr);
; 1982 :  #endif /* _ITERATOR_DEBUG_LEVEL == 2 */
; 1983 : 
; 1984 : 		if (0 < _Count && _Off < this->_Mysize)
; 1985 : 			{	// room for match, look for it
; 1986 : 			const _Elem *const _Vptr = this->_Myptr() + this->_Mysize;
; 1987 : 			for (const _Elem *_Uptr = this->_Myptr() + _Off;
; 1988 : 				_Uptr < _Vptr; ++_Uptr)
; 1989 : 				if (_Traits::find(_Ptr, _Count, *_Uptr) != 0)
; 1990 : 					return (_Uptr - this->_Myptr());	// found a match
; 1991 : 			}
; 1992 : 
; 1993 : 		return (npos);	// no match
; 1994 : 		}
; 1995 : 
; 1996 : 	size_type find_first_of(const _Elem *_Ptr,
; 1997 : 		size_type _Off = 0) const
; 1998 : 		{	// look for one of [_Ptr, <null>) at or after _Off
; 1999 : 		_DEBUG_POINTER(_Ptr);
; 2000 : 		return (find_first_of(_Ptr, _Off, _Traits::length(_Ptr)));
; 2001 : 		}
; 2002 : 
; 2003 : 	size_type find_first_of(_Elem _Ch,
; 2004 : 		size_type _Off = 0) const
; 2005 : 		{	// look for _Ch at or after _Off
; 2006 : 		return (find((const _Elem *)&_Ch, _Off, 1));
; 2007 : 		}
; 2008 : 
; 2009 : 	size_type find_last_of(const _Myt& _Right,
; 2010 : 		size_type _Off = npos) const _NOEXCEPT
; 2011 : 		{	// look for one of _Right before _Off
; 2012 : 		return (find_last_of(_Right._Myptr(), _Off, _Right.size()));
; 2013 : 		}
; 2014 : 
; 2015 : 	size_type find_last_of(const _Elem *_Ptr,
; 2016 : 		size_type _Off, size_type _Count) const
; 2017 : 		{	// look for one of [_Ptr, _Ptr + _Count) before _Off
; 2018 :  #if _ITERATOR_DEBUG_LEVEL == 2
; 2019 : 		if (_Count != 0)
; 2020 : 			_DEBUG_POINTER(_Ptr);
; 2021 :  #endif /* _ITERATOR_DEBUG_LEVEL == 2 */
; 2022 : 
; 2023 : 		if (0 < _Count && 0 < this->_Mysize)
; 2024 : 			{	// worth searching, do it
; 2025 : 			const _Elem *_Uptr = this->_Myptr()
; 2026 : 				+ (_Off < this->_Mysize ? _Off : this->_Mysize - 1);
; 2027 : 			for (; ; --_Uptr)
; 2028 : 				if (_Traits::find(_Ptr, _Count, *_Uptr) != 0)
; 2029 : 					return (_Uptr - this->_Myptr());	// found a match
; 2030 : 				else if (_Uptr == this->_Myptr())
; 2031 : 					break;	// at beginning, no more chance for match
; 2032 : 			}
; 2033 : 
; 2034 : 		return (npos);	// no match
; 2035 : 		}
; 2036 : 
; 2037 : 	size_type find_last_of(const _Elem *_Ptr,
; 2038 : 		size_type _Off = npos) const
; 2039 : 		{	// look for one of [_Ptr, <null>) before _Off
; 2040 : 		_DEBUG_POINTER(_Ptr);
; 2041 : 		return (find_last_of(_Ptr, _Off, _Traits::length(_Ptr)));
; 2042 : 		}
; 2043 : 
; 2044 : 	size_type find_last_of(_Elem _Ch,
; 2045 : 		size_type _Off = npos) const
; 2046 : 		{	// look for _Ch before _Off
; 2047 : 		return (rfind((const _Elem *)&_Ch, _Off, 1));
; 2048 : 		}
; 2049 : 
; 2050 : 	size_type find_first_not_of(const _Myt& _Right,
; 2051 : 		size_type _Off = 0) const _NOEXCEPT
; 2052 : 		{	// look for none of _Right at or after _Off
; 2053 : 		return (find_first_not_of(_Right._Myptr(), _Off,
; 2054 : 			_Right.size()));
; 2055 : 		}
; 2056 : 
; 2057 : 	size_type find_first_not_of(const _Elem *_Ptr,
; 2058 : 		size_type _Off, size_type _Count) const
; 2059 : 		{	// look for none of [_Ptr, _Ptr + _Count) at or after _Off
; 2060 :  #if _ITERATOR_DEBUG_LEVEL == 2
; 2061 : 		if (_Count != 0)
; 2062 : 			_DEBUG_POINTER(_Ptr);
; 2063 :  #endif /* _ITERATOR_DEBUG_LEVEL == 2 */
; 2064 : 
; 2065 : 		if (_Off < this->_Mysize)
; 2066 : 			{	// room for match, look for it
; 2067 : 			const _Elem *const _Vptr = this->_Myptr() + this->_Mysize;
; 2068 : 			for (const _Elem *_Uptr = this->_Myptr() + _Off;
; 2069 : 				_Uptr < _Vptr; ++_Uptr)
; 2070 : 				if (_Traits::find(_Ptr, _Count, *_Uptr) == 0)
; 2071 : 					return (_Uptr - this->_Myptr());
; 2072 : 			}
; 2073 : 		return (npos);
; 2074 : 		}
; 2075 : 
; 2076 : 	size_type find_first_not_of(const _Elem *_Ptr,
; 2077 : 		size_type _Off = 0) const
; 2078 : 		{	// look for one of [_Ptr, <null>) at or after _Off
; 2079 : 		_DEBUG_POINTER(_Ptr);
; 2080 : 		return (find_first_not_of(_Ptr, _Off, _Traits::length(_Ptr)));
; 2081 : 		}
; 2082 : 
; 2083 : 	size_type find_first_not_of(_Elem _Ch,
; 2084 : 		size_type _Off = 0) const
; 2085 : 		{	// look for non _Ch at or after _Off
; 2086 : 		return (find_first_not_of((const _Elem *)&_Ch, _Off, 1));
; 2087 : 		}
; 2088 : 
; 2089 : 	size_type find_last_not_of(const _Myt& _Right,
; 2090 : 		size_type _Off = npos) const _NOEXCEPT
; 2091 : 		{	// look for none of _Right before _Off
; 2092 : 		return (find_last_not_of(_Right._Myptr(), _Off, _Right.size()));
; 2093 : 		}
; 2094 : 
; 2095 : 	size_type find_last_not_of(const _Elem *_Ptr,
; 2096 : 		size_type _Off, size_type _Count) const
; 2097 : 		{	// look for none of [_Ptr, _Ptr + _Count) before _Off
; 2098 :  #if _ITERATOR_DEBUG_LEVEL == 2
; 2099 : 		if (_Count != 0)
; 2100 : 			_DEBUG_POINTER(_Ptr);
; 2101 :  #endif /* _ITERATOR_DEBUG_LEVEL == 2 */
; 2102 : 
; 2103 : 		if (0 < this->_Mysize)
; 2104 : 			{	// worth searching, do it
; 2105 : 			const _Elem *_Uptr = this->_Myptr()
; 2106 : 				+ (_Off < this->_Mysize ? _Off : this->_Mysize - 1);
; 2107 : 			for (; ; --_Uptr)
; 2108 : 				if (_Traits::find(_Ptr, _Count, *_Uptr) == 0)
; 2109 : 					return (_Uptr - this->_Myptr());
; 2110 : 				else if (_Uptr == this->_Myptr())
; 2111 : 					break;
; 2112 : 			}
; 2113 : 		return (npos);
; 2114 : 		}
; 2115 : 
; 2116 : 	size_type find_last_not_of(const _Elem *_Ptr,
; 2117 : 		size_type _Off = npos) const
; 2118 : 		{	// look for none of [_Ptr, <null>) before _Off
; 2119 : 		_DEBUG_POINTER(_Ptr);
; 2120 : 		return (find_last_not_of(_Ptr, _Off, _Traits::length(_Ptr)));
; 2121 : 		}
; 2122 : 
; 2123 : 	size_type find_last_not_of(_Elem _Ch,
; 2124 : 		size_type _Off = npos) const
; 2125 : 		{	// look for non _Ch before _Off
; 2126 : 		return (find_last_not_of((const _Elem *)&_Ch, _Off, 1));
; 2127 : 		}
; 2128 : 
; 2129 : 	_Myt substr(size_type _Off = 0, size_type _Count = npos) const
; 2130 : 		{	// return [_Off, _Off + _Count) as new string
; 2131 : 		return (_Myt(*this, _Off, _Count, get_allocator()));
; 2132 : 		}
; 2133 : 
; 2134 : 	int compare(const _Myt& _Right) const _NOEXCEPT
; 2135 : 		{	// compare [0, _Mysize) with _Right
; 2136 : 		return (compare(0, this->_Mysize, _Right._Myptr(), _Right.size()));
; 2137 : 		}
; 2138 : 
; 2139 : 	int compare(size_type _Off, size_type _N0,
; 2140 : 		const _Myt& _Right) const
; 2141 : 		{	// compare [_Off, _Off + _N0) with _Right
; 2142 : 		return (compare(_Off, _N0, _Right, 0, npos));
; 2143 : 		}
; 2144 : 
; 2145 : 	int compare(size_type _Off,
; 2146 : 		size_type _N0, const _Myt& _Right,
; 2147 : 		size_type _Roff, size_type _Count) const
; 2148 : 		{	// compare [_Off, _Off + _N0) with _Right [_Roff, _Roff + _Count)
; 2149 : 		if (_Right.size() < _Roff)
; 2150 : 			_Xran();	// _Off off end
; 2151 : 		if (_Right._Mysize - _Roff < _Count)
; 2152 : 			_Count = _Right._Mysize - _Roff;	// trim _Count to size
; 2153 : 		return (compare(_Off, _N0, _Right._Myptr() + _Roff, _Count));
; 2154 : 		}
; 2155 : 
; 2156 : 	int compare(const _Elem *_Ptr) const
; 2157 : 		{	// compare [0, _Mysize) with [_Ptr, <null>)
; 2158 : 		_DEBUG_POINTER(_Ptr);
; 2159 : 		return (compare(0, this->_Mysize, _Ptr, _Traits::length(_Ptr)));
; 2160 : 		}
; 2161 : 
; 2162 : 	int compare(size_type _Off, size_type _N0, const _Elem *_Ptr) const
; 2163 : 		{	// compare [_Off, _Off + _N0) with [_Ptr, <null>)
; 2164 : 		_DEBUG_POINTER(_Ptr);
; 2165 : 		return (compare(_Off, _N0, _Ptr, _Traits::length(_Ptr)));
; 2166 : 		}
; 2167 : 
; 2168 : 	int compare(size_type _Off,
; 2169 : 		size_type _N0, const _Elem *_Ptr, size_type _Count) const
; 2170 : 		{	// compare [_Off, _Off + _N0) with [_Ptr, _Ptr + _Count)
; 2171 :  #if _ITERATOR_DEBUG_LEVEL == 2
; 2172 : 		if (_Count != 0)
; 2173 : 			_DEBUG_POINTER(_Ptr);
; 2174 :  #endif /* _ITERATOR_DEBUG_LEVEL == 2 */
; 2175 : 
; 2176 : 		if (this->_Mysize < _Off)
; 2177 : 			_Xran();	// _Off off end
; 2178 : 		if (this->_Mysize - _Off < _N0)
; 2179 : 			_N0 = this->_Mysize - _Off;	// trim _N0 to size
; 2180 : 
; 2181 : 		size_type _Ans = _Traits::compare(this->_Myptr() + _Off, _Ptr,
; 2182 : 			_N0 < _Count ? _N0 : _Count);
; 2183 : 		return (_Ans != 0 ? (int)_Ans : _N0 < _Count ? -1
; 2184 : 			: _N0 == _Count ? 0 : +1);
; 2185 : 		}
; 2186 : 
; 2187 : 	allocator_type get_allocator() const _NOEXCEPT
; 2188 : 		{	// return allocator object for values
; 2189 : 		return (this->_Getal());
; 2190 : 		}
; 2191 : 
; 2192 : 	void _Chassign(size_type _Off, size_type _Count, _Elem _Ch)
; 2193 : 		{	// assign _Count copies of _Ch beginning at _Off
; 2194 : 		if (_Count == 1)
; 2195 : 			_Traits::assign(*(this->_Myptr() + _Off), _Ch);
; 2196 : 		else
; 2197 : 			_Traits::assign(this->_Myptr() + _Off, _Count, _Ch);
; 2198 : 		}
; 2199 : 
; 2200 : 	void _Copy(size_type _Newsize, size_type _Oldlen)
; 2201 : 		{	// copy _Oldlen elements to newly allocated buffer
; 2202 : 		size_type _Newres = _Newsize | this->_ALLOC_MASK;
; 2203 : 		if (max_size() < _Newres)
; 2204 : 			_Newres = _Newsize;	// undo roundup if too big
; 2205 : 		else if (this->_Myres / 2 <= _Newres / 3)
; 2206 : 			;
; 2207 : 		else if (this->_Myres <= max_size() - this->_Myres / 2)
; 2208 : 			_Newres = this->_Myres
; 2209 : 				+ this->_Myres / 2;	// grow exponentially if possible
; 2210 : 		else
; 2211 : 			_Newres = max_size();	// settle for max_size()
; 2212 : 
; 2213 : 		_Elem *_Ptr;
; 2214 : 		_TRY_BEGIN
; 2215 : 			_Ptr = this->_Getal().allocate(_Newres + 1);
; 2216 : 		_CATCH_ALL
; 2217 : 			_Newres = _Newsize;	// allocation failed, undo roundup and retry
; 2218 : 			_TRY_BEGIN
; 2219 : 				_Ptr = this->_Getal().allocate(_Newres + 1);
; 2220 : 			_CATCH_ALL
; 2221 : 			_Tidy(true);	// failed again, discard storage and reraise
; 2222 : 			_RERAISE;
; 2223 : 			_CATCH_END
; 2224 : 		_CATCH_END
; 2225 : 
; 2226 : 		if (0 < _Oldlen)
; 2227 : 			_Traits::copy(_Ptr, this->_Myptr(),
; 2228 : 				_Oldlen);	// copy existing elements
; 2229 : 		_Tidy(true);
; 2230 : 		this->_Getal().construct(&this->_Bx._Ptr, _Ptr);
; 2231 : 		this->_Myres = _Newres;
; 2232 : 		_Eos(_Oldlen);
; 2233 : 		}
; 2234 : 
; 2235 : 	void _Eos(size_type _Newsize)
; 2236 : 		{	// set new length and null terminator
; 2237 : 		_Traits::assign(this->_Myptr()[this->_Mysize = _Newsize], _Elem());

  001e3	c7 44 24 70 00
	00 00 00	 mov	 DWORD PTR _kCreateData$2[esp+240], 0
; File c:\program files (x86)\microsoft visual studio 12.0\vc\include\iosfwd

; 564  : 		_Left = _Right;

  001eb	c6 44 24 60 00	 mov	 BYTE PTR _kCreateData$2[esp+224], 0
; File d:\metin2\metin2\client_source_clean\client_source_clean\source\userinterface\pythoncharactermodule.cpp

; 103  : 	else

  001f0	eb 0f		 jmp	 SHORT $LN1@chrCreateI
$LN6@chrCreateI:

; 104  : 	{
; 105  : 		CPythonCharacterManager::Instance().RegisterInstance(iVirtualID);

  001f2	ff 74 24 10	 push	 DWORD PTR _iVirtualID$[esp+148]
  001f6	8b 0d 00 00 00
	00		 mov	 ecx, DWORD PTR ?ms_singleton@?$CSingleton@VCPythonCharacterManager@@@@0PAVCPythonCharacterManager@@A ; CSingleton<CPythonCharacterManager>::ms_singleton
  001fc	e8 00 00 00 00	 call	 ?RegisterInstance@CPythonCharacterManager@@QAEPAVCInstanceBase@@K@Z ; CPythonCharacterManager::RegisterInstance
$LN1@chrCreateI:

; 106  : 	}
; 107  : 
; 108  : 	return Py_BuildNone();

  00201	e8 00 00 00 00	 call	 ?Py_BuildNone@@YAPAU_object@@XZ ; Py_BuildNone
$LN8@chrCreateI:

; 109  : }

  00206	8b 8c 24 88 00
	00 00		 mov	 ecx, DWORD PTR __$EHRec$[esp+148]
  0020d	64 89 0d 00 00
	00 00		 mov	 DWORD PTR fs:0, ecx
  00214	59		 pop	 ecx
  00215	5f		 pop	 edi
  00216	5e		 pop	 esi
  00217	5b		 pop	 ebx
  00218	8b 4c 24 70	 mov	 ecx, DWORD PTR __$ArrayPad$[esp+132]
  0021c	33 cc		 xor	 ecx, esp
  0021e	e8 00 00 00 00	 call	 @__security_check_cookie@4
  00223	8b e5		 mov	 esp, ebp
  00225	5d		 pop	 ebp
  00226	c3		 ret	 0
_TEXT	ENDS
;	COMDAT text$x
text$x	SEGMENT
__unwindfunclet$?chrCreateInstance@@YAPAU_object@@PAU1@0@Z$0:
  00000	8d 4d 80	 lea	 ecx, DWORD PTR _kCreateData$2[ebp]
  00003	e9 00 00 00 00	 jmp	 ??1SCreateData@CInstanceBase@@QAE@XZ
__ehhandler$?chrCreateInstance@@YAPAU_object@@PAU1@0@Z:
  00008	8b 54 24 08	 mov	 edx, DWORD PTR [esp+8]
  0000c	8d 82 7c ff ff
	ff		 lea	 eax, DWORD PTR [edx-132]
  00012	8b 8a 78 ff ff
	ff		 mov	 ecx, DWORD PTR [edx-136]
  00018	33 c8		 xor	 ecx, eax
  0001a	e8 00 00 00 00	 call	 @__security_check_cookie@4
  0001f	83 c0 0c	 add	 eax, 12			; 0000000cH
  00022	8b 4a f8	 mov	 ecx, DWORD PTR [edx-8]
  00025	33 c8		 xor	 ecx, eax
  00027	e8 00 00 00 00	 call	 @__security_check_cookie@4
  0002c	b8 00 00 00 00	 mov	 eax, OFFSET __ehfuncinfo$?chrCreateInstance@@YAPAU_object@@PAU1@0@Z
  00031	e9 00 00 00 00	 jmp	 ___CxxFrameHandler3
text$x	ENDS
?chrCreateInstance@@YAPAU_object@@PAU1@0@Z ENDP		; chrCreateInstance
; Function compile flags: /Ogtp
; File d:\metin2\metin2\client_source_clean\client_source_clean\source\userinterface\pythoncharactermodule.cpp
;	COMDAT ?chrDeleteInstance@@YAPAU_object@@PAU1@0@Z
_TEXT	SEGMENT
_iVirtualID$ = -4					; size = 4
_poSelf$ = 8						; size = 4
_poArgs$ = 12						; size = 4
?chrDeleteInstance@@YAPAU_object@@PAU1@0@Z PROC		; chrDeleteInstance, COMDAT

; 112  : {

  00000	55		 push	 ebp
  00001	8b ec		 mov	 ebp, esp
  00003	51		 push	 ecx

; 113  : 	int iVirtualID;
; 114  : 	if (!PyTuple_GetInteger(poArgs, 0, &iVirtualID))

  00004	8d 45 fc	 lea	 eax, DWORD PTR _iVirtualID$[ebp]
  00007	50		 push	 eax
  00008	6a 00		 push	 0
  0000a	ff 75 0c	 push	 DWORD PTR _poArgs$[ebp]
  0000d	e8 00 00 00 00	 call	 ?PyTuple_GetInteger@@YA_NPAU_object@@HPAH@Z ; PyTuple_GetInteger
  00012	83 c4 0c	 add	 esp, 12			; 0000000cH
  00015	84 c0		 test	 al, al
  00017	75 0e		 jne	 SHORT $LN1@chrDeleteI

; 115  : 		return Py_BuildException();

  00019	6a 00		 push	 0
  0001b	e8 00 00 00 00	 call	 ?Py_BuildException@@YAPAU_object@@PBDZZ ; Py_BuildException
  00020	83 c4 04	 add	 esp, 4

; 119  : }

  00023	8b e5		 mov	 esp, ebp
  00025	5d		 pop	 ebp
  00026	c3		 ret	 0
$LN1@chrDeleteI:

; 116  : 
; 117  : 	CPythonCharacterManager::Instance().DeleteInstance(iVirtualID);

  00027	ff 75 fc	 push	 DWORD PTR _iVirtualID$[ebp]
  0002a	8b 0d 00 00 00
	00		 mov	 ecx, DWORD PTR ?ms_singleton@?$CSingleton@VCPythonCharacterManager@@@@0PAVCPythonCharacterManager@@A ; CSingleton<CPythonCharacterManager>::ms_singleton
  00030	e8 00 00 00 00	 call	 ?DeleteInstance@CPythonCharacterManager@@QAEXK@Z ; CPythonCharacterManager::DeleteInstance

; 118  : 	return Py_BuildNone();

  00035	e8 00 00 00 00	 call	 ?Py_BuildNone@@YAPAU_object@@XZ ; Py_BuildNone

; 119  : }

  0003a	8b e5		 mov	 esp, ebp
  0003c	5d		 pop	 ebp
  0003d	c3		 ret	 0
?chrDeleteInstance@@YAPAU_object@@PAU1@0@Z ENDP		; chrDeleteInstance
_TEXT	ENDS
; Function compile flags: /Ogtp
; File d:\metin2\metin2\client_source_clean\client_source_clean\source\userinterface\pythoncharactermodule.cpp
;	COMDAT ?chrDeleteInstanceByFade@@YAPAU_object@@PAU1@0@Z
_TEXT	SEGMENT
_iVirtualID$ = -4					; size = 4
_poSelf$ = 8						; size = 4
_poArgs$ = 12						; size = 4
?chrDeleteInstanceByFade@@YAPAU_object@@PAU1@0@Z PROC	; chrDeleteInstanceByFade, COMDAT

; 122  : {

  00000	55		 push	 ebp
  00001	8b ec		 mov	 ebp, esp
  00003	51		 push	 ecx

; 123  : 	int iVirtualID;
; 124  : 	if (!PyTuple_GetInteger(poArgs, 0, &iVirtualID))

  00004	8d 45 fc	 lea	 eax, DWORD PTR _iVirtualID$[ebp]
  00007	50		 push	 eax
  00008	6a 00		 push	 0
  0000a	ff 75 0c	 push	 DWORD PTR _poArgs$[ebp]
  0000d	e8 00 00 00 00	 call	 ?PyTuple_GetInteger@@YA_NPAU_object@@HPAH@Z ; PyTuple_GetInteger
  00012	83 c4 0c	 add	 esp, 12			; 0000000cH
  00015	84 c0		 test	 al, al
  00017	75 0e		 jne	 SHORT $LN1@chrDeleteI

; 125  : 		return Py_BuildException();

  00019	6a 00		 push	 0
  0001b	e8 00 00 00 00	 call	 ?Py_BuildException@@YAPAU_object@@PBDZZ ; Py_BuildException
  00020	83 c4 04	 add	 esp, 4

; 129  : }

  00023	8b e5		 mov	 esp, ebp
  00025	5d		 pop	 ebp
  00026	c3		 ret	 0
$LN1@chrDeleteI:

; 126  : 
; 127  : 	CPythonCharacterManager::Instance().DeleteInstanceByFade(iVirtualID);

  00027	ff 75 fc	 push	 DWORD PTR _iVirtualID$[ebp]
  0002a	8b 0d 00 00 00
	00		 mov	 ecx, DWORD PTR ?ms_singleton@?$CSingleton@VCPythonCharacterManager@@@@0PAVCPythonCharacterManager@@A ; CSingleton<CPythonCharacterManager>::ms_singleton
  00030	e8 00 00 00 00	 call	 ?DeleteInstanceByFade@CPythonCharacterManager@@QAEXK@Z ; CPythonCharacterManager::DeleteInstanceByFade

; 128  : 	return Py_BuildNone();

  00035	e8 00 00 00 00	 call	 ?Py_BuildNone@@YAPAU_object@@XZ ; Py_BuildNone

; 129  : }

  0003a	8b e5		 mov	 esp, ebp
  0003c	5d		 pop	 ebp
  0003d	c3		 ret	 0
?chrDeleteInstanceByFade@@YAPAU_object@@PAU1@0@Z ENDP	; chrDeleteInstanceByFade
_TEXT	ENDS
; Function compile flags: /Ogtp
; File d:\metin2\metin2\client_source_clean\client_source_clean\source\userinterface\pythoncharactermodule.cpp
;	COMDAT ?chrSelectInstance@@YAPAU_object@@PAU1@0@Z
_TEXT	SEGMENT
_iVirtualID$ = -4					; size = 4
_poSelf$ = 8						; size = 4
_poArgs$ = 12						; size = 4
?chrSelectInstance@@YAPAU_object@@PAU1@0@Z PROC		; chrSelectInstance, COMDAT

; 132  : {

  00000	55		 push	 ebp
  00001	8b ec		 mov	 ebp, esp
  00003	51		 push	 ecx

; 133  : 	int iVirtualID;
; 134  : 	if (!PyTuple_GetInteger(poArgs, 0, &iVirtualID))

  00004	8d 45 fc	 lea	 eax, DWORD PTR _iVirtualID$[ebp]
  00007	50		 push	 eax
  00008	6a 00		 push	 0
  0000a	ff 75 0c	 push	 DWORD PTR _poArgs$[ebp]
  0000d	e8 00 00 00 00	 call	 ?PyTuple_GetInteger@@YA_NPAU_object@@HPAH@Z ; PyTuple_GetInteger
  00012	83 c4 0c	 add	 esp, 12			; 0000000cH
  00015	84 c0		 test	 al, al
  00017	75 0e		 jne	 SHORT $LN1@chrSelectI

; 135  : 		return Py_BuildException();

  00019	6a 00		 push	 0
  0001b	e8 00 00 00 00	 call	 ?Py_BuildException@@YAPAU_object@@PBDZZ ; Py_BuildException
  00020	83 c4 04	 add	 esp, 4

; 139  : }

  00023	8b e5		 mov	 esp, ebp
  00025	5d		 pop	 ebp
  00026	c3		 ret	 0
$LN1@chrSelectI:

; 136  : 
; 137  : 	CPythonCharacterManager::Instance().SelectInstance(iVirtualID);

  00027	ff 75 fc	 push	 DWORD PTR _iVirtualID$[ebp]
  0002a	8b 0d 00 00 00
	00		 mov	 ecx, DWORD PTR ?ms_singleton@?$CSingleton@VCPythonCharacterManager@@@@0PAVCPythonCharacterManager@@A ; CSingleton<CPythonCharacterManager>::ms_singleton
  00030	e8 00 00 00 00	 call	 ?SelectInstance@CPythonCharacterManager@@QAEXK@Z ; CPythonCharacterManager::SelectInstance

; 138  : 	return Py_BuildNone();

  00035	e8 00 00 00 00	 call	 ?Py_BuildNone@@YAPAU_object@@XZ ; Py_BuildNone

; 139  : }

  0003a	8b e5		 mov	 esp, ebp
  0003c	5d		 pop	 ebp
  0003d	c3		 ret	 0
?chrSelectInstance@@YAPAU_object@@PAU1@0@Z ENDP		; chrSelectInstance
_TEXT	ENDS
; Function compile flags: /Ogtp
; File d:\metin2\metin2\client_source_clean\client_source_clean\source\userinterface\pythoncharactermodule.cpp
;	COMDAT ?chrHasInstance@@YAPAU_object@@PAU1@0@Z
_TEXT	SEGMENT
_iVirtualID$ = -4					; size = 4
_poSelf$ = 8						; size = 4
_poArgs$ = 12						; size = 4
?chrHasInstance@@YAPAU_object@@PAU1@0@Z PROC		; chrHasInstance, COMDAT

; 142  : {

  00000	55		 push	 ebp
  00001	8b ec		 mov	 ebp, esp
  00003	51		 push	 ecx

; 143  : 	int iVirtualID;
; 144  : 	if (!PyTuple_GetInteger(poArgs, 0, &iVirtualID))

  00004	8d 45 fc	 lea	 eax, DWORD PTR _iVirtualID$[ebp]
  00007	50		 push	 eax
  00008	6a 00		 push	 0
  0000a	ff 75 0c	 push	 DWORD PTR _poArgs$[ebp]
  0000d	e8 00 00 00 00	 call	 ?PyTuple_GetInteger@@YA_NPAU_object@@HPAH@Z ; PyTuple_GetInteger
  00012	83 c4 0c	 add	 esp, 12			; 0000000cH
  00015	84 c0		 test	 al, al
  00017	75 0e		 jne	 SHORT $LN1@chrHasInst

; 145  : 		return Py_BuildException();

  00019	6a 00		 push	 0
  0001b	e8 00 00 00 00	 call	 ?Py_BuildException@@YAPAU_object@@PBDZZ ; Py_BuildException
  00020	83 c4 04	 add	 esp, 4

; 149  : }

  00023	8b e5		 mov	 esp, ebp
  00025	5d		 pop	 ebp
  00026	c3		 ret	 0
$LN1@chrHasInst:

; 146  : 
; 147  : 	bool bFlag = CPythonCharacterManager::Instance().GetInstancePtr(iVirtualID) ? TRUE : FALSE;

  00027	8b 0d 00 00 00
	00		 mov	 ecx, DWORD PTR ?ms_singleton@?$CSingleton@VCPythonCharacterManager@@@@0PAVCPythonCharacterManager@@A ; CSingleton<CPythonCharacterManager>::ms_singleton
  0002d	ff 75 fc	 push	 DWORD PTR _iVirtualID$[ebp]
  00030	83 c1 04	 add	 ecx, 4
  00033	8b 01		 mov	 eax, DWORD PTR [ecx]
  00035	ff 50 08	 call	 DWORD PTR [eax+8]
  00038	85 c0		 test	 eax, eax
  0003a	0f 95 c0	 setne	 al

; 148  : 	return Py_BuildValue("i", bFlag);

  0003d	0f b6 c0	 movzx	 eax, al
  00040	50		 push	 eax
  00041	68 00 00 00 00	 push	 OFFSET ??_C@_01KBJDNOO@i?$AA@
  00046	ff 15 00 00 00
	00		 call	 DWORD PTR __imp__Py_BuildValue
  0004c	83 c4 08	 add	 esp, 8

; 149  : }

  0004f	8b e5		 mov	 esp, ebp
  00051	5d		 pop	 ebp
  00052	c3		 ret	 0
?chrHasInstance@@YAPAU_object@@PAU1@0@Z ENDP		; chrHasInstance
_TEXT	ENDS
; Function compile flags: /Ogtp
; File d:\metin2\metin2\client_source_clean\client_source_clean\source\userinterface\pythoncharactermodule.cpp
;	COMDAT ?chrIsEnemy@@YAPAU_object@@PAU1@0@Z
_TEXT	SEGMENT
_iVirtualID$ = -4					; size = 4
_poSelf$ = 8						; size = 4
_poArgs$ = 12						; size = 4
?chrIsEnemy@@YAPAU_object@@PAU1@0@Z PROC		; chrIsEnemy, COMDAT

; 152  : {

  00000	55		 push	 ebp
  00001	8b ec		 mov	 ebp, esp
  00003	51		 push	 ecx

; 153  : 	int iVirtualID;
; 154  : 	if (!PyTuple_GetInteger(poArgs, 0, &iVirtualID))

  00004	8d 45 fc	 lea	 eax, DWORD PTR _iVirtualID$[ebp]
  00007	50		 push	 eax
  00008	6a 00		 push	 0
  0000a	ff 75 0c	 push	 DWORD PTR _poArgs$[ebp]
  0000d	e8 00 00 00 00	 call	 ?PyTuple_GetInteger@@YA_NPAU_object@@HPAH@Z ; PyTuple_GetInteger
  00012	83 c4 0c	 add	 esp, 12			; 0000000cH
  00015	84 c0		 test	 al, al
  00017	75 0e		 jne	 SHORT $LN2@chrIsEnemy

; 155  : 		return Py_BuildException();

  00019	6a 00		 push	 0
  0001b	e8 00 00 00 00	 call	 ?Py_BuildException@@YAPAU_object@@PBDZZ ; Py_BuildException
  00020	83 c4 04	 add	 esp, 4

; 162  : }

  00023	8b e5		 mov	 esp, ebp
  00025	5d		 pop	 ebp
  00026	c3		 ret	 0
$LN2@chrIsEnemy:

; 156  : 
; 157  : 	CInstanceBase * pInstance = CPythonCharacterManager::Instance().GetInstancePtr(iVirtualID);

  00027	8b 0d 00 00 00
	00		 mov	 ecx, DWORD PTR ?ms_singleton@?$CSingleton@VCPythonCharacterManager@@@@0PAVCPythonCharacterManager@@A ; CSingleton<CPythonCharacterManager>::ms_singleton
  0002d	ff 75 fc	 push	 DWORD PTR _iVirtualID$[ebp]
  00030	83 c1 04	 add	 ecx, 4
  00033	8b 01		 mov	 eax, DWORD PTR [ecx]
  00035	ff 50 08	 call	 DWORD PTR [eax+8]

; 158  : 	if (!pInstance)

  00038	85 c0		 test	 eax, eax
  0003a	75 13		 jne	 SHORT $LN1@chrIsEnemy

; 159  : 		return Py_BuildValue("i", 0);

  0003c	50		 push	 eax

; 160  : 
; 161  : 	return Py_BuildValue("i", pInstance->IsEnemy());

  0003d	68 00 00 00 00	 push	 OFFSET ??_C@_01KBJDNOO@i?$AA@
  00042	ff 15 00 00 00
	00		 call	 DWORD PTR __imp__Py_BuildValue
  00048	83 c4 08	 add	 esp, 8

; 162  : }

  0004b	8b e5		 mov	 esp, ebp
  0004d	5d		 pop	 ebp
  0004e	c3		 ret	 0
$LN1@chrIsEnemy:

; 160  : 
; 161  : 	return Py_BuildValue("i", pInstance->IsEnemy());

  0004f	8b c8		 mov	 ecx, eax
  00051	e8 00 00 00 00	 call	 ?IsEnemy@CInstanceBase@@QAEHXZ ; CInstanceBase::IsEnemy
  00056	50		 push	 eax
  00057	68 00 00 00 00	 push	 OFFSET ??_C@_01KBJDNOO@i?$AA@
  0005c	ff 15 00 00 00
	00		 call	 DWORD PTR __imp__Py_BuildValue
  00062	83 c4 08	 add	 esp, 8

; 162  : }

  00065	8b e5		 mov	 esp, ebp
  00067	5d		 pop	 ebp
  00068	c3		 ret	 0
?chrIsEnemy@@YAPAU_object@@PAU1@0@Z ENDP		; chrIsEnemy
_TEXT	ENDS
; Function compile flags: /Ogtp
; File d:\metin2\metin2\client_source_clean\client_source_clean\source\userinterface\pythoncharactermodule.cpp
;	COMDAT ?chrIsNPC@@YAPAU_object@@PAU1@0@Z
_TEXT	SEGMENT
_iVirtualID$ = -4					; size = 4
_poSelf$ = 8						; size = 4
_poArgs$ = 12						; size = 4
?chrIsNPC@@YAPAU_object@@PAU1@0@Z PROC			; chrIsNPC, COMDAT

; 165  : {

  00000	55		 push	 ebp
  00001	8b ec		 mov	 ebp, esp
  00003	51		 push	 ecx

; 166  : 	int iVirtualID;
; 167  : 	if (!PyTuple_GetInteger(poArgs, 0, &iVirtualID))

  00004	8d 45 fc	 lea	 eax, DWORD PTR _iVirtualID$[ebp]
  00007	50		 push	 eax
  00008	6a 00		 push	 0
  0000a	ff 75 0c	 push	 DWORD PTR _poArgs$[ebp]
  0000d	e8 00 00 00 00	 call	 ?PyTuple_GetInteger@@YA_NPAU_object@@HPAH@Z ; PyTuple_GetInteger
  00012	83 c4 0c	 add	 esp, 12			; 0000000cH
  00015	84 c0		 test	 al, al
  00017	75 0e		 jne	 SHORT $LN2@chrIsNPC

; 168  : 		return Py_BuildException();

  00019	6a 00		 push	 0
  0001b	e8 00 00 00 00	 call	 ?Py_BuildException@@YAPAU_object@@PBDZZ ; Py_BuildException
  00020	83 c4 04	 add	 esp, 4

; 175  : }

  00023	8b e5		 mov	 esp, ebp
  00025	5d		 pop	 ebp
  00026	c3		 ret	 0
$LN2@chrIsNPC:

; 169  : 
; 170  : 	CInstanceBase * pInstance = CPythonCharacterManager::Instance().GetInstancePtr(iVirtualID);

  00027	8b 0d 00 00 00
	00		 mov	 ecx, DWORD PTR ?ms_singleton@?$CSingleton@VCPythonCharacterManager@@@@0PAVCPythonCharacterManager@@A ; CSingleton<CPythonCharacterManager>::ms_singleton
  0002d	ff 75 fc	 push	 DWORD PTR _iVirtualID$[ebp]
  00030	83 c1 04	 add	 ecx, 4
  00033	8b 01		 mov	 eax, DWORD PTR [ecx]
  00035	ff 50 08	 call	 DWORD PTR [eax+8]

; 171  : 	if (!pInstance)

  00038	85 c0		 test	 eax, eax
  0003a	75 13		 jne	 SHORT $LN1@chrIsNPC

; 172  : 		return Py_BuildValue("i", 0);

  0003c	50		 push	 eax

; 173  : 
; 174  : 	return Py_BuildValue("i", pInstance->IsNPC());

  0003d	68 00 00 00 00	 push	 OFFSET ??_C@_01KBJDNOO@i?$AA@
  00042	ff 15 00 00 00
	00		 call	 DWORD PTR __imp__Py_BuildValue
  00048	83 c4 08	 add	 esp, 8

; 175  : }

  0004b	8b e5		 mov	 esp, ebp
  0004d	5d		 pop	 ebp
  0004e	c3		 ret	 0
$LN1@chrIsNPC:

; 173  : 
; 174  : 	return Py_BuildValue("i", pInstance->IsNPC());

  0004f	8b c8		 mov	 ecx, eax
  00051	e8 00 00 00 00	 call	 ?IsNPC@CInstanceBase@@QAEHXZ ; CInstanceBase::IsNPC
  00056	50		 push	 eax
  00057	68 00 00 00 00	 push	 OFFSET ??_C@_01KBJDNOO@i?$AA@
  0005c	ff 15 00 00 00
	00		 call	 DWORD PTR __imp__Py_BuildValue
  00062	83 c4 08	 add	 esp, 8

; 175  : }

  00065	8b e5		 mov	 esp, ebp
  00067	5d		 pop	 ebp
  00068	c3		 ret	 0
?chrIsNPC@@YAPAU_object@@PAU1@0@Z ENDP			; chrIsNPC
_TEXT	ENDS
; Function compile flags: /Ogtp
; File d:\metin2\metin2\client_source_clean\client_source_clean\source\userinterface\pythoncharactermodule.cpp
;	COMDAT ?chrIsGameMaster@@YAPAU_object@@PAU1@0@Z
_TEXT	SEGMENT
_iVirtualID$ = -4					; size = 4
_poSelf$ = 8						; size = 4
_poArgs$ = 12						; size = 4
?chrIsGameMaster@@YAPAU_object@@PAU1@0@Z PROC		; chrIsGameMaster, COMDAT

; 178  : {

  00000	55		 push	 ebp
  00001	8b ec		 mov	 ebp, esp
  00003	51		 push	 ecx

; 179  : 	int iVirtualID;
; 180  : 	if (!PyTuple_GetInteger(poArgs, 0, &iVirtualID))

  00004	8d 45 fc	 lea	 eax, DWORD PTR _iVirtualID$[ebp]
  00007	50		 push	 eax
  00008	6a 00		 push	 0
  0000a	ff 75 0c	 push	 DWORD PTR _poArgs$[ebp]
  0000d	e8 00 00 00 00	 call	 ?PyTuple_GetInteger@@YA_NPAU_object@@HPAH@Z ; PyTuple_GetInteger
  00012	83 c4 0c	 add	 esp, 12			; 0000000cH
  00015	84 c0		 test	 al, al
  00017	75 0e		 jne	 SHORT $LN2@chrIsGameM

; 181  : 		return Py_BuildException();

  00019	6a 00		 push	 0
  0001b	e8 00 00 00 00	 call	 ?Py_BuildException@@YAPAU_object@@PBDZZ ; Py_BuildException
  00020	83 c4 04	 add	 esp, 4

; 188  : }

  00023	8b e5		 mov	 esp, ebp
  00025	5d		 pop	 ebp
  00026	c3		 ret	 0
$LN2@chrIsGameM:

; 182  : 
; 183  : 	CInstanceBase * pInstance = CPythonCharacterManager::Instance().GetInstancePtr(iVirtualID);

  00027	8b 0d 00 00 00
	00		 mov	 ecx, DWORD PTR ?ms_singleton@?$CSingleton@VCPythonCharacterManager@@@@0PAVCPythonCharacterManager@@A ; CSingleton<CPythonCharacterManager>::ms_singleton
  0002d	ff 75 fc	 push	 DWORD PTR _iVirtualID$[ebp]
  00030	83 c1 04	 add	 ecx, 4
  00033	8b 01		 mov	 eax, DWORD PTR [ecx]
  00035	ff 50 08	 call	 DWORD PTR [eax+8]

; 184  : 	if (!pInstance)

  00038	85 c0		 test	 eax, eax
  0003a	75 13		 jne	 SHORT $LN1@chrIsGameM

; 185  : 		return Py_BuildValue("i", 0);

  0003c	50		 push	 eax

; 186  : 
; 187  : 	return Py_BuildValue("i", pInstance->IsGameMaster());

  0003d	68 00 00 00 00	 push	 OFFSET ??_C@_01KBJDNOO@i?$AA@
  00042	ff 15 00 00 00
	00		 call	 DWORD PTR __imp__Py_BuildValue
  00048	83 c4 08	 add	 esp, 8

; 188  : }

  0004b	8b e5		 mov	 esp, ebp
  0004d	5d		 pop	 ebp
  0004e	c3		 ret	 0
$LN1@chrIsGameM:

; 186  : 
; 187  : 	return Py_BuildValue("i", pInstance->IsGameMaster());

  0004f	8b c8		 mov	 ecx, eax
  00051	e8 00 00 00 00	 call	 ?IsGameMaster@CInstanceBase@@QAEHXZ ; CInstanceBase::IsGameMaster
  00056	50		 push	 eax
  00057	68 00 00 00 00	 push	 OFFSET ??_C@_01KBJDNOO@i?$AA@
  0005c	ff 15 00 00 00
	00		 call	 DWORD PTR __imp__Py_BuildValue
  00062	83 c4 08	 add	 esp, 8

; 188  : }

  00065	8b e5		 mov	 esp, ebp
  00067	5d		 pop	 ebp
  00068	c3		 ret	 0
?chrIsGameMaster@@YAPAU_object@@PAU1@0@Z ENDP		; chrIsGameMaster
_TEXT	ENDS
; Function compile flags: /Ogtp
; File d:\metin2\metin2\client_source_clean\client_source_clean\source\userinterface\pythoncharactermodule.cpp
;	COMDAT ?chrIsPartyMember@@YAPAU_object@@PAU1@0@Z
_TEXT	SEGMENT
_iVirtualID$ = -4					; size = 4
_poSelf$ = 8						; size = 4
_poArgs$ = 12						; size = 4
?chrIsPartyMember@@YAPAU_object@@PAU1@0@Z PROC		; chrIsPartyMember, COMDAT

; 191  : {

  00000	55		 push	 ebp
  00001	8b ec		 mov	 ebp, esp
  00003	51		 push	 ecx

; 192  : 	int iVirtualID;
; 193  : 	if (!PyTuple_GetInteger(poArgs, 0, &iVirtualID))

  00004	8d 45 fc	 lea	 eax, DWORD PTR _iVirtualID$[ebp]
  00007	50		 push	 eax
  00008	6a 00		 push	 0
  0000a	ff 75 0c	 push	 DWORD PTR _poArgs$[ebp]
  0000d	e8 00 00 00 00	 call	 ?PyTuple_GetInteger@@YA_NPAU_object@@HPAH@Z ; PyTuple_GetInteger
  00012	83 c4 0c	 add	 esp, 12			; 0000000cH
  00015	84 c0		 test	 al, al
  00017	75 0e		 jne	 SHORT $LN2@chrIsParty

; 194  : 		return Py_BuildException();

  00019	6a 00		 push	 0
  0001b	e8 00 00 00 00	 call	 ?Py_BuildException@@YAPAU_object@@PBDZZ ; Py_BuildException
  00020	83 c4 04	 add	 esp, 4

; 201  : }

  00023	8b e5		 mov	 esp, ebp
  00025	5d		 pop	 ebp
  00026	c3		 ret	 0
$LN2@chrIsParty:

; 195  : 
; 196  : 	CInstanceBase * pInstance = CPythonCharacterManager::Instance().GetInstancePtr(iVirtualID);

  00027	8b 0d 00 00 00
	00		 mov	 ecx, DWORD PTR ?ms_singleton@?$CSingleton@VCPythonCharacterManager@@@@0PAVCPythonCharacterManager@@A ; CSingleton<CPythonCharacterManager>::ms_singleton
  0002d	ff 75 fc	 push	 DWORD PTR _iVirtualID$[ebp]
  00030	83 c1 04	 add	 ecx, 4
  00033	8b 01		 mov	 eax, DWORD PTR [ecx]
  00035	ff 50 08	 call	 DWORD PTR [eax+8]

; 197  : 	if (!pInstance)

  00038	85 c0		 test	 eax, eax
  0003a	75 13		 jne	 SHORT $LN1@chrIsParty

; 198  : 		return Py_BuildValue("i", 0);

  0003c	50		 push	 eax

; 199  : 
; 200  : 	return Py_BuildValue("i", pInstance->IsPartyMember());

  0003d	68 00 00 00 00	 push	 OFFSET ??_C@_01KBJDNOO@i?$AA@
  00042	ff 15 00 00 00
	00		 call	 DWORD PTR __imp__Py_BuildValue
  00048	83 c4 08	 add	 esp, 8

; 201  : }

  0004b	8b e5		 mov	 esp, ebp
  0004d	5d		 pop	 ebp
  0004e	c3		 ret	 0
$LN1@chrIsParty:

; 199  : 
; 200  : 	return Py_BuildValue("i", pInstance->IsPartyMember());

  0004f	8b c8		 mov	 ecx, eax
  00051	e8 00 00 00 00	 call	 ?IsPartyMember@CInstanceBase@@QAE_NXZ ; CInstanceBase::IsPartyMember
  00056	0f b6 c0	 movzx	 eax, al
  00059	50		 push	 eax
  0005a	68 00 00 00 00	 push	 OFFSET ??_C@_01KBJDNOO@i?$AA@
  0005f	ff 15 00 00 00
	00		 call	 DWORD PTR __imp__Py_BuildValue
  00065	83 c4 08	 add	 esp, 8

; 201  : }

  00068	8b e5		 mov	 esp, ebp
  0006a	5d		 pop	 ebp
  0006b	c3		 ret	 0
?chrIsPartyMember@@YAPAU_object@@PAU1@0@Z ENDP		; chrIsPartyMember
_TEXT	ENDS
; Function compile flags: /Ogtp
; File d:\metin2\metin2\client_source_clean\client_source_clean\source\userinterface\pythoncharactermodule.cpp
;	COMDAT ?chrSelect@@YAPAU_object@@PAU1@0@Z
_TEXT	SEGMENT
$T1 = -20						; size = 16
_iVirtualID$ = -4					; size = 4
_poSelf$ = 8						; size = 4
_poArgs$ = 12						; size = 4
?chrSelect@@YAPAU_object@@PAU1@0@Z PROC			; chrSelect, COMDAT

; 204  : {

  00000	55		 push	 ebp
  00001	8b ec		 mov	 ebp, esp
  00003	83 ec 14	 sub	 esp, 20			; 00000014H

; 205  : 	int iVirtualID;
; 206  : 	if (!PyTuple_GetInteger(poArgs, 0, &iVirtualID))

  00006	8d 45 fc	 lea	 eax, DWORD PTR _iVirtualID$[ebp]
  00009	50		 push	 eax
  0000a	6a 00		 push	 0
  0000c	ff 75 0c	 push	 DWORD PTR _poArgs$[ebp]
  0000f	e8 00 00 00 00	 call	 ?PyTuple_GetInteger@@YA_NPAU_object@@HPAH@Z ; PyTuple_GetInteger
  00014	83 c4 0c	 add	 esp, 12			; 0000000cH
  00017	84 c0		 test	 al, al
  00019	75 0e		 jne	 SHORT $LN6@chrSelect

; 207  : 		return Py_BuildException();

  0001b	6a 00		 push	 0
  0001d	e8 00 00 00 00	 call	 ?Py_BuildException@@YAPAU_object@@PBDZZ ; Py_BuildException
  00022	83 c4 04	 add	 esp, 4

; 228  : }

  00025	8b e5		 mov	 esp, ebp
  00027	5d		 pop	 ebp
  00028	c3		 ret	 0
$LN6@chrSelect:

; 208  : 
; 209  : 	CInstanceBase * pkInst = CPythonCharacterManager::Instance().GetInstancePtr(iVirtualID);

  00029	8b 0d 00 00 00
	00		 mov	 ecx, DWORD PTR ?ms_singleton@?$CSingleton@VCPythonCharacterManager@@@@0PAVCPythonCharacterManager@@A ; CSingleton<CPythonCharacterManager>::ms_singleton
  0002f	83 c1 04	 add	 ecx, 4
  00032	56		 push	 esi
  00033	ff 75 fc	 push	 DWORD PTR _iVirtualID$[ebp]
  00036	8b 01		 mov	 eax, DWORD PTR [ecx]
  00038	ff 50 08	 call	 DWORD PTR [eax+8]
  0003b	8b f0		 mov	 esi, eax

; 210  : 	
; 211  : 	if (!pkInst)

  0003d	85 f6		 test	 esi, esi
  0003f	74 38		 je	 SHORT $LN3@chrSelect

; 212  : 		return Py_BuildNone();
; 213  : 
; 214  : 	switch (CPythonNonPlayer::Instance().GetEventType(pkInst->GetVirtualNumber()))

  00041	8b ce		 mov	 ecx, esi
  00043	e8 00 00 00 00	 call	 ?GetVirtualNumber@CInstanceBase@@QAEKXZ ; CInstanceBase::GetVirtualNumber
  00048	8b 0d 00 00 00
	00		 mov	 ecx, DWORD PTR ?ms_singleton@?$CSingleton@VCPythonNonPlayer@@@@0PAVCPythonNonPlayer@@A ; CSingleton<CPythonNonPlayer>::ms_singleton
  0004e	50		 push	 eax
  0004f	e8 00 00 00 00	 call	 ?GetEventType@CPythonNonPlayer@@QAEEK@Z ; CPythonNonPlayer::GetEventType
  00054	0f b6 c0	 movzx	 eax, al
  00057	83 e8 02	 sub	 eax, 2
  0005a	75 1d		 jne	 SHORT $LN3@chrSelect

; 215  : 	{
; 216  : 		case CPythonNonPlayer::ON_CLICK_EVENT_SHOP:
; 217  : 			pkInst->SetAddRenderMode();

  0005c	8b ce		 mov	 ecx, esi
  0005e	e8 00 00 00 00	 call	 ?SetAddRenderMode@CInstanceBase@@QAEXXZ ; CInstanceBase::SetAddRenderMode
  00063	0f 28 05 00 00
	00 00		 movaps	 xmm0, XMMWORD PTR __xmm@3f800000000000003e99999a00000000

; 218  : 			pkInst->SetAddColor(D3DXCOLOR(0.0f, 0.3f, 0.0f, 1.0f));

  0006a	8d 45 ec	 lea	 eax, DWORD PTR $T1[ebp]
  0006d	50		 push	 eax
  0006e	8b ce		 mov	 ecx, esi
  00070	0f 11 45 ec	 movups	 XMMWORD PTR $T1[ebp], xmm0
  00074	e8 00 00 00 00	 call	 ?SetAddColor@CInstanceBase@@QAEXABUD3DXCOLOR@@@Z ; CInstanceBase::SetAddColor
$LN3@chrSelect:

; 219  : 			break;
; 220  : 
; 221  : 		default:
; 222  : 			// NOTE:           [cronan 040226]
; 223  : 			//pkInst->SetAddColor(D3DXCOLOR(0.3f, 0.0f, 0.0f, 1.0f));
; 224  : 			break;
; 225  : 	}
; 226  : 
; 227  : 	return Py_BuildNone();

  00079	e8 00 00 00 00	 call	 ?Py_BuildNone@@YAPAU_object@@XZ ; Py_BuildNone
  0007e	5e		 pop	 esi

; 228  : }

  0007f	8b e5		 mov	 esp, ebp
  00081	5d		 pop	 ebp
  00082	c3		 ret	 0
?chrSelect@@YAPAU_object@@PAU1@0@Z ENDP			; chrSelect
_TEXT	ENDS
; Function compile flags: /Ogtp
; File d:\metin2\metin2\client_source_clean\client_source_clean\source\userinterface\pythoncharactermodule.cpp
; File d:\metin2\metin2\client_source_clean\client_source_clean\extern\include\d3dx8math.inl
; File d:\metin2\metin2\client_source_clean\client_source_clean\source\userinterface\pythoncharactermodule.cpp
; File d:\metin2\metin2\client_source_clean\client_source_clean\extern\include\d3dx8math.inl
; File d:\metin2\metin2\client_source_clean\client_source_clean\source\userinterface\pythoncharactermodule.cpp
; File d:\metin2\metin2\client_source_clean\client_source_clean\extern\include\d3dx8math.inl
; File d:\metin2\metin2\client_source_clean\client_source_clean\source\userinterface\pythoncharactermodule.cpp
; File d:\metin2\metin2\client_source_clean\client_source_clean\extern\include\d3dx8math.inl
; File d:\metin2\metin2\client_source_clean\client_source_clean\source\userinterface\pythoncharactermodule.cpp
;	COMDAT ?chrSetAddRenderMode@@YAPAU_object@@PAU1@0@Z
_TEXT	SEGMENT
$T1 = -32						; size = 16
_fb$ = -16						; size = 4
_fg$ = -12						; size = 4
_fr$ = -8						; size = 4
_iVirtualID$ = -4					; size = 4
_poSelf$ = 8						; size = 4
_poArgs$ = 12						; size = 4
?chrSetAddRenderMode@@YAPAU_object@@PAU1@0@Z PROC	; chrSetAddRenderMode, COMDAT

; 231  : {

  00000	55		 push	 ebp
  00001	8b ec		 mov	 ebp, esp
  00003	83 ec 20	 sub	 esp, 32			; 00000020H

; 232  : 	int iVirtualID;
; 233  : 	if (!PyTuple_GetInteger(poArgs, 0, &iVirtualID))

  00006	8d 45 fc	 lea	 eax, DWORD PTR _iVirtualID$[ebp]
  00009	56		 push	 esi
  0000a	8b 75 0c	 mov	 esi, DWORD PTR _poArgs$[ebp]
  0000d	50		 push	 eax
  0000e	6a 00		 push	 0
  00010	56		 push	 esi
  00011	e8 00 00 00 00	 call	 ?PyTuple_GetInteger@@YA_NPAU_object@@HPAH@Z ; PyTuple_GetInteger
  00016	83 c4 0c	 add	 esp, 12			; 0000000cH
  00019	84 c0		 test	 al, al
  0001b	75 0f		 jne	 SHORT $LN5@chrSetAddR
$LN13@chrSetAddR:

; 234  : 		return Py_BuildException();

  0001d	6a 00		 push	 0
  0001f	e8 00 00 00 00	 call	 ?Py_BuildException@@YAPAU_object@@PBDZZ ; Py_BuildException
  00024	83 c4 04	 add	 esp, 4
  00027	5e		 pop	 esi

; 255  : }

  00028	8b e5		 mov	 esp, ebp
  0002a	5d		 pop	 ebp
  0002b	c3		 ret	 0
$LN5@chrSetAddR:

; 235  : 
; 236  : 	float fr;
; 237  : 	if (!PyTuple_GetFloat(poArgs, 1, &fr))

  0002c	8d 45 f8	 lea	 eax, DWORD PTR _fr$[ebp]
  0002f	50		 push	 eax
  00030	6a 01		 push	 1
  00032	56		 push	 esi
  00033	e8 00 00 00 00	 call	 ?PyTuple_GetFloat@@YA_NPAU_object@@HPAM@Z ; PyTuple_GetFloat
  00038	83 c4 0c	 add	 esp, 12			; 0000000cH
  0003b	84 c0		 test	 al, al
  0003d	74 de		 je	 SHORT $LN13@chrSetAddR

; 238  : 		return Py_BuildException();
; 239  : 	float fg;
; 240  : 	if (!PyTuple_GetFloat(poArgs, 2, &fg))

  0003f	8d 45 f4	 lea	 eax, DWORD PTR _fg$[ebp]
  00042	50		 push	 eax
  00043	6a 02		 push	 2
  00045	56		 push	 esi
  00046	e8 00 00 00 00	 call	 ?PyTuple_GetFloat@@YA_NPAU_object@@HPAM@Z ; PyTuple_GetFloat
  0004b	83 c4 0c	 add	 esp, 12			; 0000000cH
  0004e	84 c0		 test	 al, al
  00050	74 cb		 je	 SHORT $LN13@chrSetAddR

; 241  : 		return Py_BuildException();
; 242  : 	float fb;
; 243  : 	if (!PyTuple_GetFloat(poArgs, 3, &fb))

  00052	8d 45 f0	 lea	 eax, DWORD PTR _fb$[ebp]
  00055	50		 push	 eax
  00056	6a 03		 push	 3
  00058	56		 push	 esi
  00059	e8 00 00 00 00	 call	 ?PyTuple_GetFloat@@YA_NPAU_object@@HPAM@Z ; PyTuple_GetFloat
  0005e	83 c4 0c	 add	 esp, 12			; 0000000cH
  00061	84 c0		 test	 al, al
  00063	74 b8		 je	 SHORT $LN13@chrSetAddR

; 244  : 		return Py_BuildException();
; 245  : 
; 246  : 	CInstanceBase * pkInst = CPythonCharacterManager::Instance().GetInstancePtr(iVirtualID);

  00065	8b 0d 00 00 00
	00		 mov	 ecx, DWORD PTR ?ms_singleton@?$CSingleton@VCPythonCharacterManager@@@@0PAVCPythonCharacterManager@@A ; CSingleton<CPythonCharacterManager>::ms_singleton
  0006b	ff 75 fc	 push	 DWORD PTR _iVirtualID$[ebp]
  0006e	83 c1 04	 add	 ecx, 4
  00071	8b 01		 mov	 eax, DWORD PTR [ecx]
  00073	ff 50 08	 call	 DWORD PTR [eax+8]
  00076	8b f0		 mov	 esi, eax

; 247  : 
; 248  : 	if (!pkInst)

  00078	85 f6		 test	 esi, esi
  0007a	74 37		 je	 SHORT $LN12@chrSetAddR

; 249  : 		return Py_BuildNone();
; 250  : 
; 251  : 	pkInst->SetAddRenderMode();

  0007c	8b ce		 mov	 ecx, esi
  0007e	e8 00 00 00 00	 call	 ?SetAddRenderMode@CInstanceBase@@QAEXXZ ; CInstanceBase::SetAddRenderMode
; File d:\metin2\metin2\client_source_clean\client_source_clean\extern\include\d3dx8math.inl

; 920  :     r = fr;

  00083	f3 0f 10 45 f8	 movss	 xmm0, DWORD PTR _fr$[ebp]
; File d:\metin2\metin2\client_source_clean\client_source_clean\source\userinterface\pythoncharactermodule.cpp

; 252  : 	pkInst->SetAddColor(D3DXCOLOR(fr, fg, fb, 1.0f));

  00088	8d 45 e0	 lea	 eax, DWORD PTR $T1[ebp]
; File d:\metin2\metin2\client_source_clean\client_source_clean\extern\include\d3dx8math.inl

; 920  :     r = fr;

  0008b	f3 0f 11 45 e0	 movss	 DWORD PTR $T1[ebp], xmm0
; File d:\metin2\metin2\client_source_clean\client_source_clean\source\userinterface\pythoncharactermodule.cpp

; 252  : 	pkInst->SetAddColor(D3DXCOLOR(fr, fg, fb, 1.0f));

  00090	8b ce		 mov	 ecx, esi
; File d:\metin2\metin2\client_source_clean\client_source_clean\extern\include\d3dx8math.inl

; 921  :     g = fg;

  00092	f3 0f 10 45 f4	 movss	 xmm0, DWORD PTR _fg$[ebp]
  00097	f3 0f 11 45 e4	 movss	 DWORD PTR $T1[ebp+4], xmm0

; 922  :     b = fb;

  0009c	f3 0f 10 45 f0	 movss	 xmm0, DWORD PTR _fb$[ebp]
; File d:\metin2\metin2\client_source_clean\client_source_clean\source\userinterface\pythoncharactermodule.cpp

; 252  : 	pkInst->SetAddColor(D3DXCOLOR(fr, fg, fb, 1.0f));

  000a1	50		 push	 eax
; File d:\metin2\metin2\client_source_clean\client_source_clean\extern\include\d3dx8math.inl

; 922  :     b = fb;

  000a2	f3 0f 11 45 e8	 movss	 DWORD PTR $T1[ebp+8], xmm0

; 923  :     a = fa;

  000a7	c7 45 ec 00 00
	80 3f		 mov	 DWORD PTR $T1[ebp+12], 1065353216 ; 3f800000H
; File d:\metin2\metin2\client_source_clean\client_source_clean\source\userinterface\pythoncharactermodule.cpp

; 252  : 	pkInst->SetAddColor(D3DXCOLOR(fr, fg, fb, 1.0f));

  000ae	e8 00 00 00 00	 call	 ?SetAddColor@CInstanceBase@@QAEXABUD3DXCOLOR@@@Z ; CInstanceBase::SetAddColor
$LN12@chrSetAddR:

; 253  : 
; 254  : 	return Py_BuildNone();

  000b3	e8 00 00 00 00	 call	 ?Py_BuildNone@@YAPAU_object@@XZ ; Py_BuildNone
  000b8	5e		 pop	 esi

; 255  : }

  000b9	8b e5		 mov	 esp, ebp
  000bb	5d		 pop	 ebp
  000bc	c3		 ret	 0
?chrSetAddRenderMode@@YAPAU_object@@PAU1@0@Z ENDP	; chrSetAddRenderMode
_TEXT	ENDS
; Function compile flags: /Ogtp
; File d:\metin2\metin2\client_source_clean\client_source_clean\source\userinterface\pythoncharactermodule.cpp
;	COMDAT ?chrSetBlendRenderMode@@YAPAU_object@@PAU1@0@Z
_TEXT	SEGMENT
_fAlpha$ = -8						; size = 4
_iVirtualID$ = -4					; size = 4
_poSelf$ = 8						; size = 4
_poArgs$ = 12						; size = 4
?chrSetBlendRenderMode@@YAPAU_object@@PAU1@0@Z PROC	; chrSetBlendRenderMode, COMDAT

; 258  : {

  00000	55		 push	 ebp
  00001	8b ec		 mov	 ebp, esp
  00003	83 ec 08	 sub	 esp, 8

; 259  : 	int iVirtualID;
; 260  : 	if (!PyTuple_GetInteger(poArgs, 0, &iVirtualID))

  00006	8d 45 fc	 lea	 eax, DWORD PTR _iVirtualID$[ebp]
  00009	50		 push	 eax
  0000a	6a 00		 push	 0
  0000c	ff 75 0c	 push	 DWORD PTR _poArgs$[ebp]
  0000f	e8 00 00 00 00	 call	 ?PyTuple_GetInteger@@YA_NPAU_object@@HPAH@Z ; PyTuple_GetInteger
  00014	83 c4 0c	 add	 esp, 12			; 0000000cH
  00017	84 c0		 test	 al, al
  00019	75 0e		 jne	 SHORT $LN3@chrSetBlen
$LN9@chrSetBlen:

; 261  : 		return Py_BuildException();

  0001b	6a 00		 push	 0
  0001d	e8 00 00 00 00	 call	 ?Py_BuildException@@YAPAU_object@@PBDZZ ; Py_BuildException
  00022	83 c4 04	 add	 esp, 4

; 275  : }

  00025	8b e5		 mov	 esp, ebp
  00027	5d		 pop	 ebp
  00028	c3		 ret	 0
$LN3@chrSetBlen:

; 262  : 
; 263  : 	float fAlpha;
; 264  : 	if (!PyTuple_GetFloat(poArgs, 1, &fAlpha))

  00029	8d 45 f8	 lea	 eax, DWORD PTR _fAlpha$[ebp]
  0002c	50		 push	 eax
  0002d	6a 01		 push	 1
  0002f	ff 75 0c	 push	 DWORD PTR _poArgs$[ebp]
  00032	e8 00 00 00 00	 call	 ?PyTuple_GetFloat@@YA_NPAU_object@@HPAM@Z ; PyTuple_GetFloat
  00037	83 c4 0c	 add	 esp, 12			; 0000000cH
  0003a	84 c0		 test	 al, al
  0003c	74 dd		 je	 SHORT $LN9@chrSetBlen

; 265  : 		return Py_BuildException();
; 266  : 
; 267  : 	CInstanceBase * pkInst = CPythonCharacterManager::Instance().GetInstancePtr(iVirtualID);

  0003e	8b 0d 00 00 00
	00		 mov	 ecx, DWORD PTR ?ms_singleton@?$CSingleton@VCPythonCharacterManager@@@@0PAVCPythonCharacterManager@@A ; CSingleton<CPythonCharacterManager>::ms_singleton
  00044	ff 75 fc	 push	 DWORD PTR _iVirtualID$[ebp]
  00047	83 c1 04	 add	 ecx, 4
  0004a	8b 01		 mov	 eax, DWORD PTR [ecx]
  0004c	ff 50 08	 call	 DWORD PTR [eax+8]

; 268  : 
; 269  : 	if (!pkInst)

  0004f	85 c0		 test	 eax, eax
  00051	74 0c		 je	 SHORT $LN8@chrSetBlen

; 270  : 		return Py_BuildNone();
; 271  : 
; 272  : 	pkInst->SetAlpha(fAlpha);

  00053	f3 0f 10 4d f8	 movss	 xmm1, DWORD PTR _fAlpha$[ebp]
  00058	8b c8		 mov	 ecx, eax
  0005a	e8 00 00 00 00	 call	 ?SetAlpha@CInstanceBase@@QAEXM@Z ; CInstanceBase::SetAlpha
$LN8@chrSetBlen:

; 273  : 	
; 274  : 	return Py_BuildNone();

  0005f	e8 00 00 00 00	 call	 ?Py_BuildNone@@YAPAU_object@@XZ ; Py_BuildNone

; 275  : }

  00064	8b e5		 mov	 esp, ebp
  00066	5d		 pop	 ebp
  00067	c3		 ret	 0
?chrSetBlendRenderMode@@YAPAU_object@@PAU1@0@Z ENDP	; chrSetBlendRenderMode
_TEXT	ENDS
; Function compile flags: /Ogtp
; File d:\metin2\metin2\client_source_clean\client_source_clean\source\userinterface\pythoncharactermodule.cpp
;	COMDAT ?chrUnselect@@YAPAU_object@@PAU1@0@Z
_TEXT	SEGMENT
_iVirtualID$ = -4					; size = 4
_poSelf$ = 8						; size = 4
_poArgs$ = 12						; size = 4
?chrUnselect@@YAPAU_object@@PAU1@0@Z PROC		; chrUnselect, COMDAT

; 278  : {

  00000	55		 push	 ebp
  00001	8b ec		 mov	 ebp, esp
  00003	51		 push	 ecx

; 279  : 	int iVirtualID;
; 280  : 	if (!PyTuple_GetInteger(poArgs, 0, &iVirtualID))

  00004	8d 45 fc	 lea	 eax, DWORD PTR _iVirtualID$[ebp]
  00007	50		 push	 eax
  00008	6a 00		 push	 0
  0000a	ff 75 0c	 push	 DWORD PTR _poArgs$[ebp]
  0000d	e8 00 00 00 00	 call	 ?PyTuple_GetInteger@@YA_NPAU_object@@HPAH@Z ; PyTuple_GetInteger
  00012	83 c4 0c	 add	 esp, 12			; 0000000cH
  00015	84 c0		 test	 al, al
  00017	75 0e		 jne	 SHORT $LN2@chrUnselec

; 281  : 		return Py_BuildException();

  00019	6a 00		 push	 0
  0001b	e8 00 00 00 00	 call	 ?Py_BuildException@@YAPAU_object@@PBDZZ ; Py_BuildException
  00020	83 c4 04	 add	 esp, 4

; 289  : }

  00023	8b e5		 mov	 esp, ebp
  00025	5d		 pop	 ebp
  00026	c3		 ret	 0
$LN2@chrUnselec:

; 282  : 
; 283  : 	CInstanceBase * pkInst = CPythonCharacterManager::Instance().GetInstancePtr(iVirtualID);

  00027	8b 0d 00 00 00
	00		 mov	 ecx, DWORD PTR ?ms_singleton@?$CSingleton@VCPythonCharacterManager@@@@0PAVCPythonCharacterManager@@A ; CSingleton<CPythonCharacterManager>::ms_singleton
  0002d	ff 75 fc	 push	 DWORD PTR _iVirtualID$[ebp]
  00030	83 c1 04	 add	 ecx, 4
  00033	8b 01		 mov	 eax, DWORD PTR [ecx]
  00035	ff 50 08	 call	 DWORD PTR [eax+8]

; 284  : 	if (!pkInst)

  00038	85 c0		 test	 eax, eax
  0003a	74 07		 je	 SHORT $LN7@chrUnselec

; 285  : 		return Py_BuildNone();
; 286  : 
; 287  : 	pkInst->RestoreRenderMode();

  0003c	8b c8		 mov	 ecx, eax
  0003e	e8 00 00 00 00	 call	 ?RestoreRenderMode@CInstanceBase@@QAEXXZ ; CInstanceBase::RestoreRenderMode
$LN7@chrUnselec:

; 288  : 	return Py_BuildNone();

  00043	e8 00 00 00 00	 call	 ?Py_BuildNone@@YAPAU_object@@XZ ; Py_BuildNone

; 289  : }

  00048	8b e5		 mov	 esp, ebp
  0004a	5d		 pop	 ebp
  0004b	c3		 ret	 0
?chrUnselect@@YAPAU_object@@PAU1@0@Z ENDP		; chrUnselect
_TEXT	ENDS
; Function compile flags: /Ogtp
; File d:\metin2\metin2\client_source_clean\client_source_clean\source\userinterface\pythoncharactermodule.cpp
;	COMDAT ?chrPick@@YAPAU_object@@PAU1@0@Z
_TEXT	SEGMENT
_VirtualID$ = -4					; size = 4
_poSelf$ = 8						; size = 4
_poArgs$ = 12						; size = 4
?chrPick@@YAPAU_object@@PAU1@0@Z PROC			; chrPick, COMDAT

; 292  : {

  00000	55		 push	 ebp
  00001	8b ec		 mov	 ebp, esp
  00003	51		 push	 ecx

; 293  : 	DWORD VirtualID = 0;
; 294  : 	if (CPythonCharacterManager::Instance().OLD_GetPickedInstanceVID(&VirtualID))

  00004	8b 0d 00 00 00
	00		 mov	 ecx, DWORD PTR ?ms_singleton@?$CSingleton@VCPythonCharacterManager@@@@0PAVCPythonCharacterManager@@A ; CSingleton<CPythonCharacterManager>::ms_singleton
  0000a	8d 45 fc	 lea	 eax, DWORD PTR _VirtualID$[ebp]
  0000d	50		 push	 eax
  0000e	c7 45 fc 00 00
	00 00		 mov	 DWORD PTR _VirtualID$[ebp], 0
  00015	e8 00 00 00 00	 call	 ?OLD_GetPickedInstanceVID@CPythonCharacterManager@@QAE_NPAK@Z ; CPythonCharacterManager::OLD_GetPickedInstanceVID
  0001a	84 c0		 test	 al, al
  0001c	74 15		 je	 SHORT $LN2@chrPick

; 295  : 		return Py_BuildValue("i", VirtualID);

  0001e	ff 75 fc	 push	 DWORD PTR _VirtualID$[ebp]

; 296  : 	else
; 297  : 		return Py_BuildValue("i", -1);

  00021	68 00 00 00 00	 push	 OFFSET ??_C@_01KBJDNOO@i?$AA@
  00026	ff 15 00 00 00
	00		 call	 DWORD PTR __imp__Py_BuildValue
  0002c	83 c4 08	 add	 esp, 8

; 298  : }

  0002f	8b e5		 mov	 esp, ebp
  00031	5d		 pop	 ebp
  00032	c3		 ret	 0
$LN2@chrPick:

; 296  : 	else
; 297  : 		return Py_BuildValue("i", -1);

  00033	6a ff		 push	 -1
  00035	68 00 00 00 00	 push	 OFFSET ??_C@_01KBJDNOO@i?$AA@
  0003a	ff 15 00 00 00
	00		 call	 DWORD PTR __imp__Py_BuildValue
  00040	83 c4 08	 add	 esp, 8

; 298  : }

  00043	8b e5		 mov	 esp, ebp
  00045	5d		 pop	 ebp
  00046	c3		 ret	 0
?chrPick@@YAPAU_object@@PAU1@0@Z ENDP			; chrPick
_TEXT	ENDS
; Function compile flags: /Ogtp
; File d:\metin2\metin2\client_source_clean\client_source_clean\source\userinterface\pythoncharactermodule.cpp
;	COMDAT ?chrHide@@YAPAU_object@@PAU1@0@Z
_TEXT	SEGMENT
_poSelf$ = 8						; size = 4
_poArgs$ = 12						; size = 4
?chrHide@@YAPAU_object@@PAU1@0@Z PROC			; chrHide, COMDAT

; 302  : 	CInstanceBase * pkInst = CPythonCharacterManager::Instance().GetSelectedInstancePtr();

  00000	8b 0d 00 00 00
	00		 mov	 ecx, DWORD PTR ?ms_singleton@?$CSingleton@VCPythonCharacterManager@@@@0PAVCPythonCharacterManager@@A ; CSingleton<CPythonCharacterManager>::ms_singleton
  00006	e8 00 00 00 00	 call	 ?GetSelectedInstancePtr@CPythonCharacterManager@@QAEPAVCInstanceBase@@XZ ; CPythonCharacterManager::GetSelectedInstancePtr

; 303  : 	if (!pkInst)

  0000b	85 c0		 test	 eax, eax
  0000d	0f 84 00 00 00
	00		 je	 ?Py_BuildNone@@YAPAU_object@@XZ ; Py_BuildNone

; 304  : 		return Py_BuildNone();
; 305  : 
; 306  : 	pkInst->Hide();

  00013	8b c8		 mov	 ecx, eax
  00015	e8 00 00 00 00	 call	 ?Hide@CInstanceBase@@QAEXXZ ; CInstanceBase::Hide

; 307  : 	return Py_BuildNone();

  0001a	e9 00 00 00 00	 jmp	 ?Py_BuildNone@@YAPAU_object@@XZ ; Py_BuildNone
?chrHide@@YAPAU_object@@PAU1@0@Z ENDP			; chrHide
_TEXT	ENDS
; Function compile flags: /Ogtp
; File d:\metin2\metin2\client_source_clean\client_source_clean\source\userinterface\pythoncharactermodule.cpp
;	COMDAT ?chrShow@@YAPAU_object@@PAU1@0@Z
_TEXT	SEGMENT
_poSelf$ = 8						; size = 4
_poArgs$ = 12						; size = 4
?chrShow@@YAPAU_object@@PAU1@0@Z PROC			; chrShow, COMDAT

; 312  : 	CInstanceBase * pkInst = CPythonCharacterManager::Instance().GetSelectedInstancePtr();

  00000	8b 0d 00 00 00
	00		 mov	 ecx, DWORD PTR ?ms_singleton@?$CSingleton@VCPythonCharacterManager@@@@0PAVCPythonCharacterManager@@A ; CSingleton<CPythonCharacterManager>::ms_singleton
  00006	e8 00 00 00 00	 call	 ?GetSelectedInstancePtr@CPythonCharacterManager@@QAEPAVCInstanceBase@@XZ ; CPythonCharacterManager::GetSelectedInstancePtr

; 313  : 	if (!pkInst)

  0000b	85 c0		 test	 eax, eax
  0000d	0f 84 00 00 00
	00		 je	 ?Py_BuildNone@@YAPAU_object@@XZ ; Py_BuildNone

; 314  : 		return Py_BuildNone();
; 315  : 
; 316  : 	pkInst->Show();

  00013	8b c8		 mov	 ecx, eax
  00015	e8 00 00 00 00	 call	 ?Show@CInstanceBase@@QAEXXZ ; CInstanceBase::Show

; 317  : 	return Py_BuildNone();

  0001a	e9 00 00 00 00	 jmp	 ?Py_BuildNone@@YAPAU_object@@XZ ; Py_BuildNone
?chrShow@@YAPAU_object@@PAU1@0@Z ENDP			; chrShow
_TEXT	ENDS
; Function compile flags: /Ogtp
; File d:\metin2\metin2\client_source_clean\client_source_clean\source\userinterface\pythoncharactermodule.cpp
;	COMDAT ?chrPickAll@@YAPAU_object@@PAU1@0@Z
_TEXT	SEGMENT
_poSelf$ = 8						; size = 4
_poArgs$ = 12						; size = 4
?chrPickAll@@YAPAU_object@@PAU1@0@Z PROC		; chrPickAll, COMDAT

; 322  : 	DWORD VirtualID = CPythonCharacterManager::Instance().PickAll();

  00000	8b 0d 00 00 00
	00		 mov	 ecx, DWORD PTR ?ms_singleton@?$CSingleton@VCPythonCharacterManager@@@@0PAVCPythonCharacterManager@@A ; CSingleton<CPythonCharacterManager>::ms_singleton
  00006	e8 00 00 00 00	 call	 ?PickAll@CPythonCharacterManager@@QAEHXZ ; CPythonCharacterManager::PickAll

; 323  : 	return Py_BuildValue("i", VirtualID);

  0000b	50		 push	 eax
  0000c	68 00 00 00 00	 push	 OFFSET ??_C@_01KBJDNOO@i?$AA@
  00011	ff 15 00 00 00
	00		 call	 DWORD PTR __imp__Py_BuildValue
  00017	83 c4 08	 add	 esp, 8

; 324  : }

  0001a	c3		 ret	 0
?chrPickAll@@YAPAU_object@@PAU1@0@Z ENDP		; chrPickAll
_TEXT	ENDS
; Function compile flags: /Ogtp
; File d:\metin2\metin2\client_source_clean\client_source_clean\source\userinterface\pythoncharactermodule.cpp
;	COMDAT ?chrSetRace@@YAPAU_object@@PAU1@0@Z
_TEXT	SEGMENT
_iRace$ = -4						; size = 4
_poSelf$ = 8						; size = 4
_poArgs$ = 12						; size = 4
?chrSetRace@@YAPAU_object@@PAU1@0@Z PROC		; chrSetRace, COMDAT

; 327  : {

  00000	55		 push	 ebp
  00001	8b ec		 mov	 ebp, esp
  00003	51		 push	 ecx

; 328  : 	int iRace;
; 329  : 	if (!PyTuple_GetInteger(poArgs, 0, &iRace))

  00004	8d 45 fc	 lea	 eax, DWORD PTR _iRace$[ebp]
  00007	50		 push	 eax
  00008	6a 00		 push	 0
  0000a	ff 75 0c	 push	 DWORD PTR _poArgs$[ebp]
  0000d	e8 00 00 00 00	 call	 ?PyTuple_GetInteger@@YA_NPAU_object@@HPAH@Z ; PyTuple_GetInteger
  00012	83 c4 0c	 add	 esp, 12			; 0000000cH
  00015	84 c0		 test	 al, al
  00017	75 0e		 jne	 SHORT $LN2@chrSetRace

; 330  : 		return Py_BuildException();

  00019	6a 00		 push	 0
  0001b	e8 00 00 00 00	 call	 ?Py_BuildException@@YAPAU_object@@PBDZZ ; Py_BuildException
  00020	83 c4 04	 add	 esp, 4

; 339  : }

  00023	8b e5		 mov	 esp, ebp
  00025	5d		 pop	 ebp
  00026	c3		 ret	 0
$LN2@chrSetRace:

; 331  : 
; 332  : 	CInstanceBase * pkInst = CPythonCharacterManager::Instance().GetSelectedInstancePtr();

  00027	8b 0d 00 00 00
	00		 mov	 ecx, DWORD PTR ?ms_singleton@?$CSingleton@VCPythonCharacterManager@@@@0PAVCPythonCharacterManager@@A ; CSingleton<CPythonCharacterManager>::ms_singleton
  0002d	e8 00 00 00 00	 call	 ?GetSelectedInstancePtr@CPythonCharacterManager@@QAEPAVCInstanceBase@@XZ ; CPythonCharacterManager::GetSelectedInstancePtr

; 333  : 	if (!pkInst)

  00032	85 c0		 test	 eax, eax
  00034	74 0a		 je	 SHORT $LN7@chrSetRace

; 334  : 		return Py_BuildNone();
; 335  : 
; 336  : 	pkInst->SetRace(iRace);

  00036	ff 75 fc	 push	 DWORD PTR _iRace$[ebp]
  00039	8b c8		 mov	 ecx, eax
  0003b	e8 00 00 00 00	 call	 ?SetRace@CInstanceBase@@QAE_NK@Z ; CInstanceBase::SetRace
$LN7@chrSetRace:

; 337  : 
; 338  : 	return Py_BuildNone();

  00040	e8 00 00 00 00	 call	 ?Py_BuildNone@@YAPAU_object@@XZ ; Py_BuildNone

; 339  : }

  00045	8b e5		 mov	 esp, ebp
  00047	5d		 pop	 ebp
  00048	c3		 ret	 0
?chrSetRace@@YAPAU_object@@PAU1@0@Z ENDP		; chrSetRace
_TEXT	ENDS
; Function compile flags: /Ogtp
; File d:\metin2\metin2\client_source_clean\client_source_clean\source\userinterface\pythoncharactermodule.cpp
;	COMDAT ?chrSetHair@@YAPAU_object@@PAU1@0@Z
_TEXT	SEGMENT
_iRace$ = -4						; size = 4
_poSelf$ = 8						; size = 4
_poArgs$ = 12						; size = 4
?chrSetHair@@YAPAU_object@@PAU1@0@Z PROC		; chrSetHair, COMDAT

; 342  : {

  00000	55		 push	 ebp
  00001	8b ec		 mov	 ebp, esp
  00003	51		 push	 ecx

; 343  : 	int iRace;
; 344  : 	if (!PyTuple_GetInteger(poArgs, 0, &iRace))

  00004	8d 45 fc	 lea	 eax, DWORD PTR _iRace$[ebp]
  00007	50		 push	 eax
  00008	6a 00		 push	 0
  0000a	ff 75 0c	 push	 DWORD PTR _poArgs$[ebp]
  0000d	e8 00 00 00 00	 call	 ?PyTuple_GetInteger@@YA_NPAU_object@@HPAH@Z ; PyTuple_GetInteger
  00012	83 c4 0c	 add	 esp, 12			; 0000000cH
  00015	84 c0		 test	 al, al
  00017	75 0e		 jne	 SHORT $LN2@chrSetHair

; 345  : 		return Py_BuildException();

  00019	6a 00		 push	 0
  0001b	e8 00 00 00 00	 call	 ?Py_BuildException@@YAPAU_object@@PBDZZ ; Py_BuildException
  00020	83 c4 04	 add	 esp, 4

; 354  : }

  00023	8b e5		 mov	 esp, ebp
  00025	5d		 pop	 ebp
  00026	c3		 ret	 0
$LN2@chrSetHair:

; 346  : 
; 347  : 	CInstanceBase * pkInst = CPythonCharacterManager::Instance().GetSelectedInstancePtr();

  00027	8b 0d 00 00 00
	00		 mov	 ecx, DWORD PTR ?ms_singleton@?$CSingleton@VCPythonCharacterManager@@@@0PAVCPythonCharacterManager@@A ; CSingleton<CPythonCharacterManager>::ms_singleton
  0002d	e8 00 00 00 00	 call	 ?GetSelectedInstancePtr@CPythonCharacterManager@@QAEPAVCInstanceBase@@XZ ; CPythonCharacterManager::GetSelectedInstancePtr

; 348  : 	if (!pkInst)

  00032	85 c0		 test	 eax, eax
  00034	74 0a		 je	 SHORT $LN7@chrSetHair

; 349  : 		return Py_BuildNone();
; 350  : 
; 351  : 	pkInst->SetHair(iRace);

  00036	ff 75 fc	 push	 DWORD PTR _iRace$[ebp]
  00039	8b c8		 mov	 ecx, eax
  0003b	e8 00 00 00 00	 call	 ?SetHair@CInstanceBase@@QAEXK@Z ; CInstanceBase::SetHair
$LN7@chrSetHair:

; 352  : 
; 353  : 	return Py_BuildNone();

  00040	e8 00 00 00 00	 call	 ?Py_BuildNone@@YAPAU_object@@XZ ; Py_BuildNone

; 354  : }

  00045	8b e5		 mov	 esp, ebp
  00047	5d		 pop	 ebp
  00048	c3		 ret	 0
?chrSetHair@@YAPAU_object@@PAU1@0@Z ENDP		; chrSetHair
_TEXT	ENDS
; Function compile flags: /Ogtp
; File d:\metin2\metin2\client_source_clean\client_source_clean\source\userinterface\pythoncharactermodule.cpp
;	COMDAT ?chrChangeHair@@YAPAU_object@@PAU1@0@Z
_TEXT	SEGMENT
_iHair$ = -4						; size = 4
_poSelf$ = 8						; size = 4
_poArgs$ = 12						; size = 4
?chrChangeHair@@YAPAU_object@@PAU1@0@Z PROC		; chrChangeHair, COMDAT

; 357  : {

  00000	55		 push	 ebp
  00001	8b ec		 mov	 ebp, esp
  00003	51		 push	 ecx

; 358  : 	int iHair;
; 359  : 
; 360  : 	if (!PyTuple_GetInteger(poArgs, 0, &iHair))

  00004	8d 45 fc	 lea	 eax, DWORD PTR _iHair$[ebp]
  00007	50		 push	 eax
  00008	6a 00		 push	 0
  0000a	ff 75 0c	 push	 DWORD PTR _poArgs$[ebp]
  0000d	e8 00 00 00 00	 call	 ?PyTuple_GetInteger@@YA_NPAU_object@@HPAH@Z ; PyTuple_GetInteger
  00012	83 c4 0c	 add	 esp, 12			; 0000000cH
  00015	84 c0		 test	 al, al
  00017	75 0e		 jne	 SHORT $LN2@chrChangeH

; 361  : 		return Py_BuildException();

  00019	6a 00		 push	 0
  0001b	e8 00 00 00 00	 call	 ?Py_BuildException@@YAPAU_object@@PBDZZ ; Py_BuildException
  00020	83 c4 04	 add	 esp, 4

; 367  : }

  00023	8b e5		 mov	 esp, ebp
  00025	5d		 pop	 ebp
  00026	c3		 ret	 0
$LN2@chrChangeH:

; 362  : 	CInstanceBase * pkInst = CPythonCharacterManager::Instance().GetSelectedInstancePtr();

  00027	8b 0d 00 00 00
	00		 mov	 ecx, DWORD PTR ?ms_singleton@?$CSingleton@VCPythonCharacterManager@@@@0PAVCPythonCharacterManager@@A ; CSingleton<CPythonCharacterManager>::ms_singleton
  0002d	e8 00 00 00 00	 call	 ?GetSelectedInstancePtr@CPythonCharacterManager@@QAEPAVCInstanceBase@@XZ ; CPythonCharacterManager::GetSelectedInstancePtr

; 363  : 	if (!pkInst)

  00032	85 c0		 test	 eax, eax
  00034	74 0a		 je	 SHORT $LN7@chrChangeH

; 364  : 		return Py_BuildNone();
; 365  : 	pkInst->ChangeHair(iHair);

  00036	ff 75 fc	 push	 DWORD PTR _iHair$[ebp]
  00039	8b c8		 mov	 ecx, eax
  0003b	e8 00 00 00 00	 call	 ?ChangeHair@CInstanceBase@@QAEXK@Z ; CInstanceBase::ChangeHair
$LN7@chrChangeH:

; 366  : 	return Py_BuildNone();

  00040	e8 00 00 00 00	 call	 ?Py_BuildNone@@YAPAU_object@@XZ ; Py_BuildNone

; 367  : }

  00045	8b e5		 mov	 esp, ebp
  00047	5d		 pop	 ebp
  00048	c3		 ret	 0
?chrChangeHair@@YAPAU_object@@PAU1@0@Z ENDP		; chrChangeHair
_TEXT	ENDS
; Function compile flags: /Ogtp
; File d:\metin2\metin2\client_source_clean\client_source_clean\source\userinterface\pythoncharactermodule.cpp
;	COMDAT ?chrSetArmor@@YAPAU_object@@PAU1@0@Z
_TEXT	SEGMENT
_iForm$ = -4						; size = 4
_poSelf$ = 8						; size = 4
_poArgs$ = 12						; size = 4
?chrSetArmor@@YAPAU_object@@PAU1@0@Z PROC		; chrSetArmor, COMDAT

; 370  : {

  00000	55		 push	 ebp
  00001	8b ec		 mov	 ebp, esp
  00003	51		 push	 ecx

; 371  : 	int iForm;
; 372  : 	if (!PyTuple_GetInteger(poArgs, 0, &iForm))

  00004	8d 45 fc	 lea	 eax, DWORD PTR _iForm$[ebp]
  00007	50		 push	 eax
  00008	6a 00		 push	 0
  0000a	ff 75 0c	 push	 DWORD PTR _poArgs$[ebp]
  0000d	e8 00 00 00 00	 call	 ?PyTuple_GetInteger@@YA_NPAU_object@@HPAH@Z ; PyTuple_GetInteger
  00012	83 c4 0c	 add	 esp, 12			; 0000000cH
  00015	84 c0		 test	 al, al
  00017	75 0e		 jne	 SHORT $LN2@chrSetArmo

; 373  : 		return Py_BuildException();

  00019	6a 00		 push	 0
  0001b	e8 00 00 00 00	 call	 ?Py_BuildException@@YAPAU_object@@PBDZZ ; Py_BuildException
  00020	83 c4 04	 add	 esp, 4

; 384  : }

  00023	8b e5		 mov	 esp, ebp
  00025	5d		 pop	 ebp
  00026	c3		 ret	 0
$LN2@chrSetArmo:

; 374  : 
; 375  : 	CInstanceBase * pkInst = CPythonCharacterManager::Instance().GetSelectedInstancePtr();

  00027	8b 0d 00 00 00
	00		 mov	 ecx, DWORD PTR ?ms_singleton@?$CSingleton@VCPythonCharacterManager@@@@0PAVCPythonCharacterManager@@A ; CSingleton<CPythonCharacterManager>::ms_singleton
  0002d	56		 push	 esi
  0002e	e8 00 00 00 00	 call	 ?GetSelectedInstancePtr@CPythonCharacterManager@@QAEPAVCInstanceBase@@XZ ; CPythonCharacterManager::GetSelectedInstancePtr
  00033	8b f0		 mov	 esi, eax

; 376  : 	if (!pkInst)

  00035	85 f6		 test	 esi, esi
  00037	74 11		 je	 SHORT $LN8@chrSetArmo

; 377  : 		return Py_BuildNone();
; 378  : 
; 379  : 	pkInst->SetArmor(iForm);

  00039	ff 75 fc	 push	 DWORD PTR _iForm$[ebp]
  0003c	8b ce		 mov	 ecx, esi
  0003e	e8 00 00 00 00	 call	 ?SetArmor@CInstanceBase@@QAEXK@Z ; CInstanceBase::SetArmor

; 380  : 
; 381  : 	pkInst->RegisterBoundingSphere();

  00043	8b ce		 mov	 ecx, esi
  00045	e8 00 00 00 00	 call	 ?RegisterBoundingSphere@CInstanceBase@@QAEXXZ ; CInstanceBase::RegisterBoundingSphere
$LN8@chrSetArmo:

; 382  : 
; 383  : 	return Py_BuildNone();

  0004a	e8 00 00 00 00	 call	 ?Py_BuildNone@@YAPAU_object@@XZ ; Py_BuildNone
  0004f	5e		 pop	 esi

; 384  : }

  00050	8b e5		 mov	 esp, ebp
  00052	5d		 pop	 ebp
  00053	c3		 ret	 0
?chrSetArmor@@YAPAU_object@@PAU1@0@Z ENDP		; chrSetArmor
_TEXT	ENDS
; Function compile flags: /Ogtp
; File d:\metin2\metin2\client_source_clean\client_source_clean\source\userinterface\pythoncharactermodule.cpp
;	COMDAT ?chrChangeShape@@YAPAU_object@@PAU1@0@Z
_TEXT	SEGMENT
_iForm$ = -4						; size = 4
_poSelf$ = 8						; size = 4
_poArgs$ = 12						; size = 4
?chrChangeShape@@YAPAU_object@@PAU1@0@Z PROC		; chrChangeShape, COMDAT

; 387  : {

  00000	55		 push	 ebp
  00001	8b ec		 mov	 ebp, esp
  00003	51		 push	 ecx

; 388  : 	int iForm;
; 389  : 	if (!PyTuple_GetInteger(poArgs, 0, &iForm))

  00004	8d 45 fc	 lea	 eax, DWORD PTR _iForm$[ebp]
  00007	50		 push	 eax
  00008	6a 00		 push	 0
  0000a	ff 75 0c	 push	 DWORD PTR _poArgs$[ebp]
  0000d	e8 00 00 00 00	 call	 ?PyTuple_GetInteger@@YA_NPAU_object@@HPAH@Z ; PyTuple_GetInteger
  00012	83 c4 0c	 add	 esp, 12			; 0000000cH
  00015	84 c0		 test	 al, al
  00017	75 0e		 jne	 SHORT $LN2@chrChangeS

; 390  : 		return Py_BuildException();

  00019	6a 00		 push	 0
  0001b	e8 00 00 00 00	 call	 ?Py_BuildException@@YAPAU_object@@PBDZZ ; Py_BuildException
  00020	83 c4 04	 add	 esp, 4

; 399  : }

  00023	8b e5		 mov	 esp, ebp
  00025	5d		 pop	 ebp
  00026	c3		 ret	 0
$LN2@chrChangeS:

; 391  : 
; 392  : 	CInstanceBase * pkInst = CPythonCharacterManager::Instance().GetSelectedInstancePtr();

  00027	8b 0d 00 00 00
	00		 mov	 ecx, DWORD PTR ?ms_singleton@?$CSingleton@VCPythonCharacterManager@@@@0PAVCPythonCharacterManager@@A ; CSingleton<CPythonCharacterManager>::ms_singleton
  0002d	e8 00 00 00 00	 call	 ?GetSelectedInstancePtr@CPythonCharacterManager@@QAEPAVCInstanceBase@@XZ ; CPythonCharacterManager::GetSelectedInstancePtr

; 393  : 	if (!pkInst)

  00032	85 c0		 test	 eax, eax
  00034	74 0a		 je	 SHORT $LN7@chrChangeS

; 394  : 		return Py_BuildNone();
; 395  : 
; 396  : 	pkInst->ChangeArmor(iForm);

  00036	ff 75 fc	 push	 DWORD PTR _iForm$[ebp]
  00039	8b c8		 mov	 ecx, eax
  0003b	e8 00 00 00 00	 call	 ?ChangeArmor@CInstanceBase@@QAE_NK@Z ; CInstanceBase::ChangeArmor
$LN7@chrChangeS:

; 397  : 
; 398  : 	return Py_BuildNone();

  00040	e8 00 00 00 00	 call	 ?Py_BuildNone@@YAPAU_object@@XZ ; Py_BuildNone

; 399  : }

  00045	8b e5		 mov	 esp, ebp
  00047	5d		 pop	 ebp
  00048	c3		 ret	 0
?chrChangeShape@@YAPAU_object@@PAU1@0@Z ENDP		; chrChangeShape
_TEXT	ENDS
; Function compile flags: /Ogtp
; File d:\metin2\metin2\client_source_clean\client_source_clean\source\userinterface\pythoncharactermodule.cpp
;	COMDAT ?chrSetWeapon@@YAPAU_object@@PAU1@0@Z
_TEXT	SEGMENT
_iForm$ = -4						; size = 4
_poSelf$ = 8						; size = 4
_poArgs$ = 12						; size = 4
?chrSetWeapon@@YAPAU_object@@PAU1@0@Z PROC		; chrSetWeapon, COMDAT

; 402  : {

  00000	55		 push	 ebp
  00001	8b ec		 mov	 ebp, esp
  00003	51		 push	 ecx

; 403  : 	int iForm;
; 404  : 	if (!PyTuple_GetInteger(poArgs, 0, &iForm))

  00004	8d 45 fc	 lea	 eax, DWORD PTR _iForm$[ebp]
  00007	50		 push	 eax
  00008	6a 00		 push	 0
  0000a	ff 75 0c	 push	 DWORD PTR _poArgs$[ebp]
  0000d	e8 00 00 00 00	 call	 ?PyTuple_GetInteger@@YA_NPAU_object@@HPAH@Z ; PyTuple_GetInteger
  00012	83 c4 0c	 add	 esp, 12			; 0000000cH
  00015	84 c0		 test	 al, al
  00017	75 0e		 jne	 SHORT $LN2@chrSetWeap

; 405  : 		return Py_BuildException();

  00019	6a 00		 push	 0
  0001b	e8 00 00 00 00	 call	 ?Py_BuildException@@YAPAU_object@@PBDZZ ; Py_BuildException
  00020	83 c4 04	 add	 esp, 4

; 414  : }

  00023	8b e5		 mov	 esp, ebp
  00025	5d		 pop	 ebp
  00026	c3		 ret	 0
$LN2@chrSetWeap:

; 406  : 
; 407  : 	CInstanceBase * pkInst = CPythonCharacterManager::Instance().GetSelectedInstancePtr();

  00027	8b 0d 00 00 00
	00		 mov	 ecx, DWORD PTR ?ms_singleton@?$CSingleton@VCPythonCharacterManager@@@@0PAVCPythonCharacterManager@@A ; CSingleton<CPythonCharacterManager>::ms_singleton
  0002d	e8 00 00 00 00	 call	 ?GetSelectedInstancePtr@CPythonCharacterManager@@QAEPAVCInstanceBase@@XZ ; CPythonCharacterManager::GetSelectedInstancePtr

; 408  : 	if (!pkInst)

  00032	85 c0		 test	 eax, eax
  00034	74 0a		 je	 SHORT $LN7@chrSetWeap

; 409  : 		return Py_BuildNone();
; 410  : 
; 411  : 	pkInst->SetWeapon(iForm);

  00036	ff 75 fc	 push	 DWORD PTR _iForm$[ebp]
  00039	8b c8		 mov	 ecx, eax
  0003b	e8 00 00 00 00	 call	 ?SetWeapon@CInstanceBase@@QAE_NK@Z ; CInstanceBase::SetWeapon
$LN7@chrSetWeap:

; 412  : 
; 413  : 	return Py_BuildNone();

  00040	e8 00 00 00 00	 call	 ?Py_BuildNone@@YAPAU_object@@XZ ; Py_BuildNone

; 414  : }

  00045	8b e5		 mov	 esp, ebp
  00047	5d		 pop	 ebp
  00048	c3		 ret	 0
?chrSetWeapon@@YAPAU_object@@PAU1@0@Z ENDP		; chrSetWeapon
_TEXT	ENDS
; Function compile flags: /Ogtp
; File d:\metin2\metin2\client_source_clean\client_source_clean\source\userinterface\pythoncharactermodule.cpp
;	COMDAT ?chrSetVirtualID@@YAPAU_object@@PAU1@0@Z
_TEXT	SEGMENT
_iVID$ = -4						; size = 4
_poSelf$ = 8						; size = 4
_poArgs$ = 12						; size = 4
?chrSetVirtualID@@YAPAU_object@@PAU1@0@Z PROC		; chrSetVirtualID, COMDAT

; 417  : {

  00000	55		 push	 ebp
  00001	8b ec		 mov	 ebp, esp
  00003	51		 push	 ecx

; 418  : 	int iVID;
; 419  : 	if (!PyTuple_GetInteger(poArgs, 0, &iVID))

  00004	8d 45 fc	 lea	 eax, DWORD PTR _iVID$[ebp]
  00007	50		 push	 eax
  00008	6a 00		 push	 0
  0000a	ff 75 0c	 push	 DWORD PTR _poArgs$[ebp]
  0000d	e8 00 00 00 00	 call	 ?PyTuple_GetInteger@@YA_NPAU_object@@HPAH@Z ; PyTuple_GetInteger
  00012	83 c4 0c	 add	 esp, 12			; 0000000cH
  00015	84 c0		 test	 al, al
  00017	75 0e		 jne	 SHORT $LN2@chrSetVirt

; 420  : 		return Py_BuildException();

  00019	6a 00		 push	 0
  0001b	e8 00 00 00 00	 call	 ?Py_BuildException@@YAPAU_object@@PBDZZ ; Py_BuildException
  00020	83 c4 04	 add	 esp, 4

; 427  : }

  00023	8b e5		 mov	 esp, ebp
  00025	5d		 pop	 ebp
  00026	c3		 ret	 0
$LN2@chrSetVirt:

; 421  : 
; 422  : 	CInstanceBase * pkInst = CPythonCharacterManager::Instance().GetSelectedInstancePtr();

  00027	8b 0d 00 00 00
	00		 mov	 ecx, DWORD PTR ?ms_singleton@?$CSingleton@VCPythonCharacterManager@@@@0PAVCPythonCharacterManager@@A ; CSingleton<CPythonCharacterManager>::ms_singleton
  0002d	e8 00 00 00 00	 call	 ?GetSelectedInstancePtr@CPythonCharacterManager@@QAEPAVCInstanceBase@@XZ ; CPythonCharacterManager::GetSelectedInstancePtr

; 423  : 	if (!pkInst)

  00032	85 c0		 test	 eax, eax
  00034	74 0a		 je	 SHORT $LN7@chrSetVirt

; 424  : 		return Py_BuildNone();
; 425  : 	pkInst->SetVirtualID(iVID);

  00036	ff 75 fc	 push	 DWORD PTR _iVID$[ebp]
  00039	8b c8		 mov	 ecx, eax
  0003b	e8 00 00 00 00	 call	 ?SetVirtualID@CInstanceBase@@QAEXK@Z ; CInstanceBase::SetVirtualID
$LN7@chrSetVirt:

; 426  : 	return Py_BuildNone();

  00040	e8 00 00 00 00	 call	 ?Py_BuildNone@@YAPAU_object@@XZ ; Py_BuildNone

; 427  : }

  00045	8b e5		 mov	 esp, ebp
  00047	5d		 pop	 ebp
  00048	c3		 ret	 0
?chrSetVirtualID@@YAPAU_object@@PAU1@0@Z ENDP		; chrSetVirtualID
_TEXT	ENDS
; Function compile flags: /Ogtp
; File d:\metin2\metin2\client_source_clean\client_source_clean\source\userinterface\pythoncharactermodule.cpp
;	COMDAT ?chrSetNameString@@YAPAU_object@@PAU1@0@Z
_TEXT	SEGMENT
_c_szName$ = -4						; size = 4
_poSelf$ = 8						; size = 4
_poArgs$ = 12						; size = 4
?chrSetNameString@@YAPAU_object@@PAU1@0@Z PROC		; chrSetNameString, COMDAT

; 430  : {

  00000	55		 push	 ebp
  00001	8b ec		 mov	 ebp, esp
  00003	51		 push	 ecx

; 431  : 	char * c_szName;
; 432  : 	if (!PyTuple_GetString(poArgs, 0, &c_szName))

  00004	8d 45 fc	 lea	 eax, DWORD PTR _c_szName$[ebp]
  00007	50		 push	 eax
  00008	6a 00		 push	 0
  0000a	ff 75 0c	 push	 DWORD PTR _poArgs$[ebp]
  0000d	e8 00 00 00 00	 call	 ?PyTuple_GetString@@YA_NPAU_object@@HPAPAD@Z ; PyTuple_GetString
  00012	83 c4 0c	 add	 esp, 12			; 0000000cH
  00015	84 c0		 test	 al, al
  00017	75 0e		 jne	 SHORT $LN2@chrSetName

; 433  : 		return Py_BuildException();

  00019	6a 00		 push	 0
  0001b	e8 00 00 00 00	 call	 ?Py_BuildException@@YAPAU_object@@PBDZZ ; Py_BuildException
  00020	83 c4 04	 add	 esp, 4

; 440  : }

  00023	8b e5		 mov	 esp, ebp
  00025	5d		 pop	 ebp
  00026	c3		 ret	 0
$LN2@chrSetName:

; 434  : 
; 435  : 	CInstanceBase * pkInst = CPythonCharacterManager::Instance().GetSelectedInstancePtr();

  00027	8b 0d 00 00 00
	00		 mov	 ecx, DWORD PTR ?ms_singleton@?$CSingleton@VCPythonCharacterManager@@@@0PAVCPythonCharacterManager@@A ; CSingleton<CPythonCharacterManager>::ms_singleton
  0002d	e8 00 00 00 00	 call	 ?GetSelectedInstancePtr@CPythonCharacterManager@@QAEPAVCInstanceBase@@XZ ; CPythonCharacterManager::GetSelectedInstancePtr
  00032	8b d0		 mov	 edx, eax

; 436  : 	if (!pkInst)

  00034	85 d2		 test	 edx, edx
  00036	75 09		 jne	 SHORT $LN1@chrSetName

; 437  : 		return Py_BuildNone();

  00038	e8 00 00 00 00	 call	 ?Py_BuildNone@@YAPAU_object@@XZ ; Py_BuildNone

; 440  : }

  0003d	8b e5		 mov	 esp, ebp
  0003f	5d		 pop	 ebp
  00040	c3		 ret	 0
$LN1@chrSetName:

; 438  : 	pkInst->SetNameString(c_szName, strlen(c_szName));

  00041	8b 4d fc	 mov	 ecx, DWORD PTR _c_szName$[ebp]
  00044	57		 push	 edi
  00045	8d 79 01	 lea	 edi, DWORD PTR [ecx+1]
$LL7@chrSetName:
  00048	8a 01		 mov	 al, BYTE PTR [ecx]
  0004a	41		 inc	 ecx
  0004b	84 c0		 test	 al, al
  0004d	75 f9		 jne	 SHORT $LL7@chrSetName
  0004f	2b cf		 sub	 ecx, edi
  00051	51		 push	 ecx
  00052	ff 75 fc	 push	 DWORD PTR _c_szName$[ebp]
  00055	8b ca		 mov	 ecx, edx
  00057	e8 00 00 00 00	 call	 ?SetNameString@CInstanceBase@@QAEXPBDH@Z ; CInstanceBase::SetNameString

; 439  : 	return Py_BuildNone();

  0005c	e8 00 00 00 00	 call	 ?Py_BuildNone@@YAPAU_object@@XZ ; Py_BuildNone
  00061	5f		 pop	 edi

; 440  : }

  00062	8b e5		 mov	 esp, ebp
  00064	5d		 pop	 ebp
  00065	c3		 ret	 0
?chrSetNameString@@YAPAU_object@@PAU1@0@Z ENDP		; chrSetNameString
_TEXT	ENDS
; Function compile flags: /Ogtp
; File d:\metin2\metin2\client_source_clean\client_source_clean\source\userinterface\pythoncharactermodule.cpp
;	COMDAT ?chrSetInstanceType@@YAPAU_object@@PAU1@0@Z
_TEXT	SEGMENT
_iInstanceType$ = -4					; size = 4
_poSelf$ = 8						; size = 4
_poArgs$ = 12						; size = 4
?chrSetInstanceType@@YAPAU_object@@PAU1@0@Z PROC	; chrSetInstanceType, COMDAT

; 443  : {

  00000	55		 push	 ebp
  00001	8b ec		 mov	 ebp, esp
  00003	51		 push	 ecx

; 444  : 	int iInstanceType;
; 445  : 	if (!PyTuple_GetInteger(poArgs, 0, &iInstanceType))

  00004	8d 45 fc	 lea	 eax, DWORD PTR _iInstanceType$[ebp]
  00007	50		 push	 eax
  00008	6a 00		 push	 0
  0000a	ff 75 0c	 push	 DWORD PTR _poArgs$[ebp]
  0000d	e8 00 00 00 00	 call	 ?PyTuple_GetInteger@@YA_NPAU_object@@HPAH@Z ; PyTuple_GetInteger
  00012	83 c4 0c	 add	 esp, 12			; 0000000cH
  00015	84 c0		 test	 al, al
  00017	75 0e		 jne	 SHORT $LN2@chrSetInst

; 446  : 		return Py_BuildException();

  00019	6a 00		 push	 0
  0001b	e8 00 00 00 00	 call	 ?Py_BuildException@@YAPAU_object@@PBDZZ ; Py_BuildException
  00020	83 c4 04	 add	 esp, 4

; 453  : }

  00023	8b e5		 mov	 esp, ebp
  00025	5d		 pop	 ebp
  00026	c3		 ret	 0
$LN2@chrSetInst:

; 447  : 
; 448  : 	CInstanceBase * pkInst = CPythonCharacterManager::Instance().GetSelectedInstancePtr();

  00027	8b 0d 00 00 00
	00		 mov	 ecx, DWORD PTR ?ms_singleton@?$CSingleton@VCPythonCharacterManager@@@@0PAVCPythonCharacterManager@@A ; CSingleton<CPythonCharacterManager>::ms_singleton
  0002d	e8 00 00 00 00	 call	 ?GetSelectedInstancePtr@CPythonCharacterManager@@QAEPAVCInstanceBase@@XZ ; CPythonCharacterManager::GetSelectedInstancePtr

; 449  : 	if (!pkInst)

  00032	85 c0		 test	 eax, eax
  00034	74 0a		 je	 SHORT $LN7@chrSetInst

; 450  : 		return Py_BuildNone();
; 451  : 	pkInst->SetInstanceType(iInstanceType);

  00036	ff 75 fc	 push	 DWORD PTR _iInstanceType$[ebp]
  00039	8b c8		 mov	 ecx, eax
  0003b	e8 00 00 00 00	 call	 ?SetInstanceType@CInstanceBase@@QAEXH@Z ; CInstanceBase::SetInstanceType
$LN7@chrSetInst:

; 452  : 	return Py_BuildNone();

  00040	e8 00 00 00 00	 call	 ?Py_BuildNone@@YAPAU_object@@XZ ; Py_BuildNone

; 453  : }

  00045	8b e5		 mov	 esp, ebp
  00047	5d		 pop	 ebp
  00048	c3		 ret	 0
?chrSetInstanceType@@YAPAU_object@@PAU1@0@Z ENDP	; chrSetInstanceType
_TEXT	ENDS
; Function compile flags: /Ogtp
; File d:\metin2\metin2\client_source_clean\client_source_clean\source\userinterface\pythoncharactermodule.cpp
;	COMDAT ?chrAttachEffectByName@@YAPAU_object@@PAU1@0@Z
_TEXT	SEGMENT
_pszEffectName$ = -16					; size = 4
_iParentPartIndex$ = -12				; size = 4
_iLife$ = -8						; size = 4
_pszBoneName$ = -4					; size = 4
_poSelf$ = 8						; size = 4
_poArgs$ = 12						; size = 4
?chrAttachEffectByName@@YAPAU_object@@PAU1@0@Z PROC	; chrAttachEffectByName, COMDAT

; 456  : {

  00000	55		 push	 ebp
  00001	8b ec		 mov	 ebp, esp
  00003	83 ec 10	 sub	 esp, 16			; 00000010H

; 457  : 	int iParentPartIndex;
; 458  : 	if (!PyTuple_GetInteger(poArgs, 0, &iParentPartIndex))

  00006	8d 45 f4	 lea	 eax, DWORD PTR _iParentPartIndex$[ebp]
  00009	56		 push	 esi
  0000a	8b 75 0c	 mov	 esi, DWORD PTR _poArgs$[ebp]
  0000d	50		 push	 eax
  0000e	6a 00		 push	 0
  00010	56		 push	 esi
  00011	e8 00 00 00 00	 call	 ?PyTuple_GetInteger@@YA_NPAU_object@@HPAH@Z ; PyTuple_GetInteger
  00016	83 c4 0c	 add	 esp, 12			; 0000000cH
  00019	84 c0		 test	 al, al
  0001b	75 0f		 jne	 SHORT $LN6@chrAttachE
$LN11@chrAttachE:

; 459  : 		return Py_BuildException();

  0001d	6a 00		 push	 0
  0001f	e8 00 00 00 00	 call	 ?Py_BuildException@@YAPAU_object@@PBDZZ ; Py_BuildException
  00024	83 c4 04	 add	 esp, 4
  00027	5e		 pop	 esi

; 487  : }

  00028	8b e5		 mov	 esp, ebp
  0002a	5d		 pop	 ebp
  0002b	c3		 ret	 0
$LN6@chrAttachE:

; 460  : 
; 461  : 	char * pszBoneName;
; 462  : 	if (!PyTuple_GetString(poArgs, 1, &pszBoneName))

  0002c	8d 45 fc	 lea	 eax, DWORD PTR _pszBoneName$[ebp]
  0002f	50		 push	 eax
  00030	6a 01		 push	 1
  00032	56		 push	 esi
  00033	e8 00 00 00 00	 call	 ?PyTuple_GetString@@YA_NPAU_object@@HPAPAD@Z ; PyTuple_GetString
  00038	8b 4d fc	 mov	 ecx, DWORD PTR _pszBoneName$[ebp]
  0003b	33 d2		 xor	 edx, edx
  0003d	84 c0		 test	 al, al

; 463  : 	{
; 464  : 		pszBoneName = NULL;
; 465  : 		//return Py_BuildException();
; 466  : 	}
; 467  : 
; 468  : 	char * pszEffectName;
; 469  : 	if (!PyTuple_GetString(poArgs, 2, &pszEffectName))

  0003f	8d 45 f0	 lea	 eax, DWORD PTR _pszEffectName$[ebp]
  00042	50		 push	 eax
  00043	0f 44 ca	 cmove	 ecx, edx
  00046	6a 02		 push	 2
  00048	56		 push	 esi
  00049	89 4d fc	 mov	 DWORD PTR _pszBoneName$[ebp], ecx
  0004c	e8 00 00 00 00	 call	 ?PyTuple_GetString@@YA_NPAU_object@@HPAPAD@Z ; PyTuple_GetString
  00051	83 c4 18	 add	 esp, 24			; 00000018H
  00054	84 c0		 test	 al, al
  00056	74 c5		 je	 SHORT $LN11@chrAttachE

; 470  : 		return Py_BuildException();
; 471  : 
; 472  : 	int iLife = CActorInstance::EFFECT_LIFE_INFINITE;
; 473  : 
; 474  : 	if (PyTuple_Size(poArgs)==4)

  00058	56		 push	 esi
  00059	c7 45 f8 01 00
	00 00		 mov	 DWORD PTR _iLife$[ebp], 1
  00060	ff 15 00 00 00
	00		 call	 DWORD PTR __imp__PyTuple_Size
  00066	83 c4 04	 add	 esp, 4
  00069	83 f8 04	 cmp	 eax, 4
  0006c	75 13		 jne	 SHORT $LN2@chrAttachE

; 475  : 	{
; 476  : 		if (!PyTuple_GetInteger(poArgs, 3, &iLife))

  0006e	8d 45 f8	 lea	 eax, DWORD PTR _iLife$[ebp]
  00071	50		 push	 eax
  00072	6a 03		 push	 3
  00074	56		 push	 esi
  00075	e8 00 00 00 00	 call	 ?PyTuple_GetInteger@@YA_NPAU_object@@HPAH@Z ; PyTuple_GetInteger
  0007a	83 c4 0c	 add	 esp, 12			; 0000000cH
  0007d	84 c0		 test	 al, al
  0007f	74 9c		 je	 SHORT $LN11@chrAttachE
$LN2@chrAttachE:

; 477  : 			return Py_BuildException();
; 478  : 	}
; 479  : 
; 480  : 	CInstanceBase * pkInst = CPythonCharacterManager::Instance().GetSelectedInstancePtr();

  00081	8b 0d 00 00 00
	00		 mov	 ecx, DWORD PTR ?ms_singleton@?$CSingleton@VCPythonCharacterManager@@@@0PAVCPythonCharacterManager@@A ; CSingleton<CPythonCharacterManager>::ms_singleton
  00087	e8 00 00 00 00	 call	 ?GetSelectedInstancePtr@CPythonCharacterManager@@QAEPAVCInstanceBase@@XZ ; CPythonCharacterManager::GetSelectedInstancePtr

; 481  : 
; 482  : 	if (!pkInst)
; 483  : 		return Py_BuildNone();
; 484  : 
; 485  : 	//pkInst->AttachEffectByName(iParentPartIndex, pszBoneName, pszEffectName, iLife);
; 486  : 	return Py_BuildNone();

  0008c	e8 00 00 00 00	 call	 ?Py_BuildNone@@YAPAU_object@@XZ ; Py_BuildNone
  00091	5e		 pop	 esi

; 487  : }

  00092	8b e5		 mov	 esp, ebp
  00094	5d		 pop	 ebp
  00095	c3		 ret	 0
?chrAttachEffectByName@@YAPAU_object@@PAU1@0@Z ENDP	; chrAttachEffectByName
_TEXT	ENDS
; Function compile flags: /Ogtp
; File d:\metin2\metin2\client_source_clean\client_source_clean\source\userinterface\pythoncharactermodule.cpp
;	COMDAT ?chrAttachEffectByID@@YAPAU_object@@PAU1@0@Z
_TEXT	SEGMENT
_iEffectID$ = -16					; size = 4
_iParentPartIndex$ = -12				; size = 4
_iLife$ = -8						; size = 4
_pszBoneName$ = -4					; size = 4
_poSelf$ = 8						; size = 4
_poArgs$ = 12						; size = 4
?chrAttachEffectByID@@YAPAU_object@@PAU1@0@Z PROC	; chrAttachEffectByID, COMDAT

; 490  : {

  00000	55		 push	 ebp
  00001	8b ec		 mov	 ebp, esp
  00003	83 ec 10	 sub	 esp, 16			; 00000010H

; 491  : 	int iParentPartIndex;
; 492  : 	if (!PyTuple_GetInteger(poArgs, 0, &iParentPartIndex))

  00006	8d 45 f4	 lea	 eax, DWORD PTR _iParentPartIndex$[ebp]
  00009	56		 push	 esi
  0000a	8b 75 0c	 mov	 esi, DWORD PTR _poArgs$[ebp]
  0000d	50		 push	 eax
  0000e	6a 00		 push	 0
  00010	56		 push	 esi
  00011	e8 00 00 00 00	 call	 ?PyTuple_GetInteger@@YA_NPAU_object@@HPAH@Z ; PyTuple_GetInteger
  00016	83 c4 0c	 add	 esp, 12			; 0000000cH
  00019	84 c0		 test	 al, al
  0001b	75 0f		 jne	 SHORT $LN6@chrAttachE
$LN11@chrAttachE:

; 493  : 		return Py_BuildException();

  0001d	6a 00		 push	 0
  0001f	e8 00 00 00 00	 call	 ?Py_BuildException@@YAPAU_object@@PBDZZ ; Py_BuildException
  00024	83 c4 04	 add	 esp, 4
  00027	5e		 pop	 esi

; 522  : }

  00028	8b e5		 mov	 esp, ebp
  0002a	5d		 pop	 ebp
  0002b	c3		 ret	 0
$LN6@chrAttachE:

; 494  : 
; 495  : 	char * pszBoneName;
; 496  : 	if (!PyTuple_GetString(poArgs, 1, &pszBoneName))

  0002c	8d 45 fc	 lea	 eax, DWORD PTR _pszBoneName$[ebp]
  0002f	50		 push	 eax
  00030	6a 01		 push	 1
  00032	56		 push	 esi
  00033	e8 00 00 00 00	 call	 ?PyTuple_GetString@@YA_NPAU_object@@HPAPAD@Z ; PyTuple_GetString
  00038	8b 4d fc	 mov	 ecx, DWORD PTR _pszBoneName$[ebp]
  0003b	33 d2		 xor	 edx, edx
  0003d	84 c0		 test	 al, al

; 497  : 	{
; 498  : 		pszBoneName = NULL;
; 499  : 	}
; 500  : 	//	return Py_BuildException();
; 501  : 	
; 502  : 	// FIXME : bug or error on getting unsigned value
; 503  : 	int iEffectID;
; 504  : 	if (!PyTuple_GetInteger(poArgs, 2, &iEffectID))

  0003f	8d 45 f0	 lea	 eax, DWORD PTR _iEffectID$[ebp]
  00042	50		 push	 eax
  00043	0f 44 ca	 cmove	 ecx, edx
  00046	6a 02		 push	 2
  00048	56		 push	 esi
  00049	89 4d fc	 mov	 DWORD PTR _pszBoneName$[ebp], ecx
  0004c	e8 00 00 00 00	 call	 ?PyTuple_GetInteger@@YA_NPAU_object@@HPAH@Z ; PyTuple_GetInteger
  00051	83 c4 18	 add	 esp, 24			; 00000018H
  00054	84 c0		 test	 al, al
  00056	74 c5		 je	 SHORT $LN11@chrAttachE

; 505  : 		return Py_BuildException();
; 506  : 
; 507  : 	int iLife = CActorInstance::EFFECT_LIFE_INFINITE;
; 508  : 	
; 509  : 	if (PyTuple_Size(poArgs)==4)

  00058	56		 push	 esi
  00059	c7 45 f8 01 00
	00 00		 mov	 DWORD PTR _iLife$[ebp], 1
  00060	ff 15 00 00 00
	00		 call	 DWORD PTR __imp__PyTuple_Size
  00066	83 c4 04	 add	 esp, 4
  00069	83 f8 04	 cmp	 eax, 4
  0006c	75 13		 jne	 SHORT $LN2@chrAttachE

; 510  : 	{
; 511  : 		if (!PyTuple_GetInteger(poArgs, 3, &iLife))

  0006e	8d 45 f8	 lea	 eax, DWORD PTR _iLife$[ebp]
  00071	50		 push	 eax
  00072	6a 03		 push	 3
  00074	56		 push	 esi
  00075	e8 00 00 00 00	 call	 ?PyTuple_GetInteger@@YA_NPAU_object@@HPAH@Z ; PyTuple_GetInteger
  0007a	83 c4 0c	 add	 esp, 12			; 0000000cH
  0007d	84 c0		 test	 al, al
  0007f	74 9c		 je	 SHORT $LN11@chrAttachE
$LN2@chrAttachE:

; 512  : 			return Py_BuildException();
; 513  : 	}
; 514  : 	
; 515  : 	CInstanceBase * pkInst = CPythonCharacterManager::Instance().GetSelectedInstancePtr();

  00081	8b 0d 00 00 00
	00		 mov	 ecx, DWORD PTR ?ms_singleton@?$CSingleton@VCPythonCharacterManager@@@@0PAVCPythonCharacterManager@@A ; CSingleton<CPythonCharacterManager>::ms_singleton
  00087	e8 00 00 00 00	 call	 ?GetSelectedInstancePtr@CPythonCharacterManager@@QAEPAVCInstanceBase@@XZ ; CPythonCharacterManager::GetSelectedInstancePtr

; 516  : 	
; 517  : 	if (!pkInst)
; 518  : 		return Py_BuildNone();
; 519  : 	
; 520  : 	//pkInst->AttachEffectByID(iParentPartIndex, pszBoneName, iEffectID, iLife);
; 521  : 	return Py_BuildNone();

  0008c	e8 00 00 00 00	 call	 ?Py_BuildNone@@YAPAU_object@@XZ ; Py_BuildNone
  00091	5e		 pop	 esi

; 522  : }

  00092	8b e5		 mov	 esp, ebp
  00094	5d		 pop	 ebp
  00095	c3		 ret	 0
?chrAttachEffectByID@@YAPAU_object@@PAU1@0@Z ENDP	; chrAttachEffectByID
_TEXT	ENDS
; Function compile flags: /Ogtp
; File d:\metin2\metin2\client_source_clean\client_source_clean\source\userinterface\pythoncharactermodule.cpp
;	COMDAT ?chrRefresh@@YAPAU_object@@PAU1@0@Z
_TEXT	SEGMENT
_poSelf$ = 8						; size = 4
_poArgs$ = 12						; size = 4
?chrRefresh@@YAPAU_object@@PAU1@0@Z PROC		; chrRefresh, COMDAT

; 526  : 	CInstanceBase * pkInst = CPythonCharacterManager::Instance().GetSelectedInstancePtr();

  00000	8b 0d 00 00 00
	00		 mov	 ecx, DWORD PTR ?ms_singleton@?$CSingleton@VCPythonCharacterManager@@@@0PAVCPythonCharacterManager@@A ; CSingleton<CPythonCharacterManager>::ms_singleton
  00006	e8 00 00 00 00	 call	 ?GetSelectedInstancePtr@CPythonCharacterManager@@QAEPAVCInstanceBase@@XZ ; CPythonCharacterManager::GetSelectedInstancePtr

; 527  : 
; 528  : 	if (!pkInst)
; 529  : 		return Py_BuildNone();

  0000b	e9 00 00 00 00	 jmp	 ?Py_BuildNone@@YAPAU_object@@XZ ; Py_BuildNone
?chrRefresh@@YAPAU_object@@PAU1@0@Z ENDP		; chrRefresh
_TEXT	ENDS
; Function compile flags: /Ogtp
; File d:\metin2\metin2\client_source_clean\client_source_clean\source\userinterface\pythoncharactermodule.cpp
;	COMDAT ?chrMountHorse@@YAPAU_object@@PAU1@0@Z
_TEXT	SEGMENT
_poSelf$ = 8						; size = 4
_poArgs$ = 12						; size = 4
?chrMountHorse@@YAPAU_object@@PAU1@0@Z PROC		; chrMountHorse, COMDAT

; 538  : 	CInstanceBase * pkInst = CPythonCharacterManager::Instance().GetSelectedInstancePtr();

  00000	8b 0d 00 00 00
	00		 mov	 ecx, DWORD PTR ?ms_singleton@?$CSingleton@VCPythonCharacterManager@@@@0PAVCPythonCharacterManager@@A ; CSingleton<CPythonCharacterManager>::ms_singleton
  00006	e8 00 00 00 00	 call	 ?GetSelectedInstancePtr@CPythonCharacterManager@@QAEPAVCInstanceBase@@XZ ; CPythonCharacterManager::GetSelectedInstancePtr

; 539  : 	if (!pkInst)

  0000b	85 c0		 test	 eax, eax
  0000d	0f 84 00 00 00
	00		 je	 ?Py_BuildNone@@YAPAU_object@@XZ ; Py_BuildNone

; 540  : 		return Py_BuildNone();
; 541  :  	pkInst->MountHorse(20030);

  00013	68 3e 4e 00 00	 push	 20030			; 00004e3eH
  00018	8b c8		 mov	 ecx, eax
  0001a	e8 00 00 00 00	 call	 ?MountHorse@CInstanceBase@@QAEXI@Z ; CInstanceBase::MountHorse

; 542  : 	return Py_BuildNone();

  0001f	e9 00 00 00 00	 jmp	 ?Py_BuildNone@@YAPAU_object@@XZ ; Py_BuildNone
?chrMountHorse@@YAPAU_object@@PAU1@0@Z ENDP		; chrMountHorse
_TEXT	ENDS
; Function compile flags: /Ogtp
; File d:\metin2\metin2\client_source_clean\client_source_clean\source\userinterface\pythoncharactermodule.cpp
;	COMDAT ?chrDismountHorse@@YAPAU_object@@PAU1@0@Z
_TEXT	SEGMENT
_poSelf$ = 8						; size = 4
_poArgs$ = 12						; size = 4
?chrDismountHorse@@YAPAU_object@@PAU1@0@Z PROC		; chrDismountHorse, COMDAT

; 547  : 	CInstanceBase * pkInst = CPythonCharacterManager::Instance().GetSelectedInstancePtr();

  00000	8b 0d 00 00 00
	00		 mov	 ecx, DWORD PTR ?ms_singleton@?$CSingleton@VCPythonCharacterManager@@@@0PAVCPythonCharacterManager@@A ; CSingleton<CPythonCharacterManager>::ms_singleton
  00006	e8 00 00 00 00	 call	 ?GetSelectedInstancePtr@CPythonCharacterManager@@QAEPAVCInstanceBase@@XZ ; CPythonCharacterManager::GetSelectedInstancePtr

; 548  : 	if (!pkInst)

  0000b	85 c0		 test	 eax, eax
  0000d	0f 84 00 00 00
	00		 je	 ?Py_BuildNone@@YAPAU_object@@XZ ; Py_BuildNone

; 549  : 		return Py_BuildNone();
; 550  :  	pkInst->DismountHorse();

  00013	8b c8		 mov	 ecx, eax
  00015	e8 00 00 00 00	 call	 ?DismountHorse@CInstanceBase@@QAEXXZ ; CInstanceBase::DismountHorse

; 551  : 	return Py_BuildNone();

  0001a	e9 00 00 00 00	 jmp	 ?Py_BuildNone@@YAPAU_object@@XZ ; Py_BuildNone
?chrDismountHorse@@YAPAU_object@@PAU1@0@Z ENDP		; chrDismountHorse
_TEXT	ENDS
; Function compile flags: /Ogtp
; File d:\metin2\metin2\client_source_clean\client_source_clean\source\userinterface\pythoncharactermodule.cpp
;	COMDAT ?chrRevive@@YAPAU_object@@PAU1@0@Z
_TEXT	SEGMENT
_poSelf$ = 8						; size = 4
_poArgs$ = 12						; size = 4
?chrRevive@@YAPAU_object@@PAU1@0@Z PROC			; chrRevive, COMDAT

; 556  : 	CInstanceBase * pkInst = CPythonCharacterManager::Instance().GetSelectedInstancePtr();

  00000	8b 0d 00 00 00
	00		 mov	 ecx, DWORD PTR ?ms_singleton@?$CSingleton@VCPythonCharacterManager@@@@0PAVCPythonCharacterManager@@A ; CSingleton<CPythonCharacterManager>::ms_singleton
  00006	e8 00 00 00 00	 call	 ?GetSelectedInstancePtr@CPythonCharacterManager@@QAEPAVCInstanceBase@@XZ ; CPythonCharacterManager::GetSelectedInstancePtr

; 557  : 	if (!pkInst)

  0000b	85 c0		 test	 eax, eax
  0000d	0f 84 00 00 00
	00		 je	 ?Py_BuildNone@@YAPAU_object@@XZ ; Py_BuildNone

; 558  : 		return Py_BuildNone();
; 559  :  	pkInst->Revive();

  00013	8b c8		 mov	 ecx, eax
  00015	e8 00 00 00 00	 call	 ?Revive@CInstanceBase@@QAEXXZ ; CInstanceBase::Revive

; 560  : 	return Py_BuildNone();

  0001a	e9 00 00 00 00	 jmp	 ?Py_BuildNone@@YAPAU_object@@XZ ; Py_BuildNone
?chrRevive@@YAPAU_object@@PAU1@0@Z ENDP			; chrRevive
_TEXT	ENDS
; Function compile flags: /Ogtp
; File d:\metin2\metin2\client_source_clean\client_source_clean\source\userinterface\pythoncharactermodule.cpp
;	COMDAT ?chrDie@@YAPAU_object@@PAU1@0@Z
_TEXT	SEGMENT
_poSelf$ = 8						; size = 4
_poArgs$ = 12						; size = 4
?chrDie@@YAPAU_object@@PAU1@0@Z PROC			; chrDie, COMDAT

; 565  : 	CInstanceBase * pkInst = CPythonCharacterManager::Instance().GetSelectedInstancePtr();

  00000	8b 0d 00 00 00
	00		 mov	 ecx, DWORD PTR ?ms_singleton@?$CSingleton@VCPythonCharacterManager@@@@0PAVCPythonCharacterManager@@A ; CSingleton<CPythonCharacterManager>::ms_singleton
  00006	e8 00 00 00 00	 call	 ?GetSelectedInstancePtr@CPythonCharacterManager@@QAEPAVCInstanceBase@@XZ ; CPythonCharacterManager::GetSelectedInstancePtr

; 566  : 	if (!pkInst)

  0000b	85 c0		 test	 eax, eax
  0000d	0f 84 00 00 00
	00		 je	 ?Py_BuildNone@@YAPAU_object@@XZ ; Py_BuildNone

; 567  : 		return Py_BuildNone();
; 568  :  	pkInst->Die();

  00013	8b c8		 mov	 ecx, eax
  00015	e8 00 00 00 00	 call	 ?Die@CInstanceBase@@QAEXXZ ; CInstanceBase::Die

; 569  : 	return Py_BuildNone();

  0001a	e9 00 00 00 00	 jmp	 ?Py_BuildNone@@YAPAU_object@@XZ ; Py_BuildNone
?chrDie@@YAPAU_object@@PAU1@0@Z ENDP			; chrDie
_TEXT	ENDS
; Function compile flags: /Ogtp
; File d:\metin2\metin2\client_source_clean\client_source_clean\source\userinterface\pythoncharactermodule.cpp
;	COMDAT ?chrLookAt@@YAPAU_object@@PAU1@0@Z
_TEXT	SEGMENT
_iCellY$ = -8						; size = 4
_iCellX$ = -4						; size = 4
_poSelf$ = 8						; size = 4
_poArgs$ = 12						; size = 4
?chrLookAt@@YAPAU_object@@PAU1@0@Z PROC			; chrLookAt, COMDAT

; 573  : {

  00000	55		 push	 ebp
  00001	8b ec		 mov	 ebp, esp
  00003	83 ec 08	 sub	 esp, 8

; 574  : 	int iCellX;
; 575  : 	if (!PyTuple_GetInteger(poArgs, 0, &iCellX))

  00006	8d 45 fc	 lea	 eax, DWORD PTR _iCellX$[ebp]
  00009	50		 push	 eax
  0000a	6a 00		 push	 0
  0000c	ff 75 0c	 push	 DWORD PTR _poArgs$[ebp]
  0000f	e8 00 00 00 00	 call	 ?PyTuple_GetInteger@@YA_NPAU_object@@HPAH@Z ; PyTuple_GetInteger
  00014	83 c4 0c	 add	 esp, 12			; 0000000cH
  00017	84 c0		 test	 al, al
  00019	75 0e		 jne	 SHORT $LN3@chrLookAt
$LN8@chrLookAt:

; 576  : 		return Py_BuildException();

  0001b	6a 00		 push	 0
  0001d	e8 00 00 00 00	 call	 ?Py_BuildException@@YAPAU_object@@PBDZZ ; Py_BuildException
  00022	83 c4 04	 add	 esp, 4

; 587  : }

  00025	8b e5		 mov	 esp, ebp
  00027	5d		 pop	 ebp
  00028	c3		 ret	 0
$LN3@chrLookAt:

; 577  : 
; 578  : 	int iCellY;
; 579  : 	if (!PyTuple_GetInteger(poArgs, 1, &iCellY))

  00029	8d 45 f8	 lea	 eax, DWORD PTR _iCellY$[ebp]
  0002c	50		 push	 eax
  0002d	6a 01		 push	 1
  0002f	ff 75 0c	 push	 DWORD PTR _poArgs$[ebp]
  00032	e8 00 00 00 00	 call	 ?PyTuple_GetInteger@@YA_NPAU_object@@HPAH@Z ; PyTuple_GetInteger
  00037	83 c4 0c	 add	 esp, 12			; 0000000cH
  0003a	84 c0		 test	 al, al
  0003c	74 dd		 je	 SHORT $LN8@chrLookAt

; 580  : 		return Py_BuildException();
; 581  : 
; 582  : 	CInstanceBase * pkInst = CPythonCharacterManager::Instance().GetSelectedInstancePtr();

  0003e	8b 0d 00 00 00
	00		 mov	 ecx, DWORD PTR ?ms_singleton@?$CSingleton@VCPythonCharacterManager@@@@0PAVCPythonCharacterManager@@A ; CSingleton<CPythonCharacterManager>::ms_singleton
  00044	e8 00 00 00 00	 call	 ?GetSelectedInstancePtr@CPythonCharacterManager@@QAEPAVCInstanceBase@@XZ ; CPythonCharacterManager::GetSelectedInstancePtr

; 583  : 	if (!pkInst)
; 584  : 		return Py_BuildNone();
; 585  : // 	pkInst->LookAt(TPixelPosition(iCellX * c_Section_xAttributeCellSize, iCellY * c_Section_xAttributeCellSize));
; 586  : 	return Py_BuildNone();

  00049	e8 00 00 00 00	 call	 ?Py_BuildNone@@YAPAU_object@@XZ ; Py_BuildNone

; 587  : }

  0004e	8b e5		 mov	 esp, ebp
  00050	5d		 pop	 ebp
  00051	c3		 ret	 0
?chrLookAt@@YAPAU_object@@PAU1@0@Z ENDP			; chrLookAt
_TEXT	ENDS
; Function compile flags: /Ogtp
; File d:\metin2\metin2\client_source_clean\client_source_clean\source\userinterface\pythoncharactermodule.cpp
;	COMDAT ?chrSetMotionMode@@YAPAU_object@@PAU1@0@Z
_TEXT	SEGMENT
_iMotionMode$ = -4					; size = 4
_poSelf$ = 8						; size = 4
_poArgs$ = 12						; size = 4
?chrSetMotionMode@@YAPAU_object@@PAU1@0@Z PROC		; chrSetMotionMode, COMDAT

; 590  : {

  00000	55		 push	 ebp
  00001	8b ec		 mov	 ebp, esp
  00003	51		 push	 ecx

; 591  : 	int iMotionMode;
; 592  : 	if (!PyTuple_GetInteger(poArgs, 0, &iMotionMode))

  00004	8d 45 fc	 lea	 eax, DWORD PTR _iMotionMode$[ebp]
  00007	50		 push	 eax
  00008	6a 00		 push	 0
  0000a	ff 75 0c	 push	 DWORD PTR _poArgs$[ebp]
  0000d	e8 00 00 00 00	 call	 ?PyTuple_GetInteger@@YA_NPAU_object@@HPAH@Z ; PyTuple_GetInteger
  00012	83 c4 0c	 add	 esp, 12			; 0000000cH
  00015	84 c0		 test	 al, al
  00017	75 0e		 jne	 SHORT $LN2@chrSetMoti

; 593  : 		return Py_BuildException();

  00019	6a 00		 push	 0
  0001b	e8 00 00 00 00	 call	 ?Py_BuildException@@YAPAU_object@@PBDZZ ; Py_BuildException
  00020	83 c4 04	 add	 esp, 4

; 601  : }

  00023	8b e5		 mov	 esp, ebp
  00025	5d		 pop	 ebp
  00026	c3		 ret	 0
$LN2@chrSetMoti:

; 594  : 
; 595  : 	CInstanceBase * pkInst = CPythonCharacterManager::Instance().GetSelectedInstancePtr();

  00027	8b 0d 00 00 00
	00		 mov	 ecx, DWORD PTR ?ms_singleton@?$CSingleton@VCPythonCharacterManager@@@@0PAVCPythonCharacterManager@@A ; CSingleton<CPythonCharacterManager>::ms_singleton
  0002d	e8 00 00 00 00	 call	 ?GetSelectedInstancePtr@CPythonCharacterManager@@QAEPAVCInstanceBase@@XZ ; CPythonCharacterManager::GetSelectedInstancePtr

; 596  : 	if (!pkInst)

  00032	85 c0		 test	 eax, eax
  00034	74 0a		 je	 SHORT $LN7@chrSetMoti

; 597  : 		return Py_BuildNone();
; 598  : 
; 599  : 	pkInst->SetMotionMode(iMotionMode);

  00036	ff 75 fc	 push	 DWORD PTR _iMotionMode$[ebp]
  00039	8b c8		 mov	 ecx, eax
  0003b	e8 00 00 00 00	 call	 ?SetMotionMode@CInstanceBase@@QAEXH@Z ; CInstanceBase::SetMotionMode
$LN7@chrSetMoti:

; 600  : 	return Py_BuildNone();

  00040	e8 00 00 00 00	 call	 ?Py_BuildNone@@YAPAU_object@@XZ ; Py_BuildNone

; 601  : }

  00045	8b e5		 mov	 esp, ebp
  00047	5d		 pop	 ebp
  00048	c3		 ret	 0
?chrSetMotionMode@@YAPAU_object@@PAU1@0@Z ENDP		; chrSetMotionMode
_TEXT	ENDS
; Function compile flags: /Ogtp
; File d:\metin2\metin2\client_source_clean\client_source_clean\source\userinterface\pythoncharactermodule.cpp
;	COMDAT ?chrSetLoopMotion@@YAPAU_object@@PAU1@0@Z
_TEXT	SEGMENT
_iMotionIndex$ = -4					; size = 4
_poSelf$ = 8						; size = 4
_poArgs$ = 12						; size = 4
?chrSetLoopMotion@@YAPAU_object@@PAU1@0@Z PROC		; chrSetLoopMotion, COMDAT

; 604  : {

  00000	55		 push	 ebp
  00001	8b ec		 mov	 ebp, esp
  00003	51		 push	 ecx

; 605  : 	int iMotionIndex;
; 606  : 	if (!PyTuple_GetInteger(poArgs, 0, &iMotionIndex))

  00004	8d 45 fc	 lea	 eax, DWORD PTR _iMotionIndex$[ebp]
  00007	50		 push	 eax
  00008	6a 00		 push	 0
  0000a	ff 75 0c	 push	 DWORD PTR _poArgs$[ebp]
  0000d	e8 00 00 00 00	 call	 ?PyTuple_GetInteger@@YA_NPAU_object@@HPAH@Z ; PyTuple_GetInteger
  00012	83 c4 0c	 add	 esp, 12			; 0000000cH
  00015	84 c0		 test	 al, al
  00017	75 0e		 jne	 SHORT $LN2@chrSetLoop

; 607  : 		return Py_BuildException();

  00019	6a 00		 push	 0
  0001b	e8 00 00 00 00	 call	 ?Py_BuildException@@YAPAU_object@@PBDZZ ; Py_BuildException
  00020	83 c4 04	 add	 esp, 4

; 615  : }

  00023	8b e5		 mov	 esp, ebp
  00025	5d		 pop	 ebp
  00026	c3		 ret	 0
$LN2@chrSetLoop:

; 608  : 
; 609  : 	CInstanceBase * pkInst = CPythonCharacterManager::Instance().GetSelectedInstancePtr();

  00027	8b 0d 00 00 00
	00		 mov	 ecx, DWORD PTR ?ms_singleton@?$CSingleton@VCPythonCharacterManager@@@@0PAVCPythonCharacterManager@@A ; CSingleton<CPythonCharacterManager>::ms_singleton
  0002d	e8 00 00 00 00	 call	 ?GetSelectedInstancePtr@CPythonCharacterManager@@QAEPAVCInstanceBase@@XZ ; CPythonCharacterManager::GetSelectedInstancePtr

; 610  : 	if (!pkInst)

  00032	85 c0		 test	 eax, eax
  00034	74 1a		 je	 SHORT $LN7@chrSetLoop

; 611  : 		return Py_BuildNone();
; 612  : 	pkInst->SetLoopMotion(WORD(iMotionIndex));

  00036	ff 75 fc	 push	 DWORD PTR _iMotionIndex$[ebp]
  00039	f3 0f 10 1d 00
	00 00 00	 movss	 xmm3, DWORD PTR __real@3f800000
  00041	8b c8		 mov	 ecx, eax
  00043	f3 0f 10 15 00
	00 00 00	 movss	 xmm2, DWORD PTR __real@3dcccccd
  0004b	e8 00 00 00 00	 call	 ?SetLoopMotion@CInstanceBase@@QAEXGMM@Z ; CInstanceBase::SetLoopMotion
$LN7@chrSetLoop:

; 613  : 
; 614  : 	return Py_BuildNone();

  00050	e8 00 00 00 00	 call	 ?Py_BuildNone@@YAPAU_object@@XZ ; Py_BuildNone

; 615  : }

  00055	8b e5		 mov	 esp, ebp
  00057	5d		 pop	 ebp
  00058	c3		 ret	 0
?chrSetLoopMotion@@YAPAU_object@@PAU1@0@Z ENDP		; chrSetLoopMotion
_TEXT	ENDS
; Function compile flags: /Ogtp
; File d:\metin2\metin2\client_source_clean\client_source_clean\source\userinterface\pythoncharactermodule.cpp
;	COMDAT ?chrBlendLoopMotion@@YAPAU_object@@PAU1@0@Z
_TEXT	SEGMENT
_fBlendTime$ = -8					; size = 4
_iMotionIndex$ = -4					; size = 4
_poSelf$ = 8						; size = 4
_poArgs$ = 12						; size = 4
?chrBlendLoopMotion@@YAPAU_object@@PAU1@0@Z PROC	; chrBlendLoopMotion, COMDAT

; 618  : {

  00000	55		 push	 ebp
  00001	8b ec		 mov	 ebp, esp
  00003	83 ec 08	 sub	 esp, 8

; 619  : 	int iMotionIndex;
; 620  : 	if (!PyTuple_GetInteger(poArgs, 0, &iMotionIndex))

  00006	8d 45 fc	 lea	 eax, DWORD PTR _iMotionIndex$[ebp]
  00009	50		 push	 eax
  0000a	6a 00		 push	 0
  0000c	ff 75 0c	 push	 DWORD PTR _poArgs$[ebp]
  0000f	e8 00 00 00 00	 call	 ?PyTuple_GetInteger@@YA_NPAU_object@@HPAH@Z ; PyTuple_GetInteger
  00014	83 c4 0c	 add	 esp, 12			; 0000000cH
  00017	84 c0		 test	 al, al
  00019	75 0e		 jne	 SHORT $LN3@chrBlendLo
$LN9@chrBlendLo:

; 621  : 		return Py_BuildException();

  0001b	6a 00		 push	 0
  0001d	e8 00 00 00 00	 call	 ?Py_BuildException@@YAPAU_object@@PBDZZ ; Py_BuildException
  00022	83 c4 04	 add	 esp, 4

; 632  : }

  00025	8b e5		 mov	 esp, ebp
  00027	5d		 pop	 ebp
  00028	c3		 ret	 0
$LN3@chrBlendLo:

; 622  : 	float fBlendTime;
; 623  : 	if (!PyTuple_GetFloat(poArgs, 1, &fBlendTime))

  00029	8d 45 f8	 lea	 eax, DWORD PTR _fBlendTime$[ebp]
  0002c	50		 push	 eax
  0002d	6a 01		 push	 1
  0002f	ff 75 0c	 push	 DWORD PTR _poArgs$[ebp]
  00032	e8 00 00 00 00	 call	 ?PyTuple_GetFloat@@YA_NPAU_object@@HPAM@Z ; PyTuple_GetFloat
  00037	83 c4 0c	 add	 esp, 12			; 0000000cH
  0003a	84 c0		 test	 al, al
  0003c	74 dd		 je	 SHORT $LN9@chrBlendLo

; 624  : 		return Py_BuildException();
; 625  : 
; 626  : 	CInstanceBase * pkInst = CPythonCharacterManager::Instance().GetSelectedInstancePtr();

  0003e	8b 0d 00 00 00
	00		 mov	 ecx, DWORD PTR ?ms_singleton@?$CSingleton@VCPythonCharacterManager@@@@0PAVCPythonCharacterManager@@A ; CSingleton<CPythonCharacterManager>::ms_singleton
  00044	e8 00 00 00 00	 call	 ?GetSelectedInstancePtr@CPythonCharacterManager@@QAEPAVCInstanceBase@@XZ ; CPythonCharacterManager::GetSelectedInstancePtr

; 627  : 	if (!pkInst)

  00049	85 c0		 test	 eax, eax
  0004b	74 17		 je	 SHORT $LN8@chrBlendLo

; 628  : 		return Py_BuildNone();
; 629  : 	pkInst->SetLoopMotion(WORD(iMotionIndex), fBlendTime);

  0004d	ff 75 fc	 push	 DWORD PTR _iMotionIndex$[ebp]
  00050	f3 0f 10 1d 00
	00 00 00	 movss	 xmm3, DWORD PTR __real@3f800000
  00058	8b c8		 mov	 ecx, eax
  0005a	f3 0f 10 55 f8	 movss	 xmm2, DWORD PTR _fBlendTime$[ebp]
  0005f	e8 00 00 00 00	 call	 ?SetLoopMotion@CInstanceBase@@QAEXGMM@Z ; CInstanceBase::SetLoopMotion
$LN8@chrBlendLo:

; 630  : 
; 631  : 	return Py_BuildNone();

  00064	e8 00 00 00 00	 call	 ?Py_BuildNone@@YAPAU_object@@XZ ; Py_BuildNone

; 632  : }

  00069	8b e5		 mov	 esp, ebp
  0006b	5d		 pop	 ebp
  0006c	c3		 ret	 0
?chrBlendLoopMotion@@YAPAU_object@@PAU1@0@Z ENDP	; chrBlendLoopMotion
_TEXT	ENDS
; Function compile flags: /Ogtp
; File d:\metin2\metin2\client_source_clean\client_source_clean\source\userinterface\pythoncharactermodule.cpp
;	COMDAT ?chrPushOnceMotion@@YAPAU_object@@PAU1@0@Z
_TEXT	SEGMENT
_iMotionIndex$ = -8					; size = 4
_fBlendTime$ = -4					; size = 4
_poSelf$ = 8						; size = 4
_poArgs$ = 12						; size = 4
?chrPushOnceMotion@@YAPAU_object@@PAU1@0@Z PROC		; chrPushOnceMotion, COMDAT

; 635  : {

  00000	55		 push	 ebp
  00001	8b ec		 mov	 ebp, esp
  00003	83 ec 08	 sub	 esp, 8

; 636  : 	int iMotionIndex;
; 637  : 	if (!PyTuple_GetInteger(poArgs, 0, &iMotionIndex))

  00006	8d 45 f8	 lea	 eax, DWORD PTR _iMotionIndex$[ebp]
  00009	50		 push	 eax
  0000a	6a 00		 push	 0
  0000c	ff 75 0c	 push	 DWORD PTR _poArgs$[ebp]
  0000f	e8 00 00 00 00	 call	 ?PyTuple_GetInteger@@YA_NPAU_object@@HPAH@Z ; PyTuple_GetInteger
  00014	83 c4 0c	 add	 esp, 12			; 0000000cH
  00017	84 c0		 test	 al, al
  00019	75 0e		 jne	 SHORT $LN3@chrPushOnc

; 638  : 		return Py_BuildException();

  0001b	6a 00		 push	 0
  0001d	e8 00 00 00 00	 call	 ?Py_BuildException@@YAPAU_object@@PBDZZ ; Py_BuildException
  00022	83 c4 04	 add	 esp, 4

; 652  : }

  00025	8b e5		 mov	 esp, ebp
  00027	5d		 pop	 ebp
  00028	c3		 ret	 0
$LN3@chrPushOnc:

; 639  : 
; 640  : 	float fBlendTime;
; 641  : 	if (!PyTuple_GetFloat(poArgs, 1, &fBlendTime))

  00029	8d 45 fc	 lea	 eax, DWORD PTR _fBlendTime$[ebp]
  0002c	50		 push	 eax
  0002d	6a 01		 push	 1
  0002f	ff 75 0c	 push	 DWORD PTR _poArgs$[ebp]
  00032	e8 00 00 00 00	 call	 ?PyTuple_GetFloat@@YA_NPAU_object@@HPAM@Z ; PyTuple_GetFloat
  00037	83 c4 0c	 add	 esp, 12			; 0000000cH
  0003a	84 c0		 test	 al, al
  0003c	75 0f		 jne	 SHORT $LN8@chrPushOnc

; 642  : 	{
; 643  : 		fBlendTime = 0.1f;

  0003e	f3 0f 10 15 00
	00 00 00	 movss	 xmm2, DWORD PTR __real@3dcccccd
  00046	f3 0f 11 55 fc	 movss	 DWORD PTR _fBlendTime$[ebp], xmm2
  0004b	eb 05		 jmp	 SHORT $LN2@chrPushOnc
$LN8@chrPushOnc:
  0004d	f3 0f 10 55 fc	 movss	 xmm2, DWORD PTR _fBlendTime$[ebp]
$LN2@chrPushOnc:

; 644  : 	}
; 645  : 
; 646  : 	CInstanceBase * pkInst = CPythonCharacterManager::Instance().GetSelectedInstancePtr();

  00052	8b 0d 00 00 00
	00		 mov	 ecx, DWORD PTR ?ms_singleton@?$CSingleton@VCPythonCharacterManager@@@@0PAVCPythonCharacterManager@@A ; CSingleton<CPythonCharacterManager>::ms_singleton
  00058	e8 00 00 00 00	 call	 ?GetSelectedInstancePtr@CPythonCharacterManager@@QAEPAVCInstanceBase@@XZ ; CPythonCharacterManager::GetSelectedInstancePtr

; 647  : 	if (!pkInst)

  0005d	85 c0		 test	 eax, eax
  0005f	74 12		 je	 SHORT $LN9@chrPushOnc

; 648  : 		return Py_BuildNone();
; 649  : 	pkInst->PushOnceMotion(WORD(iMotionIndex), fBlendTime);

  00061	ff 75 f8	 push	 DWORD PTR _iMotionIndex$[ebp]
  00064	f3 0f 10 1d 00
	00 00 00	 movss	 xmm3, DWORD PTR __real@3f800000
  0006c	8b c8		 mov	 ecx, eax
  0006e	e8 00 00 00 00	 call	 ?PushOnceMotion@CInstanceBase@@QAEXGMM@Z ; CInstanceBase::PushOnceMotion
$LN9@chrPushOnc:

; 650  : 
; 651  : 	return Py_BuildNone();

  00073	e8 00 00 00 00	 call	 ?Py_BuildNone@@YAPAU_object@@XZ ; Py_BuildNone

; 652  : }

  00078	8b e5		 mov	 esp, ebp
  0007a	5d		 pop	 ebp
  0007b	c3		 ret	 0
?chrPushOnceMotion@@YAPAU_object@@PAU1@0@Z ENDP		; chrPushOnceMotion
_TEXT	ENDS
; Function compile flags: /Ogtp
; File d:\metin2\metin2\client_source_clean\client_source_clean\source\userinterface\pythoncharactermodule.cpp
;	COMDAT ?chrPushLoopMotion@@YAPAU_object@@PAU1@0@Z
_TEXT	SEGMENT
_iMotionIndex$ = -8					; size = 4
_fBlendTime$ = -4					; size = 4
_poSelf$ = 8						; size = 4
_poArgs$ = 12						; size = 4
?chrPushLoopMotion@@YAPAU_object@@PAU1@0@Z PROC		; chrPushLoopMotion, COMDAT

; 655  : {

  00000	55		 push	 ebp
  00001	8b ec		 mov	 ebp, esp
  00003	83 ec 08	 sub	 esp, 8

; 656  : 	int iMotionIndex;
; 657  : 	if (!PyTuple_GetInteger(poArgs, 0, &iMotionIndex))

  00006	8d 45 f8	 lea	 eax, DWORD PTR _iMotionIndex$[ebp]
  00009	50		 push	 eax
  0000a	6a 00		 push	 0
  0000c	ff 75 0c	 push	 DWORD PTR _poArgs$[ebp]
  0000f	e8 00 00 00 00	 call	 ?PyTuple_GetInteger@@YA_NPAU_object@@HPAH@Z ; PyTuple_GetInteger
  00014	83 c4 0c	 add	 esp, 12			; 0000000cH
  00017	84 c0		 test	 al, al
  00019	75 0e		 jne	 SHORT $LN3@chrPushLoo

; 658  : 		return Py_BuildException();

  0001b	6a 00		 push	 0
  0001d	e8 00 00 00 00	 call	 ?Py_BuildException@@YAPAU_object@@PBDZZ ; Py_BuildException
  00022	83 c4 04	 add	 esp, 4

; 672  : }

  00025	8b e5		 mov	 esp, ebp
  00027	5d		 pop	 ebp
  00028	c3		 ret	 0
$LN3@chrPushLoo:

; 659  : 
; 660  : 	float fBlendTime;
; 661  : 	if (!PyTuple_GetFloat(poArgs, 1, &fBlendTime))

  00029	8d 45 fc	 lea	 eax, DWORD PTR _fBlendTime$[ebp]
  0002c	50		 push	 eax
  0002d	6a 01		 push	 1
  0002f	ff 75 0c	 push	 DWORD PTR _poArgs$[ebp]
  00032	e8 00 00 00 00	 call	 ?PyTuple_GetFloat@@YA_NPAU_object@@HPAM@Z ; PyTuple_GetFloat
  00037	83 c4 0c	 add	 esp, 12			; 0000000cH
  0003a	84 c0		 test	 al, al
  0003c	75 0f		 jne	 SHORT $LN8@chrPushLoo

; 662  : 	{
; 663  : 		fBlendTime = 0.1f;

  0003e	f3 0f 10 15 00
	00 00 00	 movss	 xmm2, DWORD PTR __real@3dcccccd
  00046	f3 0f 11 55 fc	 movss	 DWORD PTR _fBlendTime$[ebp], xmm2
  0004b	eb 05		 jmp	 SHORT $LN2@chrPushLoo
$LN8@chrPushLoo:
  0004d	f3 0f 10 55 fc	 movss	 xmm2, DWORD PTR _fBlendTime$[ebp]
$LN2@chrPushLoo:

; 664  : 	}
; 665  : 
; 666  : 	CInstanceBase * pkInst = CPythonCharacterManager::Instance().GetSelectedInstancePtr();

  00052	8b 0d 00 00 00
	00		 mov	 ecx, DWORD PTR ?ms_singleton@?$CSingleton@VCPythonCharacterManager@@@@0PAVCPythonCharacterManager@@A ; CSingleton<CPythonCharacterManager>::ms_singleton
  00058	e8 00 00 00 00	 call	 ?GetSelectedInstancePtr@CPythonCharacterManager@@QAEPAVCInstanceBase@@XZ ; CPythonCharacterManager::GetSelectedInstancePtr

; 667  : 	if (!pkInst)

  0005d	85 c0		 test	 eax, eax
  0005f	74 12		 je	 SHORT $LN9@chrPushLoo

; 668  : 		return Py_BuildNone();
; 669  : 	pkInst->PushLoopMotion(WORD(iMotionIndex), fBlendTime);

  00061	ff 75 f8	 push	 DWORD PTR _iMotionIndex$[ebp]
  00064	f3 0f 10 1d 00
	00 00 00	 movss	 xmm3, DWORD PTR __real@3f800000
  0006c	8b c8		 mov	 ecx, eax
  0006e	e8 00 00 00 00	 call	 ?PushLoopMotion@CInstanceBase@@QAEXGMM@Z ; CInstanceBase::PushLoopMotion
$LN9@chrPushLoo:

; 670  : 
; 671  : 	return Py_BuildNone();

  00073	e8 00 00 00 00	 call	 ?Py_BuildNone@@YAPAU_object@@XZ ; Py_BuildNone

; 672  : }

  00078	8b e5		 mov	 esp, ebp
  0007a	5d		 pop	 ebp
  0007b	c3		 ret	 0
?chrPushLoopMotion@@YAPAU_object@@PAU1@0@Z ENDP		; chrPushLoopMotion
_TEXT	ENDS
; Function compile flags: /Ogtp
; File d:\metin2\metin2\client_source_clean\client_source_clean\source\userinterface\pythoncharactermodule.cpp
; File d:\metin2\metin2\client_source_clean\client_source_clean\extern\include\d3dx8math.inl
; File d:\metin2\metin2\client_source_clean\client_source_clean\source\userinterface\pythoncharactermodule.cpp
; File d:\metin2\metin2\client_source_clean\client_source_clean\extern\include\d3dx8math.inl
; File d:\metin2\metin2\client_source_clean\client_source_clean\source\userinterface\pythoncharactermodule.cpp
; File d:\metin2\metin2\client_source_clean\client_source_clean\extern\include\d3dx8math.inl
; File d:\metin2\metin2\client_source_clean\client_source_clean\source\userinterface\pythoncharactermodule.cpp
;	COMDAT ?chrSetPixelPosition@@YAPAU_object@@PAU1@0@Z
_TEXT	SEGMENT
_iZ$ = -28						; size = 4
_iY$ = -24						; size = 4
_iX$ = -20						; size = 4
$T1 = -16						; size = 12
__$ArrayPad$ = -4					; size = 4
_poSelf$ = 8						; size = 4
_poArgs$ = 12						; size = 4
?chrSetPixelPosition@@YAPAU_object@@PAU1@0@Z PROC	; chrSetPixelPosition, COMDAT

; 675  : {

  00000	55		 push	 ebp
  00001	8b ec		 mov	 ebp, esp
  00003	83 ec 1c	 sub	 esp, 28			; 0000001cH
  00006	a1 00 00 00 00	 mov	 eax, DWORD PTR ___security_cookie
  0000b	33 c5		 xor	 eax, ebp
  0000d	89 45 fc	 mov	 DWORD PTR __$ArrayPad$[ebp], eax
  00010	56		 push	 esi
  00011	8b 75 0c	 mov	 esi, DWORD PTR _poArgs$[ebp]

; 676  : 	int iX;
; 677  : 	if (!PyTuple_GetInteger(poArgs, 0, &iX))

  00014	8d 45 ec	 lea	 eax, DWORD PTR _iX$[ebp]
  00017	50		 push	 eax
  00018	6a 00		 push	 0
  0001a	56		 push	 esi
  0001b	e8 00 00 00 00	 call	 ?PyTuple_GetInteger@@YA_NPAU_object@@HPAH@Z ; PyTuple_GetInteger
  00020	83 c4 0c	 add	 esp, 12			; 0000000cH
  00023	84 c0		 test	 al, al
  00025	75 19		 jne	 SHORT $LN5@chrSetPixe
$LN13@chrSetPixe:

; 678  : 		return Py_BuildException();

  00027	6a 00		 push	 0
  00029	e8 00 00 00 00	 call	 ?Py_BuildException@@YAPAU_object@@PBDZZ ; Py_BuildException
  0002e	83 c4 04	 add	 esp, 4
  00031	5e		 pop	 esi

; 697  : }

  00032	8b 4d fc	 mov	 ecx, DWORD PTR __$ArrayPad$[ebp]
  00035	33 cd		 xor	 ecx, ebp
  00037	e8 00 00 00 00	 call	 @__security_check_cookie@4
  0003c	8b e5		 mov	 esp, ebp
  0003e	5d		 pop	 ebp
  0003f	c3		 ret	 0
$LN5@chrSetPixe:

; 679  : 	int iY;
; 680  : 	if (!PyTuple_GetInteger(poArgs, 1, &iY))

  00040	8d 45 e8	 lea	 eax, DWORD PTR _iY$[ebp]
  00043	50		 push	 eax
  00044	6a 01		 push	 1
  00046	56		 push	 esi
  00047	e8 00 00 00 00	 call	 ?PyTuple_GetInteger@@YA_NPAU_object@@HPAH@Z ; PyTuple_GetInteger
  0004c	83 c4 0c	 add	 esp, 12			; 0000000cH
  0004f	84 c0		 test	 al, al
  00051	74 d4		 je	 SHORT $LN13@chrSetPixe

; 681  : 		return Py_BuildException();
; 682  : 
; 683  : 	CInstanceBase * pkInst = CPythonCharacterManager::Instance().GetSelectedInstancePtr();

  00053	8b 0d 00 00 00
	00		 mov	 ecx, DWORD PTR ?ms_singleton@?$CSingleton@VCPythonCharacterManager@@@@0PAVCPythonCharacterManager@@A ; CSingleton<CPythonCharacterManager>::ms_singleton
  00059	57		 push	 edi
  0005a	e8 00 00 00 00	 call	 ?GetSelectedInstancePtr@CPythonCharacterManager@@QAEPAVCInstanceBase@@XZ ; CPythonCharacterManager::GetSelectedInstancePtr
  0005f	8b f8		 mov	 edi, eax

; 684  : 	if (!pkInst)

  00061	85 ff		 test	 edi, edi
  00063	74 5c		 je	 SHORT $LN1@chrSetPixe

; 685  : 		return Py_BuildNone();
; 686  : 
; 687  : 	int iZ;
; 688  : 	if (PyTuple_GetInteger(poArgs, 2, &iZ))

  00065	8d 45 e4	 lea	 eax, DWORD PTR _iZ$[ebp]
  00068	50		 push	 eax
  00069	6a 02		 push	 2
  0006b	56		 push	 esi
  0006c	e8 00 00 00 00	 call	 ?PyTuple_GetInteger@@YA_NPAU_object@@HPAH@Z ; PyTuple_GetInteger
  00071	83 c4 0c	 add	 esp, 12			; 0000000cH

; 690  : 		pkInst->NEW_SetPixelPosition(TPixelPosition(iX, iY, iZ));

  00074	8b cf		 mov	 ecx, edi
  00076	84 c0		 test	 al, al
  00078	74 32		 je	 SHORT $LN2@chrSetPixe
  0007a	66 0f 6e 45 ec	 movd	 xmm0, DWORD PTR _iX$[ebp]
  0007f	8d 45 f0	 lea	 eax, DWORD PTR $T1[ebp]
  00082	0f 5b c0	 cvtdq2ps xmm0, xmm0
  00085	50		 push	 eax
; File d:\metin2\metin2\client_source_clean\client_source_clean\extern\include\d3dx8math.inl

; 180  :     x = fx;

  00086	f3 0f 11 45 f0	 movss	 DWORD PTR $T1[ebp], xmm0
  0008b	66 0f 6e 45 e8	 movd	 xmm0, DWORD PTR _iY$[ebp]
; File d:\metin2\metin2\client_source_clean\client_source_clean\source\userinterface\pythoncharactermodule.cpp

; 690  : 		pkInst->NEW_SetPixelPosition(TPixelPosition(iX, iY, iZ));

  00090	0f 5b c0	 cvtdq2ps xmm0, xmm0
; File d:\metin2\metin2\client_source_clean\client_source_clean\extern\include\d3dx8math.inl

; 181  :     y = fy;

  00093	f3 0f 11 45 f4	 movss	 DWORD PTR $T1[ebp+4], xmm0
  00098	66 0f 6e 45 e4	 movd	 xmm0, DWORD PTR _iZ$[ebp]
; File d:\metin2\metin2\client_source_clean\client_source_clean\source\userinterface\pythoncharactermodule.cpp

; 690  : 		pkInst->NEW_SetPixelPosition(TPixelPosition(iX, iY, iZ));

  0009d	0f 5b c0	 cvtdq2ps xmm0, xmm0
; File d:\metin2\metin2\client_source_clean\client_source_clean\extern\include\d3dx8math.inl

; 182  :     z = fz;

  000a0	f3 0f 11 45 f8	 movss	 DWORD PTR $T1[ebp+8], xmm0
; File d:\metin2\metin2\client_source_clean\client_source_clean\source\userinterface\pythoncharactermodule.cpp

; 690  : 		pkInst->NEW_SetPixelPosition(TPixelPosition(iX, iY, iZ));

  000a5	e8 00 00 00 00	 call	 ?NEW_SetPixelPosition@CInstanceBase@@QAEXABUD3DXVECTOR3@@@Z ; CInstanceBase::NEW_SetPixelPosition

; 691  : 	}
; 692  : 	else

  000aa	eb 15		 jmp	 SHORT $LN1@chrSetPixe
$LN2@chrSetPixe:
  000ac	66 0f 6e 55 e8	 movd	 xmm2, DWORD PTR _iY$[ebp]
  000b1	66 0f 6e 4d ec	 movd	 xmm1, DWORD PTR _iX$[ebp]

; 693  : 	{
; 694  : 		pkInst->SCRIPT_SetPixelPosition(iX, iY);

  000b6	0f 5b d2	 cvtdq2ps xmm2, xmm2
  000b9	0f 5b c9	 cvtdq2ps xmm1, xmm1
  000bc	e8 00 00 00 00	 call	 ?SCRIPT_SetPixelPosition@CInstanceBase@@QAEXMM@Z ; CInstanceBase::SCRIPT_SetPixelPosition
$LN1@chrSetPixe:

; 695  : 	}
; 696  : 	return Py_BuildNone();

  000c1	e8 00 00 00 00	 call	 ?Py_BuildNone@@YAPAU_object@@XZ ; Py_BuildNone

; 697  : }

  000c6	8b 4d fc	 mov	 ecx, DWORD PTR __$ArrayPad$[ebp]
  000c9	5f		 pop	 edi
  000ca	33 cd		 xor	 ecx, ebp
  000cc	5e		 pop	 esi
  000cd	e8 00 00 00 00	 call	 @__security_check_cookie@4
  000d2	8b e5		 mov	 esp, ebp
  000d4	5d		 pop	 ebp
  000d5	c3		 ret	 0
?chrSetPixelPosition@@YAPAU_object@@PAU1@0@Z ENDP	; chrSetPixelPosition
_TEXT	ENDS
; Function compile flags: /Ogtp
; File d:\metin2\metin2\client_source_clean\client_source_clean\source\userinterface\pythoncharactermodule.cpp
;	COMDAT ?chrSetDirection@@YAPAU_object@@PAU1@0@Z
_TEXT	SEGMENT
_iDirection$ = -4					; size = 4
_poSelf$ = 8						; size = 4
_poArgs$ = 12						; size = 4
?chrSetDirection@@YAPAU_object@@PAU1@0@Z PROC		; chrSetDirection, COMDAT

; 700  : {

  00000	55		 push	 ebp
  00001	8b ec		 mov	 ebp, esp
  00003	51		 push	 ecx

; 701  : 	int iDirection;
; 702  : 	if (!PyTuple_GetInteger(poArgs, 0, &iDirection))

  00004	8d 45 fc	 lea	 eax, DWORD PTR _iDirection$[ebp]
  00007	50		 push	 eax
  00008	6a 00		 push	 0
  0000a	ff 75 0c	 push	 DWORD PTR _poArgs$[ebp]
  0000d	e8 00 00 00 00	 call	 ?PyTuple_GetInteger@@YA_NPAU_object@@HPAH@Z ; PyTuple_GetInteger
  00012	83 c4 0c	 add	 esp, 12			; 0000000cH
  00015	84 c0		 test	 al, al
  00017	75 0e		 jne	 SHORT $LN1@chrSetDire

; 703  : 		return Py_BuildException();

  00019	6a 00		 push	 0
  0001b	e8 00 00 00 00	 call	 ?Py_BuildException@@YAPAU_object@@PBDZZ ; Py_BuildException
  00020	83 c4 04	 add	 esp, 4

; 708  : }

  00023	8b e5		 mov	 esp, ebp
  00025	5d		 pop	 ebp
  00026	c3		 ret	 0
$LN1@chrSetDire:

; 704  : 
; 705  : 	CInstanceBase * pkInst = CPythonCharacterManager::Instance().GetSelectedInstancePtr();
; 706  : 	pkInst->SetDirection(iDirection);

  00027	ff 75 fc	 push	 DWORD PTR _iDirection$[ebp]
  0002a	8b 0d 00 00 00
	00		 mov	 ecx, DWORD PTR ?ms_singleton@?$CSingleton@VCPythonCharacterManager@@@@0PAVCPythonCharacterManager@@A ; CSingleton<CPythonCharacterManager>::ms_singleton
  00030	e8 00 00 00 00	 call	 ?GetSelectedInstancePtr@CPythonCharacterManager@@QAEPAVCInstanceBase@@XZ ; CPythonCharacterManager::GetSelectedInstancePtr
  00035	8b c8		 mov	 ecx, eax
  00037	e8 00 00 00 00	 call	 ?SetDirection@CInstanceBase@@QAEXH@Z ; CInstanceBase::SetDirection

; 707  : 	return Py_BuildNone();

  0003c	e8 00 00 00 00	 call	 ?Py_BuildNone@@YAPAU_object@@XZ ; Py_BuildNone

; 708  : }

  00041	8b e5		 mov	 esp, ebp
  00043	5d		 pop	 ebp
  00044	c3		 ret	 0
?chrSetDirection@@YAPAU_object@@PAU1@0@Z ENDP		; chrSetDirection
_TEXT	ENDS
; Function compile flags: /Ogtp
; File d:\metin2\metin2\client_source_clean\client_source_clean\source\userinterface\pythoncharactermodule.cpp
;	COMDAT ?chrGetPixelPosition@@YAPAU_object@@PAU1@0@Z
_TEXT	SEGMENT
_iVirtualID$ = -16					; size = 4
_PixelPosition$ = -12					; size = 12
_poSelf$ = 8						; size = 4
_poArgs$ = 12						; size = 4
?chrGetPixelPosition@@YAPAU_object@@PAU1@0@Z PROC	; chrGetPixelPosition, COMDAT

; 711  : {

  00000	55		 push	 ebp
  00001	8b ec		 mov	 ebp, esp
  00003	83 e4 c0	 and	 esp, -64		; ffffffc0H
  00006	83 ec 40	 sub	 esp, 64			; 00000040H

; 712  : 	int iVirtualID;
; 713  : 	if (!PyTuple_GetInteger(poArgs, 0, &iVirtualID))

  00009	8d 44 24 30	 lea	 eax, DWORD PTR _iVirtualID$[esp+64]
  0000d	50		 push	 eax
  0000e	6a 00		 push	 0
  00010	ff 75 0c	 push	 DWORD PTR _poArgs$[ebp]
  00013	e8 00 00 00 00	 call	 ?PyTuple_GetInteger@@YA_NPAU_object@@HPAH@Z ; PyTuple_GetInteger
  00018	83 c4 0c	 add	 esp, 12			; 0000000cH
  0001b	84 c0		 test	 al, al
  0001d	75 0e		 jne	 SHORT $LN2@chrGetPixe
$LN9@chrGetPixe:

; 714  : 		return Py_BuildException();

  0001f	6a 00		 push	 0
  00021	e8 00 00 00 00	 call	 ?Py_BuildException@@YAPAU_object@@PBDZZ ; Py_BuildException
  00026	83 c4 04	 add	 esp, 4

; 725  : }

  00029	8b e5		 mov	 esp, ebp
  0002b	5d		 pop	 ebp
  0002c	c3		 ret	 0
$LN2@chrGetPixe:

; 715  : 
; 716  : 	CInstanceBase * pkInst = CPythonCharacterManager::Instance().GetInstancePtr(iVirtualID);

  0002d	8b 0d 00 00 00
	00		 mov	 ecx, DWORD PTR ?ms_singleton@?$CSingleton@VCPythonCharacterManager@@@@0PAVCPythonCharacterManager@@A ; CSingleton<CPythonCharacterManager>::ms_singleton
  00033	ff 74 24 30	 push	 DWORD PTR _iVirtualID$[esp+64]
  00037	83 c1 04	 add	 ecx, 4
  0003a	8b 01		 mov	 eax, DWORD PTR [ecx]
  0003c	ff 50 08	 call	 DWORD PTR [eax+8]

; 717  : 
; 718  : 	if (!pkInst)

  0003f	85 c0		 test	 eax, eax
  00041	74 dc		 je	 SHORT $LN9@chrGetPixe

; 719  : 		return Py_BuildException();
; 720  : 
; 721  : 	TPixelPosition PixelPosition;
; 722  : 	pkInst->NEW_GetPixelPosition(&PixelPosition);

  00043	8d 4c 24 34	 lea	 ecx, DWORD PTR _PixelPosition$[esp+64]
  00047	51		 push	 ecx
  00048	8b c8		 mov	 ecx, eax
  0004a	e8 00 00 00 00	 call	 ?NEW_GetPixelPosition@CInstanceBase@@QAEXPAUD3DXVECTOR3@@@Z ; CInstanceBase::NEW_GetPixelPosition
  0004f	f3 0f 10 44 24
	3c		 movss	 xmm0, DWORD PTR _PixelPosition$[esp+72]

; 723  : 
; 724  : 	return Py_BuildValue("fff", PixelPosition.x, PixelPosition.y, PixelPosition.z);

  00055	83 ec 18	 sub	 esp, 24			; 00000018H
  00058	0f 5a c0	 cvtps2pd xmm0, xmm0
  0005b	f2 0f 11 44 24
	10		 movsd	 QWORD PTR [esp+16], xmm0
  00061	f3 0f 10 44 24
	50		 movss	 xmm0, DWORD PTR _PixelPosition$[esp+92]
  00067	0f 5a c0	 cvtps2pd xmm0, xmm0
  0006a	f2 0f 11 44 24
	08		 movsd	 QWORD PTR [esp+8], xmm0
  00070	f3 0f 10 44 24
	4c		 movss	 xmm0, DWORD PTR _PixelPosition$[esp+88]
  00076	0f 5a c0	 cvtps2pd xmm0, xmm0
  00079	f2 0f 11 04 24	 movsd	 QWORD PTR [esp], xmm0
  0007e	68 00 00 00 00	 push	 OFFSET ??_C@_03LPALPDIP@fff?$AA@
  00083	ff 15 00 00 00
	00		 call	 DWORD PTR __imp__Py_BuildValue
  00089	83 c4 1c	 add	 esp, 28			; 0000001cH

; 725  : }

  0008c	8b e5		 mov	 esp, ebp
  0008e	5d		 pop	 ebp
  0008f	c3		 ret	 0
?chrGetPixelPosition@@YAPAU_object@@PAU1@0@Z ENDP	; chrGetPixelPosition
_TEXT	ENDS
; Function compile flags: /Ogtp
; File d:\metin2\metin2\client_source_clean\client_source_clean\source\userinterface\pythoncharactermodule.cpp
; File c:\program files (x86)\microsoft visual studio 12.0\vc\include\math.h
; File d:\metin2\metin2\client_source_clean\client_source_clean\source\userinterface\pythoncharactermodule.cpp
; File c:\program files (x86)\microsoft visual studio 12.0\vc\include\math.h
; File d:\metin2\metin2\client_source_clean\client_source_clean\source\userinterface\pythoncharactermodule.cpp
;	COMDAT ?chrSetRotation@@YAPAU_object@@PAU1@0@Z
_TEXT	SEGMENT
tv89 = -8						; size = 8
tv80 = -8						; size = 8
_fRotation$ = -8					; size = 4
_poSelf$ = 8						; size = 4
_poArgs$ = 12						; size = 4
?chrSetRotation@@YAPAU_object@@PAU1@0@Z PROC		; chrSetRotation, COMDAT

; 728  : {

  00000	55		 push	 ebp
  00001	8b ec		 mov	 ebp, esp
  00003	83 e4 f8	 and	 esp, -8			; fffffff8H
  00006	83 ec 0c	 sub	 esp, 12			; 0000000cH

; 729  : 	float fRotation;
; 730  : 	if (!PyTuple_GetFloat(poArgs, 0, &fRotation))

  00009	8d 44 24 04	 lea	 eax, DWORD PTR _fRotation$[esp+12]
  0000d	56		 push	 esi
  0000e	50		 push	 eax
  0000f	6a 00		 push	 0
  00011	ff 75 0c	 push	 DWORD PTR _poArgs$[ebp]
  00014	e8 00 00 00 00	 call	 ?PyTuple_GetFloat@@YA_NPAU_object@@HPAM@Z ; PyTuple_GetFloat
  00019	83 c4 0c	 add	 esp, 12			; 0000000cH
  0001c	84 c0		 test	 al, al
  0001e	75 0f		 jne	 SHORT $LN2@chrSetRota

; 731  : 		return Py_BuildException();

  00020	6a 00		 push	 0
  00022	e8 00 00 00 00	 call	 ?Py_BuildException@@YAPAU_object@@PBDZZ ; Py_BuildException
  00027	83 c4 04	 add	 esp, 4

; 743  : }

  0002a	5e		 pop	 esi
  0002b	8b e5		 mov	 esp, ebp
  0002d	5d		 pop	 ebp
  0002e	c3		 ret	 0
$LN2@chrSetRota:

; 732  : 
; 733  : 	CInstanceBase * pCharacterInstance = CPythonCharacterManager::Instance().GetSelectedInstancePtr();

  0002f	8b 0d 00 00 00
	00		 mov	 ecx, DWORD PTR ?ms_singleton@?$CSingleton@VCPythonCharacterManager@@@@0PAVCPythonCharacterManager@@A ; CSingleton<CPythonCharacterManager>::ms_singleton
  00035	e8 00 00 00 00	 call	 ?GetSelectedInstancePtr@CPythonCharacterManager@@QAEPAVCInstanceBase@@XZ ; CPythonCharacterManager::GetSelectedInstancePtr
  0003a	8b f0		 mov	 esi, eax

; 734  : 
; 735  : 	if (!pCharacterInstance)

  0003c	85 f6		 test	 esi, esi
  0003e	74 41		 je	 SHORT $LN11@chrSetRota

; 738  : 	fRotation = fmod(fRotation + 180.0f, 360.0f);

  00040	f3 0f 10 44 24
	08		 movss	 xmm0, DWORD PTR _fRotation$[esp+16]
  00046	f3 0f 58 05 00
	00 00 00	 addss	 xmm0, DWORD PTR __real@43340000
; File c:\program files (x86)\microsoft visual studio 12.0\vc\include\math.h

; 706  :     return (float)fmod(_X, _Y);

  0004e	0f 5a c0	 cvtps2pd xmm0, xmm0
  00051	f2 0f 11 44 24
	08		 movsd	 QWORD PTR tv89[esp+16], xmm0
  00057	dd 44 24 08	 fld	 QWORD PTR tv89[esp+16]
  0005b	dd 05 00 00 00
	00		 fld	 QWORD PTR __real@4076800000000000
  00061	e8 00 00 00 00	 call	 __CIfmod
  00066	dd 5c 24 08	 fstp	 QWORD PTR tv80[esp+16]
  0006a	f2 0f 10 4c 24
	08		 movsd	 xmm1, QWORD PTR tv80[esp+16]
; File d:\metin2\metin2\client_source_clean\client_source_clean\source\userinterface\pythoncharactermodule.cpp

; 740  : 	pCharacterInstance->SetRotation(fRotation);

  00070	8b ce		 mov	 ecx, esi
; File c:\program files (x86)\microsoft visual studio 12.0\vc\include\math.h

; 706  :     return (float)fmod(_X, _Y);

  00072	66 0f 5a c9	 cvtpd2ps xmm1, xmm1
; File d:\metin2\metin2\client_source_clean\client_source_clean\source\userinterface\pythoncharactermodule.cpp

; 738  : 	fRotation = fmod(fRotation + 180.0f, 360.0f);

  00076	f3 0f 11 4c 24
	08		 movss	 DWORD PTR _fRotation$[esp+16], xmm1

; 740  : 	pCharacterInstance->SetRotation(fRotation);

  0007c	e8 00 00 00 00	 call	 ?SetRotation@CInstanceBase@@QAEXM@Z ; CInstanceBase::SetRotation
$LN11@chrSetRota:

; 741  : 
; 742  : 	return Py_BuildNone();

  00081	e8 00 00 00 00	 call	 ?Py_BuildNone@@YAPAU_object@@XZ ; Py_BuildNone

; 743  : }

  00086	5e		 pop	 esi
  00087	8b e5		 mov	 esp, ebp
  00089	5d		 pop	 ebp
  0008a	c3		 ret	 0
?chrSetRotation@@YAPAU_object@@PAU1@0@Z ENDP		; chrSetRotation
_TEXT	ENDS
; Function compile flags: /Ogtp
; File d:\metin2\metin2\client_source_clean\client_source_clean\source\userinterface\pythoncharactermodule.cpp
;	COMDAT ?chrSetRotationAll@@YAPAU_object@@PAU1@0@Z
_TEXT	SEGMENT
_fRotZ$ = -12						; size = 4
_fRotX$ = -8						; size = 4
_fRotY$ = -4						; size = 4
_poSelf$ = 8						; size = 4
_poArgs$ = 12						; size = 4
?chrSetRotationAll@@YAPAU_object@@PAU1@0@Z PROC		; chrSetRotationAll, COMDAT

; 746  : {

  00000	55		 push	 ebp
  00001	8b ec		 mov	 ebp, esp
  00003	83 ec 0c	 sub	 esp, 12			; 0000000cH

; 747  : 	float fRotX;
; 748  : 	if (!PyTuple_GetFloat(poArgs, 0, &fRotX))

  00006	8d 45 f8	 lea	 eax, DWORD PTR _fRotX$[ebp]
  00009	56		 push	 esi
  0000a	8b 75 0c	 mov	 esi, DWORD PTR _poArgs$[ebp]
  0000d	50		 push	 eax
  0000e	6a 00		 push	 0
  00010	56		 push	 esi
  00011	e8 00 00 00 00	 call	 ?PyTuple_GetFloat@@YA_NPAU_object@@HPAM@Z ; PyTuple_GetFloat
  00016	83 c4 0c	 add	 esp, 12			; 0000000cH
  00019	84 c0		 test	 al, al
  0001b	75 0f		 jne	 SHORT $LN4@chrSetRota
$LN10@chrSetRota:

; 749  : 		return Py_BuildException();

  0001d	6a 00		 push	 0
  0001f	e8 00 00 00 00	 call	 ?Py_BuildException@@YAPAU_object@@PBDZZ ; Py_BuildException
  00024	83 c4 04	 add	 esp, 4
  00027	5e		 pop	 esi

; 764  : }

  00028	8b e5		 mov	 esp, ebp
  0002a	5d		 pop	 ebp
  0002b	c3		 ret	 0
$LN4@chrSetRota:

; 750  : 	float fRotY;
; 751  : 	if (!PyTuple_GetFloat(poArgs, 1, &fRotY))

  0002c	8d 45 fc	 lea	 eax, DWORD PTR _fRotY$[ebp]
  0002f	50		 push	 eax
  00030	6a 01		 push	 1
  00032	56		 push	 esi
  00033	e8 00 00 00 00	 call	 ?PyTuple_GetFloat@@YA_NPAU_object@@HPAM@Z ; PyTuple_GetFloat
  00038	83 c4 0c	 add	 esp, 12			; 0000000cH
  0003b	84 c0		 test	 al, al
  0003d	74 de		 je	 SHORT $LN10@chrSetRota

; 752  : 		return Py_BuildException();
; 753  : 	float fRotZ;
; 754  : 	if (!PyTuple_GetFloat(poArgs, 2, &fRotZ))

  0003f	8d 45 f4	 lea	 eax, DWORD PTR _fRotZ$[ebp]
  00042	50		 push	 eax
  00043	6a 02		 push	 2
  00045	56		 push	 esi
  00046	e8 00 00 00 00	 call	 ?PyTuple_GetFloat@@YA_NPAU_object@@HPAM@Z ; PyTuple_GetFloat
  0004b	83 c4 0c	 add	 esp, 12			; 0000000cH
  0004e	84 c0		 test	 al, al
  00050	74 cb		 je	 SHORT $LN10@chrSetRota

; 755  : 		return Py_BuildException();
; 756  : 
; 757  : 	CInstanceBase * pCharacterInstance = CPythonCharacterManager::Instance().GetSelectedInstancePtr();

  00052	8b 0d 00 00 00
	00		 mov	 ecx, DWORD PTR ?ms_singleton@?$CSingleton@VCPythonCharacterManager@@@@0PAVCPythonCharacterManager@@A ; CSingleton<CPythonCharacterManager>::ms_singleton
  00058	e8 00 00 00 00	 call	 ?GetSelectedInstancePtr@CPythonCharacterManager@@QAEPAVCInstanceBase@@XZ ; CPythonCharacterManager::GetSelectedInstancePtr

; 758  : 	if (!pCharacterInstance)

  0005d	85 c0		 test	 eax, eax
  0005f	74 3a		 je	 SHORT $LN9@chrSetRota

; 759  : 		return Py_BuildNone();
; 760  : 
; 761  : 	pCharacterInstance->GetGraphicThingInstanceRef().SetXYRotation(fRotX, fRotY);

  00061	8b c8		 mov	 ecx, eax
  00063	e8 00 00 00 00	 call	 ?GetGraphicThingInstanceRef@CInstanceBase@@QAEAAVCActorInstance@@XZ ; CInstanceBase::GetGraphicThingInstanceRef
  00068	f3 0f 10 45 fc	 movss	 xmm0, DWORD PTR _fRotY$[ebp]
  0006d	83 ec 08	 sub	 esp, 8
  00070	8b f0		 mov	 esi, eax
  00072	8b c8		 mov	 ecx, eax
  00074	f3 0f 11 44 24
	04		 movss	 DWORD PTR [esp+4], xmm0
  0007a	f3 0f 10 45 f8	 movss	 xmm0, DWORD PTR _fRotX$[ebp]
  0007f	f3 0f 11 04 24	 movss	 DWORD PTR [esp], xmm0
  00084	e8 00 00 00 00	 call	 ?SetXYRotation@CActorInstance@@QAEXMM@Z ; CActorInstance::SetXYRotation

; 762  : 	pCharacterInstance->GetGraphicThingInstanceRef().SetRotation(fRotZ);

  00089	f3 0f 10 45 f4	 movss	 xmm0, DWORD PTR _fRotZ$[ebp]
  0008e	51		 push	 ecx
  0008f	8b ce		 mov	 ecx, esi
  00091	f3 0f 11 04 24	 movss	 DWORD PTR [esp], xmm0
  00096	e8 00 00 00 00	 call	 ?SetRotation@CActorInstance@@QAEXM@Z ; CActorInstance::SetRotation
$LN9@chrSetRota:

; 763  : 	return Py_BuildNone();

  0009b	e8 00 00 00 00	 call	 ?Py_BuildNone@@YAPAU_object@@XZ ; Py_BuildNone
  000a0	5e		 pop	 esi

; 764  : }

  000a1	8b e5		 mov	 esp, ebp
  000a3	5d		 pop	 ebp
  000a4	c3		 ret	 0
?chrSetRotationAll@@YAPAU_object@@PAU1@0@Z ENDP		; chrSetRotationAll
_TEXT	ENDS
; Function compile flags: /Ogtp
; File d:\metin2\metin2\client_source_clean\client_source_clean\source\userinterface\pythoncharactermodule.cpp
; File c:\program files (x86)\microsoft visual studio 12.0\vc\include\math.h
; File d:\metin2\metin2\client_source_clean\client_source_clean\source\userinterface\pythoncharactermodule.cpp
; File c:\program files (x86)\microsoft visual studio 12.0\vc\include\math.h
; File d:\metin2\metin2\client_source_clean\client_source_clean\source\userinterface\pythoncharactermodule.cpp
;	COMDAT ?chrBlendRotation@@YAPAU_object@@PAU1@0@Z
_TEXT	SEGMENT
tv83 = -16						; size = 8
tv68 = -16						; size = 8
_fRotation$ = -16					; size = 4
_fBlendTime$ = -4					; size = 4
_poSelf$ = 8						; size = 4
_poArgs$ = 12						; size = 4
?chrBlendRotation@@YAPAU_object@@PAU1@0@Z PROC		; chrBlendRotation, COMDAT

; 767  : {

  00000	55		 push	 ebp
  00001	8b ec		 mov	 ebp, esp
  00003	83 e4 f8	 and	 esp, -8			; fffffff8H
  00006	83 ec 10	 sub	 esp, 16			; 00000010H

; 768  : 	float fRotation;
; 769  : 	if (!PyTuple_GetFloat(poArgs, 0, &fRotation))

  00009	8d 04 24	 lea	 eax, DWORD PTR _fRotation$[esp+16]
  0000c	50		 push	 eax
  0000d	6a 00		 push	 0
  0000f	ff 75 0c	 push	 DWORD PTR _poArgs$[ebp]
  00012	e8 00 00 00 00	 call	 ?PyTuple_GetFloat@@YA_NPAU_object@@HPAM@Z ; PyTuple_GetFloat
  00017	83 c4 0c	 add	 esp, 12			; 0000000cH
  0001a	84 c0		 test	 al, al
  0001c	75 0e		 jne	 SHORT $LN3@chrBlendRo
$LN13@chrBlendRo:

; 770  : 		return Py_BuildException();

  0001e	6a 00		 push	 0
  00020	e8 00 00 00 00	 call	 ?Py_BuildException@@YAPAU_object@@PBDZZ ; Py_BuildException
  00025	83 c4 04	 add	 esp, 4

; 783  : }

  00028	8b e5		 mov	 esp, ebp
  0002a	5d		 pop	 ebp
  0002b	c3		 ret	 0
$LN3@chrBlendRo:

; 771  : 	float fBlendTime;
; 772  : 	if (!PyTuple_GetFloat(poArgs, 1, &fBlendTime))

  0002c	8d 44 24 0c	 lea	 eax, DWORD PTR _fBlendTime$[esp+16]
  00030	50		 push	 eax
  00031	6a 01		 push	 1
  00033	ff 75 0c	 push	 DWORD PTR _poArgs$[ebp]
  00036	e8 00 00 00 00	 call	 ?PyTuple_GetFloat@@YA_NPAU_object@@HPAM@Z ; PyTuple_GetFloat
  0003b	83 c4 0c	 add	 esp, 12			; 0000000cH
  0003e	84 c0		 test	 al, al
  00040	74 dc		 je	 SHORT $LN13@chrBlendRo

; 775  : 	fRotation = fmod(720.0f - fRotation, 360.0f);

  00042	f3 0f 10 05 00
	00 00 00	 movss	 xmm0, DWORD PTR __real@44340000
  0004a	f3 0f 5c 04 24	 subss	 xmm0, DWORD PTR _fRotation$[esp+16]
; File c:\program files (x86)\microsoft visual studio 12.0\vc\include\math.h

; 706  :     return (float)fmod(_X, _Y);

  0004f	0f 5a c0	 cvtps2pd xmm0, xmm0
  00052	f2 0f 11 04 24	 movsd	 QWORD PTR tv83[esp+16], xmm0
  00057	dd 04 24	 fld	 QWORD PTR tv83[esp+16]
  0005a	dd 05 00 00 00
	00		 fld	 QWORD PTR __real@4076800000000000
  00060	e8 00 00 00 00	 call	 __CIfmod
; File d:\metin2\metin2\client_source_clean\client_source_clean\source\userinterface\pythoncharactermodule.cpp

; 777  : 	CInstanceBase * pCharacterInstance = CPythonCharacterManager::Instance().GetSelectedInstancePtr();

  00065	8b 0d 00 00 00
	00		 mov	 ecx, DWORD PTR ?ms_singleton@?$CSingleton@VCPythonCharacterManager@@@@0PAVCPythonCharacterManager@@A ; CSingleton<CPythonCharacterManager>::ms_singleton
; File c:\program files (x86)\microsoft visual studio 12.0\vc\include\math.h

; 706  :     return (float)fmod(_X, _Y);

  0006b	dd 1c 24	 fstp	 QWORD PTR tv68[esp+16]
  0006e	f2 0f 10 0c 24	 movsd	 xmm1, QWORD PTR tv68[esp+16]
  00073	66 0f 5a c9	 cvtpd2ps xmm1, xmm1
; File d:\metin2\metin2\client_source_clean\client_source_clean\source\userinterface\pythoncharactermodule.cpp

; 775  : 	fRotation = fmod(720.0f - fRotation, 360.0f);

  00077	f3 0f 11 0c 24	 movss	 DWORD PTR _fRotation$[esp+16], xmm1

; 777  : 	CInstanceBase * pCharacterInstance = CPythonCharacterManager::Instance().GetSelectedInstancePtr();

  0007c	e8 00 00 00 00	 call	 ?GetSelectedInstancePtr@CPythonCharacterManager@@QAEPAVCInstanceBase@@XZ ; CPythonCharacterManager::GetSelectedInstancePtr

; 778  : 	if (!pCharacterInstance)

  00081	85 c0		 test	 eax, eax
  00083	74 0d		 je	 SHORT $LN12@chrBlendRo

; 779  : 		return Py_BuildNone();
; 780  : 	pCharacterInstance->BlendRotation(fRotation, fBlendTime);

  00085	f3 0f 10 54 24
	0c		 movss	 xmm2, DWORD PTR _fBlendTime$[esp+16]
  0008b	8b c8		 mov	 ecx, eax
  0008d	e8 00 00 00 00	 call	 ?BlendRotation@CInstanceBase@@QAEXMM@Z ; CInstanceBase::BlendRotation
$LN12@chrBlendRo:

; 781  : 
; 782  : 	return Py_BuildNone();

  00092	e8 00 00 00 00	 call	 ?Py_BuildNone@@YAPAU_object@@XZ ; Py_BuildNone

; 783  : }

  00097	8b e5		 mov	 esp, ebp
  00099	5d		 pop	 ebp
  0009a	c3		 ret	 0
?chrBlendRotation@@YAPAU_object@@PAU1@0@Z ENDP		; chrBlendRotation
_TEXT	ENDS
; Function compile flags: /Ogtp
; File d:\metin2\metin2\client_source_clean\client_source_clean\source\userinterface\pythoncharactermodule.cpp
;	COMDAT ?chrGetRotation@@YAPAU_object@@PAU1@0@Z
_TEXT	SEGMENT
_poSelf$ = 8						; size = 4
_poArgs$ = 12						; size = 4
?chrGetRotation@@YAPAU_object@@PAU1@0@Z PROC		; chrGetRotation, COMDAT

; 787  : 	CInstanceBase * pCharacterInstance = CPythonCharacterManager::Instance().GetSelectedInstancePtr();

  00000	8b 0d 00 00 00
	00		 mov	 ecx, DWORD PTR ?ms_singleton@?$CSingleton@VCPythonCharacterManager@@@@0PAVCPythonCharacterManager@@A ; CSingleton<CPythonCharacterManager>::ms_singleton
  00006	e8 00 00 00 00	 call	 ?GetSelectedInstancePtr@CPythonCharacterManager@@QAEPAVCInstanceBase@@XZ ; CPythonCharacterManager::GetSelectedInstancePtr

; 788  : 
; 789  : 	if (!pCharacterInstance)

  0000b	85 c0		 test	 eax, eax
  0000d	75 05		 jne	 SHORT $LN1@chrGetRota
  0000f	0f 57 c0	 xorps	 xmm0, xmm0

; 790  : 		return Py_BuildValue("f", 0.0f);

  00012	eb 16		 jmp	 SHORT $LN6@chrGetRota
$LN1@chrGetRota:

; 791  : 
; 792  : 	float fRotation = pCharacterInstance->GetRotation();

  00014	8b c8		 mov	 ecx, eax
  00016	e8 00 00 00 00	 call	 ?GetRotation@CInstanceBase@@QAEMXZ ; CInstanceBase::GetRotation

; 793  : 
; 794  : 	return Py_BuildValue("f", 360.0f - fRotation);

  0001b	f3 0f 10 0d 00
	00 00 00	 movss	 xmm1, DWORD PTR __real@43b40000
  00023	f3 0f 5c c8	 subss	 xmm1, xmm0
  00027	0f 5a c1	 cvtps2pd xmm0, xmm1
$LN6@chrGetRota:
  0002a	83 ec 08	 sub	 esp, 8
  0002d	f2 0f 11 04 24	 movsd	 QWORD PTR [esp], xmm0
  00032	68 00 00 00 00	 push	 OFFSET ??_C@_01INIBCBCB@f?$AA@
  00037	ff 15 00 00 00
	00		 call	 DWORD PTR __imp__Py_BuildValue
  0003d	83 c4 0c	 add	 esp, 12			; 0000000cH

; 795  : }

  00040	c3		 ret	 0
?chrGetRotation@@YAPAU_object@@PAU1@0@Z ENDP		; chrGetRotation
_TEXT	ENDS
; Function compile flags: /Ogtp
; File d:\metin2\metin2\client_source_clean\client_source_clean\source\userinterface\pythoncharactermodule.cpp
;	COMDAT ?chrGetRace@@YAPAU_object@@PAU1@0@Z
_TEXT	SEGMENT
_poSelf$ = 8						; size = 4
_poArgs$ = 12						; size = 4
?chrGetRace@@YAPAU_object@@PAU1@0@Z PROC		; chrGetRace, COMDAT

; 799  : 	CInstanceBase * pCharacterInstance = CPythonCharacterManager::Instance().GetSelectedInstancePtr();

  00000	8b 0d 00 00 00
	00		 mov	 ecx, DWORD PTR ?ms_singleton@?$CSingleton@VCPythonCharacterManager@@@@0PAVCPythonCharacterManager@@A ; CSingleton<CPythonCharacterManager>::ms_singleton
  00006	e8 00 00 00 00	 call	 ?GetSelectedInstancePtr@CPythonCharacterManager@@QAEPAVCInstanceBase@@XZ ; CPythonCharacterManager::GetSelectedInstancePtr

; 800  : 
; 801  : 	if (!pCharacterInstance)

  0000b	85 c0		 test	 eax, eax
  0000d	75 10		 jne	 SHORT $LN1@chrGetRace

; 802  : 		return Py_BuildValue("i", 0);

  0000f	50		 push	 eax

; 803  : 
; 804  : 	return Py_BuildValue("i", pCharacterInstance->GetRace());

  00010	68 00 00 00 00	 push	 OFFSET ??_C@_01KBJDNOO@i?$AA@
  00015	ff 15 00 00 00
	00		 call	 DWORD PTR __imp__Py_BuildValue
  0001b	83 c4 08	 add	 esp, 8

; 805  : }

  0001e	c3		 ret	 0
$LN1@chrGetRace:

; 803  : 
; 804  : 	return Py_BuildValue("i", pCharacterInstance->GetRace());

  0001f	8b c8		 mov	 ecx, eax
  00021	e8 00 00 00 00	 call	 ?GetRace@CInstanceBase@@QAEKXZ ; CInstanceBase::GetRace
  00026	50		 push	 eax
  00027	68 00 00 00 00	 push	 OFFSET ??_C@_01KBJDNOO@i?$AA@
  0002c	ff 15 00 00 00
	00		 call	 DWORD PTR __imp__Py_BuildValue
  00032	83 c4 08	 add	 esp, 8

; 805  : }

  00035	c3		 ret	 0
?chrGetRace@@YAPAU_object@@PAU1@0@Z ENDP		; chrGetRace
_TEXT	ENDS
; Function compile flags: /Ogtp
; File d:\metin2\metin2\client_source_clean\client_source_clean\source\userinterface\pythoncharactermodule.cpp
;	COMDAT ?chrGetName@@YAPAU_object@@PAU1@0@Z
_TEXT	SEGMENT
_poSelf$ = 8						; size = 4
_poArgs$ = 12						; size = 4
?chrGetName@@YAPAU_object@@PAU1@0@Z PROC		; chrGetName, COMDAT

; 809  : 	CInstanceBase * pCharacterInstance = CPythonCharacterManager::Instance().GetSelectedInstancePtr();

  00000	8b 0d 00 00 00
	00		 mov	 ecx, DWORD PTR ?ms_singleton@?$CSingleton@VCPythonCharacterManager@@@@0PAVCPythonCharacterManager@@A ; CSingleton<CPythonCharacterManager>::ms_singleton
  00006	e8 00 00 00 00	 call	 ?GetSelectedInstancePtr@CPythonCharacterManager@@QAEPAVCInstanceBase@@XZ ; CPythonCharacterManager::GetSelectedInstancePtr

; 810  : 
; 811  : 	if (!pCharacterInstance)

  0000b	85 c0		 test	 eax, eax
  0000d	75 10		 jne	 SHORT $LN1@chrGetName

; 812  : 		return Py_BuildValue("i", 0);

  0000f	50		 push	 eax
  00010	68 00 00 00 00	 push	 OFFSET ??_C@_01KBJDNOO@i?$AA@

; 813  : 
; 814  : 	return Py_BuildValue("s", pCharacterInstance->GetNameString());

  00015	ff 15 00 00 00
	00		 call	 DWORD PTR __imp__Py_BuildValue
  0001b	83 c4 08	 add	 esp, 8

; 815  : }

  0001e	c3		 ret	 0
$LN1@chrGetName:

; 813  : 
; 814  : 	return Py_BuildValue("s", pCharacterInstance->GetNameString());

  0001f	8b c8		 mov	 ecx, eax
  00021	e8 00 00 00 00	 call	 ?GetNameString@CInstanceBase@@QAEPBDXZ ; CInstanceBase::GetNameString
  00026	50		 push	 eax
  00027	68 00 00 00 00	 push	 OFFSET ??_C@_01LKDEMHDF@s?$AA@
  0002c	ff 15 00 00 00
	00		 call	 DWORD PTR __imp__Py_BuildValue
  00032	83 c4 08	 add	 esp, 8

; 815  : }

  00035	c3		 ret	 0
?chrGetName@@YAPAU_object@@PAU1@0@Z ENDP		; chrGetName
_TEXT	ENDS
; Function compile flags: /Ogtp
; File d:\metin2\metin2\client_source_clean\client_source_clean\source\userinterface\pythoncharactermodule.cpp
;	COMDAT ?chrGetNameByVID@@YAPAU_object@@PAU1@0@Z
_TEXT	SEGMENT
_iVirtualID$ = -4					; size = 4
_poSelf$ = 8						; size = 4
_poArgs$ = 12						; size = 4
?chrGetNameByVID@@YAPAU_object@@PAU1@0@Z PROC		; chrGetNameByVID, COMDAT

; 818  : {

  00000	55		 push	 ebp
  00001	8b ec		 mov	 ebp, esp
  00003	51		 push	 ecx

; 819  : 	int iVirtualID;
; 820  : 	if (!PyTuple_GetInteger(poArgs, 0, &iVirtualID))

  00004	8d 45 fc	 lea	 eax, DWORD PTR _iVirtualID$[ebp]
  00007	50		 push	 eax
  00008	6a 00		 push	 0
  0000a	ff 75 0c	 push	 DWORD PTR _poArgs$[ebp]
  0000d	e8 00 00 00 00	 call	 ?PyTuple_GetInteger@@YA_NPAU_object@@HPAH@Z ; PyTuple_GetInteger
  00012	83 c4 0c	 add	 esp, 12			; 0000000cH
  00015	84 c0		 test	 al, al
  00017	75 0e		 jne	 SHORT $LN2@chrGetName

; 821  : 		return Py_BuildException();

  00019	6a 00		 push	 0
  0001b	e8 00 00 00 00	 call	 ?Py_BuildException@@YAPAU_object@@PBDZZ ; Py_BuildException
  00020	83 c4 04	 add	 esp, 4

; 829  : }

  00023	8b e5		 mov	 esp, ebp
  00025	5d		 pop	 ebp
  00026	c3		 ret	 0
$LN2@chrGetName:

; 822  : 
; 823  : 	CInstanceBase * pInstance = CPythonCharacterManager::Instance().GetInstancePtr(iVirtualID);

  00027	8b 0d 00 00 00
	00		 mov	 ecx, DWORD PTR ?ms_singleton@?$CSingleton@VCPythonCharacterManager@@@@0PAVCPythonCharacterManager@@A ; CSingleton<CPythonCharacterManager>::ms_singleton
  0002d	ff 75 fc	 push	 DWORD PTR _iVirtualID$[ebp]
  00030	83 c1 04	 add	 ecx, 4
  00033	8b 01		 mov	 eax, DWORD PTR [ecx]
  00035	ff 50 08	 call	 DWORD PTR [eax+8]

; 824  : 
; 825  : 	if (!pInstance)

  00038	85 c0		 test	 eax, eax
  0003a	75 17		 jne	 SHORT $LN1@chrGetName

; 826  : 		return Py_BuildValue("s", "None");

  0003c	68 00 00 00 00	 push	 OFFSET ??_C@_04OHJIHAFH@None?$AA@

; 827  : 
; 828  : 	return Py_BuildValue("s", pInstance->GetNameString());

  00041	68 00 00 00 00	 push	 OFFSET ??_C@_01LKDEMHDF@s?$AA@
  00046	ff 15 00 00 00
	00		 call	 DWORD PTR __imp__Py_BuildValue
  0004c	83 c4 08	 add	 esp, 8

; 829  : }

  0004f	8b e5		 mov	 esp, ebp
  00051	5d		 pop	 ebp
  00052	c3		 ret	 0
$LN1@chrGetName:

; 827  : 
; 828  : 	return Py_BuildValue("s", pInstance->GetNameString());

  00053	8b c8		 mov	 ecx, eax
  00055	e8 00 00 00 00	 call	 ?GetNameString@CInstanceBase@@QAEPBDXZ ; CInstanceBase::GetNameString
  0005a	50		 push	 eax
  0005b	68 00 00 00 00	 push	 OFFSET ??_C@_01LKDEMHDF@s?$AA@
  00060	ff 15 00 00 00
	00		 call	 DWORD PTR __imp__Py_BuildValue
  00066	83 c4 08	 add	 esp, 8

; 829  : }

  00069	8b e5		 mov	 esp, ebp
  0006b	5d		 pop	 ebp
  0006c	c3		 ret	 0
?chrGetNameByVID@@YAPAU_object@@PAU1@0@Z ENDP		; chrGetNameByVID
_TEXT	ENDS
; Function compile flags: /Ogtp
; File d:\metin2\metin2\client_source_clean\client_source_clean\source\userinterface\pythoncharactermodule.cpp
;	COMDAT ?chrGetGuildID@@YAPAU_object@@PAU1@0@Z
_TEXT	SEGMENT
_iVirtualID$ = -4					; size = 4
_poSelf$ = 8						; size = 4
_poArgs$ = 12						; size = 4
?chrGetGuildID@@YAPAU_object@@PAU1@0@Z PROC		; chrGetGuildID, COMDAT

; 832  : {

  00000	55		 push	 ebp
  00001	8b ec		 mov	 ebp, esp
  00003	51		 push	 ecx

; 833  : 	int iVirtualID;
; 834  : 	if (!PyTuple_GetInteger(poArgs, 0, &iVirtualID))

  00004	8d 45 fc	 lea	 eax, DWORD PTR _iVirtualID$[ebp]
  00007	50		 push	 eax
  00008	6a 00		 push	 0
  0000a	ff 75 0c	 push	 DWORD PTR _poArgs$[ebp]
  0000d	e8 00 00 00 00	 call	 ?PyTuple_GetInteger@@YA_NPAU_object@@HPAH@Z ; PyTuple_GetInteger
  00012	83 c4 0c	 add	 esp, 12			; 0000000cH
  00015	84 c0		 test	 al, al
  00017	75 0e		 jne	 SHORT $LN2@chrGetGuil

; 835  : 		return Py_BuildException();

  00019	6a 00		 push	 0
  0001b	e8 00 00 00 00	 call	 ?Py_BuildException@@YAPAU_object@@PBDZZ ; Py_BuildException
  00020	83 c4 04	 add	 esp, 4

; 843  : }

  00023	8b e5		 mov	 esp, ebp
  00025	5d		 pop	 ebp
  00026	c3		 ret	 0
$LN2@chrGetGuil:

; 836  : 
; 837  : 	CInstanceBase * pInstance = CPythonCharacterManager::Instance().GetInstancePtr(iVirtualID);

  00027	8b 0d 00 00 00
	00		 mov	 ecx, DWORD PTR ?ms_singleton@?$CSingleton@VCPythonCharacterManager@@@@0PAVCPythonCharacterManager@@A ; CSingleton<CPythonCharacterManager>::ms_singleton
  0002d	ff 75 fc	 push	 DWORD PTR _iVirtualID$[ebp]
  00030	83 c1 04	 add	 ecx, 4
  00033	8b 01		 mov	 eax, DWORD PTR [ecx]
  00035	ff 50 08	 call	 DWORD PTR [eax+8]

; 838  : 
; 839  : 	if (!pInstance)

  00038	85 c0		 test	 eax, eax
  0003a	75 13		 jne	 SHORT $LN1@chrGetGuil

; 840  : 		return Py_BuildValue("i", 0);

  0003c	50		 push	 eax

; 841  : 
; 842  : 	return Py_BuildValue("i", pInstance->GetGuildID());

  0003d	68 00 00 00 00	 push	 OFFSET ??_C@_01KBJDNOO@i?$AA@
  00042	ff 15 00 00 00
	00		 call	 DWORD PTR __imp__Py_BuildValue
  00048	83 c4 08	 add	 esp, 8

; 843  : }

  0004b	8b e5		 mov	 esp, ebp
  0004d	5d		 pop	 ebp
  0004e	c3		 ret	 0
$LN1@chrGetGuil:

; 841  : 
; 842  : 	return Py_BuildValue("i", pInstance->GetGuildID());

  0004f	8b c8		 mov	 ecx, eax
  00051	e8 00 00 00 00	 call	 ?GetGuildID@CInstanceBase@@QAEKXZ ; CInstanceBase::GetGuildID
  00056	50		 push	 eax
  00057	68 00 00 00 00	 push	 OFFSET ??_C@_01KBJDNOO@i?$AA@
  0005c	ff 15 00 00 00
	00		 call	 DWORD PTR __imp__Py_BuildValue
  00062	83 c4 08	 add	 esp, 8

; 843  : }

  00065	8b e5		 mov	 esp, ebp
  00067	5d		 pop	 ebp
  00068	c3		 ret	 0
?chrGetGuildID@@YAPAU_object@@PAU1@0@Z ENDP		; chrGetGuildID
_TEXT	ENDS
; Function compile flags: /Ogtp
; File d:\metin2\metin2\client_source_clean\client_source_clean\source\userinterface\pythoncharactermodule.cpp
;	COMDAT ?chrGetProjectPosition@@YAPAU_object@@PAU1@0@Z
_TEXT	SEGMENT
_PixelPosition$ = -32					; size = 12
_fx$ = -20						; size = 4
_fy$ = -16						; size = 4
_fz$ = -12						; size = 4
_iHeight$ = -8						; size = 4
_iVirtualID$ = -4					; size = 4
_poSelf$ = 8						; size = 4
_poArgs$ = 12						; size = 4
?chrGetProjectPosition@@YAPAU_object@@PAU1@0@Z PROC	; chrGetProjectPosition, COMDAT

; 846  : {

  00000	55		 push	 ebp
  00001	8b ec		 mov	 ebp, esp
  00003	83 ec 20	 sub	 esp, 32			; 00000020H

; 847  : 	int iVirtualID;
; 848  : 	if (!PyTuple_GetInteger(poArgs, 0, &iVirtualID))

  00006	8d 45 fc	 lea	 eax, DWORD PTR _iVirtualID$[ebp]
  00009	50		 push	 eax
  0000a	6a 00		 push	 0
  0000c	ff 75 0c	 push	 DWORD PTR _poArgs$[ebp]
  0000f	e8 00 00 00 00	 call	 ?PyTuple_GetInteger@@YA_NPAU_object@@HPAH@Z ; PyTuple_GetInteger
  00014	83 c4 0c	 add	 esp, 12			; 0000000cH
  00017	84 c0		 test	 al, al
  00019	75 0e		 jne	 SHORT $LN4@chrGetProj
$LN15@chrGetProj:

; 849  : 		return Py_BuildException();

  0001b	6a 00		 push	 0
  0001d	e8 00 00 00 00	 call	 ?Py_BuildException@@YAPAU_object@@PBDZZ ; Py_BuildException
  00022	83 c4 04	 add	 esp, 4

; 874  : }

  00025	8b e5		 mov	 esp, ebp
  00027	5d		 pop	 ebp
  00028	c3		 ret	 0
$LN4@chrGetProj:

; 850  : 	int iHeight;
; 851  : 	if (!PyTuple_GetInteger(poArgs, 1, &iHeight))

  00029	8d 45 f8	 lea	 eax, DWORD PTR _iHeight$[ebp]
  0002c	50		 push	 eax
  0002d	6a 01		 push	 1
  0002f	ff 75 0c	 push	 DWORD PTR _poArgs$[ebp]
  00032	e8 00 00 00 00	 call	 ?PyTuple_GetInteger@@YA_NPAU_object@@HPAH@Z ; PyTuple_GetInteger
  00037	83 c4 0c	 add	 esp, 12			; 0000000cH
  0003a	84 c0		 test	 al, al
  0003c	74 dd		 je	 SHORT $LN15@chrGetProj

; 852  : 		return Py_BuildException();
; 853  : 
; 854  : 	CInstanceBase * pInstance = CPythonCharacterManager::Instance().GetInstancePtr(iVirtualID);

  0003e	8b 0d 00 00 00
	00		 mov	 ecx, DWORD PTR ?ms_singleton@?$CSingleton@VCPythonCharacterManager@@@@0PAVCPythonCharacterManager@@A ; CSingleton<CPythonCharacterManager>::ms_singleton
  00044	ff 75 fc	 push	 DWORD PTR _iVirtualID$[ebp]
  00047	83 c1 04	 add	 ecx, 4
  0004a	8b 01		 mov	 eax, DWORD PTR [ecx]
  0004c	8b 40 08	 mov	 eax, DWORD PTR [eax+8]
  0004f	ff d0		 call	 eax

; 855  : 
; 856  : 	if (!pInstance)

  00051	85 c0		 test	 eax, eax
  00053	75 16		 jne	 SHORT $LN2@chrGetProj
$LN14@chrGetProj:

; 857  : 		return Py_BuildValue("ii", -100, -100);

  00055	6a 9c		 push	 -100			; ffffff9cH
  00057	6a 9c		 push	 -100			; ffffff9cH

; 871  : 		return Py_BuildValue("ii", -100, -100);
; 872  : 
; 873  : 	return Py_BuildValue("ii", int(fx), int(fy));

  00059	68 00 00 00 00	 push	 OFFSET ??_C@_02PDIHAGKM@ii?$AA@
  0005e	ff 15 00 00 00
	00		 call	 DWORD PTR __imp__Py_BuildValue
  00064	83 c4 0c	 add	 esp, 12			; 0000000cH

; 874  : }

  00067	8b e5		 mov	 esp, ebp
  00069	5d		 pop	 ebp
  0006a	c3		 ret	 0
$LN2@chrGetProj:

; 858  : 
; 859  : 	TPixelPosition PixelPosition;
; 860  : 	pInstance->NEW_GetPixelPosition(&PixelPosition);

  0006b	8d 4d e0	 lea	 ecx, DWORD PTR _PixelPosition$[ebp]
  0006e	51		 push	 ecx
  0006f	8b c8		 mov	 ecx, eax
  00071	e8 00 00 00 00	 call	 ?NEW_GetPixelPosition@CInstanceBase@@QAEXPAUD3DXVECTOR3@@@Z ; CInstanceBase::NEW_GetPixelPosition
  00076	66 0f 6e 45 f8	 movd	 xmm0, DWORD PTR _iHeight$[ebp]

; 861  : 
; 862  : 	CPythonGraphic & rpyGraphic = CPythonGraphic::Instance();
; 863  : 
; 864  : 	float fx, fy, fz;
; 865  : 	rpyGraphic.ProjectPosition(PixelPosition.x,
; 866  : 							   -PixelPosition.y,
; 867  : 							   PixelPosition.z + float(iHeight),
; 868  : 							   &fx, &fy, &fz);

  0007b	8d 45 f4	 lea	 eax, DWORD PTR _fz$[ebp]
  0007e	8b 0d 00 00 00
	00		 mov	 ecx, DWORD PTR ?ms_singleton@?$CSingleton@VCPythonGraphic@@@@0PAVCPythonGraphic@@A ; CSingleton<CPythonGraphic>::ms_singleton
  00084	50		 push	 eax
  00085	0f 5b c0	 cvtdq2ps xmm0, xmm0
  00088	8d 45 f0	 lea	 eax, DWORD PTR _fy$[ebp]
  0008b	50		 push	 eax
  0008c	8d 45 ec	 lea	 eax, DWORD PTR _fx$[ebp]
  0008f	50		 push	 eax
  00090	83 ec 0c	 sub	 esp, 12			; 0000000cH
  00093	f3 0f 58 45 e8	 addss	 xmm0, DWORD PTR _PixelPosition$[ebp+8]
  00098	f3 0f 11 44 24
	08		 movss	 DWORD PTR [esp+8], xmm0
  0009e	f3 0f 10 45 e4	 movss	 xmm0, DWORD PTR _PixelPosition$[ebp+4]
  000a3	0f 57 05 00 00
	00 00		 xorps	 xmm0, DWORD PTR __xmm@80000000800000008000000080000000
  000aa	f3 0f 11 44 24
	04		 movss	 DWORD PTR [esp+4], xmm0
  000b0	f3 0f 10 45 e0	 movss	 xmm0, DWORD PTR _PixelPosition$[ebp]
  000b5	f3 0f 11 04 24	 movss	 DWORD PTR [esp], xmm0
  000ba	e8 00 00 00 00	 call	 ?ProjectPosition@CScreen@@QAEXMMMPAM00@Z ; CScreen::ProjectPosition

; 869  : 
; 870  : 	if (1 == int(fz))

  000bf	f3 0f 2c 45 f4	 cvttss2si eax, DWORD PTR _fz$[ebp]
  000c4	83 f8 01	 cmp	 eax, 1
  000c7	74 8c		 je	 SHORT $LN14@chrGetProj

; 871  : 		return Py_BuildValue("ii", -100, -100);
; 872  : 
; 873  : 	return Py_BuildValue("ii", int(fx), int(fy));

  000c9	f3 0f 2c 45 f0	 cvttss2si eax, DWORD PTR _fy$[ebp]
  000ce	50		 push	 eax
  000cf	f3 0f 2c 45 ec	 cvttss2si eax, DWORD PTR _fx$[ebp]
  000d4	50		 push	 eax
  000d5	68 00 00 00 00	 push	 OFFSET ??_C@_02PDIHAGKM@ii?$AA@
  000da	ff 15 00 00 00
	00		 call	 DWORD PTR __imp__Py_BuildValue
  000e0	83 c4 0c	 add	 esp, 12			; 0000000cH

; 874  : }

  000e3	8b e5		 mov	 esp, ebp
  000e5	5d		 pop	 ebp
  000e6	c3		 ret	 0
?chrGetProjectPosition@@YAPAU_object@@PAU1@0@Z ENDP	; chrGetProjectPosition
_TEXT	ENDS
; Function compile flags: /Ogtp
; File d:\metin2\metin2\client_source_clean\client_source_clean\source\userinterface\pythoncharactermodule.cpp
;	COMDAT ?chrGetVirtualNumber@@YAPAU_object@@PAU1@0@Z
_TEXT	SEGMENT
_iVirtualID$ = -4					; size = 4
_poSelf$ = 8						; size = 4
_poArgs$ = 12						; size = 4
?chrGetVirtualNumber@@YAPAU_object@@PAU1@0@Z PROC	; chrGetVirtualNumber, COMDAT

; 877  : {

  00000	55		 push	 ebp
  00001	8b ec		 mov	 ebp, esp
  00003	51		 push	 ecx

; 878  : 	int iVirtualID;
; 879  : 	if (!PyTuple_GetInteger(poArgs, 0, &iVirtualID))

  00004	8d 45 fc	 lea	 eax, DWORD PTR _iVirtualID$[ebp]
  00007	50		 push	 eax
  00008	6a 00		 push	 0
  0000a	ff 75 0c	 push	 DWORD PTR _poArgs$[ebp]
  0000d	e8 00 00 00 00	 call	 ?PyTuple_GetInteger@@YA_NPAU_object@@HPAH@Z ; PyTuple_GetInteger
  00012	83 c4 0c	 add	 esp, 12			; 0000000cH
  00015	84 c0		 test	 al, al
  00017	75 0e		 jne	 SHORT $LN2@chrGetVirt

; 880  : 		return Py_BuildException();

  00019	6a 00		 push	 0
  0001b	e8 00 00 00 00	 call	 ?Py_BuildException@@YAPAU_object@@PBDZZ ; Py_BuildException
  00020	83 c4 04	 add	 esp, 4

; 888  : }

  00023	8b e5		 mov	 esp, ebp
  00025	5d		 pop	 ebp
  00026	c3		 ret	 0
$LN2@chrGetVirt:

; 881  : 
; 882  : 	CInstanceBase * pkInst = CPythonCharacterManager::Instance().GetInstancePtr(iVirtualID);

  00027	8b 0d 00 00 00
	00		 mov	 ecx, DWORD PTR ?ms_singleton@?$CSingleton@VCPythonCharacterManager@@@@0PAVCPythonCharacterManager@@A ; CSingleton<CPythonCharacterManager>::ms_singleton
  0002d	ff 75 fc	 push	 DWORD PTR _iVirtualID$[ebp]
  00030	83 c1 04	 add	 ecx, 4
  00033	8b 01		 mov	 eax, DWORD PTR [ecx]
  00035	ff 50 08	 call	 DWORD PTR [eax+8]

; 883  : 
; 884  : 	if (NULL != pkInst)

  00038	85 c0		 test	 eax, eax
  0003a	74 1a		 je	 SHORT $LN1@chrGetVirt

; 885  : 		return Py_BuildValue("i", pkInst->GetVirtualNumber());

  0003c	8b c8		 mov	 ecx, eax
  0003e	e8 00 00 00 00	 call	 ?GetVirtualNumber@CInstanceBase@@QAEKXZ ; CInstanceBase::GetVirtualNumber
  00043	50		 push	 eax

; 886  : 
; 887  : 	return Py_BuildValue("i", CActorInstance::TYPE_PC);

  00044	68 00 00 00 00	 push	 OFFSET ??_C@_01KBJDNOO@i?$AA@
  00049	ff 15 00 00 00
	00		 call	 DWORD PTR __imp__Py_BuildValue
  0004f	83 c4 08	 add	 esp, 8

; 888  : }

  00052	8b e5		 mov	 esp, ebp
  00054	5d		 pop	 ebp
  00055	c3		 ret	 0
$LN1@chrGetVirt:

; 886  : 
; 887  : 	return Py_BuildValue("i", CActorInstance::TYPE_PC);

  00056	6a 06		 push	 6
  00058	68 00 00 00 00	 push	 OFFSET ??_C@_01KBJDNOO@i?$AA@
  0005d	ff 15 00 00 00
	00		 call	 DWORD PTR __imp__Py_BuildValue
  00063	83 c4 08	 add	 esp, 8

; 888  : }

  00066	8b e5		 mov	 esp, ebp
  00068	5d		 pop	 ebp
  00069	c3		 ret	 0
?chrGetVirtualNumber@@YAPAU_object@@PAU1@0@Z ENDP	; chrGetVirtualNumber
_TEXT	ENDS
; Function compile flags: /Ogtp
; File d:\metin2\metin2\client_source_clean\client_source_clean\source\userinterface\pythoncharactermodule.cpp
;	COMDAT ?chrGetInstanceType@@YAPAU_object@@PAU1@0@Z
_TEXT	SEGMENT
_iVirtualID$ = -4					; size = 4
_poSelf$ = 8						; size = 4
_poArgs$ = 12						; size = 4
?chrGetInstanceType@@YAPAU_object@@PAU1@0@Z PROC	; chrGetInstanceType, COMDAT

; 891  : {

  00000	55		 push	 ebp
  00001	8b ec		 mov	 ebp, esp
  00003	51		 push	 ecx

; 892  : 	int iVirtualID;
; 893  : 	if (!PyTuple_GetInteger(poArgs, 0, &iVirtualID))

  00004	8d 45 fc	 lea	 eax, DWORD PTR _iVirtualID$[ebp]
  00007	50		 push	 eax
  00008	6a 00		 push	 0
  0000a	ff 75 0c	 push	 DWORD PTR _poArgs$[ebp]
  0000d	e8 00 00 00 00	 call	 ?PyTuple_GetInteger@@YA_NPAU_object@@HPAH@Z ; PyTuple_GetInteger
  00012	83 c4 0c	 add	 esp, 12			; 0000000cH
  00015	84 c0		 test	 al, al
  00017	75 0e		 jne	 SHORT $LN2@chrGetInst

; 894  : 		return Py_BuildException();

  00019	6a 00		 push	 0
  0001b	e8 00 00 00 00	 call	 ?Py_BuildException@@YAPAU_object@@PBDZZ ; Py_BuildException
  00020	83 c4 04	 add	 esp, 4

; 902  : }

  00023	8b e5		 mov	 esp, ebp
  00025	5d		 pop	 ebp
  00026	c3		 ret	 0
$LN2@chrGetInst:

; 895  : 
; 896  : 	CInstanceBase * pkInst = CPythonCharacterManager::Instance().GetInstancePtr(iVirtualID);

  00027	8b 0d 00 00 00
	00		 mov	 ecx, DWORD PTR ?ms_singleton@?$CSingleton@VCPythonCharacterManager@@@@0PAVCPythonCharacterManager@@A ; CSingleton<CPythonCharacterManager>::ms_singleton
  0002d	ff 75 fc	 push	 DWORD PTR _iVirtualID$[ebp]
  00030	83 c1 04	 add	 ecx, 4
  00033	8b 01		 mov	 eax, DWORD PTR [ecx]
  00035	ff 50 08	 call	 DWORD PTR [eax+8]

; 897  : 
; 898  : 	if (NULL != pkInst)

  00038	85 c0		 test	 eax, eax
  0003a	74 1a		 je	 SHORT $LN1@chrGetInst

; 899  : 		return Py_BuildValue("i", pkInst->GetInstanceType());

  0003c	8b c8		 mov	 ecx, eax
  0003e	e8 00 00 00 00	 call	 ?GetInstanceType@CInstanceBase@@QAEHXZ ; CInstanceBase::GetInstanceType
  00043	50		 push	 eax

; 900  : 
; 901  : 	return Py_BuildValue("i", CActorInstance::TYPE_PC);

  00044	68 00 00 00 00	 push	 OFFSET ??_C@_01KBJDNOO@i?$AA@
  00049	ff 15 00 00 00
	00		 call	 DWORD PTR __imp__Py_BuildValue
  0004f	83 c4 08	 add	 esp, 8

; 902  : }

  00052	8b e5		 mov	 esp, ebp
  00054	5d		 pop	 ebp
  00055	c3		 ret	 0
$LN1@chrGetInst:

; 900  : 
; 901  : 	return Py_BuildValue("i", CActorInstance::TYPE_PC);

  00056	6a 06		 push	 6
  00058	68 00 00 00 00	 push	 OFFSET ??_C@_01KBJDNOO@i?$AA@
  0005d	ff 15 00 00 00
	00		 call	 DWORD PTR __imp__Py_BuildValue
  00063	83 c4 08	 add	 esp, 8

; 902  : }

  00066	8b e5		 mov	 esp, ebp
  00068	5d		 pop	 ebp
  00069	c3		 ret	 0
?chrGetInstanceType@@YAPAU_object@@PAU1@0@Z ENDP	; chrGetInstanceType
_TEXT	ENDS
; Function compile flags: /Ogtp
; File d:\metin2\metin2\client_source_clean\client_source_clean\source\userinterface\pythoncharactermodule.cpp
;	COMDAT ?chrGetBoundBoxOnlyXY@@YAPAU_object@@PAU1@0@Z
_TEXT	SEGMENT
_v3Max$ = -28						; size = 12
_v3Min$ = -16						; size = 12
__$ArrayPad$ = -4					; size = 4
_poSelf$ = 8						; size = 4
_poArgs$ = 12						; size = 4
?chrGetBoundBoxOnlyXY@@YAPAU_object@@PAU1@0@Z PROC	; chrGetBoundBoxOnlyXY, COMDAT

; 905  : {

  00000	55		 push	 ebp
  00001	8b ec		 mov	 ebp, esp
  00003	83 e4 c0	 and	 esp, -64		; ffffffc0H
  00006	83 ec 40	 sub	 esp, 64			; 00000040H
  00009	a1 00 00 00 00	 mov	 eax, DWORD PTR ___security_cookie
  0000e	33 c4		 xor	 eax, esp
  00010	89 44 24 3c	 mov	 DWORD PTR __$ArrayPad$[esp+64], eax

; 906  : 	CInstanceBase * pkInst = CPythonCharacterManager::Instance().GetSelectedInstancePtr();

  00014	8b 0d 00 00 00
	00		 mov	 ecx, DWORD PTR ?ms_singleton@?$CSingleton@VCPythonCharacterManager@@@@0PAVCPythonCharacterManager@@A ; CSingleton<CPythonCharacterManager>::ms_singleton
  0001a	e8 00 00 00 00	 call	 ?GetSelectedInstancePtr@CPythonCharacterManager@@QAEPAVCInstanceBase@@XZ ; CPythonCharacterManager::GetSelectedInstancePtr

; 907  : 
; 908  : 	if (!pkInst)

  0001f	85 c0		 test	 eax, eax
  00021	75 11		 jne	 SHORT $LN1@chrGetBoun

; 909  : 		return Py_BuildValue("ffff", 0.0f, 0.0f, 0.0f, 0.0f);

  00023	83 ec 20	 sub	 esp, 32			; 00000020H
  00026	0f 57 c0	 xorps	 xmm0, xmm0
  00029	0f 11 44 24 10	 movups	 XMMWORD PTR [esp+16], xmm0
  0002e	0f 11 04 24	 movups	 XMMWORD PTR [esp], xmm0
  00032	eb 4f		 jmp	 SHORT $LN10@chrGetBoun
$LN1@chrGetBoun:

; 910  : 
; 911  : 	D3DXVECTOR3 v3Min, v3Max;
; 912  : 	pkInst->GetBoundBox(&v3Min, &v3Max);

  00034	8d 4c 24 24	 lea	 ecx, DWORD PTR _v3Max$[esp+64]
  00038	51		 push	 ecx
  00039	8d 4c 24 34	 lea	 ecx, DWORD PTR _v3Min$[esp+68]
  0003d	51		 push	 ecx
  0003e	8b c8		 mov	 ecx, eax
  00040	e8 00 00 00 00	 call	 ?GetBoundBox@CInstanceBase@@QAEXPAUD3DXVECTOR3@@0@Z ; CInstanceBase::GetBoundBox
  00045	f3 0f 10 44 24
	28		 movss	 xmm0, DWORD PTR _v3Max$[esp+68]

; 913  : 
; 914  : 	return Py_BuildValue("ffff", v3Min.x, v3Min.y, v3Max.x, v3Max.y);

  0004b	83 ec 20	 sub	 esp, 32			; 00000020H
  0004e	0f 5a c0	 cvtps2pd xmm0, xmm0
  00051	f2 0f 11 44 24
	18		 movsd	 QWORD PTR [esp+24], xmm0
  00057	f3 0f 10 44 24
	44		 movss	 xmm0, DWORD PTR _v3Max$[esp+96]
  0005d	0f 5a c0	 cvtps2pd xmm0, xmm0
  00060	f2 0f 11 44 24
	10		 movsd	 QWORD PTR [esp+16], xmm0
  00066	f3 0f 10 44 24
	54		 movss	 xmm0, DWORD PTR _v3Min$[esp+100]
  0006c	0f 5a c0	 cvtps2pd xmm0, xmm0
  0006f	f2 0f 11 44 24
	08		 movsd	 QWORD PTR [esp+8], xmm0
  00075	f3 0f 10 44 24
	50		 movss	 xmm0, DWORD PTR _v3Min$[esp+96]
  0007b	0f 5a c0	 cvtps2pd xmm0, xmm0
  0007e	f2 0f 11 04 24	 movsd	 QWORD PTR [esp], xmm0
$LN10@chrGetBoun:
  00083	68 00 00 00 00	 push	 OFFSET ??_C@_04EOBPFJGD@ffff?$AA@
  00088	ff 15 00 00 00
	00		 call	 DWORD PTR __imp__Py_BuildValue

; 915  : }

  0008e	8b 4c 24 60	 mov	 ecx, DWORD PTR __$ArrayPad$[esp+100]
  00092	83 c4 24	 add	 esp, 36			; 00000024H
  00095	33 cc		 xor	 ecx, esp
  00097	e8 00 00 00 00	 call	 @__security_check_cookie@4
  0009c	8b e5		 mov	 esp, ebp
  0009e	5d		 pop	 ebp
  0009f	c3		 ret	 0
?chrGetBoundBoxOnlyXY@@YAPAU_object@@PAU1@0@Z ENDP	; chrGetBoundBoxOnlyXY
_TEXT	ENDS
; Function compile flags: /Ogtp
; File d:\metin2\metin2\client_source_clean\client_source_clean\source\userinterface\pythoncharactermodule.cpp
;	COMDAT ?chrtestGetPKData@@YAPAU_object@@PAU1@0@Z
_TEXT	SEGMENT
_poSelf$ = 8						; size = 4
_poArgs$ = 12						; size = 4
?chrtestGetPKData@@YAPAU_object@@PAU1@0@Z PROC		; chrtestGetPKData, COMDAT

; 919  : 	CInstanceBase * pkInst = CPythonCharacterManager::Instance().GetSelectedInstancePtr();

  00000	8b 0d 00 00 00
	00		 mov	 ecx, DWORD PTR ?ms_singleton@?$CSingleton@VCPythonCharacterManager@@@@0PAVCPythonCharacterManager@@A ; CSingleton<CPythonCharacterManager>::ms_singleton
  00006	56		 push	 esi
  00007	e8 00 00 00 00	 call	 ?GetSelectedInstancePtr@CPythonCharacterManager@@QAEPAVCInstanceBase@@XZ ; CPythonCharacterManager::GetSelectedInstancePtr
  0000c	8b f0		 mov	 esi, eax

; 920  : 
; 921  : 	if (!pkInst)

  0000e	85 f6		 test	 esi, esi
  00010	75 13		 jne	 SHORT $LN1@chrtestGet

; 922  : 		return Py_BuildValue("ii", 0, 4);

  00012	6a 04		 push	 4
  00014	50		 push	 eax

; 923  : 
; 924  : 	return Py_BuildValue("ii", pkInst->GetAlignment(), pkInst->GetAlignmentGrade());

  00015	68 00 00 00 00	 push	 OFFSET ??_C@_02PDIHAGKM@ii?$AA@
  0001a	ff 15 00 00 00
	00		 call	 DWORD PTR __imp__Py_BuildValue
  00020	83 c4 0c	 add	 esp, 12			; 0000000cH
  00023	5e		 pop	 esi

; 925  : }

  00024	c3		 ret	 0
$LN1@chrtestGet:

; 923  : 
; 924  : 	return Py_BuildValue("ii", pkInst->GetAlignment(), pkInst->GetAlignmentGrade());

  00025	8b ce		 mov	 ecx, esi
  00027	e8 00 00 00 00	 call	 ?GetAlignmentGrade@CInstanceBase@@QAEIXZ ; CInstanceBase::GetAlignmentGrade
  0002c	50		 push	 eax
  0002d	8b ce		 mov	 ecx, esi
  0002f	e8 00 00 00 00	 call	 ?GetAlignment@CInstanceBase@@QAEHXZ ; CInstanceBase::GetAlignment
  00034	50		 push	 eax
  00035	68 00 00 00 00	 push	 OFFSET ??_C@_02PDIHAGKM@ii?$AA@
  0003a	ff 15 00 00 00
	00		 call	 DWORD PTR __imp__Py_BuildValue
  00040	83 c4 0c	 add	 esp, 12			; 0000000cH
  00043	5e		 pop	 esi

; 925  : }

  00044	c3		 ret	 0
?chrtestGetPKData@@YAPAU_object@@PAU1@0@Z ENDP		; chrtestGetPKData
_TEXT	ENDS
; Function compile flags: /Ogtp
; File d:\metin2\metin2\client_source_clean\client_source_clean\source\userinterface\pythoncharactermodule.cpp
;	COMDAT ?chrtestSetComboType@@YAPAU_object@@PAU1@0@Z
_TEXT	SEGMENT
_iComboType$ = -4					; size = 4
_poSelf$ = 8						; size = 4
_poArgs$ = 12						; size = 4
?chrtestSetComboType@@YAPAU_object@@PAU1@0@Z PROC	; chrtestSetComboType, COMDAT

; 928  : {

  00000	55		 push	 ebp
  00001	8b ec		 mov	 ebp, esp
  00003	51		 push	 ecx

; 929  : 	int iComboType;
; 930  : 	if (!PyTuple_GetInteger(poArgs, 0, &iComboType))

  00004	8d 45 fc	 lea	 eax, DWORD PTR _iComboType$[ebp]
  00007	50		 push	 eax
  00008	6a 00		 push	 0
  0000a	ff 75 0c	 push	 DWORD PTR _poArgs$[ebp]
  0000d	e8 00 00 00 00	 call	 ?PyTuple_GetInteger@@YA_NPAU_object@@HPAH@Z ; PyTuple_GetInteger
  00012	83 c4 0c	 add	 esp, 12			; 0000000cH
  00015	84 c0		 test	 al, al
  00017	75 0e		 jne	 SHORT $LN2@chrtestSet

; 931  : 		return Py_BuildException();

  00019	6a 00		 push	 0
  0001b	e8 00 00 00 00	 call	 ?Py_BuildException@@YAPAU_object@@PBDZZ ; Py_BuildException
  00020	83 c4 04	 add	 esp, 4

; 940  : }

  00023	8b e5		 mov	 esp, ebp
  00025	5d		 pop	 ebp
  00026	c3		 ret	 0
$LN2@chrtestSet:

; 932  : 
; 933  : 	CInstanceBase * pkInst = CPythonCharacterManager::Instance().GetSelectedInstancePtr();

  00027	8b 0d 00 00 00
	00		 mov	 ecx, DWORD PTR ?ms_singleton@?$CSingleton@VCPythonCharacterManager@@@@0PAVCPythonCharacterManager@@A ; CSingleton<CPythonCharacterManager>::ms_singleton
  0002d	e8 00 00 00 00	 call	 ?GetSelectedInstancePtr@CPythonCharacterManager@@QAEPAVCInstanceBase@@XZ ; CPythonCharacterManager::GetSelectedInstancePtr

; 934  : 	if (!pkInst)

  00032	85 c0		 test	 eax, eax
  00034	74 11		 je	 SHORT $LN7@chrtestSet

; 935  : 		return Py_BuildNone();
; 936  : 
; 937  : 	pkInst->GetGraphicThingInstanceRef().SetComboType(iComboType);

  00036	ff 75 fc	 push	 DWORD PTR _iComboType$[ebp]
  00039	8b c8		 mov	 ecx, eax
  0003b	e8 00 00 00 00	 call	 ?GetGraphicThingInstanceRef@CInstanceBase@@QAEAAVCActorInstance@@XZ ; CInstanceBase::GetGraphicThingInstanceRef
  00040	8b c8		 mov	 ecx, eax
  00042	e8 00 00 00 00	 call	 ?SetComboType@CActorInstance@@QAEXG@Z ; CActorInstance::SetComboType
$LN7@chrtestSet:

; 938  : 
; 939  : 	return Py_BuildNone();

  00047	e8 00 00 00 00	 call	 ?Py_BuildNone@@YAPAU_object@@XZ ; Py_BuildNone

; 940  : }

  0004c	8b e5		 mov	 esp, ebp
  0004e	5d		 pop	 ebp
  0004f	c3		 ret	 0
?chrtestSetComboType@@YAPAU_object@@PAU1@0@Z ENDP	; chrtestSetComboType
_TEXT	ENDS
; Function compile flags: /Ogtp
; File d:\metin2\metin2\client_source_clean\client_source_clean\source\userinterface\pythoncharactermodule.cpp
; File d:\metin2\metin2\client_source_clean\client_source_clean\extern\include\d3dx8math.inl
; File d:\metin2\metin2\client_source_clean\client_source_clean\source\userinterface\pythoncharactermodule.cpp
; File d:\metin2\metin2\client_source_clean\client_source_clean\extern\include\d3dx8math.inl
; File d:\metin2\metin2\client_source_clean\client_source_clean\source\userinterface\pythoncharactermodule.cpp
; File d:\metin2\metin2\client_source_clean\client_source_clean\extern\include\d3dx8math.inl
; File d:\metin2\metin2\client_source_clean\client_source_clean\source\userinterface\pythoncharactermodule.cpp
; File d:\metin2\metin2\client_source_clean\client_source_clean\extern\include\d3dx8math.inl
; File d:\metin2\metin2\client_source_clean\client_source_clean\source\userinterface\pythoncharactermodule.cpp
; File d:\metin2\metin2\client_source_clean\client_source_clean\extern\include\d3dx8math.inl
; File d:\metin2\metin2\client_source_clean\client_source_clean\source\userinterface\pythoncharactermodule.cpp
;	COMDAT ?chrtestSetAddRenderMode@@YAPAU_object@@PAU1@0@Z
_TEXT	SEGMENT
$T1 = -24						; size = 16
_iColor$ = -8						; size = 4
_iVirtualID$ = -4					; size = 4
_poSelf$ = 8						; size = 4
_poArgs$ = 12						; size = 4
?chrtestSetAddRenderMode@@YAPAU_object@@PAU1@0@Z PROC	; chrtestSetAddRenderMode, COMDAT

; 943  : {

  00000	55		 push	 ebp
  00001	8b ec		 mov	 ebp, esp
  00003	83 ec 18	 sub	 esp, 24			; 00000018H

; 944  : 	int iVirtualID;
; 945  : 	if (!PyTuple_GetInteger(poArgs, 0, &iVirtualID))

  00006	8d 45 fc	 lea	 eax, DWORD PTR _iVirtualID$[ebp]
  00009	56		 push	 esi
  0000a	8b 75 0c	 mov	 esi, DWORD PTR _poArgs$[ebp]
  0000d	50		 push	 eax
  0000e	6a 00		 push	 0
  00010	56		 push	 esi
  00011	e8 00 00 00 00	 call	 ?PyTuple_GetInteger@@YA_NPAU_object@@HPAH@Z ; PyTuple_GetInteger
  00016	83 c4 0c	 add	 esp, 12			; 0000000cH
  00019	84 c0		 test	 al, al
  0001b	75 0f		 jne	 SHORT $LN3@chrtestSet
$LN10@chrtestSet:

; 946  : 		return Py_BuildException();

  0001d	6a 00		 push	 0
  0001f	e8 00 00 00 00	 call	 ?Py_BuildException@@YAPAU_object@@PBDZZ ; Py_BuildException
  00024	83 c4 04	 add	 esp, 4
  00027	5e		 pop	 esi

; 959  : }

  00028	8b e5		 mov	 esp, ebp
  0002a	5d		 pop	 ebp
  0002b	c3		 ret	 0
$LN3@chrtestSet:

; 947  : 	int iColor;
; 948  : 	if (!PyTuple_GetInteger(poArgs, 1, &iColor))

  0002c	8d 45 f8	 lea	 eax, DWORD PTR _iColor$[ebp]
  0002f	50		 push	 eax
  00030	6a 01		 push	 1
  00032	56		 push	 esi
  00033	e8 00 00 00 00	 call	 ?PyTuple_GetInteger@@YA_NPAU_object@@HPAH@Z ; PyTuple_GetInteger
  00038	83 c4 0c	 add	 esp, 12			; 0000000cH
  0003b	84 c0		 test	 al, al
  0003d	74 de		 je	 SHORT $LN10@chrtestSet

; 949  : 		return Py_BuildException();
; 950  : 
; 951  : 	CInstanceBase * pkInst = CPythonCharacterManager::Instance().GetInstancePtr(iVirtualID);

  0003f	8b 0d 00 00 00
	00		 mov	 ecx, DWORD PTR ?ms_singleton@?$CSingleton@VCPythonCharacterManager@@@@0PAVCPythonCharacterManager@@A ; CSingleton<CPythonCharacterManager>::ms_singleton
  00045	ff 75 fc	 push	 DWORD PTR _iVirtualID$[ebp]
  00048	83 c1 04	 add	 ecx, 4
  0004b	8b 01		 mov	 eax, DWORD PTR [ecx]
  0004d	ff 50 08	 call	 DWORD PTR [eax+8]
  00050	8b f0		 mov	 esi, eax

; 952  : 	if (pkInst)

  00052	85 f6		 test	 esi, esi
  00054	74 79		 je	 SHORT $LN1@chrtestSet

; 953  : 	{
; 954  : 		pkInst->SetAddRenderMode();

  00056	8b ce		 mov	 ecx, esi
  00058	e8 00 00 00 00	 call	 ?SetAddRenderMode@CInstanceBase@@QAEXXZ ; CInstanceBase::SetAddRenderMode

; 955  : 		pkInst->SetAddColor(0xff000000 | iColor);

  0005d	8b 55 f8	 mov	 edx, DWORD PTR _iColor$[ebp]
; File d:\metin2\metin2\client_source_clean\client_source_clean\extern\include\d3dx8math.inl

; 888  :     r = f * (FLOAT) (unsigned char) (dw >> 16);

  00060	f3 0f 10 0d 00
	00 00 00	 movss	 xmm1, DWORD PTR __real@3b808081
; File d:\metin2\metin2\client_source_clean\client_source_clean\source\userinterface\pythoncharactermodule.cpp

; 955  : 		pkInst->SetAddColor(0xff000000 | iColor);

  00068	81 ca 00 00 00
	ff		 or	 edx, -16777216		; ff000000H
; File d:\metin2\metin2\client_source_clean\client_source_clean\extern\include\d3dx8math.inl

; 888  :     r = f * (FLOAT) (unsigned char) (dw >> 16);

  0006e	8b ca		 mov	 ecx, edx
  00070	c1 e9 10	 shr	 ecx, 16			; 00000010H
  00073	0f b6 c1	 movzx	 eax, cl
; File d:\metin2\metin2\client_source_clean\client_source_clean\source\userinterface\pythoncharactermodule.cpp

; 955  : 		pkInst->SetAddColor(0xff000000 | iColor);

  00076	8b ce		 mov	 ecx, esi
  00078	66 0f 6e c0	 movd	 xmm0, eax
; File d:\metin2\metin2\client_source_clean\client_source_clean\extern\include\d3dx8math.inl

; 889  :     g = f * (FLOAT) (unsigned char) (dw >>  8);

  0007c	8b c2		 mov	 eax, edx
  0007e	0f 5b c0	 cvtdq2ps xmm0, xmm0
  00081	c1 e8 08	 shr	 eax, 8
  00084	0f b6 c0	 movzx	 eax, al
  00087	f3 0f 59 c1	 mulss	 xmm0, xmm1
  0008b	f3 0f 11 45 e8	 movss	 DWORD PTR $T1[ebp], xmm0
  00090	66 0f 6e c0	 movd	 xmm0, eax
  00094	0f 5b c0	 cvtdq2ps xmm0, xmm0

; 890  :     b = f * (FLOAT) (unsigned char) (dw >>  0);

  00097	0f b6 c2	 movzx	 eax, dl

; 891  :     a = f * (FLOAT) (unsigned char) (dw >> 24);

  0009a	c1 ea 18	 shr	 edx, 24			; 00000018H
  0009d	f3 0f 59 c1	 mulss	 xmm0, xmm1
  000a1	f3 0f 11 45 ec	 movss	 DWORD PTR $T1[ebp+4], xmm0
  000a6	66 0f 6e c0	 movd	 xmm0, eax
; File d:\metin2\metin2\client_source_clean\client_source_clean\source\userinterface\pythoncharactermodule.cpp

; 955  : 		pkInst->SetAddColor(0xff000000 | iColor);

  000aa	8d 45 e8	 lea	 eax, DWORD PTR $T1[ebp]
; File d:\metin2\metin2\client_source_clean\client_source_clean\extern\include\d3dx8math.inl

; 890  :     b = f * (FLOAT) (unsigned char) (dw >>  0);

  000ad	0f 5b c0	 cvtdq2ps xmm0, xmm0
; File d:\metin2\metin2\client_source_clean\client_source_clean\source\userinterface\pythoncharactermodule.cpp

; 955  : 		pkInst->SetAddColor(0xff000000 | iColor);

  000b0	50		 push	 eax
; File d:\metin2\metin2\client_source_clean\client_source_clean\extern\include\d3dx8math.inl

; 890  :     b = f * (FLOAT) (unsigned char) (dw >>  0);

  000b1	f3 0f 59 c1	 mulss	 xmm0, xmm1
  000b5	f3 0f 11 45 f0	 movss	 DWORD PTR $T1[ebp+8], xmm0
  000ba	66 0f 6e c2	 movd	 xmm0, edx

; 891  :     a = f * (FLOAT) (unsigned char) (dw >> 24);

  000be	0f 5b c0	 cvtdq2ps xmm0, xmm0
  000c1	f3 0f 59 c1	 mulss	 xmm0, xmm1
  000c5	f3 0f 11 45 f4	 movss	 DWORD PTR $T1[ebp+12], xmm0
; File d:\metin2\metin2\client_source_clean\client_source_clean\source\userinterface\pythoncharactermodule.cpp

; 955  : 		pkInst->SetAddColor(0xff000000 | iColor);

  000ca	e8 00 00 00 00	 call	 ?SetAddColor@CInstanceBase@@QAEXABUD3DXCOLOR@@@Z ; CInstanceBase::SetAddColor
$LN1@chrtestSet:

; 956  : 	}
; 957  : 
; 958  : 	return Py_BuildNone();

  000cf	e8 00 00 00 00	 call	 ?Py_BuildNone@@YAPAU_object@@XZ ; Py_BuildNone
  000d4	5e		 pop	 esi

; 959  : }

  000d5	8b e5		 mov	 esp, ebp
  000d7	5d		 pop	 ebp
  000d8	c3		 ret	 0
?chrtestSetAddRenderMode@@YAPAU_object@@PAU1@0@Z ENDP	; chrtestSetAddRenderMode
_TEXT	ENDS
; Function compile flags: /Ogtp
; File d:\metin2\metin2\client_source_clean\client_source_clean\source\userinterface\pythoncharactermodule.cpp
; File d:\metin2\metin2\client_source_clean\client_source_clean\extern\include\d3dx8math.inl
; File d:\metin2\metin2\client_source_clean\client_source_clean\source\userinterface\pythoncharactermodule.cpp
; File d:\metin2\metin2\client_source_clean\client_source_clean\extern\include\d3dx8math.inl
; File d:\metin2\metin2\client_source_clean\client_source_clean\source\userinterface\pythoncharactermodule.cpp
; File d:\metin2\metin2\client_source_clean\client_source_clean\extern\include\d3dx8math.inl
; File d:\metin2\metin2\client_source_clean\client_source_clean\source\userinterface\pythoncharactermodule.cpp
; File d:\metin2\metin2\client_source_clean\client_source_clean\extern\include\d3dx8math.inl
; File d:\metin2\metin2\client_source_clean\client_source_clean\source\userinterface\pythoncharactermodule.cpp
; File d:\metin2\metin2\client_source_clean\client_source_clean\extern\include\d3dx8math.inl
; File d:\metin2\metin2\client_source_clean\client_source_clean\source\userinterface\pythoncharactermodule.cpp
;	COMDAT ?chrtestSetModulateRenderMode@@YAPAU_object@@PAU1@0@Z
_TEXT	SEGMENT
$T1 = -24						; size = 16
_iColor$ = -8						; size = 4
_iVirtualID$ = -4					; size = 4
_poSelf$ = 8						; size = 4
_poArgs$ = 12						; size = 4
?chrtestSetModulateRenderMode@@YAPAU_object@@PAU1@0@Z PROC ; chrtestSetModulateRenderMode, COMDAT

; 962  : {

  00000	55		 push	 ebp
  00001	8b ec		 mov	 ebp, esp
  00003	83 ec 18	 sub	 esp, 24			; 00000018H

; 963  : 	int iVirtualID;
; 964  : 	if (!PyTuple_GetInteger(poArgs, 0, &iVirtualID))

  00006	8d 45 fc	 lea	 eax, DWORD PTR _iVirtualID$[ebp]
  00009	56		 push	 esi
  0000a	8b 75 0c	 mov	 esi, DWORD PTR _poArgs$[ebp]
  0000d	50		 push	 eax
  0000e	6a 00		 push	 0
  00010	56		 push	 esi
  00011	e8 00 00 00 00	 call	 ?PyTuple_GetInteger@@YA_NPAU_object@@HPAH@Z ; PyTuple_GetInteger
  00016	83 c4 0c	 add	 esp, 12			; 0000000cH
  00019	84 c0		 test	 al, al
  0001b	75 0f		 jne	 SHORT $LN3@chrtestSet
$LN10@chrtestSet:

; 965  : 		return Py_BuildException();

  0001d	6a 00		 push	 0
  0001f	e8 00 00 00 00	 call	 ?Py_BuildException@@YAPAU_object@@PBDZZ ; Py_BuildException
  00024	83 c4 04	 add	 esp, 4
  00027	5e		 pop	 esi

; 978  : }

  00028	8b e5		 mov	 esp, ebp
  0002a	5d		 pop	 ebp
  0002b	c3		 ret	 0
$LN3@chrtestSet:

; 966  : 	int iColor;
; 967  : 	if (!PyTuple_GetInteger(poArgs, 1, &iColor))

  0002c	8d 45 f8	 lea	 eax, DWORD PTR _iColor$[ebp]
  0002f	50		 push	 eax
  00030	6a 01		 push	 1
  00032	56		 push	 esi
  00033	e8 00 00 00 00	 call	 ?PyTuple_GetInteger@@YA_NPAU_object@@HPAH@Z ; PyTuple_GetInteger
  00038	83 c4 0c	 add	 esp, 12			; 0000000cH
  0003b	84 c0		 test	 al, al
  0003d	74 de		 je	 SHORT $LN10@chrtestSet

; 968  : 		return Py_BuildException();
; 969  : 
; 970  : 	CInstanceBase * pkInst = CPythonCharacterManager::Instance().GetInstancePtr(iVirtualID);

  0003f	8b 0d 00 00 00
	00		 mov	 ecx, DWORD PTR ?ms_singleton@?$CSingleton@VCPythonCharacterManager@@@@0PAVCPythonCharacterManager@@A ; CSingleton<CPythonCharacterManager>::ms_singleton
  00045	ff 75 fc	 push	 DWORD PTR _iVirtualID$[ebp]
  00048	83 c1 04	 add	 ecx, 4
  0004b	8b 01		 mov	 eax, DWORD PTR [ecx]
  0004d	ff 50 08	 call	 DWORD PTR [eax+8]
  00050	8b f0		 mov	 esi, eax

; 971  : 	if (pkInst)

  00052	85 f6		 test	 esi, esi
  00054	74 79		 je	 SHORT $LN1@chrtestSet

; 972  : 	{
; 973  : 		pkInst->SetModulateRenderMode();

  00056	8b ce		 mov	 ecx, esi
  00058	e8 00 00 00 00	 call	 ?SetModulateRenderMode@CInstanceBase@@QAEXXZ ; CInstanceBase::SetModulateRenderMode

; 974  : 		pkInst->SetAddColor(0xff000000 | iColor);

  0005d	8b 55 f8	 mov	 edx, DWORD PTR _iColor$[ebp]
; File d:\metin2\metin2\client_source_clean\client_source_clean\extern\include\d3dx8math.inl

; 888  :     r = f * (FLOAT) (unsigned char) (dw >> 16);

  00060	f3 0f 10 0d 00
	00 00 00	 movss	 xmm1, DWORD PTR __real@3b808081
; File d:\metin2\metin2\client_source_clean\client_source_clean\source\userinterface\pythoncharactermodule.cpp

; 974  : 		pkInst->SetAddColor(0xff000000 | iColor);

  00068	81 ca 00 00 00
	ff		 or	 edx, -16777216		; ff000000H
; File d:\metin2\metin2\client_source_clean\client_source_clean\extern\include\d3dx8math.inl

; 888  :     r = f * (FLOAT) (unsigned char) (dw >> 16);

  0006e	8b ca		 mov	 ecx, edx
  00070	c1 e9 10	 shr	 ecx, 16			; 00000010H
  00073	0f b6 c1	 movzx	 eax, cl
; File d:\metin2\metin2\client_source_clean\client_source_clean\source\userinterface\pythoncharactermodule.cpp

; 974  : 		pkInst->SetAddColor(0xff000000 | iColor);

  00076	8b ce		 mov	 ecx, esi
  00078	66 0f 6e c0	 movd	 xmm0, eax
; File d:\metin2\metin2\client_source_clean\client_source_clean\extern\include\d3dx8math.inl

; 889  :     g = f * (FLOAT) (unsigned char) (dw >>  8);

  0007c	8b c2		 mov	 eax, edx
  0007e	0f 5b c0	 cvtdq2ps xmm0, xmm0
  00081	c1 e8 08	 shr	 eax, 8
  00084	0f b6 c0	 movzx	 eax, al
  00087	f3 0f 59 c1	 mulss	 xmm0, xmm1
  0008b	f3 0f 11 45 e8	 movss	 DWORD PTR $T1[ebp], xmm0
  00090	66 0f 6e c0	 movd	 xmm0, eax
  00094	0f 5b c0	 cvtdq2ps xmm0, xmm0

; 890  :     b = f * (FLOAT) (unsigned char) (dw >>  0);

  00097	0f b6 c2	 movzx	 eax, dl

; 891  :     a = f * (FLOAT) (unsigned char) (dw >> 24);

  0009a	c1 ea 18	 shr	 edx, 24			; 00000018H
  0009d	f3 0f 59 c1	 mulss	 xmm0, xmm1
  000a1	f3 0f 11 45 ec	 movss	 DWORD PTR $T1[ebp+4], xmm0
  000a6	66 0f 6e c0	 movd	 xmm0, eax
; File d:\metin2\metin2\client_source_clean\client_source_clean\source\userinterface\pythoncharactermodule.cpp

; 974  : 		pkInst->SetAddColor(0xff000000 | iColor);

  000aa	8d 45 e8	 lea	 eax, DWORD PTR $T1[ebp]
; File d:\metin2\metin2\client_source_clean\client_source_clean\extern\include\d3dx8math.inl

; 890  :     b = f * (FLOAT) (unsigned char) (dw >>  0);

  000ad	0f 5b c0	 cvtdq2ps xmm0, xmm0
; File d:\metin2\metin2\client_source_clean\client_source_clean\source\userinterface\pythoncharactermodule.cpp

; 974  : 		pkInst->SetAddColor(0xff000000 | iColor);

  000b0	50		 push	 eax
; File d:\metin2\metin2\client_source_clean\client_source_clean\extern\include\d3dx8math.inl

; 890  :     b = f * (FLOAT) (unsigned char) (dw >>  0);

  000b1	f3 0f 59 c1	 mulss	 xmm0, xmm1
  000b5	f3 0f 11 45 f0	 movss	 DWORD PTR $T1[ebp+8], xmm0
  000ba	66 0f 6e c2	 movd	 xmm0, edx

; 891  :     a = f * (FLOAT) (unsigned char) (dw >> 24);

  000be	0f 5b c0	 cvtdq2ps xmm0, xmm0
  000c1	f3 0f 59 c1	 mulss	 xmm0, xmm1
  000c5	f3 0f 11 45 f4	 movss	 DWORD PTR $T1[ebp+12], xmm0
; File d:\metin2\metin2\client_source_clean\client_source_clean\source\userinterface\pythoncharactermodule.cpp

; 974  : 		pkInst->SetAddColor(0xff000000 | iColor);

  000ca	e8 00 00 00 00	 call	 ?SetAddColor@CInstanceBase@@QAEXABUD3DXCOLOR@@@Z ; CInstanceBase::SetAddColor
$LN1@chrtestSet:

; 975  : 	}
; 976  : 
; 977  : 	return Py_BuildNone();

  000cf	e8 00 00 00 00	 call	 ?Py_BuildNone@@YAPAU_object@@XZ ; Py_BuildNone
  000d4	5e		 pop	 esi

; 978  : }

  000d5	8b e5		 mov	 esp, ebp
  000d7	5d		 pop	 ebp
  000d8	c3		 ret	 0
?chrtestSetModulateRenderMode@@YAPAU_object@@PAU1@0@Z ENDP ; chrtestSetModulateRenderMode
_TEXT	ENDS
; Function compile flags: /Ogtp
; File d:\metin2\metin2\client_source_clean\client_source_clean\source\userinterface\pythoncharactermodule.cpp
; File d:\metin2\metin2\client_source_clean\client_source_clean\extern\include\d3dx8math.inl
; File d:\metin2\metin2\client_source_clean\client_source_clean\source\userinterface\pythoncharactermodule.cpp
; File d:\metin2\metin2\client_source_clean\client_source_clean\extern\include\d3dx8math.inl
; File d:\metin2\metin2\client_source_clean\client_source_clean\source\userinterface\pythoncharactermodule.cpp
; File d:\metin2\metin2\client_source_clean\client_source_clean\extern\include\d3dx8math.inl
; File d:\metin2\metin2\client_source_clean\client_source_clean\source\userinterface\pythoncharactermodule.cpp
; File d:\metin2\metin2\client_source_clean\client_source_clean\extern\include\d3dx8math.inl
; File d:\metin2\metin2\client_source_clean\client_source_clean\source\userinterface\pythoncharactermodule.cpp
;	COMDAT ?chrtestSetAddRenderModeRGB@@YAPAU_object@@PAU1@0@Z
_TEXT	SEGMENT
$T1 = -32						; size = 16
_fb$ = -16						; size = 4
_fg$ = -12						; size = 4
_fr$ = -8						; size = 4
_iVirtualID$ = -4					; size = 4
_poSelf$ = 8						; size = 4
_poArgs$ = 12						; size = 4
?chrtestSetAddRenderModeRGB@@YAPAU_object@@PAU1@0@Z PROC ; chrtestSetAddRenderModeRGB, COMDAT

; 981  : {

  00000	55		 push	 ebp
  00001	8b ec		 mov	 ebp, esp
  00003	83 ec 20	 sub	 esp, 32			; 00000020H

; 982  : 	int iVirtualID;
; 983  : 	if (!PyTuple_GetInteger(poArgs, 0, &iVirtualID))

  00006	8d 45 fc	 lea	 eax, DWORD PTR _iVirtualID$[ebp]
  00009	56		 push	 esi
  0000a	8b 75 0c	 mov	 esi, DWORD PTR _poArgs$[ebp]
  0000d	50		 push	 eax
  0000e	6a 00		 push	 0
  00010	56		 push	 esi
  00011	e8 00 00 00 00	 call	 ?PyTuple_GetInteger@@YA_NPAU_object@@HPAH@Z ; PyTuple_GetInteger
  00016	83 c4 0c	 add	 esp, 12			; 0000000cH
  00019	84 c0		 test	 al, al
  0001b	75 0f		 jne	 SHORT $LN5@chrtestSet
$LN12@chrtestSet:

; 984  : 		return Py_BuildException();

  0001d	6a 00		 push	 0
  0001f	e8 00 00 00 00	 call	 ?Py_BuildException@@YAPAU_object@@PBDZZ ; Py_BuildException
  00024	83 c4 04	 add	 esp, 4
  00027	5e		 pop	 esi

; 1003 : }

  00028	8b e5		 mov	 esp, ebp
  0002a	5d		 pop	 ebp
  0002b	c3		 ret	 0
$LN5@chrtestSet:

; 985  : 	float fr;
; 986  : 	if (!PyTuple_GetFloat(poArgs, 1, &fr))

  0002c	8d 45 f8	 lea	 eax, DWORD PTR _fr$[ebp]
  0002f	50		 push	 eax
  00030	6a 01		 push	 1
  00032	56		 push	 esi
  00033	e8 00 00 00 00	 call	 ?PyTuple_GetFloat@@YA_NPAU_object@@HPAM@Z ; PyTuple_GetFloat
  00038	83 c4 0c	 add	 esp, 12			; 0000000cH
  0003b	84 c0		 test	 al, al
  0003d	74 de		 je	 SHORT $LN12@chrtestSet

; 987  : 		return Py_BuildException();
; 988  : 	float fg;
; 989  : 	if (!PyTuple_GetFloat(poArgs, 2, &fg))

  0003f	8d 45 f4	 lea	 eax, DWORD PTR _fg$[ebp]
  00042	50		 push	 eax
  00043	6a 02		 push	 2
  00045	56		 push	 esi
  00046	e8 00 00 00 00	 call	 ?PyTuple_GetFloat@@YA_NPAU_object@@HPAM@Z ; PyTuple_GetFloat
  0004b	83 c4 0c	 add	 esp, 12			; 0000000cH
  0004e	84 c0		 test	 al, al
  00050	74 cb		 je	 SHORT $LN12@chrtestSet

; 990  : 		return Py_BuildException();
; 991  : 	float fb;
; 992  : 	if (!PyTuple_GetFloat(poArgs, 3, &fb))

  00052	8d 45 f0	 lea	 eax, DWORD PTR _fb$[ebp]
  00055	50		 push	 eax
  00056	6a 03		 push	 3
  00058	56		 push	 esi
  00059	e8 00 00 00 00	 call	 ?PyTuple_GetFloat@@YA_NPAU_object@@HPAM@Z ; PyTuple_GetFloat
  0005e	83 c4 0c	 add	 esp, 12			; 0000000cH
  00061	84 c0		 test	 al, al
  00063	74 b8		 je	 SHORT $LN12@chrtestSet

; 993  : 		return Py_BuildException();
; 994  : 
; 995  : 	CInstanceBase * pkInst = CPythonCharacterManager::Instance().GetInstancePtr(iVirtualID);

  00065	8b 0d 00 00 00
	00		 mov	 ecx, DWORD PTR ?ms_singleton@?$CSingleton@VCPythonCharacterManager@@@@0PAVCPythonCharacterManager@@A ; CSingleton<CPythonCharacterManager>::ms_singleton
  0006b	ff 75 fc	 push	 DWORD PTR _iVirtualID$[ebp]
  0006e	83 c1 04	 add	 ecx, 4
  00071	8b 01		 mov	 eax, DWORD PTR [ecx]
  00073	ff 50 08	 call	 DWORD PTR [eax+8]
  00076	8b f0		 mov	 esi, eax

; 996  : 	if (pkInst)

  00078	85 f6		 test	 esi, esi
  0007a	74 37		 je	 SHORT $LN1@chrtestSet

; 997  : 	{
; 998  : 		pkInst->SetAddRenderMode();

  0007c	8b ce		 mov	 ecx, esi
  0007e	e8 00 00 00 00	 call	 ?SetAddRenderMode@CInstanceBase@@QAEXXZ ; CInstanceBase::SetAddRenderMode
; File d:\metin2\metin2\client_source_clean\client_source_clean\extern\include\d3dx8math.inl

; 920  :     r = fr;

  00083	f3 0f 10 45 f8	 movss	 xmm0, DWORD PTR _fr$[ebp]
; File d:\metin2\metin2\client_source_clean\client_source_clean\source\userinterface\pythoncharactermodule.cpp

; 999  : 		pkInst->SetAddColor(D3DXCOLOR(fr, fg, fb, 1.0f));

  00088	8d 45 e0	 lea	 eax, DWORD PTR $T1[ebp]
; File d:\metin2\metin2\client_source_clean\client_source_clean\extern\include\d3dx8math.inl

; 920  :     r = fr;

  0008b	f3 0f 11 45 e0	 movss	 DWORD PTR $T1[ebp], xmm0
; File d:\metin2\metin2\client_source_clean\client_source_clean\source\userinterface\pythoncharactermodule.cpp

; 999  : 		pkInst->SetAddColor(D3DXCOLOR(fr, fg, fb, 1.0f));

  00090	8b ce		 mov	 ecx, esi
; File d:\metin2\metin2\client_source_clean\client_source_clean\extern\include\d3dx8math.inl

; 921  :     g = fg;

  00092	f3 0f 10 45 f4	 movss	 xmm0, DWORD PTR _fg$[ebp]
  00097	f3 0f 11 45 e4	 movss	 DWORD PTR $T1[ebp+4], xmm0

; 922  :     b = fb;

  0009c	f3 0f 10 45 f0	 movss	 xmm0, DWORD PTR _fb$[ebp]
; File d:\metin2\metin2\client_source_clean\client_source_clean\source\userinterface\pythoncharactermodule.cpp

; 999  : 		pkInst->SetAddColor(D3DXCOLOR(fr, fg, fb, 1.0f));

  000a1	50		 push	 eax
; File d:\metin2\metin2\client_source_clean\client_source_clean\extern\include\d3dx8math.inl

; 922  :     b = fb;

  000a2	f3 0f 11 45 e8	 movss	 DWORD PTR $T1[ebp+8], xmm0

; 923  :     a = fa;

  000a7	c7 45 ec 00 00
	80 3f		 mov	 DWORD PTR $T1[ebp+12], 1065353216 ; 3f800000H
; File d:\metin2\metin2\client_source_clean\client_source_clean\source\userinterface\pythoncharactermodule.cpp

; 999  : 		pkInst->SetAddColor(D3DXCOLOR(fr, fg, fb, 1.0f));

  000ae	e8 00 00 00 00	 call	 ?SetAddColor@CInstanceBase@@QAEXABUD3DXCOLOR@@@Z ; CInstanceBase::SetAddColor
$LN1@chrtestSet:

; 1000 : 	}
; 1001 : 
; 1002 : 	return Py_BuildNone();

  000b3	e8 00 00 00 00	 call	 ?Py_BuildNone@@YAPAU_object@@XZ ; Py_BuildNone
  000b8	5e		 pop	 esi

; 1003 : }

  000b9	8b e5		 mov	 esp, ebp
  000bb	5d		 pop	 ebp
  000bc	c3		 ret	 0
?chrtestSetAddRenderModeRGB@@YAPAU_object@@PAU1@0@Z ENDP ; chrtestSetAddRenderModeRGB
_TEXT	ENDS
; Function compile flags: /Ogtp
; File d:\metin2\metin2\client_source_clean\client_source_clean\source\userinterface\pythoncharactermodule.cpp
; File d:\metin2\metin2\client_source_clean\client_source_clean\extern\include\d3dx8math.inl
; File d:\metin2\metin2\client_source_clean\client_source_clean\source\userinterface\pythoncharactermodule.cpp
; File d:\metin2\metin2\client_source_clean\client_source_clean\extern\include\d3dx8math.inl
; File d:\metin2\metin2\client_source_clean\client_source_clean\source\userinterface\pythoncharactermodule.cpp
; File d:\metin2\metin2\client_source_clean\client_source_clean\extern\include\d3dx8math.inl
; File d:\metin2\metin2\client_source_clean\client_source_clean\source\userinterface\pythoncharactermodule.cpp
; File d:\metin2\metin2\client_source_clean\client_source_clean\extern\include\d3dx8math.inl
; File d:\metin2\metin2\client_source_clean\client_source_clean\source\userinterface\pythoncharactermodule.cpp
;	COMDAT ?chrtestSetModulateRenderModeRGB@@YAPAU_object@@PAU1@0@Z
_TEXT	SEGMENT
$T1 = -32						; size = 16
_fb$ = -16						; size = 4
_fg$ = -12						; size = 4
_fr$ = -8						; size = 4
_iVirtualID$ = -4					; size = 4
_poSelf$ = 8						; size = 4
_poArgs$ = 12						; size = 4
?chrtestSetModulateRenderModeRGB@@YAPAU_object@@PAU1@0@Z PROC ; chrtestSetModulateRenderModeRGB, COMDAT

; 1006 : {

  00000	55		 push	 ebp
  00001	8b ec		 mov	 ebp, esp
  00003	83 ec 20	 sub	 esp, 32			; 00000020H

; 1007 : 	int iVirtualID;
; 1008 : 	if (!PyTuple_GetInteger(poArgs, 0, &iVirtualID))

  00006	8d 45 fc	 lea	 eax, DWORD PTR _iVirtualID$[ebp]
  00009	56		 push	 esi
  0000a	8b 75 0c	 mov	 esi, DWORD PTR _poArgs$[ebp]
  0000d	50		 push	 eax
  0000e	6a 00		 push	 0
  00010	56		 push	 esi
  00011	e8 00 00 00 00	 call	 ?PyTuple_GetInteger@@YA_NPAU_object@@HPAH@Z ; PyTuple_GetInteger
  00016	83 c4 0c	 add	 esp, 12			; 0000000cH
  00019	84 c0		 test	 al, al
  0001b	75 0f		 jne	 SHORT $LN5@chrtestSet
$LN12@chrtestSet:

; 1009 : 		return Py_BuildException();

  0001d	6a 00		 push	 0
  0001f	e8 00 00 00 00	 call	 ?Py_BuildException@@YAPAU_object@@PBDZZ ; Py_BuildException
  00024	83 c4 04	 add	 esp, 4
  00027	5e		 pop	 esi

; 1028 : }

  00028	8b e5		 mov	 esp, ebp
  0002a	5d		 pop	 ebp
  0002b	c3		 ret	 0
$LN5@chrtestSet:

; 1010 : 	float fr;
; 1011 : 	if (!PyTuple_GetFloat(poArgs, 1, &fr))

  0002c	8d 45 f8	 lea	 eax, DWORD PTR _fr$[ebp]
  0002f	50		 push	 eax
  00030	6a 01		 push	 1
  00032	56		 push	 esi
  00033	e8 00 00 00 00	 call	 ?PyTuple_GetFloat@@YA_NPAU_object@@HPAM@Z ; PyTuple_GetFloat
  00038	83 c4 0c	 add	 esp, 12			; 0000000cH
  0003b	84 c0		 test	 al, al
  0003d	74 de		 je	 SHORT $LN12@chrtestSet

; 1012 : 		return Py_BuildException();
; 1013 : 	float fg;
; 1014 : 	if (!PyTuple_GetFloat(poArgs, 2, &fg))

  0003f	8d 45 f4	 lea	 eax, DWORD PTR _fg$[ebp]
  00042	50		 push	 eax
  00043	6a 02		 push	 2
  00045	56		 push	 esi
  00046	e8 00 00 00 00	 call	 ?PyTuple_GetFloat@@YA_NPAU_object@@HPAM@Z ; PyTuple_GetFloat
  0004b	83 c4 0c	 add	 esp, 12			; 0000000cH
  0004e	84 c0		 test	 al, al
  00050	74 cb		 je	 SHORT $LN12@chrtestSet

; 1015 : 		return Py_BuildException();
; 1016 : 	float fb;
; 1017 : 	if (!PyTuple_GetFloat(poArgs, 3, &fb))

  00052	8d 45 f0	 lea	 eax, DWORD PTR _fb$[ebp]
  00055	50		 push	 eax
  00056	6a 03		 push	 3
  00058	56		 push	 esi
  00059	e8 00 00 00 00	 call	 ?PyTuple_GetFloat@@YA_NPAU_object@@HPAM@Z ; PyTuple_GetFloat
  0005e	83 c4 0c	 add	 esp, 12			; 0000000cH
  00061	84 c0		 test	 al, al
  00063	74 b8		 je	 SHORT $LN12@chrtestSet

; 1018 : 		return Py_BuildException();
; 1019 : 
; 1020 : 	CInstanceBase * pkInst = CPythonCharacterManager::Instance().GetInstancePtr(iVirtualID);

  00065	8b 0d 00 00 00
	00		 mov	 ecx, DWORD PTR ?ms_singleton@?$CSingleton@VCPythonCharacterManager@@@@0PAVCPythonCharacterManager@@A ; CSingleton<CPythonCharacterManager>::ms_singleton
  0006b	ff 75 fc	 push	 DWORD PTR _iVirtualID$[ebp]
  0006e	83 c1 04	 add	 ecx, 4
  00071	8b 01		 mov	 eax, DWORD PTR [ecx]
  00073	ff 50 08	 call	 DWORD PTR [eax+8]
  00076	8b f0		 mov	 esi, eax

; 1021 : 	if (pkInst)

  00078	85 f6		 test	 esi, esi
  0007a	74 37		 je	 SHORT $LN1@chrtestSet

; 1022 : 	{
; 1023 : 		pkInst->SetModulateRenderMode();

  0007c	8b ce		 mov	 ecx, esi
  0007e	e8 00 00 00 00	 call	 ?SetModulateRenderMode@CInstanceBase@@QAEXXZ ; CInstanceBase::SetModulateRenderMode
; File d:\metin2\metin2\client_source_clean\client_source_clean\extern\include\d3dx8math.inl

; 920  :     r = fr;

  00083	f3 0f 10 45 f8	 movss	 xmm0, DWORD PTR _fr$[ebp]
; File d:\metin2\metin2\client_source_clean\client_source_clean\source\userinterface\pythoncharactermodule.cpp

; 1024 : 		pkInst->SetAddColor(D3DXCOLOR(fr, fg, fb, 1.0f));

  00088	8d 45 e0	 lea	 eax, DWORD PTR $T1[ebp]
; File d:\metin2\metin2\client_source_clean\client_source_clean\extern\include\d3dx8math.inl

; 920  :     r = fr;

  0008b	f3 0f 11 45 e0	 movss	 DWORD PTR $T1[ebp], xmm0
; File d:\metin2\metin2\client_source_clean\client_source_clean\source\userinterface\pythoncharactermodule.cpp

; 1024 : 		pkInst->SetAddColor(D3DXCOLOR(fr, fg, fb, 1.0f));

  00090	8b ce		 mov	 ecx, esi
; File d:\metin2\metin2\client_source_clean\client_source_clean\extern\include\d3dx8math.inl

; 921  :     g = fg;

  00092	f3 0f 10 45 f4	 movss	 xmm0, DWORD PTR _fg$[ebp]
  00097	f3 0f 11 45 e4	 movss	 DWORD PTR $T1[ebp+4], xmm0

; 922  :     b = fb;

  0009c	f3 0f 10 45 f0	 movss	 xmm0, DWORD PTR _fb$[ebp]
; File d:\metin2\metin2\client_source_clean\client_source_clean\source\userinterface\pythoncharactermodule.cpp

; 1024 : 		pkInst->SetAddColor(D3DXCOLOR(fr, fg, fb, 1.0f));

  000a1	50		 push	 eax
; File d:\metin2\metin2\client_source_clean\client_source_clean\extern\include\d3dx8math.inl

; 922  :     b = fb;

  000a2	f3 0f 11 45 e8	 movss	 DWORD PTR $T1[ebp+8], xmm0

; 923  :     a = fa;

  000a7	c7 45 ec 00 00
	80 3f		 mov	 DWORD PTR $T1[ebp+12], 1065353216 ; 3f800000H
; File d:\metin2\metin2\client_source_clean\client_source_clean\source\userinterface\pythoncharactermodule.cpp

; 1024 : 		pkInst->SetAddColor(D3DXCOLOR(fr, fg, fb, 1.0f));

  000ae	e8 00 00 00 00	 call	 ?SetAddColor@CInstanceBase@@QAEXABUD3DXCOLOR@@@Z ; CInstanceBase::SetAddColor
$LN1@chrtestSet:

; 1025 : 	}
; 1026 : 
; 1027 : 	return Py_BuildNone();

  000b3	e8 00 00 00 00	 call	 ?Py_BuildNone@@YAPAU_object@@XZ ; Py_BuildNone
  000b8	5e		 pop	 esi

; 1028 : }

  000b9	8b e5		 mov	 esp, ebp
  000bb	5d		 pop	 ebp
  000bc	c3		 ret	 0
?chrtestSetModulateRenderModeRGB@@YAPAU_object@@PAU1@0@Z ENDP ; chrtestSetModulateRenderModeRGB
_TEXT	ENDS
; Function compile flags: /Ogtp
; File d:\metin2\metin2\client_source_clean\client_source_clean\source\userinterface\pythoncharactermodule.cpp
;	COMDAT ?chrtestSetSpecularRenderMode@@YAPAU_object@@PAU1@0@Z
_TEXT	SEGMENT
_iPart$ = -12						; size = 4
_fAlpha$ = -8						; size = 4
_iVirtualID$ = -4					; size = 4
_poSelf$ = 8						; size = 4
_poArgs$ = 12						; size = 4
?chrtestSetSpecularRenderMode@@YAPAU_object@@PAU1@0@Z PROC ; chrtestSetSpecularRenderMode, COMDAT

; 1031 : {

  00000	55		 push	 ebp
  00001	8b ec		 mov	 ebp, esp
  00003	83 ec 0c	 sub	 esp, 12			; 0000000cH

; 1032 : 	int iVirtualID;
; 1033 : 	if (!PyTuple_GetInteger(poArgs, 0, &iVirtualID))

  00006	8d 45 fc	 lea	 eax, DWORD PTR _iVirtualID$[ebp]
  00009	56		 push	 esi
  0000a	8b 75 0c	 mov	 esi, DWORD PTR _poArgs$[ebp]
  0000d	50		 push	 eax
  0000e	6a 00		 push	 0
  00010	56		 push	 esi
  00011	e8 00 00 00 00	 call	 ?PyTuple_GetInteger@@YA_NPAU_object@@HPAH@Z ; PyTuple_GetInteger
  00016	83 c4 0c	 add	 esp, 12			; 0000000cH
  00019	84 c0		 test	 al, al
  0001b	75 0f		 jne	 SHORT $LN4@chrtestSet
$LN9@chrtestSet:

; 1034 : 		return Py_BuildException();

  0001d	6a 00		 push	 0
  0001f	e8 00 00 00 00	 call	 ?Py_BuildException@@YAPAU_object@@PBDZZ ; Py_BuildException
  00024	83 c4 04	 add	 esp, 4
  00027	5e		 pop	 esi

; 1049 : }

  00028	8b e5		 mov	 esp, ebp
  0002a	5d		 pop	 ebp
  0002b	c3		 ret	 0
$LN4@chrtestSet:

; 1035 : 	int iPart;
; 1036 : 	if (!PyTuple_GetInteger(poArgs, 1, &iPart))

  0002c	8d 45 f4	 lea	 eax, DWORD PTR _iPart$[ebp]
  0002f	50		 push	 eax
  00030	6a 01		 push	 1
  00032	56		 push	 esi
  00033	e8 00 00 00 00	 call	 ?PyTuple_GetInteger@@YA_NPAU_object@@HPAH@Z ; PyTuple_GetInteger
  00038	83 c4 0c	 add	 esp, 12			; 0000000cH
  0003b	84 c0		 test	 al, al
  0003d	74 de		 je	 SHORT $LN9@chrtestSet

; 1037 : 		return Py_BuildException();
; 1038 : 	float fAlpha;
; 1039 : 	if (!PyTuple_GetFloat(poArgs, 2, &fAlpha))

  0003f	8d 45 f8	 lea	 eax, DWORD PTR _fAlpha$[ebp]
  00042	50		 push	 eax
  00043	6a 02		 push	 2
  00045	56		 push	 esi
  00046	e8 00 00 00 00	 call	 ?PyTuple_GetFloat@@YA_NPAU_object@@HPAM@Z ; PyTuple_GetFloat
  0004b	83 c4 0c	 add	 esp, 12			; 0000000cH
  0004e	84 c0		 test	 al, al
  00050	74 cb		 je	 SHORT $LN9@chrtestSet

; 1040 : 		return Py_BuildException();
; 1041 : 
; 1042 : 	CInstanceBase * pkInst = CPythonCharacterManager::Instance().GetInstancePtr(iVirtualID);

  00052	8b 0d 00 00 00
	00		 mov	 ecx, DWORD PTR ?ms_singleton@?$CSingleton@VCPythonCharacterManager@@@@0PAVCPythonCharacterManager@@A ; CSingleton<CPythonCharacterManager>::ms_singleton
  00058	ff 75 fc	 push	 DWORD PTR _iVirtualID$[ebp]
  0005b	83 c1 04	 add	 ecx, 4
  0005e	8b 01		 mov	 eax, DWORD PTR [ecx]
  00060	ff 50 08	 call	 DWORD PTR [eax+8]

; 1043 : 	if (pkInst)

  00063	85 c0		 test	 eax, eax
  00065	74 1e		 je	 SHORT $LN1@chrtestSet

; 1044 : 	{
; 1045 : 		pkInst->GetGraphicThingInstanceRef().SetSpecularInfo(TRUE, iPart, fAlpha);

  00067	f3 0f 10 45 f8	 movss	 xmm0, DWORD PTR _fAlpha$[ebp]
  0006c	51		 push	 ecx
  0006d	f3 0f 11 04 24	 movss	 DWORD PTR [esp], xmm0
  00072	8b c8		 mov	 ecx, eax
  00074	ff 75 f4	 push	 DWORD PTR _iPart$[ebp]
  00077	6a 01		 push	 1
  00079	e8 00 00 00 00	 call	 ?GetGraphicThingInstanceRef@CInstanceBase@@QAEAAVCActorInstance@@XZ ; CInstanceBase::GetGraphicThingInstanceRef
  0007e	8b c8		 mov	 ecx, eax
  00080	e8 00 00 00 00	 call	 ?SetSpecularInfo@CActorInstance@@QAEXHHM@Z ; CActorInstance::SetSpecularInfo
$LN1@chrtestSet:

; 1046 : 	}
; 1047 : 
; 1048 : 	return Py_BuildNone();

  00085	e8 00 00 00 00	 call	 ?Py_BuildNone@@YAPAU_object@@XZ ; Py_BuildNone
  0008a	5e		 pop	 esi

; 1049 : }

  0008b	8b e5		 mov	 esp, ebp
  0008d	5d		 pop	 ebp
  0008e	c3		 ret	 0
?chrtestSetSpecularRenderMode@@YAPAU_object@@PAU1@0@Z ENDP ; chrtestSetSpecularRenderMode
_TEXT	ENDS
; Function compile flags: /Ogtp
; File d:\metin2\metin2\client_source_clean\client_source_clean\source\userinterface\pythoncharactermodule.cpp
;	COMDAT ?chrtestSetSpecularRenderMode2@@YAPAU_object@@PAU1@0@Z
_TEXT	SEGMENT
_iPart$ = -12						; size = 4
_fAlpha$ = -8						; size = 4
_iVirtualID$ = -4					; size = 4
_poSelf$ = 8						; size = 4
_poArgs$ = 12						; size = 4
?chrtestSetSpecularRenderMode2@@YAPAU_object@@PAU1@0@Z PROC ; chrtestSetSpecularRenderMode2, COMDAT

; 1052 : {

  00000	55		 push	 ebp
  00001	8b ec		 mov	 ebp, esp
  00003	83 ec 0c	 sub	 esp, 12			; 0000000cH

; 1053 : 	int iVirtualID;
; 1054 : 	if (!PyTuple_GetInteger(poArgs, 0, &iVirtualID))

  00006	8d 45 fc	 lea	 eax, DWORD PTR _iVirtualID$[ebp]
  00009	56		 push	 esi
  0000a	8b 75 0c	 mov	 esi, DWORD PTR _poArgs$[ebp]
  0000d	50		 push	 eax
  0000e	6a 00		 push	 0
  00010	56		 push	 esi
  00011	e8 00 00 00 00	 call	 ?PyTuple_GetInteger@@YA_NPAU_object@@HPAH@Z ; PyTuple_GetInteger
  00016	83 c4 0c	 add	 esp, 12			; 0000000cH
  00019	84 c0		 test	 al, al
  0001b	75 0f		 jne	 SHORT $LN4@chrtestSet
$LN9@chrtestSet:

; 1055 : 		return Py_BuildException();

  0001d	6a 00		 push	 0
  0001f	e8 00 00 00 00	 call	 ?Py_BuildException@@YAPAU_object@@PBDZZ ; Py_BuildException
  00024	83 c4 04	 add	 esp, 4
  00027	5e		 pop	 esi

; 1070 : }

  00028	8b e5		 mov	 esp, ebp
  0002a	5d		 pop	 ebp
  0002b	c3		 ret	 0
$LN4@chrtestSet:

; 1056 : 	int iPart;
; 1057 : 	if (!PyTuple_GetInteger(poArgs, 1, &iPart))

  0002c	8d 45 f4	 lea	 eax, DWORD PTR _iPart$[ebp]
  0002f	50		 push	 eax
  00030	6a 01		 push	 1
  00032	56		 push	 esi
  00033	e8 00 00 00 00	 call	 ?PyTuple_GetInteger@@YA_NPAU_object@@HPAH@Z ; PyTuple_GetInteger
  00038	83 c4 0c	 add	 esp, 12			; 0000000cH
  0003b	84 c0		 test	 al, al
  0003d	74 de		 je	 SHORT $LN9@chrtestSet

; 1058 : 		return Py_BuildException();
; 1059 : 	float fAlpha;
; 1060 : 	if (!PyTuple_GetFloat(poArgs, 2, &fAlpha))

  0003f	8d 45 f8	 lea	 eax, DWORD PTR _fAlpha$[ebp]
  00042	50		 push	 eax
  00043	6a 02		 push	 2
  00045	56		 push	 esi
  00046	e8 00 00 00 00	 call	 ?PyTuple_GetFloat@@YA_NPAU_object@@HPAM@Z ; PyTuple_GetFloat
  0004b	83 c4 0c	 add	 esp, 12			; 0000000cH
  0004e	84 c0		 test	 al, al
  00050	74 cb		 je	 SHORT $LN9@chrtestSet

; 1061 : 		return Py_BuildException();
; 1062 : 
; 1063 : 	CInstanceBase * pkInst = CPythonCharacterManager::Instance().GetInstancePtr(iVirtualID);

  00052	8b 0d 00 00 00
	00		 mov	 ecx, DWORD PTR ?ms_singleton@?$CSingleton@VCPythonCharacterManager@@@@0PAVCPythonCharacterManager@@A ; CSingleton<CPythonCharacterManager>::ms_singleton
  00058	ff 75 fc	 push	 DWORD PTR _iVirtualID$[ebp]
  0005b	83 c1 04	 add	 ecx, 4
  0005e	8b 01		 mov	 eax, DWORD PTR [ecx]
  00060	ff 50 08	 call	 DWORD PTR [eax+8]

; 1064 : 	if (pkInst)

  00063	85 c0		 test	 eax, eax
  00065	74 1e		 je	 SHORT $LN1@chrtestSet

; 1065 : 	{
; 1066 : 		pkInst->GetGraphicThingInstanceRef().SetSpecularInfoForce(TRUE, iPart, fAlpha);

  00067	f3 0f 10 45 f8	 movss	 xmm0, DWORD PTR _fAlpha$[ebp]
  0006c	51		 push	 ecx
  0006d	f3 0f 11 04 24	 movss	 DWORD PTR [esp], xmm0
  00072	8b c8		 mov	 ecx, eax
  00074	ff 75 f4	 push	 DWORD PTR _iPart$[ebp]
  00077	6a 01		 push	 1
  00079	e8 00 00 00 00	 call	 ?GetGraphicThingInstanceRef@CInstanceBase@@QAEAAVCActorInstance@@XZ ; CInstanceBase::GetGraphicThingInstanceRef
  0007e	8b c8		 mov	 ecx, eax
  00080	e8 00 00 00 00	 call	 ?SetSpecularInfoForce@CActorInstance@@QAEXHHM@Z ; CActorInstance::SetSpecularInfoForce
$LN1@chrtestSet:

; 1067 : 	}
; 1068 : 
; 1069 : 	return Py_BuildNone();

  00085	e8 00 00 00 00	 call	 ?Py_BuildNone@@YAPAU_object@@XZ ; Py_BuildNone
  0008a	5e		 pop	 esi

; 1070 : }

  0008b	8b e5		 mov	 esp, ebp
  0008d	5d		 pop	 ebp
  0008e	c3		 ret	 0
?chrtestSetSpecularRenderMode2@@YAPAU_object@@PAU1@0@Z ENDP ; chrtestSetSpecularRenderMode2
_TEXT	ENDS
; Function compile flags: /Ogtp
; File d:\metin2\metin2\client_source_clean\client_source_clean\source\userinterface\pythoncharactermodule.cpp
;	COMDAT ?chrtestRestoreRenderMode@@YAPAU_object@@PAU1@0@Z
_TEXT	SEGMENT
_iVirtualID$ = -4					; size = 4
_poSelf$ = 8						; size = 4
_poArgs$ = 12						; size = 4
?chrtestRestoreRenderMode@@YAPAU_object@@PAU1@0@Z PROC	; chrtestRestoreRenderMode, COMDAT

; 1073 : {

  00000	55		 push	 ebp
  00001	8b ec		 mov	 ebp, esp
  00003	51		 push	 ecx

; 1074 : 	int iVirtualID;
; 1075 : 	if (!PyTuple_GetInteger(poArgs, 0, &iVirtualID))

  00004	8d 45 fc	 lea	 eax, DWORD PTR _iVirtualID$[ebp]
  00007	50		 push	 eax
  00008	6a 00		 push	 0
  0000a	ff 75 0c	 push	 DWORD PTR _poArgs$[ebp]
  0000d	e8 00 00 00 00	 call	 ?PyTuple_GetInteger@@YA_NPAU_object@@HPAH@Z ; PyTuple_GetInteger
  00012	83 c4 0c	 add	 esp, 12			; 0000000cH
  00015	84 c0		 test	 al, al
  00017	75 0e		 jne	 SHORT $LN2@chrtestRes

; 1076 : 		return Py_BuildException();

  00019	6a 00		 push	 0
  0001b	e8 00 00 00 00	 call	 ?Py_BuildException@@YAPAU_object@@PBDZZ ; Py_BuildException
  00020	83 c4 04	 add	 esp, 4

; 1085 : }

  00023	8b e5		 mov	 esp, ebp
  00025	5d		 pop	 ebp
  00026	c3		 ret	 0
$LN2@chrtestRes:

; 1077 : 
; 1078 : 	CInstanceBase * pkInst = CPythonCharacterManager::Instance().GetInstancePtr(iVirtualID);

  00027	8b 0d 00 00 00
	00		 mov	 ecx, DWORD PTR ?ms_singleton@?$CSingleton@VCPythonCharacterManager@@@@0PAVCPythonCharacterManager@@A ; CSingleton<CPythonCharacterManager>::ms_singleton
  0002d	ff 75 fc	 push	 DWORD PTR _iVirtualID$[ebp]
  00030	83 c1 04	 add	 ecx, 4
  00033	8b 01		 mov	 eax, DWORD PTR [ecx]
  00035	ff 50 08	 call	 DWORD PTR [eax+8]

; 1079 : 	if (pkInst)

  00038	85 c0		 test	 eax, eax
  0003a	74 07		 je	 SHORT $LN1@chrtestRes

; 1080 : 	{
; 1081 : 		pkInst->RestoreRenderMode();

  0003c	8b c8		 mov	 ecx, eax
  0003e	e8 00 00 00 00	 call	 ?RestoreRenderMode@CInstanceBase@@QAEXXZ ; CInstanceBase::RestoreRenderMode
$LN1@chrtestRes:

; 1082 : 	}
; 1083 : 
; 1084 : 	return Py_BuildNone();

  00043	e8 00 00 00 00	 call	 ?Py_BuildNone@@YAPAU_object@@XZ ; Py_BuildNone

; 1085 : }

  00048	8b e5		 mov	 esp, ebp
  0004a	5d		 pop	 ebp
  0004b	c3		 ret	 0
?chrtestRestoreRenderMode@@YAPAU_object@@PAU1@0@Z ENDP	; chrtestRestoreRenderMode
_TEXT	ENDS
; Function compile flags: /Ogtp
; File d:\metin2\metin2\client_source_clean\client_source_clean\source\userinterface\pythoncharactermodule.cpp
;	COMDAT ?chrFaintTest@@YAPAU_object@@PAU1@0@Z
_TEXT	SEGMENT
_poSelf$ = 8						; size = 4
_poArgs$ = 12						; size = 4
?chrFaintTest@@YAPAU_object@@PAU1@0@Z PROC		; chrFaintTest, COMDAT

; 1089 : 	CInstanceBase * pCharacterInstance = CPythonCharacterManager::Instance().GetSelectedInstancePtr();

  00000	8b 0d 00 00 00
	00		 mov	 ecx, DWORD PTR ?ms_singleton@?$CSingleton@VCPythonCharacterManager@@@@0PAVCPythonCharacterManager@@A ; CSingleton<CPythonCharacterManager>::ms_singleton
  00006	e8 00 00 00 00	 call	 ?GetSelectedInstancePtr@CPythonCharacterManager@@QAEPAVCInstanceBase@@XZ ; CPythonCharacterManager::GetSelectedInstancePtr

; 1090 : 	if (pCharacterInstance)

  0000b	85 c0		 test	 eax, eax
  0000d	74 7f		 je	 SHORT $LN1@chrFaintTe

; 1091 : 	{
; 1092 : 		if (pCharacterInstance->GetGraphicThingInstanceRef().IsFaint())

  0000f	56		 push	 esi
  00010	8b c8		 mov	 ecx, eax
  00012	e8 00 00 00 00	 call	 ?GetGraphicThingInstanceRef@CInstanceBase@@QAEAAVCActorInstance@@XZ ; CInstanceBase::GetGraphicThingInstanceRef
  00017	8b f0		 mov	 esi, eax
  00019	8b c8		 mov	 ecx, eax
  0001b	e8 00 00 00 00	 call	 ?IsFaint@CActorInstance@@QAEHXZ ; CActorInstance::IsFaint
  00020	85 c0		 test	 eax, eax
  00022	74 0f		 je	 SHORT $LN2@chrFaintTe

; 1093 : 		{
; 1094 : 			pCharacterInstance->GetGraphicThingInstanceRef().SetFaint(false);

  00024	6a 00		 push	 0

; 1101 : 			pCharacterInstance->GetGraphicThingInstanceRef().SetFaint(true);

  00026	8b ce		 mov	 ecx, esi
  00028	e8 00 00 00 00	 call	 ?SetFaint@CActorInstance@@QAEX_N@Z ; CActorInstance::SetFaint
  0002d	5e		 pop	 esi

; 1102 : 		}
; 1103 : 	}
; 1104 : 
; 1105 : 	return Py_BuildNone();

  0002e	e9 00 00 00 00	 jmp	 ?Py_BuildNone@@YAPAU_object@@XZ ; Py_BuildNone
$LN2@chrFaintTe:

; 1095 : 		}
; 1096 : 		else
; 1097 : 		{
; 1098 : 			pCharacterInstance->GetGraphicThingInstanceRef().InterceptOnceMotion(CRaceMotionData::NAME_DAMAGE_FLYING);

  00033	51		 push	 ecx
  00034	c7 04 24 00 00
	80 3f		 mov	 DWORD PTR [esp], 1065353216 ; 3f800000H
  0003b	6a 00		 push	 0
  0003d	51		 push	 ecx
  0003e	c7 04 24 cd cc
	cc 3d		 mov	 DWORD PTR [esp], 1036831949 ; 3dcccccdH
  00045	8b ce		 mov	 ecx, esi
  00047	6a 06		 push	 6
  00049	e8 00 00 00 00	 call	 ?InterceptOnceMotion@CActorInstance@@QAE_NKMIM@Z ; CActorInstance::InterceptOnceMotion

; 1099 : 			pCharacterInstance->GetGraphicThingInstanceRef().PushOnceMotion(CRaceMotionData::NAME_STAND_UP);

  0004e	83 ec 08	 sub	 esp, 8
  00051	8b ce		 mov	 ecx, esi
  00053	c7 44 24 04 00
	00 80 3f	 mov	 DWORD PTR [esp+4], 1065353216 ; 3f800000H
  0005b	c7 04 24 cd cc
	cc 3d		 mov	 DWORD PTR [esp], 1036831949 ; 3dcccccdH
  00062	6a 07		 push	 7
  00064	e8 00 00 00 00	 call	 ?PushOnceMotion@CActorInstance@@QAE_NKMM@Z ; CActorInstance::PushOnceMotion

; 1100 : 			pCharacterInstance->GetGraphicThingInstanceRef().PushLoopMotion(CRaceMotionData::NAME_WAIT);

  00069	83 ec 08	 sub	 esp, 8
  0006c	8b ce		 mov	 ecx, esi
  0006e	c7 44 24 04 00
	00 80 3f	 mov	 DWORD PTR [esp+4], 1065353216 ; 3f800000H
  00076	c7 04 24 cd cc
	cc 3d		 mov	 DWORD PTR [esp], 1036831949 ; 3dcccccdH
  0007d	6a 01		 push	 1
  0007f	e8 00 00 00 00	 call	 ?PushLoopMotion@CActorInstance@@QAE_NKMM@Z ; CActorInstance::PushLoopMotion

; 1101 : 			pCharacterInstance->GetGraphicThingInstanceRef().SetFaint(true);

  00084	6a 01		 push	 1
  00086	8b ce		 mov	 ecx, esi
  00088	e8 00 00 00 00	 call	 ?SetFaint@CActorInstance@@QAEX_N@Z ; CActorInstance::SetFaint
  0008d	5e		 pop	 esi
$LN1@chrFaintTe:

; 1102 : 		}
; 1103 : 	}
; 1104 : 
; 1105 : 	return Py_BuildNone();

  0008e	e9 00 00 00 00	 jmp	 ?Py_BuildNone@@YAPAU_object@@XZ ; Py_BuildNone
?chrFaintTest@@YAPAU_object@@PAU1@0@Z ENDP		; chrFaintTest
_TEXT	ENDS
; Function compile flags: /Ogtp
; File d:\metin2\metin2\client_source_clean\client_source_clean\source\userinterface\pythoncharactermodule.cpp
;	COMDAT ?chrSetMoveSpeed@@YAPAU_object@@PAU1@0@Z
_TEXT	SEGMENT
_poSelf$ = 8						; size = 4
_poArgs$ = 12						; size = 4
?chrSetMoveSpeed@@YAPAU_object@@PAU1@0@Z PROC		; chrSetMoveSpeed, COMDAT

; 1110 : 	//int iSpeed;
; 1111 : 	//if (!PyTuple_GetInteger(poArgs, 0, &iSpeed))
; 1112 : 	//	return Py_BadArgument();
; 1113 : 
; 1114 : 	//CInstanceBase * pCharacterInstance = CPythonCharacterManager::Instance().GetSelectedInstancePtr();
; 1115 : 
; 1116 : 	//if (!pCharacterInstance)
; 1117 : 	//	return Py_BuildValue("i", 0);
; 1118 : 
; 1119 : 	//pCharacterInstance->SetMoveSpeed(iSpeed);
; 1120 : 
; 1121 : 	return Py_BuildNone();

  00000	e9 00 00 00 00	 jmp	 ?Py_BuildNone@@YAPAU_object@@XZ ; Py_BuildNone
?chrSetMoveSpeed@@YAPAU_object@@PAU1@0@Z ENDP		; chrSetMoveSpeed
_TEXT	ENDS
; Function compile flags: /Ogtp
; File d:\metin2\metin2\client_source_clean\client_source_clean\source\userinterface\pythoncharactermodule.cpp
;	COMDAT ?chrSetAttackSpeed@@YAPAU_object@@PAU1@0@Z
_TEXT	SEGMENT
_poSelf$ = 8						; size = 4
_poArgs$ = 12						; size = 4
?chrSetAttackSpeed@@YAPAU_object@@PAU1@0@Z PROC		; chrSetAttackSpeed, COMDAT

; 1126 : 	//int iSpeed;
; 1127 : 	//if (!PyTuple_GetInteger(poArgs, 0, &iSpeed))
; 1128 : 	//	return Py_BadArgument();
; 1129 : 
; 1130 : 	//CInstanceBase * pCharacterInstance = CPythonCharacterManager::Instance().GetSelectedInstancePtr();
; 1131 : 
; 1132 : 	//if (!pCharacterInstance)
; 1133 : 	//	return Py_BuildValue("i", 0);
; 1134 : 
; 1135 : 	//pCharacterInstance->SetAttackSpeed(iSpeed);
; 1136 : 
; 1137 : 	return Py_BuildNone();

  00000	e9 00 00 00 00	 jmp	 ?Py_BuildNone@@YAPAU_object@@XZ ; Py_BuildNone
?chrSetAttackSpeed@@YAPAU_object@@PAU1@0@Z ENDP		; chrSetAttackSpeed
_TEXT	ENDS
; Function compile flags: /Ogtp
; File d:\metin2\metin2\client_source_clean\client_source_clean\source\userinterface\pythoncharactermodule.cpp
;	COMDAT ?chrWeaponTraceSetTexture@@YAPAU_object@@PAU1@0@Z
_TEXT	SEGMENT
_szPathName$ = -4					; size = 4
_poSelf$ = 8						; size = 4
_poArgs$ = 12						; size = 4
?chrWeaponTraceSetTexture@@YAPAU_object@@PAU1@0@Z PROC	; chrWeaponTraceSetTexture, COMDAT

; 1141 : {

  00000	55		 push	 ebp
  00001	8b ec		 mov	 ebp, esp
  00003	51		 push	 ecx

; 1142 : 	char * szPathName;
; 1143 : 	if (!PyTuple_GetString(poArgs, 0, &szPathName))

  00004	8d 45 fc	 lea	 eax, DWORD PTR _szPathName$[ebp]
  00007	50		 push	 eax
  00008	6a 00		 push	 0
  0000a	ff 75 0c	 push	 DWORD PTR _poArgs$[ebp]
  0000d	e8 00 00 00 00	 call	 ?PyTuple_GetString@@YA_NPAU_object@@HPAPAD@Z ; PyTuple_GetString
  00012	83 c4 0c	 add	 esp, 12			; 0000000cH
  00015	84 c0		 test	 al, al
  00017	75 09		 jne	 SHORT $LN2@chrWeaponT

; 1144 : 		return Py_BadArgument();

  00019	e8 00 00 00 00	 call	 ?Py_BadArgument@@YAPAU_object@@XZ ; Py_BadArgument

; 1152 : }

  0001e	8b e5		 mov	 esp, ebp
  00020	5d		 pop	 ebp
  00021	c3		 ret	 0
$LN2@chrWeaponT:

; 1145 : 
; 1146 : 	CInstanceBase * pInstance = CPythonCharacterManager::Instance().GetMainInstancePtr();

  00022	8b 0d 00 00 00
	00		 mov	 ecx, DWORD PTR ?ms_singleton@?$CSingleton@VCPythonCharacterManager@@@@0PAVCPythonCharacterManager@@A ; CSingleton<CPythonCharacterManager>::ms_singleton
  00028	e8 00 00 00 00	 call	 ?GetMainInstancePtr@CPythonCharacterManager@@QAEPAVCInstanceBase@@XZ ; CPythonCharacterManager::GetMainInstancePtr

; 1147 : 	if (pInstance)

  0002d	85 c0		 test	 eax, eax
  0002f	74 11		 je	 SHORT $LN1@chrWeaponT

; 1148 : 	{
; 1149 : 		pInstance->GetGraphicThingInstanceRef().SetWeaponTraceTexture(szPathName);

  00031	ff 75 fc	 push	 DWORD PTR _szPathName$[ebp]
  00034	8b c8		 mov	 ecx, eax
  00036	e8 00 00 00 00	 call	 ?GetGraphicThingInstanceRef@CInstanceBase@@QAEAAVCActorInstance@@XZ ; CInstanceBase::GetGraphicThingInstanceRef
  0003b	8b c8		 mov	 ecx, eax
  0003d	e8 00 00 00 00	 call	 ?SetWeaponTraceTexture@CActorInstance@@QAEXPBD@Z ; CActorInstance::SetWeaponTraceTexture
$LN1@chrWeaponT:

; 1150 : 	}
; 1151 : 	return Py_BuildNone();

  00042	e8 00 00 00 00	 call	 ?Py_BuildNone@@YAPAU_object@@XZ ; Py_BuildNone

; 1152 : }

  00047	8b e5		 mov	 esp, ebp
  00049	5d		 pop	 ebp
  0004a	c3		 ret	 0
?chrWeaponTraceSetTexture@@YAPAU_object@@PAU1@0@Z ENDP	; chrWeaponTraceSetTexture
_TEXT	ENDS
; Function compile flags: /Ogtp
; File d:\metin2\metin2\client_source_clean\client_source_clean\source\userinterface\pythoncharactermodule.cpp
;	COMDAT ?chrWeaponTraceUseTexture@@YAPAU_object@@PAU1@0@Z
_TEXT	SEGMENT
_poSelf$ = 8						; size = 4
_poArgs$ = 12						; size = 4
?chrWeaponTraceUseTexture@@YAPAU_object@@PAU1@0@Z PROC	; chrWeaponTraceUseTexture, COMDAT

; 1156 : 	CInstanceBase * pInstance = CPythonCharacterManager::Instance().GetMainInstancePtr();

  00000	8b 0d 00 00 00
	00		 mov	 ecx, DWORD PTR ?ms_singleton@?$CSingleton@VCPythonCharacterManager@@@@0PAVCPythonCharacterManager@@A ; CSingleton<CPythonCharacterManager>::ms_singleton
  00006	e8 00 00 00 00	 call	 ?GetMainInstancePtr@CPythonCharacterManager@@QAEPAVCInstanceBase@@XZ ; CPythonCharacterManager::GetMainInstancePtr

; 1157 : 	if (pInstance)

  0000b	85 c0		 test	 eax, eax
  0000d	74 0e		 je	 SHORT $LN1@chrWeaponT

; 1158 : 	{
; 1159 : 		pInstance->GetGraphicThingInstanceRef().UseTextureWeaponTrace();

  0000f	8b c8		 mov	 ecx, eax
  00011	e8 00 00 00 00	 call	 ?GetGraphicThingInstanceRef@CInstanceBase@@QAEAAVCActorInstance@@XZ ; CInstanceBase::GetGraphicThingInstanceRef
  00016	8b c8		 mov	 ecx, eax
  00018	e8 00 00 00 00	 call	 ?UseTextureWeaponTrace@CActorInstance@@QAEXXZ ; CActorInstance::UseTextureWeaponTrace
$LN1@chrWeaponT:

; 1160 : 	}
; 1161 : 	return Py_BuildNone();

  0001d	e9 00 00 00 00	 jmp	 ?Py_BuildNone@@YAPAU_object@@XZ ; Py_BuildNone
?chrWeaponTraceUseTexture@@YAPAU_object@@PAU1@0@Z ENDP	; chrWeaponTraceUseTexture
_TEXT	ENDS
; Function compile flags: /Ogtp
; File d:\metin2\metin2\client_source_clean\client_source_clean\source\userinterface\pythoncharactermodule.cpp
;	COMDAT ?chrWeaponTraceUseAlpha@@YAPAU_object@@PAU1@0@Z
_TEXT	SEGMENT
_poSelf$ = 8						; size = 4
_poArgs$ = 12						; size = 4
?chrWeaponTraceUseAlpha@@YAPAU_object@@PAU1@0@Z PROC	; chrWeaponTraceUseAlpha, COMDAT

; 1166 : 	CInstanceBase * pInstance = CPythonCharacterManager::Instance().GetMainInstancePtr();

  00000	8b 0d 00 00 00
	00		 mov	 ecx, DWORD PTR ?ms_singleton@?$CSingleton@VCPythonCharacterManager@@@@0PAVCPythonCharacterManager@@A ; CSingleton<CPythonCharacterManager>::ms_singleton
  00006	e8 00 00 00 00	 call	 ?GetMainInstancePtr@CPythonCharacterManager@@QAEPAVCInstanceBase@@XZ ; CPythonCharacterManager::GetMainInstancePtr

; 1167 : 	if (pInstance)

  0000b	85 c0		 test	 eax, eax
  0000d	74 0e		 je	 SHORT $LN1@chrWeaponT

; 1168 : 	{
; 1169 : 		pInstance->GetGraphicThingInstanceRef().UseAlphaWeaponTrace();

  0000f	8b c8		 mov	 ecx, eax
  00011	e8 00 00 00 00	 call	 ?GetGraphicThingInstanceRef@CInstanceBase@@QAEAAVCActorInstance@@XZ ; CInstanceBase::GetGraphicThingInstanceRef
  00016	8b c8		 mov	 ecx, eax
  00018	e8 00 00 00 00	 call	 ?UseAlphaWeaponTrace@CActorInstance@@QAEXXZ ; CActorInstance::UseAlphaWeaponTrace
$LN1@chrWeaponT:

; 1170 : 	}
; 1171 : 	return Py_BuildNone();

  0001d	e9 00 00 00 00	 jmp	 ?Py_BuildNone@@YAPAU_object@@XZ ; Py_BuildNone
?chrWeaponTraceUseAlpha@@YAPAU_object@@PAU1@0@Z ENDP	; chrWeaponTraceUseAlpha
_TEXT	ENDS
; Function compile flags: /Ogtp
; File d:\metin2\metin2\client_source_clean\client_source_clean\source\userinterface\pythoncharactermodule.cpp
; File d:\metin2\metin2\client_source_clean\client_source_clean\extern\include\d3dx8math.inl
; File d:\metin2\metin2\client_source_clean\client_source_clean\source\userinterface\pythoncharactermodule.cpp
; File d:\metin2\metin2\client_source_clean\client_source_clean\extern\include\d3dx8math.inl
; File d:\metin2\metin2\client_source_clean\client_source_clean\source\userinterface\pythoncharactermodule.cpp
;	COMDAT ?chrMoveToDestPosition@@YAPAU_object@@PAU1@0@Z
_TEXT	SEGMENT
_iVID$ = -28						; size = 4
_iy$ = -24						; size = 4
_ix$ = -20						; size = 4
$T1 = -16						; size = 12
__$ArrayPad$ = -4					; size = 4
_poSelf$ = 8						; size = 4
_poArgs$ = 12						; size = 4
?chrMoveToDestPosition@@YAPAU_object@@PAU1@0@Z PROC	; chrMoveToDestPosition, COMDAT

; 1175 : {

  00000	55		 push	 ebp
  00001	8b ec		 mov	 ebp, esp
  00003	83 ec 1c	 sub	 esp, 28			; 0000001cH
  00006	a1 00 00 00 00	 mov	 eax, DWORD PTR ___security_cookie
  0000b	33 c5		 xor	 eax, ebp
  0000d	89 45 fc	 mov	 DWORD PTR __$ArrayPad$[ebp], eax
  00010	56		 push	 esi
  00011	8b 75 0c	 mov	 esi, DWORD PTR _poArgs$[ebp]

; 1176 : 	int iVID;
; 1177 : 	if (!PyTuple_GetInteger(poArgs, 0, &iVID))

  00014	8d 45 e4	 lea	 eax, DWORD PTR _iVID$[ebp]
  00017	50		 push	 eax
  00018	6a 00		 push	 0
  0001a	56		 push	 esi
  0001b	e8 00 00 00 00	 call	 ?PyTuple_GetInteger@@YA_NPAU_object@@HPAH@Z ; PyTuple_GetInteger
  00020	83 c4 0c	 add	 esp, 12			; 0000000cH
  00023	84 c0		 test	 al, al
  00025	75 14		 jne	 SHORT $LN4@chrMoveToD
$LN12@chrMoveToD:

; 1178 : 		return Py_BadArgument();

  00027	e8 00 00 00 00	 call	 ?Py_BadArgument@@YAPAU_object@@XZ ; Py_BadArgument
  0002c	5e		 pop	 esi

; 1194 : }

  0002d	8b 4d fc	 mov	 ecx, DWORD PTR __$ArrayPad$[ebp]
  00030	33 cd		 xor	 ecx, ebp
  00032	e8 00 00 00 00	 call	 @__security_check_cookie@4
  00037	8b e5		 mov	 esp, ebp
  00039	5d		 pop	 ebp
  0003a	c3		 ret	 0
$LN4@chrMoveToD:

; 1179 : 
; 1180 : 	int ix;
; 1181 : 	if (!PyTuple_GetInteger(poArgs, 1, &ix))

  0003b	8d 45 ec	 lea	 eax, DWORD PTR _ix$[ebp]
  0003e	50		 push	 eax
  0003f	6a 01		 push	 1
  00041	56		 push	 esi
  00042	e8 00 00 00 00	 call	 ?PyTuple_GetInteger@@YA_NPAU_object@@HPAH@Z ; PyTuple_GetInteger
  00047	83 c4 0c	 add	 esp, 12			; 0000000cH
  0004a	84 c0		 test	 al, al
  0004c	74 d9		 je	 SHORT $LN12@chrMoveToD

; 1182 : 		return Py_BadArgument();
; 1183 : 	int iy;
; 1184 : 	if (!PyTuple_GetInteger(poArgs, 2, &iy))

  0004e	8d 45 e8	 lea	 eax, DWORD PTR _iy$[ebp]
  00051	50		 push	 eax
  00052	6a 02		 push	 2
  00054	56		 push	 esi
  00055	e8 00 00 00 00	 call	 ?PyTuple_GetInteger@@YA_NPAU_object@@HPAH@Z ; PyTuple_GetInteger
  0005a	83 c4 0c	 add	 esp, 12			; 0000000cH
  0005d	84 c0		 test	 al, al
  0005f	74 c6		 je	 SHORT $LN12@chrMoveToD

; 1185 : 		return Py_BadArgument();
; 1186 : 
; 1187 : 	CInstanceBase * pCharacterInstance = CPythonCharacterManager::Instance().GetInstancePtr(iVID);

  00061	8b 0d 00 00 00
	00		 mov	 ecx, DWORD PTR ?ms_singleton@?$CSingleton@VCPythonCharacterManager@@@@0PAVCPythonCharacterManager@@A ; CSingleton<CPythonCharacterManager>::ms_singleton
  00067	ff 75 e4	 push	 DWORD PTR _iVID$[ebp]
  0006a	83 c1 04	 add	 ecx, 4
  0006d	8b 01		 mov	 eax, DWORD PTR [ecx]
  0006f	ff 50 08	 call	 DWORD PTR [eax+8]

; 1188 : 	if (!pCharacterInstance)

  00072	85 c0		 test	 eax, eax
  00074	74 2c		 je	 SHORT $LN11@chrMoveToD

; 1191 : 	pCharacterInstance->NEW_MoveToDestPixelPositionDirection(TPixelPosition(ix, iy, 0.0f));

  00076	66 0f 6e 45 ec	 movd	 xmm0, DWORD PTR _ix$[ebp]
  0007b	8d 4d f0	 lea	 ecx, DWORD PTR $T1[ebp]
  0007e	0f 5b c0	 cvtdq2ps xmm0, xmm0
  00081	51		 push	 ecx
  00082	8b c8		 mov	 ecx, eax
; File d:\metin2\metin2\client_source_clean\client_source_clean\extern\include\d3dx8math.inl

; 182  :     z = fz;

  00084	c7 45 f8 00 00
	00 00		 mov	 DWORD PTR $T1[ebp+8], 0
  0008b	f3 0f 11 45 f0	 movss	 DWORD PTR $T1[ebp], xmm0
  00090	66 0f 6e 45 e8	 movd	 xmm0, DWORD PTR _iy$[ebp]
; File d:\metin2\metin2\client_source_clean\client_source_clean\source\userinterface\pythoncharactermodule.cpp

; 1191 : 	pCharacterInstance->NEW_MoveToDestPixelPositionDirection(TPixelPosition(ix, iy, 0.0f));

  00095	0f 5b c0	 cvtdq2ps xmm0, xmm0
; File d:\metin2\metin2\client_source_clean\client_source_clean\extern\include\d3dx8math.inl

; 181  :     y = fy;

  00098	f3 0f 11 45 f4	 movss	 DWORD PTR $T1[ebp+4], xmm0
; File d:\metin2\metin2\client_source_clean\client_source_clean\source\userinterface\pythoncharactermodule.cpp

; 1191 : 	pCharacterInstance->NEW_MoveToDestPixelPositionDirection(TPixelPosition(ix, iy, 0.0f));

  0009d	e8 00 00 00 00	 call	 ?NEW_MoveToDestPixelPositionDirection@CInstanceBase@@QAE_NABUD3DXVECTOR3@@@Z ; CInstanceBase::NEW_MoveToDestPixelPositionDirection
$LN11@chrMoveToD:

; 1192 : 
; 1193 : 	return Py_BuildNone();

  000a2	e8 00 00 00 00	 call	 ?Py_BuildNone@@YAPAU_object@@XZ ; Py_BuildNone

; 1194 : }

  000a7	8b 4d fc	 mov	 ecx, DWORD PTR __$ArrayPad$[ebp]
  000aa	33 cd		 xor	 ecx, ebp
  000ac	5e		 pop	 esi
  000ad	e8 00 00 00 00	 call	 @__security_check_cookie@4
  000b2	8b e5		 mov	 esp, ebp
  000b4	5d		 pop	 ebp
  000b5	c3		 ret	 0
?chrMoveToDestPosition@@YAPAU_object@@PAU1@0@Z ENDP	; chrMoveToDestPosition
_TEXT	ENDS
; Function compile flags: /Ogtp
; File d:\metin2\metin2\client_source_clean\client_source_clean\source\userinterface\pythoncharactermodule.cpp
; File c:\program files (x86)\microsoft visual studio 12.0\vc\include\xstring
; File d:\metin2\metin2\client_source_clean\client_source_clean\source\userinterface\pythoncharactermodule.cpp
; File c:\program files (x86)\microsoft visual studio 12.0\vc\include\xstring
; File c:\program files (x86)\microsoft visual studio 12.0\vc\include\xmemory0
; File d:\metin2\metin2\client_source_clean\client_source_clean\source\userinterface\pythoncharactermodule.cpp
;	COMDAT ?chrtestSetRideMan@@YAPAU_object@@PAU1@0@Z
_TEXT	SEGMENT
_imount$ = -140						; size = 4
_ix$ = -136						; size = 4
_iy$ = -132						; size = 4
_kCreateData$ = -128					; size = 104
__$ArrayPad$ = -20					; size = 4
__$EHRec$ = -12						; size = 12
_poSelf$ = 8						; size = 4
_poArgs$ = 12						; size = 4
?chrtestSetRideMan@@YAPAU_object@@PAU1@0@Z PROC		; chrtestSetRideMan, COMDAT

; 1197 : {

  00000	55		 push	 ebp
  00001	8b ec		 mov	 ebp, esp
  00003	83 e4 f8	 and	 esp, -8			; fffffff8H
  00006	6a ff		 push	 -1
  00008	68 00 00 00 00	 push	 __ehhandler$?chrtestSetRideMan@@YAPAU_object@@PAU1@0@Z
  0000d	64 a1 00 00 00
	00		 mov	 eax, DWORD PTR fs:0
  00013	50		 push	 eax
  00014	81 ec 80 00 00
	00		 sub	 esp, 128		; 00000080H
  0001a	a1 00 00 00 00	 mov	 eax, DWORD PTR ___security_cookie
  0001f	33 c4		 xor	 eax, esp
  00021	89 44 24 78	 mov	 DWORD PTR __$ArrayPad$[esp+140], eax
  00025	56		 push	 esi
  00026	a1 00 00 00 00	 mov	 eax, DWORD PTR ___security_cookie
  0002b	33 c4		 xor	 eax, esp
  0002d	50		 push	 eax
  0002e	8d 84 24 88 00
	00 00		 lea	 eax, DWORD PTR __$EHRec$[esp+148]
  00035	64 a3 00 00 00
	00		 mov	 DWORD PTR fs:0, eax
  0003b	8b 75 0c	 mov	 esi, DWORD PTR _poArgs$[ebp]

; 1198 : 	int ix;
; 1199 : 	if (!PyTuple_GetInteger(poArgs, 0, &ix))

  0003e	8d 44 24 0c	 lea	 eax, DWORD PTR _ix$[esp+148]
  00042	50		 push	 eax
  00043	6a 00		 push	 0
  00045	56		 push	 esi
  00046	e8 00 00 00 00	 call	 ?PyTuple_GetInteger@@YA_NPAU_object@@HPAH@Z ; PyTuple_GetInteger
  0004b	83 c4 0c	 add	 esp, 12			; 0000000cH
  0004e	84 c0		 test	 al, al
  00050	75 0a		 jne	 SHORT $LN2@chrtestSet
$LN83@chrtestSet:

; 1200 : 		return Py_BadArgument();

  00052	e8 00 00 00 00	 call	 ?Py_BadArgument@@YAPAU_object@@XZ ; Py_BadArgument
  00057	e9 c4 00 00 00	 jmp	 $LN3@chrtestSet
$LN2@chrtestSet:

; 1201 : 	int iy;
; 1202 : 	if (!PyTuple_GetInteger(poArgs, 1, &iy))

  0005c	8d 44 24 10	 lea	 eax, DWORD PTR _iy$[esp+148]
  00060	50		 push	 eax
  00061	6a 01		 push	 1
  00063	56		 push	 esi
  00064	e8 00 00 00 00	 call	 ?PyTuple_GetInteger@@YA_NPAU_object@@HPAH@Z ; PyTuple_GetInteger
  00069	83 c4 0c	 add	 esp, 12			; 0000000cH
  0006c	84 c0		 test	 al, al
  0006e	74 e2		 je	 SHORT $LN83@chrtestSet

; 1203 : 		return Py_BadArgument();
; 1204 : 	int imount = 20030;
; 1205 : 	PyTuple_GetInteger(poArgs, 2, &imount);

  00070	8d 44 24 08	 lea	 eax, DWORD PTR _imount$[esp+148]
  00074	c7 44 24 08 3e
	4e 00 00	 mov	 DWORD PTR _imount$[esp+148], 20030 ; 00004e3eH
  0007c	50		 push	 eax
  0007d	6a 02		 push	 2
  0007f	56		 push	 esi
  00080	e8 00 00 00 00	 call	 ?PyTuple_GetInteger@@YA_NPAU_object@@HPAH@Z ; PyTuple_GetInteger

; 1206 : 
; 1207 : 	CInstanceBase * pCharacterInstance = CPythonCharacterManager::Instance().RegisterInstance(1);

  00085	8b 0d 00 00 00
	00		 mov	 ecx, DWORD PTR ?ms_singleton@?$CSingleton@VCPythonCharacterManager@@@@0PAVCPythonCharacterManager@@A ; CSingleton<CPythonCharacterManager>::ms_singleton
  0008b	83 c4 0c	 add	 esp, 12			; 0000000cH
  0008e	6a 01		 push	 1
  00090	e8 00 00 00 00	 call	 ?RegisterInstance@CPythonCharacterManager@@QAEPAVCInstanceBase@@K@Z ; CPythonCharacterManager::RegisterInstance
  00095	8b f0		 mov	 esi, eax

; 1208 : 	CInstanceBase::SCreateData kCreateData;
; 1209 : 	ZeroMemory(&kCreateData, sizeof(kCreateData));

  00097	6a 68		 push	 104			; 00000068H
  00099	8d 44 24 18	 lea	 eax, DWORD PTR _kCreateData$[esp+152]
  0009d	c7 84 24 94 00
	00 00 00 00 00
	00		 mov	 DWORD PTR __$EHRec$[esp+160], 0
  000a8	6a 00		 push	 0
  000aa	50		 push	 eax
  000ab	e8 00 00 00 00	 call	 _memset

; 1210 : 	kCreateData.m_bType = CActorInstance::TYPE_PC;
; 1211 : 	kCreateData.m_dwRace = 0;
; 1212 : 	kCreateData.m_dwArmor = 0;
; 1213 : 	kCreateData.m_dwHair = 100;
; 1214 : 	kCreateData.m_dwMovSpd = 100;
; 1215 : 	kCreateData.m_dwAtkSpd = 100;
; 1216 : 	kCreateData.m_dwMountVnum = imount;

  000b0	8b 44 24 14	 mov	 eax, DWORD PTR _imount$[esp+160]
  000b4	83 c4 0c	 add	 esp, 12			; 0000000cH
  000b7	89 44 24 50	 mov	 DWORD PTR _kCreateData$[esp+208], eax

; 1217 : 	kCreateData.m_lPosX = ix;
; 1218 : 	kCreateData.m_lPosY = iy;
; 1219 : 	pCharacterInstance->Create(kCreateData);

  000bb	8b ce		 mov	 ecx, esi
  000bd	8b 44 24 0c	 mov	 eax, DWORD PTR _ix$[esp+148]
  000c1	89 44 24 38	 mov	 DWORD PTR _kCreateData$[esp+184], eax
  000c5	8b 44 24 10	 mov	 eax, DWORD PTR _iy$[esp+148]
  000c9	89 44 24 3c	 mov	 DWORD PTR _kCreateData$[esp+188], eax
  000cd	8d 44 24 14	 lea	 eax, DWORD PTR _kCreateData$[esp+148]
  000d1	50		 push	 eax
  000d2	c6 44 24 18 06	 mov	 BYTE PTR _kCreateData$[esp+152], 6
  000d7	c7 44 24 30 00
	00 00 00	 mov	 DWORD PTR _kCreateData$[esp+176], 0
  000df	c7 44 24 48 00
	00 00 00	 mov	 DWORD PTR _kCreateData$[esp+200], 0
  000e7	c7 44 24 50 64
	00 00 00	 mov	 DWORD PTR _kCreateData$[esp+208], 100 ; 00000064H
  000ef	c7 44 24 34 64
	00 00 00	 mov	 DWORD PTR _kCreateData$[esp+180], 100 ; 00000064H
  000f7	c7 44 24 38 64
	00 00 00	 mov	 DWORD PTR _kCreateData$[esp+184], 100 ; 00000064H
  000ff	e8 00 00 00 00	 call	 ?Create@CInstanceBase@@QAE_NABUSCreateData@1@@Z ; CInstanceBase::Create

; 1221 : 	return Py_BuildNone();

  00104	e8 00 00 00 00	 call	 ?Py_BuildNone@@YAPAU_object@@XZ ; Py_BuildNone
; File c:\program files (x86)\microsoft visual studio 12.0\vc\include\xstring

; 2275 : 		else if (this->_BUF_SIZE <= this->_Myres)

  00109	83 7c 24 74 10	 cmp	 DWORD PTR _kCreateData$[esp+244], 16 ; 00000010H
; File d:\metin2\metin2\client_source_clean\client_source_clean\source\userinterface\pythoncharactermodule.cpp

; 1221 : 	return Py_BuildNone();

  0010e	8b f0		 mov	 esi, eax
; File c:\program files (x86)\microsoft visual studio 12.0\vc\include\xstring

; 2275 : 		else if (this->_BUF_SIZE <= this->_Myres)

  00110	72 0c		 jb	 SHORT $LN70@chrtestSet
; File c:\program files (x86)\microsoft visual studio 12.0\vc\include\xmemory0

; 573  : 		::operator delete(_Ptr);

  00112	ff 74 24 60	 push	 DWORD PTR _kCreateData$[esp+224]
  00116	e8 00 00 00 00	 call	 ??3@YAXPAX@Z		; operator delete
  0011b	83 c4 04	 add	 esp, 4
$LN70@chrtestSet:
; File d:\metin2\metin2\client_source_clean\client_source_clean\source\userinterface\pythoncharactermodule.cpp

; 1221 : 	return Py_BuildNone();

  0011e	8b c6		 mov	 eax, esi
$LN3@chrtestSet:

; 1222 : }

  00120	8b 8c 24 88 00
	00 00		 mov	 ecx, DWORD PTR __$EHRec$[esp+148]
  00127	64 89 0d 00 00
	00 00		 mov	 DWORD PTR fs:0, ecx
  0012e	59		 pop	 ecx
  0012f	5e		 pop	 esi
  00130	8b 4c 24 78	 mov	 ecx, DWORD PTR __$ArrayPad$[esp+140]
  00134	33 cc		 xor	 ecx, esp
  00136	e8 00 00 00 00	 call	 @__security_check_cookie@4
  0013b	8b e5		 mov	 esp, ebp
  0013d	5d		 pop	 ebp
  0013e	c3		 ret	 0
_TEXT	ENDS
;	COMDAT text$x
text$x	SEGMENT
__unwindfunclet$?chrtestSetRideMan@@YAPAU_object@@PAU1@0@Z$0:
  00000	8d 4d 80	 lea	 ecx, DWORD PTR _kCreateData$[ebp]
  00003	e9 00 00 00 00	 jmp	 ??1SCreateData@CInstanceBase@@QAE@XZ
__ehhandler$?chrtestSetRideMan@@YAPAU_object@@PAU1@0@Z:
  00008	8b 54 24 08	 mov	 edx, DWORD PTR [esp+8]
  0000c	8d 82 7c ff ff
	ff		 lea	 eax, DWORD PTR [edx-132]
  00012	8b 8a 78 ff ff
	ff		 mov	 ecx, DWORD PTR [edx-136]
  00018	33 c8		 xor	 ecx, eax
  0001a	e8 00 00 00 00	 call	 @__security_check_cookie@4
  0001f	83 c0 04	 add	 eax, 4
  00022	8b 4a f8	 mov	 ecx, DWORD PTR [edx-8]
  00025	33 c8		 xor	 ecx, eax
  00027	e8 00 00 00 00	 call	 @__security_check_cookie@4
  0002c	b8 00 00 00 00	 mov	 eax, OFFSET __ehfuncinfo$?chrtestSetRideMan@@YAPAU_object@@PAU1@0@Z
  00031	e9 00 00 00 00	 jmp	 ___CxxFrameHandler3
text$x	ENDS
?chrtestSetRideMan@@YAPAU_object@@PAU1@0@Z ENDP		; chrtestSetRideMan
; Function compile flags: /Ogtp
; File d:\metin2\metin2\client_source_clean\client_source_clean\source\userinterface\pythoncharactermodule.cpp
;	COMDAT ?initchr@@YAXXZ
_TEXT	SEGMENT
?initchr@@YAXXZ PROC					; initchr, COMDAT

; 1225 : {

  00000	56		 push	 esi
  00001	57		 push	 edi

; 1226 : 	static PyMethodDef s_methods[] =
; 1227 : 	{
; 1228 : 		{ "DismountHorse",				chrDismountHorse,					METH_VARARGS },
; 1229 : 		{ "MountHorse",					chrMountHorse,						METH_VARARGS },
; 1230 : 
; 1231 : 		{ "Destroy",					chrDestroy,							METH_VARARGS },
; 1232 : 		{ "Update",						chrUpdate,							METH_VARARGS },
; 1233 : 		{ "Deform",						chrDeform,							METH_VARARGS },
; 1234 : 		{ "Render",						chrRender,							METH_VARARGS },
; 1235 : 		{ "RenderCollision",			chrRenderCollision,					METH_VARARGS },
; 1236 : 
; 1237 : 		// Functions For Python Code
; 1238 : 		{ "CreateInstance",				chrCreateInstance,					METH_VARARGS },
; 1239 : 		{ "DeleteInstance",				chrDeleteInstance,					METH_VARARGS },
; 1240 : 		{ "DeleteInstanceByFade",		chrDeleteInstanceByFade,			METH_VARARGS },
; 1241 : 		{ "SelectInstance",				chrSelectInstance,					METH_VARARGS },
; 1242 : 
; 1243 : 		{ "HasInstance",				chrHasInstance,						METH_VARARGS },
; 1244 : 		{ "IsEnemy",					chrIsEnemy,							METH_VARARGS },
; 1245 : 		{ "IsNPC",						chrIsNPC,							METH_VARARGS },
; 1246 : 		{ "IsGameMaster",				chrIsGameMaster,					METH_VARARGS },
; 1247 : 		{ "IsPartyMember",				chrIsPartyMember,					METH_VARARGS },
; 1248 : 
; 1249 : 		{ "Select",						chrSelect,							METH_VARARGS },
; 1250 : 		{ "SetAddRenderMode",			chrSetAddRenderMode,				METH_VARARGS },
; 1251 : 		{ "SetBlendRenderMode",			chrSetBlendRenderMode,				METH_VARARGS },
; 1252 : 		{ "Unselect",					chrUnselect,						METH_VARARGS },
; 1253 : 
; 1254 : 		{ "Hide",						chrHide,							METH_VARARGS },
; 1255 : 		{ "Show",						chrShow,							METH_VARARGS },
; 1256 : 		{ "Pick",						chrPick,							METH_VARARGS },
; 1257 : 		{ "PickAll",					chrPickAll,							METH_VARARGS },
; 1258 : 
; 1259 : 		{ "SetArmor",					chrSetArmor,						METH_VARARGS },
; 1260 : 		{ "SetWeapon",					chrSetWeapon,						METH_VARARGS },
; 1261 : 		{ "ChangeShape",				chrChangeShape,						METH_VARARGS },
; 1262 : 		{ "SetRace",					chrSetRace,							METH_VARARGS },
; 1263 : 		{ "SetHair",					chrSetHair,							METH_VARARGS },
; 1264 : 		{ "ChangeHair",					chrChangeHair,						METH_VARARGS },
; 1265 : 		{ "SetVirtualID",				chrSetVirtualID,					METH_VARARGS },
; 1266 : 		{ "SetNameString",				chrSetNameString,					METH_VARARGS },
; 1267 : 		{ "SetInstanceType",			chrSetInstanceType,					METH_VARARGS },
; 1268 : 
; 1269 : 		{ "SetPixelPosition",			chrSetPixelPosition,				METH_VARARGS },
; 1270 : 		{ "SetDirection",				chrSetDirection,					METH_VARARGS },
; 1271 : 		{ "Refresh",					chrRefresh,							METH_VARARGS },
; 1272 : 		{ "Revive",						chrRevive,							METH_VARARGS },
; 1273 : 		{ "Die",						chrDie,								METH_VARARGS },
; 1274 : 
; 1275 : 		{ "AttachEffectByID",			chrAttachEffectByID,				METH_VARARGS },
; 1276 : 		{ "AttachEffectByName",			chrAttachEffectByName,				METH_VARARGS },
; 1277 : 
; 1278 : 		{ "LookAt",						chrLookAt,							METH_VARARGS },
; 1279 : 		{ "SetMotionMode",				chrSetMotionMode,					METH_VARARGS },
; 1280 : 		{ "SetLoopMotion",				chrSetLoopMotion,					METH_VARARGS },
; 1281 : 		{ "BlendLoopMotion",			chrBlendLoopMotion,					METH_VARARGS },
; 1282 : 		{ "PushOnceMotion",				chrPushOnceMotion,					METH_VARARGS },
; 1283 : 		{ "PushLoopMotion",				chrPushLoopMotion,					METH_VARARGS },
; 1284 : 		{ "GetPixelPosition",			chrGetPixelPosition,				METH_VARARGS },
; 1285 : 		{ "SetRotation",				chrSetRotation,						METH_VARARGS },
; 1286 : 		{ "SetRotationAll",				chrSetRotationAll,					METH_VARARGS },
; 1287 : 		{ "BlendRotation",				chrBlendRotation,					METH_VARARGS },
; 1288 : 		{ "GetRotation",				chrGetRotation,						METH_VARARGS },
; 1289 : 		{ "GetRace",					chrGetRace,							METH_VARARGS },
; 1290 : 		{ "GetName",					chrGetName,							METH_VARARGS },
; 1291 : 		{ "GetNameByVID",				chrGetNameByVID,					METH_VARARGS },
; 1292 : 		{ "GetGuildID",					chrGetGuildID,						METH_VARARGS },
; 1293 : 		{ "GetProjectPosition",			chrGetProjectPosition,				METH_VARARGS },
; 1294 : 
; 1295 : 		{ "GetVirtualNumber",			chrGetVirtualNumber,				METH_VARARGS },
; 1296 : 		{ "GetInstanceType",			chrGetInstanceType,					METH_VARARGS },
; 1297 : 
; 1298 : 		{ "GetBoundBoxOnlyXY",			chrGetBoundBoxOnlyXY,				METH_VARARGS },
; 1299 : 
; 1300 : 		{ "RaceToJob",					chrRaceToJob,							METH_VARARGS },
; 1301 : 		{ "RaceToSex",					chrRaceToSex,							METH_VARARGS },
; 1302 : 
; 1303 : 		// For Test
; 1304 : 		{ "testGetPKData",					chrtestGetPKData,					METH_VARARGS },
; 1305 : 		{ "FaintTest",						chrFaintTest,						METH_VARARGS },
; 1306 : 		{ "SetMoveSpeed",					chrSetMoveSpeed,					METH_VARARGS },
; 1307 : 		{ "SetAttackSpeed",					chrSetAttackSpeed,					METH_VARARGS },
; 1308 : 		{ "WeaponTraceSetTexture",			chrWeaponTraceSetTexture,			METH_VARARGS },
; 1309 : 		{ "WeaponTraceUseAlpha",			chrWeaponTraceUseAlpha,				METH_VARARGS },
; 1310 : 		{ "WeaponTraceUseTexture",			chrWeaponTraceUseTexture,			METH_VARARGS },
; 1311 : 		{ "MoveToDestPosition",				chrMoveToDestPosition,				METH_VARARGS },
; 1312 : 		{ "testSetComboType",				chrtestSetComboType,				METH_VARARGS },
; 1313 : 		{ "testSetAddRenderMode",			chrtestSetAddRenderMode,			METH_VARARGS },
; 1314 : 		{ "testSetModulateRenderMode",		chrtestSetModulateRenderMode,		METH_VARARGS },
; 1315 : 		{ "testSetAddRenderModeRGB",		chrtestSetAddRenderModeRGB,			METH_VARARGS },
; 1316 : 		{ "testSetModulateRenderModeRGB",	chrtestSetModulateRenderModeRGB,	METH_VARARGS },
; 1317 : 		{ "testSetSpecularRenderMode",		chrtestSetSpecularRenderMode,		METH_VARARGS },
; 1318 : 		{ "testSetSpecularRenderMode2",		chrtestSetSpecularRenderMode2,		METH_VARARGS },
; 1319 : 		{ "testRestoreRenderMode",			chrtestRestoreRenderMode,			METH_VARARGS },
; 1320 : 		{ "testSetRideMan",					chrtestSetRideMan,					METH_VARARGS },
; 1321 : 
; 1322 : 		{ NULL,								NULL,								NULL		 },
; 1323 : 	};
; 1324 : 
; 1325 : 	PyObject * poModule = Py_InitModule("chr", s_methods);

  00002	68 f5 03 00 00	 push	 1013			; 000003f5H
  00007	6a 00		 push	 0
  00009	6a 00		 push	 0
  0000b	68 00 00 00 00	 push	 OFFSET ?s_methods@?1??initchr@@YAXXZ@4PAUPyMethodDef@@A
  00010	68 00 00 00 00	 push	 OFFSET ??_C@_03KMOFPJOC@chr?$AA@
  00015	ff 15 00 00 00
	00		 call	 DWORD PTR __imp__Py_InitModule4

; 1326 : 
; 1327 : 	// Length
; 1328 : 	PyModule_AddIntConstant(poModule, "PLAYER_NAME_MAX_LEN",				PLAYER_NAME_MAX_LEN);

  0001b	8b 35 00 00 00
	00		 mov	 esi, DWORD PTR __imp__PyModule_AddIntConstant
  00021	8b f8		 mov	 edi, eax
  00023	6a 0c		 push	 12			; 0000000cH
  00025	68 00 00 00 00	 push	 OFFSET ??_C@_0BE@BCBGONIE@PLAYER_NAME_MAX_LEN?$AA@
  0002a	57		 push	 edi
  0002b	ff d6		 call	 esi

; 1329 : 
; 1330 : 	// General
; 1331 : 	PyModule_AddIntConstant(poModule, "MOTION_NONE",						CRaceMotionData::NAME_NONE);

  0002d	6a 00		 push	 0
  0002f	68 00 00 00 00	 push	 OFFSET ??_C@_0M@GHHHCAEH@MOTION_NONE?$AA@
  00034	57		 push	 edi
  00035	ff d6		 call	 esi

; 1332 : 
; 1333 : 	PyModule_AddIntConstant(poModule, "MOTION_SPAWN",						CRaceMotionData::NAME_SPAWN);

  00037	6a 19		 push	 25			; 00000019H
  00039	68 00 00 00 00	 push	 OFFSET ??_C@_0N@JMBMLHMG@MOTION_SPAWN?$AA@
  0003e	57		 push	 edi
  0003f	ff d6		 call	 esi

; 1334 : 	PyModule_AddIntConstant(poModule, "MOTION_WAIT",						CRaceMotionData::NAME_WAIT);

  00041	6a 01		 push	 1
  00043	68 00 00 00 00	 push	 OFFSET ??_C@_0M@LMMOJHBC@MOTION_WAIT?$AA@
  00048	57		 push	 edi
  00049	ff d6		 call	 esi
  0004b	83 c4 44	 add	 esp, 68			; 00000044H

; 1335 : 	PyModule_AddIntConstant(poModule, "MOTION_WALK",						CRaceMotionData::NAME_WALK);

  0004e	6a 02		 push	 2
  00050	68 00 00 00 00	 push	 OFFSET ??_C@_0M@HHFPFLGH@MOTION_WALK?$AA@
  00055	57		 push	 edi
  00056	ff d6		 call	 esi

; 1336 : 	PyModule_AddIntConstant(poModule, "MOTION_RUN",							CRaceMotionData::NAME_RUN);

  00058	6a 03		 push	 3
  0005a	68 00 00 00 00	 push	 OFFSET ??_C@_0L@KHKCPAAF@MOTION_RUN?$AA@
  0005f	57		 push	 edi
  00060	ff d6		 call	 esi

; 1337 : 	PyModule_AddIntConstant(poModule, "MOTION_CHANGE_WEAPON",				CRaceMotionData::NAME_CHANGE_WEAPON);

  00062	6a 04		 push	 4
  00064	68 00 00 00 00	 push	 OFFSET ??_C@_0BF@ICKHJCNJ@MOTION_CHANGE_WEAPON?$AA@
  00069	57		 push	 edi
  0006a	ff d6		 call	 esi

; 1338 : 	PyModule_AddIntConstant(poModule, "MOTION_DAMAGE",						CRaceMotionData::NAME_DAMAGE);

  0006c	6a 05		 push	 5
  0006e	68 00 00 00 00	 push	 OFFSET ??_C@_0O@CKDFGNMB@MOTION_DAMAGE?$AA@
  00073	57		 push	 edi
  00074	ff d6		 call	 esi

; 1339 : 	PyModule_AddIntConstant(poModule, "MOTION_DAMAGE_FLYING",				CRaceMotionData::NAME_DAMAGE_FLYING);

  00076	6a 06		 push	 6
  00078	68 00 00 00 00	 push	 OFFSET ??_C@_0BF@LNCKFICM@MOTION_DAMAGE_FLYING?$AA@
  0007d	57		 push	 edi
  0007e	ff d6		 call	 esi

; 1340 : 	PyModule_AddIntConstant(poModule, "MOTION_STAND_UP",					CRaceMotionData::NAME_STAND_UP);

  00080	6a 07		 push	 7
  00082	68 00 00 00 00	 push	 OFFSET ??_C@_0BA@IDCGGFKN@MOTION_STAND_UP?$AA@
  00087	57		 push	 edi
  00088	ff d6		 call	 esi
  0008a	83 c4 48	 add	 esp, 72			; 00000048H

; 1341 : 	PyModule_AddIntConstant(poModule, "MOTION_DAMAGE_BACK",					CRaceMotionData::NAME_DAMAGE_BACK);

  0008d	6a 08		 push	 8
  0008f	68 00 00 00 00	 push	 OFFSET ??_C@_0BD@MNOACOOC@MOTION_DAMAGE_BACK?$AA@
  00094	57		 push	 edi
  00095	ff d6		 call	 esi

; 1342 : 	PyModule_AddIntConstant(poModule, "MOTION_DAMAGE_FLYING_BACK",			CRaceMotionData::NAME_DAMAGE_FLYING_BACK);

  00097	6a 09		 push	 9
  00099	68 00 00 00 00	 push	 OFFSET ??_C@_0BK@PDCLNNIP@MOTION_DAMAGE_FLYING_BACK?$AA@
  0009e	57		 push	 edi
  0009f	ff d6		 call	 esi

; 1343 : 	PyModule_AddIntConstant(poModule, "MOTION_STAND_UP_BACK",				CRaceMotionData::NAME_STAND_UP_BACK);

  000a1	6a 0a		 push	 10			; 0000000aH
  000a3	68 00 00 00 00	 push	 OFFSET ??_C@_0BF@DFDDIGMI@MOTION_STAND_UP_BACK?$AA@
  000a8	57		 push	 edi
  000a9	ff d6		 call	 esi

; 1344 : 	PyModule_AddIntConstant(poModule, "MOTION_DEAD",						CRaceMotionData::NAME_DEAD);

  000ab	6a 0b		 push	 11			; 0000000bH
  000ad	68 00 00 00 00	 push	 OFFSET ??_C@_0M@FADNKOPO@MOTION_DEAD?$AA@
  000b2	57		 push	 edi
  000b3	ff d6		 call	 esi

; 1345 : 	PyModule_AddIntConstant(poModule, "MOTION_DEAD_BACK",					CRaceMotionData::NAME_DEAD_BACK);

  000b5	6a 0c		 push	 12			; 0000000cH
  000b7	68 00 00 00 00	 push	 OFFSET ??_C@_0BB@FBKKIAJJ@MOTION_DEAD_BACK?$AA@
  000bc	57		 push	 edi
  000bd	ff d6		 call	 esi

; 1346 : 	PyModule_AddIntConstant(poModule, "MOTION_NORMAL_ATTACK",				CRaceMotionData::NAME_NORMAL_ATTACK);

  000bf	6a 0d		 push	 13			; 0000000dH
  000c1	68 00 00 00 00	 push	 OFFSET ??_C@_0BF@PDLLCGCI@MOTION_NORMAL_ATTACK?$AA@
  000c6	57		 push	 edi
  000c7	ff d6		 call	 esi
  000c9	83 c4 48	 add	 esp, 72			; 00000048H

; 1347 : 	PyModule_AddIntConstant(poModule, "MOTION_COMBO_ATTACK_1",				CRaceMotionData::NAME_COMBO_ATTACK_1);

  000cc	6a 0e		 push	 14			; 0000000eH
  000ce	68 00 00 00 00	 push	 OFFSET ??_C@_0BG@NHAANOLG@MOTION_COMBO_ATTACK_1?$AA@
  000d3	57		 push	 edi
  000d4	ff d6		 call	 esi

; 1348 : 	PyModule_AddIntConstant(poModule, "MOTION_COMBO_ATTACK_2",				CRaceMotionData::NAME_COMBO_ATTACK_2);

  000d6	6a 0f		 push	 15			; 0000000fH
  000d8	68 00 00 00 00	 push	 OFFSET ??_C@_0BG@PMCNINHF@MOTION_COMBO_ATTACK_2?$AA@
  000dd	57		 push	 edi
  000de	ff d6		 call	 esi

; 1349 : 	PyModule_AddIntConstant(poModule, "MOTION_COMBO_ATTACK_3",				CRaceMotionData::NAME_COMBO_ATTACK_3);

  000e0	6a 10		 push	 16			; 00000010H
  000e2	68 00 00 00 00	 push	 OFFSET ??_C@_0BG@OFDGLMDE@MOTION_COMBO_ATTACK_3?$AA@
  000e7	57		 push	 edi
  000e8	ff d6		 call	 esi

; 1350 : 	PyModule_AddIntConstant(poModule, "MOTION_COMBO_ATTACK_4",				CRaceMotionData::NAME_COMBO_ATTACK_4);

  000ea	6a 11		 push	 17			; 00000011H
  000ec	68 00 00 00 00	 push	 OFFSET ??_C@_0BG@KKHHCKPD@MOTION_COMBO_ATTACK_4?$AA@
  000f1	57		 push	 edi
  000f2	ff d6		 call	 esi

; 1351 : 	PyModule_AddIntConstant(poModule, "MOTION_COMBO_ATTACK_5",				CRaceMotionData::NAME_COMBO_ATTACK_5);

  000f4	6a 12		 push	 18			; 00000012H
  000f6	68 00 00 00 00	 push	 OFFSET ??_C@_0BG@LDGMBLLC@MOTION_COMBO_ATTACK_5?$AA@
  000fb	57		 push	 edi
  000fc	ff d6		 call	 esi

; 1352 : 	PyModule_AddIntConstant(poModule, "MOTION_COMBO_ATTACK_6",				CRaceMotionData::NAME_COMBO_ATTACK_6);

  000fe	6a 13		 push	 19			; 00000013H
  00100	68 00 00 00 00	 push	 OFFSET ??_C@_0BG@JIEBEIHB@MOTION_COMBO_ATTACK_6?$AA@
  00105	57		 push	 edi
  00106	ff d6		 call	 esi
  00108	83 c4 48	 add	 esp, 72			; 00000048H

; 1353 : 	PyModule_AddIntConstant(poModule, "MOTION_COMBO_ATTACK_7",				CRaceMotionData::NAME_COMBO_ATTACK_7);

  0010b	6a 14		 push	 20			; 00000014H
  0010d	68 00 00 00 00	 push	 OFFSET ??_C@_0BG@IBFKHJDA@MOTION_COMBO_ATTACK_7?$AA@
  00112	57		 push	 edi
  00113	ff d6		 call	 esi

; 1354 : 	PyModule_AddIntConstant(poModule, "MOTION_COMBO_ATTACK_8",				CRaceMotionData::NAME_COMBO_ATTACK_8);

  00115	6a 15		 push	 21			; 00000015H
  00117	68 00 00 00 00	 push	 OFFSET ??_C@_0BG@GMCGFPP@MOTION_COMBO_ATTACK_8?$AA@
  0011c	57		 push	 edi
  0011d	ff d6		 call	 esi

; 1355 : 	PyModule_AddIntConstant(poModule, "MOTION_INTRO_WAIT",					CRaceMotionData::NAME_INTRO_WAIT);

  0011f	6a 16		 push	 22			; 00000016H
  00121	68 00 00 00 00	 push	 OFFSET ??_C@_0BC@KGBJGDBO@MOTION_INTRO_WAIT?$AA@
  00126	57		 push	 edi
  00127	ff d6		 call	 esi

; 1356 : 	PyModule_AddIntConstant(poModule, "MOTION_INTRO_SELECTED",				CRaceMotionData::NAME_INTRO_SELECTED);

  00129	6a 17		 push	 23			; 00000017H
  0012b	68 00 00 00 00	 push	 OFFSET ??_C@_0BG@KEIOCEDJ@MOTION_INTRO_SELECTED?$AA@
  00130	57		 push	 edi
  00131	ff d6		 call	 esi

; 1357 : 	PyModule_AddIntConstant(poModule, "MOTION_INTRO_NOT_SELECTED",			CRaceMotionData::NAME_INTRO_NOT_SELECTED);

  00133	6a 18		 push	 24			; 00000018H
  00135	68 00 00 00 00	 push	 OFFSET ??_C@_0BK@BEALLN@MOTION_INTRO_NOT_SELECTED?$AA@
  0013a	57		 push	 edi
  0013b	ff d6		 call	 esi

; 1358 : 	PyModule_AddIntConstant(poModule, "MOTION_FISHING_THROW",				CRaceMotionData::NAME_FISHING_THROW);

  0013d	6a 1a		 push	 26			; 0000001aH
  0013f	68 00 00 00 00	 push	 OFFSET ??_C@_0BF@CHLKIEFK@MOTION_FISHING_THROW?$AA@
  00144	57		 push	 edi
  00145	ff d6		 call	 esi
  00147	83 c4 48	 add	 esp, 72			; 00000048H

; 1359 : 	PyModule_AddIntConstant(poModule, "MOTION_FISHING_WAIT",				CRaceMotionData::NAME_FISHING_WAIT);

  0014a	6a 1b		 push	 27			; 0000001bH
  0014c	68 00 00 00 00	 push	 OFFSET ??_C@_0BE@MOCHIGHH@MOTION_FISHING_WAIT?$AA@
  00151	57		 push	 edi
  00152	ff d6		 call	 esi

; 1360 : 	PyModule_AddIntConstant(poModule, "MOTION_FISHING_STOP",				CRaceMotionData::NAME_FISHING_STOP);

  00154	6a 1c		 push	 28			; 0000001cH
  00156	68 00 00 00 00	 push	 OFFSET ??_C@_0BE@DMIBDOKM@MOTION_FISHING_STOP?$AA@
  0015b	57		 push	 edi
  0015c	ff d6		 call	 esi

; 1361 : 	PyModule_AddIntConstant(poModule, "MOTION_FISHING_REACT",				CRaceMotionData::NAME_FISHING_REACT);

  0015e	6a 1d		 push	 29			; 0000001dH
  00160	68 00 00 00 00	 push	 OFFSET ??_C@_0BF@GJOIPBCA@MOTION_FISHING_REACT?$AA@
  00165	57		 push	 edi
  00166	ff d6		 call	 esi

; 1362 : 	PyModule_AddIntConstant(poModule, "MOTION_FISHING_CATCH",				CRaceMotionData::NAME_FISHING_CATCH);

  00168	6a 1e		 push	 30			; 0000001eH
  0016a	68 00 00 00 00	 push	 OFFSET ??_C@_0BF@NFFCHMCO@MOTION_FISHING_CATCH?$AA@
  0016f	57		 push	 edi
  00170	ff d6		 call	 esi

; 1363 : 	PyModule_AddIntConstant(poModule, "MOTION_FISHING_FAIL",				CRaceMotionData::NAME_FISHING_FAIL);

  00172	6a 1f		 push	 31			; 0000001fH
  00174	68 00 00 00 00	 push	 OFFSET ??_C@_0BE@BBLMKABM@MOTION_FISHING_FAIL?$AA@
  00179	57		 push	 edi
  0017a	ff d6		 call	 esi

; 1364 : 	PyModule_AddIntConstant(poModule, "MOTION_STOP",						CRaceMotionData::NAME_STOP);

  0017c	6a 20		 push	 32			; 00000020H
  0017e	68 00 00 00 00	 push	 OFFSET ??_C@_0M@EOGICPMJ@MOTION_STOP?$AA@
  00183	57		 push	 edi
  00184	ff d6		 call	 esi
  00186	83 c4 48	 add	 esp, 72			; 00000048H

; 1365 : 	PyModule_AddIntConstant(poModule, "MOTION_SKILL",						CRaceMotionData::NAME_SKILL);

  00189	6a 32		 push	 50			; 00000032H
  0018b	68 00 00 00 00	 push	 OFFSET ??_C@_0N@GMNNBHKJ@MOTION_SKILL?$AA@
  00190	57		 push	 edi
  00191	ff d6		 call	 esi

; 1366 : 	PyModule_AddIntConstant(poModule, "MOTION_CLAP",						CRaceMotionData::NAME_CLAP);

  00193	68 32 01 00 00	 push	 306			; 00000132H
  00198	68 00 00 00 00	 push	 OFFSET ??_C@_0M@LBLLOKDB@MOTION_CLAP?$AA@
  0019d	57		 push	 edi
  0019e	ff d6		 call	 esi

; 1367 : 	PyModule_AddIntConstant(poModule, "MOTION_DANCE_1",						CRaceMotionData::NAME_DANCE_1);

  001a0	68 46 01 00 00	 push	 326			; 00000146H
  001a5	68 00 00 00 00	 push	 OFFSET ??_C@_0P@GNPIAPBK@MOTION_DANCE_1?$AA@
  001aa	57		 push	 edi
  001ab	ff d6		 call	 esi

; 1368 : 	PyModule_AddIntConstant(poModule, "MOTION_DANCE_2",						CRaceMotionData::NAME_DANCE_2);

  001ad	68 47 01 00 00	 push	 327			; 00000147H
  001b2	68 00 00 00 00	 push	 OFFSET ??_C@_0P@EGNFFMNJ@MOTION_DANCE_2?$AA@
  001b7	57		 push	 edi
  001b8	ff d6		 call	 esi

; 1369 : 
; 1370 : 	PyModule_AddIntConstant(poModule, "MOTION_DANCE_3",						CRaceMotionData::NAME_DANCE_3);

  001ba	68 48 01 00 00	 push	 328			; 00000148H
  001bf	68 00 00 00 00	 push	 OFFSET ??_C@_0P@FPMOGNJI@MOTION_DANCE_3?$AA@
  001c4	57		 push	 edi
  001c5	ff d6		 call	 esi

; 1371 : 	PyModule_AddIntConstant(poModule, "MOTION_DANCE_4",						CRaceMotionData::NAME_DANCE_4);

  001c7	68 49 01 00 00	 push	 329			; 00000149H
  001cc	68 00 00 00 00	 push	 OFFSET ??_C@_0P@BAIPPLFP@MOTION_DANCE_4?$AA@
  001d1	57		 push	 edi
  001d2	ff d6		 call	 esi
  001d4	83 c4 48	 add	 esp, 72			; 00000048H

; 1372 : 	PyModule_AddIntConstant(poModule, "MOTION_DANCE_5",						CRaceMotionData::NAME_DANCE_5);

  001d7	68 4a 01 00 00	 push	 330			; 0000014aH
  001dc	68 00 00 00 00	 push	 OFFSET ??_C@_0P@JJEMKBO@MOTION_DANCE_5?$AA@
  001e1	57		 push	 edi
  001e2	ff d6		 call	 esi

; 1373 : 	PyModule_AddIntConstant(poModule, "MOTION_DANCE_6",						CRaceMotionData::NAME_DANCE_6);

  001e4	68 4b 01 00 00	 push	 331			; 0000014bH
  001e9	68 00 00 00 00	 push	 OFFSET ??_C@_0P@CCLJJJNN@MOTION_DANCE_6?$AA@
  001ee	57		 push	 edi
  001ef	ff d6		 call	 esi

; 1374 : 	PyModule_AddIntConstant(poModule, "MOTION_CONGRATULATION",				CRaceMotionData::NAME_CONGRATULATION);

  001f1	68 57 01 00 00	 push	 343			; 00000157H
  001f6	68 00 00 00 00	 push	 OFFSET ??_C@_0BG@BMOIGNKG@MOTION_CONGRATULATION?$AA@
  001fb	57		 push	 edi
  001fc	ff d6		 call	 esi

; 1375 : 	PyModule_AddIntConstant(poModule, "MOTION_FORGIVE",						CRaceMotionData::NAME_FORGIVE);

  001fe	68 58 01 00 00	 push	 344			; 00000158H
  00203	68 00 00 00 00	 push	 OFFSET ??_C@_0P@PACCCPNP@MOTION_FORGIVE?$AA@
  00208	57		 push	 edi
  00209	ff d6		 call	 esi

; 1376 : 	PyModule_AddIntConstant(poModule, "MOTION_ANGRY",						CRaceMotionData::NAME_ANGRY);

  0020b	68 59 01 00 00	 push	 345			; 00000159H
  00210	68 00 00 00 00	 push	 OFFSET ??_C@_0N@CLPBCEBE@MOTION_ANGRY?$AA@
  00215	57		 push	 edi
  00216	ff d6		 call	 esi

; 1377 : 	PyModule_AddIntConstant(poModule, "MOTION_ATTRACTIVE",					CRaceMotionData::NAME_ATTRACTIVE);

  00218	68 5a 01 00 00	 push	 346			; 0000015aH
  0021d	68 00 00 00 00	 push	 OFFSET ??_C@_0BC@MOMKLPKF@MOTION_ATTRACTIVE?$AA@
  00222	57		 push	 edi
  00223	ff d6		 call	 esi
  00225	83 c4 48	 add	 esp, 72			; 00000048H

; 1378 : 	PyModule_AddIntConstant(poModule, "MOTION_SAD",							CRaceMotionData::NAME_SAD);

  00228	68 5b 01 00 00	 push	 347			; 0000015bH
  0022d	68 00 00 00 00	 push	 OFFSET ??_C@_0L@PONOHEEG@MOTION_SAD?$AA@
  00232	57		 push	 edi
  00233	ff d6		 call	 esi

; 1379 : 	PyModule_AddIntConstant(poModule, "MOTION_SHY",							CRaceMotionData::NAME_SHY);

  00235	68 5c 01 00 00	 push	 348			; 0000015cH
  0023a	68 00 00 00 00	 push	 OFFSET ??_C@_0L@OGDCDNF@MOTION_SHY?$AA@
  0023f	57		 push	 edi
  00240	ff d6		 call	 esi

; 1380 : 	PyModule_AddIntConstant(poModule, "MOTION_CHEERUP",						CRaceMotionData::NAME_CHEERUP);

  00242	68 5d 01 00 00	 push	 349			; 0000015dH
  00247	68 00 00 00 00	 push	 OFFSET ??_C@_0P@KLJNPGKF@MOTION_CHEERUP?$AA@
  0024c	57		 push	 edi
  0024d	ff d6		 call	 esi

; 1381 : 	PyModule_AddIntConstant(poModule, "MOTION_BANTER",						CRaceMotionData::NAME_BANTER);

  0024f	68 5e 01 00 00	 push	 350			; 0000015eH
  00254	68 00 00 00 00	 push	 OFFSET ??_C@_0O@GPIFNFHO@MOTION_BANTER?$AA@
  00259	57		 push	 edi
  0025a	ff d6		 call	 esi

; 1382 : 	PyModule_AddIntConstant(poModule, "MOTION_JOY",							CRaceMotionData::NAME_JOY);

  0025c	68 5f 01 00 00	 push	 351			; 0000015fH
  00261	68 00 00 00 00	 push	 OFFSET ??_C@_0L@CGDNCNEF@MOTION_JOY?$AA@
  00266	57		 push	 edi
  00267	ff d6		 call	 esi

; 1383 : 	
; 1384 : 
; 1385 : 	PyModule_AddIntConstant(poModule, "MOTION_CHEERS_1",					CRaceMotionData::NAME_CHEERS_1);

  00269	68 33 01 00 00	 push	 307			; 00000133H
  0026e	68 00 00 00 00	 push	 OFFSET ??_C@_0BA@EOHNNFMC@MOTION_CHEERS_1?$AA@
  00273	57		 push	 edi
  00274	ff d6		 call	 esi
  00276	83 c4 48	 add	 esp, 72			; 00000048H

; 1386 : 	PyModule_AddIntConstant(poModule, "MOTION_CHEERS_2",					CRaceMotionData::NAME_CHEERS_2);

  00279	68 34 01 00 00	 push	 308			; 00000134H
  0027e	68 00 00 00 00	 push	 OFFSET ??_C@_0BA@GFFAIGAB@MOTION_CHEERS_2?$AA@
  00283	57		 push	 edi
  00284	ff d6		 call	 esi

; 1387 : 	PyModule_AddIntConstant(poModule, "MOTION_KISS_WITH_WARRIOR",			CRaceMotionData::NAME_KISS_WITH_WARRIOR);

  00286	68 35 01 00 00	 push	 309			; 00000135H
  0028b	68 00 00 00 00	 push	 OFFSET ??_C@_0BJ@BNMGACEI@MOTION_KISS_WITH_WARRIOR?$AA@
  00290	57		 push	 edi
  00291	ff d6		 call	 esi

; 1388 : 	PyModule_AddIntConstant(poModule, "MOTION_KISS_WITH_ASSASSIN",			CRaceMotionData::NAME_KISS_WITH_ASSASSIN);

  00293	68 36 01 00 00	 push	 310			; 00000136H
  00298	68 00 00 00 00	 push	 OFFSET ??_C@_0BK@PEHNDAJC@MOTION_KISS_WITH_ASSASSIN?$AA@
  0029d	57		 push	 edi
  0029e	ff d6		 call	 esi

; 1389 : 	PyModule_AddIntConstant(poModule, "MOTION_KISS_WITH_SURA",				CRaceMotionData::NAME_KISS_WITH_SURA);

  002a0	68 37 01 00 00	 push	 311			; 00000137H
  002a5	68 00 00 00 00	 push	 OFFSET ??_C@_0BG@FBINLMID@MOTION_KISS_WITH_SURA?$AA@
  002aa	57		 push	 edi
  002ab	ff d6		 call	 esi

; 1390 : 	PyModule_AddIntConstant(poModule, "MOTION_KISS_WITH_SHAMAN",			CRaceMotionData::NAME_KISS_WITH_SHAMAN);

  002ad	68 38 01 00 00	 push	 312			; 00000138H
  002b2	68 00 00 00 00	 push	 OFFSET ??_C@_0BI@BPAFKDHB@MOTION_KISS_WITH_SHAMAN?$AA@
  002b7	57		 push	 edi
  002b8	ff d6		 call	 esi

; 1391 : 	PyModule_AddIntConstant(poModule, "MOTION_FRENCH_KISS_WITH_WARRIOR",	CRaceMotionData::NAME_FRENCH_KISS_WITH_WARRIOR);

  002ba	68 39 01 00 00	 push	 313			; 00000139H
  002bf	68 00 00 00 00	 push	 OFFSET ??_C@_0CA@MCOGAAOA@MOTION_FRENCH_KISS_WITH_WARRIOR?$AA@
  002c4	57		 push	 edi
  002c5	ff d6		 call	 esi
  002c7	83 c4 48	 add	 esp, 72			; 00000048H

; 1392 : 	PyModule_AddIntConstant(poModule, "MOTION_FRENCH_KISS_WITH_ASSASSIN",	CRaceMotionData::NAME_FRENCH_KISS_WITH_ASSASSIN);

  002ca	68 3a 01 00 00	 push	 314			; 0000013aH
  002cf	68 00 00 00 00	 push	 OFFSET ??_C@_0CB@CMKPDLEK@MOTION_FRENCH_KISS_WITH_ASSASSIN@
  002d4	57		 push	 edi
  002d5	ff d6		 call	 esi

; 1393 : 	PyModule_AddIntConstant(poModule, "MOTION_FRENCH_KISS_WITH_SURA",		CRaceMotionData::NAME_FRENCH_KISS_WITH_SURA);

  002d7	68 3b 01 00 00	 push	 315			; 0000013bH
  002dc	68 00 00 00 00	 push	 OFFSET ??_C@_0BN@OJCLLFKP@MOTION_FRENCH_KISS_WITH_SURA?$AA@
  002e1	57		 push	 edi
  002e2	ff d6		 call	 esi

; 1394 : 	PyModule_AddIntConstant(poModule, "MOTION_FRENCH_KISS_WITH_SHAMAN",		CRaceMotionData::NAME_FRENCH_KISS_WITH_SHAMAN);

  002e4	68 3c 01 00 00	 push	 316			; 0000013cH
  002e9	68 00 00 00 00	 push	 OFFSET ??_C@_0BP@FPOIMINN@MOTION_FRENCH_KISS_WITH_SHAMAN?$AA@
  002ee	57		 push	 edi
  002ef	ff d6		 call	 esi

; 1395 : 	PyModule_AddIntConstant(poModule, "MOTION_SLAP_HIT_WITH_WARRIOR",		CRaceMotionData::NAME_SLAP_HIT_WITH_WARRIOR);

  002f1	68 3d 01 00 00	 push	 317			; 0000013dH
  002f6	68 00 00 00 00	 push	 OFFSET ??_C@_0BN@KKCFGBMO@MOTION_SLAP_HIT_WITH_WARRIOR?$AA@
  002fb	57		 push	 edi
  002fc	ff d6		 call	 esi

; 1396 : 	PyModule_AddIntConstant(poModule, "MOTION_SLAP_HIT_WITH_ASSASSIN",		CRaceMotionData::NAME_SLAP_HIT_WITH_ASSASSIN);

  002fe	68 3e 01 00 00	 push	 318			; 0000013eH
  00303	68 00 00 00 00	 push	 OFFSET ??_C@_0BO@PABBPFOE@MOTION_SLAP_HIT_WITH_ASSASSIN?$AA@
  00308	57		 push	 edi
  00309	ff d6		 call	 esi

; 1397 : 	PyModule_AddIntConstant(poModule, "MOTION_SLAP_HIT_WITH_SURA",			CRaceMotionData::NAME_SLAP_HIT_WITH_SURA);

  0030b	68 3f 01 00 00	 push	 319			; 0000013fH
  00310	68 00 00 00 00	 push	 OFFSET ??_C@_0BK@BLGFNMMI@MOTION_SLAP_HIT_WITH_SURA?$AA@
  00315	57		 push	 edi
  00316	ff d6		 call	 esi
  00318	83 c4 48	 add	 esp, 72			; 00000048H

; 1398 : 	PyModule_AddIntConstant(poModule, "MOTION_SLAP_HIT_WITH_SHAMAN",		CRaceMotionData::NAME_SLAP_HIT_WITH_SHAMAN);

  0031b	68 40 01 00 00	 push	 320			; 00000140H
  00320	68 00 00 00 00	 push	 OFFSET ??_C@_0BM@EBDKBOAP@MOTION_SLAP_HIT_WITH_SHAMAN?$AA@
  00325	57		 push	 edi
  00326	ff d6		 call	 esi

; 1399 : 	PyModule_AddIntConstant(poModule, "MOTION_SLAP_HURT_WITH_WARRIOR",		CRaceMotionData::NAME_SLAP_HURT_WITH_WARRIOR);

  00328	68 41 01 00 00	 push	 321			; 00000141H
  0032d	68 00 00 00 00	 push	 OFFSET ??_C@_0BO@ENJIKGO@MOTION_SLAP_HURT_WITH_WARRIOR?$AA@
  00332	57		 push	 edi
  00333	ff d6		 call	 esi

; 1400 : 	PyModule_AddIntConstant(poModule, "MOTION_SLAP_HURT_WITH_ASSASSIN",		CRaceMotionData::NAME_SLAP_HURT_WITH_ASSASSIN);

  00335	68 42 01 00 00	 push	 322			; 00000142H
  0033a	68 00 00 00 00	 push	 OFFSET ??_C@_0BP@CGGJKKOH@MOTION_SLAP_HURT_WITH_ASSASSIN?$AA@
  0033f	57		 push	 edi
  00340	ff d6		 call	 esi

; 1401 : 	PyModule_AddIntConstant(poModule, "MOTION_SLAP_HURT_WITH_SURA",			CRaceMotionData::NAME_SLAP_HURT_WITH_SURA);

  00342	68 43 01 00 00	 push	 323			; 00000143H
  00347	68 00 00 00 00	 push	 OFFSET ??_C@_0BL@MNIFOENP@MOTION_SLAP_HURT_WITH_SURA?$AA@
  0034c	57		 push	 edi
  0034d	ff d6		 call	 esi

; 1402 : 	PyModule_AddIntConstant(poModule, "MOTION_SLAP_HURT_WITH_SHAMAN",		CRaceMotionData::NAME_SLAP_HURT_WITH_SHAMAN);

  0034f	68 44 01 00 00	 push	 324			; 00000144H
  00354	68 00 00 00 00	 push	 OFFSET ??_C@_0BN@GMLLPEOH@MOTION_SLAP_HURT_WITH_SHAMAN?$AA@
  00359	57		 push	 edi
  0035a	ff d6		 call	 esi

; 1403 : 	PyModule_AddIntConstant(poModule, "MOTION_DIG",							CRaceMotionData::NAME_DIG);

  0035c	68 45 01 00 00	 push	 325			; 00000145H
  00361	68 00 00 00 00	 push	 OFFSET ??_C@_0L@BGCOBJBL@MOTION_DIG?$AA@
  00366	57		 push	 edi
  00367	ff d6		 call	 esi
  00369	83 c4 48	 add	 esp, 72			; 00000048H

; 1404 : 
; 1405 : 	PyModule_AddIntConstant(poModule, "MOTION_MODE_RESERVED",				CRaceMotionData::MODE_RESERVED);

  0036c	6a 00		 push	 0
  0036e	68 00 00 00 00	 push	 OFFSET ??_C@_0BF@JPHCAJND@MOTION_MODE_RESERVED?$AA@
  00373	57		 push	 edi
  00374	ff d6		 call	 esi

; 1406 : 	PyModule_AddIntConstant(poModule, "MOTION_MODE_GENERAL",				CRaceMotionData::MODE_GENERAL);

  00376	6a 01		 push	 1
  00378	68 00 00 00 00	 push	 OFFSET ??_C@_0BE@PPOENDHJ@MOTION_MODE_GENERAL?$AA@
  0037d	57		 push	 edi
  0037e	ff d6		 call	 esi

; 1407 : 	PyModule_AddIntConstant(poModule, "MOTION_MODE_ONEHAND_SWORD",			CRaceMotionData::MODE_ONEHAND_SWORD);

  00380	6a 02		 push	 2
  00382	68 00 00 00 00	 push	 OFFSET ??_C@_0BK@EGEANFHJ@MOTION_MODE_ONEHAND_SWORD?$AA@
  00387	57		 push	 edi
  00388	ff d6		 call	 esi

; 1408 : 	PyModule_AddIntConstant(poModule, "MOTION_MODE_TWOHAND_SWORD",			CRaceMotionData::MODE_TWOHAND_SWORD);

  0038a	6a 03		 push	 3
  0038c	68 00 00 00 00	 push	 OFFSET ??_C@_0BK@LGGPJGKL@MOTION_MODE_TWOHAND_SWORD?$AA@
  00391	57		 push	 edi
  00392	ff d6		 call	 esi

; 1409 : 	PyModule_AddIntConstant(poModule, "MOTION_MODE_DUALHAND_SWORD",			CRaceMotionData::MODE_DUALHAND_SWORD);

  00394	6a 04		 push	 4
  00396	68 00 00 00 00	 push	 OFFSET ??_C@_0BL@BILJFJA@MOTION_MODE_DUALHAND_SWORD?$AA@
  0039b	57		 push	 edi
  0039c	ff d6		 call	 esi

; 1410 : 	PyModule_AddIntConstant(poModule, "MOTION_MODE_BOW",					CRaceMotionData::MODE_BOW);

  0039e	6a 05		 push	 5
  003a0	68 00 00 00 00	 push	 OFFSET ??_C@_0BA@BFLJJHOH@MOTION_MODE_BOW?$AA@
  003a5	57		 push	 edi
  003a6	ff d6		 call	 esi
  003a8	83 c4 48	 add	 esp, 72			; 00000048H

; 1411 : 	PyModule_AddIntConstant(poModule, "MOTION_MODE_FAN",					CRaceMotionData::MODE_FAN);

  003ab	6a 06		 push	 6
  003ad	68 00 00 00 00	 push	 OFFSET ??_C@_0BA@LEFIEKC@MOTION_MODE_FAN?$AA@
  003b2	57		 push	 edi
  003b3	ff d6		 call	 esi

; 1412 : 	PyModule_AddIntConstant(poModule, "MOTION_MODE_BELL",					CRaceMotionData::MODE_BELL);

  003b5	6a 07		 push	 7
  003b7	68 00 00 00 00	 push	 OFFSET ??_C@_0BB@BNHJGCLA@MOTION_MODE_BELL?$AA@
  003bc	57		 push	 edi
  003bd	ff d6		 call	 esi

; 1413 : 	PyModule_AddIntConstant(poModule, "MOTION_MODE_FISHING",				CRaceMotionData::MODE_FISHING);

  003bf	6a 08		 push	 8
  003c1	68 00 00 00 00	 push	 OFFSET ??_C@_0BE@NMIGCCAP@MOTION_MODE_FISHING?$AA@
  003c6	57		 push	 edi
  003c7	ff d6		 call	 esi

; 1414 : 	PyModule_AddIntConstant(poModule, "MOTION_MODE_HORSE",					CRaceMotionData::MODE_HORSE);

  003c9	6a 09		 push	 9
  003cb	68 00 00 00 00	 push	 OFFSET ??_C@_0BC@KOFIOII@MOTION_MODE_HORSE?$AA@
  003d0	57		 push	 edi
  003d1	ff d6		 call	 esi

; 1415 : 	PyModule_AddIntConstant(poModule, "MOTION_MODE_HORSE_ONEHAND_SWORD",	CRaceMotionData::MODE_HORSE_ONEHAND_SWORD);

  003d3	6a 0a		 push	 10			; 0000000aH
  003d5	68 00 00 00 00	 push	 OFFSET ??_C@_0CA@LBDCIFIC@MOTION_MODE_HORSE_ONEHAND_SWORD?$AA@
  003da	57		 push	 edi
  003db	ff d6		 call	 esi

; 1416 : 	PyModule_AddIntConstant(poModule, "MOTION_MODE_HORSE_TWOHAND_SWORD",	CRaceMotionData::MODE_HORSE_TWOHAND_SWORD);

  003dd	6a 0b		 push	 11			; 0000000bH
  003df	68 00 00 00 00	 push	 OFFSET ??_C@_0CA@EBBNMGFA@MOTION_MODE_HORSE_TWOHAND_SWORD?$AA@
  003e4	57		 push	 edi
  003e5	ff d6		 call	 esi
  003e7	83 c4 48	 add	 esp, 72			; 00000048H

; 1417 : 	PyModule_AddIntConstant(poModule, "MOTION_MODE_HORSE_DUALHAND_SWORD",	CRaceMotionData::MODE_HORSE_DUALHAND_SWORD);

  003ea	6a 0c		 push	 12			; 0000000cH
  003ec	68 00 00 00 00	 push	 OFFSET ??_C@_0CB@CLBDMMFE@MOTION_MODE_HORSE_DUALHAND_SWORD@
  003f1	57		 push	 edi
  003f2	ff d6		 call	 esi

; 1418 : 	PyModule_AddIntConstant(poModule, "MOTION_MODE_HORSE_BOW",				CRaceMotionData::MODE_HORSE_BOW);

  003f4	6a 0d		 push	 13			; 0000000dH
  003f6	68 00 00 00 00	 push	 OFFSET ??_C@_0BG@FPIIPCL@MOTION_MODE_HORSE_BOW?$AA@
  003fb	57		 push	 edi
  003fc	ff d6		 call	 esi

; 1419 : 	PyModule_AddIntConstant(poModule, "MOTION_MODE_HORSE_FAN",				CRaceMotionData::MODE_HORSE_FAN);

  003fe	6a 0e		 push	 14			; 0000000eH
  00400	68 00 00 00 00	 push	 OFFSET ??_C@_0BG@BLAEJMGO@MOTION_MODE_HORSE_FAN?$AA@
  00405	57		 push	 edi
  00406	ff d6		 call	 esi

; 1420 : 	PyModule_AddIntConstant(poModule, "MOTION_MODE_HORSE_BELL",				CRaceMotionData::MODE_HORSE_BELL);

  00408	6a 0f		 push	 15			; 0000000fH
  0040a	68 00 00 00 00	 push	 OFFSET ??_C@_0BH@IPLLKNDD@MOTION_MODE_HORSE_BELL?$AA@
  0040f	57		 push	 edi
  00410	ff d6		 call	 esi

; 1421 : 	PyModule_AddIntConstant(poModule, "MOTION_MODE_WEDDING_DRESS",			CRaceMotionData::MODE_WEDDING_DRESS);

  00412	6a 10		 push	 16			; 00000010H
  00414	68 00 00 00 00	 push	 OFFSET ??_C@_0BK@EFEKGCKJ@MOTION_MODE_WEDDING_DRESS?$AA@
  00419	57		 push	 edi
  0041a	ff d6		 call	 esi

; 1422 : 
; 1423 : 	PyModule_AddIntConstant(poModule, "DIR_NORTH",							CInstanceBase::DIR_NORTH);

  0041c	6a 00		 push	 0
  0041e	68 00 00 00 00	 push	 OFFSET ??_C@_09OGGLMICG@DIR_NORTH?$AA@
  00423	57		 push	 edi
  00424	ff d6		 call	 esi
  00426	83 c4 48	 add	 esp, 72			; 00000048H

; 1424 : 	PyModule_AddIntConstant(poModule, "DIR_NORTHEAST",						CInstanceBase::DIR_NORTHEAST);

  00429	6a 01		 push	 1
  0042b	68 00 00 00 00	 push	 OFFSET ??_C@_0O@NGBDCCOD@DIR_NORTHEAST?$AA@
  00430	57		 push	 edi
  00431	ff d6		 call	 esi

; 1425 : 	PyModule_AddIntConstant(poModule, "DIR_EAST",							CInstanceBase::DIR_EAST);

  00433	6a 02		 push	 2
  00435	68 00 00 00 00	 push	 OFFSET ??_C@_08OGFOMCPI@DIR_EAST?$AA@
  0043a	57		 push	 edi
  0043b	ff d6		 call	 esi

; 1426 : 	PyModule_AddIntConstant(poModule, "DIR_SOUTHEAST",						CInstanceBase::DIR_SOUTHEAST);

  0043d	6a 03		 push	 3
  0043f	68 00 00 00 00	 push	 OFFSET ??_C@_0O@OIGCBKC@DIR_SOUTHEAST?$AA@
  00444	57		 push	 edi
  00445	ff d6		 call	 esi

; 1427 : 	PyModule_AddIntConstant(poModule, "DIR_SOUTH",							CInstanceBase::DIR_SOUTH);

  00447	6a 04		 push	 4
  00449	68 00 00 00 00	 push	 OFFSET ??_C@_09MEPEOBNK@DIR_SOUTH?$AA@
  0044e	57		 push	 edi
  0044f	ff d6		 call	 esi

; 1428 : 	PyModule_AddIntConstant(poModule, "DIR_SOUTHWEST",						CInstanceBase::DIR_SOUTHWEST);

  00451	6a 05		 push	 5
  00453	68 00 00 00 00	 push	 OFFSET ??_C@_0O@JLMEHCBH@DIR_SOUTHWEST?$AA@
  00458	57		 push	 edi
  00459	ff d6		 call	 esi

; 1429 : 	PyModule_AddIntConstant(poModule, "DIR_WEST",							CInstanceBase::DIR_WEST);

  0045b	6a 06		 push	 6
  0045d	68 00 00 00 00	 push	 OFFSET ??_C@_08HDBMJBEN@DIR_WEST?$AA@
  00462	57		 push	 edi
  00463	ff d6		 call	 esi
  00465	83 c4 48	 add	 esp, 72			; 00000048H

; 1430 : 	PyModule_AddIntConstant(poModule, "DIR_NORTHWEST",						CInstanceBase::DIR_NORTHWEST);

  00468	6a 07		 push	 7
  0046a	68 00 00 00 00	 push	 OFFSET ??_C@_0O@EDFBHBFG@DIR_NORTHWEST?$AA@
  0046f	57		 push	 edi
  00470	ff d6		 call	 esi

; 1431 : 
; 1432 : 	PyModule_AddIntConstant(poModule, "INSTANCE_TYPE_PLAYER",				CActorInstance::TYPE_PC);

  00472	6a 06		 push	 6
  00474	68 00 00 00 00	 push	 OFFSET ??_C@_0BF@LBEOLJOH@INSTANCE_TYPE_PLAYER?$AA@
  00479	57		 push	 edi
  0047a	ff d6		 call	 esi

; 1433 : 	PyModule_AddIntConstant(poModule, "INSTANCE_TYPE_NPC",					CActorInstance::TYPE_NPC);

  0047c	6a 01		 push	 1
  0047e	68 00 00 00 00	 push	 OFFSET ??_C@_0BC@HPKLHBPD@INSTANCE_TYPE_NPC?$AA@
  00483	57		 push	 edi
  00484	ff d6		 call	 esi

; 1434 : 	PyModule_AddIntConstant(poModule, "INSTANCE_TYPE_ENEMY",				CActorInstance::TYPE_ENEMY);

  00486	6a 00		 push	 0
  00488	68 00 00 00 00	 push	 OFFSET ??_C@_0BE@JLNEPCAN@INSTANCE_TYPE_ENEMY?$AA@
  0048d	57		 push	 edi
  0048e	ff d6		 call	 esi

; 1435 : 	PyModule_AddIntConstant(poModule, "INSTANCE_TYPE_BUILDING",				CActorInstance::TYPE_BUILDING);

  00490	6a 05		 push	 5
  00492	68 00 00 00 00	 push	 OFFSET ??_C@_0BH@FNPAMCND@INSTANCE_TYPE_BUILDING?$AA@
  00497	57		 push	 edi
  00498	ff d6		 call	 esi

; 1436 : 	PyModule_AddIntConstant(poModule, "INSTANCE_TYPE_OBJECT",				CActorInstance::TYPE_OBJECT);

  0049a	6a 0a		 push	 10			; 0000000aH
  0049c	68 00 00 00 00	 push	 OFFSET ??_C@_0BF@CFBKDGLC@INSTANCE_TYPE_OBJECT?$AA@
  004a1	57		 push	 edi
  004a2	ff d6		 call	 esi
  004a4	83 c4 48	 add	 esp, 72			; 00000048H

; 1437 : 
; 1438 : 	PyModule_AddIntConstant(poModule, "PART_WEAPON",						CRaceData::PART_WEAPON);

  004a7	6a 01		 push	 1
  004a9	68 00 00 00 00	 push	 OFFSET ??_C@_0M@LDILJIBN@PART_WEAPON?$AA@
  004ae	57		 push	 edi
  004af	ff d6		 call	 esi

; 1439 : 	PyModule_AddIntConstant(poModule, "PART_HEAD",							CRaceData::PART_HEAD);

  004b1	6a 02		 push	 2
  004b3	68 00 00 00 00	 push	 OFFSET ??_C@_09HAMNFDMJ@PART_HEAD?$AA@
  004b8	57		 push	 edi
  004b9	ff d6		 call	 esi

; 1440 : 	PyModule_AddIntConstant(poModule, "PART_WEAPON_LEFT",					CRaceData::PART_WEAPON_LEFT);

  004bb	6a 03		 push	 3
  004bd	68 00 00 00 00	 push	 OFFSET ??_C@_0BB@KENNFNCF@PART_WEAPON_LEFT?$AA@
  004c2	57		 push	 edi
  004c3	ff d6		 call	 esi

; 1441 : 
; 1442 : 	/////
; 1443 : 
; 1444 : 	PyModule_AddIntConstant(poModule, "AFFECT_POISON",						CInstanceBase::AFFECT_POISON);

  004c5	6a 03		 push	 3
  004c7	68 00 00 00 00	 push	 OFFSET ??_C@_0O@FFCFHML@AFFECT_POISON?$AA@
  004cc	57		 push	 edi
  004cd	ff d6		 call	 esi

; 1445 : 	PyModule_AddIntConstant(poModule, "AFFECT_SLOW",						CInstanceBase::AFFECT_SLOW);

  004cf	6a 04		 push	 4
  004d1	68 00 00 00 00	 push	 OFFSET ??_C@_0M@LLKNMBHE@AFFECT_SLOW?$AA@
  004d6	57		 push	 edi
  004d7	ff d6		 call	 esi

; 1446 : 	PyModule_AddIntConstant(poModule, "AFFECT_STUN",						CInstanceBase::AFFECT_STUN);

  004d9	6a 05		 push	 5
  004db	68 00 00 00 00	 push	 OFFSET ??_C@_0M@KELBDBLK@AFFECT_STUN?$AA@
  004e0	57		 push	 edi
  004e1	ff d6		 call	 esi
  004e3	83 c4 48	 add	 esp, 72			; 00000048H

; 1447 : 	PyModule_AddIntConstant(poModule, "AFFECT_MOV_SPEED_POTION",			CInstanceBase::AFFECT_MOV_SPEED_POTION);

  004e6	6a 0b		 push	 11			; 0000000bH
  004e8	68 00 00 00 00	 push	 OFFSET ??_C@_0BI@BEKPJJEK@AFFECT_MOV_SPEED_POTION?$AA@
  004ed	57		 push	 edi
  004ee	ff d6		 call	 esi

; 1448 : 	PyModule_AddIntConstant(poModule, "AFFECT_ATT_SPEED_POTION",			CInstanceBase::AFFECT_ATT_SPEED_POTION);

  004f0	6a 0c		 push	 12			; 0000000cH
  004f2	68 00 00 00 00	 push	 OFFSET ??_C@_0BI@JFMNFFKJ@AFFECT_ATT_SPEED_POTION?$AA@
  004f7	57		 push	 edi
  004f8	ff d6		 call	 esi

; 1449 : 	PyModule_AddIntConstant(poModule, "AFFECT_FISH_MIND",					CInstanceBase::AFFECT_FISH_MIND);

  004fa	6a 0d		 push	 13			; 0000000dH
  004fc	68 00 00 00 00	 push	 OFFSET ??_C@_0BB@HABGKKCK@AFFECT_FISH_MIND?$AA@
  00501	57		 push	 edi
  00502	ff d6		 call	 esi

; 1450 : 
; 1451 : 	PyModule_AddIntConstant(poModule, "AFFECT_JEONGWI",						CInstanceBase::AFFECT_JEONGWI);

  00504	6a 0e		 push	 14			; 0000000eH
  00506	68 00 00 00 00	 push	 OFFSET ??_C@_0P@PMGJMPLA@AFFECT_JEONGWI?$AA@
  0050b	57		 push	 edi
  0050c	ff d6		 call	 esi

; 1452 : 	PyModule_AddIntConstant(poModule, "AFFECT_GEOMGYEONG",					CInstanceBase::AFFECT_GEOMGYEONG);

  0050e	6a 0f		 push	 15			; 0000000fH
  00510	68 00 00 00 00	 push	 OFFSET ??_C@_0BC@BPIBLGH@AFFECT_GEOMGYEONG?$AA@
  00515	57		 push	 edi
  00516	ff d6		 call	 esi

; 1453 : 	PyModule_AddIntConstant(poModule, "AFFECT_CHEONGEUN",					CInstanceBase::AFFECT_CHEONGEUN);

  00518	6a 10		 push	 16			; 00000010H
  0051a	68 00 00 00 00	 push	 OFFSET ??_C@_0BB@NMEHKBDD@AFFECT_CHEONGEUN?$AA@
  0051f	57		 push	 edi
  00520	ff d6		 call	 esi
  00522	83 c4 48	 add	 esp, 72			; 00000048H

; 1454 : 	PyModule_AddIntConstant(poModule, "AFFECT_GYEONGGONG",					CInstanceBase::AFFECT_GYEONGGONG);

  00525	6a 11		 push	 17			; 00000011H
  00527	68 00 00 00 00	 push	 OFFSET ??_C@_0BC@DNOFICLK@AFFECT_GYEONGGONG?$AA@
  0052c	57		 push	 edi
  0052d	ff d6		 call	 esi

; 1455 : 	PyModule_AddIntConstant(poModule, "AFFECT_EUNHYEONG",					CInstanceBase::AFFECT_EUNHYEONG);

  0052f	6a 12		 push	 18			; 00000012H
  00531	68 00 00 00 00	 push	 OFFSET ??_C@_0BB@NOAECAHF@AFFECT_EUNHYEONG?$AA@
  00536	57		 push	 edi
  00537	ff d6		 call	 esi

; 1456 : 	PyModule_AddIntConstant(poModule, "AFFECT_GWIGEOM",						CInstanceBase::AFFECT_GWIGEOM);

  00539	6a 13		 push	 19			; 00000013H
  0053b	68 00 00 00 00	 push	 OFFSET ??_C@_0P@JADECJKN@AFFECT_GWIGEOM?$AA@
  00540	57		 push	 edi
  00541	ff d6		 call	 esi

; 1457 : 	PyModule_AddIntConstant(poModule, "AFFECT_GONGPO",						CInstanceBase::AFFECT_GONGPO);

  00543	6a 14		 push	 20			; 00000014H
  00545	68 00 00 00 00	 push	 OFFSET ??_C@_0O@MEBBDMFP@AFFECT_GONGPO?$AA@
  0054a	57		 push	 edi
  0054b	ff d6		 call	 esi

; 1458 : 	PyModule_AddIntConstant(poModule, "AFFECT_JUMAGAP",						CInstanceBase::AFFECT_JUMAGAP);

  0054d	6a 15		 push	 21			; 00000015H
  0054f	68 00 00 00 00	 push	 OFFSET ??_C@_0P@NHIEBDHO@AFFECT_JUMAGAP?$AA@
  00554	57		 push	 edi
  00555	ff d6		 call	 esi

; 1459 : 	PyModule_AddIntConstant(poModule, "AFFECT_HOSIN",						CInstanceBase::AFFECT_HOSIN);

  00557	6a 16		 push	 22			; 00000016H
  00559	68 00 00 00 00	 push	 OFFSET ??_C@_0N@BLOPJELK@AFFECT_HOSIN?$AA@
  0055e	57		 push	 edi
  0055f	ff d6		 call	 esi
  00561	83 c4 48	 add	 esp, 72			; 00000048H

; 1460 : 	PyModule_AddIntConstant(poModule, "AFFECT_BOHO",						CInstanceBase::AFFECT_BOHO);

  00564	6a 17		 push	 23			; 00000017H
  00566	68 00 00 00 00	 push	 OFFSET ??_C@_0M@HDMMFOHE@AFFECT_BOHO?$AA@
  0056b	57		 push	 edi
  0056c	ff d6		 call	 esi

; 1461 : 	PyModule_AddIntConstant(poModule, "AFFECT_KWAESOK",						CInstanceBase::AFFECT_KWAESOK);

  0056e	6a 18		 push	 24			; 00000018H
  00570	68 00 00 00 00	 push	 OFFSET ??_C@_0P@HCCAECCK@AFFECT_KWAESOK?$AA@
  00575	57		 push	 edi
  00576	ff d6		 call	 esi

; 1462 : 	PyModule_AddIntConstant(poModule, "AFFECT_HEUKSIN",						CInstanceBase::AFFECT_HEUKSIN);

  00578	6a 19		 push	 25			; 00000019H
  0057a	68 00 00 00 00	 push	 OFFSET ??_C@_0P@FCGDLODF@AFFECT_HEUKSIN?$AA@
  0057f	57		 push	 edi
  00580	ff d6		 call	 esi

; 1463 : 	PyModule_AddIntConstant(poModule, "AFFECT_MUYEONG",						CInstanceBase::AFFECT_MUYEONG);

  00582	6a 1a		 push	 26			; 0000001aH
  00584	68 00 00 00 00	 push	 OFFSET ??_C@_0P@HLONBHGO@AFFECT_MUYEONG?$AA@
  00589	57		 push	 edi
  0058a	ff d6		 call	 esi

; 1464 : 	PyModule_AddIntConstant(poModule, "AFFECT_GICHEON",						CInstanceBase::AFFECT_GICHEON);

  0058c	6a 1d		 push	 29			; 0000001dH
  0058e	68 00 00 00 00	 push	 OFFSET ??_C@_0P@KPDDCJEK@AFFECT_GICHEON?$AA@
  00593	57		 push	 edi
  00594	ff d6		 call	 esi

; 1465 : 	PyModule_AddIntConstant(poModule, "AFFECT_JEUNGRYEOK",					CInstanceBase::AFFECT_JEUNGRYEOK);

  00596	6a 1e		 push	 30			; 0000001eH
  00598	68 00 00 00 00	 push	 OFFSET ??_C@_0BC@HABANGHD@AFFECT_JEUNGRYEOK?$AA@
  0059d	57		 push	 edi
  0059e	ff d6		 call	 esi
  005a0	83 c4 48	 add	 esp, 72			; 00000048H

; 1466 : 	PyModule_AddIntConstant(poModule, "AFFECT_PABEOP",						CInstanceBase::AFFECT_PABEOP);

  005a3	6a 20		 push	 32			; 00000020H
  005a5	68 00 00 00 00	 push	 OFFSET ??_C@_0O@OJLLDADG@AFFECT_PABEOP?$AA@
  005aa	57		 push	 edi
  005ab	ff d6		 call	 esi

; 1467 : 	PyModule_AddIntConstant(poModule, "AFFECT_FALLEN_CHEONGEUN",			CInstanceBase::AFFECT_FALLEN_CHEONGEUN);

  005ad	6a 21		 push	 33			; 00000021H
  005af	68 00 00 00 00	 push	 OFFSET ??_C@_0BI@CFDHLOMB@AFFECT_FALLEN_CHEONGEUN?$AA@
  005b4	57		 push	 edi
  005b5	ff d6		 call	 esi

; 1468 : 	PyModule_AddIntConstant(poModule, "AFFECT_CHINA_FIREWORK",				CInstanceBase::AFFECT_CHINA_FIREWORK);

  005b7	6a 26		 push	 38			; 00000026H
  005b9	68 00 00 00 00	 push	 OFFSET ??_C@_0BG@DFBDCPEK@AFFECT_CHINA_FIREWORK?$AA@
  005be	57		 push	 edi
  005bf	ff d6		 call	 esi

; 1469 : 	PyModule_AddIntConstant(poModule, "NEW_AFFECT_MALL",					CInstanceBase::NEW_AFFECT_MALL);

  005c1	68 fe 01 00 00	 push	 510			; 000001feH
  005c6	68 00 00 00 00	 push	 OFFSET ??_C@_0BA@DBLFIOAN@NEW_AFFECT_MALL?$AA@
  005cb	57		 push	 edi
  005cc	ff d6		 call	 esi

; 1470 : 	PyModule_AddIntConstant(poModule, "NEW_AFFECT_NO_DEATH_PENALTY",		CInstanceBase::NEW_AFFECT_NO_DEATH_PENALTY);

  005ce	68 ff 01 00 00	 push	 511			; 000001ffH
  005d3	68 00 00 00 00	 push	 OFFSET ??_C@_0BM@NOKMEHMP@NEW_AFFECT_NO_DEATH_PENALTY?$AA@
  005d8	57		 push	 edi
  005d9	ff d6		 call	 esi

; 1471 : 	PyModule_AddIntConstant(poModule, "NEW_AFFECT_SKILL_BOOK_BONUS",		CInstanceBase::NEW_AFFECT_SKILL_BOOK_BONUS);

  005db	68 00 02 00 00	 push	 512			; 00000200H
  005e0	68 00 00 00 00	 push	 OFFSET ??_C@_0BM@ELPJNNPH@NEW_AFFECT_SKILL_BOOK_BONUS?$AA@
  005e5	57		 push	 edi
  005e6	ff d6		 call	 esi
  005e8	83 c4 48	 add	 esp, 72			; 00000048H

; 1472 : 	PyModule_AddIntConstant(poModule, "NEW_AFFECT_SKILL_BOOK_NO_DELAY",		CInstanceBase::NEW_AFFECT_SKILL_BOOK_NO_DELAY);

  005eb	68 01 02 00 00	 push	 513			; 00000201H
  005f0	68 00 00 00 00	 push	 OFFSET ??_C@_0BP@ILCIKFOJ@NEW_AFFECT_SKILL_BOOK_NO_DELAY?$AA@
  005f5	57		 push	 edi
  005f6	ff d6		 call	 esi

; 1473 : 	PyModule_AddIntConstant(poModule, "NEW_AFFECT_EXP_BONUS",				CInstanceBase::NEW_AFFECT_EXP_BONUS);

  005f8	68 f4 01 00 00	 push	 500			; 000001f4H
  005fd	68 00 00 00 00	 push	 OFFSET ??_C@_0BF@IGFBIBCE@NEW_AFFECT_EXP_BONUS?$AA@
  00602	57		 push	 edi
  00603	ff d6		 call	 esi

; 1474 : 	PyModule_AddIntConstant(poModule, "NEW_AFFECT_EXP_BONUS_EURO_FREE",		CInstanceBase::NEW_AFFECT_EXP_BONUS_EURO_FREE);

  00605	68 04 02 00 00	 push	 516			; 00000204H
  0060a	68 00 00 00 00	 push	 OFFSET ??_C@_0BP@PLLCKPKL@NEW_AFFECT_EXP_BONUS_EURO_FREE?$AA@
  0060f	57		 push	 edi
  00610	ff d6		 call	 esi

; 1475 : 	PyModule_AddIntConstant(poModule, "NEW_AFFECT_EXP_BONUS_EURO_FREE_UNDER_15",CInstanceBase::NEW_AFFECT_EXP_BONUS_EURO_FREE_UNDER_15);

  00612	68 05 02 00 00	 push	 517			; 00000205H
  00617	68 00 00 00 00	 push	 OFFSET ??_C@_0CI@CIBKFDJK@NEW_AFFECT_EXP_BONUS_EURO_FREE_U@
  0061c	57		 push	 edi
  0061d	ff d6		 call	 esi

; 1476 : 
; 1477 : 	PyModule_AddIntConstant(poModule, "NEW_AFFECT_ITEM_BONUS",				CInstanceBase::NEW_AFFECT_ITEM_BONUS);

  0061f	68 f5 01 00 00	 push	 501			; 000001f5H
  00624	68 00 00 00 00	 push	 OFFSET ??_C@_0BG@GBJOJDKK@NEW_AFFECT_ITEM_BONUS?$AA@
  00629	57		 push	 edi
  0062a	ff d6		 call	 esi

; 1478 : 	PyModule_AddIntConstant(poModule, "NEW_AFFECT_SAFEBOX",					CInstanceBase::NEW_AFFECT_SAFEBOX);

  0062c	68 f6 01 00 00	 push	 502			; 000001f6H
  00631	68 00 00 00 00	 push	 OFFSET ??_C@_0BD@OLNAIOLN@NEW_AFFECT_SAFEBOX?$AA@
  00636	57		 push	 edi
  00637	ff d6		 call	 esi
  00639	83 c4 48	 add	 esp, 72			; 00000048H

; 1479 : 	PyModule_AddIntConstant(poModule, "NEW_AFFECT_AUTOLOOT",				CInstanceBase::NEW_AFFECT_AUTOLOOT);

  0063c	68 f7 01 00 00	 push	 503			; 000001f7H
  00641	68 00 00 00 00	 push	 OFFSET ??_C@_0BE@OGKIHHNM@NEW_AFFECT_AUTOLOOT?$AA@
  00646	57		 push	 edi
  00647	ff d6		 call	 esi

; 1480 : 	PyModule_AddIntConstant(poModule, "NEW_AFFECT_FISH_MIND",				CInstanceBase::NEW_AFFECT_FISH_MIND);

  00649	68 f8 01 00 00	 push	 504			; 000001f8H
  0064e	68 00 00 00 00	 push	 OFFSET ??_C@_0BF@LHIEHLCN@NEW_AFFECT_FISH_MIND?$AA@
  00653	57		 push	 edi
  00654	ff d6		 call	 esi

; 1481 : 	PyModule_AddIntConstant(poModule, "NEW_AFFECT_MARRIAGE_FAST",			CInstanceBase::NEW_AFFECT_MARRIAGE_FAST);

  00656	68 f9 01 00 00	 push	 505			; 000001f9H
  0065b	68 00 00 00 00	 push	 OFFSET ??_C@_0BJ@DEPPJPLB@NEW_AFFECT_MARRIAGE_FAST?$AA@
  00660	57		 push	 edi
  00661	ff d6		 call	 esi

; 1482 : 	PyModule_AddIntConstant(poModule, "NEW_AFFECT_GOLD_BONUS",				CInstanceBase::NEW_AFFECT_GOLD_BONUS);

  00663	68 fa 01 00 00	 push	 506			; 000001faH
  00668	68 00 00 00 00	 push	 OFFSET ??_C@_0BG@FPEKGPMD@NEW_AFFECT_GOLD_BONUS?$AA@
  0066d	57		 push	 edi
  0066e	ff d6		 call	 esi

; 1483 : 	PyModule_AddIntConstant(poModule, "NEW_AFFECT_AUTO_HP_RECOVERY",		CInstanceBase::NEW_AFFECT_AUTO_HP_RECOVERY);

  00670	68 16 02 00 00	 push	 534			; 00000216H
  00675	68 00 00 00 00	 push	 OFFSET ??_C@_0BM@DLPBDIOI@NEW_AFFECT_AUTO_HP_RECOVERY?$AA@
  0067a	57		 push	 edi
  0067b	ff d6		 call	 esi

; 1484 : 	PyModule_AddIntConstant(poModule, "NEW_AFFECT_AUTO_SP_RECOVERY",		CInstanceBase::NEW_AFFECT_AUTO_SP_RECOVERY);

  0067d	68 17 02 00 00	 push	 535			; 00000217H
  00682	68 00 00 00 00	 push	 OFFSET ??_C@_0BM@EGHLHBBK@NEW_AFFECT_AUTO_SP_RECOVERY?$AA@
  00687	57		 push	 edi
  00688	ff d6		 call	 esi
  0068a	83 c4 48	 add	 esp, 72			; 00000048H

; 1485 : 
; 1486 : 	PyModule_AddIntConstant(poModule, "NEW_AFFECT_DRAGON_SOUL_QUALIFIED",		CInstanceBase::NEW_AFFECT_DRAGON_SOUL_QUALIFIED);

  0068d	68 1c 02 00 00	 push	 540			; 0000021cH
  00692	68 00 00 00 00	 push	 OFFSET ??_C@_0CB@MMNLNBEI@NEW_AFFECT_DRAGON_SOUL_QUALIFIED@
  00697	57		 push	 edi
  00698	ff d6		 call	 esi

; 1487 : 
; 1488 : 	PyModule_AddIntConstant(poModule, "NEW_AFFECT_DRAGON_SOUL_DECK1",		CInstanceBase::NEW_AFFECT_DRAGON_SOUL_DECK1);

  0069a	68 1d 02 00 00	 push	 541			; 0000021dH
  0069f	68 00 00 00 00	 push	 OFFSET ??_C@_0BN@DIIGGCFL@NEW_AFFECT_DRAGON_SOUL_DECK1?$AA@
  006a4	57		 push	 edi
  006a5	ff d6		 call	 esi

; 1489 : 	PyModule_AddIntConstant(poModule, "NEW_AFFECT_DRAGON_SOUL_DECK2",		CInstanceBase::NEW_AFFECT_DRAGON_SOUL_DECK2);

  006a7	68 1e 02 00 00	 push	 542			; 0000021eH
  006ac	68 00 00 00 00	 push	 OFFSET ??_C@_0BN@BDKLDBJI@NEW_AFFECT_DRAGON_SOUL_DECK2?$AA@
  006b1	57		 push	 edi
  006b2	ff d6		 call	 esi
  006b4	83 c4 24	 add	 esp, 36			; 00000024H
  006b7	5f		 pop	 edi
  006b8	5e		 pop	 esi

; 1490 : 
; 1491 : }

  006b9	c3		 ret	 0
?initchr@@YAXXZ ENDP					; initchr
_TEXT	ENDS
; Function compile flags: /Ogtp
; File c:\program files (x86)\microsoft visual studio 12.0\vc\include\math.h
;	COMDAT ?fmod@@YAMMM@Z
_TEXT	SEGMENT
tv81 = -8						; size = 4
tv66 = -8						; size = 8
tv65 = -8						; size = 8
__X$ = 8						; size = 4
__Y$ = 12						; size = 4
?fmod@@YAMMM@Z PROC					; fmod, COMDAT

; 1078 :         {return (fmodf(_X, _Y)); }

  00000	55		 push	 ebp
  00001	8b ec		 mov	 ebp, esp
  00003	83 e4 f8	 and	 esp, -8			; fffffff8H
  00006	83 ec 08	 sub	 esp, 8
  00009	f3 0f 10 45 08	 movss	 xmm0, DWORD PTR __X$[ebp]

; 706  :     return (float)fmod(_X, _Y);

  0000e	0f 5a c0	 cvtps2pd xmm0, xmm0
  00011	f2 0f 11 04 24	 movsd	 QWORD PTR tv66[esp+8], xmm0
  00016	f3 0f 10 45 0c	 movss	 xmm0, DWORD PTR __Y$[ebp]
  0001b	dd 04 24	 fld	 QWORD PTR tv66[esp+8]
  0001e	0f 5a c0	 cvtps2pd xmm0, xmm0
  00021	f2 0f 11 04 24	 movsd	 QWORD PTR tv65[esp+8], xmm0
  00026	dd 04 24	 fld	 QWORD PTR tv65[esp+8]
  00029	e8 00 00 00 00	 call	 __CIfmod
  0002e	d9 1c 24	 fstp	 DWORD PTR tv81[esp+8]
  00031	d9 04 24	 fld	 DWORD PTR tv81[esp+8]

; 1078 :         {return (fmodf(_X, _Y)); }

  00034	8b e5		 mov	 esp, ebp
  00036	5d		 pop	 ebp
  00037	c3		 ret	 0
?fmod@@YAMMM@Z ENDP					; fmod
_TEXT	ENDS
END
