; Listing generated by Microsoft (R) Optimizing Compiler Version 18.00.40629.0 

	TITLE	D:\Metin2\Metin2\client_source_clean\client_source_clean\source\UserInterface\PythonSystemModule.cpp
	.686P
	.XMM
	include listing.inc
	.model	flat

INCLUDELIB OLDNAMES

PUBLIC	??_C@_05EAPDINDK@iiiii?$AA@			; `string'
PUBLIC	??_C@_08DGHCLNGO@iiiiiiii?$AA@			; `string'
PUBLIC	??_C@_0BI@NBDOAHCB@DestroyInterfaceHandler?$AA@	; `string'
PUBLIC	??_C@_0BA@DGMEINM@ReserveResource?$AA@		; `string'
PUBLIC	??_C@_08OMBILDHM@GetWidth?$AA@			; `string'
PUBLIC	??_C@_0BE@LHLPPLCA@SetInterfaceHandler?$AA@	; `string'
PUBLIC	??_C@_0BA@OIPDIACO@GetWindowStatus?$AA@		; `string'
PUBLIC	??_C@_0BD@PNJEEMA@GetResolutionCount?$AA@	; `string'
PUBLIC	??_C@_0BC@GGDBAEOO@isInterfaceConfig?$AA@	; `string'
PUBLIC	??_C@_0BB@DOCGKHHO@SaveWindowStatus?$AA@	; `string'
PUBLIC	??_C@_0O@MCJGAEI@GetResolution?$AA@		; `string'
PUBLIC	??_C@_0N@DEDCKOKK@GetFrequency?$AA@		; `string'
PUBLIC	??_C@_0BC@MMLDLJCA@GetFrequencyCount?$AA@	; `string'
PUBLIC	??_C@_0BF@GJHGOKBH@GetCurrentResolution?$AA@	; `string'
PUBLIC	??_C@_0L@IJAHDAKP@SaveConfig?$AA@		; `string'
PUBLIC	??_C@_09IHEJGOIG@GetConfig?$AA@			; `string'
PUBLIC	??_C@_0M@PHHLFDDI@ApplyConfig?$AA@		; `string'
PUBLIC	??_C@_09KJAMEPBE@SetConfig?$AA@			; `string'
PUBLIC	??_C@_09BOFMNBBE@GetSaveID?$AA@			; `string'
PUBLIC	??_C@_0P@HIIHPFML@GetMusicVolume?$AA@		; `string'
PUBLIC	??_C@_09DABJPAIG@SetSaveID?$AA@			; `string'
PUBLIC	??_C@_08ILEIELBI@isSaveID?$AA@			; `string'
PUBLIC	??_C@_0BA@MFKECAML@SetViewChatFlag?$AA@		; `string'
PUBLIC	??_C@_0L@MGMBGKCF@IsViewChat?$AA@		; `string'
PUBLIC	??_C@_0P@LCENEDPB@GetSoundVolume?$AA@		; `string'
PUBLIC	??_C@_0BB@BFMNFHIM@IsSoftwareCursor?$AA@	; `string'
PUBLIC	??_C@_0BC@JHKGLKC@SetShowDamageFlag?$AA@	; `string'
PUBLIC	??_C@_0N@FLKCLECP@IsShowDamage?$AA@		; `string'
PUBLIC	??_C@_0BG@GMBDCOC@SetAlwaysShowNameFlag?$AA@	; `string'
PUBLIC	??_C@_0BB@NKNDCIFA@IsAlwaysShowName?$AA@	; `string'
PUBLIC	??_C@_0P@FFPBIDPG@GetShadowLevel?$AA@		; `string'
PUBLIC	??_C@_0O@LCPLIAAE@systemSetting?$AA@		; `string'
PUBLIC	??_C@_0BF@IKKCKDDD@SetShowSalesTextFlag?$AA@	; `string'
PUBLIC	??_C@_0BA@GPLIEFHC@IsShowSalesText?$AA@		; `string'
PUBLIC	??_C@_0P@HAOBMPKD@WINDOW_ABILITY?$AA@		; `string'
PUBLIC	??_C@_0P@MAFILJL@WINDOW_SOCIETY?$AA@		; `string'
PUBLIC	??_C@_0O@EDOCFBFG@WINDOW_STATUS?$AA@		; `string'
PUBLIC	??_C@_0BB@CHCHLBGG@WINDOW_INVENTORY?$AA@	; `string'
PUBLIC	??_C@_0N@BOOBGFI@WINDOW_QUICK?$AA@		; `string'
PUBLIC	??_C@_0N@MCEEKLOJ@WINDOW_GAUGE?$AA@		; `string'
PUBLIC	??_C@_0P@FHBHOGAA@WINDOW_JOURNAL?$AA@		; `string'
PUBLIC	??_C@_0P@NOILKAON@WINDOW_COMMAND?$AA@		; `string'
PUBLIC	??_C@_0P@LEOBHMFL@WINDOW_MINIMAP?$AA@		; `string'
PUBLIC	??_C@_0M@GHKKFINH@WINDOW_CHAT?$AA@		; `string'
EXTRN	?PushBackgroundLoadingSet@CResourceManager@@QAEXAAV?$set@V?$basic_string@DU?$char_traits@D@std@@V?$allocator@D@2@@std@@U?$less@V?$basic_string@DU?$char_traits@D@std@@V?$allocator@D@2@@std@@@2@V?$allocator@V?$basic_string@DU?$char_traits@D@std@@V?$allocator@D@2@@std@@@2@@std@@@Z:PROC ; CResourceManager::PushBackgroundLoadingSet
;	COMDAT ?s_methods@?1??initsystem@@YAXXZ@4PAUPyMethodDef@@A
_DATA	SEGMENT
?s_methods@?1??initsystem@@YAXXZ@4PAUPyMethodDef@@A DD FLAT:??_C@_08OMBILDHM@GetWidth?$AA@ ; `initsystem'::`2'::s_methods
	DD	FLAT:?systemGetWidth@@YAPAU_object@@PAU1@0@Z
	DD	01H
	ORG $+4
	DD	FLAT:??_C@_09EOGEIJMK@GetHeight?$AA@
	DD	FLAT:?systemGetHeight@@YAPAU_object@@PAU1@0@Z
	DD	01H
	ORG $+4
	DD	FLAT:??_C@_0BE@LHLPPLCA@SetInterfaceHandler?$AA@
	DD	FLAT:?systemSetInterfaceHandler@@YAPAU_object@@PAU1@0@Z
	DD	01H
	ORG $+4
	DD	FLAT:??_C@_0BI@NBDOAHCB@DestroyInterfaceHandler?$AA@
	DD	FLAT:?systemDestroyInterfaceHandler@@YAPAU_object@@PAU1@0@Z
	DD	01H
	ORG $+4
	DD	FLAT:??_C@_0BA@DGMEINM@ReserveResource?$AA@
	DD	FLAT:?systemReserveResource@@YAPAU_object@@PAU1@0@Z
	DD	01H
	ORG $+4
	DD	FLAT:??_C@_0BC@GGDBAEOO@isInterfaceConfig?$AA@
	DD	FLAT:?systemisInterfaceConfig@@YAPAU_object@@PAU1@0@Z
	DD	01H
	ORG $+4
	DD	FLAT:??_C@_0BB@DOCGKHHO@SaveWindowStatus?$AA@
	DD	FLAT:?systemSaveWindowStatus@@YAPAU_object@@PAU1@0@Z
	DD	01H
	ORG $+4
	DD	FLAT:??_C@_0BA@OIPDIACO@GetWindowStatus?$AA@
	DD	FLAT:?systemGetWindowStatus@@YAPAU_object@@PAU1@0@Z
	DD	01H
	ORG $+4
	DD	FLAT:??_C@_0BD@PNJEEMA@GetResolutionCount?$AA@
	DD	FLAT:?systemGetResolutionCount@@YAPAU_object@@PAU1@0@Z
	DD	01H
	ORG $+4
	DD	FLAT:??_C@_0BC@MMLDLJCA@GetFrequencyCount?$AA@
	DD	FLAT:?systemGetFrequencyCount@@YAPAU_object@@PAU1@0@Z
	DD	01H
	ORG $+4
	DD	FLAT:??_C@_0BF@GJHGOKBH@GetCurrentResolution?$AA@
	DD	FLAT:?systemGetCurrentResolution@@YAPAU_object@@PAU1@0@Z
	DD	01H
	ORG $+4
	DD	FLAT:??_C@_0O@MCJGAEI@GetResolution?$AA@
	DD	FLAT:?systemGetResolution@@YAPAU_object@@PAU1@0@Z
	DD	01H
	ORG $+4
	DD	FLAT:??_C@_0N@DEDCKOKK@GetFrequency?$AA@
	DD	FLAT:?systemGetFrequency@@YAPAU_object@@PAU1@0@Z
	DD	01H
	ORG $+4
	DD	FLAT:??_C@_0M@PHHLFDDI@ApplyConfig?$AA@
	DD	FLAT:?systemApplyConfig@@YAPAU_object@@PAU1@0@Z
	DD	01H
	ORG $+4
	DD	FLAT:??_C@_09KJAMEPBE@SetConfig?$AA@
	DD	FLAT:?systemSetConfig@@YAPAU_object@@PAU1@0@Z
	DD	01H
	ORG $+4
	DD	FLAT:??_C@_0L@IJAHDAKP@SaveConfig?$AA@
	DD	FLAT:?systemSaveConfig@@YAPAU_object@@PAU1@0@Z
	DD	01H
	ORG $+4
	DD	FLAT:??_C@_09IHEJGOIG@GetConfig?$AA@
	DD	FLAT:?systemGetConfig@@YAPAU_object@@PAU1@0@Z
	DD	01H
	ORG $+4
	DD	FLAT:??_C@_09DABJPAIG@SetSaveID?$AA@
	DD	FLAT:?systemSetSaveID@@YAPAU_object@@PAU1@0@Z
	DD	01H
	ORG $+4
	DD	FLAT:??_C@_08ILEIELBI@isSaveID?$AA@
	DD	FLAT:?systemisSaveID@@YAPAU_object@@PAU1@0@Z
	DD	01H
	ORG $+4
	DD	FLAT:??_C@_09BOFMNBBE@GetSaveID?$AA@
	DD	FLAT:?systemGetSaveID@@YAPAU_object@@PAU1@0@Z
	DD	01H
	ORG $+4
	DD	FLAT:??_C@_0P@HIIHPFML@GetMusicVolume?$AA@
	DD	FLAT:?systemGetMusicVolume@@YAPAU_object@@PAU1@0@Z
	DD	01H
	ORG $+4
	DD	FLAT:??_C@_0P@LCENEDPB@GetSoundVolume?$AA@
	DD	FLAT:?systemGetSoundVolume@@YAPAU_object@@PAU1@0@Z
	DD	01H
	ORG $+4
	DD	FLAT:??_C@_0P@LGJJAPOH@SetMusicVolume?$AA@
	DD	FLAT:?systemSetMusicVolume@@YAPAU_object@@PAU1@0@Z
	DD	01H
	ORG $+4
	DD	FLAT:??_C@_0BA@MLLJDBPB@SetSoundVolumef?$AA@
	DD	FLAT:?systemSetSoundVolumef@@YAPAU_object@@PAU1@0@Z
	DD	01H
	ORG $+4
	DD	FLAT:??_C@_0BB@BFMNFHIM@IsSoftwareCursor?$AA@
	DD	FLAT:?systemIsSoftwareCursor@@YAPAU_object@@PAU1@0@Z
	DD	01H
	ORG $+4
	DD	FLAT:??_C@_0BA@MFKECAML@SetViewChatFlag?$AA@
	DD	FLAT:?systemSetViewChatFlag@@YAPAU_object@@PAU1@0@Z
	DD	01H
	ORG $+4
	DD	FLAT:??_C@_0L@MGMBGKCF@IsViewChat?$AA@
	DD	FLAT:?systemIsViewChat@@YAPAU_object@@PAU1@0@Z
	DD	01H
	ORG $+4
	DD	FLAT:??_C@_0BG@GMBDCOC@SetAlwaysShowNameFlag?$AA@
	DD	FLAT:?systemSetAlwaysShowNameFlag@@YAPAU_object@@PAU1@0@Z
	DD	01H
	ORG $+4
	DD	FLAT:??_C@_0BB@NKNDCIFA@IsAlwaysShowName?$AA@
	DD	FLAT:?systemIsAlwaysShowName@@YAPAU_object@@PAU1@0@Z
	DD	01H
	ORG $+4
	DD	FLAT:??_C@_0BC@JHKGLKC@SetShowDamageFlag?$AA@
	DD	FLAT:?systemSetShowDamageFlag@@YAPAU_object@@PAU1@0@Z
	DD	01H
	ORG $+4
	DD	FLAT:??_C@_0N@FLKCLECP@IsShowDamage?$AA@
	DD	FLAT:?systemIsShowDamage@@YAPAU_object@@PAU1@0@Z
	DD	01H
	ORG $+4
	DD	FLAT:??_C@_0BF@IKKCKDDD@SetShowSalesTextFlag?$AA@
	DD	FLAT:?systemSetShowSalesTextFlag@@YAPAU_object@@PAU1@0@Z
	DD	01H
	ORG $+4
	DD	FLAT:??_C@_0BA@GPLIEFHC@IsShowSalesText?$AA@
	DD	FLAT:?systemIsShowSalesText@@YAPAU_object@@PAU1@0@Z
	DD	01H
	ORG $+4
	DD	FLAT:??_C@_0P@FFPBIDPG@GetShadowLevel?$AA@
	DD	FLAT:?systemGetShadowLevel@@YAPAU_object@@PAU1@0@Z
	DD	01H
	ORG $+4
	DD	FLAT:??_C@_0P@JLOPHJNK@SetShadowLevel?$AA@
	DD	FLAT:?systemSetShadowLevel@@YAPAU_object@@PAU1@0@Z
	DD	01H
	ORG $+4
	DD	00H
	DD	00H
	DD	00H
	ORG $+4
_DATA	ENDS
;	COMDAT ??_C@_0M@GHKKFINH@WINDOW_CHAT?$AA@
CONST	SEGMENT
??_C@_0M@GHKKFINH@WINDOW_CHAT?$AA@ DB 'WINDOW_CHAT', 00H ; `string'
CONST	ENDS
;	COMDAT ??_C@_0P@LEOBHMFL@WINDOW_MINIMAP?$AA@
CONST	SEGMENT
??_C@_0P@LEOBHMFL@WINDOW_MINIMAP?$AA@ DB 'WINDOW_MINIMAP', 00H ; `string'
CONST	ENDS
;	COMDAT ??_C@_0P@NOILKAON@WINDOW_COMMAND?$AA@
CONST	SEGMENT
??_C@_0P@NOILKAON@WINDOW_COMMAND?$AA@ DB 'WINDOW_COMMAND', 00H ; `string'
CONST	ENDS
;	COMDAT ??_C@_0P@FHBHOGAA@WINDOW_JOURNAL?$AA@
CONST	SEGMENT
??_C@_0P@FHBHOGAA@WINDOW_JOURNAL?$AA@ DB 'WINDOW_JOURNAL', 00H ; `string'
CONST	ENDS
;	COMDAT ??_C@_0N@MCEEKLOJ@WINDOW_GAUGE?$AA@
CONST	SEGMENT
??_C@_0N@MCEEKLOJ@WINDOW_GAUGE?$AA@ DB 'WINDOW_GAUGE', 00H ; `string'
CONST	ENDS
;	COMDAT ??_C@_0N@BOOBGFI@WINDOW_QUICK?$AA@
CONST	SEGMENT
??_C@_0N@BOOBGFI@WINDOW_QUICK?$AA@ DB 'WINDOW_QUICK', 00H ; `string'
CONST	ENDS
;	COMDAT ??_C@_0BB@CHCHLBGG@WINDOW_INVENTORY?$AA@
CONST	SEGMENT
??_C@_0BB@CHCHLBGG@WINDOW_INVENTORY?$AA@ DB 'WINDOW_INVENTORY', 00H ; `string'
CONST	ENDS
;	COMDAT ??_C@_0O@EDOCFBFG@WINDOW_STATUS?$AA@
CONST	SEGMENT
??_C@_0O@EDOCFBFG@WINDOW_STATUS?$AA@ DB 'WINDOW_STATUS', 00H ; `string'
CONST	ENDS
;	COMDAT ??_C@_0P@MAFILJL@WINDOW_SOCIETY?$AA@
CONST	SEGMENT
??_C@_0P@MAFILJL@WINDOW_SOCIETY?$AA@ DB 'WINDOW_SOCIETY', 00H ; `string'
CONST	ENDS
;	COMDAT ??_C@_0P@HAOBMPKD@WINDOW_ABILITY?$AA@
CONST	SEGMENT
??_C@_0P@HAOBMPKD@WINDOW_ABILITY?$AA@ DB 'WINDOW_ABILITY', 00H ; `string'
CONST	ENDS
;	COMDAT ??_C@_0BA@GPLIEFHC@IsShowSalesText?$AA@
CONST	SEGMENT
??_C@_0BA@GPLIEFHC@IsShowSalesText?$AA@ DB 'IsShowSalesText', 00H ; `string'
CONST	ENDS
;	COMDAT ??_C@_0BF@IKKCKDDD@SetShowSalesTextFlag?$AA@
CONST	SEGMENT
??_C@_0BF@IKKCKDDD@SetShowSalesTextFlag?$AA@ DB 'SetShowSalesTextFlag', 00H ; `string'
CONST	ENDS
;	COMDAT ??_C@_0O@LCPLIAAE@systemSetting?$AA@
CONST	SEGMENT
??_C@_0O@LCPLIAAE@systemSetting?$AA@ DB 'systemSetting', 00H ; `string'
CONST	ENDS
;	COMDAT ??_C@_0P@FFPBIDPG@GetShadowLevel?$AA@
CONST	SEGMENT
??_C@_0P@FFPBIDPG@GetShadowLevel?$AA@ DB 'GetShadowLevel', 00H ; `string'
CONST	ENDS
;	COMDAT ??_C@_0BB@NKNDCIFA@IsAlwaysShowName?$AA@
CONST	SEGMENT
??_C@_0BB@NKNDCIFA@IsAlwaysShowName?$AA@ DB 'IsAlwaysShowName', 00H ; `string'
CONST	ENDS
;	COMDAT ??_C@_0BG@GMBDCOC@SetAlwaysShowNameFlag?$AA@
CONST	SEGMENT
??_C@_0BG@GMBDCOC@SetAlwaysShowNameFlag?$AA@ DB 'SetAlwaysShowNameFlag', 00H ; `string'
CONST	ENDS
;	COMDAT ??_C@_0N@FLKCLECP@IsShowDamage?$AA@
CONST	SEGMENT
??_C@_0N@FLKCLECP@IsShowDamage?$AA@ DB 'IsShowDamage', 00H ; `string'
CONST	ENDS
;	COMDAT ??_C@_0BC@JHKGLKC@SetShowDamageFlag?$AA@
CONST	SEGMENT
??_C@_0BC@JHKGLKC@SetShowDamageFlag?$AA@ DB 'SetShowDamageFlag', 00H ; `string'
CONST	ENDS
;	COMDAT ??_C@_0BB@BFMNFHIM@IsSoftwareCursor?$AA@
CONST	SEGMENT
??_C@_0BB@BFMNFHIM@IsSoftwareCursor?$AA@ DB 'IsSoftwareCursor', 00H ; `string'
CONST	ENDS
;	COMDAT ??_C@_0P@LCENEDPB@GetSoundVolume?$AA@
CONST	SEGMENT
??_C@_0P@LCENEDPB@GetSoundVolume?$AA@ DB 'GetSoundVolume', 00H ; `string'
CONST	ENDS
;	COMDAT ??_C@_0L@MGMBGKCF@IsViewChat?$AA@
CONST	SEGMENT
??_C@_0L@MGMBGKCF@IsViewChat?$AA@ DB 'IsViewChat', 00H	; `string'
CONST	ENDS
;	COMDAT ??_C@_0BA@MFKECAML@SetViewChatFlag?$AA@
CONST	SEGMENT
??_C@_0BA@MFKECAML@SetViewChatFlag?$AA@ DB 'SetViewChatFlag', 00H ; `string'
CONST	ENDS
;	COMDAT ??_C@_08ILEIELBI@isSaveID?$AA@
CONST	SEGMENT
??_C@_08ILEIELBI@isSaveID?$AA@ DB 'isSaveID', 00H	; `string'
CONST	ENDS
;	COMDAT ??_C@_09DABJPAIG@SetSaveID?$AA@
CONST	SEGMENT
??_C@_09DABJPAIG@SetSaveID?$AA@ DB 'SetSaveID', 00H	; `string'
CONST	ENDS
;	COMDAT ??_C@_0P@HIIHPFML@GetMusicVolume?$AA@
CONST	SEGMENT
??_C@_0P@HIIHPFML@GetMusicVolume?$AA@ DB 'GetMusicVolume', 00H ; `string'
CONST	ENDS
;	COMDAT ??_C@_09BOFMNBBE@GetSaveID?$AA@
CONST	SEGMENT
??_C@_09BOFMNBBE@GetSaveID?$AA@ DB 'GetSaveID', 00H	; `string'
CONST	ENDS
;	COMDAT ??_C@_09KJAMEPBE@SetConfig?$AA@
CONST	SEGMENT
??_C@_09KJAMEPBE@SetConfig?$AA@ DB 'SetConfig', 00H	; `string'
CONST	ENDS
;	COMDAT ??_C@_0M@PHHLFDDI@ApplyConfig?$AA@
CONST	SEGMENT
??_C@_0M@PHHLFDDI@ApplyConfig?$AA@ DB 'ApplyConfig', 00H ; `string'
CONST	ENDS
;	COMDAT ??_C@_09IHEJGOIG@GetConfig?$AA@
CONST	SEGMENT
??_C@_09IHEJGOIG@GetConfig?$AA@ DB 'GetConfig', 00H	; `string'
CONST	ENDS
;	COMDAT ??_C@_0L@IJAHDAKP@SaveConfig?$AA@
CONST	SEGMENT
??_C@_0L@IJAHDAKP@SaveConfig?$AA@ DB 'SaveConfig', 00H	; `string'
CONST	ENDS
;	COMDAT ??_C@_0BF@GJHGOKBH@GetCurrentResolution?$AA@
CONST	SEGMENT
??_C@_0BF@GJHGOKBH@GetCurrentResolution?$AA@ DB 'GetCurrentResolution', 00H ; `string'
CONST	ENDS
;	COMDAT ??_C@_0BC@MMLDLJCA@GetFrequencyCount?$AA@
CONST	SEGMENT
??_C@_0BC@MMLDLJCA@GetFrequencyCount?$AA@ DB 'GetFrequencyCount', 00H ; `string'
CONST	ENDS
;	COMDAT ??_C@_0N@DEDCKOKK@GetFrequency?$AA@
CONST	SEGMENT
??_C@_0N@DEDCKOKK@GetFrequency?$AA@ DB 'GetFrequency', 00H ; `string'
CONST	ENDS
;	COMDAT ??_C@_0O@MCJGAEI@GetResolution?$AA@
CONST	SEGMENT
??_C@_0O@MCJGAEI@GetResolution?$AA@ DB 'GetResolution', 00H ; `string'
CONST	ENDS
;	COMDAT ??_C@_0BB@DOCGKHHO@SaveWindowStatus?$AA@
CONST	SEGMENT
??_C@_0BB@DOCGKHHO@SaveWindowStatus?$AA@ DB 'SaveWindowStatus', 00H ; `string'
CONST	ENDS
;	COMDAT ??_C@_0BC@GGDBAEOO@isInterfaceConfig?$AA@
CONST	SEGMENT
??_C@_0BC@GGDBAEOO@isInterfaceConfig?$AA@ DB 'isInterfaceConfig', 00H ; `string'
CONST	ENDS
;	COMDAT ??_C@_0BD@PNJEEMA@GetResolutionCount?$AA@
CONST	SEGMENT
??_C@_0BD@PNJEEMA@GetResolutionCount?$AA@ DB 'GetResolutionCount', 00H ; `string'
CONST	ENDS
;	COMDAT ??_C@_0BA@OIPDIACO@GetWindowStatus?$AA@
CONST	SEGMENT
??_C@_0BA@OIPDIACO@GetWindowStatus?$AA@ DB 'GetWindowStatus', 00H ; `string'
CONST	ENDS
;	COMDAT ??_C@_0BE@LHLPPLCA@SetInterfaceHandler?$AA@
CONST	SEGMENT
??_C@_0BE@LHLPPLCA@SetInterfaceHandler?$AA@ DB 'SetInterfaceHandler', 00H ; `string'
CONST	ENDS
;	COMDAT ??_C@_08OMBILDHM@GetWidth?$AA@
CONST	SEGMENT
??_C@_08OMBILDHM@GetWidth?$AA@ DB 'GetWidth', 00H	; `string'
CONST	ENDS
;	COMDAT ??_C@_0BA@DGMEINM@ReserveResource?$AA@
CONST	SEGMENT
??_C@_0BA@DGMEINM@ReserveResource?$AA@ DB 'ReserveResource', 00H ; `string'
CONST	ENDS
;	COMDAT ??_C@_0BI@NBDOAHCB@DestroyInterfaceHandler?$AA@
CONST	SEGMENT
??_C@_0BI@NBDOAHCB@DestroyInterfaceHandler?$AA@ DB 'DestroyInterfaceHandl'
	DB	'er', 00H					; `string'
CONST	ENDS
;	COMDAT ??_C@_08DGHCLNGO@iiiiiiii?$AA@
CONST	SEGMENT
??_C@_08DGHCLNGO@iiiiiiii?$AA@ DB 'iiiiiiii', 00H	; `string'
CONST	ENDS
;	COMDAT ??_C@_05EAPDINDK@iiiii?$AA@
CONST	SEGMENT
??_C@_05EAPDINDK@iiiii?$AA@ DB 'iiiii', 00H		; `string'
PUBLIC	?initsystem@@YAXXZ				; initsystem
PUBLIC	?systemSetShadowLevel@@YAPAU_object@@PAU1@0@Z	; systemSetShadowLevel
PUBLIC	?systemGetShadowLevel@@YAPAU_object@@PAU1@0@Z	; systemGetShadowLevel
PUBLIC	?systemGetFrequency@@YAPAU_object@@PAU1@0@Z	; systemGetFrequency
PUBLIC	?systemGetCurrentResolution@@YAPAU_object@@PAU1@0@Z ; systemGetCurrentResolution
PUBLIC	?systemGetResolution@@YAPAU_object@@PAU1@0@Z	; systemGetResolution
PUBLIC	?systemGetFrequencyCount@@YAPAU_object@@PAU1@0@Z ; systemGetFrequencyCount
PUBLIC	?systemGetResolutionCount@@YAPAU_object@@PAU1@0@Z ; systemGetResolutionCount
PUBLIC	?systemSaveConfig@@YAPAU_object@@PAU1@0@Z	; systemSaveConfig
PUBLIC	?systemApplyConfig@@YAPAU_object@@PAU1@0@Z	; systemApplyConfig
PUBLIC	?systemSetConfig@@YAPAU_object@@PAU1@0@Z	; systemSetConfig
PUBLIC	?systemIsShowSalesText@@YAPAU_object@@PAU1@0@Z	; systemIsShowSalesText
PUBLIC	?systemIsShowDamage@@YAPAU_object@@PAU1@0@Z	; systemIsShowDamage
PUBLIC	?systemIsAlwaysShowName@@YAPAU_object@@PAU1@0@Z	; systemIsAlwaysShowName
PUBLIC	?systemSetShowSalesTextFlag@@YAPAU_object@@PAU1@0@Z ; systemSetShowSalesTextFlag
PUBLIC	?systemSetShowDamageFlag@@YAPAU_object@@PAU1@0@Z ; systemSetShowDamageFlag
PUBLIC	?systemSetAlwaysShowNameFlag@@YAPAU_object@@PAU1@0@Z ; systemSetAlwaysShowNameFlag
PUBLIC	?systemIsViewChat@@YAPAU_object@@PAU1@0@Z	; systemIsViewChat
PUBLIC	?systemSetViewChatFlag@@YAPAU_object@@PAU1@0@Z	; systemSetViewChatFlag
PUBLIC	?systemIsSoftwareCursor@@YAPAU_object@@PAU1@0@Z	; systemIsSoftwareCursor
PUBLIC	?systemSetSoundVolumef@@YAPAU_object@@PAU1@0@Z	; systemSetSoundVolumef
PUBLIC	?systemSetMusicVolume@@YAPAU_object@@PAU1@0@Z	; systemSetMusicVolume
PUBLIC	?systemGetSoundVolume@@YAPAU_object@@PAU1@0@Z	; systemGetSoundVolume
PUBLIC	?systemGetMusicVolume@@YAPAU_object@@PAU1@0@Z	; systemGetMusicVolume
PUBLIC	?systemGetSaveID@@YAPAU_object@@PAU1@0@Z	; systemGetSaveID
PUBLIC	?systemisSaveID@@YAPAU_object@@PAU1@0@Z		; systemisSaveID
PUBLIC	?systemSetSaveID@@YAPAU_object@@PAU1@0@Z	; systemSetSaveID
PUBLIC	?systemGetConfig@@YAPAU_object@@PAU1@0@Z	; systemGetConfig
PUBLIC	?systemGetWindowStatus@@YAPAU_object@@PAU1@0@Z	; systemGetWindowStatus
PUBLIC	?systemSaveWindowStatus@@YAPAU_object@@PAU1@0@Z	; systemSaveWindowStatus
PUBLIC	?systemisInterfaceConfig@@YAPAU_object@@PAU1@0@Z ; systemisInterfaceConfig
PUBLIC	?systemReserveResource@@YAPAU_object@@PAU1@0@Z	; systemReserveResource
PUBLIC	?systemDestroyInterfaceHandler@@YAPAU_object@@PAU1@0@Z ; systemDestroyInterfaceHandler
PUBLIC	?systemSetInterfaceHandler@@YAPAU_object@@PAU1@0@Z ; systemSetInterfaceHandler
PUBLIC	?systemGetHeight@@YAPAU_object@@PAU1@0@Z	; systemGetHeight
PUBLIC	?systemGetWidth@@YAPAU_object@@PAU1@0@Z		; systemGetWidth
;	COMDAT xdata$x
xdata$x	SEGMENT
__ehfuncinfo$?systemReserveResource@@YAPAU_object@@PAU1@0@Z DD 019930522H
	DD	01H
	DD	FLAT:__unwindtable$?systemReserveResource@@YAPAU_object@@PAU1@0@Z
	DD	2 DUP(00H)
	DD	2 DUP(00H)
	DD	00H
	DD	01H
__unwindtable$?systemReserveResource@@YAPAU_object@@PAU1@0@Z DD 0ffffffffH
	DD	FLAT:__unwindfunclet$?systemReserveResource@@YAPAU_object@@PAU1@0@Z$0
; Function compile flags: /Ogtp
; File d:\metin2\metin2\client_source_clean\client_source_clean\source\userinterface\pythonsystemmodule.cpp
;	COMDAT ?systemGetWidth@@YAPAU_object@@PAU1@0@Z
_TEXT	SEGMENT
_poSelf$ = 8						; size = 4
_poArgs$ = 12						; size = 4
?systemGetWidth@@YAPAU_object@@PAU1@0@Z PROC		; systemGetWidth, COMDAT

; 6    : 	return Py_BuildValue("i", CPythonSystem::Instance().GetWidth());

  00000	8b 0d 00 00 00
	00		 mov	 ecx, DWORD PTR ?ms_singleton@?$CSingleton@VCPythonSystem@@@@0PAVCPythonSystem@@A ; CSingleton<CPythonSystem>::ms_singleton
  00006	e8 00 00 00 00	 call	 ?GetWidth@CPythonSystem@@QAEKXZ ; CPythonSystem::GetWidth
  0000b	50		 push	 eax
  0000c	68 00 00 00 00	 push	 OFFSET ??_C@_01KBJDNOO@i?$AA@
  00011	ff 15 00 00 00
	00		 call	 DWORD PTR __imp__Py_BuildValue
  00017	83 c4 08	 add	 esp, 8

; 7    : }

  0001a	c3		 ret	 0
?systemGetWidth@@YAPAU_object@@PAU1@0@Z ENDP		; systemGetWidth
_TEXT	ENDS
; Function compile flags: /Ogtp
; File d:\metin2\metin2\client_source_clean\client_source_clean\source\userinterface\pythonsystemmodule.cpp
;	COMDAT ?systemGetHeight@@YAPAU_object@@PAU1@0@Z
_TEXT	SEGMENT
_poSelf$ = 8						; size = 4
_poArgs$ = 12						; size = 4
?systemGetHeight@@YAPAU_object@@PAU1@0@Z PROC		; systemGetHeight, COMDAT

; 11   : 	return Py_BuildValue("i", CPythonSystem::Instance().GetHeight());

  00000	8b 0d 00 00 00
	00		 mov	 ecx, DWORD PTR ?ms_singleton@?$CSingleton@VCPythonSystem@@@@0PAVCPythonSystem@@A ; CSingleton<CPythonSystem>::ms_singleton
  00006	e8 00 00 00 00	 call	 ?GetHeight@CPythonSystem@@QAEKXZ ; CPythonSystem::GetHeight
  0000b	50		 push	 eax
  0000c	68 00 00 00 00	 push	 OFFSET ??_C@_01KBJDNOO@i?$AA@
  00011	ff 15 00 00 00
	00		 call	 DWORD PTR __imp__Py_BuildValue
  00017	83 c4 08	 add	 esp, 8

; 12   : }

  0001a	c3		 ret	 0
?systemGetHeight@@YAPAU_object@@PAU1@0@Z ENDP		; systemGetHeight
_TEXT	ENDS
; Function compile flags: /Ogtp
; File d:\metin2\metin2\client_source_clean\client_source_clean\source\userinterface\pythonsystemmodule.cpp
;	COMDAT ?systemSetInterfaceHandler@@YAPAU_object@@PAU1@0@Z
_TEXT	SEGMENT
_poHandler$ = -4					; size = 4
_poSelf$ = 8						; size = 4
_poArgs$ = 12						; size = 4
?systemSetInterfaceHandler@@YAPAU_object@@PAU1@0@Z PROC	; systemSetInterfaceHandler, COMDAT

; 15   : {

  00000	55		 push	 ebp
  00001	8b ec		 mov	 ebp, esp
  00003	51		 push	 ecx

; 16   : 	PyObject* poHandler;
; 17   : 	if (!PyTuple_GetObject(poArgs, 0, &poHandler))

  00004	8d 45 fc	 lea	 eax, DWORD PTR _poHandler$[ebp]
  00007	50		 push	 eax
  00008	6a 00		 push	 0
  0000a	ff 75 0c	 push	 DWORD PTR _poArgs$[ebp]
  0000d	e8 00 00 00 00	 call	 ?PyTuple_GetObject@@YA_NPAU_object@@HPAPAU1@@Z ; PyTuple_GetObject
  00012	83 c4 0c	 add	 esp, 12			; 0000000cH
  00015	84 c0		 test	 al, al
  00017	75 0e		 jne	 SHORT $LN1@systemSetI

; 18   : 		return Py_BuildException();

  00019	6a 00		 push	 0
  0001b	e8 00 00 00 00	 call	 ?Py_BuildException@@YAPAU_object@@PBDZZ ; Py_BuildException
  00020	83 c4 04	 add	 esp, 4

; 22   : }

  00023	8b e5		 mov	 esp, ebp
  00025	5d		 pop	 ebp
  00026	c3		 ret	 0
$LN1@systemSetI:

; 19   : 
; 20   : 	CPythonSystem::Instance().SetInterfaceHandler(poHandler);

  00027	ff 75 fc	 push	 DWORD PTR _poHandler$[ebp]
  0002a	8b 0d 00 00 00
	00		 mov	 ecx, DWORD PTR ?ms_singleton@?$CSingleton@VCPythonSystem@@@@0PAVCPythonSystem@@A ; CSingleton<CPythonSystem>::ms_singleton
  00030	e8 00 00 00 00	 call	 ?SetInterfaceHandler@CPythonSystem@@QAEXPAU_object@@@Z ; CPythonSystem::SetInterfaceHandler

; 21   : 	return Py_BuildNone();

  00035	e8 00 00 00 00	 call	 ?Py_BuildNone@@YAPAU_object@@XZ ; Py_BuildNone

; 22   : }

  0003a	8b e5		 mov	 esp, ebp
  0003c	5d		 pop	 ebp
  0003d	c3		 ret	 0
?systemSetInterfaceHandler@@YAPAU_object@@PAU1@0@Z ENDP	; systemSetInterfaceHandler
_TEXT	ENDS
; Function compile flags: /Ogtp
; File d:\metin2\metin2\client_source_clean\client_source_clean\source\userinterface\pythonsystemmodule.cpp
;	COMDAT ?systemDestroyInterfaceHandler@@YAPAU_object@@PAU1@0@Z
_TEXT	SEGMENT
_poSelf$ = 8						; size = 4
_poArgs$ = 12						; size = 4
?systemDestroyInterfaceHandler@@YAPAU_object@@PAU1@0@Z PROC ; systemDestroyInterfaceHandler, COMDAT

; 26   : 	CPythonSystem::Instance().DestroyInterfaceHandler();

  00000	8b 0d 00 00 00
	00		 mov	 ecx, DWORD PTR ?ms_singleton@?$CSingleton@VCPythonSystem@@@@0PAVCPythonSystem@@A ; CSingleton<CPythonSystem>::ms_singleton
  00006	e8 00 00 00 00	 call	 ?DestroyInterfaceHandler@CPythonSystem@@QAEXXZ ; CPythonSystem::DestroyInterfaceHandler

; 27   : 	return Py_BuildNone();

  0000b	e9 00 00 00 00	 jmp	 ?Py_BuildNone@@YAPAU_object@@XZ ; Py_BuildNone
?systemDestroyInterfaceHandler@@YAPAU_object@@PAU1@0@Z ENDP ; systemDestroyInterfaceHandler
_TEXT	ENDS
; Function compile flags: /Ogtp
; File d:\metin2\metin2\client_source_clean\client_source_clean\source\userinterface\pythonsystemmodule.cpp
; File c:\program files (x86)\microsoft visual studio 12.0\vc\include\xtree
; File d:\metin2\metin2\client_source_clean\client_source_clean\source\userinterface\pythonsystemmodule.cpp
; File c:\program files (x86)\microsoft visual studio 12.0\vc\include\xtree
; File d:\metin2\metin2\client_source_clean\client_source_clean\source\userinterface\pythonsystemmodule.cpp
; File c:\program files (x86)\microsoft visual studio 12.0\vc\include\xtree
; File c:\program files (x86)\microsoft visual studio 12.0\vc\include\xmemory0
; File d:\metin2\metin2\client_source_clean\client_source_clean\source\userinterface\pythonsystemmodule.cpp
;	COMDAT ?systemReserveResource@@YAPAU_object@@PAU1@0@Z
_TEXT	SEGMENT
_ResourceSet$ = -24					; size = 8
$T2 = -16						; size = 4
__$EHRec$ = -12						; size = 12
_poSelf$ = 8						; size = 4
_poArgs$ = 12						; size = 4
?systemReserveResource@@YAPAU_object@@PAU1@0@Z PROC	; systemReserveResource, COMDAT

; 31   : {

  00000	55		 push	 ebp
  00001	8b ec		 mov	 ebp, esp
  00003	6a ff		 push	 -1
  00005	68 00 00 00 00	 push	 __ehhandler$?systemReserveResource@@YAPAU_object@@PAU1@0@Z
  0000a	64 a1 00 00 00
	00		 mov	 eax, DWORD PTR fs:0
  00010	50		 push	 eax
  00011	83 ec 0c	 sub	 esp, 12			; 0000000cH
  00014	56		 push	 esi
  00015	a1 00 00 00 00	 mov	 eax, DWORD PTR ___security_cookie
  0001a	33 c5		 xor	 eax, ebp
  0001c	50		 push	 eax
  0001d	8d 45 f4	 lea	 eax, DWORD PTR __$EHRec$[ebp]
  00020	64 a3 00 00 00
	00		 mov	 DWORD PTR fs:0, eax
; File c:\program files (x86)\microsoft visual studio 12.0\vc\include\xtree

; 569  : 		this->_Myhead = 0;

  00026	c7 45 e8 00 00
	00 00		 mov	 DWORD PTR _ResourceSet$[ebp], 0

; 570  : 		this->_Mysize = 0;

  0002d	c7 45 ec 00 00
	00 00		 mov	 DWORD PTR _ResourceSet$[ebp+4], 0

; 571  : 		}
; 572  : 
; 573  : 	enum _Redbl
; 574  : 		{	// colors for link to parent
; 575  : 		_Red, _Black};
; 576  : 
; 577  : 	static char& _Color(_Nodeptr _Pnode)
; 578  : 		{	// return reference to color in node
; 579  : 		return ((char&)_Pnode->_Color);
; 580  : 		}
; 581  : 
; 582  : 	static char& _Isnil(_Nodeptr _Pnode)
; 583  : 		{	// return reference to nil flag in node
; 584  : 		return ((char&)_Pnode->_Isnil);
; 585  : 		}
; 586  : 
; 587  : 	static _Nodepref _Left(_Nodeptr _Pnode)
; 588  : 		{	// return reference to left pointer in node
; 589  : 		return ((_Nodepref)_Pnode->_Left);
; 590  : 		}
; 591  : 
; 592  : 	static _Nodepref _Parent(_Nodeptr _Pnode)
; 593  : 		{	// return reference to parent pointer in node
; 594  : 		return ((_Nodepref)_Pnode->_Parent);
; 595  : 		}
; 596  : 
; 597  : 	static _Nodepref _Right(_Nodeptr _Pnode)
; 598  : 		{	// return reference to right pointer in node
; 599  : 		return ((_Nodepref)_Pnode->_Right);
; 600  : 		}
; 601  : 
; 602  : 	static reference _Myval(_Nodeptr _Pnode)
; 603  : 		{	// return reference to value in node
; 604  : 		return ((reference)_Pnode->_Myval);
; 605  : 		}
; 606  : 
; 607  : 	static _Nodeptr _Max(_Nodeptr _Pnode)
; 608  : 		{	// return rightmost node in subtree at _Pnode
; 609  : 		while (!_Isnil(_Right(_Pnode)))
; 610  : 			_Pnode = _Right(_Pnode);
; 611  : 		return (_Pnode);
; 612  : 		}
; 613  : 
; 614  : 	static _Nodeptr _Min(_Nodeptr _Pnode)
; 615  : 		{	// return leftmost node in subtree at _Pnode
; 616  : 		while (!_Isnil(_Left(_Pnode)))
; 617  : 			_Pnode = _Left(_Pnode);
; 618  : 		return (_Pnode);
; 619  : 		}
; 620  : 
; 621  : 	_Nodeptr _Myhead;	// pointer to head node
; 622  : 	size_type _Mysize;	// number of elements
; 623  : 	};
; 624  : 
; 625  : 		// TEMPLATE CLASS _Tree_alloc
; 626  : template<bool _Al_has_storage,
; 627  : 	class _Alloc_types>
; 628  : 	class _Tree_alloc
; 629  : 		: public _Tree_val<typename _Alloc_types::_Val_types>
; 630  : 	{	// base class for tree to hold allocator with storage
; 631  : public:
; 632  : 	typename _Alloc_types::_Alnod_type _Alnod;	// allocator object
; 633  : 
; 634  : 	typedef _Tree_alloc<_Al_has_storage, _Alloc_types> _Myt;
; 635  : 	typedef typename _Alloc_types::_Alloc _Alloc;
; 636  : 	typedef typename _Alloc_types::_Alnod_type _Alty;
; 637  : 	typedef typename _Alloc_types::_Node _Node;
; 638  : 	typedef typename _Alloc_types::_Nodeptr _Nodeptr;
; 639  : 
; 640  :  #if _ITERATOR_DEBUG_LEVEL == 0
; 641  : 	_Tree_alloc(const _Alloc& _Al = _Alloc())
; 642  : 		: _Alnod(_Al)
; 643  : 		{	// construct head node, allocator from _Al
; 644  : 		this->_Myhead = _Buyheadnode();
; 645  : 		}
; 646  : 
; 647  : 	~_Tree_alloc() _NOEXCEPT
; 648  : 		{	// destroy head node
; 649  : 		_Freeheadnode(this->_Myhead);
; 650  : 		}
; 651  : 
; 652  : 	void _Change_alloc(const _Alty& _Al)
; 653  : 		{	// replace old allocator
; 654  : 		this->_Alnod = _Al;
; 655  : 		}
; 656  : 
; 657  : 	void _Swap_alloc(_Myt& _Right)
; 658  : 		{	// swap allocators
; 659  : 		_Swap_adl(this->_Alnod, _Right._Alnod);
; 660  : 		}
; 661  : 
; 662  :  #else /* _ITERATOR_DEBUG_LEVEL == 0 */
; 663  : 	_Tree_alloc(const _Alloc& _Al = _Alloc())
; 664  : 		: _Alnod(_Al)
; 665  : 		{	// construct allocators from _Al
; 666  : 		this->_Myhead = _Buyheadnode();
; 667  : 		_TRY_BEGIN
; 668  : 		_Alloc_proxy();
; 669  : 		_CATCH_ALL
; 670  : 		_Freeheadnode(this->_Myhead);
; 671  : 		_RERAISE;
; 672  : 		_CATCH_END
; 673  : 		}
; 674  : 
; 675  : 	~_Tree_alloc() _NOEXCEPT
; 676  : 		{	// destroy proxy
; 677  : 		_Freeheadnode(this->_Myhead);
; 678  : 		_Free_proxy();
; 679  : 		}
; 680  : 
; 681  : 	void _Change_alloc(const _Alty& _Al)
; 682  : 		{	// replace old allocator
; 683  : 		_Free_proxy();
; 684  : 		this->_Alnod = _Al;
; 685  : 		_Alloc_proxy();
; 686  : 		}
; 687  : 
; 688  : 	void _Swap_alloc(_Myt& _Right)
; 689  : 		{	// swap allocators
; 690  : 		_Swap_adl(this->_Alnod, _Right._Alnod);
; 691  : 		_Swap_adl(this->_Myproxy, _Right._Myproxy);
; 692  : 		}
; 693  : 
; 694  : 	void _Alloc_proxy()
; 695  : 		{	// construct proxy from _Alnod
; 696  : 		typename _Alty::template rebind<_Container_proxy>::other
; 697  : 			_Alproxy(this->_Alnod);
; 698  : 		this->_Myproxy = _Alproxy.allocate(1);
; 699  : 		_Alproxy.construct(this->_Myproxy, _Container_proxy());
; 700  : 		this->_Myproxy->_Mycont = this;
; 701  : 		}
; 702  : 
; 703  : 	void _Free_proxy()
; 704  : 		{	// destroy proxy
; 705  : 		typename _Alty::template rebind<_Container_proxy>::other
; 706  : 			_Alproxy(this->_Alnod);
; 707  : 		this->_Orphan_all();
; 708  : 		_Alproxy.destroy(this->_Myproxy);
; 709  : 		_Alproxy.deallocate(this->_Myproxy, 1);
; 710  : 		this->_Myproxy = 0;
; 711  : 		}
; 712  :  #endif /* _ITERATOR_DEBUG_LEVEL == 0 */
; 713  : 
; 714  : 	_Nodeptr _Buyheadnode()
; 715  : 		{	// get head node using current allocator
; 716  : 		_Nodeptr _Pnode = this->_Alnod.allocate(1);
; 717  : 
; 718  : 		_TRY_BEGIN
; 719  : 		this->_Alnod.construct(
; 720  : 			_STD addressof(this->_Left(_Pnode)), _Pnode);
; 721  : 		this->_Alnod.construct(
; 722  : 			_STD addressof(this->_Parent(_Pnode)), _Pnode);
; 723  : 		this->_Alnod.construct(
; 724  : 			_STD addressof(this->_Right(_Pnode)), _Pnode);
; 725  : 		_CATCH_ALL
; 726  : 		this->_Alnod.deallocate(_Pnode, 1);
; 727  : 		_RERAISE;
; 728  : 		_CATCH_END
; 729  : 
; 730  : 		this->_Color(_Pnode) = this->_Black;
; 731  : 		this->_Isnil(_Pnode) = true;
; 732  : 		return (_Pnode);
; 733  : 		}
; 734  : 
; 735  : 	void _Freeheadnode(_Nodeptr _Pnode)
; 736  : 		{	// free head node using current allocator
; 737  : 		this->_Alnod.destroy(
; 738  : 			_STD addressof(this->_Left(_Pnode)));
; 739  : 		this->_Alnod.destroy(
; 740  : 			_STD addressof(this->_Parent(_Pnode)));
; 741  : 		this->_Alnod.destroy(
; 742  : 			_STD addressof(this->_Right(_Pnode)));
; 743  : 		this->_Alnod.deallocate(_Pnode, 1);
; 744  : 		}
; 745  : 
; 746  : 	_Alty& _Getal()
; 747  : 		{	// get reference to allocator
; 748  : 		return (this->_Alnod);
; 749  : 		}
; 750  : 
; 751  : 	const _Alty& _Getal() const
; 752  : 		{	// get reference to allocator
; 753  : 		return (this->_Alnod);
; 754  : 		}
; 755  : 	};
; 756  : 
; 757  : 		// TEMPLATE CLASS _Tree_alloc
; 758  : template<class _Alloc_types>
; 759  : 	class _Tree_alloc<false, _Alloc_types>
; 760  : 		: public _Tree_val<typename _Alloc_types::_Val_types>
; 761  : 	{	// base class for tree to hold allocator with no storage
; 762  : public:
; 763  : 	typedef _Tree_alloc<false, _Alloc_types> _Myt;
; 764  : 	typedef _Tree_val<typename _Alloc_types::_Val_types> _Mybase;
; 765  : 	typedef typename _Alloc_types::_Alloc _Alloc;
; 766  : 	typedef typename _Alloc_types::_Alnod_type _Alty;
; 767  : 	typedef typename _Alloc_types::_Node _Node;
; 768  : 	typedef typename _Alloc_types::_Nodeptr _Nodeptr;
; 769  : 
; 770  :  #if _ITERATOR_DEBUG_LEVEL == 0
; 771  : 	_Tree_alloc(const _Alloc& = _Alloc())
; 772  : 		{	// construct head node, allocator from _Al
; 773  : 		this->_Myhead = _Buyheadnode();

  00034	e8 00 00 00 00	 call	 ?_Buyheadnode@?$_Tree_alloc@$0A@U?$_Tree_base_types@V?$basic_string@DU?$char_traits@D@std@@V?$allocator@D@2@@std@@V?$allocator@V?$basic_string@DU?$char_traits@D@std@@V?$allocator@D@2@@std@@@2@@std@@@std@@QAEPAU?$_Tree_node@V?$basic_string@DU?$char_traits@D@std@@V?$allocator@D@2@@std@@PAX@2@XZ ; std::_Tree_alloc<0,std::_Tree_base_types<std::basic_string<char,std::char_traits<char>,std::allocator<char> >,std::allocator<std::basic_string<char,std::char_traits<char>,std::allocator<char> > > > >::_Buyheadnode
  00039	89 45 e8	 mov	 DWORD PTR _ResourceSet$[ebp], eax
; File d:\metin2\metin2\client_source_clean\client_source_clean\source\userinterface\pythonsystemmodule.cpp

; 33   : 	CResourceManager::Instance().PushBackgroundLoadingSet(ResourceSet);

  0003c	8d 45 e8	 lea	 eax, DWORD PTR _ResourceSet$[ebp]
  0003f	c7 45 fc 00 00
	00 00		 mov	 DWORD PTR __$EHRec$[ebp+8], 0
  00046	8b 0d 00 00 00
	00		 mov	 ecx, DWORD PTR ?ms_singleton@?$CSingleton@VCResourceManager@@@@0PAVCResourceManager@@A ; CSingleton<CResourceManager>::ms_singleton
  0004c	50		 push	 eax
  0004d	e8 00 00 00 00	 call	 ?PushBackgroundLoadingSet@CResourceManager@@QAEXAAV?$set@V?$basic_string@DU?$char_traits@D@std@@V?$allocator@D@2@@std@@U?$less@V?$basic_string@DU?$char_traits@D@std@@V?$allocator@D@2@@std@@@2@V?$allocator@V?$basic_string@DU?$char_traits@D@std@@V?$allocator@D@2@@std@@@2@@std@@@Z ; CResourceManager::PushBackgroundLoadingSet

; 34   : 	return Py_BuildNone();

  00052	e8 00 00 00 00	 call	 ?Py_BuildNone@@YAPAU_object@@XZ ; Py_BuildNone
; File c:\program files (x86)\microsoft visual studio 12.0\vc\include\xtree

; 44   : 		{	// construct with node pointer _Pnode

  00057	8b 4d e8	 mov	 ecx, DWORD PTR _ResourceSet$[ebp]
; File d:\metin2\metin2\client_source_clean\client_source_clean\source\userinterface\pythonsystemmodule.cpp

; 34   : 	return Py_BuildNone();

  0005a	8b f0		 mov	 esi, eax
; File c:\program files (x86)\microsoft visual studio 12.0\vc\include\xtree

; 2230 : 		erase(begin(), end());

  0005c	51		 push	 ecx
  0005d	8d 45 f0	 lea	 eax, DWORD PTR $T2[ebp]
  00060	ff 31		 push	 DWORD PTR [ecx]
  00062	8d 4d e8	 lea	 ecx, DWORD PTR _ResourceSet$[ebp]
  00065	50		 push	 eax
  00066	e8 00 00 00 00	 call	 ?erase@?$_Tree@V?$_Tset_traits@V?$basic_string@DU?$char_traits@D@std@@V?$allocator@D@2@@std@@U?$less@V?$basic_string@DU?$char_traits@D@std@@V?$allocator@D@2@@std@@@2@V?$allocator@V?$basic_string@DU?$char_traits@D@std@@V?$allocator@D@2@@std@@@2@$0A@@std@@@std@@QAE?AV?$_Tree_const_iterator@V?$_Tree_val@U?$_Tree_simple_types@V?$basic_string@DU?$char_traits@D@std@@V?$allocator@D@2@@std@@@std@@@std@@@2@V32@0@Z ; std::_Tree<std::_Tset_traits<std::basic_string<char,std::char_traits<char>,std::allocator<char> >,std::less<std::basic_string<char,std::char_traits<char>,std::allocator<char> > >,std::allocator<std::basic_string<char,std::char_traits<char>,std::allocator<char> > >,0> >::erase
; File c:\program files (x86)\microsoft visual studio 12.0\vc\include\xmemory0

; 573  : 		::operator delete(_Ptr);

  0006b	ff 75 e8	 push	 DWORD PTR _ResourceSet$[ebp]
  0006e	e8 00 00 00 00	 call	 ??3@YAXPAX@Z		; operator delete
  00073	83 c4 04	 add	 esp, 4
; File d:\metin2\metin2\client_source_clean\client_source_clean\source\userinterface\pythonsystemmodule.cpp

; 34   : 	return Py_BuildNone();

  00076	8b c6		 mov	 eax, esi

; 35   : }

  00078	8b 4d f4	 mov	 ecx, DWORD PTR __$EHRec$[ebp]
  0007b	64 89 0d 00 00
	00 00		 mov	 DWORD PTR fs:0, ecx
  00082	59		 pop	 ecx
  00083	5e		 pop	 esi
  00084	8b e5		 mov	 esp, ebp
  00086	5d		 pop	 ebp
  00087	c3		 ret	 0
_TEXT	ENDS
;	COMDAT text$x
text$x	SEGMENT
__unwindfunclet$?systemReserveResource@@YAPAU_object@@PAU1@0@Z$0:
  00000	8d 4d e8	 lea	 ecx, DWORD PTR _ResourceSet$[ebp]
  00003	e9 00 00 00 00	 jmp	 ??1?$set@V?$basic_string@DU?$char_traits@D@std@@V?$allocator@D@2@@std@@U?$less@V?$basic_string@DU?$char_traits@D@std@@V?$allocator@D@2@@std@@@2@V?$allocator@V?$basic_string@DU?$char_traits@D@std@@V?$allocator@D@2@@std@@@2@@std@@QAE@XZ
__ehhandler$?systemReserveResource@@YAPAU_object@@PAU1@0@Z:
  00008	8b 54 24 08	 mov	 edx, DWORD PTR [esp+8]
  0000c	8d 42 0c	 lea	 eax, DWORD PTR [edx+12]
  0000f	8b 4a ec	 mov	 ecx, DWORD PTR [edx-20]
  00012	33 c8		 xor	 ecx, eax
  00014	e8 00 00 00 00	 call	 @__security_check_cookie@4
  00019	b8 00 00 00 00	 mov	 eax, OFFSET __ehfuncinfo$?systemReserveResource@@YAPAU_object@@PAU1@0@Z
  0001e	e9 00 00 00 00	 jmp	 ___CxxFrameHandler3
text$x	ENDS
?systemReserveResource@@YAPAU_object@@PAU1@0@Z ENDP	; systemReserveResource
; Function compile flags: /Ogtp
; File d:\metin2\metin2\client_source_clean\client_source_clean\source\userinterface\pythonsystemmodule.cpp
;	COMDAT ?systemisInterfaceConfig@@YAPAU_object@@PAU1@0@Z
_TEXT	SEGMENT
_poSelf$ = 8						; size = 4
_poArgs$ = 12						; size = 4
?systemisInterfaceConfig@@YAPAU_object@@PAU1@0@Z PROC	; systemisInterfaceConfig, COMDAT

; 39   : 	int isInterfaceConfig = CPythonSystem::Instance().isInterfaceConfig();

  00000	8b 0d 00 00 00
	00		 mov	 ecx, DWORD PTR ?ms_singleton@?$CSingleton@VCPythonSystem@@@@0PAVCPythonSystem@@A ; CSingleton<CPythonSystem>::ms_singleton
  00006	e8 00 00 00 00	 call	 ?isInterfaceConfig@CPythonSystem@@QAE_NXZ ; CPythonSystem::isInterfaceConfig
  0000b	0f b6 c0	 movzx	 eax, al

; 40   : 	return Py_BuildValue("i", isInterfaceConfig);

  0000e	50		 push	 eax
  0000f	68 00 00 00 00	 push	 OFFSET ??_C@_01KBJDNOO@i?$AA@
  00014	ff 15 00 00 00
	00		 call	 DWORD PTR __imp__Py_BuildValue
  0001a	83 c4 08	 add	 esp, 8

; 41   : }

  0001d	c3		 ret	 0
?systemisInterfaceConfig@@YAPAU_object@@PAU1@0@Z ENDP	; systemisInterfaceConfig
_TEXT	ENDS
; Function compile flags: /Ogtp
; File d:\metin2\metin2\client_source_clean\client_source_clean\source\userinterface\pythonsystemmodule.cpp
;	COMDAT ?systemSaveWindowStatus@@YAPAU_object@@PAU1@0@Z
_TEXT	SEGMENT
_iIndex$ = -24						; size = 4
_iVisible$ = -20					; size = 4
_iMinimized$ = -16					; size = 4
_ix$ = -12						; size = 4
_iy$ = -8						; size = 4
_iHeight$ = -4						; size = 4
_poSelf$ = 8						; size = 4
_poArgs$ = 12						; size = 4
?systemSaveWindowStatus@@YAPAU_object@@PAU1@0@Z PROC	; systemSaveWindowStatus, COMDAT

; 44   : {

  00000	55		 push	 ebp
  00001	8b ec		 mov	 ebp, esp
  00003	83 ec 18	 sub	 esp, 24			; 00000018H

; 45   : 	int iIndex;
; 46   : 	if (!PyTuple_GetInteger(poArgs, 0, &iIndex))

  00006	8d 45 e8	 lea	 eax, DWORD PTR _iIndex$[ebp]
  00009	56		 push	 esi
  0000a	8b 75 0c	 mov	 esi, DWORD PTR _poArgs$[ebp]
  0000d	50		 push	 eax
  0000e	6a 00		 push	 0
  00010	56		 push	 esi
  00011	e8 00 00 00 00	 call	 ?PyTuple_GetInteger@@YA_NPAU_object@@HPAH@Z ; PyTuple_GetInteger
  00016	83 c4 0c	 add	 esp, 12			; 0000000cH
  00019	84 c0		 test	 al, al
  0001b	75 0f		 jne	 SHORT $LN6@systemSave
$LN11@systemSave:

; 47   : 		return Py_BuildException();

  0001d	6a 00		 push	 0
  0001f	e8 00 00 00 00	 call	 ?Py_BuildException@@YAPAU_object@@PBDZZ ; Py_BuildException
  00024	83 c4 04	 add	 esp, 4
  00027	5e		 pop	 esi

; 71   : }

  00028	8b e5		 mov	 esp, ebp
  0002a	5d		 pop	 ebp
  0002b	c3		 ret	 0
$LN6@systemSave:

; 48   : 
; 49   : 	int iVisible;
; 50   : 	if (!PyTuple_GetInteger(poArgs, 1, &iVisible))

  0002c	8d 45 ec	 lea	 eax, DWORD PTR _iVisible$[ebp]
  0002f	50		 push	 eax
  00030	6a 01		 push	 1
  00032	56		 push	 esi
  00033	e8 00 00 00 00	 call	 ?PyTuple_GetInteger@@YA_NPAU_object@@HPAH@Z ; PyTuple_GetInteger
  00038	83 c4 0c	 add	 esp, 12			; 0000000cH
  0003b	84 c0		 test	 al, al
  0003d	74 de		 je	 SHORT $LN11@systemSave

; 51   : 		return Py_BuildException();
; 52   : 
; 53   : 	int iMinimized;
; 54   : 	if (!PyTuple_GetInteger(poArgs, 2, &iMinimized))

  0003f	8d 45 f0	 lea	 eax, DWORD PTR _iMinimized$[ebp]
  00042	50		 push	 eax
  00043	6a 02		 push	 2
  00045	56		 push	 esi
  00046	e8 00 00 00 00	 call	 ?PyTuple_GetInteger@@YA_NPAU_object@@HPAH@Z ; PyTuple_GetInteger
  0004b	83 c4 0c	 add	 esp, 12			; 0000000cH
  0004e	84 c0		 test	 al, al
  00050	74 cb		 je	 SHORT $LN11@systemSave

; 55   : 		return Py_BuildException();
; 56   : 
; 57   : 	int ix;
; 58   : 	if (!PyTuple_GetInteger(poArgs, 3, &ix))

  00052	8d 45 f4	 lea	 eax, DWORD PTR _ix$[ebp]
  00055	50		 push	 eax
  00056	6a 03		 push	 3
  00058	56		 push	 esi
  00059	e8 00 00 00 00	 call	 ?PyTuple_GetInteger@@YA_NPAU_object@@HPAH@Z ; PyTuple_GetInteger
  0005e	83 c4 0c	 add	 esp, 12			; 0000000cH
  00061	84 c0		 test	 al, al
  00063	74 b8		 je	 SHORT $LN11@systemSave

; 59   : 		return Py_BuildException();
; 60   : 
; 61   : 	int iy;
; 62   : 	if (!PyTuple_GetInteger(poArgs, 4, &iy))

  00065	8d 45 f8	 lea	 eax, DWORD PTR _iy$[ebp]
  00068	50		 push	 eax
  00069	6a 04		 push	 4
  0006b	56		 push	 esi
  0006c	e8 00 00 00 00	 call	 ?PyTuple_GetInteger@@YA_NPAU_object@@HPAH@Z ; PyTuple_GetInteger
  00071	83 c4 0c	 add	 esp, 12			; 0000000cH
  00074	84 c0		 test	 al, al
  00076	74 a5		 je	 SHORT $LN11@systemSave

; 63   : 		return Py_BuildException();
; 64   : 
; 65   : 	int iHeight;
; 66   : 	if (!PyTuple_GetInteger(poArgs, 5, &iHeight))

  00078	8d 45 fc	 lea	 eax, DWORD PTR _iHeight$[ebp]
  0007b	50		 push	 eax
  0007c	6a 05		 push	 5
  0007e	56		 push	 esi
  0007f	e8 00 00 00 00	 call	 ?PyTuple_GetInteger@@YA_NPAU_object@@HPAH@Z ; PyTuple_GetInteger
  00084	83 c4 0c	 add	 esp, 12			; 0000000cH
  00087	84 c0		 test	 al, al
  00089	74 92		 je	 SHORT $LN11@systemSave

; 67   : 		return Py_BuildException();
; 68   : 
; 69   : 	CPythonSystem::Instance().SaveWindowStatus(iIndex, iVisible, iMinimized, ix, iy, iHeight);

  0008b	ff 75 fc	 push	 DWORD PTR _iHeight$[ebp]
  0008e	8b 0d 00 00 00
	00		 mov	 ecx, DWORD PTR ?ms_singleton@?$CSingleton@VCPythonSystem@@@@0PAVCPythonSystem@@A ; CSingleton<CPythonSystem>::ms_singleton
  00094	ff 75 f8	 push	 DWORD PTR _iy$[ebp]
  00097	ff 75 f4	 push	 DWORD PTR _ix$[ebp]
  0009a	ff 75 f0	 push	 DWORD PTR _iMinimized$[ebp]
  0009d	ff 75 ec	 push	 DWORD PTR _iVisible$[ebp]
  000a0	ff 75 e8	 push	 DWORD PTR _iIndex$[ebp]
  000a3	e8 00 00 00 00	 call	 ?SaveWindowStatus@CPythonSystem@@QAEXHHHHHH@Z ; CPythonSystem::SaveWindowStatus

; 70   : 	return Py_BuildNone();

  000a8	e8 00 00 00 00	 call	 ?Py_BuildNone@@YAPAU_object@@XZ ; Py_BuildNone
  000ad	5e		 pop	 esi

; 71   : }

  000ae	8b e5		 mov	 esp, ebp
  000b0	5d		 pop	 ebp
  000b1	c3		 ret	 0
?systemSaveWindowStatus@@YAPAU_object@@PAU1@0@Z ENDP	; systemSaveWindowStatus
_TEXT	ENDS
; Function compile flags: /Ogtp
; File d:\metin2\metin2\client_source_clean\client_source_clean\source\userinterface\pythonsystemmodule.cpp
;	COMDAT ?systemGetWindowStatus@@YAPAU_object@@PAU1@0@Z
_TEXT	SEGMENT
_iIndex$ = -4						; size = 4
_poSelf$ = 8						; size = 4
_poArgs$ = 12						; size = 4
?systemGetWindowStatus@@YAPAU_object@@PAU1@0@Z PROC	; systemGetWindowStatus, COMDAT

; 74   : {

  00000	55		 push	 ebp
  00001	8b ec		 mov	 ebp, esp
  00003	51		 push	 ecx

; 75   : 	int iIndex;
; 76   : 	if (!PyTuple_GetInteger(poArgs, 0, &iIndex))

  00004	8d 45 fc	 lea	 eax, DWORD PTR _iIndex$[ebp]
  00007	50		 push	 eax
  00008	6a 00		 push	 0
  0000a	ff 75 0c	 push	 DWORD PTR _poArgs$[ebp]
  0000d	e8 00 00 00 00	 call	 ?PyTuple_GetInteger@@YA_NPAU_object@@HPAH@Z ; PyTuple_GetInteger
  00012	83 c4 0c	 add	 esp, 12			; 0000000cH
  00015	84 c0		 test	 al, al
  00017	75 0e		 jne	 SHORT $LN1@systemGetW

; 77   : 		return Py_BuildException();

  00019	6a 00		 push	 0
  0001b	e8 00 00 00 00	 call	 ?Py_BuildException@@YAPAU_object@@PBDZZ ; Py_BuildException
  00020	83 c4 04	 add	 esp, 4

; 85   : }

  00023	8b e5		 mov	 esp, ebp
  00025	5d		 pop	 ebp
  00026	c3		 ret	 0
$LN1@systemGetW:

; 78   : 
; 79   : 	const CPythonSystem::TWindowStatus & c_rWindowStatus = CPythonSystem::Instance().GetWindowStatusReference(iIndex);

  00027	ff 75 fc	 push	 DWORD PTR _iIndex$[ebp]
  0002a	8b 0d 00 00 00
	00		 mov	 ecx, DWORD PTR ?ms_singleton@?$CSingleton@VCPythonSystem@@@@0PAVCPythonSystem@@A ; CSingleton<CPythonSystem>::ms_singleton
  00030	e8 00 00 00 00	 call	 ?GetWindowStatusReference@CPythonSystem@@QAEABUSWindowStatus@1@H@Z ; CPythonSystem::GetWindowStatusReference

; 80   : 	return Py_BuildValue("iiiii", c_rWindowStatus.isVisible,
; 81   : 								  c_rWindowStatus.isMinimized,
; 82   : 								  c_rWindowStatus.ixPosition,
; 83   : 								  c_rWindowStatus.iyPosition,
; 84   : 								  c_rWindowStatus.iHeight);

  00035	ff 70 10	 push	 DWORD PTR [eax+16]
  00038	ff 70 0c	 push	 DWORD PTR [eax+12]
  0003b	ff 70 08	 push	 DWORD PTR [eax+8]
  0003e	ff 70 04	 push	 DWORD PTR [eax+4]
  00041	ff 30		 push	 DWORD PTR [eax]
  00043	68 00 00 00 00	 push	 OFFSET ??_C@_05EAPDINDK@iiiii?$AA@
  00048	ff 15 00 00 00
	00		 call	 DWORD PTR __imp__Py_BuildValue
  0004e	83 c4 18	 add	 esp, 24			; 00000018H

; 85   : }

  00051	8b e5		 mov	 esp, ebp
  00053	5d		 pop	 ebp
  00054	c3		 ret	 0
?systemGetWindowStatus@@YAPAU_object@@PAU1@0@Z ENDP	; systemGetWindowStatus
_TEXT	ENDS
; Function compile flags: /Ogtp
; File d:\metin2\metin2\client_source_clean\client_source_clean\source\userinterface\pythonsystemmodule.cpp
;	COMDAT ?systemGetConfig@@YAPAU_object@@PAU1@0@Z
_TEXT	SEGMENT
_poSelf$ = 8						; size = 4
_poArgs$ = 12						; size = 4
?systemGetConfig@@YAPAU_object@@PAU1@0@Z PROC		; systemGetConfig, COMDAT

; 88   : {

  00000	53		 push	 ebx
  00001	56		 push	 esi

; 89   : 	CPythonSystem::TConfig *tmp = CPythonSystem::Instance().GetConfig();

  00002	8b 35 00 00 00
	00		 mov	 esi, DWORD PTR ?ms_singleton@?$CSingleton@VCPythonSystem@@@@0PAVCPythonSystem@@A ; CSingleton<CPythonSystem>::ms_singleton
  00008	8b ce		 mov	 ecx, esi
  0000a	57		 push	 edi
  0000b	e8 00 00 00 00	 call	 ?GetConfig@CPythonSystem@@QAEPAUSConfig@1@XZ ; CPythonSystem::GetConfig
  00010	8b d8		 mov	 ebx, eax

; 90   : 
; 91   : 	int iRes = CPythonSystem::Instance().GetResolutionIndex(tmp->width, tmp->height, tmp->bpp);

  00012	ff 73 08	 push	 DWORD PTR [ebx+8]
  00015	ff 73 04	 push	 DWORD PTR [ebx+4]
  00018	ff 33		 push	 DWORD PTR [ebx]
  0001a	e8 00 00 00 00	 call	 ?GetResolutionIndex@CPythonSystem@@QAEHKKK@Z ; CPythonSystem::GetResolutionIndex

; 92   : 	int iFrequency = CPythonSystem::Instance().GetFrequencyIndex(iRes, tmp->frequency);

  0001f	ff 73 0c	 push	 DWORD PTR [ebx+12]
  00022	8b f8		 mov	 edi, eax
  00024	8b ce		 mov	 ecx, esi
  00026	57		 push	 edi
  00027	e8 00 00 00 00	 call	 ?GetFrequencyIndex@CPythonSystem@@QAEHHK@Z ; CPythonSystem::GetFrequencyIndex

; 93   : 
; 94   : 	return Py_BuildValue("iiiiiiii",  iRes,
; 95   : 									  iFrequency,
; 96   : 									  tmp->is_software_cursor,
; 97   : 									  tmp->is_object_culling,
; 98   : 									  tmp->music_volume,
; 99   : 									  tmp->voice_volume,
; 100  : 									  tmp->gamma,
; 101  : 									  tmp->iDistance);

  0002c	ff 73 14	 push	 DWORD PTR [ebx+20]
  0002f	f3 0f 10 43 1c	 movss	 xmm0, DWORD PTR [ebx+28]
  00034	8b d0		 mov	 edx, eax
  00036	ff 73 24	 push	 DWORD PTR [ebx+36]
  00039	0f b6 4b 20	 movzx	 ecx, BYTE PTR [ebx+32]
  0003d	0f b6 43 11	 movzx	 eax, BYTE PTR [ebx+17]
  00041	51		 push	 ecx
  00042	83 ec 08	 sub	 esp, 8
  00045	0f 5a c0	 cvtps2pd xmm0, xmm0
  00048	f2 0f 11 04 24	 movsd	 QWORD PTR [esp], xmm0
  0004d	50		 push	 eax
  0004e	0f b6 43 10	 movzx	 eax, BYTE PTR [ebx+16]
  00052	50		 push	 eax
  00053	52		 push	 edx
  00054	57		 push	 edi
  00055	68 00 00 00 00	 push	 OFFSET ??_C@_08DGHCLNGO@iiiiiiii?$AA@
  0005a	ff 15 00 00 00
	00		 call	 DWORD PTR __imp__Py_BuildValue
  00060	83 c4 28	 add	 esp, 40			; 00000028H
  00063	5f		 pop	 edi
  00064	5e		 pop	 esi
  00065	5b		 pop	 ebx

; 102  : }

  00066	c3		 ret	 0
?systemGetConfig@@YAPAU_object@@PAU1@0@Z ENDP		; systemGetConfig
_TEXT	ENDS
; Function compile flags: /Ogtp
; File d:\metin2\metin2\client_source_clean\client_source_clean\source\userinterface\pythonsystemmodule.cpp
;	COMDAT ?systemSetSaveID@@YAPAU_object@@PAU1@0@Z
_TEXT	SEGMENT
_iValue$ = -8						; size = 4
_szSaveID$ = -4						; size = 4
_poSelf$ = 8						; size = 4
_poArgs$ = 12						; size = 4
?systemSetSaveID@@YAPAU_object@@PAU1@0@Z PROC		; systemSetSaveID, COMDAT

; 105  : {

  00000	55		 push	 ebp
  00001	8b ec		 mov	 ebp, esp
  00003	83 ec 08	 sub	 esp, 8

; 106  : 	int iValue;
; 107  : 	if (!PyTuple_GetInteger(poArgs, 0, &iValue))

  00006	8d 45 f8	 lea	 eax, DWORD PTR _iValue$[ebp]
  00009	50		 push	 eax
  0000a	6a 00		 push	 0
  0000c	ff 75 0c	 push	 DWORD PTR _poArgs$[ebp]
  0000f	e8 00 00 00 00	 call	 ?PyTuple_GetInteger@@YA_NPAU_object@@HPAH@Z ; PyTuple_GetInteger
  00014	83 c4 0c	 add	 esp, 12			; 0000000cH
  00017	84 c0		 test	 al, al
  00019	75 0e		 jne	 SHORT $LN2@systemSetS
$LN7@systemSetS:

; 108  : 		return Py_BuildException();

  0001b	6a 00		 push	 0
  0001d	e8 00 00 00 00	 call	 ?Py_BuildException@@YAPAU_object@@PBDZZ ; Py_BuildException
  00022	83 c4 04	 add	 esp, 4

; 116  : }

  00025	8b e5		 mov	 esp, ebp
  00027	5d		 pop	 ebp
  00028	c3		 ret	 0
$LN2@systemSetS:

; 109  : 
; 110  : 	char * szSaveID;
; 111  : 	if (!PyTuple_GetString(poArgs, 1, &szSaveID))

  00029	8d 45 fc	 lea	 eax, DWORD PTR _szSaveID$[ebp]
  0002c	50		 push	 eax
  0002d	6a 01		 push	 1
  0002f	ff 75 0c	 push	 DWORD PTR _poArgs$[ebp]
  00032	e8 00 00 00 00	 call	 ?PyTuple_GetString@@YA_NPAU_object@@HPAPAD@Z ; PyTuple_GetString
  00037	83 c4 0c	 add	 esp, 12			; 0000000cH
  0003a	84 c0		 test	 al, al
  0003c	74 dd		 je	 SHORT $LN7@systemSetS

; 112  : 		return Py_BuildException();
; 113  : 
; 114  : 	CPythonSystem::Instance().SetSaveID(iValue, szSaveID);

  0003e	ff 75 fc	 push	 DWORD PTR _szSaveID$[ebp]
  00041	8b 0d 00 00 00
	00		 mov	 ecx, DWORD PTR ?ms_singleton@?$CSingleton@VCPythonSystem@@@@0PAVCPythonSystem@@A ; CSingleton<CPythonSystem>::ms_singleton
  00047	ff 75 f8	 push	 DWORD PTR _iValue$[ebp]
  0004a	e8 00 00 00 00	 call	 ?SetSaveID@CPythonSystem@@QAEXHPBD@Z ; CPythonSystem::SetSaveID

; 115  : 	return Py_BuildNone();

  0004f	e8 00 00 00 00	 call	 ?Py_BuildNone@@YAPAU_object@@XZ ; Py_BuildNone

; 116  : }

  00054	8b e5		 mov	 esp, ebp
  00056	5d		 pop	 ebp
  00057	c3		 ret	 0
?systemSetSaveID@@YAPAU_object@@PAU1@0@Z ENDP		; systemSetSaveID
_TEXT	ENDS
; Function compile flags: /Ogtp
; File d:\metin2\metin2\client_source_clean\client_source_clean\source\userinterface\pythonsystemmodule.cpp
;	COMDAT ?systemisSaveID@@YAPAU_object@@PAU1@0@Z
_TEXT	SEGMENT
_poSelf$ = 8						; size = 4
_poArgs$ = 12						; size = 4
?systemisSaveID@@YAPAU_object@@PAU1@0@Z PROC		; systemisSaveID, COMDAT

; 120  : 	int value = CPythonSystem::Instance().IsSaveID();

  00000	8b 0d 00 00 00
	00		 mov	 ecx, DWORD PTR ?ms_singleton@?$CSingleton@VCPythonSystem@@@@0PAVCPythonSystem@@A ; CSingleton<CPythonSystem>::ms_singleton
  00006	e8 00 00 00 00	 call	 ?IsSaveID@CPythonSystem@@QAEHXZ ; CPythonSystem::IsSaveID

; 121  : 	return Py_BuildValue("i", value);

  0000b	50		 push	 eax
  0000c	68 00 00 00 00	 push	 OFFSET ??_C@_01KBJDNOO@i?$AA@
  00011	ff 15 00 00 00
	00		 call	 DWORD PTR __imp__Py_BuildValue
  00017	83 c4 08	 add	 esp, 8

; 122  : }

  0001a	c3		 ret	 0
?systemisSaveID@@YAPAU_object@@PAU1@0@Z ENDP		; systemisSaveID
_TEXT	ENDS
; Function compile flags: /Ogtp
; File d:\metin2\metin2\client_source_clean\client_source_clean\source\userinterface\pythonsystemmodule.cpp
;	COMDAT ?systemGetSaveID@@YAPAU_object@@PAU1@0@Z
_TEXT	SEGMENT
_poSelf$ = 8						; size = 4
_poArgs$ = 12						; size = 4
?systemGetSaveID@@YAPAU_object@@PAU1@0@Z PROC		; systemGetSaveID, COMDAT

; 126  : 	const char * c_szSaveID = CPythonSystem::Instance().GetSaveID();

  00000	8b 0d 00 00 00
	00		 mov	 ecx, DWORD PTR ?ms_singleton@?$CSingleton@VCPythonSystem@@@@0PAVCPythonSystem@@A ; CSingleton<CPythonSystem>::ms_singleton
  00006	e8 00 00 00 00	 call	 ?GetSaveID@CPythonSystem@@QAEPBDXZ ; CPythonSystem::GetSaveID

; 127  : 	return Py_BuildValue("s", c_szSaveID);

  0000b	50		 push	 eax
  0000c	68 00 00 00 00	 push	 OFFSET ??_C@_01LKDEMHDF@s?$AA@
  00011	ff 15 00 00 00
	00		 call	 DWORD PTR __imp__Py_BuildValue
  00017	83 c4 08	 add	 esp, 8

; 128  : }

  0001a	c3		 ret	 0
?systemGetSaveID@@YAPAU_object@@PAU1@0@Z ENDP		; systemGetSaveID
_TEXT	ENDS
; Function compile flags: /Ogtp
; File d:\metin2\metin2\client_source_clean\client_source_clean\source\userinterface\pythonsystemmodule.cpp
;	COMDAT ?systemGetMusicVolume@@YAPAU_object@@PAU1@0@Z
_TEXT	SEGMENT
_poSelf$ = 8						; size = 4
_poArgs$ = 12						; size = 4
?systemGetMusicVolume@@YAPAU_object@@PAU1@0@Z PROC	; systemGetMusicVolume, COMDAT

; 132  : 	return Py_BuildValue("f", CPythonSystem::Instance().GetMusicVolume());

  00000	8b 0d 00 00 00
	00		 mov	 ecx, DWORD PTR ?ms_singleton@?$CSingleton@VCPythonSystem@@@@0PAVCPythonSystem@@A ; CSingleton<CPythonSystem>::ms_singleton
  00006	e8 00 00 00 00	 call	 ?GetMusicVolume@CPythonSystem@@QAEMXZ ; CPythonSystem::GetMusicVolume
  0000b	f3 0f 5a c0	 cvtss2sd xmm0, xmm0
  0000f	83 ec 08	 sub	 esp, 8
  00012	f2 0f 11 04 24	 movsd	 QWORD PTR [esp], xmm0
  00017	68 00 00 00 00	 push	 OFFSET ??_C@_01INIBCBCB@f?$AA@
  0001c	ff 15 00 00 00
	00		 call	 DWORD PTR __imp__Py_BuildValue
  00022	83 c4 0c	 add	 esp, 12			; 0000000cH

; 133  : }

  00025	c3		 ret	 0
?systemGetMusicVolume@@YAPAU_object@@PAU1@0@Z ENDP	; systemGetMusicVolume
_TEXT	ENDS
; Function compile flags: /Ogtp
; File d:\metin2\metin2\client_source_clean\client_source_clean\source\userinterface\pythonsystemmodule.cpp
;	COMDAT ?systemGetSoundVolume@@YAPAU_object@@PAU1@0@Z
_TEXT	SEGMENT
_poSelf$ = 8						; size = 4
_poArgs$ = 12						; size = 4
?systemGetSoundVolume@@YAPAU_object@@PAU1@0@Z PROC	; systemGetSoundVolume, COMDAT

; 137  : 	return Py_BuildValue("i", CPythonSystem::Instance().GetSoundVolume());

  00000	8b 0d 00 00 00
	00		 mov	 ecx, DWORD PTR ?ms_singleton@?$CSingleton@VCPythonSystem@@@@0PAVCPythonSystem@@A ; CSingleton<CPythonSystem>::ms_singleton
  00006	e8 00 00 00 00	 call	 ?GetSoundVolume@CPythonSystem@@QAEHXZ ; CPythonSystem::GetSoundVolume
  0000b	50		 push	 eax
  0000c	68 00 00 00 00	 push	 OFFSET ??_C@_01KBJDNOO@i?$AA@
  00011	ff 15 00 00 00
	00		 call	 DWORD PTR __imp__Py_BuildValue
  00017	83 c4 08	 add	 esp, 8

; 138  : }

  0001a	c3		 ret	 0
?systemGetSoundVolume@@YAPAU_object@@PAU1@0@Z ENDP	; systemGetSoundVolume
_TEXT	ENDS
; Function compile flags: /Ogtp
; File d:\metin2\metin2\client_source_clean\client_source_clean\source\userinterface\pythonsystemmodule.cpp
;	COMDAT ?systemSetMusicVolume@@YAPAU_object@@PAU1@0@Z
_TEXT	SEGMENT
_fVolume$ = -4						; size = 4
_poSelf$ = 8						; size = 4
_poArgs$ = 12						; size = 4
?systemSetMusicVolume@@YAPAU_object@@PAU1@0@Z PROC	; systemSetMusicVolume, COMDAT

; 141  : {

  00000	55		 push	 ebp
  00001	8b ec		 mov	 ebp, esp
  00003	51		 push	 ecx

; 142  : 	float fVolume;
; 143  : 	if (!PyTuple_GetFloat(poArgs, 0, &fVolume))

  00004	8d 45 fc	 lea	 eax, DWORD PTR _fVolume$[ebp]
  00007	50		 push	 eax
  00008	6a 00		 push	 0
  0000a	ff 75 0c	 push	 DWORD PTR _poArgs$[ebp]
  0000d	e8 00 00 00 00	 call	 ?PyTuple_GetFloat@@YA_NPAU_object@@HPAM@Z ; PyTuple_GetFloat
  00012	83 c4 0c	 add	 esp, 12			; 0000000cH
  00015	84 c0		 test	 al, al
  00017	75 0e		 jne	 SHORT $LN1@systemSetM

; 144  : 		return Py_BuildException();

  00019	6a 00		 push	 0
  0001b	e8 00 00 00 00	 call	 ?Py_BuildException@@YAPAU_object@@PBDZZ ; Py_BuildException
  00020	83 c4 04	 add	 esp, 4

; 148  : }

  00023	8b e5		 mov	 esp, ebp
  00025	5d		 pop	 ebp
  00026	c3		 ret	 0
$LN1@systemSetM:

; 145  : 
; 146  : 	CPythonSystem::Instance().SetMusicVolume(fVolume);

  00027	f3 0f 10 4d fc	 movss	 xmm1, DWORD PTR _fVolume$[ebp]
  0002c	8b 0d 00 00 00
	00		 mov	 ecx, DWORD PTR ?ms_singleton@?$CSingleton@VCPythonSystem@@@@0PAVCPythonSystem@@A ; CSingleton<CPythonSystem>::ms_singleton
  00032	e8 00 00 00 00	 call	 ?SetMusicVolume@CPythonSystem@@QAEXM@Z ; CPythonSystem::SetMusicVolume

; 147  : 	return Py_BuildNone();

  00037	e8 00 00 00 00	 call	 ?Py_BuildNone@@YAPAU_object@@XZ ; Py_BuildNone

; 148  : }

  0003c	8b e5		 mov	 esp, ebp
  0003e	5d		 pop	 ebp
  0003f	c3		 ret	 0
?systemSetMusicVolume@@YAPAU_object@@PAU1@0@Z ENDP	; systemSetMusicVolume
_TEXT	ENDS
; Function compile flags: /Ogtp
; File d:\metin2\metin2\client_source_clean\client_source_clean\source\userinterface\pythonsystemmodule.cpp
;	COMDAT ?systemSetSoundVolumef@@YAPAU_object@@PAU1@0@Z
_TEXT	SEGMENT
_fVolume$ = -4						; size = 4
_poSelf$ = 8						; size = 4
_poArgs$ = 12						; size = 4
?systemSetSoundVolumef@@YAPAU_object@@PAU1@0@Z PROC	; systemSetSoundVolumef, COMDAT

; 151  : {

  00000	55		 push	 ebp
  00001	8b ec		 mov	 ebp, esp
  00003	51		 push	 ecx

; 152  : 	float fVolume;
; 153  : 	if (!PyTuple_GetFloat(poArgs, 0, &fVolume))

  00004	8d 45 fc	 lea	 eax, DWORD PTR _fVolume$[ebp]
  00007	50		 push	 eax
  00008	6a 00		 push	 0
  0000a	ff 75 0c	 push	 DWORD PTR _poArgs$[ebp]
  0000d	e8 00 00 00 00	 call	 ?PyTuple_GetFloat@@YA_NPAU_object@@HPAM@Z ; PyTuple_GetFloat
  00012	83 c4 0c	 add	 esp, 12			; 0000000cH
  00015	84 c0		 test	 al, al
  00017	75 0e		 jne	 SHORT $LN1@systemSetS

; 154  : 		return Py_BuildException();

  00019	6a 00		 push	 0
  0001b	e8 00 00 00 00	 call	 ?Py_BuildException@@YAPAU_object@@PBDZZ ; Py_BuildException
  00020	83 c4 04	 add	 esp, 4

; 158  : }

  00023	8b e5		 mov	 esp, ebp
  00025	5d		 pop	 ebp
  00026	c3		 ret	 0
$LN1@systemSetS:

; 155  : 
; 156  : 	CPythonSystem::Instance().SetSoundVolumef(fVolume);

  00027	f3 0f 10 4d fc	 movss	 xmm1, DWORD PTR _fVolume$[ebp]
  0002c	8b 0d 00 00 00
	00		 mov	 ecx, DWORD PTR ?ms_singleton@?$CSingleton@VCPythonSystem@@@@0PAVCPythonSystem@@A ; CSingleton<CPythonSystem>::ms_singleton
  00032	e8 00 00 00 00	 call	 ?SetSoundVolumef@CPythonSystem@@QAEXM@Z ; CPythonSystem::SetSoundVolumef

; 157  : 	return Py_BuildNone();

  00037	e8 00 00 00 00	 call	 ?Py_BuildNone@@YAPAU_object@@XZ ; Py_BuildNone

; 158  : }

  0003c	8b e5		 mov	 esp, ebp
  0003e	5d		 pop	 ebp
  0003f	c3		 ret	 0
?systemSetSoundVolumef@@YAPAU_object@@PAU1@0@Z ENDP	; systemSetSoundVolumef
_TEXT	ENDS
; Function compile flags: /Ogtp
; File d:\metin2\metin2\client_source_clean\client_source_clean\source\userinterface\pythonsystemmodule.cpp
;	COMDAT ?systemIsSoftwareCursor@@YAPAU_object@@PAU1@0@Z
_TEXT	SEGMENT
_poSelf$ = 8						; size = 4
_poArgs$ = 12						; size = 4
?systemIsSoftwareCursor@@YAPAU_object@@PAU1@0@Z PROC	; systemIsSoftwareCursor, COMDAT

; 162  : 	return Py_BuildValue("i", CPythonSystem::Instance().IsSoftwareCursor());

  00000	8b 0d 00 00 00
	00		 mov	 ecx, DWORD PTR ?ms_singleton@?$CSingleton@VCPythonSystem@@@@0PAVCPythonSystem@@A ; CSingleton<CPythonSystem>::ms_singleton
  00006	e8 00 00 00 00	 call	 ?IsSoftwareCursor@CPythonSystem@@QAE_NXZ ; CPythonSystem::IsSoftwareCursor
  0000b	0f b6 c0	 movzx	 eax, al
  0000e	50		 push	 eax
  0000f	68 00 00 00 00	 push	 OFFSET ??_C@_01KBJDNOO@i?$AA@
  00014	ff 15 00 00 00
	00		 call	 DWORD PTR __imp__Py_BuildValue
  0001a	83 c4 08	 add	 esp, 8

; 163  : }

  0001d	c3		 ret	 0
?systemIsSoftwareCursor@@YAPAU_object@@PAU1@0@Z ENDP	; systemIsSoftwareCursor
_TEXT	ENDS
; Function compile flags: /Ogtp
; File d:\metin2\metin2\client_source_clean\client_source_clean\source\userinterface\pythonsystemmodule.cpp
;	COMDAT ?systemSetViewChatFlag@@YAPAU_object@@PAU1@0@Z
_TEXT	SEGMENT
_iFlag$ = -4						; size = 4
_poSelf$ = 8						; size = 4
_poArgs$ = 12						; size = 4
?systemSetViewChatFlag@@YAPAU_object@@PAU1@0@Z PROC	; systemSetViewChatFlag, COMDAT

; 166  : {

  00000	55		 push	 ebp
  00001	8b ec		 mov	 ebp, esp
  00003	51		 push	 ecx

; 167  : 	int iFlag;
; 168  : 	if (!PyTuple_GetInteger(poArgs, 0, &iFlag))

  00004	8d 45 fc	 lea	 eax, DWORD PTR _iFlag$[ebp]
  00007	50		 push	 eax
  00008	6a 00		 push	 0
  0000a	ff 75 0c	 push	 DWORD PTR _poArgs$[ebp]
  0000d	e8 00 00 00 00	 call	 ?PyTuple_GetInteger@@YA_NPAU_object@@HPAH@Z ; PyTuple_GetInteger
  00012	83 c4 0c	 add	 esp, 12			; 0000000cH
  00015	84 c0		 test	 al, al
  00017	75 0e		 jne	 SHORT $LN1@systemSetV

; 169  : 		return Py_BuildException();

  00019	6a 00		 push	 0
  0001b	e8 00 00 00 00	 call	 ?Py_BuildException@@YAPAU_object@@PBDZZ ; Py_BuildException
  00020	83 c4 04	 add	 esp, 4

; 174  : }

  00023	8b e5		 mov	 esp, ebp
  00025	5d		 pop	 ebp
  00026	c3		 ret	 0
$LN1@systemSetV:

; 170  : 
; 171  : 	CPythonSystem::Instance().SetViewChatFlag(iFlag);

  00027	ff 75 fc	 push	 DWORD PTR _iFlag$[ebp]
  0002a	8b 0d 00 00 00
	00		 mov	 ecx, DWORD PTR ?ms_singleton@?$CSingleton@VCPythonSystem@@@@0PAVCPythonSystem@@A ; CSingleton<CPythonSystem>::ms_singleton
  00030	e8 00 00 00 00	 call	 ?SetViewChatFlag@CPythonSystem@@QAEXH@Z ; CPythonSystem::SetViewChatFlag

; 172  : 
; 173  : 	return Py_BuildNone();

  00035	e8 00 00 00 00	 call	 ?Py_BuildNone@@YAPAU_object@@XZ ; Py_BuildNone

; 174  : }

  0003a	8b e5		 mov	 esp, ebp
  0003c	5d		 pop	 ebp
  0003d	c3		 ret	 0
?systemSetViewChatFlag@@YAPAU_object@@PAU1@0@Z ENDP	; systemSetViewChatFlag
_TEXT	ENDS
; Function compile flags: /Ogtp
; File d:\metin2\metin2\client_source_clean\client_source_clean\source\userinterface\pythonsystemmodule.cpp
;	COMDAT ?systemIsViewChat@@YAPAU_object@@PAU1@0@Z
_TEXT	SEGMENT
_poSelf$ = 8						; size = 4
_poArgs$ = 12						; size = 4
?systemIsViewChat@@YAPAU_object@@PAU1@0@Z PROC		; systemIsViewChat, COMDAT

; 178  : 	return Py_BuildValue("i", CPythonSystem::Instance().IsViewChat());

  00000	8b 0d 00 00 00
	00		 mov	 ecx, DWORD PTR ?ms_singleton@?$CSingleton@VCPythonSystem@@@@0PAVCPythonSystem@@A ; CSingleton<CPythonSystem>::ms_singleton
  00006	e8 00 00 00 00	 call	 ?IsViewChat@CPythonSystem@@QAE_NXZ ; CPythonSystem::IsViewChat
  0000b	0f b6 c0	 movzx	 eax, al
  0000e	50		 push	 eax
  0000f	68 00 00 00 00	 push	 OFFSET ??_C@_01KBJDNOO@i?$AA@
  00014	ff 15 00 00 00
	00		 call	 DWORD PTR __imp__Py_BuildValue
  0001a	83 c4 08	 add	 esp, 8

; 179  : }

  0001d	c3		 ret	 0
?systemIsViewChat@@YAPAU_object@@PAU1@0@Z ENDP		; systemIsViewChat
_TEXT	ENDS
; Function compile flags: /Ogtp
; File d:\metin2\metin2\client_source_clean\client_source_clean\source\userinterface\pythonsystemmodule.cpp
;	COMDAT ?systemSetAlwaysShowNameFlag@@YAPAU_object@@PAU1@0@Z
_TEXT	SEGMENT
_iFlag$ = -4						; size = 4
_poSelf$ = 8						; size = 4
_poArgs$ = 12						; size = 4
?systemSetAlwaysShowNameFlag@@YAPAU_object@@PAU1@0@Z PROC ; systemSetAlwaysShowNameFlag, COMDAT

; 182  : {

  00000	55		 push	 ebp
  00001	8b ec		 mov	 ebp, esp
  00003	51		 push	 ecx

; 183  : 	int iFlag;
; 184  : 	if (!PyTuple_GetInteger(poArgs, 0, &iFlag))

  00004	8d 45 fc	 lea	 eax, DWORD PTR _iFlag$[ebp]
  00007	50		 push	 eax
  00008	6a 00		 push	 0
  0000a	ff 75 0c	 push	 DWORD PTR _poArgs$[ebp]
  0000d	e8 00 00 00 00	 call	 ?PyTuple_GetInteger@@YA_NPAU_object@@HPAH@Z ; PyTuple_GetInteger
  00012	83 c4 0c	 add	 esp, 12			; 0000000cH
  00015	84 c0		 test	 al, al
  00017	75 0e		 jne	 SHORT $LN1@systemSetA

; 185  : 		return Py_BuildException();

  00019	6a 00		 push	 0
  0001b	e8 00 00 00 00	 call	 ?Py_BuildException@@YAPAU_object@@PBDZZ ; Py_BuildException
  00020	83 c4 04	 add	 esp, 4

; 190  : }

  00023	8b e5		 mov	 esp, ebp
  00025	5d		 pop	 ebp
  00026	c3		 ret	 0
$LN1@systemSetA:

; 186  : 
; 187  : 	CPythonSystem::Instance().SetAlwaysShowNameFlag(iFlag);

  00027	ff 75 fc	 push	 DWORD PTR _iFlag$[ebp]
  0002a	8b 0d 00 00 00
	00		 mov	 ecx, DWORD PTR ?ms_singleton@?$CSingleton@VCPythonSystem@@@@0PAVCPythonSystem@@A ; CSingleton<CPythonSystem>::ms_singleton
  00030	e8 00 00 00 00	 call	 ?SetAlwaysShowNameFlag@CPythonSystem@@QAEXH@Z ; CPythonSystem::SetAlwaysShowNameFlag

; 188  : 
; 189  : 	return Py_BuildNone();

  00035	e8 00 00 00 00	 call	 ?Py_BuildNone@@YAPAU_object@@XZ ; Py_BuildNone

; 190  : }

  0003a	8b e5		 mov	 esp, ebp
  0003c	5d		 pop	 ebp
  0003d	c3		 ret	 0
?systemSetAlwaysShowNameFlag@@YAPAU_object@@PAU1@0@Z ENDP ; systemSetAlwaysShowNameFlag
_TEXT	ENDS
; Function compile flags: /Ogtp
; File d:\metin2\metin2\client_source_clean\client_source_clean\source\userinterface\pythonsystemmodule.cpp
;	COMDAT ?systemSetShowDamageFlag@@YAPAU_object@@PAU1@0@Z
_TEXT	SEGMENT
_iFlag$ = -4						; size = 4
_poSelf$ = 8						; size = 4
_poArgs$ = 12						; size = 4
?systemSetShowDamageFlag@@YAPAU_object@@PAU1@0@Z PROC	; systemSetShowDamageFlag, COMDAT

; 193  : {

  00000	55		 push	 ebp
  00001	8b ec		 mov	 ebp, esp
  00003	51		 push	 ecx

; 194  : 	int iFlag;
; 195  : 	if (!PyTuple_GetInteger(poArgs, 0, &iFlag))

  00004	8d 45 fc	 lea	 eax, DWORD PTR _iFlag$[ebp]
  00007	50		 push	 eax
  00008	6a 00		 push	 0
  0000a	ff 75 0c	 push	 DWORD PTR _poArgs$[ebp]
  0000d	e8 00 00 00 00	 call	 ?PyTuple_GetInteger@@YA_NPAU_object@@HPAH@Z ; PyTuple_GetInteger
  00012	83 c4 0c	 add	 esp, 12			; 0000000cH
  00015	84 c0		 test	 al, al
  00017	75 0e		 jne	 SHORT $LN1@systemSetS

; 196  : 		return Py_BuildException();

  00019	6a 00		 push	 0
  0001b	e8 00 00 00 00	 call	 ?Py_BuildException@@YAPAU_object@@PBDZZ ; Py_BuildException
  00020	83 c4 04	 add	 esp, 4

; 201  : }

  00023	8b e5		 mov	 esp, ebp
  00025	5d		 pop	 ebp
  00026	c3		 ret	 0
$LN1@systemSetS:

; 197  : 
; 198  : 	CPythonSystem::Instance().SetShowDamageFlag(iFlag);

  00027	ff 75 fc	 push	 DWORD PTR _iFlag$[ebp]
  0002a	8b 0d 00 00 00
	00		 mov	 ecx, DWORD PTR ?ms_singleton@?$CSingleton@VCPythonSystem@@@@0PAVCPythonSystem@@A ; CSingleton<CPythonSystem>::ms_singleton
  00030	e8 00 00 00 00	 call	 ?SetShowDamageFlag@CPythonSystem@@QAEXH@Z ; CPythonSystem::SetShowDamageFlag

; 199  : 
; 200  : 	return Py_BuildNone();

  00035	e8 00 00 00 00	 call	 ?Py_BuildNone@@YAPAU_object@@XZ ; Py_BuildNone

; 201  : }

  0003a	8b e5		 mov	 esp, ebp
  0003c	5d		 pop	 ebp
  0003d	c3		 ret	 0
?systemSetShowDamageFlag@@YAPAU_object@@PAU1@0@Z ENDP	; systemSetShowDamageFlag
_TEXT	ENDS
; Function compile flags: /Ogtp
; File d:\metin2\metin2\client_source_clean\client_source_clean\source\userinterface\pythonsystemmodule.cpp
;	COMDAT ?systemSetShowSalesTextFlag@@YAPAU_object@@PAU1@0@Z
_TEXT	SEGMENT
_iFlag$ = -4						; size = 4
_poSelf$ = 8						; size = 4
_poArgs$ = 12						; size = 4
?systemSetShowSalesTextFlag@@YAPAU_object@@PAU1@0@Z PROC ; systemSetShowSalesTextFlag, COMDAT

; 204  : {

  00000	55		 push	 ebp
  00001	8b ec		 mov	 ebp, esp
  00003	51		 push	 ecx

; 205  : 	int iFlag;
; 206  : 	if (!PyTuple_GetInteger(poArgs, 0, &iFlag))

  00004	8d 45 fc	 lea	 eax, DWORD PTR _iFlag$[ebp]
  00007	50		 push	 eax
  00008	6a 00		 push	 0
  0000a	ff 75 0c	 push	 DWORD PTR _poArgs$[ebp]
  0000d	e8 00 00 00 00	 call	 ?PyTuple_GetInteger@@YA_NPAU_object@@HPAH@Z ; PyTuple_GetInteger
  00012	83 c4 0c	 add	 esp, 12			; 0000000cH
  00015	84 c0		 test	 al, al
  00017	75 0e		 jne	 SHORT $LN1@systemSetS

; 207  : 		return Py_BuildException();

  00019	6a 00		 push	 0
  0001b	e8 00 00 00 00	 call	 ?Py_BuildException@@YAPAU_object@@PBDZZ ; Py_BuildException
  00020	83 c4 04	 add	 esp, 4

; 212  : }

  00023	8b e5		 mov	 esp, ebp
  00025	5d		 pop	 ebp
  00026	c3		 ret	 0
$LN1@systemSetS:

; 208  : 
; 209  : 	CPythonSystem::Instance().SetShowSalesTextFlag(iFlag);

  00027	ff 75 fc	 push	 DWORD PTR _iFlag$[ebp]
  0002a	8b 0d 00 00 00
	00		 mov	 ecx, DWORD PTR ?ms_singleton@?$CSingleton@VCPythonSystem@@@@0PAVCPythonSystem@@A ; CSingleton<CPythonSystem>::ms_singleton
  00030	e8 00 00 00 00	 call	 ?SetShowSalesTextFlag@CPythonSystem@@QAEXH@Z ; CPythonSystem::SetShowSalesTextFlag

; 210  : 
; 211  : 	return Py_BuildNone();

  00035	e8 00 00 00 00	 call	 ?Py_BuildNone@@YAPAU_object@@XZ ; Py_BuildNone

; 212  : }

  0003a	8b e5		 mov	 esp, ebp
  0003c	5d		 pop	 ebp
  0003d	c3		 ret	 0
?systemSetShowSalesTextFlag@@YAPAU_object@@PAU1@0@Z ENDP ; systemSetShowSalesTextFlag
_TEXT	ENDS
; Function compile flags: /Ogtp
; File d:\metin2\metin2\client_source_clean\client_source_clean\source\userinterface\pythonsystemmodule.cpp
;	COMDAT ?systemIsAlwaysShowName@@YAPAU_object@@PAU1@0@Z
_TEXT	SEGMENT
_poSelf$ = 8						; size = 4
_poArgs$ = 12						; size = 4
?systemIsAlwaysShowName@@YAPAU_object@@PAU1@0@Z PROC	; systemIsAlwaysShowName, COMDAT

; 216  : 	return Py_BuildValue("i", CPythonSystem::Instance().IsAlwaysShowName());

  00000	8b 0d 00 00 00
	00		 mov	 ecx, DWORD PTR ?ms_singleton@?$CSingleton@VCPythonSystem@@@@0PAVCPythonSystem@@A ; CSingleton<CPythonSystem>::ms_singleton
  00006	e8 00 00 00 00	 call	 ?IsAlwaysShowName@CPythonSystem@@QAE_NXZ ; CPythonSystem::IsAlwaysShowName
  0000b	0f b6 c0	 movzx	 eax, al
  0000e	50		 push	 eax
  0000f	68 00 00 00 00	 push	 OFFSET ??_C@_01KBJDNOO@i?$AA@
  00014	ff 15 00 00 00
	00		 call	 DWORD PTR __imp__Py_BuildValue
  0001a	83 c4 08	 add	 esp, 8

; 217  : }

  0001d	c3		 ret	 0
?systemIsAlwaysShowName@@YAPAU_object@@PAU1@0@Z ENDP	; systemIsAlwaysShowName
_TEXT	ENDS
; Function compile flags: /Ogtp
; File d:\metin2\metin2\client_source_clean\client_source_clean\source\userinterface\pythonsystemmodule.cpp
;	COMDAT ?systemIsShowDamage@@YAPAU_object@@PAU1@0@Z
_TEXT	SEGMENT
_poSelf$ = 8						; size = 4
_poArgs$ = 12						; size = 4
?systemIsShowDamage@@YAPAU_object@@PAU1@0@Z PROC	; systemIsShowDamage, COMDAT

; 221  : 	return Py_BuildValue("i", CPythonSystem::Instance().IsShowDamage());

  00000	8b 0d 00 00 00
	00		 mov	 ecx, DWORD PTR ?ms_singleton@?$CSingleton@VCPythonSystem@@@@0PAVCPythonSystem@@A ; CSingleton<CPythonSystem>::ms_singleton
  00006	e8 00 00 00 00	 call	 ?IsShowDamage@CPythonSystem@@QAE_NXZ ; CPythonSystem::IsShowDamage
  0000b	0f b6 c0	 movzx	 eax, al
  0000e	50		 push	 eax
  0000f	68 00 00 00 00	 push	 OFFSET ??_C@_01KBJDNOO@i?$AA@
  00014	ff 15 00 00 00
	00		 call	 DWORD PTR __imp__Py_BuildValue
  0001a	83 c4 08	 add	 esp, 8

; 222  : }

  0001d	c3		 ret	 0
?systemIsShowDamage@@YAPAU_object@@PAU1@0@Z ENDP	; systemIsShowDamage
_TEXT	ENDS
; Function compile flags: /Ogtp
; File d:\metin2\metin2\client_source_clean\client_source_clean\source\userinterface\pythonsystemmodule.cpp
;	COMDAT ?systemIsShowSalesText@@YAPAU_object@@PAU1@0@Z
_TEXT	SEGMENT
_poSelf$ = 8						; size = 4
_poArgs$ = 12						; size = 4
?systemIsShowSalesText@@YAPAU_object@@PAU1@0@Z PROC	; systemIsShowSalesText, COMDAT

; 226  : 	return Py_BuildValue("i", CPythonSystem::Instance().IsShowSalesText());

  00000	8b 0d 00 00 00
	00		 mov	 ecx, DWORD PTR ?ms_singleton@?$CSingleton@VCPythonSystem@@@@0PAVCPythonSystem@@A ; CSingleton<CPythonSystem>::ms_singleton
  00006	e8 00 00 00 00	 call	 ?IsShowSalesText@CPythonSystem@@QAE_NXZ ; CPythonSystem::IsShowSalesText
  0000b	0f b6 c0	 movzx	 eax, al
  0000e	50		 push	 eax
  0000f	68 00 00 00 00	 push	 OFFSET ??_C@_01KBJDNOO@i?$AA@
  00014	ff 15 00 00 00
	00		 call	 DWORD PTR __imp__Py_BuildValue
  0001a	83 c4 08	 add	 esp, 8

; 227  : }

  0001d	c3		 ret	 0
?systemIsShowSalesText@@YAPAU_object@@PAU1@0@Z ENDP	; systemIsShowSalesText
_TEXT	ENDS
; Function compile flags: /Ogtp
; File d:\metin2\metin2\client_source_clean\client_source_clean\source\userinterface\pythonsystemmodule.cpp
;	COMDAT ?systemSetConfig@@YAPAU_object@@PAU1@0@Z
_TEXT	SEGMENT
_tmp$ = -128						; size = 76
_shadow$ = -52						; size = 4
_distance$ = -48					; size = 4
_gamma$ = -44						; size = 4
_voice_volume$ = -40					; size = 4
_music_volume$ = -36					; size = 4
_object_culling$ = -32					; size = 4
_software_cursor$ = -28					; size = 4
_frequency$ = -24					; size = 4
_bpp$ = -20						; size = 4
_height$ = -16						; size = 4
_width$ = -12						; size = 4
_frequency_index$ = -8					; size = 4
_res_index$ = -4					; size = 4
_poSelf$ = 8						; size = 4
_poArgs$ = 12						; size = 4
?systemSetConfig@@YAPAU_object@@PAU1@0@Z PROC		; systemSetConfig, COMDAT

; 230  : {

  00000	55		 push	 ebp
  00001	8b ec		 mov	 ebp, esp
  00003	81 ec 80 00 00
	00		 sub	 esp, 128		; 00000080H

; 231  : 	int res_index;
; 232  : 	int width;
; 233  : 	int height;
; 234  : 	int bpp;
; 235  : 	int frequency_index;
; 236  : 	int frequency;
; 237  : 	int software_cursor;
; 238  : 	int shadow;
; 239  : 	int object_culling;
; 240  : 	int music_volume;
; 241  : 	int voice_volume;
; 242  : 	int gamma;
; 243  : 	int distance;
; 244  : 
; 245  : 	if (!PyTuple_GetInteger(poArgs, 0, &res_index))

  00009	8d 45 fc	 lea	 eax, DWORD PTR _res_index$[ebp]
  0000c	56		 push	 esi
  0000d	8b 75 0c	 mov	 esi, DWORD PTR _poArgs$[ebp]
  00010	50		 push	 eax
  00011	6a 00		 push	 0
  00013	56		 push	 esi
  00014	e8 00 00 00 00	 call	 ?PyTuple_GetInteger@@YA_NPAU_object@@HPAH@Z ; PyTuple_GetInteger
  00019	83 c4 0c	 add	 esp, 12			; 0000000cH
  0001c	84 c0		 test	 al, al
  0001e	75 0f		 jne	 SHORT $LN11@systemSetC
$LN23@systemSetC:

; 246  : 		return Py_BuildException();

  00020	6a 00		 push	 0
  00022	e8 00 00 00 00	 call	 ?Py_BuildException@@YAPAU_object@@PBDZZ ; Py_BuildException
  00027	83 c4 04	 add	 esp, 4
  0002a	5e		 pop	 esi

; 295  : }

  0002b	8b e5		 mov	 esp, ebp
  0002d	5d		 pop	 ebp
  0002e	c3		 ret	 0
$LN11@systemSetC:

; 247  : 
; 248  : 	if (!PyTuple_GetInteger(poArgs, 1, &frequency_index))

  0002f	8d 45 f8	 lea	 eax, DWORD PTR _frequency_index$[ebp]
  00032	50		 push	 eax
  00033	6a 01		 push	 1
  00035	56		 push	 esi
  00036	e8 00 00 00 00	 call	 ?PyTuple_GetInteger@@YA_NPAU_object@@HPAH@Z ; PyTuple_GetInteger
  0003b	83 c4 0c	 add	 esp, 12			; 0000000cH
  0003e	84 c0		 test	 al, al
  00040	74 de		 je	 SHORT $LN23@systemSetC

; 249  : 		return Py_BuildException();
; 250  : 
; 251  : 	if (!PyTuple_GetInteger(poArgs, 2, &software_cursor))

  00042	8d 45 e4	 lea	 eax, DWORD PTR _software_cursor$[ebp]
  00045	50		 push	 eax
  00046	6a 02		 push	 2
  00048	56		 push	 esi
  00049	e8 00 00 00 00	 call	 ?PyTuple_GetInteger@@YA_NPAU_object@@HPAH@Z ; PyTuple_GetInteger
  0004e	83 c4 0c	 add	 esp, 12			; 0000000cH
  00051	84 c0		 test	 al, al
  00053	74 cb		 je	 SHORT $LN23@systemSetC

; 252  : 		return Py_BuildException();
; 253  : 
; 254  : 	if (!PyTuple_GetInteger(poArgs, 3, &shadow))

  00055	8d 45 cc	 lea	 eax, DWORD PTR _shadow$[ebp]
  00058	50		 push	 eax
  00059	6a 03		 push	 3
  0005b	56		 push	 esi
  0005c	e8 00 00 00 00	 call	 ?PyTuple_GetInteger@@YA_NPAU_object@@HPAH@Z ; PyTuple_GetInteger
  00061	83 c4 0c	 add	 esp, 12			; 0000000cH
  00064	84 c0		 test	 al, al
  00066	74 b8		 je	 SHORT $LN23@systemSetC

; 255  : 		return Py_BuildException();
; 256  : 
; 257  : 	if (!PyTuple_GetInteger(poArgs, 4, &object_culling))

  00068	8d 45 e0	 lea	 eax, DWORD PTR _object_culling$[ebp]
  0006b	50		 push	 eax
  0006c	6a 04		 push	 4
  0006e	56		 push	 esi
  0006f	e8 00 00 00 00	 call	 ?PyTuple_GetInteger@@YA_NPAU_object@@HPAH@Z ; PyTuple_GetInteger
  00074	83 c4 0c	 add	 esp, 12			; 0000000cH
  00077	84 c0		 test	 al, al
  00079	74 a5		 je	 SHORT $LN23@systemSetC

; 258  : 		return Py_BuildException();
; 259  : 
; 260  : 	if (!PyTuple_GetInteger(poArgs, 5, &music_volume))

  0007b	8d 45 dc	 lea	 eax, DWORD PTR _music_volume$[ebp]
  0007e	50		 push	 eax
  0007f	6a 05		 push	 5
  00081	56		 push	 esi
  00082	e8 00 00 00 00	 call	 ?PyTuple_GetInteger@@YA_NPAU_object@@HPAH@Z ; PyTuple_GetInteger
  00087	83 c4 0c	 add	 esp, 12			; 0000000cH
  0008a	84 c0		 test	 al, al
  0008c	74 92		 je	 SHORT $LN23@systemSetC

; 261  : 		return Py_BuildException();
; 262  : 
; 263  : 	if (!PyTuple_GetInteger(poArgs, 6, &voice_volume))

  0008e	8d 45 d8	 lea	 eax, DWORD PTR _voice_volume$[ebp]
  00091	50		 push	 eax
  00092	6a 06		 push	 6
  00094	56		 push	 esi
  00095	e8 00 00 00 00	 call	 ?PyTuple_GetInteger@@YA_NPAU_object@@HPAH@Z ; PyTuple_GetInteger
  0009a	83 c4 0c	 add	 esp, 12			; 0000000cH
  0009d	84 c0		 test	 al, al
  0009f	0f 84 7b ff ff
	ff		 je	 $LN23@systemSetC

; 264  : 		return Py_BuildException();
; 265  : 
; 266  : 	if (!PyTuple_GetInteger(poArgs, 7, &gamma))

  000a5	8d 45 d4	 lea	 eax, DWORD PTR _gamma$[ebp]
  000a8	50		 push	 eax
  000a9	6a 07		 push	 7
  000ab	56		 push	 esi
  000ac	e8 00 00 00 00	 call	 ?PyTuple_GetInteger@@YA_NPAU_object@@HPAH@Z ; PyTuple_GetInteger
  000b1	83 c4 0c	 add	 esp, 12			; 0000000cH
  000b4	84 c0		 test	 al, al
  000b6	0f 84 64 ff ff
	ff		 je	 $LN23@systemSetC

; 267  : 		return Py_BuildException();
; 268  : 
; 269  : 	if (!PyTuple_GetInteger(poArgs, 8, &distance))

  000bc	8d 45 d0	 lea	 eax, DWORD PTR _distance$[ebp]
  000bf	50		 push	 eax
  000c0	6a 08		 push	 8
  000c2	56		 push	 esi
  000c3	e8 00 00 00 00	 call	 ?PyTuple_GetInteger@@YA_NPAU_object@@HPAH@Z ; PyTuple_GetInteger
  000c8	83 c4 0c	 add	 esp, 12			; 0000000cH
  000cb	84 c0		 test	 al, al
  000cd	0f 84 4d ff ff
	ff		 je	 $LN23@systemSetC

; 270  : 		return Py_BuildException();
; 271  : 
; 272  : 	if (!CPythonSystem::Instance().GetResolution(res_index, (DWORD *) &width, (DWORD *) &height, (DWORD *) &bpp))

  000d3	8b 35 00 00 00
	00		 mov	 esi, DWORD PTR ?ms_singleton@?$CSingleton@VCPythonSystem@@@@0PAVCPythonSystem@@A ; CSingleton<CPythonSystem>::ms_singleton
  000d9	8d 45 ec	 lea	 eax, DWORD PTR _bpp$[ebp]
  000dc	50		 push	 eax
  000dd	8d 45 f0	 lea	 eax, DWORD PTR _height$[ebp]
  000e0	8b ce		 mov	 ecx, esi
  000e2	50		 push	 eax
  000e3	8d 45 f4	 lea	 eax, DWORD PTR _width$[ebp]
  000e6	50		 push	 eax
  000e7	ff 75 fc	 push	 DWORD PTR _res_index$[ebp]
  000ea	e8 00 00 00 00	 call	 ?GetResolution@CPythonSystem@@QAE_NHPAK00@Z ; CPythonSystem::GetResolution
  000ef	84 c0		 test	 al, al
  000f1	0f 84 aa 00 00
	00		 je	 $LN22@systemSetC

; 273  : 		return Py_BuildNone();
; 274  : 
; 275  : 	if (!CPythonSystem::Instance().GetFrequency(res_index,frequency_index, (DWORD *) &frequency))

  000f7	8d 45 e8	 lea	 eax, DWORD PTR _frequency$[ebp]
  000fa	8b ce		 mov	 ecx, esi
  000fc	50		 push	 eax
  000fd	ff 75 f8	 push	 DWORD PTR _frequency_index$[ebp]
  00100	ff 75 fc	 push	 DWORD PTR _res_index$[ebp]
  00103	e8 00 00 00 00	 call	 ?GetFrequency@CPythonSystem@@QAE_NHHPAK@Z ; CPythonSystem::GetFrequency
  00108	84 c0		 test	 al, al
  0010a	0f 84 91 00 00
	00		 je	 $LN22@systemSetC

; 276  : 		return Py_BuildNone();
; 277  : 
; 278  : 	CPythonSystem::TConfig tmp;
; 279  : 
; 280  : 	memcpy(&tmp, CPythonSystem::Instance().GetConfig(), sizeof(tmp));

  00110	8b ce		 mov	 ecx, esi
  00112	e8 00 00 00 00	 call	 ?GetConfig@CPythonSystem@@QAEPAUSConfig@1@XZ ; CPythonSystem::GetConfig

; 281  : 
; 282  : 	tmp.width				= width;
; 283  : 	tmp.height				= height;
; 284  : 	tmp.bpp					= bpp;
; 285  : 	tmp.frequency			= frequency;
; 286  : 	tmp.is_software_cursor	= software_cursor ? true : false;

  00117	83 7d e4 00	 cmp	 DWORD PTR _software_cursor$[ebp], 0
  0011b	f3 0f 6f 00	 movdqu	 xmm0, XMMWORD PTR [eax]
  0011f	f3 0f 7f 45 80	 movdqu	 XMMWORD PTR _tmp$[ebp], xmm0
  00124	f3 0f 6f 40 10	 movdqu	 xmm0, XMMWORD PTR [eax+16]
  00129	f3 0f 7f 45 90	 movdqu	 XMMWORD PTR _tmp$[ebp+16], xmm0
  0012e	f3 0f 6f 40 20	 movdqu	 xmm0, XMMWORD PTR [eax+32]
  00133	0f 95 45 90	 setne	 BYTE PTR _tmp$[ebp+16]

; 287  : 	tmp.is_object_culling	= object_culling ? true : false;

  00137	83 7d e0 00	 cmp	 DWORD PTR _object_culling$[ebp], 0
  0013b	f3 0f 7f 45 a0	 movdqu	 XMMWORD PTR _tmp$[ebp+32], xmm0
  00140	f3 0f 6f 40 30	 movdqu	 xmm0, XMMWORD PTR [eax+48]
  00145	0f 95 45 91	 setne	 BYTE PTR _tmp$[ebp+17]
  00149	f3 0f 7f 45 b0	 movdqu	 XMMWORD PTR _tmp$[ebp+48], xmm0
  0014e	f3 0f 7e 40 40	 movq	 xmm0, QWORD PTR [eax+64]
  00153	8b 40 48	 mov	 eax, DWORD PTR [eax+72]
  00156	89 45 c8	 mov	 DWORD PTR _tmp$[ebp+72], eax
  00159	8b 45 f4	 mov	 eax, DWORD PTR _width$[ebp]
  0015c	89 45 80	 mov	 DWORD PTR _tmp$[ebp], eax
  0015f	8b 45 f0	 mov	 eax, DWORD PTR _height$[ebp]
  00162	89 45 84	 mov	 DWORD PTR _tmp$[ebp+4], eax
  00165	8b 45 ec	 mov	 eax, DWORD PTR _bpp$[ebp]
  00168	89 45 88	 mov	 DWORD PTR _tmp$[ebp+8], eax
  0016b	8b 45 e8	 mov	 eax, DWORD PTR _frequency$[ebp]
  0016e	89 45 8c	 mov	 DWORD PTR _tmp$[ebp+12], eax

; 288  : 	tmp.music_volume		= (char) music_volume;

  00171	0f be 45 dc	 movsx	 eax, BYTE PTR _music_volume$[ebp]
  00175	66 0f d6 45 c0	 movq	 QWORD PTR _tmp$[ebp+64], xmm0
  0017a	66 0f 6e c0	 movd	 xmm0, eax

; 289  : 	tmp.voice_volume		= (char) voice_volume;

  0017e	8a 45 d8	 mov	 al, BYTE PTR _voice_volume$[ebp]
  00181	88 45 a0	 mov	 BYTE PTR _tmp$[ebp+32], al

; 290  : 	tmp.gamma				= gamma;

  00184	8b 45 d4	 mov	 eax, DWORD PTR _gamma$[ebp]
  00187	0f 5b c0	 cvtdq2ps xmm0, xmm0
  0018a	89 45 a4	 mov	 DWORD PTR _tmp$[ebp+36], eax

; 291  : 	tmp.iDistance			= distance;

  0018d	8b 45 d0	 mov	 eax, DWORD PTR _distance$[ebp]
  00190	89 45 94	 mov	 DWORD PTR _tmp$[ebp+20], eax

; 292  : 
; 293  : 	CPythonSystem::Instance().SetConfig(&tmp);

  00193	8d 45 80	 lea	 eax, DWORD PTR _tmp$[ebp]
  00196	50		 push	 eax
  00197	f3 0f 11 45 9c	 movss	 DWORD PTR _tmp$[ebp+28], xmm0
  0019c	e8 00 00 00 00	 call	 ?SetConfig@CPythonSystem@@QAEXPAUSConfig@1@@Z ; CPythonSystem::SetConfig
$LN22@systemSetC:

; 294  : 	return Py_BuildNone();

  001a1	e8 00 00 00 00	 call	 ?Py_BuildNone@@YAPAU_object@@XZ ; Py_BuildNone
  001a6	5e		 pop	 esi

; 295  : }

  001a7	8b e5		 mov	 esp, ebp
  001a9	5d		 pop	 ebp
  001aa	c3		 ret	 0
?systemSetConfig@@YAPAU_object@@PAU1@0@Z ENDP		; systemSetConfig
_TEXT	ENDS
; Function compile flags: /Ogtp
; File d:\metin2\metin2\client_source_clean\client_source_clean\source\userinterface\pythonsystemmodule.cpp
;	COMDAT ?systemApplyConfig@@YAPAU_object@@PAU1@0@Z
_TEXT	SEGMENT
_poSelf$ = 8						; size = 4
_poArgs$ = 12						; size = 4
?systemApplyConfig@@YAPAU_object@@PAU1@0@Z PROC		; systemApplyConfig, COMDAT

; 299  : 	CPythonSystem::Instance().ApplyConfig();

  00000	8b 0d 00 00 00
	00		 mov	 ecx, DWORD PTR ?ms_singleton@?$CSingleton@VCPythonSystem@@@@0PAVCPythonSystem@@A ; CSingleton<CPythonSystem>::ms_singleton
  00006	e8 00 00 00 00	 call	 ?ApplyConfig@CPythonSystem@@QAEXXZ ; CPythonSystem::ApplyConfig

; 300  : 	return Py_BuildNone();

  0000b	e9 00 00 00 00	 jmp	 ?Py_BuildNone@@YAPAU_object@@XZ ; Py_BuildNone
?systemApplyConfig@@YAPAU_object@@PAU1@0@Z ENDP		; systemApplyConfig
_TEXT	ENDS
; Function compile flags: /Ogtp
; File d:\metin2\metin2\client_source_clean\client_source_clean\source\userinterface\pythonsystemmodule.cpp
;	COMDAT ?systemSaveConfig@@YAPAU_object@@PAU1@0@Z
_TEXT	SEGMENT
_poSelf$ = 8						; size = 4
_poArgs$ = 12						; size = 4
?systemSaveConfig@@YAPAU_object@@PAU1@0@Z PROC		; systemSaveConfig, COMDAT

; 305  : 	int ret = CPythonSystem::Instance().SaveConfig();

  00000	8b 0d 00 00 00
	00		 mov	 ecx, DWORD PTR ?ms_singleton@?$CSingleton@VCPythonSystem@@@@0PAVCPythonSystem@@A ; CSingleton<CPythonSystem>::ms_singleton
  00006	e8 00 00 00 00	 call	 ?SaveConfig@CPythonSystem@@QAE_NXZ ; CPythonSystem::SaveConfig
  0000b	0f b6 c0	 movzx	 eax, al

; 306  : 	return Py_BuildValue("i", ret);

  0000e	50		 push	 eax
  0000f	68 00 00 00 00	 push	 OFFSET ??_C@_01KBJDNOO@i?$AA@
  00014	ff 15 00 00 00
	00		 call	 DWORD PTR __imp__Py_BuildValue
  0001a	83 c4 08	 add	 esp, 8

; 307  : }

  0001d	c3		 ret	 0
?systemSaveConfig@@YAPAU_object@@PAU1@0@Z ENDP		; systemSaveConfig
_TEXT	ENDS
; Function compile flags: /Ogtp
; File d:\metin2\metin2\client_source_clean\client_source_clean\source\userinterface\pythonsystemmodule.cpp
;	COMDAT ?systemGetResolutionCount@@YAPAU_object@@PAU1@0@Z
_TEXT	SEGMENT
_poSelf$ = 8						; size = 4
_poArgs$ = 12						; size = 4
?systemGetResolutionCount@@YAPAU_object@@PAU1@0@Z PROC	; systemGetResolutionCount, COMDAT

; 311  : 	return Py_BuildValue("i", CPythonSystem::Instance().GetResolutionCount());

  00000	8b 0d 00 00 00
	00		 mov	 ecx, DWORD PTR ?ms_singleton@?$CSingleton@VCPythonSystem@@@@0PAVCPythonSystem@@A ; CSingleton<CPythonSystem>::ms_singleton
  00006	e8 00 00 00 00	 call	 ?GetResolutionCount@CPythonSystem@@QAEHXZ ; CPythonSystem::GetResolutionCount
  0000b	50		 push	 eax
  0000c	68 00 00 00 00	 push	 OFFSET ??_C@_01KBJDNOO@i?$AA@
  00011	ff 15 00 00 00
	00		 call	 DWORD PTR __imp__Py_BuildValue
  00017	83 c4 08	 add	 esp, 8

; 312  : }

  0001a	c3		 ret	 0
?systemGetResolutionCount@@YAPAU_object@@PAU1@0@Z ENDP	; systemGetResolutionCount
_TEXT	ENDS
; Function compile flags: /Ogtp
; File d:\metin2\metin2\client_source_clean\client_source_clean\source\userinterface\pythonsystemmodule.cpp
;	COMDAT ?systemGetFrequencyCount@@YAPAU_object@@PAU1@0@Z
_TEXT	SEGMENT
_index$ = -4						; size = 4
_poSelf$ = 8						; size = 4
_poArgs$ = 12						; size = 4
?systemGetFrequencyCount@@YAPAU_object@@PAU1@0@Z PROC	; systemGetFrequencyCount, COMDAT

; 315  : {

  00000	55		 push	 ebp
  00001	8b ec		 mov	 ebp, esp
  00003	51		 push	 ecx

; 316  : 	int	index;
; 317  : 
; 318  : 	if (!PyTuple_GetInteger(poArgs, 0, &index))

  00004	8d 45 fc	 lea	 eax, DWORD PTR _index$[ebp]
  00007	50		 push	 eax
  00008	6a 00		 push	 0
  0000a	ff 75 0c	 push	 DWORD PTR _poArgs$[ebp]
  0000d	e8 00 00 00 00	 call	 ?PyTuple_GetInteger@@YA_NPAU_object@@HPAH@Z ; PyTuple_GetInteger
  00012	83 c4 0c	 add	 esp, 12			; 0000000cH
  00015	84 c0		 test	 al, al
  00017	75 0e		 jne	 SHORT $LN1@systemGetF

; 319  : 		return Py_BuildException();

  00019	6a 00		 push	 0
  0001b	e8 00 00 00 00	 call	 ?Py_BuildException@@YAPAU_object@@PBDZZ ; Py_BuildException
  00020	83 c4 04	 add	 esp, 4

; 322  : }

  00023	8b e5		 mov	 esp, ebp
  00025	5d		 pop	 ebp
  00026	c3		 ret	 0
$LN1@systemGetF:

; 320  : 
; 321  : 	return Py_BuildValue("i", CPythonSystem::Instance().GetFrequencyCount(index));

  00027	ff 75 fc	 push	 DWORD PTR _index$[ebp]
  0002a	8b 0d 00 00 00
	00		 mov	 ecx, DWORD PTR ?ms_singleton@?$CSingleton@VCPythonSystem@@@@0PAVCPythonSystem@@A ; CSingleton<CPythonSystem>::ms_singleton
  00030	e8 00 00 00 00	 call	 ?GetFrequencyCount@CPythonSystem@@QAEHH@Z ; CPythonSystem::GetFrequencyCount
  00035	50		 push	 eax
  00036	68 00 00 00 00	 push	 OFFSET ??_C@_01KBJDNOO@i?$AA@
  0003b	ff 15 00 00 00
	00		 call	 DWORD PTR __imp__Py_BuildValue
  00041	83 c4 08	 add	 esp, 8

; 322  : }

  00044	8b e5		 mov	 esp, ebp
  00046	5d		 pop	 ebp
  00047	c3		 ret	 0
?systemGetFrequencyCount@@YAPAU_object@@PAU1@0@Z ENDP	; systemGetFrequencyCount
_TEXT	ENDS
; Function compile flags: /Ogtp
; File d:\metin2\metin2\client_source_clean\client_source_clean\source\userinterface\pythonsystemmodule.cpp
;	COMDAT ?systemGetResolution@@YAPAU_object@@PAU1@0@Z
_TEXT	SEGMENT
_index$ = -16						; size = 4
_width$ = -12						; size = 4
_height$ = -8						; size = 4
_bpp$ = -4						; size = 4
_poSelf$ = 8						; size = 4
_poArgs$ = 12						; size = 4
?systemGetResolution@@YAPAU_object@@PAU1@0@Z PROC	; systemGetResolution, COMDAT

; 325  : {

  00000	55		 push	 ebp
  00001	8b ec		 mov	 ebp, esp
  00003	83 ec 10	 sub	 esp, 16			; 00000010H

; 326  : 	int	index;
; 327  : 	DWORD width = 0, height = 0, bpp = 0;
; 328  : 
; 329  : 	if (!PyTuple_GetInteger(poArgs, 0, &index))

  00006	8d 45 f0	 lea	 eax, DWORD PTR _index$[ebp]
  00009	c7 45 f4 00 00
	00 00		 mov	 DWORD PTR _width$[ebp], 0
  00010	50		 push	 eax
  00011	6a 00		 push	 0
  00013	ff 75 0c	 push	 DWORD PTR _poArgs$[ebp]
  00016	c7 45 f8 00 00
	00 00		 mov	 DWORD PTR _height$[ebp], 0
  0001d	c7 45 fc 00 00
	00 00		 mov	 DWORD PTR _bpp$[ebp], 0
  00024	e8 00 00 00 00	 call	 ?PyTuple_GetInteger@@YA_NPAU_object@@HPAH@Z ; PyTuple_GetInteger
  00029	83 c4 0c	 add	 esp, 12			; 0000000cH
  0002c	84 c0		 test	 al, al
  0002e	75 0e		 jne	 SHORT $LN1@systemGetR

; 330  : 		return Py_BuildException();

  00030	6a 00		 push	 0
  00032	e8 00 00 00 00	 call	 ?Py_BuildException@@YAPAU_object@@PBDZZ ; Py_BuildException
  00037	83 c4 04	 add	 esp, 4

; 334  : }

  0003a	8b e5		 mov	 esp, ebp
  0003c	5d		 pop	 ebp
  0003d	c3		 ret	 0
$LN1@systemGetR:

; 331  : 
; 332  : 	CPythonSystem::Instance().GetResolution(index, &width, &height, &bpp);

  0003e	8b 0d 00 00 00
	00		 mov	 ecx, DWORD PTR ?ms_singleton@?$CSingleton@VCPythonSystem@@@@0PAVCPythonSystem@@A ; CSingleton<CPythonSystem>::ms_singleton
  00044	8d 45 fc	 lea	 eax, DWORD PTR _bpp$[ebp]
  00047	50		 push	 eax
  00048	8d 45 f8	 lea	 eax, DWORD PTR _height$[ebp]
  0004b	50		 push	 eax
  0004c	8d 45 f4	 lea	 eax, DWORD PTR _width$[ebp]
  0004f	50		 push	 eax
  00050	ff 75 f0	 push	 DWORD PTR _index$[ebp]
  00053	e8 00 00 00 00	 call	 ?GetResolution@CPythonSystem@@QAE_NHPAK00@Z ; CPythonSystem::GetResolution

; 333  : 	return Py_BuildValue("iii", width, height, bpp);

  00058	ff 75 fc	 push	 DWORD PTR _bpp$[ebp]
  0005b	ff 75 f8	 push	 DWORD PTR _height$[ebp]
  0005e	ff 75 f4	 push	 DWORD PTR _width$[ebp]
  00061	68 00 00 00 00	 push	 OFFSET ??_C@_03GLKMLICL@iii?$AA@
  00066	ff 15 00 00 00
	00		 call	 DWORD PTR __imp__Py_BuildValue
  0006c	83 c4 10	 add	 esp, 16			; 00000010H

; 334  : }

  0006f	8b e5		 mov	 esp, ebp
  00071	5d		 pop	 ebp
  00072	c3		 ret	 0
?systemGetResolution@@YAPAU_object@@PAU1@0@Z ENDP	; systemGetResolution
_TEXT	ENDS
; Function compile flags: /Ogtp
; File d:\metin2\metin2\client_source_clean\client_source_clean\source\userinterface\pythonsystemmodule.cpp
;	COMDAT ?systemGetCurrentResolution@@YAPAU_object@@PAU1@0@Z
_TEXT	SEGMENT
_poSelf$ = 8						; size = 4
_poArgs$ = 12						; size = 4
?systemGetCurrentResolution@@YAPAU_object@@PAU1@0@Z PROC ; systemGetCurrentResolution, COMDAT

; 338  : 	CPythonSystem::TConfig *tmp = CPythonSystem::Instance().GetConfig();

  00000	8b 0d 00 00 00
	00		 mov	 ecx, DWORD PTR ?ms_singleton@?$CSingleton@VCPythonSystem@@@@0PAVCPythonSystem@@A ; CSingleton<CPythonSystem>::ms_singleton
  00006	e8 00 00 00 00	 call	 ?GetConfig@CPythonSystem@@QAEPAUSConfig@1@XZ ; CPythonSystem::GetConfig

; 339  : 	return Py_BuildValue("iii", tmp->width, tmp->height, tmp->bpp);

  0000b	ff 70 08	 push	 DWORD PTR [eax+8]
  0000e	ff 70 04	 push	 DWORD PTR [eax+4]
  00011	ff 30		 push	 DWORD PTR [eax]
  00013	68 00 00 00 00	 push	 OFFSET ??_C@_03GLKMLICL@iii?$AA@
  00018	ff 15 00 00 00
	00		 call	 DWORD PTR __imp__Py_BuildValue
  0001e	83 c4 10	 add	 esp, 16			; 00000010H

; 340  : }

  00021	c3		 ret	 0
?systemGetCurrentResolution@@YAPAU_object@@PAU1@0@Z ENDP ; systemGetCurrentResolution
_TEXT	ENDS
; Function compile flags: /Ogtp
; File d:\metin2\metin2\client_source_clean\client_source_clean\source\userinterface\pythonsystemmodule.cpp
;	COMDAT ?systemGetFrequency@@YAPAU_object@@PAU1@0@Z
_TEXT	SEGMENT
_index$ = -12						; size = 4
_frequency_index$ = -8					; size = 4
_frequency$ = -4					; size = 4
_poSelf$ = 8						; size = 4
_poArgs$ = 12						; size = 4
?systemGetFrequency@@YAPAU_object@@PAU1@0@Z PROC	; systemGetFrequency, COMDAT

; 343  : {

  00000	55		 push	 ebp
  00001	8b ec		 mov	 ebp, esp
  00003	83 ec 0c	 sub	 esp, 12			; 0000000cH

; 344  : 	int	index, frequency_index;
; 345  : 	DWORD frequency = 0;
; 346  : 
; 347  : 	if (!PyTuple_GetInteger(poArgs, 0, &index))

  00006	8d 45 f4	 lea	 eax, DWORD PTR _index$[ebp]
  00009	c7 45 fc 00 00
	00 00		 mov	 DWORD PTR _frequency$[ebp], 0
  00010	50		 push	 eax
  00011	6a 00		 push	 0
  00013	ff 75 0c	 push	 DWORD PTR _poArgs$[ebp]
  00016	e8 00 00 00 00	 call	 ?PyTuple_GetInteger@@YA_NPAU_object@@HPAH@Z ; PyTuple_GetInteger
  0001b	83 c4 0c	 add	 esp, 12			; 0000000cH
  0001e	84 c0		 test	 al, al
  00020	75 0e		 jne	 SHORT $LN2@systemGetF
$LN7@systemGetF:

; 348  : 		return Py_BuildException();

  00022	6a 00		 push	 0
  00024	e8 00 00 00 00	 call	 ?Py_BuildException@@YAPAU_object@@PBDZZ ; Py_BuildException
  00029	83 c4 04	 add	 esp, 4

; 355  : }

  0002c	8b e5		 mov	 esp, ebp
  0002e	5d		 pop	 ebp
  0002f	c3		 ret	 0
$LN2@systemGetF:

; 349  : 
; 350  : 	if (!PyTuple_GetInteger(poArgs, 1, &frequency_index))

  00030	8d 45 f8	 lea	 eax, DWORD PTR _frequency_index$[ebp]
  00033	50		 push	 eax
  00034	6a 01		 push	 1
  00036	ff 75 0c	 push	 DWORD PTR _poArgs$[ebp]
  00039	e8 00 00 00 00	 call	 ?PyTuple_GetInteger@@YA_NPAU_object@@HPAH@Z ; PyTuple_GetInteger
  0003e	83 c4 0c	 add	 esp, 12			; 0000000cH
  00041	84 c0		 test	 al, al
  00043	74 dd		 je	 SHORT $LN7@systemGetF

; 351  : 		return Py_BuildException();
; 352  : 
; 353  : 	CPythonSystem::Instance().GetFrequency(index, frequency_index, &frequency);

  00045	8b 0d 00 00 00
	00		 mov	 ecx, DWORD PTR ?ms_singleton@?$CSingleton@VCPythonSystem@@@@0PAVCPythonSystem@@A ; CSingleton<CPythonSystem>::ms_singleton
  0004b	8d 45 fc	 lea	 eax, DWORD PTR _frequency$[ebp]
  0004e	50		 push	 eax
  0004f	ff 75 f8	 push	 DWORD PTR _frequency_index$[ebp]
  00052	ff 75 f4	 push	 DWORD PTR _index$[ebp]
  00055	e8 00 00 00 00	 call	 ?GetFrequency@CPythonSystem@@QAE_NHHPAK@Z ; CPythonSystem::GetFrequency

; 354  : 	return Py_BuildValue("i", frequency);

  0005a	ff 75 fc	 push	 DWORD PTR _frequency$[ebp]
  0005d	68 00 00 00 00	 push	 OFFSET ??_C@_01KBJDNOO@i?$AA@
  00062	ff 15 00 00 00
	00		 call	 DWORD PTR __imp__Py_BuildValue
  00068	83 c4 08	 add	 esp, 8

; 355  : }

  0006b	8b e5		 mov	 esp, ebp
  0006d	5d		 pop	 ebp
  0006e	c3		 ret	 0
?systemGetFrequency@@YAPAU_object@@PAU1@0@Z ENDP	; systemGetFrequency
_TEXT	ENDS
; Function compile flags: /Ogtp
; File d:\metin2\metin2\client_source_clean\client_source_clean\source\userinterface\pythonsystemmodule.cpp
;	COMDAT ?systemGetShadowLevel@@YAPAU_object@@PAU1@0@Z
_TEXT	SEGMENT
_poSelf$ = 8						; size = 4
_poArgs$ = 12						; size = 4
?systemGetShadowLevel@@YAPAU_object@@PAU1@0@Z PROC	; systemGetShadowLevel, COMDAT

; 359  : 	return Py_BuildValue("i", CPythonSystem::Instance().GetShadowLevel());

  00000	8b 0d 00 00 00
	00		 mov	 ecx, DWORD PTR ?ms_singleton@?$CSingleton@VCPythonSystem@@@@0PAVCPythonSystem@@A ; CSingleton<CPythonSystem>::ms_singleton
  00006	e8 00 00 00 00	 call	 ?GetShadowLevel@CPythonSystem@@QAEHXZ ; CPythonSystem::GetShadowLevel
  0000b	50		 push	 eax
  0000c	68 00 00 00 00	 push	 OFFSET ??_C@_01KBJDNOO@i?$AA@
  00011	ff 15 00 00 00
	00		 call	 DWORD PTR __imp__Py_BuildValue
  00017	83 c4 08	 add	 esp, 8

; 360  : }

  0001a	c3		 ret	 0
?systemGetShadowLevel@@YAPAU_object@@PAU1@0@Z ENDP	; systemGetShadowLevel
_TEXT	ENDS
; Function compile flags: /Ogtp
; File d:\metin2\metin2\client_source_clean\client_source_clean\source\userinterface\pythonsystemmodule.cpp
;	COMDAT ?systemSetShadowLevel@@YAPAU_object@@PAU1@0@Z
_TEXT	SEGMENT
_level$ = -4						; size = 4
_poSelf$ = 8						; size = 4
_poArgs$ = 12						; size = 4
?systemSetShadowLevel@@YAPAU_object@@PAU1@0@Z PROC	; systemSetShadowLevel, COMDAT

; 363  : {

  00000	55		 push	 ebp
  00001	8b ec		 mov	 ebp, esp
  00003	51		 push	 ecx

; 364  : 	int level;
; 365  : 
; 366  : 	if (!PyTuple_GetInteger(poArgs, 0, &level))

  00004	8d 45 fc	 lea	 eax, DWORD PTR _level$[ebp]
  00007	50		 push	 eax
  00008	6a 00		 push	 0
  0000a	ff 75 0c	 push	 DWORD PTR _poArgs$[ebp]
  0000d	e8 00 00 00 00	 call	 ?PyTuple_GetInteger@@YA_NPAU_object@@HPAH@Z ; PyTuple_GetInteger
  00012	83 c4 0c	 add	 esp, 12			; 0000000cH
  00015	84 c0		 test	 al, al
  00017	75 0e		 jne	 SHORT $LN2@systemSetS

; 367  : 		return Py_BuildException();

  00019	6a 00		 push	 0
  0001b	e8 00 00 00 00	 call	 ?Py_BuildException@@YAPAU_object@@PBDZZ ; Py_BuildException
  00020	83 c4 04	 add	 esp, 4

; 373  : }

  00023	8b e5		 mov	 esp, ebp
  00025	5d		 pop	 ebp
  00026	c3		 ret	 0
$LN2@systemSetS:

; 368  : 
; 369  : 	if (level > 0)

  00027	8b 45 fc	 mov	 eax, DWORD PTR _level$[ebp]
  0002a	85 c0		 test	 eax, eax
  0002c	7e 0c		 jle	 SHORT $LN1@systemSetS

; 370  : 		CPythonSystem::Instance().SetShadowLevel(level);

  0002e	8b 0d 00 00 00
	00		 mov	 ecx, DWORD PTR ?ms_singleton@?$CSingleton@VCPythonSystem@@@@0PAVCPythonSystem@@A ; CSingleton<CPythonSystem>::ms_singleton
  00034	50		 push	 eax
  00035	e8 00 00 00 00	 call	 ?SetShadowLevel@CPythonSystem@@QAEXI@Z ; CPythonSystem::SetShadowLevel
$LN1@systemSetS:

; 371  : 
; 372  : 	return Py_BuildNone();

  0003a	e8 00 00 00 00	 call	 ?Py_BuildNone@@YAPAU_object@@XZ ; Py_BuildNone

; 373  : }

  0003f	8b e5		 mov	 esp, ebp
  00041	5d		 pop	 ebp
  00042	c3		 ret	 0
?systemSetShadowLevel@@YAPAU_object@@PAU1@0@Z ENDP	; systemSetShadowLevel
_TEXT	ENDS
; Function compile flags: /Ogtp
; File d:\metin2\metin2\client_source_clean\client_source_clean\source\userinterface\pythonsystemmodule.cpp
;	COMDAT ?initsystem@@YAXXZ
_TEXT	SEGMENT
?initsystem@@YAXXZ PROC					; initsystem, COMDAT

; 376  : {

  00000	56		 push	 esi
  00001	57		 push	 edi

; 377  : 	static PyMethodDef s_methods[] =
; 378  : 	{
; 379  : 		{ "GetWidth",					systemGetWidth,					METH_VARARGS },
; 380  : 		{ "GetHeight",					systemGetHeight,				METH_VARARGS },
; 381  : 
; 382  : 		{ "SetInterfaceHandler",		systemSetInterfaceHandler,		METH_VARARGS },
; 383  : 		{ "DestroyInterfaceHandler",	systemDestroyInterfaceHandler,	METH_VARARGS },
; 384  : 		{ "ReserveResource",			systemReserveResource,			METH_VARARGS },
; 385  : 
; 386  : 		{ "isInterfaceConfig",			systemisInterfaceConfig,		METH_VARARGS },
; 387  : 		{ "SaveWindowStatus",			systemSaveWindowStatus,			METH_VARARGS },
; 388  : 		{ "GetWindowStatus",			systemGetWindowStatus,			METH_VARARGS },
; 389  : 
; 390  : 		{ "GetResolutionCount",			systemGetResolutionCount,		METH_VARARGS },
; 391  : 		{ "GetFrequencyCount",			systemGetFrequencyCount,		METH_VARARGS },
; 392  : 
; 393  : 		{ "GetCurrentResolution",		systemGetCurrentResolution,		METH_VARARGS },
; 394  : 
; 395  : 		{ "GetResolution",				systemGetResolution,			METH_VARARGS },
; 396  : 		{ "GetFrequency",				systemGetFrequency,				METH_VARARGS },
; 397  : 
; 398  : 		{ "ApplyConfig",				systemApplyConfig,				METH_VARARGS },
; 399  : 		{ "SetConfig",					systemSetConfig,				METH_VARARGS },
; 400  : 		{ "SaveConfig",					systemSaveConfig,				METH_VARARGS },
; 401  : 		{ "GetConfig",					systemGetConfig,				METH_VARARGS },
; 402  : 
; 403  : 		{ "SetSaveID",					systemSetSaveID,				METH_VARARGS },
; 404  : 		{ "isSaveID",					systemisSaveID,					METH_VARARGS },
; 405  : 		{ "GetSaveID",					systemGetSaveID,				METH_VARARGS },
; 406  : 
; 407  : 		{ "GetMusicVolume",				systemGetMusicVolume,			METH_VARARGS },
; 408  : 		{ "GetSoundVolume",				systemGetSoundVolume,			METH_VARARGS },
; 409  : 
; 410  : 		{ "SetMusicVolume",				systemSetMusicVolume,			METH_VARARGS },
; 411  : 		{ "SetSoundVolumef",			systemSetSoundVolumef,			METH_VARARGS },
; 412  : 		{ "IsSoftwareCursor",			systemIsSoftwareCursor,			METH_VARARGS },
; 413  : 
; 414  : 		{ "SetViewChatFlag",			systemSetViewChatFlag,			METH_VARARGS },
; 415  : 		{ "IsViewChat",					systemIsViewChat,				METH_VARARGS },
; 416  : 
; 417  : 		{ "SetAlwaysShowNameFlag",		systemSetAlwaysShowNameFlag,	METH_VARARGS },
; 418  : 		{ "IsAlwaysShowName",			systemIsAlwaysShowName,			METH_VARARGS },
; 419  : 
; 420  : 		{ "SetShowDamageFlag",			systemSetShowDamageFlag,		METH_VARARGS },
; 421  : 		{ "IsShowDamage",				systemIsShowDamage,				METH_VARARGS },
; 422  : 
; 423  : 		{ "SetShowSalesTextFlag",		systemSetShowSalesTextFlag,		METH_VARARGS },
; 424  : 		{ "IsShowSalesText",			systemIsShowSalesText,			METH_VARARGS },
; 425  : 
; 426  : 		{ "GetShadowLevel",				systemGetShadowLevel,			METH_VARARGS },
; 427  : 		{ "SetShadowLevel",				systemSetShadowLevel,			METH_VARARGS },
; 428  : 
; 429  : 		{ NULL,							NULL,							NULL }
; 430  : 	};
; 431  : 
; 432  : 	PyObject * poModule = Py_InitModule("systemSetting", s_methods);

  00002	68 f5 03 00 00	 push	 1013			; 000003f5H
  00007	6a 00		 push	 0
  00009	6a 00		 push	 0
  0000b	68 00 00 00 00	 push	 OFFSET ?s_methods@?1??initsystem@@YAXXZ@4PAUPyMethodDef@@A
  00010	68 00 00 00 00	 push	 OFFSET ??_C@_0O@LCPLIAAE@systemSetting?$AA@
  00015	ff 15 00 00 00
	00		 call	 DWORD PTR __imp__Py_InitModule4

; 433  : 
; 434  : 	PyModule_AddIntConstant(poModule, "WINDOW_STATUS",		CPythonSystem::WINDOW_STATUS);

  0001b	8b 35 00 00 00
	00		 mov	 esi, DWORD PTR __imp__PyModule_AddIntConstant
  00021	8b f8		 mov	 edi, eax
  00023	6a 00		 push	 0
  00025	68 00 00 00 00	 push	 OFFSET ??_C@_0O@EDOCFBFG@WINDOW_STATUS?$AA@
  0002a	57		 push	 edi
  0002b	ff d6		 call	 esi

; 435  : 	PyModule_AddIntConstant(poModule, "WINDOW_INVENTORY",	CPythonSystem::WINDOW_INVENTORY);

  0002d	6a 01		 push	 1
  0002f	68 00 00 00 00	 push	 OFFSET ??_C@_0BB@CHCHLBGG@WINDOW_INVENTORY?$AA@
  00034	57		 push	 edi
  00035	ff d6		 call	 esi

; 436  : 	PyModule_AddIntConstant(poModule, "WINDOW_ABILITY",		CPythonSystem::WINDOW_ABILITY);

  00037	6a 02		 push	 2
  00039	68 00 00 00 00	 push	 OFFSET ??_C@_0P@HAOBMPKD@WINDOW_ABILITY?$AA@
  0003e	57		 push	 edi
  0003f	ff d6		 call	 esi

; 437  : 	PyModule_AddIntConstant(poModule, "WINDOW_SOCIETY",		CPythonSystem::WINDOW_SOCIETY);

  00041	6a 03		 push	 3
  00043	68 00 00 00 00	 push	 OFFSET ??_C@_0P@MAFILJL@WINDOW_SOCIETY?$AA@
  00048	57		 push	 edi
  00049	ff d6		 call	 esi
  0004b	83 c4 44	 add	 esp, 68			; 00000044H

; 438  : 	PyModule_AddIntConstant(poModule, "WINDOW_JOURNAL",		CPythonSystem::WINDOW_JOURNAL);

  0004e	6a 04		 push	 4
  00050	68 00 00 00 00	 push	 OFFSET ??_C@_0P@FHBHOGAA@WINDOW_JOURNAL?$AA@
  00055	57		 push	 edi
  00056	ff d6		 call	 esi

; 439  : 	PyModule_AddIntConstant(poModule, "WINDOW_COMMAND",		CPythonSystem::WINDOW_COMMAND);

  00058	6a 05		 push	 5
  0005a	68 00 00 00 00	 push	 OFFSET ??_C@_0P@NOILKAON@WINDOW_COMMAND?$AA@
  0005f	57		 push	 edi
  00060	ff d6		 call	 esi

; 440  : 
; 441  : 	PyModule_AddIntConstant(poModule, "WINDOW_QUICK",		CPythonSystem::WINDOW_QUICK);

  00062	6a 06		 push	 6
  00064	68 00 00 00 00	 push	 OFFSET ??_C@_0N@BOOBGFI@WINDOW_QUICK?$AA@
  00069	57		 push	 edi
  0006a	ff d6		 call	 esi

; 442  : 	PyModule_AddIntConstant(poModule, "WINDOW_GAUGE",		CPythonSystem::WINDOW_GAUGE);

  0006c	6a 07		 push	 7
  0006e	68 00 00 00 00	 push	 OFFSET ??_C@_0N@MCEEKLOJ@WINDOW_GAUGE?$AA@
  00073	57		 push	 edi
  00074	ff d6		 call	 esi

; 443  : 	PyModule_AddIntConstant(poModule, "WINDOW_MINIMAP",		CPythonSystem::WINDOW_MINIMAP);

  00076	6a 08		 push	 8
  00078	68 00 00 00 00	 push	 OFFSET ??_C@_0P@LEOBHMFL@WINDOW_MINIMAP?$AA@
  0007d	57		 push	 edi
  0007e	ff d6		 call	 esi

; 444  : 	PyModule_AddIntConstant(poModule, "WINDOW_CHAT",		CPythonSystem::WINDOW_CHAT);

  00080	6a 09		 push	 9
  00082	68 00 00 00 00	 push	 OFFSET ??_C@_0M@GHKKFINH@WINDOW_CHAT?$AA@
  00087	57		 push	 edi
  00088	ff d6		 call	 esi
  0008a	83 c4 48	 add	 esp, 72			; 00000048H
  0008d	5f		 pop	 edi
  0008e	5e		 pop	 esi

; 445  : }

  0008f	c3		 ret	 0
?initsystem@@YAXXZ ENDP					; initsystem
_TEXT	ENDS
END
