; Listing generated by Microsoft (R) Optimizing Compiler Version 18.00.40629.0 

	TITLE	D:\Metin2\Metin2\client_source_clean\client_source_clean\source\UserInterface\PythonNetworkStreamPhaseGame.cpp
	.686P
	.XMM
	include listing.inc
	.model	flat

INCLUDELIB OLDNAMES

PUBLIC	?gs_bEmpireLanuageEnable@@3HA			; gs_bEmpireLanuageEnable
PUBLIC	??_C@_0BB@DGNNMOLK@RefreshAlignment?$AA@	; `string'
PUBLIC	??_C@_0BJ@GGFFBLPA@RefreshTargetBoardByName?$AA@ ; `string'
PUBLIC	??_C@_0BI@IJENFIMO@RefreshTargetBoardByVID?$AA@	; `string'
PUBLIC	??_C@_04IBBNLEM@Game?$AA@			; `string'
PUBLIC	??_C@_0BD@FLFBFOOJ@RefreshTargetBoard?$AA@	; `string'
PUBLIC	??_C@_0BB@CAEOPHDE@RefreshEquipment?$AA@	; `string'
PUBLIC	??_C@_0BB@HFALJDHO@RefreshCharacter?$AA@	; `string'
PUBLIC	??_C@_0BA@JECEPFD@RefreshExchange?$AA@		; `string'
PUBLIC	??_C@_0BB@JLCHKFKI@RefreshInventory?$AA@	; `string'
PUBLIC	??_C@_0P@PHDJJCCP@RefreshSafebox?$AA@		; `string'
PUBLIC	??_C@_0N@EFFAOLPI@RefreshSkill?$AA@		; `string'
PUBLIC	??_C@_0O@PDJLBMPA@RefreshStatus?$AA@		; `string'
PUBLIC	??_C@_0M@HNBFKLDC@RefreshMall?$AA@		; `string'
PUBLIC	??_C@_0BF@NLJDKFFK@RefreshGuildInfoPage?$AA@	; `string'
PUBLIC	??_C@_0BB@CDMJAHKO@RefreshMessenger?$AA@	; `string'
PUBLIC	??_C@_0BH@BOJHBBF@RefreshGuildMemberPage?$AA@	; `string'
PUBLIC	??_C@_0BG@FFPNPADB@RefreshGuildBoardPage?$AA@	; `string'
PUBLIC	??_C@_0BG@MICKDFKA@RefreshGuildSkillPage?$AA@	; `string'
PUBLIC	??_C@_0CE@PAAOLBDB@RefreshGuildMemberPageGradeCombo@ ; `string'
PUBLIC	??_C@_05FONOJENF@?$CIsii?$CJ?$AA@		; `string'
PUBLIC	??_C@_0BG@CBAJOEAC@RefreshGuildGradePage?$AA@	; `string'
PUBLIC	??_C@_0BL@HPKACCGC@?$CD?$CD?5Network?5?9?5Game?5Phase?5?$CD?$CD?$AA@ ; `string'
PUBLIC	??_C@_0M@DJFBBLID@ShowMapName?$AA@		; `string'
PUBLIC	??_C@_0BB@FNPCBFHE@CloseTargetBoard?$AA@	; `string'
PUBLIC	??_C@_0EC@IHJJGCFB@CPythonNetworkStream?3?3RecvDuelSt@ ; `string'
PUBLIC	??_C@_0IB@FFAGJAOL@CPythonNetworkStream?3?3SendCharac@ ; `string'
PUBLIC	??_C@_0CE@DHDBME@?5SendMessengerAddByNamePacket?5?3?5@ ; `string'
PUBLIC	??_C@_0DL@GMAAOOOI@Can?8t?5register?5emoticon?5string?4?4@ ; `string'
PUBLIC	??_C@_0DN@EFFJHKOL@CPythonNetworkStream?3?3SendUseSki@ ; `string'
PUBLIC	??_C@_0BF@EKLOHGBI@BINARY_SetTipMessage?$AA@	; `string'
PUBLIC	??_C@_02DKCKIIND@?$CFs?$AA@			; `string'
PUBLIC	??_C@_07IAFACCAD@?$CFs?5?3?5?$CFs?$AA@		; `string'
PUBLIC	??_C@_0BF@MEFMFHCI@BINARY_SetBigMessage?$AA@	; `string'
PUBLIC	??_C@_0O@MLMPGGOH@OnRecvWhisper?$AA@		; `string'
PUBLIC	??_C@_05FKJLIKKL@?$CIiss?$CJ?$AA@		; `string'
PUBLIC	??_C@_0BD@HFHHLLOG@OnRecvWhisperError?$AA@	; `string'
PUBLIC	??_C@_0BL@MJBHNNKO@OnRecvWhisperSystemMessage?$AA@ ; `string'
PUBLIC	??_C@_0M@JJMCBALF@OnPickMoney?$AA@		; `string'
PUBLIC	??_C@_0BP@DGLKKAJF@Recv?5Point?5Change?5Packet?5Error?$AA@ ; `string'
PUBLIC	??_C@_0CL@KJGPDLAC@CPythonNetworkStream?3?3RecvDeadPa@ ; `string'
PUBLIC	??_C@_0CL@MKMKFBIM@CPythonNetworkStream?3?3RecvStunPa@ ; `string'
PUBLIC	??_C@_0L@MNOOMILJ@OnGameOver?$AA@		; `string'
PUBLIC	??_C@_0M@BDKDPHGA@?A?V?$MA?N?$LA?x?5?$LL?g?$LI?A?$AA@ ; `string'
PUBLIC	??_C@_0BL@HCNNPICH@Send?5On_Click?5Packet?5Error?$AA@ ; `string'
PUBLIC	??_C@_0CF@OKKJKDKD@Send?5Character?5Position?5Packet?5E@ ; `string'
PUBLIC	??_C@_09PJIJIJPH@StartShop?$AA@			; `string'
PUBLIC	??_C@_0BD@ICLELGCO@SendOnClickPacket?6?$AA@	; `string'
PUBLIC	??_C@_0M@DLPMCOFP@RefreshShop?$AA@		; `string'
PUBLIC	??_C@_07FONJAJPH@EndShop?$AA@			; `string'
PUBLIC	??_C@_0BB@GHBGEHD@NOT_ENOUGH_MONEY?$AA@		; `string'
PUBLIC	??_C@_0BE@MHMAEIEM@SetShopSellingPrice?$AA@	; `string'
PUBLIC	??_C@_0BE@OHHJLOIF@NOT_ENOUGH_MONEY_EX?$AA@	; `string'
PUBLIC	??_C@_0M@NHHHAHOK@OnShopError?$AA@		; `string'
PUBLIC	??_C@_0P@HIHIAGBD@INVENTORY_FULL?$AA@		; `string'
PUBLIC	??_C@_07FBAJNJNN@SOLDOUT?$AA@			; `string'
PUBLIC	??_C@_0DJ@IGANFIGP@CPythonNetworkStream?3?3RecvShopPa@ ; `string'
PUBLIC	??_C@_0M@HAELFLPD@INVALID_POS?$AA@		; `string'
PUBLIC	??_C@_0M@GJLEGLOM@EndExchange?$AA@		; `string'
PUBLIC	??_C@_0O@HKIIBLHD@StartExchange?$AA@		; `string'
PUBLIC	??_C@_0P@DNLFDBJJ@trade_less_elk?$AA@		; `string'
PUBLIC	??_C@_0O@LLCGBEIB@trade_already?$AA@		; `string'
PUBLIC	??_C@_0CA@LAFLPPD@Recv?5Quest?5Info?5Packet?5Error?5?$CD2?$AA@ ; `string'
PUBLIC	??_C@_0CA@CACIOMDA@Recv?5Quest?5Info?5Packet?5Error?5?$CD1?$AA@ ; `string'
PUBLIC	??_C@_0BN@JBCFOMDG@RecvQuestConfirmPacket?5Error?$AA@ ; `string'
PUBLIC	??_C@_0N@IPPKALM@RefreshQuest?$AA@		; `string'
PUBLIC	??_C@_0CC@ELOCPLFN@RecvRequestMakeGuild?5Packet?5Erro@ ; `string'
PUBLIC	??_C@_0BG@KIBJJMEI@BINARY_OnQuestConfirm?$AA@	; `string'
PUBLIC	??_C@_0BA@BHDOCKEA@ToggleDebugInfo?$AA@		; `string'
PUBLIC	??_C@_0N@FKOIEIPK@AskGuildName?$AA@		; `string'
PUBLIC	??_C@_0CD@FOAEKPNP@send_trade_start_packet?5?5?5vid?5?$CFd@ ; `string'
PUBLIC	??_C@_0BP@CGFAIMHK@send_trade_start_packet?5Error?6?$AA@ ; `string'
PUBLIC	??_C@_0CC@JFABNFDE@send_trade_item_add_packet?5Error@ ; `string'
PUBLIC	??_C@_0CB@EABMKDBI@send_trade_elk_add_packet?5Error?6@ ; `string'
PUBLIC	??_C@_0CA@EEPLBN@send_trade_accept_packet?5Error?6?$AA@ ; `string'
PUBLIC	??_C@_0CC@IFEOOANP@send_trade_item_del_packet?5Error@ ; `string'
PUBLIC	??_C@_0BA@ILEGHCPF@StartPointReset?$AA@		; `string'
PUBLIC	??_C@_0BO@FJKDIHPJ@send_trade_exit_packet?5Error?6?$AA@ ; `string'
PUBLIC	??_C@_0BL@FELFLKOI@RecvScriptPacket_SizeError?$AA@ ; `string'
PUBLIC	??_C@_0BL@GIIBIOJB@RecvScriptPacket_RecvError?$AA@ ; `string'
PUBLIC	??_C@_0CA@DKGOFDHL@Send?5Script?5Button?5Packet?5Error?$AA@ ; `string'
PUBLIC	??_C@_0CA@GLOCGDPA@Send?5Script?5Answer?5Packet?5Error?$AA@ ; `string'
PUBLIC	??_C@_0CB@KDIADHIP@SendQuestInputStringPacket?5Error@ ; `string'
PUBLIC	??_C@_0CB@FGDJCCCM@SendAnswerMakeGuild?5Packet?5Error@ ; `string'
PUBLIC	??_C@_0CB@HKJKPPKG@?5SendQuestConfirmPacket?5?3?5?$CFd?0?5?$CFd@ ; `string'
PUBLIC	??_C@_0BN@IAHFIDIL@SendQuestConfirmPacket?5Error?$AA@ ; `string'
PUBLIC	??_C@_0DB@OELACDEA@CPythonNetworkStream?3?3RecvSkillL@ ; `string'
PUBLIC	??_C@_0DH@MPAMADMO@CPythonNetworkStream?3?3RecvSkillC@ ; `string'
PUBLIC	??_C@_0DE@EBNCHOOM@CPythonNetworkStream?3?3RecvSkillL@ ; `string'
PUBLIC	??_C@_0BE@OJMAIMGE@?5?$DO?$DO?5RecvSkillLevel?6?$AA@ ; `string'
PUBLIC	??_C@_0BM@PIHJNOHE@Damage?5is?5equal?5or?5below?50?4?$AA@ ; `string'
PUBLIC	??_C@_0BJ@HIJGCIDI@Recv?5Target?5Packet?5Error?$AA@ ; `string'
PUBLIC	??_C@_0BB@PDPGJKAD@SetHPTargetBoard?$AA@	; `string'
PUBLIC	??_C@_0BM@KLEOIHKF@CloseTargetBoardIfDifferent?$AA@ ; `string'
PUBLIC	??_C@_0BI@OCDKMKMI@Recv?5Speed?5Packet?5Error?$AA@ ; `string'
PUBLIC	??_C@_0BI@LEDBDCKL@Recv?5Mount?5Packet?5Error?$AA@ ; `string'
PUBLIC	??_C@_0BN@KNAMGOGH@VID?5?$FL?$CFd?$FN?$LA?$KB?5?E?$LI?$LA?Y?$MA?$LL?5?C?$NP?$LA?$KB?5?$LM?$LD?A?$KE?6?$AA@ ; `string'
PUBLIC	??_C@_0CA@IBBLODAF@Send?5Battle?5Attack?5Packet?5Error?$AA@ ; `string'
PUBLIC	??_C@_0BG@GKKFNNN@SendShootPacket?5Error?$AA@	; `string'
PUBLIC	??_C@_0EM@NIJLGOIC@CPythonNetworkStream?3?3RecvFlyTar@ ; `string'
PUBLIC	??_C@_0BJ@MBCMDDJG@Send?5Target?5Packet?5Error?$AA@ ; `string'
PUBLIC	??_C@_0BP@MONNHODC@Send?5FlyTargeting?5Packet?5Error?$AA@ ; `string'
PUBLIC	??_C@_0EG@HLBPKODM@CPythonNetworkStream?3?3SendPartyI@ ; `string'
PUBLIC	??_C@_0DM@NAODJGJE@CPythonNetworkStream?3?3SendSyncPo@ ; `string'
PUBLIC	??_C@_0FA@IIILKEFH@CPythonNetworkStream?3?3SendPartyI@ ; `string'
PUBLIC	??_C@_0CA@GNHHEHBK@?5?$DM?$DM?5SendPartyInvitePacket?5?3?5?$CFd?6?$AA@ ; `string'
PUBLIC	??_C@_0EG@BBBGKACF@CPythonNetworkStream?3?3SendPartyR@ ; `string'
PUBLIC	??_C@_0CK@GHKGLGPO@?5?$DM?$DM?5SendPartyInviteAnswerPacket?5@ ; `string'
PUBLIC	??_C@_0EM@FFPCCHJM@CPythonNetworkStream?3?3SendPartyS@ ; `string'
PUBLIC	??_C@_0CA@HANJMBEA@?5?$DM?$DM?5SendPartyRemovePacket?5?3?5?$CFd?6?$AA@ ; `string'
PUBLIC	??_C@_0EM@BMAFGIHC@CPythonNetworkStream?3?3SendPartyU@ ; `string'
PUBLIC	??_C@_0CK@PHAHCCJC@?5?$DM?$DM?5SendPartySetStatePacket?5?3?5?$CFd@ ; `string'
PUBLIC	??_C@_0EH@IOBBPNMN@CPythonNetworkStream?3?3SendPartyP@ ; `string'
PUBLIC	??_C@_0CG@GLODGHKD@?5?$DM?$DM?5SendPartyUseSkillPacket?5?3?5?$CFd@ ; `string'
PUBLIC	??_C@_0EO@GALKDEGO@?5CPythonNetworkStream?3?3RecvParty@ ; `string'
PUBLIC	??_C@_0CD@LLPEDDBL@?5?$DM?$DM?5SendPartyParameterPacket?5?3?5?$CF@ ; `string'
PUBLIC	??_C@_0BO@EBDJDNJB@?5?$DO?$DO?5RecvPartyInvite?5?3?5?$CFd?0?5?$CFs?6?$AA@ ; `string'
PUBLIC	??_C@_0BI@FPJOLEHH@RecvPartyInviteQuestion?$AA@	; `string'
PUBLIC	??_C@_0BL@GPMBAKEI@?5?$DO?$DO?5RecvPartyAdd?5?3?5?$CFd?0?5?$CFs?6?$AA@ ; `string'
PUBLIC	??_C@_0P@JPKHKGNP@AddPartyMember?$AA@		; `string'
PUBLIC	??_C@_0BC@DGCJFOHN@RemovePartyMember?$AA@	; `string'
PUBLIC	??_C@_0BG@JOKFDABD@UpdatePartyMemberInfo?$AA@	; `string'
PUBLIC	??_C@_0BA@JPJIDGOI@LinkPartyMember?$AA@		; `string'
PUBLIC	??_C@_0BK@FHNAOGNK@?5?$DO?$DO?5RecvPartyRemove?5?3?5?$CFd?6?$AA@ ; `string'
PUBLIC	??_C@_0BF@KBCGJNOO@UnlinkAllPartyMember?$AA@	; `string'
PUBLIC	??_C@_0BM@FEBFPLO@?5?$DO?$DO?5RecvPartyLink?5?3?5?$CFd?0?5?$CFd?6?$AA@ ; `string'
PUBLIC	??_C@_0BO@JOBNIIPD@?5?$DO?$DO?5RecvPartyUnlink?5?3?5?$CFd?0?5?$CFd?6?$AA@ ; `string'
PUBLIC	??_C@_0BC@EBBCCLIK@UnlinkPartyMember?$AA@	; `string'
PUBLIC	??_C@_0BN@HDHIECAG@?5?$DO?$DO?5RecvPartyParameter?5?3?5?$CFd?6?$AA@ ; `string'
PUBLIC	??_C@_0BF@FFLEPOCB@ChangePartyParameter?$AA@	; `string'
PUBLIC	??_C@_0CB@OCJDCDKN@?5SendGuildRemoveMemberPacket?5?$CFd?6@ ; `string'
PUBLIC	??_C@_0BL@GHDBPEKM@?5SendGuildAddMemberPacket?6?$AA@ ; `string'
PUBLIC	??_C@_0CN@ENAPGANL@?5SendGuildChangeGradeAuthorityPa@ ; `string'
PUBLIC	??_C@_0CI@HCDCDOMK@?5SendGuildChangeGradeNamePacket?5@ ; `string'
PUBLIC	??_C@_0CE@ILONPNIK@?5SendGuildPostCommentPacket?5?$CFd?0?5@ ; `string'
PUBLIC	??_C@_0BK@JBHNFCGO@?5SendGuildOfferPacket?5?$CFd?6?$AA@ ; `string'
PUBLIC	??_C@_0CD@DFFJJDFM@?5SendGuildRefreshCommentPacket?5?$CF@ ; `string'
PUBLIC	??_C@_0CC@HHBLBNGP@?5SendGuildDeleteCommentPacket?5?$CFd@ ; `string'
PUBLIC	??_C@_0CB@HHLIHMFO@?5SendGuildUseSkillPacket?5?$CFd?0?5?$CFd?6@ ; `string'
PUBLIC	??_C@_0CK@NJDDFMMG@?5SendGuildChangeMemberGradePacke@ ; `string'
PUBLIC	??_C@_0CF@HPNCOLAE@?5SendGuildInviteAnswerPacket?5?$CFd?0@ ; `string'
PUBLIC	??_C@_0DA@BBFAPAKJ@?5SendGuildChangeMemberGeneralFla@ ; `string'
PUBLIC	??_C@_0CB@OEPAEO@?5SendGuildDepositMoneyPacket?5?$CFd?6@ ; `string'
PUBLIC	??_C@_0BO@DLDFHEKF@?5SendGuildChargeGSPPacket?5?$CFd?6?$AA@ ; `string'
PUBLIC	??_C@_0M@JPGKCCFN@DeleteGuild?$AA@		; `string'
PUBLIC	??_C@_0CC@HBGAJKKF@?5SendGuildWithdrawMoneyPacket?5?$CFd@ ; `string'
PUBLIC	??_C@_0BC@MJKOOFCD@RefreshGuildGrade?$AA@	; `string'
PUBLIC	??_C@_0O@EGDOPDJO@?5?$DMRemove?$DO?5?$CFd?6?$AA@ ; `string'
PUBLIC	??_C@_0CC@KDHBOMAA@?5?$DMChange?5Grade?5Authority?$DO?5?$CFd?0?5?$CFd@ ; `string'
PUBLIC	??_C@_0BN@JFJPHNLH@?5?$DMChange?5Grade?5Name?$DO?5?$CFd?0?5?$CFs?6?$AA@ ; `string'
PUBLIC	??_C@_0BN@HEKKNAEA@?5?$DMChangeMemberGrade?$DO?5?$CFd?0?5?$CFd?6?$AA@ ; `string'
PUBLIC	??_C@_0BF@GJIHEANJ@?5?$DMChangeEXP?$DO?5?$CFd?0?5?$CFd?6?$AA@ ; `string'
PUBLIC	??_C@_0CD@MPFPDEHG@?5?$DMChangeMemberGeneralFlag?$DO?5?$CFd?0?5?$CF@ ; `string'
PUBLIC	??_C@_0BK@FEHNPJOD@?5?$DMSkillInfo?$DO?5?$CFd?5?1?5?$CFd?0?5?$CFd?6?$AA@ ; `string'
PUBLIC	??_C@_0BI@EECNELJB@?5?$DMGuild?5Invite?$DO?5?$CFd?0?5?$CFs?6?$AA@ ; `string'
PUBLIC	??_C@_0BI@GJGOAKHL@RecvGuildInviteQuestion?$AA@	; `string'
PUBLIC	??_C@_0BO@HMPGICIO@BINARY_GuildWar_OnSendDeclare?$AA@ ; `string'
PUBLIC	??_C@_0DF@PELONEKB@?5?$DO?$DO?5GUILD_SUBHEADER_GC_WAR?5?3?5GUI@ ; `string'
PUBLIC	??_C@_0BO@JAJLCPKG@BINARY_GuildWar_OnRecvDeclare?$AA@ ; `string'
PUBLIC	??_C@_0DF@BIEEJDD@?5?$DO?$DO?5GUILD_SUBHEADER_GC_WAR?5?3?5GUI@ ; `string'
PUBLIC	??_C@_0BI@JKFNHMFD@BINARY_GuildWar_OnStart?$AA@	; `string'
PUBLIC	??_C@_0DI@LOGKJDI@?5?$DO?$DO?5GUILD_SUBHEADER_GC_WAR?5?3?5GUI@ ; `string'
PUBLIC	??_C@_0BG@NACAFPAN@BINARY_GuildWar_OnEnd?$AA@	; `string'
PUBLIC	??_C@_0CM@HGKOKFIL@?5?$DO?$DO?5GUILD_SUBHEADER_GC_WAR?5?3?5GUI@ ; `string'
PUBLIC	??_C@_0CA@FNEJFGNL@?5?$DO?$DO?5GulidWarEndList?5?$FL?$CFd?5vs?5?$CFd?$FN?6?$AA@ ; `string'
PUBLIC	??_C@_0BN@PIMGMDLK@?5?$DO?$DO?5GulidWarList?5?$FL?$CFd?5vs?5?$CFd?$FN?6?$AA@ ; `string'
PUBLIC	??_C@_0BN@IAMOHDFF@?5?$DO?$DO?5Guild?5Money?5Change?5?3?5?$CFd?6?$AA@ ; `string'
PUBLIC	??_C@_0BM@LBOEDDLE@BINARY_GuildWar_OnRecvPoint?$AA@ ; `string'
PUBLIC	??_C@_0BH@DPEJLPAP@OnFishingNotifyUnknown?$AA@	; `string'
PUBLIC	??_C@_0BB@CJFMLNJB@OnFishingFailure?$AA@	; `string'
PUBLIC	??_C@_0BB@OABOAGML@OnFishingSuccess?$AA@	; `string'
PUBLIC	??_C@_0BA@ODHDNEFK@OnFishingNotify?$AA@		; `string'
PUBLIC	??_C@_0BK@CKEFNKBC@BINARY_PrivateShop_Appear?$AA@ ; `string'
PUBLIC	??_C@_0BN@BEOHMMCM@BINARY_PrivateShop_Disappear?$AA@ ; `string'
PUBLIC	??_C@_0BB@CHHJLMHC@OpenRefineDialog?$AA@	; `string'
PUBLIC	??_C@_06GAHGMLBJ@?$CIiiii?$CJ?$AA@		; `string'
PUBLIC	??_C@_07FANHMMCA@?$CIiiiii?$CJ?$AA@		; `string'
PUBLIC	??_C@_0BN@KLPAAKFJ@AppendMaterialToRefineDialog?$AA@ ; `string'
PUBLIC	??_C@_0BN@PKCCDLMA@SendClientReportPacket?5Error?$AA@ ; `string'
PUBLIC	??_C@_0L@DJAIFHCH@1215955205?$AA@		; `string'
PUBLIC	??_C@_0BF@DEMCFMHM@BINARY_NEW_AddAffect?$AA@	; `string'
PUBLIC	??_C@_0BJ@FBHNPCOP@Fri?5Sep?527?521?356?350?52013?$AA@ ; `string'
PUBLIC	??_C@_0BE@OLAMAMAK@OpenEquipmentDialog?$AA@	; `string'
PUBLIC	??_C@_0BI@NIFEGIKP@BINARY_NEW_RemoveAffect?$AA@	; `string'
PUBLIC	??_C@_0BJ@DBOCKHJF@SetEquipmentDialogSocket?$AA@ ; `string'
PUBLIC	??_C@_0BH@DIEBEMHE@SetEquipmentDialogItem?$AA@	; `string'
PUBLIC	??_C@_0BH@NJGJICND@BINARY_OpenAtlasWindow?$AA@	; `string'
PUBLIC	??_C@_0BH@NIIPMAGM@SetEquipmentDialogAttr?$AA@	; `string'
PUBLIC	??_C@_0BH@KEGDJEJM@BINARY_UpdateLovePoint?$AA@	; `string'
PUBLIC	??_C@_0BB@EGDBDJKJ@BINARY_LoverInfo?$AA@	; `string'
PUBLIC	?ms_singleton@?$CSingleton@VCPythonQuest@@@@0PAVCPythonQuest@@A ; CSingleton<CPythonQuest>::ms_singleton
PUBLIC	?ms_singleton@?$CSingleton@VCPythonShop@@@@0PAVCPythonShop@@A ; CSingleton<CPythonShop>::ms_singleton
EXTRN	?CreateIndexedFly@CFlyingManager@@QAEXKPAVCActorInstance@@0@Z:PROC ; CFlyingManager::CreateIndexedFly
EXTRN	?Send@CNetworkStream@@QAE_NHPBD@Z:PROC		; CNetworkStream::Send
EXTRN	_strncmp:PROC
;	COMDAT ?ms_singleton@?$CSingleton@VCPythonQuest@@@@0PAVCPythonQuest@@A
_BSS	SEGMENT
?ms_singleton@?$CSingleton@VCPythonQuest@@@@0PAVCPythonQuest@@A DD 01H DUP (?) ; CSingleton<CPythonQuest>::ms_singleton
_BSS	ENDS
;	COMDAT ?ms_singleton@?$CSingleton@VCPythonShop@@@@0PAVCPythonShop@@A
_BSS	SEGMENT
?ms_singleton@?$CSingleton@VCPythonShop@@@@0PAVCPythonShop@@A DD 01H DUP (?) ; CSingleton<CPythonShop>::ms_singleton
_BSS	ENDS
;	COMDAT ??_C@_0BB@EGDBDJKJ@BINARY_LoverInfo?$AA@
CONST	SEGMENT
??_C@_0BB@EGDBDJKJ@BINARY_LoverInfo?$AA@ DB 'BINARY_LoverInfo', 00H ; `string'
CONST	ENDS
;	COMDAT ??_C@_0BH@KEGDJEJM@BINARY_UpdateLovePoint?$AA@
CONST	SEGMENT
??_C@_0BH@KEGDJEJM@BINARY_UpdateLovePoint?$AA@ DB 'BINARY_UpdateLovePoint'
	DB	00H						; `string'
CONST	ENDS
;	COMDAT ??_C@_0BH@NIIPMAGM@SetEquipmentDialogAttr?$AA@
CONST	SEGMENT
??_C@_0BH@NIIPMAGM@SetEquipmentDialogAttr?$AA@ DB 'SetEquipmentDialogAttr'
	DB	00H						; `string'
CONST	ENDS
;	COMDAT ??_C@_0BH@NJGJICND@BINARY_OpenAtlasWindow?$AA@
CONST	SEGMENT
??_C@_0BH@NJGJICND@BINARY_OpenAtlasWindow?$AA@ DB 'BINARY_OpenAtlasWindow'
	DB	00H						; `string'
CONST	ENDS
;	COMDAT ??_C@_0BH@DIEBEMHE@SetEquipmentDialogItem?$AA@
CONST	SEGMENT
??_C@_0BH@DIEBEMHE@SetEquipmentDialogItem?$AA@ DB 'SetEquipmentDialogItem'
	DB	00H						; `string'
CONST	ENDS
;	COMDAT ??_C@_0BJ@DBOCKHJF@SetEquipmentDialogSocket?$AA@
CONST	SEGMENT
??_C@_0BJ@DBOCKHJF@SetEquipmentDialogSocket?$AA@ DB 'SetEquipmentDialogSo'
	DB	'cket', 00H					; `string'
CONST	ENDS
;	COMDAT ??_C@_0BI@NIFEGIKP@BINARY_NEW_RemoveAffect?$AA@
CONST	SEGMENT
??_C@_0BI@NIFEGIKP@BINARY_NEW_RemoveAffect?$AA@ DB 'BINARY_NEW_RemoveAffe'
	DB	'ct', 00H					; `string'
CONST	ENDS
;	COMDAT ??_C@_0BE@OLAMAMAK@OpenEquipmentDialog?$AA@
CONST	SEGMENT
??_C@_0BE@OLAMAMAK@OpenEquipmentDialog?$AA@ DB 'OpenEquipmentDialog', 00H ; `string'
CONST	ENDS
;	COMDAT ??_C@_0BJ@FBHNPCOP@Fri?5Sep?527?521?356?350?52013?$AA@
CONST	SEGMENT
??_C@_0BJ@FBHNPCOP@Fri?5Sep?527?521?356?350?52013?$AA@ DB 'Fri Sep 27 21:'
	DB	'56:50 2013', 00H				; `string'
CONST	ENDS
;	COMDAT ??_C@_0BF@DEMCFMHM@BINARY_NEW_AddAffect?$AA@
CONST	SEGMENT
??_C@_0BF@DEMCFMHM@BINARY_NEW_AddAffect?$AA@ DB 'BINARY_NEW_AddAffect', 00H ; `string'
CONST	ENDS
;	COMDAT ??_C@_0L@DJAIFHCH@1215955205?$AA@
CONST	SEGMENT
??_C@_0L@DJAIFHCH@1215955205?$AA@ DB '1215955205', 00H	; `string'
CONST	ENDS
;	COMDAT ??_C@_0BN@PKCCDLMA@SendClientReportPacket?5Error?$AA@
CONST	SEGMENT
??_C@_0BN@PKCCDLMA@SendClientReportPacket?5Error?$AA@ DB 'SendClientRepor'
	DB	'tPacket Error', 00H				; `string'
CONST	ENDS
;	COMDAT ??_C@_0BN@KLPAAKFJ@AppendMaterialToRefineDialog?$AA@
CONST	SEGMENT
??_C@_0BN@KLPAAKFJ@AppendMaterialToRefineDialog?$AA@ DB 'AppendMaterialTo'
	DB	'RefineDialog', 00H				; `string'
CONST	ENDS
;	COMDAT ??_C@_07FANHMMCA@?$CIiiiii?$CJ?$AA@
CONST	SEGMENT
??_C@_07FANHMMCA@?$CIiiiii?$CJ?$AA@ DB '(iiiii)', 00H	; `string'
CONST	ENDS
;	COMDAT ??_C@_06GAHGMLBJ@?$CIiiii?$CJ?$AA@
CONST	SEGMENT
??_C@_06GAHGMLBJ@?$CIiiii?$CJ?$AA@ DB '(iiii)', 00H	; `string'
CONST	ENDS
;	COMDAT ??_C@_0BB@CHHJLMHC@OpenRefineDialog?$AA@
CONST	SEGMENT
??_C@_0BB@CHHJLMHC@OpenRefineDialog?$AA@ DB 'OpenRefineDialog', 00H ; `string'
CONST	ENDS
;	COMDAT ??_C@_0BN@BEOHMMCM@BINARY_PrivateShop_Disappear?$AA@
CONST	SEGMENT
??_C@_0BN@BEOHMMCM@BINARY_PrivateShop_Disappear?$AA@ DB 'BINARY_PrivateSh'
	DB	'op_Disappear', 00H				; `string'
CONST	ENDS
;	COMDAT ??_C@_0BK@CKEFNKBC@BINARY_PrivateShop_Appear?$AA@
CONST	SEGMENT
??_C@_0BK@CKEFNKBC@BINARY_PrivateShop_Appear?$AA@ DB 'BINARY_PrivateShop_'
	DB	'Appear', 00H				; `string'
CONST	ENDS
;	COMDAT ??_C@_0BA@ODHDNEFK@OnFishingNotify?$AA@
CONST	SEGMENT
??_C@_0BA@ODHDNEFK@OnFishingNotify?$AA@ DB 'OnFishingNotify', 00H ; `string'
CONST	ENDS
;	COMDAT ??_C@_0BB@OABOAGML@OnFishingSuccess?$AA@
CONST	SEGMENT
??_C@_0BB@OABOAGML@OnFishingSuccess?$AA@ DB 'OnFishingSuccess', 00H ; `string'
CONST	ENDS
;	COMDAT ??_C@_0BB@CJFMLNJB@OnFishingFailure?$AA@
CONST	SEGMENT
??_C@_0BB@CJFMLNJB@OnFishingFailure?$AA@ DB 'OnFishingFailure', 00H ; `string'
CONST	ENDS
;	COMDAT ??_C@_0BH@DPEJLPAP@OnFishingNotifyUnknown?$AA@
CONST	SEGMENT
??_C@_0BH@DPEJLPAP@OnFishingNotifyUnknown?$AA@ DB 'OnFishingNotifyUnknown'
	DB	00H						; `string'
CONST	ENDS
;	COMDAT ??_C@_0BM@LBOEDDLE@BINARY_GuildWar_OnRecvPoint?$AA@
CONST	SEGMENT
??_C@_0BM@LBOEDDLE@BINARY_GuildWar_OnRecvPoint?$AA@ DB 'BINARY_GuildWar_O'
	DB	'nRecvPoint', 00H				; `string'
CONST	ENDS
;	COMDAT ??_C@_0BN@IAMOHDFF@?5?$DO?$DO?5Guild?5Money?5Change?5?3?5?$CFd?6?$AA@
CONST	SEGMENT
??_C@_0BN@IAMOHDFF@?5?$DO?$DO?5Guild?5Money?5Change?5?3?5?$CFd?6?$AA@ DB ' '
	DB	'>> Guild Money Change : %d', 0aH, 00H	; `string'
CONST	ENDS
;	COMDAT ??_C@_0BN@PIMGMDLK@?5?$DO?$DO?5GulidWarList?5?$FL?$CFd?5vs?5?$CFd?$FN?6?$AA@
CONST	SEGMENT
??_C@_0BN@PIMGMDLK@?5?$DO?$DO?5GulidWarList?5?$FL?$CFd?5vs?5?$CFd?$FN?6?$AA@ DB ' '
	DB	'>> GulidWarList [%d vs %d]', 0aH, 00H	; `string'
CONST	ENDS
;	COMDAT ??_C@_0CA@FNEJFGNL@?5?$DO?$DO?5GulidWarEndList?5?$FL?$CFd?5vs?5?$CFd?$FN?6?$AA@
CONST	SEGMENT
??_C@_0CA@FNEJFGNL@?5?$DO?$DO?5GulidWarEndList?5?$FL?$CFd?5vs?5?$CFd?$FN?6?$AA@ DB ' '
	DB	'>> GulidWarEndList [%d vs %d]', 0aH, 00H	; `string'
CONST	ENDS
;	COMDAT ??_C@_0CM@HGKOKFIL@?5?$DO?$DO?5GUILD_SUBHEADER_GC_WAR?5?3?5GUI@
CONST	SEGMENT
??_C@_0CM@HGKOKFIL@?5?$DO?$DO?5GUILD_SUBHEADER_GC_WAR?5?3?5GUI@ DB ' >> G'
	DB	'UILD_SUBHEADER_GC_WAR : GUILD_WAR_END', 0aH, 00H ; `string'
CONST	ENDS
;	COMDAT ??_C@_0BG@NACAFPAN@BINARY_GuildWar_OnEnd?$AA@
CONST	SEGMENT
??_C@_0BG@NACAFPAN@BINARY_GuildWar_OnEnd?$AA@ DB 'BINARY_GuildWar_OnEnd', 00H ; `string'
CONST	ENDS
;	COMDAT ??_C@_0DI@LOGKJDI@?5?$DO?$DO?5GUILD_SUBHEADER_GC_WAR?5?3?5GUI@
CONST	SEGMENT
??_C@_0DI@LOGKJDI@?5?$DO?$DO?5GUILD_SUBHEADER_GC_WAR?5?3?5GUI@ DB ' >> GU'
	DB	'ILD_SUBHEADER_GC_WAR : GUILD_WAR_ON_WAR : %d, %d', 0aH, 00H ; `string'
CONST	ENDS
;	COMDAT ??_C@_0BI@JKFNHMFD@BINARY_GuildWar_OnStart?$AA@
CONST	SEGMENT
??_C@_0BI@JKFNHMFD@BINARY_GuildWar_OnStart?$AA@ DB 'BINARY_GuildWar_OnSta'
	DB	'rt', 00H					; `string'
CONST	ENDS
;	COMDAT ??_C@_0DF@BIEEJDD@?5?$DO?$DO?5GUILD_SUBHEADER_GC_WAR?5?3?5GUI@
CONST	SEGMENT
??_C@_0DF@BIEEJDD@?5?$DO?$DO?5GUILD_SUBHEADER_GC_WAR?5?3?5GUI@ DB ' >> GU'
	DB	'ILD_SUBHEADER_GC_WAR : GUILD_WAR_RECV_DECLARE', 0aH, 00H ; `string'
CONST	ENDS
;	COMDAT ??_C@_0BO@JAJLCPKG@BINARY_GuildWar_OnRecvDeclare?$AA@
CONST	SEGMENT
??_C@_0BO@JAJLCPKG@BINARY_GuildWar_OnRecvDeclare?$AA@ DB 'BINARY_GuildWar'
	DB	'_OnRecvDeclare', 00H			; `string'
CONST	ENDS
;	COMDAT ??_C@_0DF@PELONEKB@?5?$DO?$DO?5GUILD_SUBHEADER_GC_WAR?5?3?5GUI@
CONST	SEGMENT
??_C@_0DF@PELONEKB@?5?$DO?$DO?5GUILD_SUBHEADER_GC_WAR?5?3?5GUI@ DB ' >> G'
	DB	'UILD_SUBHEADER_GC_WAR : GUILD_WAR_SEND_DECLARE', 0aH, 00H ; `string'
CONST	ENDS
;	COMDAT ??_C@_0BO@HMPGICIO@BINARY_GuildWar_OnSendDeclare?$AA@
CONST	SEGMENT
??_C@_0BO@HMPGICIO@BINARY_GuildWar_OnSendDeclare?$AA@ DB 'BINARY_GuildWar'
	DB	'_OnSendDeclare', 00H			; `string'
CONST	ENDS
;	COMDAT ??_C@_0BI@GJGOAKHL@RecvGuildInviteQuestion?$AA@
CONST	SEGMENT
??_C@_0BI@GJGOAKHL@RecvGuildInviteQuestion?$AA@ DB 'RecvGuildInviteQuesti'
	DB	'on', 00H					; `string'
CONST	ENDS
;	COMDAT ??_C@_0BI@EECNELJB@?5?$DMGuild?5Invite?$DO?5?$CFd?0?5?$CFs?6?$AA@
CONST	SEGMENT
??_C@_0BI@EECNELJB@?5?$DMGuild?5Invite?$DO?5?$CFd?0?5?$CFs?6?$AA@ DB ' <G'
	DB	'uild Invite> %d, %s', 0aH, 00H		; `string'
CONST	ENDS
;	COMDAT ??_C@_0BK@FEHNPJOD@?5?$DMSkillInfo?$DO?5?$CFd?5?1?5?$CFd?0?5?$CFd?6?$AA@
CONST	SEGMENT
??_C@_0BK@FEHNPJOD@?5?$DMSkillInfo?$DO?5?$CFd?5?1?5?$CFd?0?5?$CFd?6?$AA@ DB ' '
	DB	'<SkillInfo> %d / %d, %d', 0aH, 00H		; `string'
CONST	ENDS
;	COMDAT ??_C@_0CD@MPFPDEHG@?5?$DMChangeMemberGeneralFlag?$DO?5?$CFd?0?5?$CF@
CONST	SEGMENT
??_C@_0CD@MPFPDEHG@?5?$DMChangeMemberGeneralFlag?$DO?5?$CFd?0?5?$CF@ DB ' '
	DB	'<ChangeMemberGeneralFlag> %d, %d', 0aH, 00H	; `string'
CONST	ENDS
;	COMDAT ??_C@_0BF@GJIHEANJ@?5?$DMChangeEXP?$DO?5?$CFd?0?5?$CFd?6?$AA@
CONST	SEGMENT
??_C@_0BF@GJIHEANJ@?5?$DMChangeEXP?$DO?5?$CFd?0?5?$CFd?6?$AA@ DB ' <Chang'
	DB	'eEXP> %d, %d', 0aH, 00H			; `string'
CONST	ENDS
;	COMDAT ??_C@_0BN@HEKKNAEA@?5?$DMChangeMemberGrade?$DO?5?$CFd?0?5?$CFd?6?$AA@
CONST	SEGMENT
??_C@_0BN@HEKKNAEA@?5?$DMChangeMemberGrade?$DO?5?$CFd?0?5?$CFd?6?$AA@ DB ' '
	DB	'<ChangeMemberGrade> %d, %d', 0aH, 00H	; `string'
CONST	ENDS
;	COMDAT ??_C@_0BN@JFJPHNLH@?5?$DMChange?5Grade?5Name?$DO?5?$CFd?0?5?$CFs?6?$AA@
CONST	SEGMENT
??_C@_0BN@JFJPHNLH@?5?$DMChange?5Grade?5Name?$DO?5?$CFd?0?5?$CFs?6?$AA@ DB ' '
	DB	'<Change Grade Name> %d, %s', 0aH, 00H	; `string'
CONST	ENDS
;	COMDAT ??_C@_0CC@KDHBOMAA@?5?$DMChange?5Grade?5Authority?$DO?5?$CFd?0?5?$CFd@
CONST	SEGMENT
??_C@_0CC@KDHBOMAA@?5?$DMChange?5Grade?5Authority?$DO?5?$CFd?0?5?$CFd@ DB ' '
	DB	'<Change Grade Authority> %d, %d', 0aH, 00H	; `string'
CONST	ENDS
;	COMDAT ??_C@_0O@EGDOPDJO@?5?$DMRemove?$DO?5?$CFd?6?$AA@
CONST	SEGMENT
??_C@_0O@EGDOPDJO@?5?$DMRemove?$DO?5?$CFd?6?$AA@ DB ' <Remove> %d', 0aH, 00H ; `string'
CONST	ENDS
;	COMDAT ??_C@_0BC@MJKOOFCD@RefreshGuildGrade?$AA@
CONST	SEGMENT
??_C@_0BC@MJKOOFCD@RefreshGuildGrade?$AA@ DB 'RefreshGuildGrade', 00H ; `string'
CONST	ENDS
;	COMDAT ??_C@_0CC@HBGAJKKF@?5SendGuildWithdrawMoneyPacket?5?$CFd@
CONST	SEGMENT
??_C@_0CC@HBGAJKKF@?5SendGuildWithdrawMoneyPacket?5?$CFd@ DB ' SendGuildW'
	DB	'ithdrawMoneyPacket %d', 0aH, 00H		; `string'
CONST	ENDS
;	COMDAT ??_C@_0M@JPGKCCFN@DeleteGuild?$AA@
CONST	SEGMENT
??_C@_0M@JPGKCCFN@DeleteGuild?$AA@ DB 'DeleteGuild', 00H ; `string'
CONST	ENDS
;	COMDAT ??_C@_0BO@DLDFHEKF@?5SendGuildChargeGSPPacket?5?$CFd?6?$AA@
CONST	SEGMENT
??_C@_0BO@DLDFHEKF@?5SendGuildChargeGSPPacket?5?$CFd?6?$AA@ DB ' SendGuil'
	DB	'dChargeGSPPacket %d', 0aH, 00H		; `string'
CONST	ENDS
;	COMDAT ??_C@_0CB@OEPAEO@?5SendGuildDepositMoneyPacket?5?$CFd?6@
CONST	SEGMENT
??_C@_0CB@OEPAEO@?5SendGuildDepositMoneyPacket?5?$CFd?6@ DB ' SendGuildDe'
	DB	'positMoneyPacket %d', 0aH, 00H		; `string'
CONST	ENDS
;	COMDAT ??_C@_0DA@BBFAPAKJ@?5SendGuildChangeMemberGeneralFla@
CONST	SEGMENT
??_C@_0DA@BBFAPAKJ@?5SendGuildChangeMemberGeneralFla@ DB ' SendGuildChang'
	DB	'eMemberGeneralFlagPacket %d, %d', 0aH, 00H	; `string'
CONST	ENDS
;	COMDAT ??_C@_0CF@HPNCOLAE@?5SendGuildInviteAnswerPacket?5?$CFd?0@
CONST	SEGMENT
??_C@_0CF@HPNCOLAE@?5SendGuildInviteAnswerPacket?5?$CFd?0@ DB ' SendGuild'
	DB	'InviteAnswerPacket %d, %d', 0aH, 00H	; `string'
CONST	ENDS
;	COMDAT ??_C@_0CK@NJDDFMMG@?5SendGuildChangeMemberGradePacke@
CONST	SEGMENT
??_C@_0CK@NJDDFMMG@?5SendGuildChangeMemberGradePacke@ DB ' SendGuildChang'
	DB	'eMemberGradePacket %d, %d', 0aH, 00H	; `string'
CONST	ENDS
;	COMDAT ??_C@_0CB@HHLIHMFO@?5SendGuildUseSkillPacket?5?$CFd?0?5?$CFd?6@
CONST	SEGMENT
??_C@_0CB@HHLIHMFO@?5SendGuildUseSkillPacket?5?$CFd?0?5?$CFd?6@ DB ' Send'
	DB	'GuildUseSkillPacket %d, %d', 0aH, 00H	; `string'
CONST	ENDS
;	COMDAT ??_C@_0CC@HHBLBNGP@?5SendGuildDeleteCommentPacket?5?$CFd@
CONST	SEGMENT
??_C@_0CC@HHBLBNGP@?5SendGuildDeleteCommentPacket?5?$CFd@ DB ' SendGuildD'
	DB	'eleteCommentPacket %d', 0aH, 00H		; `string'
CONST	ENDS
;	COMDAT ??_C@_0CD@DFFJJDFM@?5SendGuildRefreshCommentPacket?5?$CF@
CONST	SEGMENT
??_C@_0CD@DFFJJDFM@?5SendGuildRefreshCommentPacket?5?$CF@ DB ' SendGuildR'
	DB	'efreshCommentPacket %d', 0aH, 00H		; `string'
CONST	ENDS
;	COMDAT ??_C@_0BK@JBHNFCGO@?5SendGuildOfferPacket?5?$CFd?6?$AA@
CONST	SEGMENT
??_C@_0BK@JBHNFCGO@?5SendGuildOfferPacket?5?$CFd?6?$AA@ DB ' SendGuildOff'
	DB	'erPacket %d', 0aH, 00H			; `string'
CONST	ENDS
;	COMDAT ??_C@_0CE@ILONPNIK@?5SendGuildPostCommentPacket?5?$CFd?0?5@
CONST	SEGMENT
??_C@_0CE@ILONPNIK@?5SendGuildPostCommentPacket?5?$CFd?0?5@ DB ' SendGuil'
	DB	'dPostCommentPacket %d, %s', 0aH, 00H	; `string'
CONST	ENDS
;	COMDAT ??_C@_0CI@HCDCDOMK@?5SendGuildChangeGradeNamePacket?5@
CONST	SEGMENT
??_C@_0CI@HCDCDOMK@?5SendGuildChangeGradeNamePacket?5@ DB ' SendGuildChan'
	DB	'geGradeNamePacket %d, %s', 0aH, 00H		; `string'
CONST	ENDS
;	COMDAT ??_C@_0CN@ENAPGANL@?5SendGuildChangeGradeAuthorityPa@
CONST	SEGMENT
??_C@_0CN@ENAPGANL@?5SendGuildChangeGradeAuthorityPa@ DB ' SendGuildChang'
	DB	'eGradeAuthorityPacket %d, %d', 0aH, 00H	; `string'
CONST	ENDS
;	COMDAT ??_C@_0BL@GHDBPEKM@?5SendGuildAddMemberPacket?6?$AA@
CONST	SEGMENT
??_C@_0BL@GHDBPEKM@?5SendGuildAddMemberPacket?6?$AA@ DB ' SendGuildAddMem'
	DB	'berPacket', 0aH, 00H			; `string'
CONST	ENDS
;	COMDAT ??_C@_0CB@OCJDCDKN@?5SendGuildRemoveMemberPacket?5?$CFd?6@
CONST	SEGMENT
??_C@_0CB@OCJDCDKN@?5SendGuildRemoveMemberPacket?5?$CFd?6@ DB ' SendGuild'
	DB	'RemoveMemberPacket %d', 0aH, 00H		; `string'
CONST	ENDS
;	COMDAT ??_C@_0BF@FFLEPOCB@ChangePartyParameter?$AA@
CONST	SEGMENT
??_C@_0BF@FFLEPOCB@ChangePartyParameter?$AA@ DB 'ChangePartyParameter', 00H ; `string'
CONST	ENDS
;	COMDAT ??_C@_0BN@HDHIECAG@?5?$DO?$DO?5RecvPartyParameter?5?3?5?$CFd?6?$AA@
CONST	SEGMENT
??_C@_0BN@HDHIECAG@?5?$DO?$DO?5RecvPartyParameter?5?3?5?$CFd?6?$AA@ DB ' '
	DB	'>> RecvPartyParameter : %d', 0aH, 00H	; `string'
CONST	ENDS
;	COMDAT ??_C@_0BC@EBBCCLIK@UnlinkPartyMember?$AA@
CONST	SEGMENT
??_C@_0BC@EBBCCLIK@UnlinkPartyMember?$AA@ DB 'UnlinkPartyMember', 00H ; `string'
CONST	ENDS
;	COMDAT ??_C@_0BO@JOBNIIPD@?5?$DO?$DO?5RecvPartyUnlink?5?3?5?$CFd?0?5?$CFd?6?$AA@
CONST	SEGMENT
??_C@_0BO@JOBNIIPD@?5?$DO?$DO?5RecvPartyUnlink?5?3?5?$CFd?0?5?$CFd?6?$AA@ DB ' '
	DB	'>> RecvPartyUnlink : %d, %d', 0aH, 00H	; `string'
CONST	ENDS
;	COMDAT ??_C@_0BM@FEBFPLO@?5?$DO?$DO?5RecvPartyLink?5?3?5?$CFd?0?5?$CFd?6?$AA@
CONST	SEGMENT
??_C@_0BM@FEBFPLO@?5?$DO?$DO?5RecvPartyLink?5?3?5?$CFd?0?5?$CFd?6?$AA@ DB ' '
	DB	'>> RecvPartyLink : %d, %d', 0aH, 00H	; `string'
CONST	ENDS
;	COMDAT ??_C@_0BF@KBCGJNOO@UnlinkAllPartyMember?$AA@
CONST	SEGMENT
??_C@_0BF@KBCGJNOO@UnlinkAllPartyMember?$AA@ DB 'UnlinkAllPartyMember', 00H ; `string'
CONST	ENDS
;	COMDAT ??_C@_0BK@FHNAOGNK@?5?$DO?$DO?5RecvPartyRemove?5?3?5?$CFd?6?$AA@
CONST	SEGMENT
??_C@_0BK@FHNAOGNK@?5?$DO?$DO?5RecvPartyRemove?5?3?5?$CFd?6?$AA@ DB ' >> '
	DB	'RecvPartyRemove : %d', 0aH, 00H		; `string'
CONST	ENDS
;	COMDAT ??_C@_0BA@JPJIDGOI@LinkPartyMember?$AA@
CONST	SEGMENT
??_C@_0BA@JPJIDGOI@LinkPartyMember?$AA@ DB 'LinkPartyMember', 00H ; `string'
CONST	ENDS
;	COMDAT ??_C@_0BG@JOKFDABD@UpdatePartyMemberInfo?$AA@
CONST	SEGMENT
??_C@_0BG@JOKFDABD@UpdatePartyMemberInfo?$AA@ DB 'UpdatePartyMemberInfo', 00H ; `string'
CONST	ENDS
;	COMDAT ??_C@_0BC@DGCJFOHN@RemovePartyMember?$AA@
CONST	SEGMENT
??_C@_0BC@DGCJFOHN@RemovePartyMember?$AA@ DB 'RemovePartyMember', 00H ; `string'
CONST	ENDS
;	COMDAT ??_C@_0P@JPKHKGNP@AddPartyMember?$AA@
CONST	SEGMENT
??_C@_0P@JPKHKGNP@AddPartyMember?$AA@ DB 'AddPartyMember', 00H ; `string'
CONST	ENDS
;	COMDAT ??_C@_0BL@GPMBAKEI@?5?$DO?$DO?5RecvPartyAdd?5?3?5?$CFd?0?5?$CFs?6?$AA@
CONST	SEGMENT
??_C@_0BL@GPMBAKEI@?5?$DO?$DO?5RecvPartyAdd?5?3?5?$CFd?0?5?$CFs?6?$AA@ DB ' '
	DB	'>> RecvPartyAdd : %d, %s', 0aH, 00H		; `string'
CONST	ENDS
;	COMDAT ??_C@_0BI@FPJOLEHH@RecvPartyInviteQuestion?$AA@
CONST	SEGMENT
??_C@_0BI@FPJOLEHH@RecvPartyInviteQuestion?$AA@ DB 'RecvPartyInviteQuesti'
	DB	'on', 00H					; `string'
CONST	ENDS
;	COMDAT ??_C@_0BO@EBDJDNJB@?5?$DO?$DO?5RecvPartyInvite?5?3?5?$CFd?0?5?$CFs?6?$AA@
CONST	SEGMENT
??_C@_0BO@EBDJDNJB@?5?$DO?$DO?5RecvPartyInvite?5?3?5?$CFd?0?5?$CFs?6?$AA@ DB ' '
	DB	'>> RecvPartyInvite : %d, %s', 0aH, 00H	; `string'
CONST	ENDS
;	COMDAT ??_C@_0CD@LLPEDDBL@?5?$DM?$DM?5SendPartyParameterPacket?5?3?5?$CF@
CONST	SEGMENT
??_C@_0CD@LLPEDDBL@?5?$DM?$DM?5SendPartyParameterPacket?5?3?5?$CF@ DB ' <'
	DB	'< SendPartyParameterPacket : %d', 0aH, 00H	; `string'
CONST	ENDS
;	COMDAT ??_C@_0EO@GALKDEGO@?5CPythonNetworkStream?3?3RecvParty@
CONST	SEGMENT
??_C@_0EO@GALKDEGO@?5CPythonNetworkStream?3?3RecvParty@ DB ' CPythonNetwo'
	DB	'rkStream::RecvPartyInvite - Failed to find leader instance [%'
	DB	'd]', 0aH, 00H				; `string'
CONST	ENDS
;	COMDAT ??_C@_0CG@GLODGHKD@?5?$DM?$DM?5SendPartyUseSkillPacket?5?3?5?$CFd@
CONST	SEGMENT
??_C@_0CG@GLODGHKD@?5?$DM?$DM?5SendPartyUseSkillPacket?5?3?5?$CFd@ DB ' <'
	DB	'< SendPartyUseSkillPacket : %d, %d', 0aH, 00H ; `string'
CONST	ENDS
;	COMDAT ??_C@_0EH@IOBBPNMN@CPythonNetworkStream?3?3SendPartyP@
CONST	SEGMENT
??_C@_0EH@IOBBPNMN@CPythonNetworkStream?3?3SendPartyP@ DB 'CPythonNetwork'
	DB	'Stream::SendPartyParameterPacket(%d) - PACKET SEND ERROR', 00H ; `string'
CONST	ENDS
;	COMDAT ??_C@_0CK@PHAHCCJC@?5?$DM?$DM?5SendPartySetStatePacket?5?3?5?$CFd@
CONST	SEGMENT
??_C@_0CK@PHAHCCJC@?5?$DM?$DM?5SendPartySetStatePacket?5?3?5?$CFd@ DB ' <'
	DB	'< SendPartySetStatePacket : %d, %d, %d', 0aH, 00H ; `string'
CONST	ENDS
;	COMDAT ??_C@_0EM@BMAFGIHC@CPythonNetworkStream?3?3SendPartyU@
CONST	SEGMENT
??_C@_0EM@BMAFGIHC@CPythonNetworkStream?3?3SendPartyU@ DB 'CPythonNetwork'
	DB	'Stream::SendPartyUseSkillPacket(%ud, %ud) - PACKET SEND ERROR'
	DB	00H						; `string'
CONST	ENDS
;	COMDAT ??_C@_0CA@HANJMBEA@?5?$DM?$DM?5SendPartyRemovePacket?5?3?5?$CFd?6?$AA@
CONST	SEGMENT
??_C@_0CA@HANJMBEA@?5?$DM?$DM?5SendPartyRemovePacket?5?3?5?$CFd?6?$AA@ DB ' '
	DB	'<< SendPartyRemovePacket : %d', 0aH, 00H	; `string'
CONST	ENDS
;	COMDAT ??_C@_0EM@FFPCCHJM@CPythonNetworkStream?3?3SendPartyS@
CONST	SEGMENT
??_C@_0EM@FFPCCHJM@CPythonNetworkStream?3?3SendPartyS@ DB 'CPythonNetwork'
	DB	'Stream::SendPartySetStatePacket(%ud, %ud) - PACKET SEND ERROR'
	DB	00H						; `string'
CONST	ENDS
;	COMDAT ??_C@_0CK@GHKGLGPO@?5?$DM?$DM?5SendPartyInviteAnswerPacket?5@
CONST	SEGMENT
??_C@_0CK@GHKGLGPO@?5?$DM?$DM?5SendPartyInviteAnswerPacket?5@ DB ' << Sen'
	DB	'dPartyInviteAnswerPacket : %d, %d', 0aH, 00H ; `string'
CONST	ENDS
;	COMDAT ??_C@_0EG@BBBGKACF@CPythonNetworkStream?3?3SendPartyR@
CONST	SEGMENT
??_C@_0EG@BBBGKACF@CPythonNetworkStream?3?3SendPartyR@ DB 'CPythonNetwork'
	DB	'Stream::SendPartyRemovePacket [%ud] - PACKET SEND ERROR', 00H ; `string'
CONST	ENDS
;	COMDAT ??_C@_0CA@GNHHEHBK@?5?$DM?$DM?5SendPartyInvitePacket?5?3?5?$CFd?6?$AA@
CONST	SEGMENT
??_C@_0CA@GNHHEHBK@?5?$DM?$DM?5SendPartyInvitePacket?5?3?5?$CFd?6?$AA@ DB ' '
	DB	'<< SendPartyInvitePacket : %d', 0aH, 00H	; `string'
CONST	ENDS
;	COMDAT ??_C@_0FA@IIILKEFH@CPythonNetworkStream?3?3SendPartyI@
CONST	SEGMENT
??_C@_0FA@IIILKEFH@CPythonNetworkStream?3?3SendPartyI@ DB 'CPythonNetwork'
	DB	'Stream::SendPartyInviteAnswerPacket [%ud %ud] - PACKET SEND E'
	DB	'RROR', 00H					; `string'
CONST	ENDS
;	COMDAT ??_C@_0DM@NAODJGJE@CPythonNetworkStream?3?3SendSyncPo@
CONST	SEGMENT
??_C@_0DM@NAODJGJE@CPythonNetworkStream?3?3SendSyncPo@ DB 'CPythonNetwork'
	DB	'Stream::SendSyncPositionElementPacket - ERROR', 00H ; `string'
CONST	ENDS
;	COMDAT ??_C@_0EG@HLBPKODM@CPythonNetworkStream?3?3SendPartyI@
CONST	SEGMENT
??_C@_0EG@HLBPKODM@CPythonNetworkStream?3?3SendPartyI@ DB 'CPythonNetwork'
	DB	'Stream::SendPartyInvitePacket [%ud] - PACKET SEND ERROR', 00H ; `string'
CONST	ENDS
;	COMDAT ??_C@_0BP@MONNHODC@Send?5FlyTargeting?5Packet?5Error?$AA@
CONST	SEGMENT
??_C@_0BP@MONNHODC@Send?5FlyTargeting?5Packet?5Error?$AA@ DB 'Send FlyTar'
	DB	'geting Packet Error', 00H			; `string'
CONST	ENDS
;	COMDAT ??_C@_0BJ@MBCMDDJG@Send?5Target?5Packet?5Error?$AA@
CONST	SEGMENT
??_C@_0BJ@MBCMDDJG@Send?5Target?5Packet?5Error?$AA@ DB 'Send Target Packe'
	DB	't Error', 00H				; `string'
CONST	ENDS
;	COMDAT ??_C@_0EM@NIJLGOIC@CPythonNetworkStream?3?3RecvFlyTar@
CONST	SEGMENT
??_C@_0EM@NIJLGOIC@CPythonNetworkStream?3?3RecvFlyTar@ DB 'CPythonNetwork'
	DB	'Stream::RecvFlyTargetingPacket() - dwShooterVID[%d] NOT EXIST'
	DB	00H						; `string'
CONST	ENDS
;	COMDAT ??_C@_0BG@GKKFNNN@SendShootPacket?5Error?$AA@
CONST	SEGMENT
??_C@_0BG@GKKFNNN@SendShootPacket?5Error?$AA@ DB 'SendShootPacket Error', 00H ; `string'
CONST	ENDS
;	COMDAT ??_C@_0CA@IBBLODAF@Send?5Battle?5Attack?5Packet?5Error?$AA@
CONST	SEGMENT
??_C@_0CA@IBBLODAF@Send?5Battle?5Attack?5Packet?5Error?$AA@ DB 'Send Batt'
	DB	'le Attack Packet Error', 00H		; `string'
CONST	ENDS
;	COMDAT ??_C@_0BN@KNAMGOGH@VID?5?$FL?$CFd?$FN?$LA?$KB?5?E?$LI?$LA?Y?$MA?$LL?5?C?$NP?$LA?$KB?5?$LM?$LD?A?$KE?6?$AA@
CONST	SEGMENT
??_C@_0BN@KNAMGOGH@VID?5?$FL?$CFd?$FN?$LA?$KB?5?E?$LI?$LA?Y?$MA?$LL?5?C?$NP?$LA?$KB?5?$LM?$LD?A?$KE?6?$AA@ DB 'V'
	DB	'ID [%d]', 0b0H, 0a1H, ' ', 0c5H, 0b8H, 0b0H, 0d9H, 0c0H, 0bbH
	DB	' ', 0c3H, 0dfH, 0b0H, 0a1H, ' ', 0bcH, 0b3H, 0c1H, 0a4H, 0aH, 00H ; `string'
CONST	ENDS
;	COMDAT ??_C@_0BI@LEDBDCKL@Recv?5Mount?5Packet?5Error?$AA@
CONST	SEGMENT
??_C@_0BI@LEDBDCKL@Recv?5Mount?5Packet?5Error?$AA@ DB 'Recv Mount Packet '
	DB	'Error', 00H					; `string'
CONST	ENDS
;	COMDAT ??_C@_0BI@OCDKMKMI@Recv?5Speed?5Packet?5Error?$AA@
CONST	SEGMENT
??_C@_0BI@OCDKMKMI@Recv?5Speed?5Packet?5Error?$AA@ DB 'Recv Speed Packet '
	DB	'Error', 00H					; `string'
CONST	ENDS
;	COMDAT ??_C@_0BM@KLEOIHKF@CloseTargetBoardIfDifferent?$AA@
CONST	SEGMENT
??_C@_0BM@KLEOIHKF@CloseTargetBoardIfDifferent?$AA@ DB 'CloseTargetBoardI'
	DB	'fDifferent', 00H				; `string'
CONST	ENDS
;	COMDAT ??_C@_0BB@PDPGJKAD@SetHPTargetBoard?$AA@
CONST	SEGMENT
??_C@_0BB@PDPGJKAD@SetHPTargetBoard?$AA@ DB 'SetHPTargetBoard', 00H ; `string'
CONST	ENDS
;	COMDAT ??_C@_0BJ@HIJGCIDI@Recv?5Target?5Packet?5Error?$AA@
CONST	SEGMENT
??_C@_0BJ@HIJGCIDI@Recv?5Target?5Packet?5Error?$AA@ DB 'Recv Target Packe'
	DB	't Error', 00H				; `string'
CONST	ENDS
;	COMDAT ??_C@_0BM@PIHJNOHE@Damage?5is?5equal?5or?5below?50?4?$AA@
CONST	SEGMENT
??_C@_0BM@PIHJNOHE@Damage?5is?5equal?5or?5below?50?4?$AA@ DB 'Damage is e'
	DB	'qual or below 0.', 00H			; `string'
CONST	ENDS
;	COMDAT ??_C@_0BE@OJMAIMGE@?5?$DO?$DO?5RecvSkillLevel?6?$AA@
CONST	SEGMENT
??_C@_0BE@OJMAIMGE@?5?$DO?$DO?5RecvSkillLevel?6?$AA@ DB ' >> RecvSkillLev'
	DB	'el', 0aH, 00H				; `string'
CONST	ENDS
;	COMDAT ??_C@_0DE@EBNCHOOM@CPythonNetworkStream?3?3RecvSkillL@
CONST	SEGMENT
??_C@_0DE@EBNCHOOM@CPythonNetworkStream?3?3RecvSkillL@ DB 'CPythonNetwork'
	DB	'Stream::RecvSkillLevelNew - RecvError', 00H	; `string'
CONST	ENDS
;	COMDAT ??_C@_0DH@MPAMADMO@CPythonNetworkStream?3?3RecvSkillC@
CONST	SEGMENT
??_C@_0DH@MPAMADMO@CPythonNetworkStream?3?3RecvSkillC@ DB 'CPythonNetwork'
	DB	'Stream::RecvSkillCoolTimeEnd - RecvError', 00H ; `string'
CONST	ENDS
;	COMDAT ??_C@_0DB@OELACDEA@CPythonNetworkStream?3?3RecvSkillL@
CONST	SEGMENT
??_C@_0DB@OELACDEA@CPythonNetworkStream?3?3RecvSkillL@ DB 'CPythonNetwork'
	DB	'Stream::RecvSkillLevel - RecvError', 00H	; `string'
CONST	ENDS
;	COMDAT ??_C@_0BN@IAHFIDIL@SendQuestConfirmPacket?5Error?$AA@
CONST	SEGMENT
??_C@_0BN@IAHFIDIL@SendQuestConfirmPacket?5Error?$AA@ DB 'SendQuestConfir'
	DB	'mPacket Error', 00H				; `string'
CONST	ENDS
;	COMDAT ??_C@_0CB@HKJKPPKG@?5SendQuestConfirmPacket?5?3?5?$CFd?0?5?$CFd@
CONST	SEGMENT
??_C@_0CB@HKJKPPKG@?5SendQuestConfirmPacket?5?3?5?$CFd?0?5?$CFd@ DB ' Sen'
	DB	'dQuestConfirmPacket : %d, %d', 00H		; `string'
CONST	ENDS
;	COMDAT ??_C@_0CB@FGDJCCCM@SendAnswerMakeGuild?5Packet?5Error@
CONST	SEGMENT
??_C@_0CB@FGDJCCCM@SendAnswerMakeGuild?5Packet?5Error@ DB 'SendAnswerMake'
	DB	'Guild Packet Error', 00H			; `string'
CONST	ENDS
;	COMDAT ??_C@_0CB@KDIADHIP@SendQuestInputStringPacket?5Error@
CONST	SEGMENT
??_C@_0CB@KDIADHIP@SendQuestInputStringPacket?5Error@ DB 'SendQuestInputS'
	DB	'tringPacket Error', 00H			; `string'
CONST	ENDS
;	COMDAT ??_C@_0CA@GLOCGDPA@Send?5Script?5Answer?5Packet?5Error?$AA@
CONST	SEGMENT
??_C@_0CA@GLOCGDPA@Send?5Script?5Answer?5Packet?5Error?$AA@ DB 'Send Scri'
	DB	'pt Answer Packet Error', 00H		; `string'
CONST	ENDS
;	COMDAT ??_C@_0CA@DKGOFDHL@Send?5Script?5Button?5Packet?5Error?$AA@
CONST	SEGMENT
??_C@_0CA@DKGOFDHL@Send?5Script?5Button?5Packet?5Error?$AA@ DB 'Send Scri'
	DB	'pt Button Packet Error', 00H		; `string'
CONST	ENDS
;	COMDAT ??_C@_0BL@GIIBIOJB@RecvScriptPacket_RecvError?$AA@
CONST	SEGMENT
??_C@_0BL@GIIBIOJB@RecvScriptPacket_RecvError?$AA@ DB 'RecvScriptPacket_R'
	DB	'ecvError', 00H				; `string'
CONST	ENDS
;	COMDAT ??_C@_0BL@FELFLKOI@RecvScriptPacket_SizeError?$AA@
CONST	SEGMENT
??_C@_0BL@FELFLKOI@RecvScriptPacket_SizeError?$AA@ DB 'RecvScriptPacket_S'
	DB	'izeError', 00H				; `string'
CONST	ENDS
;	COMDAT ??_C@_0BO@FJKDIHPJ@send_trade_exit_packet?5Error?6?$AA@
CONST	SEGMENT
??_C@_0BO@FJKDIHPJ@send_trade_exit_packet?5Error?6?$AA@ DB 'send_trade_ex'
	DB	'it_packet Error', 0aH, 00H			; `string'
CONST	ENDS
;	COMDAT ??_C@_0BA@ILEGHCPF@StartPointReset?$AA@
CONST	SEGMENT
??_C@_0BA@ILEGHCPF@StartPointReset?$AA@ DB 'StartPointReset', 00H ; `string'
CONST	ENDS
;	COMDAT ??_C@_0CC@IFEOOANP@send_trade_item_del_packet?5Error@
CONST	SEGMENT
??_C@_0CC@IFEOOANP@send_trade_item_del_packet?5Error@ DB 'send_trade_item'
	DB	'_del_packet Error', 0aH, 00H		; `string'
CONST	ENDS
;	COMDAT ??_C@_0CA@EEPLBN@send_trade_accept_packet?5Error?6?$AA@
CONST	SEGMENT
??_C@_0CA@EEPLBN@send_trade_accept_packet?5Error?6?$AA@ DB 'send_trade_ac'
	DB	'cept_packet Error', 0aH, 00H		; `string'
CONST	ENDS
;	COMDAT ??_C@_0CB@EABMKDBI@send_trade_elk_add_packet?5Error?6@
CONST	SEGMENT
??_C@_0CB@EABMKDBI@send_trade_elk_add_packet?5Error?6@ DB 'send_trade_elk'
	DB	'_add_packet Error', 0aH, 00H		; `string'
CONST	ENDS
;	COMDAT ??_C@_0CC@JFABNFDE@send_trade_item_add_packet?5Error@
CONST	SEGMENT
??_C@_0CC@JFABNFDE@send_trade_item_add_packet?5Error@ DB 'send_trade_item'
	DB	'_add_packet Error', 0aH, 00H		; `string'
CONST	ENDS
;	COMDAT ??_C@_0BP@CGFAIMHK@send_trade_start_packet?5Error?6?$AA@
CONST	SEGMENT
??_C@_0BP@CGFAIMHK@send_trade_start_packet?5Error?6?$AA@ DB 'send_trade_s'
	DB	'tart_packet Error', 0aH, 00H		; `string'
CONST	ENDS
;	COMDAT ??_C@_0CD@FOAEKPNP@send_trade_start_packet?5?5?5vid?5?$CFd@
CONST	SEGMENT
??_C@_0CD@FOAEKPNP@send_trade_start_packet?5?5?5vid?5?$CFd@ DB 'send_trad'
	DB	'e_start_packet   vid %d ', 0aH, 00H		; `string'
CONST	ENDS
;	COMDAT ??_C@_0N@FKOIEIPK@AskGuildName?$AA@
CONST	SEGMENT
??_C@_0N@FKOIEIPK@AskGuildName?$AA@ DB 'AskGuildName', 00H ; `string'
CONST	ENDS
;	COMDAT ??_C@_0BA@BHDOCKEA@ToggleDebugInfo?$AA@
CONST	SEGMENT
??_C@_0BA@BHDOCKEA@ToggleDebugInfo?$AA@ DB 'ToggleDebugInfo', 00H ; `string'
CONST	ENDS
;	COMDAT ??_C@_0BG@KIBJJMEI@BINARY_OnQuestConfirm?$AA@
CONST	SEGMENT
??_C@_0BG@KIBJJMEI@BINARY_OnQuestConfirm?$AA@ DB 'BINARY_OnQuestConfirm', 00H ; `string'
CONST	ENDS
;	COMDAT ??_C@_0CC@ELOCPLFN@RecvRequestMakeGuild?5Packet?5Erro@
CONST	SEGMENT
??_C@_0CC@ELOCPLFN@RecvRequestMakeGuild?5Packet?5Erro@ DB 'RecvRequestMak'
	DB	'eGuild Packet Error', 00H			; `string'
CONST	ENDS
;	COMDAT ??_C@_0N@IPPKALM@RefreshQuest?$AA@
CONST	SEGMENT
??_C@_0N@IPPKALM@RefreshQuest?$AA@ DB 'RefreshQuest', 00H ; `string'
CONST	ENDS
;	COMDAT ??_C@_0BN@JBCFOMDG@RecvQuestConfirmPacket?5Error?$AA@
CONST	SEGMENT
??_C@_0BN@JBCFOMDG@RecvQuestConfirmPacket?5Error?$AA@ DB 'RecvQuestConfir'
	DB	'mPacket Error', 00H				; `string'
CONST	ENDS
;	COMDAT ??_C@_0CA@CACIOMDA@Recv?5Quest?5Info?5Packet?5Error?5?$CD1?$AA@
CONST	SEGMENT
??_C@_0CA@CACIOMDA@Recv?5Quest?5Info?5Packet?5Error?5?$CD1?$AA@ DB 'Recv '
	DB	'Quest Info Packet Error #1', 00H		; `string'
CONST	ENDS
;	COMDAT ??_C@_0CA@LAFLPPD@Recv?5Quest?5Info?5Packet?5Error?5?$CD2?$AA@
CONST	SEGMENT
??_C@_0CA@LAFLPPD@Recv?5Quest?5Info?5Packet?5Error?5?$CD2?$AA@ DB 'Recv Q'
	DB	'uest Info Packet Error #2', 00H		; `string'
CONST	ENDS
;	COMDAT ??_C@_0O@LLCGBEIB@trade_already?$AA@
CONST	SEGMENT
??_C@_0O@LLCGBEIB@trade_already?$AA@ DB 'trade_already', 00H ; `string'
CONST	ENDS
;	COMDAT ??_C@_0P@DNLFDBJJ@trade_less_elk?$AA@
CONST	SEGMENT
??_C@_0P@DNLFDBJJ@trade_less_elk?$AA@ DB 'trade_less_elk', 00H ; `string'
CONST	ENDS
;	COMDAT ??_C@_0O@HKIIBLHD@StartExchange?$AA@
CONST	SEGMENT
??_C@_0O@HKIIBLHD@StartExchange?$AA@ DB 'StartExchange', 00H ; `string'
CONST	ENDS
;	COMDAT ??_C@_0M@GJLEGLOM@EndExchange?$AA@
CONST	SEGMENT
??_C@_0M@GJLEGLOM@EndExchange?$AA@ DB 'EndExchange', 00H ; `string'
CONST	ENDS
;	COMDAT ??_C@_0M@HAELFLPD@INVALID_POS?$AA@
CONST	SEGMENT
??_C@_0M@HAELFLPD@INVALID_POS?$AA@ DB 'INVALID_POS', 00H ; `string'
CONST	ENDS
;	COMDAT ??_C@_0DJ@IGANFIGP@CPythonNetworkStream?3?3RecvShopPa@
CONST	SEGMENT
??_C@_0DJ@IGANFIGP@CPythonNetworkStream?3?3RecvShopPa@ DB 'CPythonNetwork'
	DB	'Stream::RecvShopPacket: Unknown subheader', 0aH, 00H ; `string'
CONST	ENDS
;	COMDAT ??_C@_07FBAJNJNN@SOLDOUT?$AA@
CONST	SEGMENT
??_C@_07FBAJNJNN@SOLDOUT?$AA@ DB 'SOLDOUT', 00H		; `string'
CONST	ENDS
;	COMDAT ??_C@_0P@HIHIAGBD@INVENTORY_FULL?$AA@
CONST	SEGMENT
??_C@_0P@HIHIAGBD@INVENTORY_FULL?$AA@ DB 'INVENTORY_FULL', 00H ; `string'
CONST	ENDS
;	COMDAT ??_C@_0M@NHHHAHOK@OnShopError?$AA@
CONST	SEGMENT
??_C@_0M@NHHHAHOK@OnShopError?$AA@ DB 'OnShopError', 00H ; `string'
CONST	ENDS
;	COMDAT ??_C@_0BE@OHHJLOIF@NOT_ENOUGH_MONEY_EX?$AA@
CONST	SEGMENT
??_C@_0BE@OHHJLOIF@NOT_ENOUGH_MONEY_EX?$AA@ DB 'NOT_ENOUGH_MONEY_EX', 00H ; `string'
CONST	ENDS
;	COMDAT ??_C@_0BE@MHMAEIEM@SetShopSellingPrice?$AA@
CONST	SEGMENT
??_C@_0BE@MHMAEIEM@SetShopSellingPrice?$AA@ DB 'SetShopSellingPrice', 00H ; `string'
CONST	ENDS
;	COMDAT ??_C@_0BB@GHBGEHD@NOT_ENOUGH_MONEY?$AA@
CONST	SEGMENT
??_C@_0BB@GHBGEHD@NOT_ENOUGH_MONEY?$AA@ DB 'NOT_ENOUGH_MONEY', 00H ; `string'
CONST	ENDS
;	COMDAT ??_C@_07FONJAJPH@EndShop?$AA@
CONST	SEGMENT
??_C@_07FONJAJPH@EndShop?$AA@ DB 'EndShop', 00H		; `string'
CONST	ENDS
;	COMDAT ??_C@_0M@DLPMCOFP@RefreshShop?$AA@
CONST	SEGMENT
??_C@_0M@DLPMCOFP@RefreshShop?$AA@ DB 'RefreshShop', 00H ; `string'
CONST	ENDS
;	COMDAT ??_C@_0BD@ICLELGCO@SendOnClickPacket?6?$AA@
CONST	SEGMENT
??_C@_0BD@ICLELGCO@SendOnClickPacket?6?$AA@ DB 'SendOnClickPacket', 0aH, 00H ; `string'
CONST	ENDS
;	COMDAT ??_C@_09PJIJIJPH@StartShop?$AA@
CONST	SEGMENT
??_C@_09PJIJIJPH@StartShop?$AA@ DB 'StartShop', 00H	; `string'
CONST	ENDS
;	COMDAT ??_C@_0CF@OKKJKDKD@Send?5Character?5Position?5Packet?5E@
CONST	SEGMENT
??_C@_0CF@OKKJKDKD@Send?5Character?5Position?5Packet?5E@ DB 'Send Charact'
	DB	'er Position Packet Error', 00H		; `string'
CONST	ENDS
;	COMDAT ??_C@_0BL@HCNNPICH@Send?5On_Click?5Packet?5Error?$AA@
CONST	SEGMENT
??_C@_0BL@HCNNPICH@Send?5On_Click?5Packet?5Error?$AA@ DB 'Send On_Click P'
	DB	'acket Error', 00H				; `string'
CONST	ENDS
;	COMDAT ??_C@_0M@BDKDPHGA@?A?V?$MA?N?$LA?x?5?$LL?g?$LI?A?$AA@
CONST	SEGMENT
??_C@_0M@BDKDPHGA@?A?V?$MA?N?$LA?x?5?$LL?g?$LI?A?$AA@ DB 0c1H, 0d6H, 0c0H
	DB	0ceH, 0b0H, 0f8H, ' ', 0bbH, 0e7H, 0b8H, 0c1H, 00H ; `string'
CONST	ENDS
;	COMDAT ??_C@_0L@MNOOMILJ@OnGameOver?$AA@
CONST	SEGMENT
??_C@_0L@MNOOMILJ@OnGameOver?$AA@ DB 'OnGameOver', 00H	; `string'
CONST	ENDS
;	COMDAT ??_C@_0CL@MKMKFBIM@CPythonNetworkStream?3?3RecvStunPa@
CONST	SEGMENT
??_C@_0CL@MKMKFBIM@CPythonNetworkStream?3?3RecvStunPa@ DB 'CPythonNetwork'
	DB	'Stream::RecvStunPacket Error', 00H		; `string'
CONST	ENDS
;	COMDAT ??_C@_0CL@KJGPDLAC@CPythonNetworkStream?3?3RecvDeadPa@
CONST	SEGMENT
??_C@_0CL@KJGPDLAC@CPythonNetworkStream?3?3RecvDeadPa@ DB 'CPythonNetwork'
	DB	'Stream::RecvDeadPacket Error', 00H		; `string'
CONST	ENDS
;	COMDAT ??_C@_0BP@DGLKKAJF@Recv?5Point?5Change?5Packet?5Error?$AA@
CONST	SEGMENT
??_C@_0BP@DGLKKAJF@Recv?5Point?5Change?5Packet?5Error?$AA@ DB 'Recv Point'
	DB	' Change Packet Error', 00H			; `string'
CONST	ENDS
;	COMDAT ??_C@_0M@JJMCBALF@OnPickMoney?$AA@
CONST	SEGMENT
??_C@_0M@JJMCBALF@OnPickMoney?$AA@ DB 'OnPickMoney', 00H ; `string'
CONST	ENDS
;	COMDAT ??_C@_0BL@MJBHNNKO@OnRecvWhisperSystemMessage?$AA@
CONST	SEGMENT
??_C@_0BL@MJBHNNKO@OnRecvWhisperSystemMessage?$AA@ DB 'OnRecvWhisperSyste'
	DB	'mMessage', 00H				; `string'
CONST	ENDS
;	COMDAT ??_C@_0BD@HFHHLLOG@OnRecvWhisperError?$AA@
CONST	SEGMENT
??_C@_0BD@HFHHLLOG@OnRecvWhisperError?$AA@ DB 'OnRecvWhisperError', 00H ; `string'
CONST	ENDS
;	COMDAT ??_C@_05FKJLIKKL@?$CIiss?$CJ?$AA@
CONST	SEGMENT
??_C@_05FKJLIKKL@?$CIiss?$CJ?$AA@ DB '(iss)', 00H	; `string'
CONST	ENDS
;	COMDAT ??_C@_0O@MLMPGGOH@OnRecvWhisper?$AA@
CONST	SEGMENT
??_C@_0O@MLMPGGOH@OnRecvWhisper?$AA@ DB 'OnRecvWhisper', 00H ; `string'
CONST	ENDS
;	COMDAT ??_C@_0BF@MEFMFHCI@BINARY_SetBigMessage?$AA@
CONST	SEGMENT
??_C@_0BF@MEFMFHCI@BINARY_SetBigMessage?$AA@ DB 'BINARY_SetBigMessage', 00H ; `string'
CONST	ENDS
;	COMDAT ??_C@_07IAFACCAD@?$CFs?5?3?5?$CFs?$AA@
CONST	SEGMENT
??_C@_07IAFACCAD@?$CFs?5?3?5?$CFs?$AA@ DB '%s : %s', 00H ; `string'
CONST	ENDS
;	COMDAT ??_C@_02DKCKIIND@?$CFs?$AA@
CONST	SEGMENT
??_C@_02DKCKIIND@?$CFs?$AA@ DB '%s', 00H		; `string'
CONST	ENDS
;	COMDAT ??_C@_0BF@EKLOHGBI@BINARY_SetTipMessage?$AA@
CONST	SEGMENT
??_C@_0BF@EKLOHGBI@BINARY_SetTipMessage?$AA@ DB 'BINARY_SetTipMessage', 00H ; `string'
CONST	ENDS
;	COMDAT ??_C@_0DN@EFFJHKOL@CPythonNetworkStream?3?3SendUseSki@
CONST	SEGMENT
??_C@_0DN@EFFJHKOL@CPythonNetworkStream?3?3SendUseSki@ DB 'CPythonNetwork'
	DB	'Stream::SendUseSkillPacket - SEND PACKET ERROR', 00H ; `string'
CONST	ENDS
;	COMDAT ??_C@_0DL@GMAAOOOI@Can?8t?5register?5emoticon?5string?4?4@
CONST	SEGMENT
??_C@_0DL@GMAAOOOI@Can?8t?5register?5emoticon?5string?4?4@ DB 'Can''t reg'
	DB	'ister emoticon string... vector is full (size:%d)', 00H ; `string'
CONST	ENDS
;	COMDAT ??_C@_0CE@DHDBME@?5SendMessengerAddByNamePacket?5?3?5@
CONST	SEGMENT
??_C@_0CE@DHDBME@?5SendMessengerAddByNamePacket?5?3?5@ DB ' SendMessenger'
	DB	'AddByNamePacket : %s', 0aH, 00H		; `string'
CONST	ENDS
;	COMDAT ??_C@_0IB@FFAGJAOL@CPythonNetworkStream?3?3SendCharac@
CONST	SEGMENT
??_C@_0IB@FFAGJAOL@CPythonNetworkStream?3?3SendCharac@ DB 'CPythonNetwork'
	DB	'Stream::SendCharacterStatePacket(dwCmdTime=%u, fDstPos=(%f, %'
	DB	'f), fDstRot=%f, eFunc=%d uArg=%d) - PACKET SEND ERROR', 00H ; `string'
CONST	ENDS
;	COMDAT ??_C@_0EC@IHJJGCFB@CPythonNetworkStream?3?3RecvDuelSt@
CONST	SEGMENT
??_C@_0EC@IHJJGCFB@CPythonNetworkStream?3?3RecvDuelSt@ DB 'CPythonNetwork'
	DB	'Stream::RecvDuelStartPacket - MainCharacter is NULL', 00H ; `string'
CONST	ENDS
;	COMDAT ??_C@_0BB@FNPCBFHE@CloseTargetBoard?$AA@
CONST	SEGMENT
??_C@_0BB@FNPCBFHE@CloseTargetBoard?$AA@ DB 'CloseTargetBoard', 00H ; `string'
CONST	ENDS
;	COMDAT ??_C@_0M@DJFBBLID@ShowMapName?$AA@
CONST	SEGMENT
??_C@_0M@DJFBBLID@ShowMapName?$AA@ DB 'ShowMapName', 00H ; `string'
CONST	ENDS
;	COMDAT ??_C@_0BL@HPKACCGC@?$CD?$CD?5Network?5?9?5Game?5Phase?5?$CD?$CD?$AA@
CONST	SEGMENT
??_C@_0BL@HPKACCGC@?$CD?$CD?5Network?5?9?5Game?5Phase?5?$CD?$CD?$AA@ DB '#'
	DB	'# Network - Game Phase ##', 00H		; `string'
CONST	ENDS
;	COMDAT ??_C@_0BG@CBAJOEAC@RefreshGuildGradePage?$AA@
CONST	SEGMENT
??_C@_0BG@CBAJOEAC@RefreshGuildGradePage?$AA@ DB 'RefreshGuildGradePage', 00H ; `string'
CONST	ENDS
;	COMDAT ??_C@_05FONOJENF@?$CIsii?$CJ?$AA@
CONST	SEGMENT
??_C@_05FONOJENF@?$CIsii?$CJ?$AA@ DB '(sii)', 00H	; `string'
CONST	ENDS
;	COMDAT ??_C@_0CE@PAAOLBDB@RefreshGuildMemberPageGradeCombo@
CONST	SEGMENT
??_C@_0CE@PAAOLBDB@RefreshGuildMemberPageGradeCombo@ DB 'RefreshGuildMemb'
	DB	'erPageGradeComboBox', 00H			; `string'
CONST	ENDS
;	COMDAT ??_C@_0BG@MICKDFKA@RefreshGuildSkillPage?$AA@
CONST	SEGMENT
??_C@_0BG@MICKDFKA@RefreshGuildSkillPage?$AA@ DB 'RefreshGuildSkillPage', 00H ; `string'
CONST	ENDS
;	COMDAT ??_C@_0BG@FFPNPADB@RefreshGuildBoardPage?$AA@
CONST	SEGMENT
??_C@_0BG@FFPNPADB@RefreshGuildBoardPage?$AA@ DB 'RefreshGuildBoardPage', 00H ; `string'
CONST	ENDS
;	COMDAT ??_C@_0BH@BOJHBBF@RefreshGuildMemberPage?$AA@
CONST	SEGMENT
??_C@_0BH@BOJHBBF@RefreshGuildMemberPage?$AA@ DB 'RefreshGuildMemberPage', 00H ; `string'
CONST	ENDS
;	COMDAT ??_C@_0BB@CDMJAHKO@RefreshMessenger?$AA@
CONST	SEGMENT
??_C@_0BB@CDMJAHKO@RefreshMessenger?$AA@ DB 'RefreshMessenger', 00H ; `string'
CONST	ENDS
;	COMDAT ??_C@_0BF@NLJDKFFK@RefreshGuildInfoPage?$AA@
CONST	SEGMENT
??_C@_0BF@NLJDKFFK@RefreshGuildInfoPage?$AA@ DB 'RefreshGuildInfoPage', 00H ; `string'
CONST	ENDS
;	COMDAT ??_C@_0M@HNBFKLDC@RefreshMall?$AA@
CONST	SEGMENT
??_C@_0M@HNBFKLDC@RefreshMall?$AA@ DB 'RefreshMall', 00H ; `string'
CONST	ENDS
;	COMDAT ??_C@_0O@PDJLBMPA@RefreshStatus?$AA@
CONST	SEGMENT
??_C@_0O@PDJLBMPA@RefreshStatus?$AA@ DB 'RefreshStatus', 00H ; `string'
CONST	ENDS
;	COMDAT ??_C@_0N@EFFAOLPI@RefreshSkill?$AA@
CONST	SEGMENT
??_C@_0N@EFFAOLPI@RefreshSkill?$AA@ DB 'RefreshSkill', 00H ; `string'
CONST	ENDS
;	COMDAT ??_C@_0P@PHDJJCCP@RefreshSafebox?$AA@
CONST	SEGMENT
??_C@_0P@PHDJJCCP@RefreshSafebox?$AA@ DB 'RefreshSafebox', 00H ; `string'
CONST	ENDS
;	COMDAT ??_C@_0BB@JLCHKFKI@RefreshInventory?$AA@
CONST	SEGMENT
??_C@_0BB@JLCHKFKI@RefreshInventory?$AA@ DB 'RefreshInventory', 00H ; `string'
CONST	ENDS
;	COMDAT ??_C@_0BA@JECEPFD@RefreshExchange?$AA@
CONST	SEGMENT
??_C@_0BA@JECEPFD@RefreshExchange?$AA@ DB 'RefreshExchange', 00H ; `string'
CONST	ENDS
;	COMDAT ??_C@_0BB@HFALJDHO@RefreshCharacter?$AA@
CONST	SEGMENT
??_C@_0BB@HFALJDHO@RefreshCharacter?$AA@ DB 'RefreshCharacter', 00H ; `string'
CONST	ENDS
;	COMDAT ??_C@_0BB@CAEOPHDE@RefreshEquipment?$AA@
CONST	SEGMENT
??_C@_0BB@CAEOPHDE@RefreshEquipment?$AA@ DB 'RefreshEquipment', 00H ; `string'
CONST	ENDS
;	COMDAT ??_C@_0BD@FLFBFOOJ@RefreshTargetBoard?$AA@
CONST	SEGMENT
??_C@_0BD@FLFBFOOJ@RefreshTargetBoard?$AA@ DB 'RefreshTargetBoard', 00H ; `string'
CONST	ENDS
;	COMDAT ??_C@_04IBBNLEM@Game?$AA@
CONST	SEGMENT
??_C@_04IBBNLEM@Game?$AA@ DB 'Game', 00H		; `string'
CONST	ENDS
;	COMDAT ??_C@_0BI@IJENFIMO@RefreshTargetBoardByVID?$AA@
CONST	SEGMENT
??_C@_0BI@IJENFIMO@RefreshTargetBoardByVID?$AA@ DB 'RefreshTargetBoardByV'
	DB	'ID', 00H					; `string'
CONST	ENDS
;	COMDAT ??_C@_0BJ@GGFFBLPA@RefreshTargetBoardByName?$AA@
CONST	SEGMENT
??_C@_0BJ@GGFFBLPA@RefreshTargetBoardByName?$AA@ DB 'RefreshTargetBoardBy'
	DB	'Name', 00H					; `string'
CONST	ENDS
;	COMDAT ??_C@_0BB@DGNNMOLK@RefreshAlignment?$AA@
CONST	SEGMENT
??_C@_0BB@DGNNMOLK@RefreshAlignment?$AA@ DB 'RefreshAlignment', 00H ; `string'
?gs_bEmpireLanuageEnable@@3HA DD 01H			; gs_bEmpireLanuageEnable
PUBLIC	?strchr@@YAPADPADH@Z				; strchr
PUBLIC	??4?$basic_string@DU?$char_traits@D@std@@V?$allocator@D@2@@std@@QAEAAV01@$$QAV01@@Z ; std::basic_string<char,std::char_traits<char>,std::allocator<char> >::operator=
PUBLIC	??$assign@V?$_String_iterator@V?$_String_val@U?$_Simple_types@D@std@@@std@@@std@@@?$basic_string@DU?$char_traits@D@std@@V?$allocator@D@2@@std@@QAEAAV01@V?$_String_iterator@V?$_String_val@U?$_Simple_types@D@std@@@std@@@1@0@Z ; std::basic_string<char,std::char_traits<char>,std::allocator<char> >::assign<std::_String_iterator<std::_String_val<std::_Simple_types<char> > > >
PUBLIC	?replace@?$basic_string@DU?$char_traits@D@std@@V?$allocator@D@2@@std@@QAEAAV12@V?$_String_const_iterator@V?$_String_val@U?$_Simple_types@D@std@@@std@@@2@0V?$_String_iterator@V?$_String_val@U?$_Simple_types@D@std@@@std@@@2@1@Z ; std::basic_string<char,std::char_traits<char>,std::allocator<char> >::replace
PUBLIC	?_Pdif@?$basic_string@DU?$char_traits@D@std@@V?$allocator@D@2@@std@@SAIV?$_String_const_iterator@V?$_String_val@U?$_Simple_types@D@std@@@std@@@2@0@Z ; std::basic_string<char,std::char_traits<char>,std::allocator<char> >::_Pdif
PUBLIC	??G?$_String_const_iterator@V?$_String_val@U?$_Simple_types@D@std@@@std@@@std@@QBEHABV01@@Z ; std::_String_const_iterator<std::_String_val<std::_Simple_types<char> > >::operator-
PUBLIC	??G?$_String_iterator@V?$_String_val@U?$_Simple_types@D@std@@@std@@@std@@QBEHABV?$_String_const_iterator@V?$_String_val@U?$_Simple_types@D@std@@@std@@@1@@Z ; std::_String_iterator<std::_String_val<std::_Simple_types<char> > >::operator-
PUBLIC	?replace@?$basic_string@DU?$char_traits@D@std@@V?$allocator@D@2@@std@@QAEAAV12@IIPBDI@Z ; std::basic_string<char,std::char_traits<char>,std::allocator<char> >::replace
PUBLIC	?replace@?$basic_string@DU?$char_traits@D@std@@V?$allocator@D@2@@std@@QAEAAV12@IIABV12@II@Z ; std::basic_string<char,std::char_traits<char>,std::allocator<char> >::replace
PUBLIC	?NoPath@CFileNameHelper@@SA?AV?$basic_string@DU?$char_traits@D@std@@V?$allocator@D@2@@std@@AAV23@@Z ; CFileNameHelper::NoPath
PUBLIC	?ChangeDosPath@CFileNameHelper@@SAXAAV?$basic_string@DU?$char_traits@D@std@@V?$allocator@D@2@@std@@@Z ; CFileNameHelper::ChangeDosPath
PUBLIC	?at@?$basic_string@DU?$char_traits@D@std@@V?$allocator@D@2@@std@@QAEAADI@Z ; std::basic_string<char,std::char_traits<char>,std::allocator<char> >::at
PUBLIC	?_Fill_n@std@@YAPADPADID@Z			; std::_Fill_n
PUBLIC	??$_Uninit_move@DDD@std@@YAPADPAD00AAU?$_Wrap_alloc@V?$allocator@D@std@@@0@0U_Scalar_ptr_iterator_tag@0@@Z ; std::_Uninit_move<char,char,char>
PUBLIC	??$_Rechecked@PADPAD@std@@YAAAPADAAPADPAD@Z	; std::_Rechecked<char *,char *>
PUBLIC	??$_Uninit_move@PADPADU?$_Wrap_alloc@V?$allocator@D@std@@@std@@@std@@YAPADPAD00AAU?$_Wrap_alloc@V?$allocator@D@std@@@0@@Z ; std::_Uninit_move<char *,char *,std::_Wrap_alloc<std::allocator<char> > >
PUBLIC	??$_Unchecked@PAD@std@@YAPADPAD@Z		; std::_Unchecked<char *>
PUBLIC	??$_Fill_n@PAPAV?$basic_string@DU?$char_traits@D@std@@V?$allocator@D@2@@std@@IPAV12@@std@@YAPAPAV?$basic_string@DU?$char_traits@D@std@@V?$allocator@D@2@@0@PAPAV10@IABQAV10@@Z ; std::_Fill_n<std::basic_string<char,std::char_traits<char>,std::allocator<char> > * *,unsigned int,std::basic_string<char,std::char_traits<char>,std::allocator<char> > *>
PUBLIC	??$_Uninit_copy@PAV?$basic_string@DU?$char_traits@D@std@@V?$allocator@D@2@@std@@PAV12@@std@@YAPAPAV?$basic_string@DU?$char_traits@D@std@@V?$allocator@D@2@@0@PAPAV10@00AAU?$_Wrap_alloc@V?$allocator@PAV?$basic_string@DU?$char_traits@D@std@@V?$allocator@D@2@@std@@@std@@@0@U_Scalar_ptr_iterator_tag@0@@Z ; std::_Uninit_copy<std::basic_string<char,std::char_traits<char>,std::allocator<char> > *,std::basic_string<char,std::char_traits<char>,std::allocator<char> > *>
PUBLIC	??$_Uninitialized_move@PADPADU?$_Wrap_alloc@V?$allocator@D@std@@@std@@@std@@YAPADPAD00AAU?$_Wrap_alloc@V?$allocator@D@std@@@0@@Z ; std::_Uninitialized_move<char *,char *,std::_Wrap_alloc<std::allocator<char> > >
PUBLIC	??$_Destroy_range@U?$_Wrap_alloc@V?$allocator@D@std@@@std@@@std@@YAXPAD0AAU?$_Wrap_alloc@V?$allocator@D@std@@@0@U_Scalar_ptr_iterator_tag@0@@Z ; std::_Destroy_range<std::_Wrap_alloc<std::allocator<char> > >
PUBLIC	??$_Destroy_range@U?$_Wrap_alloc@V?$allocator@PAV?$basic_string@DU?$char_traits@D@std@@V?$allocator@D@2@@std@@@std@@@std@@@std@@YAXPAPAV?$basic_string@DU?$char_traits@D@std@@V?$allocator@D@2@@0@0AAU?$_Wrap_alloc@V?$allocator@PAV?$basic_string@DU?$char_traits@D@std@@V?$allocator@D@2@@std@@@std@@@0@U_Scalar_ptr_iterator_tag@0@@Z ; std::_Destroy_range<std::_Wrap_alloc<std::allocator<std::basic_string<char,std::char_traits<char>,std::allocator<char> > *> > >
PUBLIC	??$_Uninit_def_fill_n@PAV?$basic_string@DU?$char_traits@D@std@@V?$allocator@D@2@@std@@IPAV12@@std@@YAXPAPAV?$basic_string@DU?$char_traits@D@std@@V?$allocator@D@2@@0@IAAU?$_Wrap_alloc@V?$allocator@PAV?$basic_string@DU?$char_traits@D@std@@V?$allocator@D@2@@std@@@std@@@0@0U_Scalar_ptr_iterator_tag@0@@Z ; std::_Uninit_def_fill_n<std::basic_string<char,std::char_traits<char>,std::allocator<char> > *,unsigned int,std::basic_string<char,std::char_traits<char>,std::allocator<char> > *>
PUBLIC	??$_Ptr_cat@PAV?$basic_string@DU?$char_traits@D@std@@V?$allocator@D@2@@std@@PAV12@@std@@YA?AU_Scalar_ptr_iterator_tag@0@PAPAV?$basic_string@DU?$char_traits@D@std@@V?$allocator@D@2@@0@0@Z ; std::_Ptr_cat<std::basic_string<char,std::char_traits<char>,std::allocator<char> > *,std::basic_string<char,std::char_traits<char>,std::allocator<char> > *>
PUBLIC	??$_Val_type@PAPAV?$basic_string@DU?$char_traits@D@std@@V?$allocator@D@2@@std@@@std@@YAPAPAV?$basic_string@DU?$char_traits@D@std@@V?$allocator@D@2@@0@PAPAV10@@Z ; std::_Val_type<std::basic_string<char,std::char_traits<char>,std::allocator<char> > * *>
PUBLIC	??$_Rechecked@PAPAV?$basic_string@DU?$char_traits@D@std@@V?$allocator@D@2@@std@@PAPAV12@@std@@YAAAPAPAV?$basic_string@DU?$char_traits@D@std@@V?$allocator@D@2@@0@AAPAPAV10@PAPAV10@@Z ; std::_Rechecked<std::basic_string<char,std::char_traits<char>,std::allocator<char> > * *,std::basic_string<char,std::char_traits<char>,std::allocator<char> > * *>
PUBLIC	??$_Uninit_copy@PAPAV?$basic_string@DU?$char_traits@D@std@@V?$allocator@D@2@@std@@PAPAV12@U?$_Wrap_alloc@V?$allocator@PAV?$basic_string@DU?$char_traits@D@std@@V?$allocator@D@2@@std@@@std@@@2@@std@@YAPAPAV?$basic_string@DU?$char_traits@D@std@@V?$allocator@D@2@@0@PAPAV10@00AAU?$_Wrap_alloc@V?$allocator@PAV?$basic_string@DU?$char_traits@D@std@@V?$allocator@D@2@@std@@@std@@@0@@Z ; std::_Uninit_copy<std::basic_string<char,std::char_traits<char>,std::allocator<char> > * *,std::basic_string<char,std::char_traits<char>,std::allocator<char> > * *,std::_Wrap_alloc<std::allocator<std::basic_string<char,std::char_traits<char>,std::allocator<char> > *> > >
PUBLIC	??$_Unchecked@PAPAV?$basic_string@DU?$char_traits@D@std@@V?$allocator@D@2@@std@@@std@@YAPAPAV?$basic_string@DU?$char_traits@D@std@@V?$allocator@D@2@@0@PAPAV10@@Z ; std::_Unchecked<std::basic_string<char,std::char_traits<char>,std::allocator<char> > * *>
PUBLIC	??$_Uninit_def_fill_n@DID@std@@YAXPADIAAU?$_Wrap_alloc@V?$allocator@D@std@@@0@0U_Scalar_ptr_iterator_tag@0@@Z ; std::_Uninit_def_fill_n<char,unsigned int,char>
PUBLIC	??$_Ptr_cat@DD@std@@YA?AU_Scalar_ptr_iterator_tag@0@PAD0@Z ; std::_Ptr_cat<char,char>
PUBLIC	??$_Val_type@PAD@std@@YAPADPAD@Z		; std::_Val_type<char *>
PUBLIC	??$_Allocate@PAV?$basic_string@DU?$char_traits@D@std@@V?$allocator@D@2@@std@@@std@@YAPAPAV?$basic_string@DU?$char_traits@D@std@@V?$allocator@D@2@@0@IPAPAV10@@Z ; std::_Allocate<std::basic_string<char,std::char_traits<char>,std::allocator<char> > *>
PUBLIC	??$_Umove@PAD@?$vector@DV?$allocator@D@std@@@std@@IAEPADPAD00@Z ; std::vector<char,std::allocator<char> >::_Umove<char *>
PUBLIC	??$_Destroy_range@U?$_Wrap_alloc@V?$allocator@D@std@@@std@@@std@@YAXPAD0AAU?$_Wrap_alloc@V?$allocator@D@std@@@0@@Z ; std::_Destroy_range<std::_Wrap_alloc<std::allocator<char> > >
PUBLIC	??$_Destroy_range@U?$_Wrap_alloc@V?$allocator@PAV?$basic_string@DU?$char_traits@D@std@@V?$allocator@D@2@@std@@@std@@@std@@@std@@YAXPAPAV?$basic_string@DU?$char_traits@D@std@@V?$allocator@D@2@@0@0AAU?$_Wrap_alloc@V?$allocator@PAV?$basic_string@DU?$char_traits@D@std@@V?$allocator@D@2@@std@@@std@@@0@@Z ; std::_Destroy_range<std::_Wrap_alloc<std::allocator<std::basic_string<char,std::char_traits<char>,std::allocator<char> > *> > >
PUBLIC	??$_Uninitialized_default_fill_n@PAPAV?$basic_string@DU?$char_traits@D@std@@V?$allocator@D@2@@std@@IU?$_Wrap_alloc@V?$allocator@PAV?$basic_string@DU?$char_traits@D@std@@V?$allocator@D@2@@std@@@std@@@2@@std@@YAXPAPAV?$basic_string@DU?$char_traits@D@std@@V?$allocator@D@2@@0@IAAU?$_Wrap_alloc@V?$allocator@PAV?$basic_string@DU?$char_traits@D@std@@V?$allocator@D@2@@std@@@std@@@0@@Z ; std::_Uninitialized_default_fill_n<std::basic_string<char,std::char_traits<char>,std::allocator<char> > * *,unsigned int,std::_Wrap_alloc<std::allocator<std::basic_string<char,std::char_traits<char>,std::allocator<char> > *> > >
PUBLIC	??$_Uninitialized_copy@PAPAV?$basic_string@DU?$char_traits@D@std@@V?$allocator@D@2@@std@@PAPAV12@U?$_Wrap_alloc@V?$allocator@PAV?$basic_string@DU?$char_traits@D@std@@V?$allocator@D@2@@std@@@std@@@2@@std@@YAPAPAV?$basic_string@DU?$char_traits@D@std@@V?$allocator@D@2@@0@PAPAV10@00AAU?$_Wrap_alloc@V?$allocator@PAV?$basic_string@DU?$char_traits@D@std@@V?$allocator@D@2@@std@@@std@@@0@@Z ; std::_Uninitialized_copy<std::basic_string<char,std::char_traits<char>,std::allocator<char> > * *,std::basic_string<char,std::char_traits<char>,std::allocator<char> > * *,std::_Wrap_alloc<std::allocator<std::basic_string<char,std::char_traits<char>,std::allocator<char> > *> > >
PUBLIC	??$_Uninitialized_default_fill_n@PADIU?$_Wrap_alloc@V?$allocator@D@std@@@std@@@std@@YAXPADIAAU?$_Wrap_alloc@V?$allocator@D@std@@@0@@Z ; std::_Uninitialized_default_fill_n<char *,unsigned int,std::_Wrap_alloc<std::allocator<char> > >
PUBLIC	?_Setcont@?$_Deque_const_iterator@V?$_Deque_val@U?$_Deque_simple_types@V?$basic_string@DU?$char_traits@D@std@@V?$allocator@D@2@@std@@@std@@@std@@@std@@QAEXPBV?$_Deque_val@U?$_Deque_simple_types@V?$basic_string@DU?$char_traits@D@std@@V?$allocator@D@2@@std@@@std@@@2@@Z ; std::_Deque_const_iterator<std::_Deque_val<std::_Deque_simple_types<std::basic_string<char,std::char_traits<char>,std::allocator<char> > > > >::_Setcont
PUBLIC	??0?$_Deque_const_iterator@V?$_Deque_val@U?$_Deque_simple_types@V?$basic_string@DU?$char_traits@D@std@@V?$allocator@D@2@@std@@@std@@@std@@@std@@QAE@IPBU_Container_base12@1@@Z ; std::_Deque_const_iterator<std::_Deque_val<std::_Deque_simple_types<std::basic_string<char,std::char_traits<char>,std::allocator<char> > > > >::_Deque_const_iterator<std::_Deque_val<std::_Deque_simple_types<std::basic_string<char,std::char_traits<char>,std::allocator<char> > > > >
PUBLIC	?capacity@?$vector@DV?$allocator@D@std@@@std@@QBEIXZ ; std::vector<char,std::allocator<char> >::capacity
PUBLIC	?allocate@?$allocator@PAV?$basic_string@DU?$char_traits@D@std@@V?$allocator@D@2@@std@@@std@@QAEPAPAV?$basic_string@DU?$char_traits@D@std@@V?$allocator@D@2@@2@I@Z ; std::allocator<std::basic_string<char,std::char_traits<char>,std::allocator<char> > *>::allocate
PUBLIC	??D?$_Deque_const_iterator@V?$_Deque_val@U?$_Deque_simple_types@V?$basic_string@DU?$char_traits@D@std@@V?$allocator@D@2@@std@@@std@@@std@@@std@@QBEABV?$basic_string@DU?$char_traits@D@std@@V?$allocator@D@2@@1@XZ ; std::_Deque_const_iterator<std::_Deque_val<std::_Deque_simple_types<std::basic_string<char,std::char_traits<char>,std::allocator<char> > > > >::operator*
PUBLIC	??0?$_Deque_iterator@V?$_Deque_val@U?$_Deque_simple_types@V?$basic_string@DU?$char_traits@D@std@@V?$allocator@D@2@@std@@@std@@@std@@@std@@QAE@IPBU_Container_base12@1@@Z ; std::_Deque_iterator<std::_Deque_val<std::_Deque_simple_types<std::basic_string<char,std::char_traits<char>,std::allocator<char> > > > >::_Deque_iterator<std::_Deque_val<std::_Deque_simple_types<std::basic_string<char,std::char_traits<char>,std::allocator<char> > > > >
PUBLIC	??0?$_Vector_val@U?$_Simple_types@D@std@@@std@@QAE@XZ ; std::_Vector_val<std::_Simple_types<char> >::_Vector_val<std::_Simple_types<char> >
PUBLIC	?_Xlen@?$vector@DV?$allocator@D@std@@@std@@IBEXXZ ; std::vector<char,std::allocator<char> >::_Xlen
PUBLIC	?_Reallocate@?$vector@DV?$allocator@D@std@@@std@@IAEXI@Z ; std::vector<char,std::allocator<char> >::_Reallocate
PUBLIC	?_Grow_to@?$vector@DV?$allocator@D@std@@@std@@IBEII@Z ; std::vector<char,std::allocator<char> >::_Grow_to
PUBLIC	?max_size@?$vector@DV?$allocator@D@std@@@std@@QBEIXZ ; std::vector<char,std::allocator<char> >::max_size
PUBLIC	?_Unused_capacity@?$vector@DV?$allocator@D@std@@@std@@QBEIXZ ; std::vector<char,std::allocator<char> >::_Unused_capacity
PUBLIC	?allocate@?$_Wrap_alloc@V?$allocator@PAV?$basic_string@DU?$char_traits@D@std@@V?$allocator@D@2@@std@@@std@@@std@@QAEPAPAV?$basic_string@DU?$char_traits@D@std@@V?$allocator@D@2@@2@I@Z ; std::_Wrap_alloc<std::allocator<std::basic_string<char,std::char_traits<char>,std::allocator<char> > *> >::allocate
PUBLIC	?_Xlen@?$deque@V?$basic_string@DU?$char_traits@D@std@@V?$allocator@D@2@@std@@V?$allocator@V?$basic_string@DU?$char_traits@D@std@@V?$allocator@D@2@@std@@@2@@std@@IBEXXZ ; std::deque<std::basic_string<char,std::char_traits<char>,std::allocator<char> >,std::allocator<std::basic_string<char,std::char_traits<char>,std::allocator<char> > > >::_Xlen
PUBLIC	?max_size@?$deque@V?$basic_string@DU?$char_traits@D@std@@V?$allocator@D@2@@std@@V?$allocator@V?$basic_string@DU?$char_traits@D@std@@V?$allocator@D@2@@std@@@2@@std@@QBEIXZ ; std::deque<std::basic_string<char,std::char_traits<char>,std::allocator<char> >,std::allocator<std::basic_string<char,std::char_traits<char>,std::allocator<char> > > >::max_size
PUBLIC	??D?$_Deque_iterator@V?$_Deque_val@U?$_Deque_simple_types@V?$basic_string@DU?$char_traits@D@std@@V?$allocator@D@2@@std@@@std@@@std@@@std@@QBEAAV?$basic_string@DU?$char_traits@D@std@@V?$allocator@D@2@@1@XZ ; std::_Deque_iterator<std::_Deque_val<std::_Deque_simple_types<std::basic_string<char,std::char_traits<char>,std::allocator<char> > > > >::operator*
PUBLIC	?_Compat@?$_Vector_const_iterator@V?$_Vector_val@U?$_Simple_types@USShopItemTable@@@std@@@std@@@std@@QBEXABV12@@Z ; std::_Vector_const_iterator<std::_Vector_val<std::_Simple_types<SShopItemTable> > >::_Compat
PUBLIC	??0?$_Vector_const_iterator@V?$_Vector_val@U?$_Simple_types@USShopItemTable@@@std@@@std@@@std@@QAE@PAUSShopItemTable@@PBU_Container_base0@1@@Z ; std::_Vector_const_iterator<std::_Vector_val<std::_Simple_types<SShopItemTable> > >::_Vector_const_iterator<std::_Vector_val<std::_Simple_types<SShopItemTable> > >
PUBLIC	?_Getal@?$_Vector_alloc@$0A@U?$_Vec_base_types@DV?$allocator@D@std@@@std@@@std@@QBE?AU?$_Wrap_alloc@V?$allocator@D@std@@@2@XZ ; std::_Vector_alloc<0,std::_Vec_base_types<char,std::allocator<char> > >::_Getal
PUBLIC	??0?$_Vector_alloc@$0A@U?$_Vec_base_types@DV?$allocator@D@std@@@std@@@std@@QAE@ABV?$allocator@D@1@@Z ; std::_Vector_alloc<0,std::_Vec_base_types<char,std::allocator<char> > >::_Vector_alloc<0,std::_Vec_base_types<char,std::allocator<char> > >
PUBLIC	?_Tidy@?$vector@DV?$allocator@D@std@@@std@@IAEXXZ ; std::vector<char,std::allocator<char> >::_Tidy
PUBLIC	?_Reserve@?$vector@DV?$allocator@D@std@@@std@@IAEXI@Z ; std::vector<char,std::allocator<char> >::_Reserve
PUBLIC	?_Destroy@?$vector@DV?$allocator@D@std@@@std@@IAEXPAD0@Z ; std::vector<char,std::allocator<char> >::_Destroy
PUBLIC	?_Pop_back_n@?$vector@DV?$allocator@D@std@@@std@@QAEXI@Z ; std::vector<char,std::allocator<char> >::_Pop_back_n
PUBLIC	?size@?$vector@DV?$allocator@D@std@@@std@@QBEIXZ ; std::vector<char,std::allocator<char> >::size
PUBLIC	?_Growmap@?$deque@V?$basic_string@DU?$char_traits@D@std@@V?$allocator@D@2@@std@@V?$allocator@V?$basic_string@DU?$char_traits@D@std@@V?$allocator@D@2@@std@@@2@@std@@IAEXI@Z ; std::deque<std::basic_string<char,std::char_traits<char>,std::allocator<char> >,std::allocator<std::basic_string<char,std::char_traits<char>,std::allocator<char> > > >::_Growmap
PUBLIC	?begin@?$deque@V?$basic_string@DU?$char_traits@D@std@@V?$allocator@D@2@@std@@V?$allocator@V?$basic_string@DU?$char_traits@D@std@@V?$allocator@D@2@@std@@@2@@std@@QAE?AV?$_Deque_iterator@V?$_Deque_val@U?$_Deque_simple_types@V?$basic_string@DU?$char_traits@D@std@@V?$allocator@D@2@@std@@@std@@@std@@@2@XZ ; std::deque<std::basic_string<char,std::char_traits<char>,std::allocator<char> >,std::allocator<std::basic_string<char,std::char_traits<char>,std::allocator<char> > > >::begin
PUBLIC	??1?$_Deque_const_iterator@V?$_Deque_val@U?$_Deque_simple_types@V?$basic_string@DU?$char_traits@D@std@@V?$allocator@D@2@@std@@@std@@@std@@@std@@QAE@XZ ; std::_Deque_const_iterator<std::_Deque_val<std::_Deque_simple_types<std::basic_string<char,std::char_traits<char>,std::allocator<char> > > > >::~_Deque_const_iterator<std::_Deque_val<std::_Deque_simple_types<std::basic_string<char,std::char_traits<char>,std::allocator<char> > > > >
PUBLIC	??1?$_Deque_iterator@V?$_Deque_val@U?$_Deque_simple_types@V?$basic_string@DU?$char_traits@D@std@@V?$allocator@D@2@@std@@@std@@@std@@@std@@QAE@XZ ; std::_Deque_iterator<std::_Deque_val<std::_Deque_simple_types<std::basic_string<char,std::char_traits<char>,std::allocator<char> > > > >::~_Deque_iterator<std::_Deque_val<std::_Deque_simple_types<std::basic_string<char,std::char_traits<char>,std::allocator<char> > > > >
PUBLIC	??M?$_Vector_const_iterator@V?$_Vector_val@U?$_Simple_types@USShopItemTable@@@std@@@std@@@std@@QBE_NABV01@@Z ; std::_Vector_const_iterator<std::_Vector_val<std::_Simple_types<SShopItemTable> > >::operator<
PUBLIC	??E?$_Vector_const_iterator@V?$_Vector_val@U?$_Simple_types@USShopItemTable@@@std@@@std@@@std@@QAEAAV01@XZ ; std::_Vector_const_iterator<std::_Vector_val<std::_Simple_types<SShopItemTable> > >::operator++
PUBLIC	??D?$_Vector_const_iterator@V?$_Vector_val@U?$_Simple_types@USShopItemTable@@@std@@@std@@@std@@QBEABUSShopItemTable@@XZ ; std::_Vector_const_iterator<std::_Vector_val<std::_Simple_types<SShopItemTable> > >::operator*
PUBLIC	?size@?$vector@USShopItemTable@@V?$allocator@USShopItemTable@@@std@@@std@@QBEIXZ ; std::vector<SShopItemTable,std::allocator<SShopItemTable> >::size
PUBLIC	?end@?$vector@USShopItemTable@@V?$allocator@USShopItemTable@@@std@@@std@@QBE?AV?$_Vector_const_iterator@V?$_Vector_val@U?$_Simple_types@USShopItemTable@@@std@@@std@@@2@XZ ; std::vector<SShopItemTable,std::allocator<SShopItemTable> >::end
PUBLIC	?begin@?$vector@USShopItemTable@@V?$allocator@USShopItemTable@@@std@@@std@@QBE?AV?$_Vector_const_iterator@V?$_Vector_val@U?$_Simple_types@USShopItemTable@@@std@@@std@@@2@XZ ; std::vector<SShopItemTable,std::allocator<SShopItemTable> >::begin
PUBLIC	?clear@?$vector@DV?$allocator@D@std@@@std@@QAEXXZ ; std::vector<char,std::allocator<char> >::clear
PUBLIC	??A?$vector@DV?$allocator@D@std@@@std@@QAEAADI@Z ; std::vector<char,std::allocator<char> >::operator[]
PUBLIC	?resize@?$vector@DV?$allocator@D@std@@@std@@QAEXI@Z ; std::vector<char,std::allocator<char> >::resize
PUBLIC	??1?$vector@DV?$allocator@D@std@@@std@@QAE@XZ	; std::vector<char,std::allocator<char> >::~vector<char,std::allocator<char> >
PUBLIC	??0?$vector@DV?$allocator@D@std@@@std@@QAE@XZ	; std::vector<char,std::allocator<char> >::vector<char,std::allocator<char> >
PUBLIC	?Instance@?$CSingleton@VCPythonQuest@@@@SAAAVCPythonQuest@@XZ ; CSingleton<CPythonQuest>::Instance
PUBLIC	?instance@?$CSingleton@VCPythonShop@@@@SAAAVCPythonShop@@XZ ; CSingleton<CPythonShop>::instance
PUBLIC	?Instance@?$CSingleton@VCPythonShop@@@@SAAAVCPythonShop@@XZ ; CSingleton<CPythonShop>::Instance
PUBLIC	?instance@?$CSingleton@VCPythonPlayer@@@@SAAAVCPythonPlayer@@XZ ; CSingleton<CPythonPlayer>::instance
PUBLIC	?pop_front@?$deque@V?$basic_string@DU?$char_traits@D@std@@V?$allocator@D@2@@std@@V?$allocator@V?$basic_string@DU?$char_traits@D@std@@V?$allocator@D@2@@std@@@2@@std@@QAEXXZ ; std::deque<std::basic_string<char,std::char_traits<char>,std::allocator<char> >,std::allocator<std::basic_string<char,std::char_traits<char>,std::allocator<char> > > >::pop_front
PUBLIC	?front@?$deque@V?$basic_string@DU?$char_traits@D@std@@V?$allocator@D@2@@std@@V?$allocator@V?$basic_string@DU?$char_traits@D@std@@V?$allocator@D@2@@std@@@2@@std@@QAEAAV?$basic_string@DU?$char_traits@D@std@@V?$allocator@D@2@@2@XZ ; std::deque<std::basic_string<char,std::char_traits<char>,std::allocator<char> >,std::allocator<std::basic_string<char,std::char_traits<char>,std::allocator<char> > > >::front
PUBLIC	?SendDragonSoulRefinePacket@CPythonNetworkStream@@QAE_NEPAUSItemPos@@@Z ; CPythonNetworkStream::SendDragonSoulRefinePacket
PUBLIC	?RecvDigMotionPacket@CPythonNetworkStream@@QAE_NXZ ; CPythonNetworkStream::RecvDigMotionPacket
PUBLIC	?RecvLovePointUpdatePacket@CPythonNetworkStream@@QAE_NXZ ; CPythonNetworkStream::RecvLovePointUpdatePacket
PUBLIC	?RecvLoverInfoPacket@CPythonNetworkStream@@QAE_NXZ ; CPythonNetworkStream::RecvLoverInfoPacket
PUBLIC	?RecvTargetDeletePacket@CPythonNetworkStream@@IAE_NXZ ; CPythonNetworkStream::RecvTargetDeletePacket
PUBLIC	?RecvTargetUpdatePacket@CPythonNetworkStream@@IAE_NXZ ; CPythonNetworkStream::RecvTargetUpdatePacket
PUBLIC	?RecvTargetCreatePacketNew@CPythonNetworkStream@@IAE_NXZ ; CPythonNetworkStream::RecvTargetCreatePacketNew
PUBLIC	?RecvLandPacket@CPythonNetworkStream@@IAE_NXZ	; CPythonNetworkStream::RecvLandPacket
PUBLIC	?RecvViewEquipPacket@CPythonNetworkStream@@IAE_NXZ ; CPythonNetworkStream::RecvViewEquipPacket
PUBLIC	?RecvChannelPacket@CPythonNetworkStream@@IAE_NXZ ; CPythonNetworkStream::RecvChannelPacket
PUBLIC	?RecvAffectRemovePacket@CPythonNetworkStream@@IAE_NXZ ; CPythonNetworkStream::RecvAffectRemovePacket
PUBLIC	?RecvAffectAddPacket@CPythonNetworkStream@@IAE_NXZ ; CPythonNetworkStream::RecvAffectAddPacket
PUBLIC	?SendClientVersionPacket@CPythonNetworkStream@@QAE_NXZ ; CPythonNetworkStream::SendClientVersionPacket
PUBLIC	?RecvNPCList@CPythonNetworkStream@@IAE_NXZ	; CPythonNetworkStream::RecvNPCList
PUBLIC	?RecvRefineInformationPacketNew@CPythonNetworkStream@@IAE_NXZ ; CPythonNetworkStream::RecvRefineInformationPacketNew
PUBLIC	?RecvRefineInformationPacket@CPythonNetworkStream@@IAE_NXZ ; CPythonNetworkStream::RecvRefineInformationPacket
PUBLIC	?RecvChangeSkillGroupPacket@CPythonNetworkStream@@IAE_NXZ ; CPythonNetworkStream::RecvChangeSkillGroupPacket
PUBLIC	?RecvWalkModePacket@CPythonNetworkStream@@IAE_NXZ ; CPythonNetworkStream::RecvWalkModePacket
PUBLIC	?RecvTimePacket@CPythonNetworkStream@@IAE_NXZ	; CPythonNetworkStream::RecvTimePacket
PUBLIC	?RecvShopSignPacket@CPythonNetworkStream@@IAE_NXZ ; CPythonNetworkStream::RecvShopSignPacket
PUBLIC	?SendBuildPrivateShopPacket@CPythonNetworkStream@@QAE_NPBDABV?$vector@USShopItemTable@@V?$allocator@USShopItemTable@@@std@@@std@@@Z ; CPythonNetworkStream::SendBuildPrivateShopPacket
PUBLIC	?RecvDungeon@CPythonNetworkStream@@IAE_NXZ	; CPythonNetworkStream::RecvDungeon
PUBLIC	?RecvFishing@CPythonNetworkStream@@IAE_NXZ	; CPythonNetworkStream::RecvFishing
PUBLIC	??0command_give_item@@QAE@XZ			; command_give_item::command_give_item
PUBLIC	?SendFishingPacket@CPythonNetworkStream@@QAE_NH@Z ; CPythonNetworkStream::SendFishingPacket
PUBLIC	??0SGuildMemberData@CPythonGuild@@QAE@XZ	; CPythonGuild::SGuildMemberData::SGuildMemberData
PUBLIC	?RecvGuild@CPythonNetworkStream@@IAE_NXZ	; CPythonNetworkStream::RecvGuild
PUBLIC	?RecvPartyParameter@CPythonNetworkStream@@IAE_NXZ ; CPythonNetworkStream::RecvPartyParameter
PUBLIC	?RecvPartyUnlink@CPythonNetworkStream@@IAE_NXZ	; CPythonNetworkStream::RecvPartyUnlink
PUBLIC	?RecvPartyLink@CPythonNetworkStream@@IAE_NXZ	; CPythonNetworkStream::RecvPartyLink
PUBLIC	?RecvPartyRemove@CPythonNetworkStream@@IAE_NXZ	; CPythonNetworkStream::RecvPartyRemove
PUBLIC	?RecvPartyUpdate@CPythonNetworkStream@@IAE_NXZ	; CPythonNetworkStream::RecvPartyUpdate
PUBLIC	?RecvPartyAdd@CPythonNetworkStream@@IAE_NXZ	; CPythonNetworkStream::RecvPartyAdd
PUBLIC	?RecvPartyInvite@CPythonNetworkStream@@IAE_NXZ	; CPythonNetworkStream::RecvPartyInvite
PUBLIC	?RecvMessenger@CPythonNetworkStream@@IAE_NXZ	; CPythonNetworkStream::RecvMessenger
PUBLIC	?SendSyncPositionElementPacket@CPythonNetworkStream@@QAE_NKKK@Z ; CPythonNetworkStream::SendSyncPositionElementPacket
PUBLIC	?SendTargetPacket@CPythonNetworkStream@@QAE_NK@Z ; CPythonNetworkStream::SendTargetPacket
PUBLIC	?RecvCreateFlyPacket@CPythonNetworkStream@@IAE_NXZ ; CPythonNetworkStream::RecvCreateFlyPacket
PUBLIC	?SendFlyTargetingPacket@CPythonNetworkStream@@QAE_NKABUD3DXVECTOR3@@@Z ; CPythonNetworkStream::SendFlyTargetingPacket
PUBLIC	?SendAddFlyTargetingPacket@CPythonNetworkStream@@QAE_NKABUD3DXVECTOR3@@@Z ; CPythonNetworkStream::SendAddFlyTargetingPacket
PUBLIC	?SendShootPacket@CPythonNetworkStream@@QAE_NI@Z	; CPythonNetworkStream::SendShootPacket
PUBLIC	?RecvFlyTargetingPacket@CPythonNetworkStream@@IAE_NXZ ; CPythonNetworkStream::RecvFlyTargetingPacket
PUBLIC	?RecvAddFlyTargetingPacket@CPythonNetworkStream@@IAE_NXZ ; CPythonNetworkStream::RecvAddFlyTargetingPacket
PUBLIC	?SendSpecial@CPythonNetworkStream@@QAE_NHPAX@Z	; CPythonNetworkStream::SendSpecial
PUBLIC	?SendAttackPacket@CPythonNetworkStream@@QAE_NIK@Z ; CPythonNetworkStream::SendAttackPacket
PUBLIC	?RecvChangeSpeedPacket@CPythonNetworkStream@@IAE_NXZ ; CPythonNetworkStream::RecvChangeSpeedPacket
PUBLIC	?RecvMountPacket@CPythonNetworkStream@@IAE_NXZ	; CPythonNetworkStream::RecvMountPacket
PUBLIC	?RecvTargetPacket@CPythonNetworkStream@@IAE_NXZ	; CPythonNetworkStream::RecvTargetPacket
PUBLIC	?RecvDamageInfoPacket@CPythonNetworkStream@@IAE_NXZ ; CPythonNetworkStream::RecvDamageInfoPacket
PUBLIC	?RecvSkillLevelNew@CPythonNetworkStream@@IAE_NXZ ; CPythonNetworkStream::RecvSkillLevelNew
PUBLIC	?RecvSkillLevel@CPythonNetworkStream@@IAE_NXZ	; CPythonNetworkStream::RecvSkillLevel
PUBLIC	?RecvScriptPacket@CPythonNetworkStream@@IAE_NXZ	; CPythonNetworkStream::RecvScriptPacket
PUBLIC	?__IsPlayerAttacking@CPythonNetworkStream@@IAE_NXZ ; CPythonNetworkStream::__IsPlayerAttacking
PUBLIC	??0command_exchange@@QAE@XZ			; command_exchange::command_exchange
PUBLIC	?RecvRequestMakeGuild@CPythonNetworkStream@@IAE_NXZ ; CPythonNetworkStream::RecvRequestMakeGuild
PUBLIC	?RecvQuestConfirmPacket@CPythonNetworkStream@@IAE_NXZ ; CPythonNetworkStream::RecvQuestConfirmPacket
PUBLIC	??1SQuestInstance@CPythonQuest@@QAE@XZ		; CPythonQuest::SQuestInstance::~SQuestInstance
PUBLIC	?RecvQuestInfoPacket@CPythonNetworkStream@@IAE_NXZ ; CPythonNetworkStream::RecvQuestInfoPacket
PUBLIC	??0packet_exchange@@QAE@XZ			; packet_exchange::packet_exchange
PUBLIC	?RecvExchangePacket@CPythonNetworkStream@@IAE_NXZ ; CPythonNetworkStream::RecvExchangePacket
PUBLIC	?RecvShopPacket@CPythonNetworkStream@@IAE_NXZ	; CPythonNetworkStream::RecvShopPacket
PUBLIC	?RecvMotionPacket@CPythonNetworkStream@@IAE_NXZ	; CPythonNetworkStream::RecvMotionPacket
PUBLIC	?RecvCharacterPositionPacket@CPythonNetworkStream@@IAE_NXZ ; CPythonNetworkStream::RecvCharacterPositionPacket
PUBLIC	?RecvDeadPacket@CPythonNetworkStream@@IAE_NXZ	; CPythonNetworkStream::RecvDeadPacket
PUBLIC	?RecvStunPacket@CPythonNetworkStream@@IAE_NXZ	; CPythonNetworkStream::RecvStunPacket
PUBLIC	?RecvPointChange@CPythonNetworkStream@@IAE_NXZ	; CPythonNetworkStream::RecvPointChange
PUBLIC	?RecvWhisperPacket@CPythonNetworkStream@@IAE_NXZ ; CPythonNetworkStream::RecvWhisperPacket
PUBLIC	?RecvChatPacket@CPythonNetworkStream@@IAE_NXZ	; CPythonNetworkStream::RecvChatPacket
PUBLIC	?__ConvertEmpireText@CPythonNetworkStream@@IAEXKPAD@Z ; CPythonNetworkStream::__ConvertEmpireText
PUBLIC	?ParseEmoticon@CPythonNetworkStream@@IAE_NPBDPAK@Z ; CPythonNetworkStream::ParseEmoticon
PUBLIC	?SendUseSkillPacket@CPythonNetworkStream@@QAE_NKK@Z ; CPythonNetworkStream::SendUseSkillPacket
PUBLIC	?SendCharacterStatePacket@CPythonNetworkStream@@QAE_NABUD3DXVECTOR3@@MII@Z ; CPythonNetworkStream::SendCharacterStatePacket
PUBLIC	?__SendHack@CPythonNetworkStream@@IAE_NPBD@Z	; CPythonNetworkStream::__SendHack
PUBLIC	?RecvPVPPacket@CPythonNetworkStream@@IAE_NXZ	; CPythonNetworkStream::RecvPVPPacket
PUBLIC	?RecvDuelStartPacket@CPythonNetworkStream@@IAE_NXZ ; CPythonNetworkStream::RecvDuelStartPacket
PUBLIC	?RecvWarpPacket@CPythonNetworkStream@@IAE_NXZ	; CPythonNetworkStream::RecvWarpPacket
PUBLIC	?RecvObserverMovePacket@CPythonNetworkStream@@IAE_NXZ ; CPythonNetworkStream::RecvObserverMovePacket
PUBLIC	?RecvObserverRemovePacket@CPythonNetworkStream@@IAE_NXZ ; CPythonNetworkStream::RecvObserverRemovePacket
PUBLIC	?RecvObserverAddPacket@CPythonNetworkStream@@IAE_NXZ ; CPythonNetworkStream::RecvObserverAddPacket
PUBLIC	?__LeaveGamePhase@CPythonNetworkStream@@IAEXXZ	; CPythonNetworkStream::__LeaveGamePhase
PUBLIC	?__ShowMapName@CPythonNetworkStream@@IAEXJJ@Z	; CPythonNetworkStream::__ShowMapName
PUBLIC	?GamePhase@CPythonNetworkStream@@IAEXXZ		; CPythonNetworkStream::GamePhase
PUBLIC	?__SetGuildID@CPythonNetworkStream@@IAEXK@Z	; CPythonNetworkStream::__SetGuildID
PUBLIC	?__RefreshEquipmentWindow@CPythonNetworkStream@@IAEXXZ ; CPythonNetworkStream::__RefreshEquipmentWindow
PUBLIC	?__RefreshInventoryWindow@CPythonNetworkStream@@IAEXXZ ; CPythonNetworkStream::__RefreshInventoryWindow
PUBLIC	?__RefreshCharacterWindow@CPythonNetworkStream@@IAEXXZ ; CPythonNetworkStream::__RefreshCharacterWindow
PUBLIC	?__RefreshStatus@CPythonNetworkStream@@IAEXXZ	; CPythonNetworkStream::__RefreshStatus
PUBLIC	?__RefreshExchangeWindow@CPythonNetworkStream@@IAEXXZ ; CPythonNetworkStream::__RefreshExchangeWindow
PUBLIC	?__RefreshSkillWindow@CPythonNetworkStream@@IAEXXZ ; CPythonNetworkStream::__RefreshSkillWindow
PUBLIC	?__RefreshMallWindow@CPythonNetworkStream@@IAEXXZ ; CPythonNetworkStream::__RefreshMallWindow
PUBLIC	?__RefreshSafeboxWindow@CPythonNetworkStream@@IAEXXZ ; CPythonNetworkStream::__RefreshSafeboxWindow
PUBLIC	?__RefreshMessengerWindow@CPythonNetworkStream@@IAEXXZ ; CPythonNetworkStream::__RefreshMessengerWindow
PUBLIC	?__RefreshGuildWindowInfoPage@CPythonNetworkStream@@IAEXXZ ; CPythonNetworkStream::__RefreshGuildWindowInfoPage
PUBLIC	?__RefreshGuildWindowBoardPage@CPythonNetworkStream@@IAEXXZ ; CPythonNetworkStream::__RefreshGuildWindowBoardPage
PUBLIC	?__RefreshGuildWindowMemberPage@CPythonNetworkStream@@IAEXXZ ; CPythonNetworkStream::__RefreshGuildWindowMemberPage
PUBLIC	?__RefreshGuildWindowMemberPageGradeComboBox@CPythonNetworkStream@@IAEXXZ ; CPythonNetworkStream::__RefreshGuildWindowMemberPageGradeComboBox
PUBLIC	?__RefreshGuildWindowSkillPage@CPythonNetworkStream@@IAEXXZ ; CPythonNetworkStream::__RefreshGuildWindowSkillPage
PUBLIC	?__RefreshGuildWindowGradePage@CPythonNetworkStream@@IAEXXZ ; CPythonNetworkStream::__RefreshGuildWindowGradePage
PUBLIC	?__RefreshTargetBoard@CPythonNetworkStream@@IAEXXZ ; CPythonNetworkStream::__RefreshTargetBoard
PUBLIC	?__RefreshTargetBoardByName@CPythonNetworkStream@@IAEXPBD@Z ; CPythonNetworkStream::__RefreshTargetBoardByName
PUBLIC	?__RefreshTargetBoardByVID@CPythonNetworkStream@@IAEXK@Z ; CPythonNetworkStream::__RefreshTargetBoardByVID
PUBLIC	?__RefreshAlignmentWindow@CPythonNetworkStream@@IAEXXZ ; CPythonNetworkStream::__RefreshAlignmentWindow
PUBLIC	??0SQuestInstance@CPythonQuest@@QAE@XZ		; CPythonQuest::SQuestInstance::SQuestInstance
PUBLIC	?SetTabCount@CPythonShop@@QAEXE@Z		; CPythonShop::SetTabCount
PUBLIC	??0SGuildGradeData@CPythonGuild@@QAE@EPBD@Z	; CPythonGuild::SGuildGradeData::SGuildGradeData
PUBLIC	??0SPacketCGDragonSoulRefine@@QAE@XZ		; SPacketCGDragonSoulRefine::SPacketCGDragonSoulRefine
PUBLIC	?Warp@CPythonNetworkStream@@QAEXJJ@Z		; CPythonNetworkStream::Warp
PUBLIC	?SendWhisperPacket@CPythonNetworkStream@@QAE_NPBD0@Z ; CPythonNetworkStream::SendWhisperPacket
PUBLIC	?SendMobileMessagePacket@CPythonNetworkStream@@QAE_NPBD0@Z ; CPythonNetworkStream::SendMobileMessagePacket
PUBLIC	?SendCharacterPositionPacket@CPythonNetworkStream@@QAE_NE@Z ; CPythonNetworkStream::SendCharacterPositionPacket
PUBLIC	?SendOnClickPacket@CPythonNetworkStream@@QAE_NK@Z ; CPythonNetworkStream::SendOnClickPacket
PUBLIC	?SendGiveItemPacket@CPythonNetworkStream@@QAE_NKUSItemPos@@H@Z ; CPythonNetworkStream::SendGiveItemPacket
PUBLIC	?SendExchangeStartPacket@CPythonNetworkStream@@QAE_NK@Z ; CPythonNetworkStream::SendExchangeStartPacket
PUBLIC	?SendExchangeElkAddPacket@CPythonNetworkStream@@QAE_NK@Z ; CPythonNetworkStream::SendExchangeElkAddPacket
PUBLIC	?SendExchangeItemAddPacket@CPythonNetworkStream@@QAE_NUSItemPos@@E@Z ; CPythonNetworkStream::SendExchangeItemAddPacket
PUBLIC	?SendExchangeItemDelPacket@CPythonNetworkStream@@QAE_NE@Z ; CPythonNetworkStream::SendExchangeItemDelPacket
PUBLIC	?SendExchangeAcceptPacket@CPythonNetworkStream@@QAE_NXZ ; CPythonNetworkStream::SendExchangeAcceptPacket
PUBLIC	?SendExchangeExitPacket@CPythonNetworkStream@@QAE_NXZ ; CPythonNetworkStream::SendExchangeExitPacket
PUBLIC	?ToggleGameDebugInfo@CPythonNetworkStream@@QAEXXZ ; CPythonNetworkStream::ToggleGameDebugInfo
PUBLIC	?RegisterEmoticonString@CPythonNetworkStream@@QAEXPBD@Z ; CPythonNetworkStream::RegisterEmoticonString
PUBLIC	?SendMessengerAddByVIDPacket@CPythonNetworkStream@@QAE_NK@Z ; CPythonNetworkStream::SendMessengerAddByVIDPacket
PUBLIC	?SendMessengerAddByNamePacket@CPythonNetworkStream@@QAE_NPBD@Z ; CPythonNetworkStream::SendMessengerAddByNamePacket
PUBLIC	?SendMessengerRemovePacket@CPythonNetworkStream@@QAE_NPBD0@Z ; CPythonNetworkStream::SendMessengerRemovePacket
PUBLIC	?SendPartyInvitePacket@CPythonNetworkStream@@QAE_NK@Z ; CPythonNetworkStream::SendPartyInvitePacket
PUBLIC	?SendPartyInviteAnswerPacket@CPythonNetworkStream@@QAE_NKE@Z ; CPythonNetworkStream::SendPartyInviteAnswerPacket
PUBLIC	?SendPartyRemovePacket@CPythonNetworkStream@@QAE_NK@Z ; CPythonNetworkStream::SendPartyRemovePacket
PUBLIC	?SendPartySetStatePacket@CPythonNetworkStream@@QAE_NKEE@Z ; CPythonNetworkStream::SendPartySetStatePacket
PUBLIC	?SendPartyUseSkillPacket@CPythonNetworkStream@@QAE_NEK@Z ; CPythonNetworkStream::SendPartyUseSkillPacket
PUBLIC	?SendPartyParameterPacket@CPythonNetworkStream@@QAE_NE@Z ; CPythonNetworkStream::SendPartyParameterPacket
PUBLIC	?SendAnswerMakeGuildPacket@CPythonNetworkStream@@QAE_NPBD@Z ; CPythonNetworkStream::SendAnswerMakeGuildPacket
PUBLIC	?SendQuestInputStringPacket@CPythonNetworkStream@@QAE_NPBD@Z ; CPythonNetworkStream::SendQuestInputStringPacket
PUBLIC	?SendQuestConfirmPacket@CPythonNetworkStream@@QAE_NEK@Z ; CPythonNetworkStream::SendQuestConfirmPacket
PUBLIC	?SendGuildAddMemberPacket@CPythonNetworkStream@@QAE_NK@Z ; CPythonNetworkStream::SendGuildAddMemberPacket
PUBLIC	?SendGuildRemoveMemberPacket@CPythonNetworkStream@@QAE_NK@Z ; CPythonNetworkStream::SendGuildRemoveMemberPacket
PUBLIC	?SendGuildChangeGradeNamePacket@CPythonNetworkStream@@QAE_NEPBD@Z ; CPythonNetworkStream::SendGuildChangeGradeNamePacket
PUBLIC	?SendGuildChangeGradeAuthorityPacket@CPythonNetworkStream@@QAE_NEE@Z ; CPythonNetworkStream::SendGuildChangeGradeAuthorityPacket
PUBLIC	?SendGuildOfferPacket@CPythonNetworkStream@@QAE_NK@Z ; CPythonNetworkStream::SendGuildOfferPacket
PUBLIC	?SendGuildPostCommentPacket@CPythonNetworkStream@@QAE_NPBD@Z ; CPythonNetworkStream::SendGuildPostCommentPacket
PUBLIC	?SendGuildDeleteCommentPacket@CPythonNetworkStream@@QAE_NK@Z ; CPythonNetworkStream::SendGuildDeleteCommentPacket
PUBLIC	?SendGuildRefreshCommentsPacket@CPythonNetworkStream@@QAE_NK@Z ; CPythonNetworkStream::SendGuildRefreshCommentsPacket
PUBLIC	?SendGuildChangeMemberGradePacket@CPythonNetworkStream@@QAE_NKE@Z ; CPythonNetworkStream::SendGuildChangeMemberGradePacket
PUBLIC	?SendGuildUseSkillPacket@CPythonNetworkStream@@QAE_NKK@Z ; CPythonNetworkStream::SendGuildUseSkillPacket
PUBLIC	?SendGuildChangeMemberGeneralPacket@CPythonNetworkStream@@QAE_NKE@Z ; CPythonNetworkStream::SendGuildChangeMemberGeneralPacket
PUBLIC	?SendGuildInviteAnswerPacket@CPythonNetworkStream@@QAE_NKE@Z ; CPythonNetworkStream::SendGuildInviteAnswerPacket
PUBLIC	?SendGuildChargeGSPPacket@CPythonNetworkStream@@QAE_NK@Z ; CPythonNetworkStream::SendGuildChargeGSPPacket
PUBLIC	?SendGuildDepositMoneyPacket@CPythonNetworkStream@@QAE_NK@Z ; CPythonNetworkStream::SendGuildDepositMoneyPacket
PUBLIC	?SendGuildWithdrawMoneyPacket@CPythonNetworkStream@@QAE_NK@Z ; CPythonNetworkStream::SendGuildWithdrawMoneyPacket
PUBLIC	?SendRefinePacket@CPythonNetworkStream@@QAE_NEE@Z ; CPythonNetworkStream::SendRefinePacket
PUBLIC	?SendSelectItemPacket@CPythonNetworkStream@@QAE_NK@Z ; CPythonNetworkStream::SendSelectItemPacket
PUBLIC	?__TEST_SetSkillGroupFake@CPythonNetworkStream@@QAEXH@Z ; CPythonNetworkStream::__TEST_SetSkillGroupFake
PUBLIC	?SendChatPacket@CPythonNetworkStream@@QAE_NPBDE@Z ; CPythonNetworkStream::SendChatPacket
PUBLIC	?SetGamePhase@CPythonNetworkStream@@QAEXXZ	; CPythonNetworkStream::SetGamePhase
PUBLIC	?__InitializeGamePhase@CPythonNetworkStream@@IAEXXZ ; CPythonNetworkStream::__InitializeGamePhase
PUBLIC	?SendScriptButtonPacket@CPythonNetworkStream@@QAE_NI@Z ; CPythonNetworkStream::SendScriptButtonPacket
PUBLIC	?SendScriptAnswerPacket@CPythonNetworkStream@@QAE_NH@Z ; CPythonNetworkStream::SendScriptAnswerPacket
_piecewise_construct DB 01H DUP (?)
_BSS	ENDS
;	COMDAT ?$S1@?P@??GamePhase@CPythonNetworkStream@@IAEXXZ@4IA
_BSS	SEGMENT
?$S1@?P@??GamePhase@CPythonNetworkStream@@IAEXXZ@4IA DD 01H DUP (?) ; S1<`template-parameter-15',CPythonNetworkStream::mePhase,unsigned int, ?? >
_BSS	ENDS
;	COMDAT ?s_nextRefreshTime@?P@??GamePhase@CPythonNetworkStream@@IAEXXZ@4KA
_BSS	SEGMENT
?s_nextRefreshTime@?P@??GamePhase@CPythonNetworkStream@@IAEXXZ@4KA DD 01H DUP (?) ; `CPythonNetworkStream::GamePhase'::`15'::s_nextRefreshTime
_BSS	ENDS
;	COMDAT ?line@?5??RecvWhisperPacket@CPythonNetworkStream@@IAE_NXZ@4PADA
_BSS	SEGMENT
?line@?5??RecvWhisperPacket@CPythonNetworkStream@@IAE_NXZ@4PADA DB 0100H DUP (?) ; `CPythonNetworkStream::RecvWhisperPacket'::`6'::line
_BSS	ENDS
;	COMDAT ?$S3@?7??RecvScriptPacket@CPythonNetworkStream@@IAE_NXZ@4IA
_BSS	SEGMENT
?$S3@?7??RecvScriptPacket@CPythonNetworkStream@@IAE_NXZ@4IA DD 01H DUP (?) ; S3<`template-parameter-8',CPythonNetworkStream::vScriptPacket,unsigned int, ?? >
_BSS	ENDS
;	COMDAT ?str@?7??RecvScriptPacket@CPythonNetworkStream@@IAE_NXZ@4V?$basic_string@DU?$char_traits@D@std@@V?$allocator@D@2@@std@@A
_BSS	SEGMENT
?str@?7??RecvScriptPacket@CPythonNetworkStream@@IAE_NXZ@4V?$basic_string@DU?$char_traits@D@std@@V?$allocator@D@2@@std@@A DB 018H DUP (?) ; `CPythonNetworkStream::RecvScriptPacket'::`8'::str
_BSS	ENDS
;	COMDAT ?$S4@?1??SendGuildRefreshCommentsPacket@CPythonNetworkStream@@QAE_NK@Z@4IA
_BSS	SEGMENT
?$S4@?1??SendGuildRefreshCommentsPacket@CPythonNetworkStream@@QAE_NK@Z@4IA DD 01H DUP (?) ; S4<`template-parameter-2',CPythonNetworkStream::dGuildRefreshCommentsPacket,unsigned char * const,bool,unsigned long>
_BSS	ENDS
;	COMDAT ?s_LastTime@?1??SendGuildRefreshCommentsPacket@CPythonNetworkStream@@QAE_NK@Z@4KA
_BSS	SEGMENT
?s_LastTime@?1??SendGuildRefreshCommentsPacket@CPythonNetworkStream@@QAE_NK@Z@4KA DD 01H DUP (?) ; `CPythonNetworkStream::SendGuildRefreshCommentsPacket'::`2'::s_LastTime
_BSS	ENDS
;	COMDAT xdata$x
xdata$x	SEGMENT
__ehfuncinfo$?RegisterEmoticonString@CPythonNetworkStream@@QAEXPBD@Z DD 019930522H
	DD	01H
	DD	FLAT:__unwindtable$?RegisterEmoticonString@CPythonNetworkStream@@QAEXPBD@Z
	DD	2 DUP(00H)
	DD	2 DUP(00H)
	DD	00H
	DD	01H
__unwindtable$?RegisterEmoticonString@CPythonNetworkStream@@QAEXPBD@Z DD 0ffffffffH
	DD	FLAT:__unwindfunclet$?RegisterEmoticonString@CPythonNetworkStream@@QAEXPBD@Z$0
xdata$x	ENDS
;	COMDAT xdata$x
xdata$x	SEGMENT
__ehfuncinfo$?__SetGuildID@CPythonNetworkStream@@IAEXK@Z DD 019930522H
	DD	01H
	DD	FLAT:__unwindtable$?__SetGuildID@CPythonNetworkStream@@IAEXK@Z
	DD	2 DUP(00H)
	DD	2 DUP(00H)
	DD	00H
	DD	01H
__unwindtable$?__SetGuildID@CPythonNetworkStream@@IAEXK@Z DD 0ffffffffH
	DD	FLAT:__unwindfunclet$?__SetGuildID@CPythonNetworkStream@@IAEXK@Z$0
xdata$x	ENDS
;	COMDAT xdata$x
xdata$x	SEGMENT
__ehfuncinfo$?GamePhase@CPythonNetworkStream@@IAEXXZ DD 019930522H
	DD	01H
	DD	FLAT:__unwindtable$?GamePhase@CPythonNetworkStream@@IAEXXZ
	DD	2 DUP(00H)
	DD	2 DUP(00H)
	DD	00H
	DD	01H
__unwindtable$?GamePhase@CPythonNetworkStream@@IAEXXZ DD 0ffffffffH
	DD	FLAT:__unwindfunclet$?GamePhase@CPythonNetworkStream@@IAEXXZ$0
xdata$x	ENDS
;	COMDAT xdata$x
xdata$x	SEGMENT
__ehfuncinfo$?__ShowMapName@CPythonNetworkStream@@IAEXJJ@Z DD 019930522H
	DD	01H
	DD	FLAT:__unwindtable$?__ShowMapName@CPythonNetworkStream@@IAEXJJ@Z
	DD	2 DUP(00H)
	DD	2 DUP(00H)
	DD	00H
	DD	01H
__unwindtable$?__ShowMapName@CPythonNetworkStream@@IAEXJJ@Z DD 0ffffffffH
	DD	FLAT:__unwindfunclet$?__ShowMapName@CPythonNetworkStream@@IAEXJJ@Z$0
xdata$x	ENDS
;	COMDAT xdata$x
xdata$x	SEGMENT
__ehfuncinfo$?RecvShopPacket@CPythonNetworkStream@@IAE_NXZ DD 019930522H
	DD	01H
	DD	FLAT:__unwindtable$?RecvShopPacket@CPythonNetworkStream@@IAE_NXZ
	DD	2 DUP(00H)
	DD	2 DUP(00H)
	DD	00H
	DD	01H
__unwindtable$?RecvShopPacket@CPythonNetworkStream@@IAE_NXZ DD 0ffffffffH
	DD	FLAT:__unwindfunclet$?RecvShopPacket@CPythonNetworkStream@@IAE_NXZ$0
xdata$x	ENDS
;	COMDAT xdata$x
xdata$x	SEGMENT
__ehfuncinfo$?RecvQuestInfoPacket@CPythonNetworkStream@@IAE_NXZ DD 019930522H
	DD	01H
	DD	FLAT:__unwindtable$?RecvQuestInfoPacket@CPythonNetworkStream@@IAE_NXZ
	DD	2 DUP(00H)
	DD	2 DUP(00H)
	DD	00H
	DD	01H
__unwindtable$?RecvQuestInfoPacket@CPythonNetworkStream@@IAE_NXZ DD 0ffffffffH
	DD	FLAT:__unwindfunclet$?RecvQuestInfoPacket@CPythonNetworkStream@@IAE_NXZ$0
xdata$x	ENDS
;	COMDAT xdata$x
xdata$x	SEGMENT
__ehfuncinfo$?RecvAddFlyTargetingPacket@CPythonNetworkStream@@IAE_NXZ DD 019930522H
	DD	02H
	DD	FLAT:__unwindtable$?RecvAddFlyTargetingPacket@CPythonNetworkStream@@IAE_NXZ
	DD	2 DUP(00H)
	DD	2 DUP(00H)
	DD	00H
	DD	01H
__unwindtable$?RecvAddFlyTargetingPacket@CPythonNetworkStream@@IAE_NXZ DD 0ffffffffH
	DD	FLAT:__unwindfunclet$?RecvAddFlyTargetingPacket@CPythonNetworkStream@@IAE_NXZ$0
	DD	0ffffffffH
	DD	FLAT:__unwindfunclet$?RecvAddFlyTargetingPacket@CPythonNetworkStream@@IAE_NXZ$1
xdata$x	ENDS
;	COMDAT xdata$x
xdata$x	SEGMENT
__ehfuncinfo$?RecvFlyTargetingPacket@CPythonNetworkStream@@IAE_NXZ DD 019930522H
	DD	02H
	DD	FLAT:__unwindtable$?RecvFlyTargetingPacket@CPythonNetworkStream@@IAE_NXZ
	DD	2 DUP(00H)
	DD	2 DUP(00H)
	DD	00H
	DD	01H
__unwindtable$?RecvFlyTargetingPacket@CPythonNetworkStream@@IAE_NXZ DD 0ffffffffH
	DD	FLAT:__unwindfunclet$?RecvFlyTargetingPacket@CPythonNetworkStream@@IAE_NXZ$0
	DD	0ffffffffH
	DD	FLAT:__unwindfunclet$?RecvFlyTargetingPacket@CPythonNetworkStream@@IAE_NXZ$1
xdata$x	ENDS
;	COMDAT xdata$x
xdata$x	SEGMENT
__ehfuncinfo$?RecvGuild@CPythonNetworkStream@@IAE_NXZ DD 019930522H
	DD	03H
	DD	FLAT:__unwindtable$?RecvGuild@CPythonNetworkStream@@IAE_NXZ
	DD	2 DUP(00H)
	DD	2 DUP(00H)
	DD	00H
	DD	01H
__unwindtable$?RecvGuild@CPythonNetworkStream@@IAE_NXZ DD 0ffffffffH
	DD	FLAT:__unwindfunclet$?RecvGuild@CPythonNetworkStream@@IAE_NXZ$0
	DD	0ffffffffH
	DD	FLAT:__unwindfunclet$?RecvGuild@CPythonNetworkStream@@IAE_NXZ$1
	DD	0ffffffffH
	DD	FLAT:__unwindfunclet$?RecvGuild@CPythonNetworkStream@@IAE_NXZ$2
xdata$x	ENDS
;	COMDAT xdata$x
xdata$x	SEGMENT
__ehfuncinfo$?SendClientVersionPacket@CPythonNetworkStream@@QAE_NXZ DD 019930522H
	DD	01H
	DD	FLAT:__unwindtable$?SendClientVersionPacket@CPythonNetworkStream@@QAE_NXZ
	DD	2 DUP(00H)
	DD	2 DUP(00H)
	DD	00H
	DD	01H
__unwindtable$?SendClientVersionPacket@CPythonNetworkStream@@QAE_NXZ DD 0ffffffffH
	DD	FLAT:__unwindfunclet$?SendClientVersionPacket@CPythonNetworkStream@@QAE_NXZ$0
xdata$x	ENDS
;	COMDAT xdata$x
xdata$x	SEGMENT
__ehfuncinfo$?RecvLandPacket@CPythonNetworkStream@@IAE_NXZ DD 019930522H
	DD	01H
	DD	FLAT:__unwindtable$?RecvLandPacket@CPythonNetworkStream@@IAE_NXZ
	DD	2 DUP(00H)
	DD	2 DUP(00H)
	DD	00H
	DD	01H
__unwindtable$?RecvLandPacket@CPythonNetworkStream@@IAE_NXZ DD 0ffffffffH
	DD	FLAT:__unwindfunclet$?RecvLandPacket@CPythonNetworkStream@@IAE_NXZ$0
; Function compile flags: /Ogtp
; File d:\metin2\metin2\client_source_clean\client_source_clean\source\userinterface\pythonnetworkstreamphasegame.cpp
;	COMDAT ?SendScriptAnswerPacket@CPythonNetworkStream@@QAE_NH@Z
_TEXT	SEGMENT
_ScriptAnswer$ = -4					; size = 2
_iAnswer$ = 8						; size = 4
?SendScriptAnswerPacket@CPythonNetworkStream@@QAE_NH@Z PROC ; CPythonNetworkStream::SendScriptAnswerPacket, COMDAT
; _this$ = ecx

; 2236 : {

  00000	55		 push	 ebp
  00001	8b ec		 mov	 ebp, esp
  00003	51		 push	 ecx

; 2237 : 	TPacketCGScriptAnswer ScriptAnswer;
; 2238 : 
; 2239 : 	ScriptAnswer.header = HEADER_CG_SCRIPT_ANSWER;
; 2240 : 	ScriptAnswer.answer = (BYTE) iAnswer;

  00004	8b 45 08	 mov	 eax, DWORD PTR _iAnswer$[ebp]
  00007	56		 push	 esi
  00008	88 45 fd	 mov	 BYTE PTR _ScriptAnswer$[ebp+1], al
  0000b	8b f1		 mov	 esi, ecx

; 2241 : 	if (!Send(sizeof(TPacketCGScriptAnswer), &ScriptAnswer))

  0000d	8d 45 fc	 lea	 eax, DWORD PTR _ScriptAnswer$[ebp]
  00010	c6 45 fc 1d	 mov	 BYTE PTR _ScriptAnswer$[ebp], 29 ; 0000001dH
  00014	50		 push	 eax
  00015	6a 02		 push	 2
  00017	e8 00 00 00 00	 call	 ?Send@CNetworkStream@@QAE_NHPBX@Z ; CNetworkStream::Send
  0001c	84 c0		 test	 al, al
  0001e	75 16		 jne	 SHORT $LN1@SendScript

; 2242 : 	{
; 2243 : 		Tracen("Send Script Answer Packet Error");

  00020	68 00 00 00 00	 push	 OFFSET ??_C@_0CA@GLOCGDPA@Send?5Script?5Answer?5Packet?5Error?$AA@
  00025	e8 00 00 00 00	 call	 ?Tracen@@YAXPBD@Z	; Tracen
  0002a	83 c4 04	 add	 esp, 4

; 2244 : 		return false;

  0002d	32 c0		 xor	 al, al
  0002f	5e		 pop	 esi

; 2248 : }

  00030	8b e5		 mov	 esp, ebp
  00032	5d		 pop	 ebp
  00033	c2 04 00	 ret	 4
$LN1@SendScript:

; 2245 : 	}
; 2246 : 
; 2247 : 	return SendSequence();

  00036	8b ce		 mov	 ecx, esi
  00038	e8 00 00 00 00	 call	 ?SendSequence@CNetworkStream@@QAE_NXZ ; CNetworkStream::SendSequence
  0003d	5e		 pop	 esi

; 2248 : }

  0003e	8b e5		 mov	 esp, ebp
  00040	5d		 pop	 ebp
  00041	c2 04 00	 ret	 4
?SendScriptAnswerPacket@CPythonNetworkStream@@QAE_NH@Z ENDP ; CPythonNetworkStream::SendScriptAnswerPacket
_TEXT	ENDS
; Function compile flags: /Ogtp
; File d:\metin2\metin2\client_source_clean\client_source_clean\source\userinterface\pythonnetworkstreamphasegame.cpp
;	COMDAT ?SendScriptButtonPacket@CPythonNetworkStream@@QAE_NI@Z
_TEXT	SEGMENT
_ScriptButton$ = -8					; size = 5
_iIndex$ = 8						; size = 4
?SendScriptButtonPacket@CPythonNetworkStream@@QAE_NI@Z PROC ; CPythonNetworkStream::SendScriptButtonPacket, COMDAT
; _this$ = ecx

; 2251 : {

  00000	55		 push	 ebp
  00001	8b ec		 mov	 ebp, esp
  00003	83 ec 08	 sub	 esp, 8

; 2252 : 	TPacketCGScriptButton ScriptButton;
; 2253 : 
; 2254 : 	ScriptButton.header = HEADER_CG_SCRIPT_BUTTON;
; 2255 : 	ScriptButton.idx = iIndex;

  00006	8b 45 08	 mov	 eax, DWORD PTR _iIndex$[ebp]
  00009	56		 push	 esi
  0000a	89 45 f9	 mov	 DWORD PTR _ScriptButton$[ebp+1], eax
  0000d	8b f1		 mov	 esi, ecx

; 2256 : 	if (!Send(sizeof(TPacketCGScriptButton), &ScriptButton))

  0000f	8d 45 f8	 lea	 eax, DWORD PTR _ScriptButton$[ebp]
  00012	c6 45 f8 42	 mov	 BYTE PTR _ScriptButton$[ebp], 66 ; 00000042H
  00016	50		 push	 eax
  00017	6a 05		 push	 5
  00019	e8 00 00 00 00	 call	 ?Send@CNetworkStream@@QAE_NHPBX@Z ; CNetworkStream::Send
  0001e	84 c0		 test	 al, al
  00020	75 16		 jne	 SHORT $LN1@SendScript

; 2257 : 	{
; 2258 : 		Tracen("Send Script Button Packet Error");

  00022	68 00 00 00 00	 push	 OFFSET ??_C@_0CA@DKGOFDHL@Send?5Script?5Button?5Packet?5Error?$AA@
  00027	e8 00 00 00 00	 call	 ?Tracen@@YAXPBD@Z	; Tracen
  0002c	83 c4 04	 add	 esp, 4

; 2259 : 		return false;

  0002f	32 c0		 xor	 al, al
  00031	5e		 pop	 esi

; 2263 : }

  00032	8b e5		 mov	 esp, ebp
  00034	5d		 pop	 ebp
  00035	c2 04 00	 ret	 4
$LN1@SendScript:

; 2260 : 	}
; 2261 : 
; 2262 : 	return SendSequence();

  00038	8b ce		 mov	 ecx, esi
  0003a	e8 00 00 00 00	 call	 ?SendSequence@CNetworkStream@@QAE_NXZ ; CNetworkStream::SendSequence
  0003f	5e		 pop	 esi

; 2263 : }

  00040	8b e5		 mov	 esp, ebp
  00042	5d		 pop	 ebp
  00043	c2 04 00	 ret	 4
?SendScriptButtonPacket@CPythonNetworkStream@@QAE_NI@Z ENDP ; CPythonNetworkStream::SendScriptButtonPacket
_TEXT	ENDS
; Function compile flags: /Ogtp
; File d:\metin2\metin2\client_source_clean\client_source_clean\source\userinterface\pythonnetworkstreamphasegame.cpp
; File c:\program files (x86)\microsoft visual studio 12.0\vc\include\xmemory0
; File d:\metin2\metin2\client_source_clean\client_source_clean\source\userinterface\pythonnetworkstreamphasegame.cpp
; File c:\program files (x86)\microsoft visual studio 12.0\vc\include\xmemory0
; File d:\metin2\metin2\client_source_clean\client_source_clean\source\userinterface\pythonnetworkstreamphasegame.cpp
; File c:\program files (x86)\microsoft visual studio 12.0\vc\include\xmemory0
; File c:\program files (x86)\microsoft visual studio 12.0\vc\include\vector
; File c:\program files (x86)\microsoft visual studio 12.0\vc\include\xmemory0
; File c:\program files (x86)\microsoft visual studio 12.0\vc\include\vector
; File d:\metin2\metin2\client_source_clean\client_source_clean\source\userinterface\pythonnetworkstreamphasegame.cpp
;	COMDAT ?__InitializeGamePhase@CPythonNetworkStream@@IAEXXZ
_TEXT	SEGMENT
__Cat$1 = -5						; size = 1
__Alval$2 = -1						; size = 1
?__InitializeGamePhase@CPythonNetworkStream@@IAEXXZ PROC ; CPythonNetworkStream::__InitializeGamePhase, COMDAT
; _this$ = ecx

; 790  : {

  00000	55		 push	 ebp
  00001	8b ec		 mov	 ebp, esp
  00003	83 ec 08	 sub	 esp, 8
  00006	56		 push	 esi
  00007	8b f1		 mov	 esi, ecx

; 791  : 	__ServerTimeSync_Initialize();

  00009	e8 00 00 00 00	 call	 ?__ServerTimeSync_Initialize@CPythonNetworkStream@@IAEXXZ ; CPythonNetworkStream::__ServerTimeSync_Initialize
; File c:\program files (x86)\microsoft visual studio 12.0\vc\include\xmemory0

; 96   : 	_Destroy_range(_First, _Last, _Al, _Ptr_cat(_First, _Last));

  0000e	ff 75 fb	 push	 DWORD PTR __Cat$1[ebp]
  00011	8d 45 ff	 lea	 eax, DWORD PTR __Alval$2[ebp]
; File d:\metin2\metin2\client_source_clean\client_source_clean\source\userinterface\pythonnetworkstreamphasegame.cpp

; 793  : 	m_isRefreshStatus=false;

  00014	c7 86 10 03 00
	00 00 00 00 00	 mov	 DWORD PTR [esi+784], 0
; File c:\program files (x86)\microsoft visual studio 12.0\vc\include\xmemory0

; 96   : 	_Destroy_range(_First, _Last, _Al, _Ptr_cat(_First, _Last));

  0001e	50		 push	 eax
; File d:\metin2\metin2\client_source_clean\client_source_clean\source\userinterface\pythonnetworkstreamphasegame.cpp

; 797  : 	m_isRefreshExchangeWnd=false;

  0001f	c7 86 14 03 00
	00 00 00 00 00	 mov	 DWORD PTR [esi+788], 0

; 798  : 	m_isRefreshSkillWnd=false;
; 799  : 	m_isRefreshSafeboxWnd=false;
; 800  : 	m_isRefreshMallWnd=false;
; 801  : 	m_isRefreshMessengerWnd=false;

  00029	c7 86 18 03 00
	00 00 00 00 00	 mov	 DWORD PTR [esi+792], 0

; 802  : 	m_isRefreshGuildWndInfoPage=false;
; 803  : 	m_isRefreshGuildWndBoardPage=false;
; 804  : 	m_isRefreshGuildWndMemberPage=false;
; 805  : 	m_isRefreshGuildWndMemberPageGradeComboBox=false;

  00033	66 c7 86 1c 03
	00 00 00 00	 mov	 WORD PTR [esi+796], 0

; 806  : 	m_isRefreshGuildWndSkillPage=false;
; 807  : 	m_isRefreshGuildWndGradePage=false;

  0003c	c6 86 1e 03 00
	00 00		 mov	 BYTE PTR [esi+798], 0
; File c:\program files (x86)\microsoft visual studio 12.0\vc\include\xmemory0

; 96   : 	_Destroy_range(_First, _Last, _Al, _Ptr_cat(_First, _Last));

  00043	ff b6 24 03 00
	00		 push	 DWORD PTR [esi+804]
  00049	ff b6 20 03 00
	00		 push	 DWORD PTR [esi+800]
  0004f	e8 00 00 00 00	 call	 ??$_Destroy_range@U?$_Wrap_alloc@V?$allocator@V?$basic_string@DU?$char_traits@D@std@@V?$allocator@D@2@@std@@@std@@@std@@@std@@YAXPAV?$basic_string@DU?$char_traits@D@std@@V?$allocator@D@2@@0@0AAU?$_Wrap_alloc@V?$allocator@V?$basic_string@DU?$char_traits@D@std@@V?$allocator@D@2@@std@@@std@@@0@U_Nonscalar_ptr_iterator_tag@0@@Z ; std::_Destroy_range<std::_Wrap_alloc<std::allocator<std::basic_string<char,std::char_traits<char>,std::allocator<char> > > > >
; File c:\program files (x86)\microsoft visual studio 12.0\vc\include\vector

; 1510 : 		this->_Mylast = this->_Myfirst;

  00054	8b 86 20 03 00
	00		 mov	 eax, DWORD PTR [esi+800]
; File c:\program files (x86)\microsoft visual studio 12.0\vc\include\xmemory0

; 96   : 	_Destroy_range(_First, _Last, _Al, _Ptr_cat(_First, _Last));

  0005a	83 c4 10	 add	 esp, 16			; 00000010H
; File c:\program files (x86)\microsoft visual studio 12.0\vc\include\vector

; 1510 : 		this->_Mylast = this->_Myfirst;

  0005d	89 86 24 03 00
	00		 mov	 DWORD PTR [esi+804], eax
; File d:\metin2\metin2\client_source_clean\client_source_clean\source\userinterface\pythonnetworkstreamphasegame.cpp

; 811  : 	m_pInstTarget = NULL;

  00063	c7 86 48 79 00
	00 00 00 00 00	 mov	 DWORD PTR [esi+31048], 0
  0006d	5e		 pop	 esi

; 812  : }

  0006e	8b e5		 mov	 esp, ebp
  00070	5d		 pop	 ebp
  00071	c3		 ret	 0
?__InitializeGamePhase@CPythonNetworkStream@@IAEXXZ ENDP ; CPythonNetworkStream::__InitializeGamePhase
_TEXT	ENDS
; Function compile flags: /Ogtp
; File d:\metin2\metin2\client_source_clean\client_source_clean\source\userinterface\pythonnetworkstreamphasegame.cpp
; File c:\program files (x86)\microsoft visual studio 12.0\vc\include\xstring
; File d:\metin2\metin2\client_source_clean\client_source_clean\source\userinterface\pythonnetworkstreamphasegame.cpp
; File d:\metin2\metin2\client_source_clean\client_source_clean\source\eterlib\funcobject.h
; File d:\metin2\metin2\client_source_clean\client_source_clean\source\userinterface\pythonnetworkstreamphasegame.cpp
; File c:\program files (x86)\microsoft visual studio 12.0\vc\include\xstring
; File d:\metin2\metin2\client_source_clean\client_source_clean\source\userinterface\pythonnetworkstreamphasegame.cpp
; File d:\metin2\metin2\client_source_clean\client_source_clean\source\eterlib\funcobject.h
; File d:\metin2\metin2\client_source_clean\client_source_clean\source\userinterface\pythonnetworkstreamphasegame.cpp
;	COMDAT ?SetGamePhase@CPythonNetworkStream@@QAEXXZ
_TEXT	SEGMENT
?SetGamePhase@CPythonNetworkStream@@QAEXXZ PROC		; CPythonNetworkStream::SetGamePhase, COMDAT
; _this$ = ecx

; 859  : {

  00000	56		 push	 esi
  00001	57		 push	 edi
  00002	8b f9		 mov	 edi, ecx
; File c:\program files (x86)\microsoft visual studio 12.0\vc\include\xstring

; 2159 : 		return (compare(0, this->_Mysize, _Ptr, _Traits::length(_Ptr)));

  00004	6a 04		 push	 4
  00006	68 00 00 00 00	 push	 OFFSET ??_C@_04IBBNLEM@Game?$AA@
  0000b	ff b7 1c 01 00
	00		 push	 DWORD PTR [edi+284]
  00011	8d 8f 0c 01 00
	00		 lea	 ecx, DWORD PTR [edi+268]
  00017	6a 00		 push	 0
  00019	e8 00 00 00 00	 call	 ?compare@?$basic_string@DU?$char_traits@D@std@@V?$allocator@D@2@@std@@QBEHIIPBDI@Z ; std::basic_string<char,std::char_traits<char>,std::allocator<char> >::compare

; 2160 : 		}
; 2161 : 
; 2162 : 	int compare(size_type _Off, size_type _N0, const _Elem *_Ptr) const
; 2163 : 		{	// compare [_Off, _Off + _N0) with [_Ptr, <null>)
; 2164 : 		_DEBUG_POINTER(_Ptr);
; 2165 : 		return (compare(_Off, _N0, _Ptr, _Traits::length(_Ptr)));
; 2166 : 		}
; 2167 : 
; 2168 : 	int compare(size_type _Off,
; 2169 : 		size_type _N0, const _Elem *_Ptr, size_type _Count) const
; 2170 : 		{	// compare [_Off, _Off + _N0) with [_Ptr, _Ptr + _Count)
; 2171 :  #if _ITERATOR_DEBUG_LEVEL == 2
; 2172 : 		if (_Count != 0)
; 2173 : 			_DEBUG_POINTER(_Ptr);
; 2174 :  #endif /* _ITERATOR_DEBUG_LEVEL == 2 */
; 2175 : 
; 2176 : 		if (this->_Mysize < _Off)
; 2177 : 			_Xran();	// _Off off end
; 2178 : 		if (this->_Mysize - _Off < _N0)
; 2179 : 			_N0 = this->_Mysize - _Off;	// trim _N0 to size
; 2180 : 
; 2181 : 		size_type _Ans = _Traits::compare(this->_Myptr() + _Off, _Ptr,
; 2182 : 			_N0 < _Count ? _N0 : _Count);
; 2183 : 		return (_Ans != 0 ? (int)_Ans : _N0 < _Count ? -1
; 2184 : 			: _N0 == _Count ? 0 : +1);
; 2185 : 		}
; 2186 : 
; 2187 : 	allocator_type get_allocator() const _NOEXCEPT
; 2188 : 		{	// return allocator object for values
; 2189 : 		return (this->_Getal());
; 2190 : 		}
; 2191 : 
; 2192 : 	void _Chassign(size_type _Off, size_type _Count, _Elem _Ch)
; 2193 : 		{	// assign _Count copies of _Ch beginning at _Off
; 2194 : 		if (_Count == 1)
; 2195 : 			_Traits::assign(*(this->_Myptr() + _Off), _Ch);
; 2196 : 		else
; 2197 : 			_Traits::assign(this->_Myptr() + _Off, _Count, _Ch);
; 2198 : 		}
; 2199 : 
; 2200 : 	void _Copy(size_type _Newsize, size_type _Oldlen)
; 2201 : 		{	// copy _Oldlen elements to newly allocated buffer
; 2202 : 		size_type _Newres = _Newsize | this->_ALLOC_MASK;
; 2203 : 		if (max_size() < _Newres)
; 2204 : 			_Newres = _Newsize;	// undo roundup if too big
; 2205 : 		else if (this->_Myres / 2 <= _Newres / 3)
; 2206 : 			;
; 2207 : 		else if (this->_Myres <= max_size() - this->_Myres / 2)
; 2208 : 			_Newres = this->_Myres
; 2209 : 				+ this->_Myres / 2;	// grow exponentially if possible
; 2210 : 		else
; 2211 : 			_Newres = max_size();	// settle for max_size()
; 2212 : 
; 2213 : 		_Elem *_Ptr;
; 2214 : 		_TRY_BEGIN
; 2215 : 			_Ptr = this->_Getal().allocate(_Newres + 1);
; 2216 : 		_CATCH_ALL
; 2217 : 			_Newres = _Newsize;	// allocation failed, undo roundup and retry
; 2218 : 			_TRY_BEGIN
; 2219 : 				_Ptr = this->_Getal().allocate(_Newres + 1);
; 2220 : 			_CATCH_ALL
; 2221 : 			_Tidy(true);	// failed again, discard storage and reraise
; 2222 : 			_RERAISE;
; 2223 : 			_CATCH_END
; 2224 : 		_CATCH_END
; 2225 : 
; 2226 : 		if (0 < _Oldlen)
; 2227 : 			_Traits::copy(_Ptr, this->_Myptr(),
; 2228 : 				_Oldlen);	// copy existing elements
; 2229 : 		_Tidy(true);
; 2230 : 		this->_Getal().construct(&this->_Bx._Ptr, _Ptr);
; 2231 : 		this->_Myres = _Newres;
; 2232 : 		_Eos(_Oldlen);
; 2233 : 		}
; 2234 : 
; 2235 : 	void _Eos(size_type _Newsize)
; 2236 : 		{	// set new length and null terminator
; 2237 : 		_Traits::assign(this->_Myptr()[this->_Mysize = _Newsize], _Elem());
; 2238 : 		}
; 2239 : 
; 2240 : 	bool _Grow(size_type _Newsize,
; 2241 : 		bool _Trim = false)
; 2242 : 		{	// ensure buffer is big enough, trim to size if _Trim is true
; 2243 : 		if (max_size() < _Newsize)
; 2244 : 			_Xlen();	// result too long
; 2245 : 		if (this->_Myres < _Newsize)
; 2246 : 			_Copy(_Newsize, this->_Mysize);	// reallocate to grow
; 2247 : 		else if (_Trim && _Newsize < this->_BUF_SIZE)
; 2248 : 			_Tidy(true,	// copy and deallocate if trimming to small string
; 2249 : 				_Newsize < this->_Mysize ? _Newsize : this->_Mysize);
; 2250 : 		else if (_Newsize == 0)
; 2251 : 			_Eos(0);	// new size is zero, just null terminate
; 2252 : 		return (0 < _Newsize);	// return true only if more work to do
; 2253 : 		}
; 2254 : 
; 2255 : 	bool _Inside(const _Elem *_Ptr)
; 2256 : 		{	// test if _Ptr points inside string
; 2257 : 		if (_Ptr == 0 || _Ptr < this->_Myptr()
; 2258 : 			|| this->_Myptr() + this->_Mysize <= _Ptr)
; 2259 : 			return (false);	// don't ask
; 2260 : 		else
; 2261 : 			return (true);
; 2262 : 		}
; 2263 : 
; 2264 : 	static size_type _Pdif(const_iterator _P2,
; 2265 : 		const_iterator _P1)
; 2266 : 		{	// compute safe iterator difference
; 2267 : 		return (_STRING_ITER_BASE(_P2) == 0 ? 0 : _P2 - _P1);
; 2268 : 		}
; 2269 : 
; 2270 : 	void _Tidy(bool _Built = false,
; 2271 : 		size_type _Newsize = 0)
; 2272 : 		{	// initialize buffer, deallocating any storage
; 2273 : 		if (!_Built)
; 2274 : 			;
; 2275 : 		else if (this->_BUF_SIZE <= this->_Myres)
; 2276 : 			{	// copy any leftovers to small buffer and deallocate
; 2277 : 			pointer _Ptr = this->_Bx._Ptr;
; 2278 : 			this->_Getal().destroy(&this->_Bx._Ptr);
; 2279 : 			if (0 < _Newsize)
; 2280 : 				_Traits::copy(this->_Bx._Buf,
; 2281 : 					_STD addressof(*_Ptr), _Newsize);
; 2282 : 			this->_Getal().deallocate(_Ptr, this->_Myres + 1);
; 2283 : 			}
; 2284 : 		this->_Myres = this->_BUF_SIZE - 1;
; 2285 : 		_Eos(_Newsize);
; 2286 : 		}
; 2287 : 
; 2288 : 	__declspec(noreturn) void _Xlen() const
; 2289 : 		{	// report a length_error
; 2290 : 		_Xlength_error("string too long");
; 2291 : 		}
; 2292 : 
; 2293 : 	__declspec(noreturn) void _Xran() const
; 2294 : 		{	// report an out_of_range error
; 2295 : 		_Xout_of_range("invalid string position");
; 2296 : 		}
; 2297 : 	};
; 2298 : 
; 2299 : 		// STATIC npos OBJECT
; 2300 : template<class _Elem,
; 2301 : 	class _Traits,
; 2302 : 	class _Alloc>
; 2303 : 	_PGLOBAL const typename basic_string<_Elem, _Traits, _Alloc>::size_type
; 2304 : 		basic_string<_Elem, _Traits, _Alloc>::npos =
; 2305 : 			(typename basic_string<_Elem, _Traits, _Alloc>::size_type)(-1);
; 2306 : 
; 2307 : 		// basic_string TEMPLATE OPERATORS
; 2308 : 
; 2309 : template<class _Elem,
; 2310 : 	class _Traits,
; 2311 : 	class _Alloc> inline
; 2312 : 	void swap(basic_string<_Elem, _Traits, _Alloc>& _Left,
; 2313 : 		basic_string<_Elem, _Traits, _Alloc>& _Right)
; 2314 : 	{	// swap _Left and _Right strings
; 2315 : 	_Left.swap(_Right);
; 2316 : 	}
; 2317 : 
; 2318 : template<class _Elem,
; 2319 : 	class _Traits,
; 2320 : 	class _Alloc> inline
; 2321 : 	basic_string<_Elem, _Traits, _Alloc> operator+(
; 2322 : 		const basic_string<_Elem, _Traits, _Alloc>& _Left,
; 2323 : 		const basic_string<_Elem, _Traits, _Alloc>& _Right)
; 2324 : 	{	// return string + string
; 2325 : 	basic_string<_Elem, _Traits, _Alloc> _Ans;
; 2326 : 	_Ans.reserve(_Left.size() + _Right.size());
; 2327 : 	_Ans += _Left;
; 2328 : 	_Ans += _Right;
; 2329 : 	return (_Ans);
; 2330 : 	}
; 2331 : 
; 2332 : template<class _Elem,
; 2333 : 	class _Traits,
; 2334 : 	class _Alloc> inline
; 2335 : 	basic_string<_Elem, _Traits, _Alloc> operator+(
; 2336 : 		const _Elem *_Left,
; 2337 : 		const basic_string<_Elem, _Traits, _Alloc>& _Right)
; 2338 : 	{	// return NTCS + string
; 2339 : 	basic_string<_Elem, _Traits, _Alloc> _Ans;
; 2340 : 	_Ans.reserve(_Traits::length(_Left) + _Right.size());
; 2341 : 	_Ans += _Left;
; 2342 : 	_Ans += _Right;
; 2343 : 	return (_Ans);
; 2344 : 	}
; 2345 : 
; 2346 : template<class _Elem,
; 2347 : 	class _Traits,
; 2348 : 	class _Alloc> inline
; 2349 : 	basic_string<_Elem, _Traits, _Alloc> operator+(
; 2350 : 		const _Elem _Left,
; 2351 : 		const basic_string<_Elem, _Traits, _Alloc>& _Right)
; 2352 : 	{	// return character + string
; 2353 : 	basic_string<_Elem, _Traits, _Alloc> _Ans;
; 2354 : 	_Ans.reserve(1 + _Right.size());
; 2355 : 	_Ans += _Left;
; 2356 : 	_Ans += _Right;
; 2357 : 	return (_Ans);
; 2358 : 	}
; 2359 : 
; 2360 : template<class _Elem,
; 2361 : 	class _Traits,
; 2362 : 	class _Alloc> inline
; 2363 : 	basic_string<_Elem, _Traits, _Alloc> operator+(
; 2364 : 		const basic_string<_Elem, _Traits, _Alloc>& _Left,
; 2365 : 		const _Elem *_Right)
; 2366 : 	{	// return string + NTCS
; 2367 : 	basic_string<_Elem, _Traits, _Alloc> _Ans;
; 2368 : 	_Ans.reserve(_Left.size() + _Traits::length(_Right));
; 2369 : 	_Ans += _Left;
; 2370 : 	_Ans += _Right;
; 2371 : 	return (_Ans);
; 2372 : 	}
; 2373 : 
; 2374 : template<class _Elem,
; 2375 : 	class _Traits,
; 2376 : 	class _Alloc> inline
; 2377 : 	basic_string<_Elem, _Traits, _Alloc> operator+(
; 2378 : 		const basic_string<_Elem, _Traits, _Alloc>& _Left,
; 2379 : 		const _Elem _Right)
; 2380 : 	{	// return string + character
; 2381 : 	basic_string<_Elem, _Traits, _Alloc> _Ans;
; 2382 : 	_Ans.reserve(_Left.size() + 1);
; 2383 : 	_Ans += _Left;
; 2384 : 	_Ans += _Right;
; 2385 : 	return (_Ans);
; 2386 : 	}
; 2387 : 
; 2388 : template<class _Elem,
; 2389 : 	class _Traits,
; 2390 : 	class _Alloc> inline
; 2391 : 	basic_string<_Elem, _Traits, _Alloc> operator+(
; 2392 : 		const basic_string<_Elem, _Traits, _Alloc>& _Left,
; 2393 : 		basic_string<_Elem, _Traits, _Alloc>&& _Right)
; 2394 : 	{	// return string + string
; 2395 : 	return (_STD move(_Right.insert(0, _Left)));
; 2396 : 	}
; 2397 : 
; 2398 : template<class _Elem,
; 2399 : 	class _Traits,
; 2400 : 	class _Alloc> inline
; 2401 : 	basic_string<_Elem, _Traits, _Alloc> operator+(
; 2402 : 		basic_string<_Elem, _Traits, _Alloc>&& _Left,
; 2403 : 		const basic_string<_Elem, _Traits, _Alloc>& _Right)
; 2404 : 	{	// return string + string
; 2405 : 	return (_STD move(_Left.append(_Right)));
; 2406 : 	}
; 2407 : 
; 2408 : template<class _Elem,
; 2409 : 	class _Traits,
; 2410 : 	class _Alloc> inline
; 2411 : 	basic_string<_Elem, _Traits, _Alloc> operator+(
; 2412 : 		basic_string<_Elem, _Traits, _Alloc>&& _Left,
; 2413 : 		basic_string<_Elem, _Traits, _Alloc>&& _Right)
; 2414 : 	{	// return string + string
; 2415 : 	if (_Right.size() <= _Left.capacity() - _Left.size()
; 2416 : 		|| _Right.capacity() - _Right.size() < _Left.size())
; 2417 : 		return (_STD move(_Left.append(_Right)));
; 2418 : 	else
; 2419 : 		return (_STD move(_Right.insert(0, _Left)));
; 2420 : 	}
; 2421 : 
; 2422 : template<class _Elem,
; 2423 : 	class _Traits,
; 2424 : 	class _Alloc> inline
; 2425 : 	basic_string<_Elem, _Traits, _Alloc> operator+(
; 2426 : 		const _Elem *_Left,
; 2427 : 		basic_string<_Elem, _Traits, _Alloc>&& _Right)
; 2428 : 	{	// return NTCS + string
; 2429 : 	return (_STD move(_Right.insert(0, _Left)));
; 2430 : 	}
; 2431 : 
; 2432 : template<class _Elem,
; 2433 : 	class _Traits,
; 2434 : 	class _Alloc> inline
; 2435 : 	basic_string<_Elem, _Traits, _Alloc> operator+(
; 2436 : 		const _Elem _Left,
; 2437 : 		basic_string<_Elem, _Traits, _Alloc>&& _Right)
; 2438 : 	{	// return character + string
; 2439 : 	return (_STD move(_Right.insert(0, 1, _Left)));
; 2440 : 	}
; 2441 : 
; 2442 : template<class _Elem,
; 2443 : 	class _Traits,
; 2444 : 	class _Alloc> inline
; 2445 : 	basic_string<_Elem, _Traits, _Alloc> operator+(
; 2446 : 		basic_string<_Elem, _Traits, _Alloc>&& _Left,
; 2447 : 		const _Elem *_Right)
; 2448 : 	{	// return string + NTCS
; 2449 : 	return (_STD move(_Left.append(_Right)));
; 2450 : 	}
; 2451 : 
; 2452 : template<class _Elem,
; 2453 : 	class _Traits,
; 2454 : 	class _Alloc> inline
; 2455 : 	basic_string<_Elem, _Traits, _Alloc> operator+(
; 2456 : 		basic_string<_Elem, _Traits, _Alloc>&& _Left,
; 2457 : 		const _Elem _Right)
; 2458 : 	{	// return string + character
; 2459 : 	return (_STD move(_Left.append(1, _Right)));
; 2460 : 	}
; 2461 : 
; 2462 : template<class _Elem,
; 2463 : 	class _Traits,
; 2464 : 	class _Alloc> inline
; 2465 : 	bool operator==(
; 2466 : 		const basic_string<_Elem, _Traits, _Alloc>& _Left,
; 2467 : 		const basic_string<_Elem, _Traits, _Alloc>& _Right)
; 2468 : 	{	// test for string equality
; 2469 : 	return (_Left.compare(_Right) == 0);
; 2470 : 	}
; 2471 : 
; 2472 : template<class _Elem,
; 2473 : 	class _Traits,
; 2474 : 	class _Alloc> inline
; 2475 : 	bool operator==(
; 2476 : 		const _Elem * _Left,
; 2477 : 		const basic_string<_Elem, _Traits, _Alloc>& _Right)
; 2478 : 	{	// test for NTCS vs. string equality
; 2479 : 	return (_Right.compare(_Left) == 0);

  0001e	85 c0		 test	 eax, eax
; File d:\metin2\metin2\client_source_clean\client_source_clean\source\userinterface\pythonnetworkstreamphasegame.cpp

; 860  : 	if ("Game"!=m_strPhase)

  00020	74 1e		 je	 SHORT $LN14@SetGamePha
; File d:\metin2\metin2\client_source_clean\client_source_clean\source\eterlib\funcobject.h

; 41   : 			if (m_pSelfObject)

  00022	8b 97 68 01 00
	00		 mov	 edx, DWORD PTR [edi+360]
  00028	85 d2		 test	 edx, edx
  0002a	74 14		 je	 SHORT $LN14@SetGamePha

; 42   : 				if (m_pFuncObject)

  0002c	8b 87 70 01 00
	00		 mov	 eax, DWORD PTR [edi+368]
  00032	85 c0		 test	 eax, eax
  00034	74 0a		 je	 SHORT $LN14@SetGamePha

; 43   : 					(m_pSelfObject->*m_pFuncObject)();

  00036	8b 8f 74 01 00
	00		 mov	 ecx, DWORD PTR [edi+372]
  0003c	03 ca		 add	 ecx, edx
  0003e	ff d0		 call	 eax
$LN14@SetGamePha:
; File d:\metin2\metin2\client_source_clean\client_source_clean\source\userinterface\pythonnetworkstreamphasegame.cpp

; 863  : 	Tracen("");

  00040	68 00 00 00 00	 push	 OFFSET ??_C@_00CNPNBAHC@?$AA@
  00045	e8 00 00 00 00	 call	 ?Tracen@@YAXPBD@Z	; Tracen

; 864  : 	Tracen("## Network - Game Phase ##");

  0004a	68 00 00 00 00	 push	 OFFSET ??_C@_0BL@HPKACCGC@?$CD?$CD?5Network?5?9?5Game?5Phase?5?$CD?$CD?$AA@
  0004f	e8 00 00 00 00	 call	 ?Tracen@@YAXPBD@Z	; Tracen

; 865  : 	Tracen("");

  00054	68 00 00 00 00	 push	 OFFSET ??_C@_00CNPNBAHC@?$AA@
  00059	e8 00 00 00 00	 call	 ?Tracen@@YAXPBD@Z	; Tracen
  0005e	83 c4 0c	 add	 esp, 12			; 0000000cH
; File c:\program files (x86)\microsoft visual studio 12.0\vc\include\xstring

; 1169 : 		return (assign(_Ptr, _Traits::length(_Ptr)));

  00061	8d 8f 0c 01 00
	00		 lea	 ecx, DWORD PTR [edi+268]
  00067	6a 04		 push	 4
  00069	68 00 00 00 00	 push	 OFFSET ??_C@_04IBBNLEM@Game?$AA@
  0006e	e8 00 00 00 00	 call	 ?assign@?$basic_string@DU?$char_traits@D@std@@V?$allocator@D@2@@std@@QAEAAV12@PBDI@Z ; std::basic_string<char,std::char_traits<char>,std::allocator<char> >::assign
; File d:\metin2\metin2\client_source_clean\client_source_clean\source\userinterface\pythonnetworkstreamphasegame.cpp

; 869  : 	m_dwChangingPhaseTime = ELTimer_GetMSec();

  00073	e8 00 00 00 00	 call	 ?ELTimer_GetMSec@@YAKXZ	; ELTimer_GetMSec

; 870  : 	m_phaseProcessFunc.Set(this, &CPythonNetworkStream::GamePhase);
; 871  : 	m_phaseLeaveFunc.Set(this, &CPythonNetworkStream::__LeaveGamePhase);
; 872  : 
; 873  : 	// Main Character O
; 874  : 
; 875  : 	IAbstractPlayer & rkPlayer = IAbstractPlayer::GetSingleton();

  00078	8b 15 00 00 00
	00		 mov	 edx, DWORD PTR ?ms_singleton@?$TAbstractSingleton@VIAbstractPlayer@@@@0PAVIAbstractPlayer@@A ; TAbstractSingleton<IAbstractPlayer>::ms_singleton

; 876  : 	rkPlayer.SetMainCharacterIndex(GetMainActorVID());

  0007e	8b cf		 mov	 ecx, edi
  00080	89 87 90 00 00
	00		 mov	 DWORD PTR [edi+144], eax
; File d:\metin2\metin2\client_source_clean\client_source_clean\source\eterlib\funcobject.h

; 24   : 			m_pSelfObject = pSelfObject;

  00086	89 bf 50 01 00
	00		 mov	 DWORD PTR [edi+336], edi

; 25   : 			m_pFuncObject = pFuncObject;

  0008c	c7 87 58 01 00
	00 00 00 00 00	 mov	 DWORD PTR [edi+344], OFFSET ?GamePhase@CPythonNetworkStream@@IAEXXZ ; CPythonNetworkStream::GamePhase
  00096	c7 87 5c 01 00
	00 00 00 00 00	 mov	 DWORD PTR [edi+348], 0

; 24   : 			m_pSelfObject = pSelfObject;

  000a0	89 bf 68 01 00
	00		 mov	 DWORD PTR [edi+360], edi

; 25   : 			m_pFuncObject = pFuncObject;

  000a6	c7 87 70 01 00
	00 00 00 00 00	 mov	 DWORD PTR [edi+368], OFFSET ?__LeaveGamePhase@CPythonNetworkStream@@IAEXXZ ; CPythonNetworkStream::__LeaveGamePhase
  000b0	c7 87 74 01 00
	00 00 00 00 00	 mov	 DWORD PTR [edi+372], 0
; File d:\metin2\metin2\client_source_clean\client_source_clean\source\userinterface\pythonnetworkstreamphasegame.cpp

; 876  : 	rkPlayer.SetMainCharacterIndex(GetMainActorVID());

  000ba	8b 32		 mov	 esi, DWORD PTR [edx]
  000bc	e8 00 00 00 00	 call	 ?GetMainActorVID@CPythonNetworkStream@@QAEKXZ ; CPythonNetworkStream::GetMainActorVID
  000c1	50		 push	 eax
  000c2	8b ca		 mov	 ecx, edx
  000c4	ff 56 08	 call	 DWORD PTR [esi+8]

; 877  : 
; 878  : 	__RefreshStatus();

  000c7	8b cf		 mov	 ecx, edi

; 879  : }

  000c9	5f		 pop	 edi
  000ca	5e		 pop	 esi

; 877  : 
; 878  : 	__RefreshStatus();

  000cb	e9 00 00 00 00	 jmp	 ?__RefreshStatus@CPythonNetworkStream@@IAEXXZ ; CPythonNetworkStream::__RefreshStatus
?SetGamePhase@CPythonNetworkStream@@QAEXXZ ENDP		; CPythonNetworkStream::SetGamePhase
_TEXT	ENDS
; Function compile flags: /Ogtp
; File d:\metin2\metin2\client_source_clean\client_source_clean\source\userinterface\pythonnetworkstreamphasegame.cpp
; File c:\program files (x86)\microsoft visual studio 12.0\vc\include\xstring
; File d:\metin2\metin2\client_source_clean\client_source_clean\source\userinterface\pythonnetworkstreamphasegame.cpp
; File c:\program files (x86)\microsoft visual studio 12.0\vc\include\xstring
; File d:\metin2\metin2\client_source_clean\client_source_clean\source\userinterface\pythonnetworkstreamphasegame.cpp
; File c:\program files (x86)\microsoft visual studio 12.0\vc\include\xstring
; File c:\program files (x86)\microsoft visual studio 12.0\vc\include\xstddef
; File d:\metin2\metin2\client_source_clean\client_source_clean\source\userinterface\pythonnetworkstreamphasegame.cpp
;	COMDAT ?SendChatPacket@CPythonNetworkStream@@QAE_NPBDE@Z
_TEXT	SEGMENT
tv66 = 8						; size = 4
_ChatPacket$ = 8					; size = 4
_c_szChat$ = 8						; size = 4
_byType$ = 12						; size = 1
?SendChatPacket@CPythonNetworkStream@@QAE_NPBDE@Z PROC	; CPythonNetworkStream::SendChatPacket, COMDAT
; _this$ = ecx

; 1168 : {

  00000	55		 push	 ebp
  00001	8b ec		 mov	 ebp, esp
  00003	56		 push	 esi

; 1169 : 	if (strlen(c_szChat) == 0)

  00004	8b 75 08	 mov	 esi, DWORD PTR _c_szChat$[ebp]
  00007	8b d6		 mov	 edx, esi
  00009	57		 push	 edi
  0000a	8b f9		 mov	 edi, ecx
  0000c	8d 4a 01	 lea	 ecx, DWORD PTR [edx+1]
  0000f	90		 npad	 1
$LL22@SendChatPa:
  00010	8a 02		 mov	 al, BYTE PTR [edx]
  00012	42		 inc	 edx
  00013	84 c0		 test	 al, al
  00015	75 f9		 jne	 SHORT $LL22@SendChatPa
  00017	2b d1		 sub	 edx, ecx
  00019	75 08		 jne	 SHORT $LN9@SendChatPa
$LN28@SendChatPa:
  0001b	5f		 pop	 edi

; 1170 : 		return true;

  0001c	b0 01		 mov	 al, 1
  0001e	5e		 pop	 esi

; 1204 : }

  0001f	5d		 pop	 ebp
  00020	c2 08 00	 ret	 8
$LN9@SendChatPa:

; 1171 : 
; 1172 : 	if (strlen(c_szChat) >= 512)

  00023	8b ce		 mov	 ecx, esi
  00025	8d 51 01	 lea	 edx, DWORD PTR [ecx+1]
$LL23@SendChatPa:
  00028	8a 01		 mov	 al, BYTE PTR [ecx]
  0002a	41		 inc	 ecx
  0002b	84 c0		 test	 al, al
  0002d	75 f9		 jne	 SHORT $LL23@SendChatPa
  0002f	2b ca		 sub	 ecx, edx
  00031	81 f9 00 02 00
	00		 cmp	 ecx, 512		; 00000200H
  00037	73 e2		 jae	 SHORT $LN28@SendChatPa

; 1173 : 		return true;
; 1174 : 
; 1175 : 	if (c_szChat[0] == '/')

  00039	80 3e 2f	 cmp	 BYTE PTR [esi], 47	; 0000002fH
  0003c	75 3b		 jne	 SHORT $LN4@SendChatPa

; 1176 : 	{
; 1177 : 		if (1 == strlen(c_szChat))

  0003e	8b ce		 mov	 ecx, esi
  00040	8d 51 01	 lea	 edx, DWORD PTR [ecx+1]
$LL24@SendChatPa:
  00043	8a 01		 mov	 al, BYTE PTR [ecx]
  00045	41		 inc	 ecx
  00046	84 c0		 test	 al, al
  00048	75 f9		 jne	 SHORT $LL24@SendChatPa
  0004a	2b ca		 sub	 ecx, edx
  0004c	83 f9 01	 cmp	 ecx, 1
  0004f	75 1c		 jne	 SHORT $LN6@SendChatPa
; File c:\program files (x86)\microsoft visual studio 12.0\vc\include\xstring

; 1793 : 		return (this->_Mysize == 0);

  00051	83 bf 04 01 00
	00 00		 cmp	 DWORD PTR [edi+260], 0
; File d:\metin2\metin2\client_source_clean\client_source_clean\source\userinterface\pythonnetworkstreamphasegame.cpp

; 1179 : 			if (!m_strLastCommand.empty())

  00058	74 1f		 je	 SHORT $LN4@SendChatPa
; File c:\program files (x86)\microsoft visual studio 12.0\vc\include\xstring

; 520  : 			: this->_Bx._Buf);

  0005a	83 bf 08 01 00
	00 10		 cmp	 DWORD PTR [edi+264], 16	; 00000010H
; File d:\metin2\metin2\client_source_clean\client_source_clean\source\userinterface\pythonnetworkstreamphasegame.cpp

; 1180 : 				c_szChat = m_strLastCommand.c_str();

  00061	8d b7 f4 00 00
	00		 lea	 esi, DWORD PTR [edi+244]
; File c:\program files (x86)\microsoft visual studio 12.0\vc\include\xstring

; 520  : 			: this->_Bx._Buf);

  00067	72 10		 jb	 SHORT $LN4@SendChatPa
; File c:\program files (x86)\microsoft visual studio 12.0\vc\include\xstddef

; 95   : 		reinterpret_cast<const volatile char&>(_Val)))));

  00069	8b 36		 mov	 esi, DWORD PTR [esi]
; File d:\metin2\metin2\client_source_clean\client_source_clean\source\userinterface\pythonnetworkstreamphasegame.cpp

; 1182 : 		else

  0006b	eb 0c		 jmp	 SHORT $LN4@SendChatPa
$LN6@SendChatPa:

; 1183 : 		{
; 1184 : 			m_strLastCommand = c_szChat;

  0006d	56		 push	 esi
  0006e	8d 8f f4 00 00
	00		 lea	 ecx, DWORD PTR [edi+244]
  00074	e8 00 00 00 00	 call	 ??4?$basic_string@DU?$char_traits@D@std@@V?$allocator@D@2@@std@@QAEAAV01@PBD@Z ; std::basic_string<char,std::char_traits<char>,std::allocator<char> >::operator=
$LN4@SendChatPa:

; 1185 : 		}
; 1186 : 	}
; 1187 : 
; 1188 : 	if (ClientCommand(c_szChat))

  00079	51		 push	 ecx
  0007a	e8 00 00 00 00	 call	 ?ClientCommand@CPythonNetworkStream@@QAE_NPBD@Z ; CPythonNetworkStream::ClientCommand
  0007f	84 c0		 test	 al, al
  00081	75 98		 jne	 SHORT $LN28@SendChatPa

; 1189 : 		return true;
; 1190 : 
; 1191 : 	int iTextLen = strlen(c_szChat) + 1;

  00083	8b ce		 mov	 ecx, esi
  00085	8d 51 01	 lea	 edx, DWORD PTR [ecx+1]
$LL25@SendChatPa:
  00088	8a 01		 mov	 al, BYTE PTR [ecx]
  0008a	41		 inc	 ecx
  0008b	84 c0		 test	 al, al
  0008d	75 f9		 jne	 SHORT $LL25@SendChatPa
  0008f	2b ca		 sub	 ecx, edx

; 1192 : 	TPacketCGChat ChatPacket;
; 1193 : 	ChatPacket.header = HEADER_CG_CHAT;

  00091	c6 45 08 03	 mov	 BYTE PTR _ChatPacket$[ebp], 3
  00095	53		 push	 ebx
  00096	8d 59 01	 lea	 ebx, DWORD PTR [ecx+1]

; 1194 : 	ChatPacket.length = sizeof(ChatPacket) + iTextLen;
; 1195 : 	ChatPacket.type = byType;
; 1196 : 
; 1197 : 	if (!Send(sizeof(ChatPacket), &ChatPacket))

  00099	8b cf		 mov	 ecx, edi
  0009b	8d 43 04	 lea	 eax, DWORD PTR [ebx+4]
  0009e	66 89 45 09	 mov	 WORD PTR _ChatPacket$[ebp+1], ax
  000a2	8b 45 0c	 mov	 eax, DWORD PTR _byType$[ebp]
  000a5	88 45 0b	 mov	 BYTE PTR _ChatPacket$[ebp+3], al
  000a8	8d 45 08	 lea	 eax, DWORD PTR _ChatPacket$[ebp]
  000ab	50		 push	 eax
  000ac	6a 04		 push	 4
  000ae	e8 00 00 00 00	 call	 ?Send@CNetworkStream@@QAE_NHPBX@Z ; CNetworkStream::Send
  000b3	84 c0		 test	 al, al
  000b5	74 0d		 je	 SHORT $LN27@SendChatPa

; 1198 : 		return false;
; 1199 : 
; 1200 : 	if (!Send(iTextLen, c_szChat))

  000b7	56		 push	 esi
  000b8	53		 push	 ebx
  000b9	8b cf		 mov	 ecx, edi
  000bb	e8 00 00 00 00	 call	 ?Send@CNetworkStream@@QAE_NHPBD@Z ; CNetworkStream::Send
  000c0	84 c0		 test	 al, al
  000c2	75 09		 jne	 SHORT $LN1@SendChatPa
$LN27@SendChatPa:
  000c4	5b		 pop	 ebx
  000c5	5f		 pop	 edi

; 1201 : 		return false;

  000c6	32 c0		 xor	 al, al
  000c8	5e		 pop	 esi

; 1204 : }

  000c9	5d		 pop	 ebp
  000ca	c2 08 00	 ret	 8
$LN1@SendChatPa:

; 1202 : 
; 1203 : 	return SendSequence();

  000cd	8b cf		 mov	 ecx, edi
  000cf	e8 00 00 00 00	 call	 ?SendSequence@CNetworkStream@@QAE_NXZ ; CNetworkStream::SendSequence
  000d4	5b		 pop	 ebx
  000d5	5f		 pop	 edi
  000d6	5e		 pop	 esi

; 1204 : }

  000d7	5d		 pop	 ebp
  000d8	c2 08 00	 ret	 8
?SendChatPacket@CPythonNetworkStream@@QAE_NPBDE@Z ENDP	; CPythonNetworkStream::SendChatPacket
_TEXT	ENDS
; Function compile flags: /Ogtp
; File d:\metin2\metin2\client_source_clean\client_source_clean\source\userinterface\pythonnetworkstreamphasegame.cpp
;	COMDAT ?__TEST_SetSkillGroupFake@CPythonNetworkStream@@QAEXH@Z
_TEXT	SEGMENT
_iIndex$ = 8						; size = 4
?__TEST_SetSkillGroupFake@CPythonNetworkStream@@QAEXH@Z PROC ; CPythonNetworkStream::__TEST_SetSkillGroupFake, COMDAT
; _this$ = ecx

; 3994 : {

  00000	55		 push	 ebp
  00001	8b ec		 mov	 ebp, esp

; 3995 : 	m_dwMainActorSkillGroup = DWORD(iIndex);

  00003	8b 45 08	 mov	 eax, DWORD PTR _iIndex$[ebp]
  00006	56		 push	 esi
  00007	8b f1		 mov	 esi, ecx

; 3996 : 
; 3997 : 	CPythonPlayer::Instance().NEW_ClearSkillData();

  00009	8b 0d 00 00 00
	00		 mov	 ecx, DWORD PTR ?ms_singleton@?$CSingleton@VCPythonPlayer@@@@0PAVCPythonPlayer@@A ; CSingleton<CPythonPlayer>::ms_singleton
  0000f	6a 00		 push	 0
  00011	89 86 a4 00 00
	00		 mov	 DWORD PTR [esi+164], eax
  00017	e8 00 00 00 00	 call	 ?NEW_ClearSkillData@CPythonPlayer@@QAEX_N@Z ; CPythonPlayer::NEW_ClearSkillData

; 3998 : 	PyCallClassMemberFunc(m_apoPhaseWnd[PHASE_WINDOW_GAME], "RefreshCharacter", Py_BuildValue("()"));

  0001c	68 00 00 00 00	 push	 OFFSET ??_C@_02HCKGKOFO@?$CI?$CJ?$AA@
  00021	ff 15 00 00 00
	00		 call	 DWORD PTR __imp__Py_BuildValue
  00027	50		 push	 eax
  00028	68 00 00 00 00	 push	 OFFSET ??_C@_0BB@HFALJDHO@RefreshCharacter?$AA@
  0002d	ff b6 90 01 00
	00		 push	 DWORD PTR [esi+400]
  00033	e8 00 00 00 00	 call	 ?PyCallClassMemberFunc@@YA_NPAU_object@@PBD0@Z ; PyCallClassMemberFunc
  00038	83 c4 10	 add	 esp, 16			; 00000010H
  0003b	5e		 pop	 esi

; 3999 : }

  0003c	5d		 pop	 ebp
  0003d	c2 04 00	 ret	 4
?__TEST_SetSkillGroupFake@CPythonNetworkStream@@QAEXH@Z ENDP ; CPythonNetworkStream::__TEST_SetSkillGroupFake
_TEXT	ENDS
; Function compile flags: /Ogtp
; File d:\metin2\metin2\client_source_clean\client_source_clean\source\userinterface\pythonnetworkstreamphasegame.cpp
;	COMDAT ?SendSelectItemPacket@CPythonNetworkStream@@QAE_NK@Z
_TEXT	SEGMENT
_kScriptSelectItem$ = -8				; size = 5
_dwItemPos$ = 8						; size = 4
?SendSelectItemPacket@CPythonNetworkStream@@QAE_NK@Z PROC ; CPythonNetworkStream::SendSelectItemPacket, COMDAT
; _this$ = ecx

; 4015 : {

  00000	55		 push	 ebp
  00001	8b ec		 mov	 ebp, esp
  00003	83 ec 08	 sub	 esp, 8

; 4016 : 	TPacketCGScriptSelectItem kScriptSelectItem;
; 4017 : 	kScriptSelectItem.header = HEADER_CG_SCRIPT_SELECT_ITEM;
; 4018 : 	kScriptSelectItem.selection = dwItemPos;

  00006	8b 45 08	 mov	 eax, DWORD PTR _dwItemPos$[ebp]
  00009	56		 push	 esi
  0000a	89 45 f9	 mov	 DWORD PTR _kScriptSelectItem$[ebp+1], eax
  0000d	8b f1		 mov	 esi, ecx

; 4019 : 
; 4020 : 	if (!Send(sizeof(kScriptSelectItem), &kScriptSelectItem))

  0000f	8d 45 f8	 lea	 eax, DWORD PTR _kScriptSelectItem$[ebp]
  00012	c6 45 f8 72	 mov	 BYTE PTR _kScriptSelectItem$[ebp], 114 ; 00000072H
  00016	50		 push	 eax
  00017	6a 05		 push	 5
  00019	e8 00 00 00 00	 call	 ?Send@CNetworkStream@@QAE_NHPBX@Z ; CNetworkStream::Send
  0001e	84 c0		 test	 al, al
  00020	75 07		 jne	 SHORT $LN1@SendSelect
  00022	5e		 pop	 esi

; 4024 : }

  00023	8b e5		 mov	 esp, ebp
  00025	5d		 pop	 ebp
  00026	c2 04 00	 ret	 4
$LN1@SendSelect:

; 4021 : 		return false;
; 4022 : 
; 4023 : 	return SendSequence();

  00029	8b ce		 mov	 ecx, esi
  0002b	e8 00 00 00 00	 call	 ?SendSequence@CNetworkStream@@QAE_NXZ ; CNetworkStream::SendSequence
  00030	5e		 pop	 esi

; 4024 : }

  00031	8b e5		 mov	 esp, ebp
  00033	5d		 pop	 ebp
  00034	c2 04 00	 ret	 4
?SendSelectItemPacket@CPythonNetworkStream@@QAE_NK@Z ENDP ; CPythonNetworkStream::SendSelectItemPacket
_TEXT	ENDS
; Function compile flags: /Ogtp
; File d:\metin2\metin2\client_source_clean\client_source_clean\source\userinterface\pythonnetworkstreamphasegame.cpp
;	COMDAT ?SendRefinePacket@CPythonNetworkStream@@QAE_NEE@Z
_TEXT	SEGMENT
_kRefinePacket$ = -4					; size = 3
_byPos$ = 8						; size = 1
_byType$ = 12						; size = 1
?SendRefinePacket@CPythonNetworkStream@@QAE_NEE@Z PROC	; CPythonNetworkStream::SendRefinePacket, COMDAT
; _this$ = ecx

; 4002 : {

  00000	55		 push	 ebp
  00001	8b ec		 mov	 ebp, esp
  00003	51		 push	 ecx

; 4003 : 	TPacketCGRefine kRefinePacket;
; 4004 : 	kRefinePacket.header = HEADER_CG_REFINE;
; 4005 : 	kRefinePacket.pos = byPos;

  00004	8b 45 08	 mov	 eax, DWORD PTR _byPos$[ebp]
  00007	88 45 fd	 mov	 BYTE PTR _kRefinePacket$[ebp+1], al

; 4006 : 	kRefinePacket.type = byType;

  0000a	8b 45 0c	 mov	 eax, DWORD PTR _byType$[ebp]
  0000d	56		 push	 esi
  0000e	88 45 fe	 mov	 BYTE PTR _kRefinePacket$[ebp+2], al
  00011	8b f1		 mov	 esi, ecx

; 4007 : 
; 4008 : 	if (!Send(sizeof(kRefinePacket), &kRefinePacket))

  00013	8d 45 fc	 lea	 eax, DWORD PTR _kRefinePacket$[ebp]
  00016	c6 45 fc 60	 mov	 BYTE PTR _kRefinePacket$[ebp], 96 ; 00000060H
  0001a	50		 push	 eax
  0001b	6a 03		 push	 3
  0001d	e8 00 00 00 00	 call	 ?Send@CNetworkStream@@QAE_NHPBX@Z ; CNetworkStream::Send
  00022	84 c0		 test	 al, al
  00024	75 07		 jne	 SHORT $LN1@SendRefine
  00026	5e		 pop	 esi

; 4012 : }

  00027	8b e5		 mov	 esp, ebp
  00029	5d		 pop	 ebp
  0002a	c2 08 00	 ret	 8
$LN1@SendRefine:

; 4009 : 		return false;
; 4010 : 
; 4011 : 	return SendSequence();

  0002d	8b ce		 mov	 ecx, esi
  0002f	e8 00 00 00 00	 call	 ?SendSequence@CNetworkStream@@QAE_NXZ ; CNetworkStream::SendSequence
  00034	5e		 pop	 esi

; 4012 : }

  00035	8b e5		 mov	 esp, ebp
  00037	5d		 pop	 ebp
  00038	c2 08 00	 ret	 8
?SendRefinePacket@CPythonNetworkStream@@QAE_NEE@Z ENDP	; CPythonNetworkStream::SendRefinePacket
_TEXT	ENDS
; Function compile flags: /Ogtp
; File d:\metin2\metin2\client_source_clean\client_source_clean\source\userinterface\pythonnetworkstreamphasegame.cpp
;	COMDAT ?SendGuildWithdrawMoneyPacket@CPythonNetworkStream@@QAE_NK@Z
_TEXT	SEGMENT
_GuildPacket$ = -4					; size = 2
_dwMoney$ = 8						; size = 4
?SendGuildWithdrawMoneyPacket@CPythonNetworkStream@@QAE_NK@Z PROC ; CPythonNetworkStream::SendGuildWithdrawMoneyPacket, COMDAT
; _this$ = ecx

; 3280 : {

  00000	55		 push	 ebp
  00001	8b ec		 mov	 ebp, esp
  00003	51		 push	 ecx
  00004	56		 push	 esi

; 3281 : 	TPacketCGGuild GuildPacket;
; 3282 : 	GuildPacket.byHeader = HEADER_CG_GUILD;
; 3283 : 	GuildPacket.bySubHeader = GUILD_SUBHEADER_CG_WITHDRAW_MONEY;
; 3284 : 	if (!Send(sizeof(GuildPacket), &GuildPacket))

  00005	8d 45 fc	 lea	 eax, DWORD PTR _GuildPacket$[ebp]
  00008	66 c7 45 fc 50
	0e		 mov	 WORD PTR _GuildPacket$[ebp], 3664 ; 00000e50H
  0000e	50		 push	 eax
  0000f	6a 02		 push	 2
  00011	8b f1		 mov	 esi, ecx
  00013	e8 00 00 00 00	 call	 ?Send@CNetworkStream@@QAE_NHPBX@Z ; CNetworkStream::Send
  00018	84 c0		 test	 al, al
  0001a	75 09		 jne	 SHORT $LN2@SendGuildW
$LN5@SendGuildW:

; 3285 : 		return false;

  0001c	32 c0		 xor	 al, al
  0001e	5e		 pop	 esi

; 3291 : }

  0001f	8b e5		 mov	 esp, ebp
  00021	5d		 pop	 ebp
  00022	c2 04 00	 ret	 4
$LN2@SendGuildW:

; 3286 : 	if (!Send(sizeof(dwMoney), &dwMoney))

  00025	8d 45 08	 lea	 eax, DWORD PTR _dwMoney$[ebp]
  00028	8b ce		 mov	 ecx, esi
  0002a	50		 push	 eax
  0002b	6a 04		 push	 4
  0002d	e8 00 00 00 00	 call	 ?Send@CNetworkStream@@QAE_NHPBX@Z ; CNetworkStream::Send
  00032	84 c0		 test	 al, al
  00034	74 e6		 je	 SHORT $LN5@SendGuildW

; 3287 : 		return false;
; 3288 : 
; 3289 : 	Tracef(" SendGuildWithdrawMoneyPacket %d\n", dwMoney);

  00036	ff 75 08	 push	 DWORD PTR _dwMoney$[ebp]
  00039	68 00 00 00 00	 push	 OFFSET ??_C@_0CC@HBGAJKKF@?5SendGuildWithdrawMoneyPacket?5?$CFd@
  0003e	e8 00 00 00 00	 call	 ?Tracef@@YAXPBDZZ	; Tracef
  00043	83 c4 08	 add	 esp, 8

; 3290 : 	return SendSequence();

  00046	8b ce		 mov	 ecx, esi
  00048	e8 00 00 00 00	 call	 ?SendSequence@CNetworkStream@@QAE_NXZ ; CNetworkStream::SendSequence
  0004d	5e		 pop	 esi

; 3291 : }

  0004e	8b e5		 mov	 esp, ebp
  00050	5d		 pop	 ebp
  00051	c2 04 00	 ret	 4
?SendGuildWithdrawMoneyPacket@CPythonNetworkStream@@QAE_NK@Z ENDP ; CPythonNetworkStream::SendGuildWithdrawMoneyPacket
_TEXT	ENDS
; Function compile flags: /Ogtp
; File d:\metin2\metin2\client_source_clean\client_source_clean\source\userinterface\pythonnetworkstreamphasegame.cpp
;	COMDAT ?SendGuildDepositMoneyPacket@CPythonNetworkStream@@QAE_NK@Z
_TEXT	SEGMENT
_GuildPacket$ = -4					; size = 2
_dwMoney$ = 8						; size = 4
?SendGuildDepositMoneyPacket@CPythonNetworkStream@@QAE_NK@Z PROC ; CPythonNetworkStream::SendGuildDepositMoneyPacket, COMDAT
; _this$ = ecx

; 3266 : {

  00000	55		 push	 ebp
  00001	8b ec		 mov	 ebp, esp
  00003	51		 push	 ecx
  00004	56		 push	 esi

; 3267 : 	TPacketCGGuild GuildPacket;
; 3268 : 	GuildPacket.byHeader = HEADER_CG_GUILD;
; 3269 : 	GuildPacket.bySubHeader = GUILD_SUBHEADER_CG_DEPOSIT_MONEY;
; 3270 : 	if (!Send(sizeof(GuildPacket), &GuildPacket))

  00005	8d 45 fc	 lea	 eax, DWORD PTR _GuildPacket$[ebp]
  00008	66 c7 45 fc 50
	0d		 mov	 WORD PTR _GuildPacket$[ebp], 3408 ; 00000d50H
  0000e	50		 push	 eax
  0000f	6a 02		 push	 2
  00011	8b f1		 mov	 esi, ecx
  00013	e8 00 00 00 00	 call	 ?Send@CNetworkStream@@QAE_NHPBX@Z ; CNetworkStream::Send
  00018	84 c0		 test	 al, al
  0001a	75 09		 jne	 SHORT $LN2@SendGuildD
$LN5@SendGuildD:

; 3271 : 		return false;

  0001c	32 c0		 xor	 al, al
  0001e	5e		 pop	 esi

; 3277 : }

  0001f	8b e5		 mov	 esp, ebp
  00021	5d		 pop	 ebp
  00022	c2 04 00	 ret	 4
$LN2@SendGuildD:

; 3272 : 	if (!Send(sizeof(dwMoney), &dwMoney))

  00025	8d 45 08	 lea	 eax, DWORD PTR _dwMoney$[ebp]
  00028	8b ce		 mov	 ecx, esi
  0002a	50		 push	 eax
  0002b	6a 04		 push	 4
  0002d	e8 00 00 00 00	 call	 ?Send@CNetworkStream@@QAE_NHPBX@Z ; CNetworkStream::Send
  00032	84 c0		 test	 al, al
  00034	74 e6		 je	 SHORT $LN5@SendGuildD

; 3273 : 		return false;
; 3274 : 
; 3275 : 	Tracef(" SendGuildDepositMoneyPacket %d\n", dwMoney);

  00036	ff 75 08	 push	 DWORD PTR _dwMoney$[ebp]
  00039	68 00 00 00 00	 push	 OFFSET ??_C@_0CB@OEPAEO@?5SendGuildDepositMoneyPacket?5?$CFd?6@
  0003e	e8 00 00 00 00	 call	 ?Tracef@@YAXPBDZZ	; Tracef
  00043	83 c4 08	 add	 esp, 8

; 3276 : 	return SendSequence();

  00046	8b ce		 mov	 ecx, esi
  00048	e8 00 00 00 00	 call	 ?SendSequence@CNetworkStream@@QAE_NXZ ; CNetworkStream::SendSequence
  0004d	5e		 pop	 esi

; 3277 : }

  0004e	8b e5		 mov	 esp, ebp
  00050	5d		 pop	 ebp
  00051	c2 04 00	 ret	 4
?SendGuildDepositMoneyPacket@CPythonNetworkStream@@QAE_NK@Z ENDP ; CPythonNetworkStream::SendGuildDepositMoneyPacket
_TEXT	ENDS
; Function compile flags: /Ogtp
; File d:\metin2\metin2\client_source_clean\client_source_clean\source\userinterface\pythonnetworkstreamphasegame.cpp
;	COMDAT ?SendGuildChargeGSPPacket@CPythonNetworkStream@@QAE_NK@Z
_TEXT	SEGMENT
_GuildPacket$ = -4					; size = 2
_dwMoney$ = 8						; size = 4
?SendGuildChargeGSPPacket@CPythonNetworkStream@@QAE_NK@Z PROC ; CPythonNetworkStream::SendGuildChargeGSPPacket, COMDAT
; _this$ = ecx

; 3251 : {

  00000	55		 push	 ebp
  00001	8b ec		 mov	 ebp, esp
  00003	51		 push	 ecx
  00004	56		 push	 esi

; 3252 : 	TPacketCGGuild GuildPacket;
; 3253 : 	GuildPacket.byHeader = HEADER_CG_GUILD;
; 3254 : 	GuildPacket.bySubHeader = GUILD_SUBHEADER_CG_CHARGE_GSP;
; 3255 : 	if (!Send(sizeof(GuildPacket), &GuildPacket))

  00005	8d 45 fc	 lea	 eax, DWORD PTR _GuildPacket$[ebp]
  00008	66 c7 45 fc 50
	0c		 mov	 WORD PTR _GuildPacket$[ebp], 3152 ; 00000c50H
  0000e	50		 push	 eax
  0000f	6a 02		 push	 2
  00011	8b f1		 mov	 esi, ecx
  00013	e8 00 00 00 00	 call	 ?Send@CNetworkStream@@QAE_NHPBX@Z ; CNetworkStream::Send
  00018	84 c0		 test	 al, al
  0001a	75 09		 jne	 SHORT $LN2@SendGuildC
$LN5@SendGuildC:

; 3256 : 		return false;

  0001c	32 c0		 xor	 al, al
  0001e	5e		 pop	 esi

; 3263 : }

  0001f	8b e5		 mov	 esp, ebp
  00021	5d		 pop	 ebp
  00022	c2 04 00	 ret	 4
$LN2@SendGuildC:

; 3257 : 
; 3258 : 	if (!Send(sizeof(dwMoney), &dwMoney))

  00025	8d 45 08	 lea	 eax, DWORD PTR _dwMoney$[ebp]
  00028	8b ce		 mov	 ecx, esi
  0002a	50		 push	 eax
  0002b	6a 04		 push	 4
  0002d	e8 00 00 00 00	 call	 ?Send@CNetworkStream@@QAE_NHPBX@Z ; CNetworkStream::Send
  00032	84 c0		 test	 al, al
  00034	74 e6		 je	 SHORT $LN5@SendGuildC

; 3259 : 		return false;
; 3260 : 
; 3261 : 	Tracef(" SendGuildChargeGSPPacket %d\n", dwMoney);

  00036	ff 75 08	 push	 DWORD PTR _dwMoney$[ebp]
  00039	68 00 00 00 00	 push	 OFFSET ??_C@_0BO@DLDFHEKF@?5SendGuildChargeGSPPacket?5?$CFd?6?$AA@
  0003e	e8 00 00 00 00	 call	 ?Tracef@@YAXPBDZZ	; Tracef
  00043	83 c4 08	 add	 esp, 8

; 3262 : 	return SendSequence();

  00046	8b ce		 mov	 ecx, esi
  00048	e8 00 00 00 00	 call	 ?SendSequence@CNetworkStream@@QAE_NXZ ; CNetworkStream::SendSequence
  0004d	5e		 pop	 esi

; 3263 : }

  0004e	8b e5		 mov	 esp, ebp
  00050	5d		 pop	 ebp
  00051	c2 04 00	 ret	 4
?SendGuildChargeGSPPacket@CPythonNetworkStream@@QAE_NK@Z ENDP ; CPythonNetworkStream::SendGuildChargeGSPPacket
_TEXT	ENDS
; Function compile flags: /Ogtp
; File d:\metin2\metin2\client_source_clean\client_source_clean\source\userinterface\pythonnetworkstreamphasegame.cpp
;	COMDAT ?SendGuildInviteAnswerPacket@CPythonNetworkStream@@QAE_NKE@Z
_TEXT	SEGMENT
_GuildPacket$ = -4					; size = 2
_dwGuildID$ = 8						; size = 4
_byAnswer$ = 12						; size = 1
?SendGuildInviteAnswerPacket@CPythonNetworkStream@@QAE_NKE@Z PROC ; CPythonNetworkStream::SendGuildInviteAnswerPacket, COMDAT
; _this$ = ecx

; 3234 : {

  00000	55		 push	 ebp
  00001	8b ec		 mov	 ebp, esp
  00003	51		 push	 ecx
  00004	56		 push	 esi

; 3235 : 	TPacketCGGuild GuildPacket;
; 3236 : 	GuildPacket.byHeader = HEADER_CG_GUILD;
; 3237 : 	GuildPacket.bySubHeader = GUILD_SUBHEADER_CG_GUILD_INVITE_ANSWER;
; 3238 : 	if (!Send(sizeof(GuildPacket), &GuildPacket))

  00005	8d 45 fc	 lea	 eax, DWORD PTR _GuildPacket$[ebp]
  00008	66 c7 45 fc 50
	0b		 mov	 WORD PTR _GuildPacket$[ebp], 2896 ; 00000b50H
  0000e	50		 push	 eax
  0000f	6a 02		 push	 2
  00011	8b f1		 mov	 esi, ecx
  00013	e8 00 00 00 00	 call	 ?Send@CNetworkStream@@QAE_NHPBX@Z ; CNetworkStream::Send
  00018	84 c0		 test	 al, al
  0001a	75 09		 jne	 SHORT $LN3@SendGuildI
$LN6@SendGuildI:

; 3239 : 		return false;

  0001c	32 c0		 xor	 al, al
  0001e	5e		 pop	 esi

; 3248 : }

  0001f	8b e5		 mov	 esp, ebp
  00021	5d		 pop	 ebp
  00022	c2 08 00	 ret	 8
$LN3@SendGuildI:

; 3240 : 
; 3241 : 	if (!Send(sizeof(dwGuildID), &dwGuildID))

  00025	8d 45 08	 lea	 eax, DWORD PTR _dwGuildID$[ebp]
  00028	8b ce		 mov	 ecx, esi
  0002a	50		 push	 eax
  0002b	6a 04		 push	 4
  0002d	e8 00 00 00 00	 call	 ?Send@CNetworkStream@@QAE_NHPBX@Z ; CNetworkStream::Send
  00032	84 c0		 test	 al, al
  00034	74 e6		 je	 SHORT $LN6@SendGuildI

; 3242 : 		return false;
; 3243 : 	if (!Send(sizeof(byAnswer), &byAnswer))

  00036	8d 45 0c	 lea	 eax, DWORD PTR _byAnswer$[ebp]
  00039	8b ce		 mov	 ecx, esi
  0003b	50		 push	 eax
  0003c	6a 01		 push	 1
  0003e	e8 00 00 00 00	 call	 ?Send@CNetworkStream@@QAE_NHPBX@Z ; CNetworkStream::Send
  00043	84 c0		 test	 al, al
  00045	74 d5		 je	 SHORT $LN6@SendGuildI

; 3244 : 		return false;
; 3245 : 
; 3246 : 	Tracef(" SendGuildInviteAnswerPacket %d, %d\n", dwGuildID, byAnswer);

  00047	8b 45 0c	 mov	 eax, DWORD PTR _byAnswer$[ebp]
  0004a	0f b6 c0	 movzx	 eax, al
  0004d	50		 push	 eax
  0004e	ff 75 08	 push	 DWORD PTR _dwGuildID$[ebp]
  00051	68 00 00 00 00	 push	 OFFSET ??_C@_0CF@HPNCOLAE@?5SendGuildInviteAnswerPacket?5?$CFd?0@
  00056	e8 00 00 00 00	 call	 ?Tracef@@YAXPBDZZ	; Tracef
  0005b	83 c4 0c	 add	 esp, 12			; 0000000cH

; 3247 : 	return SendSequence();

  0005e	8b ce		 mov	 ecx, esi
  00060	e8 00 00 00 00	 call	 ?SendSequence@CNetworkStream@@QAE_NXZ ; CNetworkStream::SendSequence
  00065	5e		 pop	 esi

; 3248 : }

  00066	8b e5		 mov	 esp, ebp
  00068	5d		 pop	 ebp
  00069	c2 08 00	 ret	 8
?SendGuildInviteAnswerPacket@CPythonNetworkStream@@QAE_NKE@Z ENDP ; CPythonNetworkStream::SendGuildInviteAnswerPacket
_TEXT	ENDS
; Function compile flags: /Ogtp
; File d:\metin2\metin2\client_source_clean\client_source_clean\source\userinterface\pythonnetworkstreamphasegame.cpp
;	COMDAT ?SendGuildChangeMemberGeneralPacket@CPythonNetworkStream@@QAE_NKE@Z
_TEXT	SEGMENT
_GuildPacket$ = -4					; size = 2
_dwPID$ = 8						; size = 4
_byFlag$ = 12						; size = 1
?SendGuildChangeMemberGeneralPacket@CPythonNetworkStream@@QAE_NKE@Z PROC ; CPythonNetworkStream::SendGuildChangeMemberGeneralPacket, COMDAT
; _this$ = ecx

; 3217 : {

  00000	55		 push	 ebp
  00001	8b ec		 mov	 ebp, esp
  00003	51		 push	 ecx
  00004	56		 push	 esi

; 3218 : 	TPacketCGGuild GuildPacket;
; 3219 : 	GuildPacket.byHeader = HEADER_CG_GUILD;
; 3220 : 	GuildPacket.bySubHeader = GUILD_SUBHEADER_CG_CHANGE_MEMBER_GENERAL;
; 3221 : 	if (!Send(sizeof(GuildPacket), &GuildPacket))

  00005	8d 45 fc	 lea	 eax, DWORD PTR _GuildPacket$[ebp]
  00008	66 c7 45 fc 50
	0a		 mov	 WORD PTR _GuildPacket$[ebp], 2640 ; 00000a50H
  0000e	50		 push	 eax
  0000f	6a 02		 push	 2
  00011	8b f1		 mov	 esi, ecx
  00013	e8 00 00 00 00	 call	 ?Send@CNetworkStream@@QAE_NHPBX@Z ; CNetworkStream::Send
  00018	84 c0		 test	 al, al
  0001a	75 09		 jne	 SHORT $LN3@SendGuildC
$LN6@SendGuildC:

; 3222 : 		return false;

  0001c	32 c0		 xor	 al, al
  0001e	5e		 pop	 esi

; 3231 : }

  0001f	8b e5		 mov	 esp, ebp
  00021	5d		 pop	 ebp
  00022	c2 08 00	 ret	 8
$LN3@SendGuildC:

; 3223 : 
; 3224 : 	if (!Send(sizeof(dwPID), &dwPID))

  00025	8d 45 08	 lea	 eax, DWORD PTR _dwPID$[ebp]
  00028	8b ce		 mov	 ecx, esi
  0002a	50		 push	 eax
  0002b	6a 04		 push	 4
  0002d	e8 00 00 00 00	 call	 ?Send@CNetworkStream@@QAE_NHPBX@Z ; CNetworkStream::Send
  00032	84 c0		 test	 al, al
  00034	74 e6		 je	 SHORT $LN6@SendGuildC

; 3225 : 		return false;
; 3226 : 	if (!Send(sizeof(byFlag), &byFlag))

  00036	8d 45 0c	 lea	 eax, DWORD PTR _byFlag$[ebp]
  00039	8b ce		 mov	 ecx, esi
  0003b	50		 push	 eax
  0003c	6a 01		 push	 1
  0003e	e8 00 00 00 00	 call	 ?Send@CNetworkStream@@QAE_NHPBX@Z ; CNetworkStream::Send
  00043	84 c0		 test	 al, al
  00045	74 d5		 je	 SHORT $LN6@SendGuildC

; 3227 : 		return false;
; 3228 : 
; 3229 : 	Tracef(" SendGuildChangeMemberGeneralFlagPacket %d, %d\n", dwPID, byFlag);

  00047	8b 45 0c	 mov	 eax, DWORD PTR _byFlag$[ebp]
  0004a	0f b6 c0	 movzx	 eax, al
  0004d	50		 push	 eax
  0004e	ff 75 08	 push	 DWORD PTR _dwPID$[ebp]
  00051	68 00 00 00 00	 push	 OFFSET ??_C@_0DA@BBFAPAKJ@?5SendGuildChangeMemberGeneralFla@
  00056	e8 00 00 00 00	 call	 ?Tracef@@YAXPBDZZ	; Tracef
  0005b	83 c4 0c	 add	 esp, 12			; 0000000cH

; 3230 : 	return SendSequence();

  0005e	8b ce		 mov	 ecx, esi
  00060	e8 00 00 00 00	 call	 ?SendSequence@CNetworkStream@@QAE_NXZ ; CNetworkStream::SendSequence
  00065	5e		 pop	 esi

; 3231 : }

  00066	8b e5		 mov	 esp, ebp
  00068	5d		 pop	 ebp
  00069	c2 08 00	 ret	 8
?SendGuildChangeMemberGeneralPacket@CPythonNetworkStream@@QAE_NKE@Z ENDP ; CPythonNetworkStream::SendGuildChangeMemberGeneralPacket
_TEXT	ENDS
; Function compile flags: /Ogtp
; File d:\metin2\metin2\client_source_clean\client_source_clean\source\userinterface\pythonnetworkstreamphasegame.cpp
;	COMDAT ?SendGuildUseSkillPacket@CPythonNetworkStream@@QAE_NKK@Z
_TEXT	SEGMENT
_GuildPacket$ = -4					; size = 2
_dwSkillID$ = 8						; size = 4
_dwTargetVID$ = 12					; size = 4
?SendGuildUseSkillPacket@CPythonNetworkStream@@QAE_NKK@Z PROC ; CPythonNetworkStream::SendGuildUseSkillPacket, COMDAT
; _this$ = ecx

; 3200 : {

  00000	55		 push	 ebp
  00001	8b ec		 mov	 ebp, esp
  00003	51		 push	 ecx
  00004	56		 push	 esi

; 3201 : 	TPacketCGGuild GuildPacket;
; 3202 : 	GuildPacket.byHeader = HEADER_CG_GUILD;
; 3203 : 	GuildPacket.bySubHeader = GUILD_SUBHEADER_CG_USE_SKILL;
; 3204 : 	if (!Send(sizeof(GuildPacket), &GuildPacket))

  00005	8d 45 fc	 lea	 eax, DWORD PTR _GuildPacket$[ebp]
  00008	66 c7 45 fc 50
	09		 mov	 WORD PTR _GuildPacket$[ebp], 2384 ; 00000950H
  0000e	50		 push	 eax
  0000f	6a 02		 push	 2
  00011	8b f1		 mov	 esi, ecx
  00013	e8 00 00 00 00	 call	 ?Send@CNetworkStream@@QAE_NHPBX@Z ; CNetworkStream::Send
  00018	84 c0		 test	 al, al
  0001a	75 09		 jne	 SHORT $LN3@SendGuildU
$LN6@SendGuildU:

; 3205 : 		return false;

  0001c	32 c0		 xor	 al, al
  0001e	5e		 pop	 esi

; 3214 : }

  0001f	8b e5		 mov	 esp, ebp
  00021	5d		 pop	 ebp
  00022	c2 08 00	 ret	 8
$LN3@SendGuildU:

; 3206 : 
; 3207 : 	if (!Send(sizeof(dwSkillID), &dwSkillID))

  00025	8d 45 08	 lea	 eax, DWORD PTR _dwSkillID$[ebp]
  00028	8b ce		 mov	 ecx, esi
  0002a	50		 push	 eax
  0002b	6a 04		 push	 4
  0002d	e8 00 00 00 00	 call	 ?Send@CNetworkStream@@QAE_NHPBX@Z ; CNetworkStream::Send
  00032	84 c0		 test	 al, al
  00034	74 e6		 je	 SHORT $LN6@SendGuildU

; 3208 : 		return false;
; 3209 : 	if (!Send(sizeof(dwTargetVID), &dwTargetVID))

  00036	8d 45 0c	 lea	 eax, DWORD PTR _dwTargetVID$[ebp]
  00039	8b ce		 mov	 ecx, esi
  0003b	50		 push	 eax
  0003c	6a 04		 push	 4
  0003e	e8 00 00 00 00	 call	 ?Send@CNetworkStream@@QAE_NHPBX@Z ; CNetworkStream::Send
  00043	84 c0		 test	 al, al
  00045	74 d5		 je	 SHORT $LN6@SendGuildU

; 3210 : 		return false;
; 3211 : 
; 3212 : 	Tracef(" SendGuildUseSkillPacket %d, %d\n", dwSkillID, dwTargetVID);

  00047	ff 75 0c	 push	 DWORD PTR _dwTargetVID$[ebp]
  0004a	ff 75 08	 push	 DWORD PTR _dwSkillID$[ebp]
  0004d	68 00 00 00 00	 push	 OFFSET ??_C@_0CB@HHLIHMFO@?5SendGuildUseSkillPacket?5?$CFd?0?5?$CFd?6@
  00052	e8 00 00 00 00	 call	 ?Tracef@@YAXPBDZZ	; Tracef
  00057	83 c4 0c	 add	 esp, 12			; 0000000cH

; 3213 : 	return SendSequence();

  0005a	8b ce		 mov	 ecx, esi
  0005c	e8 00 00 00 00	 call	 ?SendSequence@CNetworkStream@@QAE_NXZ ; CNetworkStream::SendSequence
  00061	5e		 pop	 esi

; 3214 : }

  00062	8b e5		 mov	 esp, ebp
  00064	5d		 pop	 ebp
  00065	c2 08 00	 ret	 8
?SendGuildUseSkillPacket@CPythonNetworkStream@@QAE_NKK@Z ENDP ; CPythonNetworkStream::SendGuildUseSkillPacket
_TEXT	ENDS
; Function compile flags: /Ogtp
; File d:\metin2\metin2\client_source_clean\client_source_clean\source\userinterface\pythonnetworkstreamphasegame.cpp
;	COMDAT ?SendGuildChangeMemberGradePacket@CPythonNetworkStream@@QAE_NKE@Z
_TEXT	SEGMENT
_GuildPacket$ = -4					; size = 2
_dwPID$ = 8						; size = 4
_byGrade$ = 12						; size = 1
?SendGuildChangeMemberGradePacket@CPythonNetworkStream@@QAE_NKE@Z PROC ; CPythonNetworkStream::SendGuildChangeMemberGradePacket, COMDAT
; _this$ = ecx

; 3183 : {

  00000	55		 push	 ebp
  00001	8b ec		 mov	 ebp, esp
  00003	51		 push	 ecx
  00004	56		 push	 esi

; 3184 : 	TPacketCGGuild GuildPacket;
; 3185 : 	GuildPacket.byHeader = HEADER_CG_GUILD;
; 3186 : 	GuildPacket.bySubHeader = GUILD_SUBHEADER_CG_CHANGE_MEMBER_GRADE;
; 3187 : 	if (!Send(sizeof(GuildPacket), &GuildPacket))

  00005	8d 45 fc	 lea	 eax, DWORD PTR _GuildPacket$[ebp]
  00008	66 c7 45 fc 50
	08		 mov	 WORD PTR _GuildPacket$[ebp], 2128 ; 00000850H
  0000e	50		 push	 eax
  0000f	6a 02		 push	 2
  00011	8b f1		 mov	 esi, ecx
  00013	e8 00 00 00 00	 call	 ?Send@CNetworkStream@@QAE_NHPBX@Z ; CNetworkStream::Send
  00018	84 c0		 test	 al, al
  0001a	75 09		 jne	 SHORT $LN3@SendGuildC
$LN6@SendGuildC:

; 3188 : 		return false;

  0001c	32 c0		 xor	 al, al
  0001e	5e		 pop	 esi

; 3197 : }

  0001f	8b e5		 mov	 esp, ebp
  00021	5d		 pop	 ebp
  00022	c2 08 00	 ret	 8
$LN3@SendGuildC:

; 3189 : 
; 3190 : 	if (!Send(sizeof(dwPID), &dwPID))

  00025	8d 45 08	 lea	 eax, DWORD PTR _dwPID$[ebp]
  00028	8b ce		 mov	 ecx, esi
  0002a	50		 push	 eax
  0002b	6a 04		 push	 4
  0002d	e8 00 00 00 00	 call	 ?Send@CNetworkStream@@QAE_NHPBX@Z ; CNetworkStream::Send
  00032	84 c0		 test	 al, al
  00034	74 e6		 je	 SHORT $LN6@SendGuildC

; 3191 : 		return false;
; 3192 : 	if (!Send(sizeof(byGrade), &byGrade))

  00036	8d 45 0c	 lea	 eax, DWORD PTR _byGrade$[ebp]
  00039	8b ce		 mov	 ecx, esi
  0003b	50		 push	 eax
  0003c	6a 01		 push	 1
  0003e	e8 00 00 00 00	 call	 ?Send@CNetworkStream@@QAE_NHPBX@Z ; CNetworkStream::Send
  00043	84 c0		 test	 al, al
  00045	74 d5		 je	 SHORT $LN6@SendGuildC

; 3193 : 		return false;
; 3194 : 
; 3195 : 	Tracef(" SendGuildChangeMemberGradePacket %d, %d\n", dwPID, byGrade);

  00047	8b 45 0c	 mov	 eax, DWORD PTR _byGrade$[ebp]
  0004a	0f b6 c0	 movzx	 eax, al
  0004d	50		 push	 eax
  0004e	ff 75 08	 push	 DWORD PTR _dwPID$[ebp]
  00051	68 00 00 00 00	 push	 OFFSET ??_C@_0CK@NJDDFMMG@?5SendGuildChangeMemberGradePacke@
  00056	e8 00 00 00 00	 call	 ?Tracef@@YAXPBDZZ	; Tracef
  0005b	83 c4 0c	 add	 esp, 12			; 0000000cH

; 3196 : 	return SendSequence();

  0005e	8b ce		 mov	 ecx, esi
  00060	e8 00 00 00 00	 call	 ?SendSequence@CNetworkStream@@QAE_NXZ ; CNetworkStream::SendSequence
  00065	5e		 pop	 esi

; 3197 : }

  00066	8b e5		 mov	 esp, ebp
  00068	5d		 pop	 ebp
  00069	c2 08 00	 ret	 8
?SendGuildChangeMemberGradePacket@CPythonNetworkStream@@QAE_NKE@Z ENDP ; CPythonNetworkStream::SendGuildChangeMemberGradePacket
_TEXT	ENDS
; Function compile flags: /Ogtp
; File d:\metin2\metin2\client_source_clean\client_source_clean\source\userinterface\pythonnetworkstreamphasegame.cpp
;	COMDAT ?SendGuildRefreshCommentsPacket@CPythonNetworkStream@@QAE_NK@Z
_TEXT	SEGMENT
_GuildPacket$ = -4					; size = 2
_dwHighestIndex$ = 8					; size = 4
?SendGuildRefreshCommentsPacket@CPythonNetworkStream@@QAE_NK@Z PROC ; CPythonNetworkStream::SendGuildRefreshCommentsPacket, COMDAT
; _this$ = ecx

; 3165 : {

  00000	55		 push	 ebp
  00001	8b ec		 mov	 ebp, esp
  00003	51		 push	 ecx

; 3166 : 	static DWORD s_LastTime = timeGetTime() - 1001;

  00004	a1 00 00 00 00	 mov	 eax, DWORD PTR ?$S4@?1??SendGuildRefreshCommentsPacket@CPythonNetworkStream@@QAE_NK@Z@4IA
  00009	56		 push	 esi
  0000a	8b 35 00 00 00
	00		 mov	 esi, DWORD PTR __imp__timeGetTime@0
  00010	57		 push	 edi
  00011	8b f9		 mov	 edi, ecx
  00013	a8 01		 test	 al, 1
  00015	75 14		 jne	 SHORT $LN3@SendGuildR
  00017	83 c8 01	 or	 eax, 1
  0001a	a3 00 00 00 00	 mov	 DWORD PTR ?$S4@?1??SendGuildRefreshCommentsPacket@CPythonNetworkStream@@QAE_NK@Z@4IA, eax
  0001f	ff d6		 call	 esi
  00021	2d e9 03 00 00	 sub	 eax, 1001		; 000003e9H
  00026	a3 00 00 00 00	 mov	 DWORD PTR ?s_LastTime@?1??SendGuildRefreshCommentsPacket@CPythonNetworkStream@@QAE_NK@Z@4KA, eax
$LN3@SendGuildR:

; 3167 : 
; 3168 : 	if (timeGetTime() - s_LastTime < 1000)

  0002b	ff d6		 call	 esi
  0002d	2b 05 00 00 00
	00		 sub	 eax, DWORD PTR ?s_LastTime@?1??SendGuildRefreshCommentsPacket@CPythonNetworkStream@@QAE_NK@Z@4KA
  00033	3d e8 03 00 00	 cmp	 eax, 1000		; 000003e8H
  00038	73 0a		 jae	 SHORT $LN2@SendGuildR

; 3169 : 		return true;

  0003a	5f		 pop	 edi
  0003b	b0 01		 mov	 al, 1
  0003d	5e		 pop	 esi

; 3180 : }

  0003e	8b e5		 mov	 esp, ebp
  00040	5d		 pop	 ebp
  00041	c2 04 00	 ret	 4
$LN2@SendGuildR:

; 3170 : 	s_LastTime = timeGetTime();

  00044	ff d6		 call	 esi
  00046	a3 00 00 00 00	 mov	 DWORD PTR ?s_LastTime@?1??SendGuildRefreshCommentsPacket@CPythonNetworkStream@@QAE_NK@Z@4KA, eax

; 3171 : 
; 3172 : 	TPacketCGGuild GuildPacket;
; 3173 : 	GuildPacket.byHeader = HEADER_CG_GUILD;
; 3174 : 	GuildPacket.bySubHeader = GUILD_SUBHEADER_CG_REFRESH_COMMENT;
; 3175 : 	if (!Send(sizeof(GuildPacket), &GuildPacket))

  0004b	8b cf		 mov	 ecx, edi
  0004d	8d 45 fc	 lea	 eax, DWORD PTR _GuildPacket$[ebp]
  00050	66 c7 45 fc 50
	07		 mov	 WORD PTR _GuildPacket$[ebp], 1872 ; 00000750H
  00056	50		 push	 eax
  00057	6a 02		 push	 2
  00059	e8 00 00 00 00	 call	 ?Send@CNetworkStream@@QAE_NHPBX@Z ; CNetworkStream::Send
  0005e	84 c0		 test	 al, al
  00060	75 08		 jne	 SHORT $LN1@SendGuildR
  00062	5f		 pop	 edi
  00063	5e		 pop	 esi

; 3180 : }

  00064	8b e5		 mov	 esp, ebp
  00066	5d		 pop	 ebp
  00067	c2 04 00	 ret	 4
$LN1@SendGuildR:

; 3176 : 		return false;
; 3177 : 
; 3178 : 	Tracef(" SendGuildRefreshCommentPacket %d\n", dwHighestIndex);

  0006a	ff 75 08	 push	 DWORD PTR _dwHighestIndex$[ebp]
  0006d	68 00 00 00 00	 push	 OFFSET ??_C@_0CD@DFFJJDFM@?5SendGuildRefreshCommentPacket?5?$CF@
  00072	e8 00 00 00 00	 call	 ?Tracef@@YAXPBDZZ	; Tracef
  00077	83 c4 08	 add	 esp, 8

; 3179 : 	return SendSequence();

  0007a	8b cf		 mov	 ecx, edi
  0007c	e8 00 00 00 00	 call	 ?SendSequence@CNetworkStream@@QAE_NXZ ; CNetworkStream::SendSequence
  00081	5f		 pop	 edi
  00082	5e		 pop	 esi

; 3180 : }

  00083	8b e5		 mov	 esp, ebp
  00085	5d		 pop	 ebp
  00086	c2 04 00	 ret	 4
?SendGuildRefreshCommentsPacket@CPythonNetworkStream@@QAE_NK@Z ENDP ; CPythonNetworkStream::SendGuildRefreshCommentsPacket
_TEXT	ENDS
; Function compile flags: /Ogtp
; File d:\metin2\metin2\client_source_clean\client_source_clean\source\userinterface\pythonnetworkstreamphasegame.cpp
;	COMDAT ?SendGuildDeleteCommentPacket@CPythonNetworkStream@@QAE_NK@Z
_TEXT	SEGMENT
_GuildPacket$ = -4					; size = 2
_dwIndex$ = 8						; size = 4
?SendGuildDeleteCommentPacket@CPythonNetworkStream@@QAE_NK@Z PROC ; CPythonNetworkStream::SendGuildDeleteCommentPacket, COMDAT
; _this$ = ecx

; 3150 : {

  00000	55		 push	 ebp
  00001	8b ec		 mov	 ebp, esp
  00003	51		 push	 ecx
  00004	56		 push	 esi

; 3151 : 	TPacketCGGuild GuildPacket;
; 3152 : 	GuildPacket.byHeader = HEADER_CG_GUILD;
; 3153 : 	GuildPacket.bySubHeader = GUILD_SUBHEADER_CG_DELETE_COMMENT;
; 3154 : 	if (!Send(sizeof(GuildPacket), &GuildPacket))

  00005	8d 45 fc	 lea	 eax, DWORD PTR _GuildPacket$[ebp]
  00008	66 c7 45 fc 50
	06		 mov	 WORD PTR _GuildPacket$[ebp], 1616 ; 00000650H
  0000e	50		 push	 eax
  0000f	6a 02		 push	 2
  00011	8b f1		 mov	 esi, ecx
  00013	e8 00 00 00 00	 call	 ?Send@CNetworkStream@@QAE_NHPBX@Z ; CNetworkStream::Send
  00018	84 c0		 test	 al, al
  0001a	75 09		 jne	 SHORT $LN2@SendGuildD
$LN5@SendGuildD:

; 3155 : 		return false;

  0001c	32 c0		 xor	 al, al
  0001e	5e		 pop	 esi

; 3162 : }

  0001f	8b e5		 mov	 esp, ebp
  00021	5d		 pop	 ebp
  00022	c2 04 00	 ret	 4
$LN2@SendGuildD:

; 3156 : 
; 3157 : 	if (!Send(sizeof(dwIndex), &dwIndex))

  00025	8d 45 08	 lea	 eax, DWORD PTR _dwIndex$[ebp]
  00028	8b ce		 mov	 ecx, esi
  0002a	50		 push	 eax
  0002b	6a 04		 push	 4
  0002d	e8 00 00 00 00	 call	 ?Send@CNetworkStream@@QAE_NHPBX@Z ; CNetworkStream::Send
  00032	84 c0		 test	 al, al
  00034	74 e6		 je	 SHORT $LN5@SendGuildD

; 3158 : 		return false;
; 3159 : 
; 3160 : 	Tracef(" SendGuildDeleteCommentPacket %d\n", dwIndex);

  00036	ff 75 08	 push	 DWORD PTR _dwIndex$[ebp]
  00039	68 00 00 00 00	 push	 OFFSET ??_C@_0CC@HHBLBNGP@?5SendGuildDeleteCommentPacket?5?$CFd@
  0003e	e8 00 00 00 00	 call	 ?Tracef@@YAXPBDZZ	; Tracef
  00043	83 c4 08	 add	 esp, 8

; 3161 : 	return SendSequence();

  00046	8b ce		 mov	 ecx, esi
  00048	e8 00 00 00 00	 call	 ?SendSequence@CNetworkStream@@QAE_NXZ ; CNetworkStream::SendSequence
  0004d	5e		 pop	 esi

; 3162 : }

  0004e	8b e5		 mov	 esp, ebp
  00050	5d		 pop	 ebp
  00051	c2 04 00	 ret	 4
?SendGuildDeleteCommentPacket@CPythonNetworkStream@@QAE_NK@Z ENDP ; CPythonNetworkStream::SendGuildDeleteCommentPacket
_TEXT	ENDS
; Function compile flags: /Ogtp
; File d:\metin2\metin2\client_source_clean\client_source_clean\source\userinterface\pythonnetworkstreamphasegame.cpp
;	COMDAT ?SendGuildPostCommentPacket@CPythonNetworkStream@@QAE_NPBD@Z
_TEXT	SEGMENT
_GuildPacket$ = -8					; size = 2
_bySize$ = -1						; size = 1
_c_szMessage$ = 8					; size = 4
?SendGuildPostCommentPacket@CPythonNetworkStream@@QAE_NPBD@Z PROC ; CPythonNetworkStream::SendGuildPostCommentPacket, COMDAT
; _this$ = ecx

; 3132 : {

  00000	55		 push	 ebp
  00001	8b ec		 mov	 ebp, esp
  00003	83 ec 08	 sub	 esp, 8
  00006	56		 push	 esi

; 3133 : 	TPacketCGGuild GuildPacket;
; 3134 : 	GuildPacket.byHeader = HEADER_CG_GUILD;
; 3135 : 	GuildPacket.bySubHeader = GUILD_SUBHEADER_CG_POST_COMMENT;
; 3136 : 	if (!Send(sizeof(GuildPacket), &GuildPacket))

  00007	8d 45 f8	 lea	 eax, DWORD PTR _GuildPacket$[ebp]
  0000a	66 c7 45 f8 50
	05		 mov	 WORD PTR _GuildPacket$[ebp], 1360 ; 00000550H
  00010	50		 push	 eax
  00011	6a 02		 push	 2
  00013	8b f1		 mov	 esi, ecx
  00015	e8 00 00 00 00	 call	 ?Send@CNetworkStream@@QAE_NHPBX@Z ; CNetworkStream::Send
  0001a	84 c0		 test	 al, al
  0001c	75 07		 jne	 SHORT $LN3@SendGuildP
  0001e	5e		 pop	 esi

; 3147 : }

  0001f	8b e5		 mov	 esp, ebp
  00021	5d		 pop	 ebp
  00022	c2 04 00	 ret	 4
$LN3@SendGuildP:
  00025	57		 push	 edi

; 3137 : 		return false;
; 3138 : 
; 3139 : 	BYTE bySize = BYTE(strlen(c_szMessage)) + 1;

  00026	8b 7d 08	 mov	 edi, DWORD PTR _c_szMessage$[ebp]
  00029	8b cf		 mov	 ecx, edi
  0002b	8d 51 01	 lea	 edx, DWORD PTR [ecx+1]
  0002e	8b ff		 npad	 2
$LL6@SendGuildP:
  00030	8a 01		 mov	 al, BYTE PTR [ecx]
  00032	41		 inc	 ecx
  00033	84 c0		 test	 al, al
  00035	75 f9		 jne	 SHORT $LL6@SendGuildP
  00037	2b ca		 sub	 ecx, edx

; 3140 : 	if (!Send(sizeof(bySize), &bySize))

  00039	8d 45 ff	 lea	 eax, DWORD PTR _bySize$[ebp]
  0003c	fe c1		 inc	 cl
  0003e	50		 push	 eax
  0003f	88 4d ff	 mov	 BYTE PTR _bySize$[ebp], cl
  00042	8b ce		 mov	 ecx, esi
  00044	6a 01		 push	 1
  00046	e8 00 00 00 00	 call	 ?Send@CNetworkStream@@QAE_NHPBX@Z ; CNetworkStream::Send
  0004b	84 c0		 test	 al, al
  0004d	74 11		 je	 SHORT $LN8@SendGuildP

; 3141 : 		return false;
; 3142 : 	if (!Send(bySize, c_szMessage))

  0004f	0f b6 45 ff	 movzx	 eax, BYTE PTR _bySize$[ebp]
  00053	8b ce		 mov	 ecx, esi
  00055	57		 push	 edi
  00056	50		 push	 eax
  00057	e8 00 00 00 00	 call	 ?Send@CNetworkStream@@QAE_NHPBD@Z ; CNetworkStream::Send
  0005c	84 c0		 test	 al, al
  0005e	75 0a		 jne	 SHORT $LN1@SendGuildP
$LN8@SendGuildP:
  00060	5f		 pop	 edi

; 3143 : 		return false;

  00061	32 c0		 xor	 al, al
  00063	5e		 pop	 esi

; 3147 : }

  00064	8b e5		 mov	 esp, ebp
  00066	5d		 pop	 ebp
  00067	c2 04 00	 ret	 4
$LN1@SendGuildP:

; 3144 : 
; 3145 : 	Tracef(" SendGuildPostCommentPacket %d, %s\n", bySize, c_szMessage);

  0006a	0f b6 45 ff	 movzx	 eax, BYTE PTR _bySize$[ebp]
  0006e	57		 push	 edi
  0006f	50		 push	 eax
  00070	68 00 00 00 00	 push	 OFFSET ??_C@_0CE@ILONPNIK@?5SendGuildPostCommentPacket?5?$CFd?0?5@
  00075	e8 00 00 00 00	 call	 ?Tracef@@YAXPBDZZ	; Tracef
  0007a	83 c4 0c	 add	 esp, 12			; 0000000cH

; 3146 : 	return SendSequence();

  0007d	8b ce		 mov	 ecx, esi
  0007f	e8 00 00 00 00	 call	 ?SendSequence@CNetworkStream@@QAE_NXZ ; CNetworkStream::SendSequence
  00084	5f		 pop	 edi
  00085	5e		 pop	 esi

; 3147 : }

  00086	8b e5		 mov	 esp, ebp
  00088	5d		 pop	 ebp
  00089	c2 04 00	 ret	 4
?SendGuildPostCommentPacket@CPythonNetworkStream@@QAE_NPBD@Z ENDP ; CPythonNetworkStream::SendGuildPostCommentPacket
_TEXT	ENDS
; Function compile flags: /Ogtp
; File d:\metin2\metin2\client_source_clean\client_source_clean\source\userinterface\pythonnetworkstreamphasegame.cpp
;	COMDAT ?SendGuildOfferPacket@CPythonNetworkStream@@QAE_NK@Z
_TEXT	SEGMENT
_GuildPacket$ = -4					; size = 2
_dwExperience$ = 8					; size = 4
?SendGuildOfferPacket@CPythonNetworkStream@@QAE_NK@Z PROC ; CPythonNetworkStream::SendGuildOfferPacket, COMDAT
; _this$ = ecx

; 3118 : {

  00000	55		 push	 ebp
  00001	8b ec		 mov	 ebp, esp
  00003	51		 push	 ecx
  00004	56		 push	 esi

; 3119 : 	TPacketCGGuild GuildPacket;
; 3120 : 	GuildPacket.byHeader = HEADER_CG_GUILD;
; 3121 : 	GuildPacket.bySubHeader = GUILD_SUBHEADER_CG_OFFER;
; 3122 : 	if (!Send(sizeof(GuildPacket), &GuildPacket))

  00005	8d 45 fc	 lea	 eax, DWORD PTR _GuildPacket$[ebp]
  00008	66 c7 45 fc 50
	04		 mov	 WORD PTR _GuildPacket$[ebp], 1104 ; 00000450H
  0000e	50		 push	 eax
  0000f	6a 02		 push	 2
  00011	8b f1		 mov	 esi, ecx
  00013	e8 00 00 00 00	 call	 ?Send@CNetworkStream@@QAE_NHPBX@Z ; CNetworkStream::Send
  00018	84 c0		 test	 al, al
  0001a	75 09		 jne	 SHORT $LN2@SendGuildO
$LN5@SendGuildO:

; 3123 : 		return false;

  0001c	32 c0		 xor	 al, al
  0001e	5e		 pop	 esi

; 3129 : }

  0001f	8b e5		 mov	 esp, ebp
  00021	5d		 pop	 ebp
  00022	c2 04 00	 ret	 4
$LN2@SendGuildO:

; 3124 : 	if (!Send(sizeof(dwExperience), &dwExperience))

  00025	8d 45 08	 lea	 eax, DWORD PTR _dwExperience$[ebp]
  00028	8b ce		 mov	 ecx, esi
  0002a	50		 push	 eax
  0002b	6a 04		 push	 4
  0002d	e8 00 00 00 00	 call	 ?Send@CNetworkStream@@QAE_NHPBX@Z ; CNetworkStream::Send
  00032	84 c0		 test	 al, al
  00034	74 e6		 je	 SHORT $LN5@SendGuildO

; 3125 : 		return false;
; 3126 : 
; 3127 : 	Tracef(" SendGuildOfferPacket %d\n", dwExperience);

  00036	ff 75 08	 push	 DWORD PTR _dwExperience$[ebp]
  00039	68 00 00 00 00	 push	 OFFSET ??_C@_0BK@JBHNFCGO@?5SendGuildOfferPacket?5?$CFd?6?$AA@
  0003e	e8 00 00 00 00	 call	 ?Tracef@@YAXPBDZZ	; Tracef
  00043	83 c4 08	 add	 esp, 8

; 3128 : 	return SendSequence();

  00046	8b ce		 mov	 ecx, esi
  00048	e8 00 00 00 00	 call	 ?SendSequence@CNetworkStream@@QAE_NXZ ; CNetworkStream::SendSequence
  0004d	5e		 pop	 esi

; 3129 : }

  0004e	8b e5		 mov	 esp, ebp
  00050	5d		 pop	 ebp
  00051	c2 04 00	 ret	 4
?SendGuildOfferPacket@CPythonNetworkStream@@QAE_NK@Z ENDP ; CPythonNetworkStream::SendGuildOfferPacket
_TEXT	ENDS
; Function compile flags: /Ogtp
; File d:\metin2\metin2\client_source_clean\client_source_clean\source\userinterface\pythonnetworkstreamphasegame.cpp
;	COMDAT ?SendGuildChangeGradeAuthorityPacket@CPythonNetworkStream@@QAE_NEE@Z
_TEXT	SEGMENT
_GuildPacket$ = -4					; size = 2
_byGradeNumber$ = 8					; size = 1
_byAuthority$ = 12					; size = 1
?SendGuildChangeGradeAuthorityPacket@CPythonNetworkStream@@QAE_NEE@Z PROC ; CPythonNetworkStream::SendGuildChangeGradeAuthorityPacket, COMDAT
; _this$ = ecx

; 3102 : {

  00000	55		 push	 ebp
  00001	8b ec		 mov	 ebp, esp
  00003	51		 push	 ecx
  00004	56		 push	 esi

; 3103 : 	TPacketCGGuild GuildPacket;
; 3104 : 	GuildPacket.byHeader = HEADER_CG_GUILD;
; 3105 : 	GuildPacket.bySubHeader = GUILD_SUBHEADER_CG_CHANGE_GRADE_AUTHORITY;
; 3106 : 	if (!Send(sizeof(GuildPacket), &GuildPacket))

  00005	8d 45 fc	 lea	 eax, DWORD PTR _GuildPacket$[ebp]
  00008	66 c7 45 fc 50
	03		 mov	 WORD PTR _GuildPacket$[ebp], 848 ; 00000350H
  0000e	50		 push	 eax
  0000f	6a 02		 push	 2
  00011	8b f1		 mov	 esi, ecx
  00013	e8 00 00 00 00	 call	 ?Send@CNetworkStream@@QAE_NHPBX@Z ; CNetworkStream::Send
  00018	84 c0		 test	 al, al
  0001a	75 09		 jne	 SHORT $LN3@SendGuildC
$LN6@SendGuildC:

; 3107 : 		return false;

  0001c	32 c0		 xor	 al, al
  0001e	5e		 pop	 esi

; 3115 : }

  0001f	8b e5		 mov	 esp, ebp
  00021	5d		 pop	 ebp
  00022	c2 08 00	 ret	 8
$LN3@SendGuildC:

; 3108 : 	if (!Send(sizeof(byGradeNumber), &byGradeNumber))

  00025	8d 45 08	 lea	 eax, DWORD PTR _byGradeNumber$[ebp]
  00028	8b ce		 mov	 ecx, esi
  0002a	50		 push	 eax
  0002b	6a 01		 push	 1
  0002d	e8 00 00 00 00	 call	 ?Send@CNetworkStream@@QAE_NHPBX@Z ; CNetworkStream::Send
  00032	84 c0		 test	 al, al
  00034	74 e6		 je	 SHORT $LN6@SendGuildC

; 3109 : 		return false;
; 3110 : 	if (!Send(sizeof(byAuthority), &byAuthority))

  00036	8d 45 0c	 lea	 eax, DWORD PTR _byAuthority$[ebp]
  00039	8b ce		 mov	 ecx, esi
  0003b	50		 push	 eax
  0003c	6a 01		 push	 1
  0003e	e8 00 00 00 00	 call	 ?Send@CNetworkStream@@QAE_NHPBX@Z ; CNetworkStream::Send
  00043	84 c0		 test	 al, al
  00045	74 d5		 je	 SHORT $LN6@SendGuildC

; 3111 : 		return false;
; 3112 : 
; 3113 : 	Tracef(" SendGuildChangeGradeAuthorityPacket %d, %d\n", byGradeNumber, byAuthority);

  00047	8b 45 0c	 mov	 eax, DWORD PTR _byAuthority$[ebp]
  0004a	0f b6 c0	 movzx	 eax, al
  0004d	50		 push	 eax
  0004e	8b 45 08	 mov	 eax, DWORD PTR _byGradeNumber$[ebp]
  00051	0f b6 c0	 movzx	 eax, al
  00054	50		 push	 eax
  00055	68 00 00 00 00	 push	 OFFSET ??_C@_0CN@ENAPGANL@?5SendGuildChangeGradeAuthorityPa@
  0005a	e8 00 00 00 00	 call	 ?Tracef@@YAXPBDZZ	; Tracef
  0005f	83 c4 0c	 add	 esp, 12			; 0000000cH

; 3114 : 	return SendSequence();

  00062	8b ce		 mov	 ecx, esi
  00064	e8 00 00 00 00	 call	 ?SendSequence@CNetworkStream@@QAE_NXZ ; CNetworkStream::SendSequence
  00069	5e		 pop	 esi

; 3115 : }

  0006a	8b e5		 mov	 esp, ebp
  0006c	5d		 pop	 ebp
  0006d	c2 08 00	 ret	 8
?SendGuildChangeGradeAuthorityPacket@CPythonNetworkStream@@QAE_NEE@Z ENDP ; CPythonNetworkStream::SendGuildChangeGradeAuthorityPacket
_TEXT	ENDS
; Function compile flags: /Ogtp
; File d:\metin2\metin2\client_source_clean\client_source_clean\source\userinterface\pythonnetworkstreamphasegame.cpp
;	COMDAT ?SendGuildChangeGradeNamePacket@CPythonNetworkStream@@QAE_NEPBD@Z
_TEXT	SEGMENT
_GuildPacket$ = -20					; size = 2
_szName$ = -16						; size = 9
__$ArrayPad$ = -4					; size = 4
_byGradeNumber$ = 8					; size = 1
_c_szName$ = 12						; size = 4
?SendGuildChangeGradeNamePacket@CPythonNetworkStream@@QAE_NEPBD@Z PROC ; CPythonNetworkStream::SendGuildChangeGradeNamePacket, COMDAT
; _this$ = ecx

; 3081 : {

  00000	55		 push	 ebp
  00001	8b ec		 mov	 ebp, esp
  00003	83 ec 14	 sub	 esp, 20			; 00000014H
  00006	a1 00 00 00 00	 mov	 eax, DWORD PTR ___security_cookie
  0000b	33 c5		 xor	 eax, ebp
  0000d	89 45 fc	 mov	 DWORD PTR __$ArrayPad$[ebp], eax
  00010	56		 push	 esi
  00011	57		 push	 edi
  00012	8b 7d 0c	 mov	 edi, DWORD PTR _c_szName$[ebp]

; 3082 : 	TPacketCGGuild GuildPacket;
; 3083 : 	GuildPacket.byHeader = HEADER_CG_GUILD;
; 3084 : 	GuildPacket.bySubHeader = GUILD_SUBHEADER_CG_CHANGE_GRADE_NAME;
; 3085 : 	if (!Send(sizeof(GuildPacket), &GuildPacket))

  00015	8d 45 ec	 lea	 eax, DWORD PTR _GuildPacket$[ebp]
  00018	50		 push	 eax
  00019	6a 02		 push	 2
  0001b	8b f1		 mov	 esi, ecx
  0001d	66 c7 45 ec 50
	02		 mov	 WORD PTR _GuildPacket$[ebp], 592 ; 00000250H
  00023	e8 00 00 00 00	 call	 ?Send@CNetworkStream@@QAE_NHPBX@Z ; CNetworkStream::Send
  00028	84 c0		 test	 al, al
  0002a	75 14		 jne	 SHORT $LN3@SendGuildC
$LN8@SendGuildC:
  0002c	5f		 pop	 edi

; 3086 : 		return false;

  0002d	32 c0		 xor	 al, al
  0002f	5e		 pop	 esi

; 3099 : }

  00030	8b 4d fc	 mov	 ecx, DWORD PTR __$ArrayPad$[ebp]
  00033	33 cd		 xor	 ecx, ebp
  00035	e8 00 00 00 00	 call	 @__security_check_cookie@4
  0003a	8b e5		 mov	 esp, ebp
  0003c	5d		 pop	 ebp
  0003d	c2 08 00	 ret	 8
$LN3@SendGuildC:

; 3087 : 	if (!Send(sizeof(byGradeNumber), &byGradeNumber))

  00040	8d 45 08	 lea	 eax, DWORD PTR _byGradeNumber$[ebp]
  00043	8b ce		 mov	 ecx, esi
  00045	50		 push	 eax
  00046	6a 01		 push	 1
  00048	e8 00 00 00 00	 call	 ?Send@CNetworkStream@@QAE_NHPBX@Z ; CNetworkStream::Send
  0004d	84 c0		 test	 al, al
  0004f	74 db		 je	 SHORT $LN8@SendGuildC

; 3088 : 		return false;
; 3089 : 
; 3090 : 	char szName[GUILD_GRADE_NAME_MAX_LEN+1];
; 3091 : 	strncpy(szName, c_szName, GUILD_GRADE_NAME_MAX_LEN);

  00051	6a 08		 push	 8
  00053	8d 45 f0	 lea	 eax, DWORD PTR _szName$[ebp]
  00056	57		 push	 edi
  00057	50		 push	 eax
  00058	e8 00 00 00 00	 call	 _strncpy
  0005d	83 c4 0c	 add	 esp, 12			; 0000000cH

; 3092 : 	szName[GUILD_GRADE_NAME_MAX_LEN] = '\0';

  00060	c6 45 f8 00	 mov	 BYTE PTR _szName$[ebp+8], 0

; 3093 : 
; 3094 : 	if (!Send(sizeof(szName), &szName))

  00064	8d 45 f0	 lea	 eax, DWORD PTR _szName$[ebp]
  00067	8b ce		 mov	 ecx, esi
  00069	50		 push	 eax
  0006a	6a 09		 push	 9
  0006c	e8 00 00 00 00	 call	 ?Send@CNetworkStream@@QAE_NHPBX@Z ; CNetworkStream::Send
  00071	84 c0		 test	 al, al
  00073	74 b7		 je	 SHORT $LN8@SendGuildC

; 3095 : 		return false;
; 3096 : 
; 3097 : 	Tracef(" SendGuildChangeGradeNamePacket %d, %s\n", byGradeNumber, c_szName);

  00075	8b 45 08	 mov	 eax, DWORD PTR _byGradeNumber$[ebp]
  00078	57		 push	 edi
  00079	0f b6 c0	 movzx	 eax, al
  0007c	50		 push	 eax
  0007d	68 00 00 00 00	 push	 OFFSET ??_C@_0CI@HCDCDOMK@?5SendGuildChangeGradeNamePacket?5@
  00082	e8 00 00 00 00	 call	 ?Tracef@@YAXPBDZZ	; Tracef
  00087	83 c4 0c	 add	 esp, 12			; 0000000cH

; 3098 : 	return SendSequence();

  0008a	8b ce		 mov	 ecx, esi
  0008c	e8 00 00 00 00	 call	 ?SendSequence@CNetworkStream@@QAE_NXZ ; CNetworkStream::SendSequence

; 3099 : }

  00091	8b 4d fc	 mov	 ecx, DWORD PTR __$ArrayPad$[ebp]
  00094	5f		 pop	 edi
  00095	33 cd		 xor	 ecx, ebp
  00097	5e		 pop	 esi
  00098	e8 00 00 00 00	 call	 @__security_check_cookie@4
  0009d	8b e5		 mov	 esp, ebp
  0009f	5d		 pop	 ebp
  000a0	c2 08 00	 ret	 8
?SendGuildChangeGradeNamePacket@CPythonNetworkStream@@QAE_NEPBD@Z ENDP ; CPythonNetworkStream::SendGuildChangeGradeNamePacket
_TEXT	ENDS
; Function compile flags: /Ogtp
; File d:\metin2\metin2\client_source_clean\client_source_clean\source\userinterface\pythonnetworkstreamphasegame.cpp
;	COMDAT ?SendGuildRemoveMemberPacket@CPythonNetworkStream@@QAE_NK@Z
_TEXT	SEGMENT
_GuildPacket$ = -4					; size = 2
_dwPID$ = 8						; size = 4
?SendGuildRemoveMemberPacket@CPythonNetworkStream@@QAE_NK@Z PROC ; CPythonNetworkStream::SendGuildRemoveMemberPacket, COMDAT
; _this$ = ecx

; 3067 : {

  00000	55		 push	 ebp
  00001	8b ec		 mov	 ebp, esp
  00003	51		 push	 ecx
  00004	56		 push	 esi

; 3068 : 	TPacketCGGuild GuildPacket;
; 3069 : 	GuildPacket.byHeader = HEADER_CG_GUILD;
; 3070 : 	GuildPacket.bySubHeader = GUILD_SUBHEADER_CG_REMOVE_MEMBER;
; 3071 : 	if (!Send(sizeof(GuildPacket), &GuildPacket))

  00005	8d 45 fc	 lea	 eax, DWORD PTR _GuildPacket$[ebp]
  00008	66 c7 45 fc 50
	01		 mov	 WORD PTR _GuildPacket$[ebp], 336 ; 00000150H
  0000e	50		 push	 eax
  0000f	6a 02		 push	 2
  00011	8b f1		 mov	 esi, ecx
  00013	e8 00 00 00 00	 call	 ?Send@CNetworkStream@@QAE_NHPBX@Z ; CNetworkStream::Send
  00018	84 c0		 test	 al, al
  0001a	75 09		 jne	 SHORT $LN2@SendGuildR
$LN5@SendGuildR:

; 3072 : 		return false;

  0001c	32 c0		 xor	 al, al
  0001e	5e		 pop	 esi

; 3078 : }

  0001f	8b e5		 mov	 esp, ebp
  00021	5d		 pop	 ebp
  00022	c2 04 00	 ret	 4
$LN2@SendGuildR:

; 3073 : 	if (!Send(sizeof(dwPID), &dwPID))

  00025	8d 45 08	 lea	 eax, DWORD PTR _dwPID$[ebp]
  00028	8b ce		 mov	 ecx, esi
  0002a	50		 push	 eax
  0002b	6a 04		 push	 4
  0002d	e8 00 00 00 00	 call	 ?Send@CNetworkStream@@QAE_NHPBX@Z ; CNetworkStream::Send
  00032	84 c0		 test	 al, al
  00034	74 e6		 je	 SHORT $LN5@SendGuildR

; 3074 : 		return false;
; 3075 : 
; 3076 : 	Tracef(" SendGuildRemoveMemberPacket %d\n", dwPID);

  00036	ff 75 08	 push	 DWORD PTR _dwPID$[ebp]
  00039	68 00 00 00 00	 push	 OFFSET ??_C@_0CB@OCJDCDKN@?5SendGuildRemoveMemberPacket?5?$CFd?6@
  0003e	e8 00 00 00 00	 call	 ?Tracef@@YAXPBDZZ	; Tracef
  00043	83 c4 08	 add	 esp, 8

; 3077 : 	return SendSequence();

  00046	8b ce		 mov	 ecx, esi
  00048	e8 00 00 00 00	 call	 ?SendSequence@CNetworkStream@@QAE_NXZ ; CNetworkStream::SendSequence
  0004d	5e		 pop	 esi

; 3078 : }

  0004e	8b e5		 mov	 esp, ebp
  00050	5d		 pop	 ebp
  00051	c2 04 00	 ret	 4
?SendGuildRemoveMemberPacket@CPythonNetworkStream@@QAE_NK@Z ENDP ; CPythonNetworkStream::SendGuildRemoveMemberPacket
_TEXT	ENDS
; Function compile flags: /Ogtp
; File d:\metin2\metin2\client_source_clean\client_source_clean\source\userinterface\pythonnetworkstreamphasegame.cpp
;	COMDAT ?SendGuildAddMemberPacket@CPythonNetworkStream@@QAE_NK@Z
_TEXT	SEGMENT
_GuildPacket$ = -4					; size = 2
_dwVID$ = 8						; size = 4
?SendGuildAddMemberPacket@CPythonNetworkStream@@QAE_NK@Z PROC ; CPythonNetworkStream::SendGuildAddMemberPacket, COMDAT
; _this$ = ecx

; 3053 : {

  00000	55		 push	 ebp
  00001	8b ec		 mov	 ebp, esp
  00003	51		 push	 ecx
  00004	56		 push	 esi

; 3054 : 	TPacketCGGuild GuildPacket;
; 3055 : 	GuildPacket.byHeader = HEADER_CG_GUILD;
; 3056 : 	GuildPacket.bySubHeader = GUILD_SUBHEADER_CG_ADD_MEMBER;
; 3057 : 	if (!Send(sizeof(GuildPacket), &GuildPacket))

  00005	8d 45 fc	 lea	 eax, DWORD PTR _GuildPacket$[ebp]
  00008	66 c7 45 fc 50
	00		 mov	 WORD PTR _GuildPacket$[ebp], 80 ; 00000050H
  0000e	50		 push	 eax
  0000f	6a 02		 push	 2
  00011	8b f1		 mov	 esi, ecx
  00013	e8 00 00 00 00	 call	 ?Send@CNetworkStream@@QAE_NHPBX@Z ; CNetworkStream::Send
  00018	84 c0		 test	 al, al
  0001a	75 09		 jne	 SHORT $LN2@SendGuildA
$LN5@SendGuildA:

; 3058 : 		return false;

  0001c	32 c0		 xor	 al, al
  0001e	5e		 pop	 esi

; 3064 : }

  0001f	8b e5		 mov	 esp, ebp
  00021	5d		 pop	 ebp
  00022	c2 04 00	 ret	 4
$LN2@SendGuildA:

; 3059 : 	if (!Send(sizeof(dwVID), &dwVID))

  00025	8d 45 08	 lea	 eax, DWORD PTR _dwVID$[ebp]
  00028	8b ce		 mov	 ecx, esi
  0002a	50		 push	 eax
  0002b	6a 04		 push	 4
  0002d	e8 00 00 00 00	 call	 ?Send@CNetworkStream@@QAE_NHPBX@Z ; CNetworkStream::Send
  00032	84 c0		 test	 al, al
  00034	74 e6		 je	 SHORT $LN5@SendGuildA

; 3060 : 		return false;
; 3061 : 
; 3062 : 	Tracef(" SendGuildAddMemberPacket\n", dwVID);

  00036	ff 75 08	 push	 DWORD PTR _dwVID$[ebp]
  00039	68 00 00 00 00	 push	 OFFSET ??_C@_0BL@GHDBPEKM@?5SendGuildAddMemberPacket?6?$AA@
  0003e	e8 00 00 00 00	 call	 ?Tracef@@YAXPBDZZ	; Tracef
  00043	83 c4 08	 add	 esp, 8

; 3063 : 	return SendSequence();

  00046	8b ce		 mov	 ecx, esi
  00048	e8 00 00 00 00	 call	 ?SendSequence@CNetworkStream@@QAE_NXZ ; CNetworkStream::SendSequence
  0004d	5e		 pop	 esi

; 3064 : }

  0004e	8b e5		 mov	 esp, ebp
  00050	5d		 pop	 ebp
  00051	c2 04 00	 ret	 4
?SendGuildAddMemberPacket@CPythonNetworkStream@@QAE_NK@Z ENDP ; CPythonNetworkStream::SendGuildAddMemberPacket
_TEXT	ENDS
; Function compile flags: /Ogtp
; File d:\metin2\metin2\client_source_clean\client_source_clean\source\userinterface\pythonnetworkstreamphasegame.cpp
;	COMDAT ?SendQuestConfirmPacket@CPythonNetworkStream@@QAE_NEK@Z
_TEXT	SEGMENT
_kPacket$ = -8						; size = 6
_byAnswer$ = 8						; size = 1
_dwPID$ = 12						; size = 4
?SendQuestConfirmPacket@CPythonNetworkStream@@QAE_NEK@Z PROC ; CPythonNetworkStream::SendQuestConfirmPacket, COMDAT
; _this$ = ecx

; 2299 : {

  00000	55		 push	 ebp
  00001	8b ec		 mov	 ebp, esp
  00003	83 ec 08	 sub	 esp, 8
  00006	53		 push	 ebx

; 2300 : 	TPacketCGQuestConfirm kPacket;
; 2301 : 	kPacket.header = HEADER_CG_QUEST_CONFIRM;
; 2302 : 	kPacket.answer = byAnswer;

  00007	8a 5d 08	 mov	 bl, BYTE PTR _byAnswer$[ebp]

; 2303 : 	kPacket.requestPID = dwPID;
; 2304 : 
; 2305 : 	if (!Send(sizeof(kPacket), &kPacket))

  0000a	8d 45 f8	 lea	 eax, DWORD PTR _kPacket$[ebp]
  0000d	56		 push	 esi
  0000e	57		 push	 edi
  0000f	8b 7d 0c	 mov	 edi, DWORD PTR _dwPID$[ebp]
  00012	8b f1		 mov	 esi, ecx
  00014	50		 push	 eax
  00015	6a 06		 push	 6
  00017	c6 45 f8 1f	 mov	 BYTE PTR _kPacket$[ebp], 31 ; 0000001fH
  0001b	88 5d f9	 mov	 BYTE PTR _kPacket$[ebp+1], bl
  0001e	89 7d fa	 mov	 DWORD PTR _kPacket$[ebp+2], edi
  00021	e8 00 00 00 00	 call	 ?Send@CNetworkStream@@QAE_NHPBX@Z ; CNetworkStream::Send
  00026	84 c0		 test	 al, al
  00028	75 18		 jne	 SHORT $LN1@SendQuestC

; 2306 : 	{
; 2307 : 		Tracen("SendQuestConfirmPacket Error");

  0002a	68 00 00 00 00	 push	 OFFSET ??_C@_0BN@IAHFIDIL@SendQuestConfirmPacket?5Error?$AA@
  0002f	e8 00 00 00 00	 call	 ?Tracen@@YAXPBD@Z	; Tracen
  00034	83 c4 04	 add	 esp, 4

; 2308 : 		return false;

  00037	32 c0		 xor	 al, al
  00039	5f		 pop	 edi
  0003a	5e		 pop	 esi
  0003b	5b		 pop	 ebx

; 2313 : }

  0003c	8b e5		 mov	 esp, ebp
  0003e	5d		 pop	 ebp
  0003f	c2 08 00	 ret	 8
$LN1@SendQuestC:

; 2309 : 	}
; 2310 : 
; 2311 : 	Tracenf(" SendQuestConfirmPacket : %d, %d", byAnswer, dwPID);

  00042	57		 push	 edi
  00043	0f b6 c3	 movzx	 eax, bl
  00046	50		 push	 eax
  00047	68 00 00 00 00	 push	 OFFSET ??_C@_0CB@HKJKPPKG@?5SendQuestConfirmPacket?5?3?5?$CFd?0?5?$CFd@
  0004c	e8 00 00 00 00	 call	 ?Tracenf@@YAXPBDZZ	; Tracenf
  00051	83 c4 0c	 add	 esp, 12			; 0000000cH

; 2312 : 	return SendSequence();

  00054	8b ce		 mov	 ecx, esi
  00056	e8 00 00 00 00	 call	 ?SendSequence@CNetworkStream@@QAE_NXZ ; CNetworkStream::SendSequence
  0005b	5f		 pop	 edi
  0005c	5e		 pop	 esi
  0005d	5b		 pop	 ebx

; 2313 : }

  0005e	8b e5		 mov	 esp, ebp
  00060	5d		 pop	 ebp
  00061	c2 08 00	 ret	 8
?SendQuestConfirmPacket@CPythonNetworkStream@@QAE_NEK@Z ENDP ; CPythonNetworkStream::SendQuestConfirmPacket
_TEXT	ENDS
; Function compile flags: /Ogtp
; File d:\metin2\metin2\client_source_clean\client_source_clean\source\userinterface\pythonnetworkstreamphasegame.cpp
;	COMDAT ?SendQuestInputStringPacket@CPythonNetworkStream@@QAE_NPBD@Z
_TEXT	SEGMENT
_Packet$ = -72						; size = 66
__$ArrayPad$ = -4					; size = 4
_c_szString$ = 8					; size = 4
?SendQuestInputStringPacket@CPythonNetworkStream@@QAE_NPBD@Z PROC ; CPythonNetworkStream::SendQuestInputStringPacket, COMDAT
; _this$ = ecx

; 2284 : {

  00000	55		 push	 ebp
  00001	8b ec		 mov	 ebp, esp
  00003	83 ec 48	 sub	 esp, 72			; 00000048H
  00006	a1 00 00 00 00	 mov	 eax, DWORD PTR ___security_cookie
  0000b	33 c5		 xor	 eax, ebp
  0000d	89 45 fc	 mov	 DWORD PTR __$ArrayPad$[ebp], eax
  00010	8b 45 08	 mov	 eax, DWORD PTR _c_szString$[ebp]
  00013	56		 push	 esi

; 2285 : 	TPacketCGQuestInputString Packet;
; 2286 : 	Packet.bHeader = HEADER_CG_QUEST_INPUT_STRING;
; 2287 : 	strncpy(Packet.szString, c_szString, QUEST_INPUT_STRING_MAX_NUM);

  00014	6a 40		 push	 64			; 00000040H
  00016	50		 push	 eax
  00017	8d 45 b9	 lea	 eax, DWORD PTR _Packet$[ebp+1]
  0001a	c6 45 b8 1e	 mov	 BYTE PTR _Packet$[ebp], 30 ; 0000001eH
  0001e	50		 push	 eax
  0001f	8b f1		 mov	 esi, ecx
  00021	e8 00 00 00 00	 call	 _strncpy
  00026	83 c4 0c	 add	 esp, 12			; 0000000cH

; 2288 : 
; 2289 : 	if (!Send(sizeof(Packet), &Packet))

  00029	8d 45 b8	 lea	 eax, DWORD PTR _Packet$[ebp]
  0002c	8b ce		 mov	 ecx, esi
  0002e	50		 push	 eax
  0002f	6a 42		 push	 66			; 00000042H
  00031	e8 00 00 00 00	 call	 ?Send@CNetworkStream@@QAE_NHPBX@Z ; CNetworkStream::Send
  00036	84 c0		 test	 al, al
  00038	75 20		 jne	 SHORT $LN1@SendQuestI

; 2290 : 	{
; 2291 : 		Tracen("SendQuestInputStringPacket Error");

  0003a	68 00 00 00 00	 push	 OFFSET ??_C@_0CB@KDIADHIP@SendQuestInputStringPacket?5Error@
  0003f	e8 00 00 00 00	 call	 ?Tracen@@YAXPBD@Z	; Tracen
  00044	83 c4 04	 add	 esp, 4

; 2292 : 		return false;

  00047	32 c0		 xor	 al, al
  00049	5e		 pop	 esi

; 2296 : }

  0004a	8b 4d fc	 mov	 ecx, DWORD PTR __$ArrayPad$[ebp]
  0004d	33 cd		 xor	 ecx, ebp
  0004f	e8 00 00 00 00	 call	 @__security_check_cookie@4
  00054	8b e5		 mov	 esp, ebp
  00056	5d		 pop	 ebp
  00057	c2 04 00	 ret	 4
$LN1@SendQuestI:

; 2293 : 	}
; 2294 : 
; 2295 : 	return SendSequence();

  0005a	8b ce		 mov	 ecx, esi
  0005c	e8 00 00 00 00	 call	 ?SendSequence@CNetworkStream@@QAE_NXZ ; CNetworkStream::SendSequence

; 2296 : }

  00061	8b 4d fc	 mov	 ecx, DWORD PTR __$ArrayPad$[ebp]
  00064	33 cd		 xor	 ecx, ebp
  00066	5e		 pop	 esi
  00067	e8 00 00 00 00	 call	 @__security_check_cookie@4
  0006c	8b e5		 mov	 esp, ebp
  0006e	5d		 pop	 ebp
  0006f	c2 04 00	 ret	 4
?SendQuestInputStringPacket@CPythonNetworkStream@@QAE_NPBD@Z ENDP ; CPythonNetworkStream::SendQuestInputStringPacket
_TEXT	ENDS
; Function compile flags: /Ogtp
; File d:\metin2\metin2\client_source_clean\client_source_clean\source\userinterface\pythonnetworkstreamphasegame.cpp
;	COMDAT ?SendAnswerMakeGuildPacket@CPythonNetworkStream@@QAE_NPBD@Z
_TEXT	SEGMENT
_Packet$ = -20						; size = 14
__$ArrayPad$ = -4					; size = 4
_c_szName$ = 8						; size = 4
?SendAnswerMakeGuildPacket@CPythonNetworkStream@@QAE_NPBD@Z PROC ; CPythonNetworkStream::SendAnswerMakeGuildPacket, COMDAT
; _this$ = ecx

; 2266 : {

  00000	55		 push	 ebp
  00001	8b ec		 mov	 ebp, esp
  00003	83 ec 14	 sub	 esp, 20			; 00000014H
  00006	a1 00 00 00 00	 mov	 eax, DWORD PTR ___security_cookie
  0000b	33 c5		 xor	 eax, ebp
  0000d	89 45 fc	 mov	 DWORD PTR __$ArrayPad$[ebp], eax
  00010	8b 45 08	 mov	 eax, DWORD PTR _c_szName$[ebp]
  00013	56		 push	 esi

; 2267 : 	TPacketCGAnswerMakeGuild Packet;
; 2268 : 
; 2269 : 	Packet.header = HEADER_CG_ANSWER_MAKE_GUILD;
; 2270 : 	strncpy(Packet.guild_name, c_szName, GUILD_NAME_MAX_LEN);

  00014	6a 0c		 push	 12			; 0000000cH
  00016	50		 push	 eax
  00017	8d 45 ed	 lea	 eax, DWORD PTR _Packet$[ebp+1]
  0001a	c6 45 ec 51	 mov	 BYTE PTR _Packet$[ebp], 81 ; 00000051H
  0001e	50		 push	 eax
  0001f	8b f1		 mov	 esi, ecx
  00021	e8 00 00 00 00	 call	 _strncpy
  00026	83 c4 0c	 add	 esp, 12			; 0000000cH

; 2271 : 	Packet.guild_name[GUILD_NAME_MAX_LEN] = '\0';

  00029	c6 45 f9 00	 mov	 BYTE PTR _Packet$[ebp+13], 0

; 2272 : 
; 2273 : 	if (!Send(sizeof(Packet), &Packet))

  0002d	8d 45 ec	 lea	 eax, DWORD PTR _Packet$[ebp]
  00030	8b ce		 mov	 ecx, esi
  00032	50		 push	 eax
  00033	6a 0e		 push	 14			; 0000000eH
  00035	e8 00 00 00 00	 call	 ?Send@CNetworkStream@@QAE_NHPBX@Z ; CNetworkStream::Send
  0003a	84 c0		 test	 al, al
  0003c	75 20		 jne	 SHORT $LN1@SendAnswer

; 2274 : 	{
; 2275 : 		Tracen("SendAnswerMakeGuild Packet Error");

  0003e	68 00 00 00 00	 push	 OFFSET ??_C@_0CB@FGDJCCCM@SendAnswerMakeGuild?5Packet?5Error@
  00043	e8 00 00 00 00	 call	 ?Tracen@@YAXPBD@Z	; Tracen
  00048	83 c4 04	 add	 esp, 4

; 2276 : 		return false;

  0004b	32 c0		 xor	 al, al
  0004d	5e		 pop	 esi

; 2281 : }

  0004e	8b 4d fc	 mov	 ecx, DWORD PTR __$ArrayPad$[ebp]
  00051	33 cd		 xor	 ecx, ebp
  00053	e8 00 00 00 00	 call	 @__security_check_cookie@4
  00058	8b e5		 mov	 esp, ebp
  0005a	5d		 pop	 ebp
  0005b	c2 04 00	 ret	 4
$LN1@SendAnswer:

; 2277 : 	}
; 2278 : 
; 2279 : // 	Tracef(" SendAnswerMakeGuildPacket : %s", c_szName);
; 2280 : 	return SendSequence();

  0005e	8b ce		 mov	 ecx, esi
  00060	e8 00 00 00 00	 call	 ?SendSequence@CNetworkStream@@QAE_NXZ ; CNetworkStream::SendSequence

; 2281 : }

  00065	8b 4d fc	 mov	 ecx, DWORD PTR __$ArrayPad$[ebp]
  00068	33 cd		 xor	 ecx, ebp
  0006a	5e		 pop	 esi
  0006b	e8 00 00 00 00	 call	 @__security_check_cookie@4
  00070	8b e5		 mov	 esp, ebp
  00072	5d		 pop	 ebp
  00073	c2 04 00	 ret	 4
?SendAnswerMakeGuildPacket@CPythonNetworkStream@@QAE_NPBD@Z ENDP ; CPythonNetworkStream::SendAnswerMakeGuildPacket
_TEXT	ENDS
; Function compile flags: /Ogtp
; File d:\metin2\metin2\client_source_clean\client_source_clean\source\userinterface\pythonnetworkstreamphasegame.cpp
;	COMDAT ?SendPartyParameterPacket@CPythonNetworkStream@@QAE_NE@Z
_TEXT	SEGMENT
_kPartyParameter$ = -4					; size = 2
_byDistributeMode$ = 8					; size = 1
?SendPartyParameterPacket@CPythonNetworkStream@@QAE_NE@Z PROC ; CPythonNetworkStream::SendPartyParameterPacket, COMDAT
; _this$ = ecx

; 2906 : {

  00000	55		 push	 ebp
  00001	8b ec		 mov	 ebp, esp
  00003	51		 push	 ecx
  00004	53		 push	 ebx

; 2907 : 	TPacketCGPartyParameter kPartyParameter;
; 2908 : 	kPartyParameter.bHeader = HEADER_CG_PARTY_PARAMETER;
; 2909 : 	kPartyParameter.bDistributeMode = byDistributeMode;

  00005	8a 5d 08	 mov	 bl, BYTE PTR _byDistributeMode$[ebp]

; 2910 : 
; 2911 : 	if (!Send(sizeof(kPartyParameter), &kPartyParameter))

  00008	8d 45 fc	 lea	 eax, DWORD PTR _kPartyParameter$[ebp]
  0000b	56		 push	 esi
  0000c	50		 push	 eax
  0000d	6a 02		 push	 2
  0000f	8b f1		 mov	 esi, ecx
  00011	c6 45 fc 4e	 mov	 BYTE PTR _kPartyParameter$[ebp], 78 ; 0000004eH
  00015	88 5d fd	 mov	 BYTE PTR _kPartyParameter$[ebp+1], bl
  00018	e8 00 00 00 00	 call	 ?Send@CNetworkStream@@QAE_NHPBX@Z ; CNetworkStream::Send
  0001d	84 c0		 test	 al, al

; 2912 : 	{
; 2913 : 		Tracenf("CPythonNetworkStream::SendPartyParameterPacket(%d) - PACKET SEND ERROR", byDistributeMode);

  0001f	0f b6 c3	 movzx	 eax, bl
  00022	50		 push	 eax
  00023	75 17		 jne	 SHORT $LN1@SendPartyP
  00025	68 00 00 00 00	 push	 OFFSET ??_C@_0EH@IOBBPNMN@CPythonNetworkStream?3?3SendPartyP@
  0002a	e8 00 00 00 00	 call	 ?Tracenf@@YAXPBDZZ	; Tracenf
  0002f	83 c4 08	 add	 esp, 8

; 2914 : 		return false;

  00032	32 c0		 xor	 al, al
  00034	5e		 pop	 esi
  00035	5b		 pop	 ebx

; 2919 : }

  00036	8b e5		 mov	 esp, ebp
  00038	5d		 pop	 ebp
  00039	c2 04 00	 ret	 4
$LN1@SendPartyP:

; 2915 : 	}
; 2916 : 
; 2917 : 	Tracef(" << SendPartyParameterPacket : %d\n", byDistributeMode);

  0003c	68 00 00 00 00	 push	 OFFSET ??_C@_0CD@LLPEDDBL@?5?$DM?$DM?5SendPartyParameterPacket?5?3?5?$CF@
  00041	e8 00 00 00 00	 call	 ?Tracef@@YAXPBDZZ	; Tracef
  00046	83 c4 08	 add	 esp, 8

; 2918 : 	return SendSequence();

  00049	8b ce		 mov	 ecx, esi
  0004b	e8 00 00 00 00	 call	 ?SendSequence@CNetworkStream@@QAE_NXZ ; CNetworkStream::SendSequence
  00050	5e		 pop	 esi
  00051	5b		 pop	 ebx

; 2919 : }

  00052	8b e5		 mov	 esp, ebp
  00054	5d		 pop	 ebp
  00055	c2 04 00	 ret	 4
?SendPartyParameterPacket@CPythonNetworkStream@@QAE_NE@Z ENDP ; CPythonNetworkStream::SendPartyParameterPacket
_TEXT	ENDS
; Function compile flags: /Ogtp
; File d:\metin2\metin2\client_source_clean\client_source_clean\source\userinterface\pythonnetworkstreamphasegame.cpp
;	COMDAT ?SendPartyUseSkillPacket@CPythonNetworkStream@@QAE_NEK@Z
_TEXT	SEGMENT
_kPartyUseSkill$ = -8					; size = 6
_bySkillIndex$ = 8					; size = 1
_dwVID$ = 12						; size = 4
?SendPartyUseSkillPacket@CPythonNetworkStream@@QAE_NEK@Z PROC ; CPythonNetworkStream::SendPartyUseSkillPacket, COMDAT
; _this$ = ecx

; 2889 : {

  00000	55		 push	 ebp
  00001	8b ec		 mov	 ebp, esp
  00003	83 ec 08	 sub	 esp, 8
  00006	53		 push	 ebx

; 2890 : 	TPacketCGPartyUseSkill kPartyUseSkill;
; 2891 : 	kPartyUseSkill.byHeader = HEADER_CG_PARTY_USE_SKILL;
; 2892 : 	kPartyUseSkill.bySkillIndex = bySkillIndex;

  00007	8a 5d 08	 mov	 bl, BYTE PTR _bySkillIndex$[ebp]

; 2893 : 	kPartyUseSkill.dwTargetVID = dwVID;
; 2894 : 
; 2895 : 	if (!Send(sizeof(kPartyUseSkill), &kPartyUseSkill))

  0000a	8d 45 f8	 lea	 eax, DWORD PTR _kPartyUseSkill$[ebp]
  0000d	56		 push	 esi
  0000e	8b 75 0c	 mov	 esi, DWORD PTR _dwVID$[ebp]
  00011	57		 push	 edi
  00012	50		 push	 eax
  00013	6a 06		 push	 6
  00015	8b f9		 mov	 edi, ecx
  00017	c6 45 f8 4c	 mov	 BYTE PTR _kPartyUseSkill$[ebp], 76 ; 0000004cH
  0001b	88 5d f9	 mov	 BYTE PTR _kPartyUseSkill$[ebp+1], bl
  0001e	89 75 fa	 mov	 DWORD PTR _kPartyUseSkill$[ebp+2], esi
  00021	e8 00 00 00 00	 call	 ?Send@CNetworkStream@@QAE_NHPBX@Z ; CNetworkStream::Send
  00026	84 c0		 test	 al, al

; 2896 : 	{
; 2897 : 		Tracenf("CPythonNetworkStream::SendPartyUseSkillPacket(%ud, %ud) - PACKET SEND ERROR", bySkillIndex, dwVID);

  00028	0f b6 c3	 movzx	 eax, bl
  0002b	56		 push	 esi
  0002c	50		 push	 eax
  0002d	75 18		 jne	 SHORT $LN1@SendPartyU
  0002f	68 00 00 00 00	 push	 OFFSET ??_C@_0EM@BMAFGIHC@CPythonNetworkStream?3?3SendPartyU@
  00034	e8 00 00 00 00	 call	 ?Tracenf@@YAXPBDZZ	; Tracenf
  00039	83 c4 0c	 add	 esp, 12			; 0000000cH

; 2898 : 		return false;

  0003c	32 c0		 xor	 al, al
  0003e	5f		 pop	 edi
  0003f	5e		 pop	 esi
  00040	5b		 pop	 ebx

; 2903 : }

  00041	8b e5		 mov	 esp, ebp
  00043	5d		 pop	 ebp
  00044	c2 08 00	 ret	 8
$LN1@SendPartyU:

; 2899 : 	}
; 2900 : 
; 2901 : 	Tracef(" << SendPartyUseSkillPacket : %d, %d\n", bySkillIndex, dwVID);

  00047	68 00 00 00 00	 push	 OFFSET ??_C@_0CG@GLODGHKD@?5?$DM?$DM?5SendPartyUseSkillPacket?5?3?5?$CFd@
  0004c	e8 00 00 00 00	 call	 ?Tracef@@YAXPBDZZ	; Tracef
  00051	83 c4 0c	 add	 esp, 12			; 0000000cH

; 2902 : 	return SendSequence();

  00054	8b cf		 mov	 ecx, edi
  00056	e8 00 00 00 00	 call	 ?SendSequence@CNetworkStream@@QAE_NXZ ; CNetworkStream::SendSequence
  0005b	5f		 pop	 edi
  0005c	5e		 pop	 esi
  0005d	5b		 pop	 ebx

; 2903 : }

  0005e	8b e5		 mov	 esp, ebp
  00060	5d		 pop	 ebp
  00061	c2 08 00	 ret	 8
?SendPartyUseSkillPacket@CPythonNetworkStream@@QAE_NEK@Z ENDP ; CPythonNetworkStream::SendPartyUseSkillPacket
_TEXT	ENDS
; Function compile flags: /Ogtp
; File d:\metin2\metin2\client_source_clean\client_source_clean\source\userinterface\pythonnetworkstreamphasegame.cpp
;	COMDAT ?SendPartySetStatePacket@CPythonNetworkStream@@QAE_NKEE@Z
_TEXT	SEGMENT
_kPartySetState$ = -8					; size = 7
_dwVID$ = 8						; size = 4
_byState$ = 12						; size = 1
_byFlag$ = 16						; size = 1
?SendPartySetStatePacket@CPythonNetworkStream@@QAE_NKEE@Z PROC ; CPythonNetworkStream::SendPartySetStatePacket, COMDAT
; _this$ = ecx

; 2871 : {

  00000	55		 push	 ebp
  00001	8b ec		 mov	 ebp, esp
  00003	83 ec 08	 sub	 esp, 8
  00006	53		 push	 ebx

; 2872 : 	TPacketCGPartySetState kPartySetState;
; 2873 : 	kPartySetState.byHeader = HEADER_CG_PARTY_SET_STATE;
; 2874 : 	kPartySetState.dwVID = dwVID;
; 2875 : 	kPartySetState.byState = byState;

  00007	8a 5d 0c	 mov	 bl, BYTE PTR _byState$[ebp]

; 2876 : 	kPartySetState.byFlag = byFlag;
; 2877 : 
; 2878 : 	if (!Send(sizeof(kPartySetState), &kPartySetState))

  0000a	8d 45 f8	 lea	 eax, DWORD PTR _kPartySetState$[ebp]
  0000d	8a 7d 10	 mov	 bh, BYTE PTR _byFlag$[ebp]
  00010	56		 push	 esi
  00011	8b 75 08	 mov	 esi, DWORD PTR _dwVID$[ebp]
  00014	57		 push	 edi
  00015	50		 push	 eax
  00016	6a 07		 push	 7
  00018	8b f9		 mov	 edi, ecx
  0001a	c6 45 f8 4b	 mov	 BYTE PTR _kPartySetState$[ebp], 75 ; 0000004bH
  0001e	89 75 f9	 mov	 DWORD PTR _kPartySetState$[ebp+1], esi
  00021	88 5d fd	 mov	 BYTE PTR _kPartySetState$[ebp+5], bl
  00024	88 7d fe	 mov	 BYTE PTR _kPartySetState$[ebp+6], bh
  00027	e8 00 00 00 00	 call	 ?Send@CNetworkStream@@QAE_NHPBX@Z ; CNetworkStream::Send
  0002c	84 c0		 test	 al, al
  0002e	75 1d		 jne	 SHORT $LN1@SendPartyS

; 2879 : 	{
; 2880 : 		Tracenf("CPythonNetworkStream::SendPartySetStatePacket(%ud, %ud) - PACKET SEND ERROR", dwVID, byState);

  00030	0f b6 c3	 movzx	 eax, bl
  00033	50		 push	 eax
  00034	56		 push	 esi
  00035	68 00 00 00 00	 push	 OFFSET ??_C@_0EM@FFPCCHJM@CPythonNetworkStream?3?3SendPartyS@
  0003a	e8 00 00 00 00	 call	 ?Tracenf@@YAXPBDZZ	; Tracenf
  0003f	83 c4 0c	 add	 esp, 12			; 0000000cH

; 2881 : 		return false;

  00042	32 c0		 xor	 al, al
  00044	5f		 pop	 edi
  00045	5e		 pop	 esi
  00046	5b		 pop	 ebx

; 2886 : }

  00047	8b e5		 mov	 esp, ebp
  00049	5d		 pop	 ebp
  0004a	c2 0c 00	 ret	 12			; 0000000cH
$LN1@SendPartyS:

; 2882 : 	}
; 2883 : 
; 2884 : 	Tracef(" << SendPartySetStatePacket : %d, %d, %d\n", dwVID, byState, byFlag);

  0004d	0f b6 c7	 movzx	 eax, bh
  00050	50		 push	 eax
  00051	0f b6 c3	 movzx	 eax, bl
  00054	50		 push	 eax
  00055	56		 push	 esi
  00056	68 00 00 00 00	 push	 OFFSET ??_C@_0CK@PHAHCCJC@?5?$DM?$DM?5SendPartySetStatePacket?5?3?5?$CFd@
  0005b	e8 00 00 00 00	 call	 ?Tracef@@YAXPBDZZ	; Tracef
  00060	83 c4 10	 add	 esp, 16			; 00000010H

; 2885 : 	return SendSequence();

  00063	8b cf		 mov	 ecx, edi
  00065	e8 00 00 00 00	 call	 ?SendSequence@CNetworkStream@@QAE_NXZ ; CNetworkStream::SendSequence
  0006a	5f		 pop	 edi
  0006b	5e		 pop	 esi
  0006c	5b		 pop	 ebx

; 2886 : }

  0006d	8b e5		 mov	 esp, ebp
  0006f	5d		 pop	 ebp
  00070	c2 0c 00	 ret	 12			; 0000000cH
?SendPartySetStatePacket@CPythonNetworkStream@@QAE_NKEE@Z ENDP ; CPythonNetworkStream::SendPartySetStatePacket
_TEXT	ENDS
; Function compile flags: /Ogtp
; File d:\metin2\metin2\client_source_clean\client_source_clean\source\userinterface\pythonnetworkstreamphasegame.cpp
;	COMDAT ?SendPartyRemovePacket@CPythonNetworkStream@@QAE_NK@Z
_TEXT	SEGMENT
_kPartyInviteRemove$ = -8				; size = 5
_dwPID$ = 8						; size = 4
?SendPartyRemovePacket@CPythonNetworkStream@@QAE_NK@Z PROC ; CPythonNetworkStream::SendPartyRemovePacket, COMDAT
; _this$ = ecx

; 2855 : {

  00000	55		 push	 ebp
  00001	8b ec		 mov	 ebp, esp
  00003	83 ec 08	 sub	 esp, 8
  00006	56		 push	 esi

; 2856 : 	TPacketCGPartyRemove kPartyInviteRemove;
; 2857 : 	kPartyInviteRemove.header = HEADER_CG_PARTY_REMOVE;
; 2858 : 	kPartyInviteRemove.pid = dwPID;

  00007	8b 75 08	 mov	 esi, DWORD PTR _dwPID$[ebp]

; 2859 : 
; 2860 : 	if (!Send(sizeof(kPartyInviteRemove), &kPartyInviteRemove))

  0000a	8d 45 f8	 lea	 eax, DWORD PTR _kPartyInviteRemove$[ebp]
  0000d	57		 push	 edi
  0000e	50		 push	 eax
  0000f	6a 05		 push	 5
  00011	8b f9		 mov	 edi, ecx
  00013	c6 45 f8 4a	 mov	 BYTE PTR _kPartyInviteRemove$[ebp], 74 ; 0000004aH
  00017	89 75 f9	 mov	 DWORD PTR _kPartyInviteRemove$[ebp+1], esi
  0001a	e8 00 00 00 00	 call	 ?Send@CNetworkStream@@QAE_NHPBX@Z ; CNetworkStream::Send

; 2861 : 	{
; 2862 : 		Tracenf("CPythonNetworkStream::SendPartyRemovePacket [%ud] - PACKET SEND ERROR", dwPID);

  0001f	56		 push	 esi
  00020	84 c0		 test	 al, al
  00022	75 17		 jne	 SHORT $LN1@SendPartyR
  00024	68 00 00 00 00	 push	 OFFSET ??_C@_0EG@BBBGKACF@CPythonNetworkStream?3?3SendPartyR@
  00029	e8 00 00 00 00	 call	 ?Tracenf@@YAXPBDZZ	; Tracenf
  0002e	83 c4 08	 add	 esp, 8

; 2863 : 		return false;

  00031	32 c0		 xor	 al, al
  00033	5f		 pop	 edi
  00034	5e		 pop	 esi

; 2868 : }

  00035	8b e5		 mov	 esp, ebp
  00037	5d		 pop	 ebp
  00038	c2 04 00	 ret	 4
$LN1@SendPartyR:

; 2864 : 	}
; 2865 : 
; 2866 : 	Tracef(" << SendPartyRemovePacket : %d\n", dwPID);

  0003b	68 00 00 00 00	 push	 OFFSET ??_C@_0CA@HANJMBEA@?5?$DM?$DM?5SendPartyRemovePacket?5?3?5?$CFd?6?$AA@
  00040	e8 00 00 00 00	 call	 ?Tracef@@YAXPBDZZ	; Tracef
  00045	83 c4 08	 add	 esp, 8

; 2867 : 	return SendSequence();

  00048	8b cf		 mov	 ecx, edi
  0004a	e8 00 00 00 00	 call	 ?SendSequence@CNetworkStream@@QAE_NXZ ; CNetworkStream::SendSequence
  0004f	5f		 pop	 edi
  00050	5e		 pop	 esi

; 2868 : }

  00051	8b e5		 mov	 esp, ebp
  00053	5d		 pop	 ebp
  00054	c2 04 00	 ret	 4
?SendPartyRemovePacket@CPythonNetworkStream@@QAE_NK@Z ENDP ; CPythonNetworkStream::SendPartyRemovePacket
_TEXT	ENDS
; Function compile flags: /Ogtp
; File d:\metin2\metin2\client_source_clean\client_source_clean\source\userinterface\pythonnetworkstreamphasegame.cpp
;	COMDAT ?SendPartyInviteAnswerPacket@CPythonNetworkStream@@QAE_NKE@Z
_TEXT	SEGMENT
_kPartyInviteAnswerPacket$ = -8				; size = 6
_dwLeaderVID$ = 8					; size = 4
_byAnswer$ = 12						; size = 1
?SendPartyInviteAnswerPacket@CPythonNetworkStream@@QAE_NKE@Z PROC ; CPythonNetworkStream::SendPartyInviteAnswerPacket, COMDAT
; _this$ = ecx

; 2838 : {

  00000	55		 push	 ebp
  00001	8b ec		 mov	 ebp, esp
  00003	83 ec 08	 sub	 esp, 8
  00006	53		 push	 ebx

; 2839 : 	TPacketCGPartyInviteAnswer kPartyInviteAnswerPacket;
; 2840 : 	kPartyInviteAnswerPacket.header = HEADER_CG_PARTY_INVITE_ANSWER;
; 2841 : 	kPartyInviteAnswerPacket.leader_pid = dwLeaderVID;
; 2842 : 	kPartyInviteAnswerPacket.accept = byAnswer;

  00007	8a 5d 0c	 mov	 bl, BYTE PTR _byAnswer$[ebp]

; 2843 : 
; 2844 : 	if (!Send(sizeof(kPartyInviteAnswerPacket), &kPartyInviteAnswerPacket))

  0000a	8d 45 f8	 lea	 eax, DWORD PTR _kPartyInviteAnswerPacket$[ebp]
  0000d	56		 push	 esi
  0000e	8b 75 08	 mov	 esi, DWORD PTR _dwLeaderVID$[ebp]
  00011	57		 push	 edi
  00012	50		 push	 eax
  00013	6a 06		 push	 6
  00015	8b f9		 mov	 edi, ecx
  00017	c6 45 f8 49	 mov	 BYTE PTR _kPartyInviteAnswerPacket$[ebp], 73 ; 00000049H
  0001b	89 75 f9	 mov	 DWORD PTR _kPartyInviteAnswerPacket$[ebp+1], esi
  0001e	88 5d fd	 mov	 BYTE PTR _kPartyInviteAnswerPacket$[ebp+5], bl
  00021	e8 00 00 00 00	 call	 ?Send@CNetworkStream@@QAE_NHPBX@Z ; CNetworkStream::Send
  00026	84 c0		 test	 al, al

; 2845 : 	{
; 2846 : 		Tracenf("CPythonNetworkStream::SendPartyInviteAnswerPacket [%ud %ud] - PACKET SEND ERROR", dwLeaderVID, byAnswer);

  00028	0f b6 c3	 movzx	 eax, bl
  0002b	50		 push	 eax
  0002c	56		 push	 esi
  0002d	75 18		 jne	 SHORT $LN1@SendPartyI
  0002f	68 00 00 00 00	 push	 OFFSET ??_C@_0FA@IIILKEFH@CPythonNetworkStream?3?3SendPartyI@
  00034	e8 00 00 00 00	 call	 ?Tracenf@@YAXPBDZZ	; Tracenf
  00039	83 c4 0c	 add	 esp, 12			; 0000000cH

; 2847 : 		return false;

  0003c	32 c0		 xor	 al, al
  0003e	5f		 pop	 edi
  0003f	5e		 pop	 esi
  00040	5b		 pop	 ebx

; 2852 : }

  00041	8b e5		 mov	 esp, ebp
  00043	5d		 pop	 ebp
  00044	c2 08 00	 ret	 8
$LN1@SendPartyI:

; 2848 : 	}
; 2849 : 
; 2850 : 	Tracef(" << SendPartyInviteAnswerPacket : %d, %d\n", dwLeaderVID, byAnswer);

  00047	68 00 00 00 00	 push	 OFFSET ??_C@_0CK@GHKGLGPO@?5?$DM?$DM?5SendPartyInviteAnswerPacket?5@
  0004c	e8 00 00 00 00	 call	 ?Tracef@@YAXPBDZZ	; Tracef
  00051	83 c4 0c	 add	 esp, 12			; 0000000cH

; 2851 : 	return SendSequence();

  00054	8b cf		 mov	 ecx, edi
  00056	e8 00 00 00 00	 call	 ?SendSequence@CNetworkStream@@QAE_NXZ ; CNetworkStream::SendSequence
  0005b	5f		 pop	 edi
  0005c	5e		 pop	 esi
  0005d	5b		 pop	 ebx

; 2852 : }

  0005e	8b e5		 mov	 esp, ebp
  00060	5d		 pop	 ebp
  00061	c2 08 00	 ret	 8
?SendPartyInviteAnswerPacket@CPythonNetworkStream@@QAE_NKE@Z ENDP ; CPythonNetworkStream::SendPartyInviteAnswerPacket
_TEXT	ENDS
; Function compile flags: /Ogtp
; File d:\metin2\metin2\client_source_clean\client_source_clean\source\userinterface\pythonnetworkstreamphasegame.cpp
;	COMDAT ?SendPartyInvitePacket@CPythonNetworkStream@@QAE_NK@Z
_TEXT	SEGMENT
_kPartyInvitePacket$ = -8				; size = 5
_dwVID$ = 8						; size = 4
?SendPartyInvitePacket@CPythonNetworkStream@@QAE_NK@Z PROC ; CPythonNetworkStream::SendPartyInvitePacket, COMDAT
; _this$ = ecx

; 2822 : {

  00000	55		 push	 ebp
  00001	8b ec		 mov	 ebp, esp
  00003	83 ec 08	 sub	 esp, 8
  00006	56		 push	 esi

; 2823 : 	TPacketCGPartyInvite kPartyInvitePacket;
; 2824 : 	kPartyInvitePacket.header = HEADER_CG_PARTY_INVITE;
; 2825 : 	kPartyInvitePacket.vid = dwVID;

  00007	8b 75 08	 mov	 esi, DWORD PTR _dwVID$[ebp]

; 2826 : 
; 2827 : 	if (!Send(sizeof(kPartyInvitePacket), &kPartyInvitePacket))

  0000a	8d 45 f8	 lea	 eax, DWORD PTR _kPartyInvitePacket$[ebp]
  0000d	57		 push	 edi
  0000e	50		 push	 eax
  0000f	6a 05		 push	 5
  00011	8b f9		 mov	 edi, ecx
  00013	c6 45 f8 48	 mov	 BYTE PTR _kPartyInvitePacket$[ebp], 72 ; 00000048H
  00017	89 75 f9	 mov	 DWORD PTR _kPartyInvitePacket$[ebp+1], esi
  0001a	e8 00 00 00 00	 call	 ?Send@CNetworkStream@@QAE_NHPBX@Z ; CNetworkStream::Send

; 2828 : 	{
; 2829 : 		Tracenf("CPythonNetworkStream::SendPartyInvitePacket [%ud] - PACKET SEND ERROR", dwVID);

  0001f	56		 push	 esi
  00020	84 c0		 test	 al, al
  00022	75 17		 jne	 SHORT $LN1@SendPartyI
  00024	68 00 00 00 00	 push	 OFFSET ??_C@_0EG@HLBPKODM@CPythonNetworkStream?3?3SendPartyI@
  00029	e8 00 00 00 00	 call	 ?Tracenf@@YAXPBDZZ	; Tracenf
  0002e	83 c4 08	 add	 esp, 8

; 2830 : 		return false;

  00031	32 c0		 xor	 al, al
  00033	5f		 pop	 edi
  00034	5e		 pop	 esi

; 2835 : }

  00035	8b e5		 mov	 esp, ebp
  00037	5d		 pop	 ebp
  00038	c2 04 00	 ret	 4
$LN1@SendPartyI:

; 2831 : 	}
; 2832 : 
; 2833 : 	Tracef(" << SendPartyInvitePacket : %d\n", dwVID);

  0003b	68 00 00 00 00	 push	 OFFSET ??_C@_0CA@GNHHEHBK@?5?$DM?$DM?5SendPartyInvitePacket?5?3?5?$CFd?6?$AA@
  00040	e8 00 00 00 00	 call	 ?Tracef@@YAXPBDZZ	; Tracef
  00045	83 c4 08	 add	 esp, 8

; 2834 : 	return SendSequence();

  00048	8b cf		 mov	 ecx, edi
  0004a	e8 00 00 00 00	 call	 ?SendSequence@CNetworkStream@@QAE_NXZ ; CNetworkStream::SendSequence
  0004f	5f		 pop	 edi
  00050	5e		 pop	 esi

; 2835 : }

  00051	8b e5		 mov	 esp, ebp
  00053	5d		 pop	 ebp
  00054	c2 04 00	 ret	 4
?SendPartyInvitePacket@CPythonNetworkStream@@QAE_NK@Z ENDP ; CPythonNetworkStream::SendPartyInvitePacket
_TEXT	ENDS
; Function compile flags: /Ogtp
; File d:\metin2\metin2\client_source_clean\client_source_clean\source\userinterface\pythonnetworkstreamphasegame.cpp
;	COMDAT ?SendMessengerRemovePacket@CPythonNetworkStream@@QAE_NPBD0@Z
_TEXT	SEGMENT
_packet$ = -32						; size = 2
_szKey$ = -28						; size = 24
__$ArrayPad$ = -4					; size = 4
_c_szKey$ = 8						; size = 4
_c_szName$ = 12						; size = 4
?SendMessengerRemovePacket@CPythonNetworkStream@@QAE_NPBD0@Z PROC ; CPythonNetworkStream::SendMessengerRemovePacket, COMDAT
; _this$ = ecx

; 1097 : {

  00000	55		 push	 ebp
  00001	8b ec		 mov	 ebp, esp
  00003	83 ec 20	 sub	 esp, 32			; 00000020H
  00006	a1 00 00 00 00	 mov	 eax, DWORD PTR ___security_cookie
  0000b	33 c5		 xor	 eax, ebp
  0000d	89 45 fc	 mov	 DWORD PTR __$ArrayPad$[ebp], eax
  00010	53		 push	 ebx
  00011	8b 5d 08	 mov	 ebx, DWORD PTR _c_szKey$[ebp]

; 1098 : 	TPacketCGMessenger packet;
; 1099 : 	packet.header = HEADER_CG_MESSENGER;
; 1100 : 	packet.subheader = MESSENGER_SUBHEADER_CG_REMOVE;
; 1101 : 	if (!Send(sizeof(packet), &packet))

  00014	8d 45 e0	 lea	 eax, DWORD PTR _packet$[ebp]
  00017	56		 push	 esi
  00018	57		 push	 edi
  00019	8b 7d 0c	 mov	 edi, DWORD PTR _c_szName$[ebp]
  0001c	8b f1		 mov	 esi, ecx
  0001e	50		 push	 eax
  0001f	6a 02		 push	 2
  00021	66 c7 45 e0 43
	02		 mov	 WORD PTR _packet$[ebp], 579 ; 00000243H
  00027	e8 00 00 00 00	 call	 ?Send@CNetworkStream@@QAE_NHPBX@Z ; CNetworkStream::Send
  0002c	84 c0		 test	 al, al
  0002e	75 15		 jne	 SHORT $LN2@SendMessen
$LN5@SendMessen:
  00030	5f		 pop	 edi
  00031	5e		 pop	 esi

; 1102 : 		return false;

  00032	32 c0		 xor	 al, al
  00034	5b		 pop	 ebx

; 1109 : }

  00035	8b 4d fc	 mov	 ecx, DWORD PTR __$ArrayPad$[ebp]
  00038	33 cd		 xor	 ecx, ebp
  0003a	e8 00 00 00 00	 call	 @__security_check_cookie@4
  0003f	8b e5		 mov	 esp, ebp
  00041	5d		 pop	 ebp
  00042	c2 08 00	 ret	 8
$LN2@SendMessen:

; 1103 : 	char szKey[CHARACTER_NAME_MAX_LEN];
; 1104 : 	strncpy(szKey, c_szKey, CHARACTER_NAME_MAX_LEN-1);

  00045	6a 17		 push	 23			; 00000017H
  00047	8d 45 e4	 lea	 eax, DWORD PTR _szKey$[ebp]
  0004a	53		 push	 ebx
  0004b	50		 push	 eax
  0004c	e8 00 00 00 00	 call	 _strncpy
  00051	83 c4 0c	 add	 esp, 12			; 0000000cH

; 1105 : 	if (!Send(sizeof(szKey), &szKey))

  00054	8d 45 e4	 lea	 eax, DWORD PTR _szKey$[ebp]
  00057	8b ce		 mov	 ecx, esi
  00059	50		 push	 eax
  0005a	6a 18		 push	 24			; 00000018H
  0005c	e8 00 00 00 00	 call	 ?Send@CNetworkStream@@QAE_NHPBX@Z ; CNetworkStream::Send
  00061	84 c0		 test	 al, al
  00063	74 cb		 je	 SHORT $LN5@SendMessen

; 1106 : 		return false;
; 1107 : 	__RefreshTargetBoardByName(c_szName);

  00065	57		 push	 edi
  00066	8b ce		 mov	 ecx, esi
  00068	e8 00 00 00 00	 call	 ?__RefreshTargetBoardByName@CPythonNetworkStream@@IAEXPBD@Z ; CPythonNetworkStream::__RefreshTargetBoardByName

; 1108 : 	return SendSequence();

  0006d	8b ce		 mov	 ecx, esi
  0006f	e8 00 00 00 00	 call	 ?SendSequence@CNetworkStream@@QAE_NXZ ; CNetworkStream::SendSequence

; 1109 : }

  00074	8b 4d fc	 mov	 ecx, DWORD PTR __$ArrayPad$[ebp]
  00077	5f		 pop	 edi
  00078	5e		 pop	 esi
  00079	33 cd		 xor	 ecx, ebp
  0007b	5b		 pop	 ebx
  0007c	e8 00 00 00 00	 call	 @__security_check_cookie@4
  00081	8b e5		 mov	 esp, ebp
  00083	5d		 pop	 ebp
  00084	c2 08 00	 ret	 8
?SendMessengerRemovePacket@CPythonNetworkStream@@QAE_NPBD0@Z ENDP ; CPythonNetworkStream::SendMessengerRemovePacket
_TEXT	ENDS
; Function compile flags: /Ogtp
; File d:\metin2\metin2\client_source_clean\client_source_clean\source\userinterface\pythonnetworkstreamphasegame.cpp
;	COMDAT ?SendMessengerAddByNamePacket@CPythonNetworkStream@@QAE_NPBD@Z
_TEXT	SEGMENT
_packet$ = -32						; size = 2
_szName$ = -28						; size = 24
__$ArrayPad$ = -4					; size = 4
_c_szName$ = 8						; size = 4
?SendMessengerAddByNamePacket@CPythonNetworkStream@@QAE_NPBD@Z PROC ; CPythonNetworkStream::SendMessengerAddByNamePacket, COMDAT
; _this$ = ecx

; 1080 : {

  00000	55		 push	 ebp
  00001	8b ec		 mov	 ebp, esp
  00003	83 ec 20	 sub	 esp, 32			; 00000020H
  00006	a1 00 00 00 00	 mov	 eax, DWORD PTR ___security_cookie
  0000b	33 c5		 xor	 eax, ebp
  0000d	89 45 fc	 mov	 DWORD PTR __$ArrayPad$[ebp], eax
  00010	56		 push	 esi
  00011	57		 push	 edi
  00012	8b 7d 08	 mov	 edi, DWORD PTR _c_szName$[ebp]

; 1081 : 	TPacketCGMessenger packet;
; 1082 : 	packet.header = HEADER_CG_MESSENGER;
; 1083 : 	packet.subheader = MESSENGER_SUBHEADER_CG_ADD_BY_NAME;
; 1084 : 	if (!Send(sizeof(packet), &packet))

  00015	8d 45 e0	 lea	 eax, DWORD PTR _packet$[ebp]
  00018	50		 push	 eax
  00019	6a 02		 push	 2
  0001b	8b f1		 mov	 esi, ecx
  0001d	66 c7 45 e0 43
	01		 mov	 WORD PTR _packet$[ebp], 323 ; 00000143H
  00023	e8 00 00 00 00	 call	 ?Send@CNetworkStream@@QAE_NHPBX@Z ; CNetworkStream::Send
  00028	84 c0		 test	 al, al
  0002a	75 14		 jne	 SHORT $LN2@SendMessen
$LN7@SendMessen:
  0002c	5f		 pop	 edi

; 1085 : 		return false;

  0002d	32 c0		 xor	 al, al
  0002f	5e		 pop	 esi

; 1094 : }

  00030	8b 4d fc	 mov	 ecx, DWORD PTR __$ArrayPad$[ebp]
  00033	33 cd		 xor	 ecx, ebp
  00035	e8 00 00 00 00	 call	 @__security_check_cookie@4
  0003a	8b e5		 mov	 esp, ebp
  0003c	5d		 pop	 ebp
  0003d	c2 04 00	 ret	 4
$LN2@SendMessen:

; 1086 : 	char szName[CHARACTER_NAME_MAX_LEN];
; 1087 : 	strncpy(szName, c_szName, CHARACTER_NAME_MAX_LEN-1);

  00040	6a 17		 push	 23			; 00000017H
  00042	8d 45 e4	 lea	 eax, DWORD PTR _szName$[ebp]
  00045	57		 push	 edi
  00046	50		 push	 eax
  00047	e8 00 00 00 00	 call	 _strncpy
  0004c	83 c4 0c	 add	 esp, 12			; 0000000cH

; 1088 : 	szName[CHARACTER_NAME_MAX_LEN-1] = '\0'; // #720:       

  0004f	c6 45 fb 00	 mov	 BYTE PTR _szName$[ebp+23], 0

; 1089 : 
; 1090 : 	if (!Send(sizeof(szName), &szName))

  00053	8d 45 e4	 lea	 eax, DWORD PTR _szName$[ebp]
  00056	8b ce		 mov	 ecx, esi
  00058	50		 push	 eax
  00059	6a 18		 push	 24			; 00000018H
  0005b	e8 00 00 00 00	 call	 ?Send@CNetworkStream@@QAE_NHPBX@Z ; CNetworkStream::Send
  00060	84 c0		 test	 al, al
  00062	74 c8		 je	 SHORT $LN7@SendMessen

; 1091 : 		return false;
; 1092 : 	Tracef(" SendMessengerAddByNamePacket : %s\n", c_szName);

  00064	57		 push	 edi
  00065	68 00 00 00 00	 push	 OFFSET ??_C@_0CE@DHDBME@?5SendMessengerAddByNamePacket?5?3?5@
  0006a	e8 00 00 00 00	 call	 ?Tracef@@YAXPBDZZ	; Tracef
  0006f	83 c4 08	 add	 esp, 8

; 1093 : 	return SendSequence();

  00072	8b ce		 mov	 ecx, esi
  00074	e8 00 00 00 00	 call	 ?SendSequence@CNetworkStream@@QAE_NXZ ; CNetworkStream::SendSequence

; 1094 : }

  00079	8b 4d fc	 mov	 ecx, DWORD PTR __$ArrayPad$[ebp]
  0007c	5f		 pop	 edi
  0007d	33 cd		 xor	 ecx, ebp
  0007f	5e		 pop	 esi
  00080	e8 00 00 00 00	 call	 @__security_check_cookie@4
  00085	8b e5		 mov	 esp, ebp
  00087	5d		 pop	 ebp
  00088	c2 04 00	 ret	 4
?SendMessengerAddByNamePacket@CPythonNetworkStream@@QAE_NPBD@Z ENDP ; CPythonNetworkStream::SendMessengerAddByNamePacket
_TEXT	ENDS
; Function compile flags: /Ogtp
; File d:\metin2\metin2\client_source_clean\client_source_clean\source\userinterface\pythonnetworkstreamphasegame.cpp
;	COMDAT ?SendMessengerAddByVIDPacket@CPythonNetworkStream@@QAE_NK@Z
_TEXT	SEGMENT
_packet$ = -4						; size = 2
_vid$ = 8						; size = 4
?SendMessengerAddByVIDPacket@CPythonNetworkStream@@QAE_NK@Z PROC ; CPythonNetworkStream::SendMessengerAddByVIDPacket, COMDAT
; _this$ = ecx

; 1068 : {

  00000	55		 push	 ebp
  00001	8b ec		 mov	 ebp, esp
  00003	51		 push	 ecx
  00004	56		 push	 esi

; 1069 : 	TPacketCGMessenger packet;
; 1070 : 	packet.header = HEADER_CG_MESSENGER;
; 1071 : 	packet.subheader = MESSENGER_SUBHEADER_CG_ADD_BY_VID;
; 1072 : 	if (!Send(sizeof(packet), &packet))

  00005	8d 45 fc	 lea	 eax, DWORD PTR _packet$[ebp]
  00008	66 c7 45 fc 43
	00		 mov	 WORD PTR _packet$[ebp], 67 ; 00000043H
  0000e	50		 push	 eax
  0000f	6a 02		 push	 2
  00011	8b f1		 mov	 esi, ecx
  00013	e8 00 00 00 00	 call	 ?Send@CNetworkStream@@QAE_NHPBX@Z ; CNetworkStream::Send
  00018	84 c0		 test	 al, al
  0001a	75 09		 jne	 SHORT $LN2@SendMessen
$LN5@SendMessen:

; 1073 : 		return false;

  0001c	32 c0		 xor	 al, al
  0001e	5e		 pop	 esi

; 1077 : }

  0001f	8b e5		 mov	 esp, ebp
  00021	5d		 pop	 ebp
  00022	c2 04 00	 ret	 4
$LN2@SendMessen:

; 1074 : 	if (!Send(sizeof(vid), &vid))

  00025	8d 45 08	 lea	 eax, DWORD PTR _vid$[ebp]
  00028	8b ce		 mov	 ecx, esi
  0002a	50		 push	 eax
  0002b	6a 04		 push	 4
  0002d	e8 00 00 00 00	 call	 ?Send@CNetworkStream@@QAE_NHPBX@Z ; CNetworkStream::Send
  00032	84 c0		 test	 al, al
  00034	74 e6		 je	 SHORT $LN5@SendMessen

; 1075 : 		return false;
; 1076 : 	return SendSequence();

  00036	8b ce		 mov	 ecx, esi
  00038	e8 00 00 00 00	 call	 ?SendSequence@CNetworkStream@@QAE_NXZ ; CNetworkStream::SendSequence
  0003d	5e		 pop	 esi

; 1077 : }

  0003e	8b e5		 mov	 esp, ebp
  00040	5d		 pop	 ebp
  00041	c2 04 00	 ret	 4
?SendMessengerAddByVIDPacket@CPythonNetworkStream@@QAE_NK@Z ENDP ; CPythonNetworkStream::SendMessengerAddByVIDPacket
_TEXT	ENDS
; Function compile flags: /Ogtp
; File d:\metin2\metin2\client_source_clean\client_source_clean\source\userinterface\pythonnetworkstreamphasegame.cpp
; File c:\program files (x86)\microsoft visual studio 12.0\vc\include\vector
; File d:\metin2\metin2\client_source_clean\client_source_clean\source\userinterface\pythonnetworkstreamphasegame.cpp
; File c:\program files (x86)\microsoft visual studio 12.0\vc\include\vector
; File d:\metin2\metin2\client_source_clean\client_source_clean\source\userinterface\pythonnetworkstreamphasegame.cpp
; File c:\program files (x86)\microsoft visual studio 12.0\vc\include\iosfwd
; File c:\program files (x86)\microsoft visual studio 12.0\vc\include\xstring
; File c:\program files (x86)\microsoft visual studio 12.0\vc\include\iosfwd
; File c:\program files (x86)\microsoft visual studio 12.0\vc\include\xstring
; File d:\metin2\metin2\client_source_clean\client_source_clean\source\userinterface\pythonnetworkstreamphasegame.cpp
; File c:\program files (x86)\microsoft visual studio 12.0\vc\include\xstring
; File c:\program files (x86)\microsoft visual studio 12.0\vc\include\xmemory0
; File d:\metin2\metin2\client_source_clean\client_source_clean\source\userinterface\pythonnetworkstreamphasegame.cpp
;	COMDAT ?RegisterEmoticonString@CPythonNetworkStream@@QAEXPBD@Z
_TEXT	SEGMENT
$T2 = -44						; size = 24
__$ArrayPad$ = -20					; size = 4
__$EHRec$ = -12						; size = 12
_pcEmoticonString$ = 8					; size = 4
?RegisterEmoticonString@CPythonNetworkStream@@QAEXPBD@Z PROC ; CPythonNetworkStream::RegisterEmoticonString, COMDAT
; _this$ = ecx

; 1209 : {

  00000	55		 push	 ebp
  00001	8b ec		 mov	 ebp, esp
  00003	83 e4 f8	 and	 esp, -8			; fffffff8H
  00006	6a ff		 push	 -1
  00008	68 00 00 00 00	 push	 __ehhandler$?RegisterEmoticonString@CPythonNetworkStream@@QAEXPBD@Z
  0000d	64 a1 00 00 00
	00		 mov	 eax, DWORD PTR fs:0
  00013	50		 push	 eax
  00014	83 ec 24	 sub	 esp, 36			; 00000024H
  00017	a1 00 00 00 00	 mov	 eax, DWORD PTR ___security_cookie
  0001c	33 c4		 xor	 eax, esp
  0001e	89 44 24 1c	 mov	 DWORD PTR __$ArrayPad$[esp+48], eax
  00022	56		 push	 esi
  00023	57		 push	 edi
  00024	a1 00 00 00 00	 mov	 eax, DWORD PTR ___security_cookie
  00029	33 c4		 xor	 eax, esp
  0002b	50		 push	 eax
  0002c	8d 44 24 30	 lea	 eax, DWORD PTR __$EHRec$[esp+60]
  00030	64 a3 00 00 00
	00		 mov	 DWORD PTR fs:0, eax
  00036	8b 75 08	 mov	 esi, DWORD PTR _pcEmoticonString$[ebp]

; 1210 : 	if (m_EmoticonStringVector.size() >= CInstanceBase::EMOTICON_NUM)

  00039	8d b9 20 03 00
	00		 lea	 edi, DWORD PTR [ecx+800]
; File c:\program files (x86)\microsoft visual studio 12.0\vc\include\vector

; 1148 : 		return (this->_Mylast - this->_Myfirst);

  0003f	8b 4f 04	 mov	 ecx, DWORD PTR [edi+4]
  00042	b8 ab aa aa 2a	 mov	 eax, 715827883		; 2aaaaaabH
  00047	2b 0f		 sub	 ecx, DWORD PTR [edi]
  00049	f7 e9		 imul	 ecx
  0004b	c1 fa 02	 sar	 edx, 2
  0004e	8b ca		 mov	 ecx, edx
  00050	c1 e9 1f	 shr	 ecx, 31			; 0000001fH
  00053	03 ca		 add	 ecx, edx
; File d:\metin2\metin2\client_source_clean\client_source_clean\source\userinterface\pythonnetworkstreamphasegame.cpp

; 1210 : 	if (m_EmoticonStringVector.size() >= CInstanceBase::EMOTICON_NUM)

  00055	81 f9 80 00 00
	00		 cmp	 ecx, 128		; 00000080H
  0005b	72 26		 jb	 SHORT $LN1@RegisterEm
; File c:\program files (x86)\microsoft visual studio 12.0\vc\include\vector

; 1148 : 		return (this->_Mylast - this->_Myfirst);

  0005d	8b 4f 04	 mov	 ecx, DWORD PTR [edi+4]
  00060	b8 ab aa aa 2a	 mov	 eax, 715827883		; 2aaaaaabH
  00065	2b 0f		 sub	 ecx, DWORD PTR [edi]
  00067	f7 e9		 imul	 ecx
  00069	c1 fa 02	 sar	 edx, 2
  0006c	8b c2		 mov	 eax, edx
  0006e	c1 e8 1f	 shr	 eax, 31			; 0000001fH
  00071	03 c2		 add	 eax, edx
; File d:\metin2\metin2\client_source_clean\client_source_clean\source\userinterface\pythonnetworkstreamphasegame.cpp

; 1212 : 		TraceError("Can't register emoticon string... vector is full (size:%d)", m_EmoticonStringVector.size() );

  00073	50		 push	 eax
  00074	68 00 00 00 00	 push	 OFFSET ??_C@_0DL@GMAAOOOI@Can?8t?5register?5emoticon?5string?4?4@
  00079	e8 00 00 00 00	 call	 ?TraceError@@YAXPBDZZ	; TraceError
  0007e	83 c4 08	 add	 esp, 8

; 1213 : 		return;

  00081	eb 5e		 jmp	 SHORT $LN73@RegisterEm
$LN1@RegisterEm:
; File c:\program files (x86)\microsoft visual studio 12.0\vc\include\iosfwd

; 523  : 			: _CSTD strlen(_First));

  00083	80 3e 00	 cmp	 BYTE PTR [esi], 0
; File c:\program files (x86)\microsoft visual studio 12.0\vc\include\xstring

; 2284 : 		this->_Myres = this->_BUF_SIZE - 1;

  00086	c7 44 24 24 0f
	00 00 00	 mov	 DWORD PTR $T2[esp+80], 15 ; 0000000fH

; 1170 : 		}
; 1171 : 
; 1172 : 	_Myt& assign(size_type _Count, _Elem _Ch)
; 1173 : 		{	// assign _Count * _Ch
; 1174 : 		if (_Count == npos)
; 1175 : 			_Xlen();	// result too long
; 1176 : 
; 1177 : 		if (_Grow(_Count))
; 1178 : 			{	// make room and assign new stuff
; 1179 : 			_Chassign(0, _Count, _Ch);
; 1180 : 			_Eos(_Count);
; 1181 : 			}
; 1182 : 		return (*this);
; 1183 : 		}
; 1184 : 
; 1185 : 	template<class _Iter>
; 1186 : 		typename enable_if<_Is_iterator<_Iter>::value,
; 1187 : 			_Myt&>::type
; 1188 : 		assign(_Iter _First, _Iter _Last)
; 1189 : 		{	// assign [_First, _Last), input iterators
; 1190 : 		return (replace(begin(), end(), _First, _Last));
; 1191 : 		}
; 1192 : 
; 1193 : 	_Myt& assign(const_pointer _First, const_pointer _Last)
; 1194 : 		{	// assign [_First, _Last), const pointers
; 1195 : 		return (replace(begin(), end(), _First, _Last));
; 1196 : 		}
; 1197 : 
; 1198 : 	_Myt& assign(const_iterator _First, const_iterator _Last)
; 1199 : 		{	// assign [_First, _Last), const_iterators
; 1200 : 		return (replace(begin(), end(), _First, _Last));
; 1201 : 		}
; 1202 : 
; 1203 : 	_Myt& insert(size_type _Off, const _Myt& _Right)
; 1204 : 		{	// insert _Right at _Off
; 1205 : 		return (insert(_Off, _Right, 0, npos));
; 1206 : 		}
; 1207 : 
; 1208 : 	_Myt& insert(size_type _Off,
; 1209 : 		const _Myt& _Right, size_type _Roff, size_type _Count)
; 1210 : 		{	// insert _Right [_Roff, _Roff + _Count) at _Off
; 1211 : 		if (this->_Mysize < _Off || _Right.size() < _Roff)
; 1212 : 			_Xran();	// _Off or _Roff off end
; 1213 : 		size_type _Num = _Right.size() - _Roff;
; 1214 : 		if (_Num < _Count)
; 1215 : 			_Count = _Num;	// trim _Count to size
; 1216 : 		if (npos - this->_Mysize <= _Count)
; 1217 : 			_Xlen();	// result too long
; 1218 : 
; 1219 : 		if (0 < _Count && _Grow(_Num = this->_Mysize + _Count))
; 1220 : 			{	// make room and insert new stuff
; 1221 : 			_Traits::move(this->_Myptr() + _Off + _Count,
; 1222 : 				this->_Myptr() + _Off,
; 1223 : 				this->_Mysize - _Off);	// empty out hole
; 1224 : 			if (this == &_Right)
; 1225 : 				_Traits::move(this->_Myptr() + _Off,
; 1226 : 					this->_Myptr() + (_Off < _Roff ? _Roff + _Count : _Roff),
; 1227 : 						_Count);	// substring
; 1228 : 			else
; 1229 : 				_Traits::copy(this->_Myptr() + _Off,
; 1230 : 					_Right._Myptr() + _Roff, _Count);	// fill hole
; 1231 : 			_Eos(_Num);
; 1232 : 			}
; 1233 : 		return (*this);
; 1234 : 		}
; 1235 : 
; 1236 : 	_Myt& insert(size_type _Off,
; 1237 : 		const _Elem *_Ptr, size_type _Count)
; 1238 : 		{	// insert [_Ptr, _Ptr + _Count) at _Off
; 1239 :  #if _ITERATOR_DEBUG_LEVEL == 2
; 1240 : 		if (_Count != 0)
; 1241 : 			_DEBUG_POINTER(_Ptr);
; 1242 :  #endif /* _ITERATOR_DEBUG_LEVEL == 2 */
; 1243 : 
; 1244 : 		if (_Inside(_Ptr))
; 1245 : 			return (insert(_Off, *this,
; 1246 : 				_Ptr - this->_Myptr(), _Count));	// substring
; 1247 : 		if (this->_Mysize < _Off)
; 1248 : 			_Xran();	// _Off off end
; 1249 : 		if (npos - this->_Mysize <= _Count)
; 1250 : 			_Xlen();	// result too long
; 1251 : 		size_type _Num;
; 1252 : 		if (0 < _Count && _Grow(_Num = this->_Mysize + _Count))
; 1253 : 			{	// make room and insert new stuff
; 1254 : 			_Traits::move(this->_Myptr() + _Off + _Count,
; 1255 : 				this->_Myptr() + _Off,
; 1256 : 				this->_Mysize - _Off);	// empty out hole
; 1257 : 			_Traits::copy(this->_Myptr() + _Off, _Ptr, _Count);	// fill hole
; 1258 : 			_Eos(_Num);
; 1259 : 			}
; 1260 : 		return (*this);
; 1261 : 		}
; 1262 : 
; 1263 : 	_Myt& insert(size_type _Off, const _Elem *_Ptr)
; 1264 : 		{	// insert [_Ptr, <null>) at _Off
; 1265 : 		_DEBUG_POINTER(_Ptr);
; 1266 : 		return (insert(_Off, _Ptr, _Traits::length(_Ptr)));
; 1267 : 		}
; 1268 : 
; 1269 : 	_Myt& insert(size_type _Off,
; 1270 : 		size_type _Count, _Elem _Ch)
; 1271 : 		{	// insert _Count * _Ch at _Off
; 1272 : 		if (this->_Mysize < _Off)
; 1273 : 			_Xran();	// _Off off end
; 1274 : 		if (npos - this->_Mysize <= _Count)
; 1275 : 			_Xlen();	// result too long
; 1276 : 		size_type _Num;
; 1277 : 		if (0 < _Count && _Grow(_Num = this->_Mysize + _Count))
; 1278 : 			{	// make room and insert new stuff
; 1279 : 			_Traits::move(this->_Myptr() + _Off + _Count,
; 1280 : 				this->_Myptr() + _Off,
; 1281 : 				this->_Mysize - _Off);	// empty out hole
; 1282 : 			_Chassign(_Off, _Count, _Ch);	// fill hole
; 1283 : 			_Eos(_Num);
; 1284 : 			}
; 1285 : 		return (*this);
; 1286 : 		}
; 1287 : 
; 1288 : 	iterator insert(const_iterator _Where)
; 1289 : 		{	// insert <null> at _Where
; 1290 : 		return (insert(_Where, _Elem()));
; 1291 : 		}
; 1292 : 
; 1293 : 	iterator insert(const_iterator _Where, _Elem _Ch)
; 1294 : 		{	// insert _Ch at _Where
; 1295 : 		size_type _Off = _Pdif(_Where, begin());
; 1296 : 		insert(_Off, 1, _Ch);
; 1297 : 		return (begin() + _Off);
; 1298 : 		}
; 1299 : 
; 1300 : 	iterator insert(const_iterator _Where, size_type _Count, _Elem _Ch)
; 1301 : 		{	// insert _Count * _Elem at _Where
; 1302 : 		size_type _Off = _Pdif(_Where, begin());
; 1303 : 		insert(_Off, _Count, _Ch);
; 1304 : 		return (begin() + _Off);
; 1305 : 		}
; 1306 : 
; 1307 : 	template<class _Iter>
; 1308 : 		typename enable_if<_Is_iterator<_Iter>::value,
; 1309 : 			iterator>::type
; 1310 : 		insert(const_iterator _Where, _Iter _First, _Iter _Last)
; 1311 : 		{	// insert [_First, _Last) at _Where, input iterators
; 1312 : 		size_type _Off = _Pdif(_Where, begin());
; 1313 : 		replace(_Where, _Where, _First, _Last);
; 1314 : 		return (begin() + _Off);
; 1315 : 		}
; 1316 : 
; 1317 : 	iterator insert(const_iterator _Where,
; 1318 : 		const_pointer _First, const_pointer _Last)
; 1319 : 		{	// insert [_First, _Last) at _Where, const pointers
; 1320 : 		size_type _Off = _Pdif(_Where, begin());
; 1321 : 		replace(_Where, _Where, _First, _Last);
; 1322 : 		return (begin() + _Off);
; 1323 : 		}
; 1324 : 
; 1325 : 	iterator insert(const_iterator _Where,
; 1326 : 		const_iterator _First, const_iterator _Last)
; 1327 : 		{	// insert [_First, _Last) at _Where, const_iterators
; 1328 : 		size_type _Off = _Pdif(_Where, begin());
; 1329 : 		replace(_Where, _Where, _First, _Last);
; 1330 : 		return (begin() + _Off);
; 1331 : 		}
; 1332 : 
; 1333 : 	_Myt& erase(size_type _Off = 0)
; 1334 : 		{	// erase elements [_Off, ...)
; 1335 : 		if (this->_Mysize < _Off)
; 1336 : 			_Xran();	// _Off off end
; 1337 : 		_Eos(_Off);
; 1338 : 		return (*this);
; 1339 : 		}
; 1340 : 
; 1341 : 	_Myt& erase(size_type _Off, size_type _Count)
; 1342 : 		{	// erase elements [_Off, _Off + _Count)
; 1343 : 		if (this->_Mysize < _Off)
; 1344 : 			_Xran();	// _Off off end
; 1345 : 		if (this->_Mysize - _Off <= _Count)
; 1346 : 			_Eos(_Off);	// erase elements [_Off, ...)
; 1347 : 		else if (0 < _Count)
; 1348 : 			{	// move elements down
; 1349 : 			value_type *_Ptr = this->_Myptr() + _Off;
; 1350 : 			size_type _Newsize = this->_Mysize - _Count;
; 1351 : 			_Traits::move(_Ptr, _Ptr + _Count, _Newsize - _Off);
; 1352 : 			_Eos(_Newsize);
; 1353 : 			}
; 1354 : 		return (*this);
; 1355 : 		}
; 1356 : 
; 1357 : 	iterator erase(const_iterator _Where)
; 1358 : 		{	// erase element at _Where
; 1359 : 		size_type _Count = _Pdif(_Where, begin());
; 1360 : 		erase(_Count, 1);
; 1361 : 		return (_STRING_ITERATOR(this->_Myptr() + _Count));
; 1362 : 		}
; 1363 : 
; 1364 : 	iterator erase(const_iterator _First, const_iterator _Last)
; 1365 : 		{	// erase substring [_First, _Last)
; 1366 : 		_DEBUG_RANGE(_First, _Last);
; 1367 : 		size_type _Count = _Pdif(_First, begin());
; 1368 : 		erase(_Count, _Pdif(_Last, _First));
; 1369 : 		return (_STRING_ITERATOR(this->_Myptr() + _Count));
; 1370 : 		}
; 1371 : 
; 1372 : 	void clear() _NOEXCEPT
; 1373 : 		{	// erase all
; 1374 : 		_Eos(0);
; 1375 : 		}
; 1376 : 
; 1377 : 	_Myt& replace(size_type _Off, size_type _N0, const _Myt& _Right)
; 1378 : 		{	// replace [_Off, _Off + _N0) with _Right
; 1379 : 		return (replace(_Off, _N0, _Right, 0, npos));
; 1380 : 		}
; 1381 : 
; 1382 : 	_Myt& replace(size_type _Off,
; 1383 : 		size_type _N0, const _Myt& _Right, size_type _Roff, size_type _Count)
; 1384 : 		{	// replace [_Off, _Off + _N0) with _Right [_Roff, _Roff + _Count)
; 1385 : 		if (this->_Mysize < _Off || _Right.size() < _Roff)
; 1386 : 			_Xran();	// _Off or _Roff off end
; 1387 : 		if (this->_Mysize - _Off < _N0)
; 1388 : 			_N0 = this->_Mysize - _Off;	// trim _N0 to size
; 1389 : 		size_type _Num = _Right.size() - _Roff;
; 1390 : 		if (_Num < _Count)
; 1391 : 			_Count = _Num;	// trim _Count to size
; 1392 : 		if (npos - _Count <= this->_Mysize - _N0)
; 1393 : 			_Xlen();	// result too long
; 1394 : 
; 1395 : 		size_type _Nm = this->_Mysize - _N0 - _Off;	// length of kept tail
; 1396 : 		size_type _Newsize = this->_Mysize + _Count - _N0;
; 1397 : 		if (this->_Mysize < _Newsize)
; 1398 : 			_Grow(_Newsize);
; 1399 : 
; 1400 : 		if (this != &_Right)
; 1401 : 			{	// no overlap, just move down and copy in new stuff
; 1402 : 			_Traits::move(this->_Myptr() + _Off + _Count,
; 1403 : 				this->_Myptr() + _Off + _N0, _Nm);	// empty hole
; 1404 : 			_Traits::copy(this->_Myptr() + _Off,
; 1405 : 				_Right._Myptr() + _Roff, _Count);	// fill hole
; 1406 : 			}
; 1407 : 		else if (_Count <= _N0)
; 1408 : 			{	// hole doesn't get larger, just copy in substring
; 1409 : 			_Traits::move(this->_Myptr() + _Off,
; 1410 : 				this->_Myptr() + _Roff, _Count);	// fill hole
; 1411 : 			_Traits::move(this->_Myptr() + _Off + _Count,
; 1412 : 				this->_Myptr() + _Off + _N0, _Nm);	// move tail down
; 1413 : 			}
; 1414 : 		else if (_Roff <= _Off)
; 1415 : 			{	// hole gets larger, substring begins before hole
; 1416 : 			_Traits::move(this->_Myptr() + _Off + _Count,
; 1417 : 				this->_Myptr() + _Off + _N0, _Nm);	// move tail down
; 1418 : 			_Traits::move(this->_Myptr() + _Off,
; 1419 : 				this->_Myptr() + _Roff, _Count);	// fill hole
; 1420 : 			}
; 1421 : 		else if (_Off + _N0 <= _Roff)
; 1422 : 			{	// hole gets larger, substring begins after hole
; 1423 : 			_Traits::move(this->_Myptr() + _Off + _Count,
; 1424 : 				this->_Myptr() + _Off + _N0, _Nm);	// move tail down
; 1425 : 			_Traits::move(this->_Myptr() + _Off,
; 1426 : 				this->_Myptr() + (_Roff + _Count - _N0),
; 1427 : 				_Count);	// fill hole
; 1428 : 			}
; 1429 : 		else
; 1430 : 			{	// hole gets larger, substring begins in hole
; 1431 : 			_Traits::move(this->_Myptr() + _Off,
; 1432 : 				this->_Myptr() + _Roff, _N0);	// fill old hole
; 1433 : 			_Traits::move(this->_Myptr() + _Off + _Count,
; 1434 : 				this->_Myptr() + _Off + _N0, _Nm);	// move tail down
; 1435 : 			_Traits::move(this->_Myptr() + _Off + _N0,
; 1436 : 				this->_Myptr() + _Roff + _Count,
; 1437 : 				_Count - _N0);	// fill rest of new hole
; 1438 : 			}
; 1439 : 
; 1440 : 		_Eos(_Newsize);
; 1441 : 		return (*this);
; 1442 : 		}
; 1443 : 
; 1444 : 	_Myt& replace(size_type _Off,
; 1445 : 		size_type _N0, const _Elem *_Ptr, size_type _Count)
; 1446 : 		{	// replace [_Off, _Off + _N0) with [_Ptr, _Ptr + _Count)
; 1447 :  #if _ITERATOR_DEBUG_LEVEL == 2
; 1448 : 		if (_Count != 0)
; 1449 : 			_DEBUG_POINTER(_Ptr);
; 1450 :  #endif /* _ITERATOR_DEBUG_LEVEL == 2 */
; 1451 : 
; 1452 : 		if (_Inside(_Ptr))
; 1453 : 			return (replace(_Off, _N0, *this,
; 1454 : 				_Ptr - this->_Myptr(),
; 1455 : 				_Count));	// substring, replace carefully
; 1456 : 		if (this->_Mysize < _Off)
; 1457 : 			_Xran();	// _Off off end
; 1458 : 		if (this->_Mysize - _Off < _N0)
; 1459 : 			_N0 = this->_Mysize - _Off;	// trim _N0 to size
; 1460 : 		if (npos - _Count <= this->_Mysize - _N0)
; 1461 : 			_Xlen();	// result too long
; 1462 : 		size_type _Nm = this->_Mysize - _N0 - _Off;
; 1463 : 
; 1464 : 		if (_Count < _N0)
; 1465 : 			_Traits::move(this->_Myptr() + _Off + _Count,
; 1466 : 				this->_Myptr() + _Off + _N0,
; 1467 : 				_Nm);	// smaller hole, move tail up
; 1468 : 		size_type _Num;
; 1469 : 		if ((0 < _Count || 0 < _N0)
; 1470 : 			&& _Grow(_Num = this->_Mysize + _Count - _N0))
; 1471 : 			{	// make room and rearrange
; 1472 : 			if (_N0 < _Count)
; 1473 : 				_Traits::move(this->_Myptr() + _Off + _Count,
; 1474 : 					this->_Myptr() + _Off + _N0, _Nm);	// move tail down
; 1475 : 			_Traits::copy(this->_Myptr() + _Off, _Ptr, _Count);	// fill hole
; 1476 : 			_Eos(_Num);
; 1477 : 			}
; 1478 : 		return (*this);
; 1479 : 		}
; 1480 : 
; 1481 : 	_Myt& replace(size_type _Off, size_type _N0, const _Elem *_Ptr)
; 1482 : 		{	// replace [_Off, _Off + _N0) with [_Ptr, <null>)
; 1483 : 		_DEBUG_POINTER(_Ptr);
; 1484 : 		return (replace(_Off, _N0, _Ptr, _Traits::length(_Ptr)));
; 1485 : 		}
; 1486 : 
; 1487 : 	_Myt& replace(size_type _Off,
; 1488 : 		size_type _N0, size_type _Count, _Elem _Ch)
; 1489 : 		{	// replace [_Off, _Off + _N0) with _Count * _Ch
; 1490 : 		if (this->_Mysize < _Off)
; 1491 : 			_Xran();	// _Off off end
; 1492 : 		if (this->_Mysize - _Off < _N0)
; 1493 : 			_N0 = this->_Mysize - _Off;	// trim _N0 to size
; 1494 : 		if (npos - _Count <= this->_Mysize - _N0)
; 1495 : 			_Xlen();	// result too long
; 1496 : 		size_type _Nm = this->_Mysize - _N0 - _Off;
; 1497 : 
; 1498 : 		if (_Count < _N0)
; 1499 : 			_Traits::move(this->_Myptr() + _Off + _Count,
; 1500 : 				this->_Myptr() + _Off + _N0,
; 1501 : 				_Nm);	// smaller hole, move tail up
; 1502 : 		size_type _Num;
; 1503 : 		if ((0 < _Count || 0 < _N0)
; 1504 : 			&& _Grow(_Num = this->_Mysize + _Count - _N0))
; 1505 : 			{	// make room and rearrange
; 1506 : 			if (_N0 < _Count)
; 1507 : 				_Traits::move(this->_Myptr() + _Off + _Count,
; 1508 : 					this->_Myptr() + _Off + _N0, _Nm);	// move tail down
; 1509 : 			_Chassign(_Off, _Count, _Ch);	// fill hole
; 1510 : 			_Eos(_Num);
; 1511 : 			}
; 1512 : 		return (*this);
; 1513 : 		}
; 1514 : 
; 1515 : 	_Myt& replace(const_iterator _First, const_iterator _Last,
; 1516 : 		const _Myt& _Right)
; 1517 : 		{	// replace [_First, _Last) with _Right
; 1518 : 		return (replace(
; 1519 : 			_Pdif(_First, begin()), _Pdif(_Last, _First), _Right));
; 1520 : 		}
; 1521 : 
; 1522 : 	_Myt& replace(const_iterator _First, const_iterator _Last,
; 1523 : 		const _Elem *_Ptr, size_type _Count)
; 1524 : 		{	// replace [_First, _Last) with [_Ptr, _Ptr + _Count)
; 1525 : 		return (replace(
; 1526 : 			_Pdif(_First, begin()), _Pdif(_Last, _First), _Ptr, _Count));
; 1527 : 		}
; 1528 : 
; 1529 : 	_Myt& replace(const_iterator _First, const_iterator _Last,
; 1530 : 		const _Elem *_Ptr)
; 1531 : 		{	// replace [_First, _Last) with [_Ptr, <null>)
; 1532 : 		return (replace(
; 1533 : 			_Pdif(_First, begin()), _Pdif(_Last, _First), _Ptr));
; 1534 : 		}
; 1535 : 
; 1536 : 	_Myt& replace(const_iterator _First, const_iterator _Last,
; 1537 : 		size_type _Count, _Elem _Ch)
; 1538 : 		{	// replace [_First, _Last) with _Count * _Ch
; 1539 : 		return (replace(
; 1540 : 			_Pdif(_First, begin()), _Pdif(_Last, _First), _Count, _Ch));
; 1541 : 		}
; 1542 : 
; 1543 : 	template<class _Iter>
; 1544 : 		typename enable_if<_Is_iterator<_Iter>::value,
; 1545 : 			_Myt&>::type
; 1546 : 		replace(const_iterator _First, const_iterator _Last,
; 1547 : 			_Iter _First2, _Iter _Last2)
; 1548 : 		{	// replace [_First, _Last) with [_First2, _Last2), input iterators
; 1549 : 		_Myt _Right(_First2, _Last2);
; 1550 : 		replace(_First, _Last, _Right);
; 1551 : 		return (*this);
; 1552 : 		}
; 1553 : 
; 1554 : 	_Myt& replace(const_iterator _First, const_iterator _Last,
; 1555 : 		const_pointer _First2, const_pointer _Last2)
; 1556 : 		{	// replace [_First, _Last) with [_First2, _Last2), const pointers
; 1557 : 		if (_First2 == _Last2)
; 1558 : 			erase(_Pdif(_First, begin()), _Pdif(_Last, _First));
; 1559 : 		else
; 1560 : 			replace(_Pdif(_First, begin()), _Pdif(_Last, _First),
; 1561 : 				&*_First2, _Last2 - _First2);
; 1562 : 		return (*this);
; 1563 : 		}
; 1564 : 
; 1565 : 	_Myt& replace(const_iterator _First, const_iterator _Last,
; 1566 : 		pointer _First2, pointer _Last2)
; 1567 : 		{	// replace [_First, _Last) with [_First2, _Last2), const pointers
; 1568 : 		if (_First2 == _Last2)
; 1569 : 			erase(_Pdif(_First, begin()), _Pdif(_Last, _First));
; 1570 : 		else
; 1571 : 			replace(_Pdif(_First, begin()), _Pdif(_Last, _First),
; 1572 : 				&*_First2, _Last2 - _First2);
; 1573 : 		return (*this);
; 1574 : 		}
; 1575 : 
; 1576 : 	_Myt& replace(const_iterator _First, const_iterator _Last,
; 1577 : 		const_iterator _First2, const_iterator _Last2)
; 1578 : 		{	// replace [_First, _Last) with [_First2, _Last2), const_iterators
; 1579 : 		if (_First2 == _Last2)
; 1580 : 			erase(_Pdif(_First, begin()), _Pdif(_Last, _First));
; 1581 : 		else
; 1582 : 			replace(_Pdif(_First, begin()), _Pdif(_Last, _First),
; 1583 : 				&*_First2, _Last2 - _First2);
; 1584 : 		return (*this);
; 1585 : 		}
; 1586 : 
; 1587 : 	_Myt& replace(const_iterator _First, const_iterator _Last,
; 1588 : 		iterator _First2, iterator _Last2)
; 1589 : 		{	// replace [_First, _Last) with [_First2, _Last2), const_iterators
; 1590 : 		if (_First2 == _Last2)
; 1591 : 			erase(_Pdif(_First, begin()), _Pdif(_Last, _First));
; 1592 : 		else
; 1593 : 			replace(_Pdif(_First, begin()), _Pdif(_Last, _First),
; 1594 : 				&*_First2, _Last2 - _First2);
; 1595 : 		return (*this);
; 1596 : 		}
; 1597 : 
; 1598 : 	iterator begin() _NOEXCEPT
; 1599 : 		{	// return iterator for beginning of mutable sequence
; 1600 : 		return (_STRING_ITERATOR(this->_Myptr()));
; 1601 : 		}
; 1602 : 
; 1603 : 	const_iterator begin() const _NOEXCEPT
; 1604 : 		{	// return iterator for beginning of nonmutable sequence
; 1605 : 		return (_STRING_CONST_ITERATOR(this->_Myptr()));
; 1606 : 		}
; 1607 : 
; 1608 : 	iterator end() _NOEXCEPT
; 1609 : 		{	// return iterator for end of mutable sequence
; 1610 : 		return (_STRING_ITERATOR(this->_Myptr() + this->_Mysize));
; 1611 : 		}
; 1612 : 
; 1613 : 	const_iterator end() const _NOEXCEPT
; 1614 : 		{	// return iterator for end of nonmutable sequence
; 1615 : 		return (_STRING_CONST_ITERATOR(this->_Myptr() + this->_Mysize));
; 1616 : 		}
; 1617 : 
; 1618 : 	reverse_iterator rbegin() _NOEXCEPT
; 1619 : 		{	// return iterator for beginning of reversed mutable sequence
; 1620 : 		return (reverse_iterator(end()));
; 1621 : 		}
; 1622 : 
; 1623 : 	const_reverse_iterator rbegin() const _NOEXCEPT
; 1624 : 		{	// return iterator for beginning of reversed nonmutable sequence
; 1625 : 		return (const_reverse_iterator(end()));
; 1626 : 		}
; 1627 : 
; 1628 : 	reverse_iterator rend() _NOEXCEPT
; 1629 : 		{	// return iterator for end of reversed mutable sequence
; 1630 : 		return (reverse_iterator(begin()));
; 1631 : 		}
; 1632 : 
; 1633 : 	const_reverse_iterator rend() const _NOEXCEPT
; 1634 : 		{	// return iterator for end of reversed nonmutable sequence
; 1635 : 		return (const_reverse_iterator(begin()));
; 1636 : 		}
; 1637 : 
; 1638 : 	const_iterator cbegin() const _NOEXCEPT
; 1639 : 		{	// return iterator for beginning of nonmutable sequence
; 1640 : 		return (((const _Myt *)this)->begin());
; 1641 : 		}
; 1642 : 
; 1643 : 	const_iterator cend() const _NOEXCEPT
; 1644 : 		{	// return iterator for end of nonmutable sequence
; 1645 : 		return (((const _Myt *)this)->end());
; 1646 : 		}
; 1647 : 
; 1648 : 	const_reverse_iterator crbegin() const _NOEXCEPT
; 1649 : 		{	// return iterator for beginning of reversed nonmutable sequence
; 1650 : 		return (((const _Myt *)this)->rbegin());
; 1651 : 		}
; 1652 : 
; 1653 : 	const_reverse_iterator crend() const _NOEXCEPT
; 1654 : 		{	// return iterator for end of reversed nonmutable sequence
; 1655 : 		return (((const _Myt *)this)->rend());
; 1656 : 		}
; 1657 : 
; 1658 : 	void shrink_to_fit()
; 1659 : 		{	// reduce capacity
; 1660 : 		if ((size() | this->_ALLOC_MASK) < capacity())
; 1661 : 			{	// worth shrinking, do it
; 1662 : 			_Myt _Tmp(*this);
; 1663 : 			swap(_Tmp);
; 1664 : 			}
; 1665 : 		}
; 1666 : 
; 1667 : 	reference at(size_type _Off)
; 1668 : 		{	// subscript mutable sequence with checking
; 1669 : 		if (this->_Mysize <= _Off)
; 1670 : 			_Xran();	// _Off off end
; 1671 : 		return (this->_Myptr()[_Off]);
; 1672 : 		}
; 1673 : 
; 1674 : 	const_reference at(size_type _Off) const
; 1675 : 		{	// subscript nonmutable sequence with checking
; 1676 : 		if (this->_Mysize <= _Off)
; 1677 : 			_Xran();	// _Off off end
; 1678 : 		return (this->_Myptr()[_Off]);
; 1679 : 		}
; 1680 : 
; 1681 : 	reference operator[](size_type _Off)
; 1682 : 		{	// subscript mutable sequence
; 1683 :  #if _ITERATOR_DEBUG_LEVEL == 2
; 1684 : 		if (this->_Mysize < _Off)	// sic
; 1685 : 			_DEBUG_ERROR("string subscript out of range");
; 1686 : 
; 1687 :  #elif _ITERATOR_DEBUG_LEVEL == 1
; 1688 : 		_SCL_SECURE_VALIDATE_RANGE(_Off <= this->_Mysize);	// sic
; 1689 :  #endif /* _ITERATOR_DEBUG_LEVEL == 2 */
; 1690 : 
; 1691 : 		return (this->_Myptr()[_Off]);
; 1692 : 		}
; 1693 : 
; 1694 : 	const_reference operator[](size_type _Off) const
; 1695 : 		{	// subscript nonmutable sequence
; 1696 :  #if _ITERATOR_DEBUG_LEVEL == 2
; 1697 : 		if (this->_Mysize < _Off)	// sic
; 1698 : 			_DEBUG_ERROR("string subscript out of range");
; 1699 : 
; 1700 :  #elif _ITERATOR_DEBUG_LEVEL == 1
; 1701 : 		_SCL_SECURE_VALIDATE_RANGE(_Off <= this->_Mysize);	// sic
; 1702 :  #endif /* _ITERATOR_DEBUG_LEVEL == 2 */
; 1703 : 
; 1704 : 		return (this->_Myptr()[_Off]);
; 1705 : 		}
; 1706 : 
; 1707 : 	void push_back(_Elem _Ch)
; 1708 : 		{	// insert element at end
; 1709 : 		insert(end(), _Ch);
; 1710 : 		}
; 1711 : 
; 1712 : 	void pop_back()
; 1713 : 		{	// erase element at end
; 1714 : 		erase(this->_Mysize - 1);	// throws if _Mysize == 0
; 1715 : 		}
; 1716 : 
; 1717 : 	reference front()
; 1718 : 		{	// return first element of mutable sequence
; 1719 : 		return (*begin());
; 1720 : 		}
; 1721 : 
; 1722 : 	const_reference front() const
; 1723 : 		{	// return first element of nonmutable sequence
; 1724 : 		return (*begin());
; 1725 : 		}
; 1726 : 
; 1727 : 	reference back()
; 1728 : 		{	// return last element of mutable sequence
; 1729 : 		return (*(end() - 1));
; 1730 : 		}
; 1731 : 
; 1732 : 	const_reference back() const
; 1733 : 		{	// return last element of nonmutable sequence
; 1734 : 		return (*(end() - 1));
; 1735 : 		}
; 1736 : 
; 1737 : 	const _Elem *c_str() const _NOEXCEPT
; 1738 : 		{	// return pointer to null-terminated nonmutable array
; 1739 : 		return (this->_Myptr());
; 1740 : 		}
; 1741 : 
; 1742 : 	const _Elem *data() const _NOEXCEPT
; 1743 : 		{	// return pointer to nonmutable array
; 1744 : 		return (c_str());
; 1745 : 		}
; 1746 : 
; 1747 : 	size_type length() const _NOEXCEPT
; 1748 : 		{	// return length of sequence
; 1749 : 		return (this->_Mysize);
; 1750 : 		}
; 1751 : 
; 1752 : 	size_type size() const _NOEXCEPT
; 1753 : 		{	// return length of sequence
; 1754 : 		return (this->_Mysize);
; 1755 : 		}
; 1756 : 
; 1757 : 	size_type max_size() const _NOEXCEPT
; 1758 : 		{	// return maximum possible length of sequence
; 1759 : 		size_type _Num = this->_Getal().max_size();
; 1760 : 		return (_Num <= 1 ? 1 : _Num - 1);
; 1761 : 		}
; 1762 : 
; 1763 : 	void resize(size_type _Newsize)
; 1764 : 		{	// determine new length, padding with null elements as needed
; 1765 : 		resize(_Newsize, _Elem());
; 1766 : 		}
; 1767 : 
; 1768 : 	void resize(size_type _Newsize, _Elem _Ch)
; 1769 : 		{	// determine new length, padding with _Ch elements as needed
; 1770 : 		if (_Newsize <= this->_Mysize)
; 1771 : 			_Eos(_Newsize);
; 1772 : 		else
; 1773 : 			append(_Newsize - this->_Mysize, _Ch);
; 1774 : 		}
; 1775 : 
; 1776 : 	size_type capacity() const _NOEXCEPT
; 1777 : 		{	// return current length of allocated storage
; 1778 : 		return (this->_Myres);
; 1779 : 		}
; 1780 : 
; 1781 : 	void reserve(size_type _Newcap = 0)
; 1782 : 		{	// determine new minimum length of allocated storage
; 1783 : 		if (this->_Mysize <= _Newcap && this->_Myres != _Newcap)
; 1784 : 			{	// change reservation
; 1785 : 			size_type _Size = this->_Mysize;
; 1786 : 			if (_Grow(_Newcap, true))
; 1787 : 				_Eos(_Size);
; 1788 : 			}
; 1789 : 		}
; 1790 : 
; 1791 : 	bool empty() const _NOEXCEPT
; 1792 : 		{	// test if sequence is empty
; 1793 : 		return (this->_Mysize == 0);
; 1794 : 		}
; 1795 : 
; 1796 : 	_SCL_INSECURE_DEPRECATE
; 1797 : 
; 1798 : 	size_type copy(_Elem *_Ptr,
; 1799 : 		size_type _Count, size_type _Off = 0) const
; 1800 : 		{	// copy [_Off, _Off + _Count) to [_Ptr, _Ptr + _Count)
; 1801 :  #if _ITERATOR_DEBUG_LEVEL == 2
; 1802 : 		if (_Count != 0)
; 1803 : 			_DEBUG_POINTER(_Ptr);
; 1804 :  #endif /* _ITERATOR_DEBUG_LEVEL == 2 */
; 1805 : 
; 1806 : 		if (this->_Mysize < _Off)
; 1807 : 			_Xran();	// _Off off end
; 1808 : 		if (this->_Mysize - _Off < _Count)
; 1809 : 			_Count = this->_Mysize - _Off;
; 1810 : 		_Traits::copy(_Ptr, this->_Myptr() + _Off, _Count);
; 1811 : 		return (_Count);
; 1812 : 		}
; 1813 : 
; 1814 : 	size_type _Copy_s(_Elem *_Dest, size_type _Dest_size,
; 1815 : 		size_type _Count, size_type _Off = 0) const
; 1816 : 		{	// copy [_Off, _Off + _Count) to [_Dest, _Dest + _Count)
; 1817 :  #if _ITERATOR_DEBUG_LEVEL == 2
; 1818 : 		if (_Count != 0)
; 1819 : 			_DEBUG_POINTER(_Dest);
; 1820 :  #endif /* _ITERATOR_DEBUG_LEVEL == 2 */
; 1821 : 
; 1822 : 		if (this->_Mysize < _Off)
; 1823 : 			_Xran();	// _Off off end
; 1824 : 		if (this->_Mysize - _Off < _Count)
; 1825 : 			_Count = this->_Mysize - _Off;
; 1826 : 		_Traits::_Copy_s(_Dest, _Dest_size, this->_Myptr() + _Off, _Count);
; 1827 : 		return (_Count);
; 1828 : 		}
; 1829 : 
; 1830 : 	void _Swap_bx(_Myt& _Right)
; 1831 : 		{	// exchange _Bx with _Right._Bx
; 1832 : 		if (this->_BUF_SIZE <= this->_Myres)
; 1833 : 			if (this->_BUF_SIZE <= _Right._Myres)
; 1834 : 				_Swap_adl(this->_Bx._Ptr, _Right._Bx._Ptr);
; 1835 : 			else
; 1836 : 				{	// swap large with small
; 1837 : 				pointer _Ptr = this->_Bx._Ptr;
; 1838 : 				this->_Getal().destroy(&this->_Bx._Ptr);
; 1839 : 				_Traits::copy(this->_Bx._Buf,
; 1840 : 					_Right._Bx._Buf, _Right._Mysize + 1);
; 1841 : 				this->_Getal().construct(&_Right._Bx._Ptr, _Ptr);
; 1842 : 				}
; 1843 : 		else
; 1844 : 			if (_Right._Myres < this->_BUF_SIZE)
; 1845 : 				_STD swap(this->_Bx._Buf, _Right._Bx._Buf);
; 1846 : 			else
; 1847 : 				{	// swap small with large
; 1848 : 				pointer _Ptr = _Right._Bx._Ptr;
; 1849 : 				this->_Getal().destroy(&_Right._Bx._Ptr);
; 1850 : 				_Traits::copy(_Right._Bx._Buf,
; 1851 : 					this->_Bx._Buf, this->_Mysize + 1);
; 1852 : 				this->_Getal().construct(&this->_Bx._Ptr, _Ptr);
; 1853 : 				}
; 1854 : 		}
; 1855 : 
; 1856 : 	void swap(_Myt& _Right)
; 1857 : 		{	// exchange contents with _Right
; 1858 : 		if (this == &_Right)
; 1859 : 			;	// same object, do nothing
; 1860 : 		else if (this->_Getal() == _Right._Getal())
; 1861 : 			{	// same allocator, swap control information
; 1862 : 			this->_Swap_all(_Right);
; 1863 : 			_Swap_bx(_Right);
; 1864 : 			_STD swap(this->_Mysize, _Right._Mysize);
; 1865 : 			_STD swap(this->_Myres, _Right._Myres);
; 1866 : 			}
; 1867 : 
; 1868 : 		else if (_Alty::propagate_on_container_swap::value)
; 1869 : 			{	// swap allocators and control information
; 1870 : 			this->_Swap_alloc(_Right);
; 1871 : 			_Swap_bx(_Right);
; 1872 : 			_STD swap(this->_Bx, _Right._Bx);	// pointer bitwise copyable?
; 1873 : 			_STD swap(this->_Mysize, _Right._Mysize);
; 1874 : 			_STD swap(this->_Myres, _Right._Myres);
; 1875 : 			}
; 1876 : 
; 1877 : 		else
; 1878 : 			{	// different allocator, do multiple assigns
; 1879 : 			_Myt _Tmp = *this;
; 1880 : 
; 1881 : 			*this = _Right;
; 1882 : 			_Right = _Tmp;
; 1883 : 			}
; 1884 : 		}
; 1885 : 
; 1886 : 	size_type find(const _Myt& _Right, size_type _Off = 0) const _NOEXCEPT
; 1887 : 		{	// look for _Right beginning at or after _Off
; 1888 : 		return (find(_Right._Myptr(), _Off, _Right.size()));
; 1889 : 		}
; 1890 : 
; 1891 : 	size_type find(const _Elem *_Ptr,
; 1892 : 		size_type _Off, size_type _Count) const
; 1893 : 		{	// look for [_Ptr, _Ptr + _Count) beginning at or after _Off
; 1894 :  #if _ITERATOR_DEBUG_LEVEL == 2
; 1895 : 		if (_Count != 0)
; 1896 : 			_DEBUG_POINTER(_Ptr);
; 1897 :  #endif /* _ITERATOR_DEBUG_LEVEL == 2 */
; 1898 : 
; 1899 : 		if (_Count == 0 && _Off <= this->_Mysize)
; 1900 : 			return (_Off);	// null string always matches (if inside string)
; 1901 : 
; 1902 : 		size_type _Nm;
; 1903 : 		if (_Off < this->_Mysize && _Count <= (_Nm = this->_Mysize - _Off))
; 1904 : 			{	// room for match, look for it
; 1905 : 			const _Elem *_Uptr, *_Vptr;
; 1906 : 			for (_Nm -= _Count - 1, _Vptr = this->_Myptr() + _Off;
; 1907 : 				(_Uptr = _Traits::find(_Vptr, _Nm, *_Ptr)) != 0;
; 1908 : 				_Nm -= _Uptr - _Vptr + 1, _Vptr = _Uptr + 1)
; 1909 : 				if (_Traits::compare(_Uptr, _Ptr, _Count) == 0)
; 1910 : 					return (_Uptr - this->_Myptr());	// found a match
; 1911 : 			}
; 1912 : 
; 1913 : 		return (npos);	// no match
; 1914 : 		}
; 1915 : 
; 1916 : 	size_type find(const _Elem *_Ptr, size_type _Off = 0) const
; 1917 : 		{	// look for [_Ptr, <null>) beginning at or after _Off
; 1918 : 		_DEBUG_POINTER(_Ptr);
; 1919 : 		return (find(_Ptr, _Off, _Traits::length(_Ptr)));
; 1920 : 		}
; 1921 : 
; 1922 : 	size_type find(_Elem _Ch, size_type _Off = 0) const
; 1923 : 		{	// look for _Ch at or after _Off
; 1924 : 		return (find((const _Elem *)&_Ch, _Off, 1));
; 1925 : 		}
; 1926 : 
; 1927 : 	size_type rfind(const _Myt& _Right, size_type _Off = npos) const _NOEXCEPT
; 1928 : 		{	// look for _Right beginning before _Off
; 1929 : 		return (rfind(_Right._Myptr(), _Off, _Right.size()));
; 1930 : 		}
; 1931 : 
; 1932 : 	size_type rfind(const _Elem *_Ptr,
; 1933 : 		size_type _Off, size_type _Count) const
; 1934 : 		{	// look for [_Ptr, _Ptr + _Count) beginning before _Off
; 1935 :  #if _ITERATOR_DEBUG_LEVEL == 2
; 1936 : 		if (_Count != 0)
; 1937 : 			_DEBUG_POINTER(_Ptr);
; 1938 :  #endif /* _ITERATOR_DEBUG_LEVEL == 2 */
; 1939 : 
; 1940 : 		if (_Count == 0)
; 1941 : 			return (_Off < this->_Mysize ? _Off
; 1942 : 				: this->_Mysize);	// null always matches
; 1943 : 		if (_Count <= this->_Mysize)
; 1944 : 			{	// room for match, look for it
; 1945 : 			const _Elem *_Uptr = this->_Myptr() +
; 1946 : 				(_Off < this->_Mysize - _Count ? _Off
; 1947 : 					: this->_Mysize - _Count);
; 1948 : 			for (; ; --_Uptr)
; 1949 : 				if (_Traits::eq(*_Uptr, *_Ptr)
; 1950 : 					&& _Traits::compare(_Uptr, _Ptr, _Count) == 0)
; 1951 : 					return (_Uptr - this->_Myptr());	// found a match
; 1952 : 				else if (_Uptr == this->_Myptr())
; 1953 : 					break;	// at beginning, no more chance for match
; 1954 : 			}
; 1955 : 
; 1956 : 		return (npos);	// no match
; 1957 : 		}
; 1958 : 
; 1959 : 	size_type rfind(const _Elem *_Ptr, size_type _Off = npos) const
; 1960 : 		{	// look for [_Ptr, <null>) beginning before _Off
; 1961 : 		_DEBUG_POINTER(_Ptr);
; 1962 : 		return (rfind(_Ptr, _Off, _Traits::length(_Ptr)));
; 1963 : 		}
; 1964 : 
; 1965 : 	size_type rfind(_Elem _Ch, size_type _Off = npos) const
; 1966 : 		{	// look for _Ch before _Off
; 1967 : 		return (rfind((const _Elem *)&_Ch, _Off, 1));
; 1968 : 		}
; 1969 : 
; 1970 : 	size_type find_first_of(const _Myt& _Right,
; 1971 : 		size_type _Off = 0) const _NOEXCEPT
; 1972 : 		{	// look for one of _Right at or after _Off
; 1973 : 		return (find_first_of(_Right._Myptr(), _Off, _Right.size()));
; 1974 : 		}
; 1975 : 
; 1976 : 	size_type find_first_of(const _Elem *_Ptr,
; 1977 : 		size_type _Off, size_type _Count) const
; 1978 : 		{	// look for one of [_Ptr, _Ptr + _Count) at or after _Off
; 1979 :  #if _ITERATOR_DEBUG_LEVEL == 2
; 1980 : 		if (_Count != 0)
; 1981 : 			_DEBUG_POINTER(_Ptr);
; 1982 :  #endif /* _ITERATOR_DEBUG_LEVEL == 2 */
; 1983 : 
; 1984 : 		if (0 < _Count && _Off < this->_Mysize)
; 1985 : 			{	// room for match, look for it
; 1986 : 			const _Elem *const _Vptr = this->_Myptr() + this->_Mysize;
; 1987 : 			for (const _Elem *_Uptr = this->_Myptr() + _Off;
; 1988 : 				_Uptr < _Vptr; ++_Uptr)
; 1989 : 				if (_Traits::find(_Ptr, _Count, *_Uptr) != 0)
; 1990 : 					return (_Uptr - this->_Myptr());	// found a match
; 1991 : 			}
; 1992 : 
; 1993 : 		return (npos);	// no match
; 1994 : 		}
; 1995 : 
; 1996 : 	size_type find_first_of(const _Elem *_Ptr,
; 1997 : 		size_type _Off = 0) const
; 1998 : 		{	// look for one of [_Ptr, <null>) at or after _Off
; 1999 : 		_DEBUG_POINTER(_Ptr);
; 2000 : 		return (find_first_of(_Ptr, _Off, _Traits::length(_Ptr)));
; 2001 : 		}
; 2002 : 
; 2003 : 	size_type find_first_of(_Elem _Ch,
; 2004 : 		size_type _Off = 0) const
; 2005 : 		{	// look for _Ch at or after _Off
; 2006 : 		return (find((const _Elem *)&_Ch, _Off, 1));
; 2007 : 		}
; 2008 : 
; 2009 : 	size_type find_last_of(const _Myt& _Right,
; 2010 : 		size_type _Off = npos) const _NOEXCEPT
; 2011 : 		{	// look for one of _Right before _Off
; 2012 : 		return (find_last_of(_Right._Myptr(), _Off, _Right.size()));
; 2013 : 		}
; 2014 : 
; 2015 : 	size_type find_last_of(const _Elem *_Ptr,
; 2016 : 		size_type _Off, size_type _Count) const
; 2017 : 		{	// look for one of [_Ptr, _Ptr + _Count) before _Off
; 2018 :  #if _ITERATOR_DEBUG_LEVEL == 2
; 2019 : 		if (_Count != 0)
; 2020 : 			_DEBUG_POINTER(_Ptr);
; 2021 :  #endif /* _ITERATOR_DEBUG_LEVEL == 2 */
; 2022 : 
; 2023 : 		if (0 < _Count && 0 < this->_Mysize)
; 2024 : 			{	// worth searching, do it
; 2025 : 			const _Elem *_Uptr = this->_Myptr()
; 2026 : 				+ (_Off < this->_Mysize ? _Off : this->_Mysize - 1);
; 2027 : 			for (; ; --_Uptr)
; 2028 : 				if (_Traits::find(_Ptr, _Count, *_Uptr) != 0)
; 2029 : 					return (_Uptr - this->_Myptr());	// found a match
; 2030 : 				else if (_Uptr == this->_Myptr())
; 2031 : 					break;	// at beginning, no more chance for match
; 2032 : 			}
; 2033 : 
; 2034 : 		return (npos);	// no match
; 2035 : 		}
; 2036 : 
; 2037 : 	size_type find_last_of(const _Elem *_Ptr,
; 2038 : 		size_type _Off = npos) const
; 2039 : 		{	// look for one of [_Ptr, <null>) before _Off
; 2040 : 		_DEBUG_POINTER(_Ptr);
; 2041 : 		return (find_last_of(_Ptr, _Off, _Traits::length(_Ptr)));
; 2042 : 		}
; 2043 : 
; 2044 : 	size_type find_last_of(_Elem _Ch,
; 2045 : 		size_type _Off = npos) const
