; Listing generated by Microsoft (R) Optimizing Compiler Version 18.00.40629.0 

	TITLE	D:\Metin2\Metin2\client_source_clean\client_source_clean\source\UserInterface\PythonApplicationEvent.cpp
	.686P
	.XMM
	include listing.inc
	.model	flat

INCLUDELIB OLDNAMES

PUBLIC	??_C@_04INACLLOK@?$CIii?$CJ?$AA@		; `string'
PUBLIC	??_C@_06LMAGPFNF@Update?$AA@			; `string'
PUBLIC	??_C@_06EPLDPNDB@Render?$AA@			; `string'
EXTRN	?RunPressExitKey@CWindowManager@UI@@QAEXXZ:PROC	; UI::CWindowManager::RunPressExitKey
EXTRN	?RunOpenReading@CWindowManager@UI@@QAEXXZ:PROC	; UI::CWindowManager::RunOpenReading
EXTRN	?RunCloseReading@CWindowManager@UI@@QAEXXZ:PROC	; UI::CWindowManager::RunCloseReading
EXTRN	?RunOpenCandidate@CWindowManager@UI@@QAEXXZ:PROC ; UI::CWindowManager::RunOpenCandidate
EXTRN	?RunCloseCandidate@CWindowManager@UI@@QAEXXZ:PROC ; UI::CWindowManager::RunCloseCandidate
EXTRN	?RunIMEKeyDown@CWindowManager@UI@@QAEXH@Z:PROC	; UI::CWindowManager::RunIMEKeyDown
EXTRN	?RunChangeCodePage@CWindowManager@UI@@QAEXXZ:PROC ; UI::CWindowManager::RunChangeCodePage
EXTRN	?RunIMETabEvent@CWindowManager@UI@@QAEXXZ:PROC	; UI::CWindowManager::RunIMETabEvent
EXTRN	?RunIMEReturnEvent@CWindowManager@UI@@QAEXXZ:PROC ; UI::CWindowManager::RunIMEReturnEvent
EXTRN	?RunKeyUp@CWindowManager@UI@@QAEXH@Z:PROC	; UI::CWindowManager::RunKeyUp
EXTRN	?RunIMEUpdate@CWindowManager@UI@@QAEXXZ:PROC	; UI::CWindowManager::RunIMEUpdate
EXTRN	?RunPressEscapeKey@CWindowManager@UI@@QAEXXZ:PROC ; UI::CWindowManager::RunPressEscapeKey
EXTRN	?RunKeyDown@CWindowManager@UI@@QAEXH@Z:PROC	; UI::CWindowManager::RunKeyDown
EXTRN	?RunMouseRightButtonDown@CWindowManager@UI@@QAEXJJ@Z:PROC ; UI::CWindowManager::RunMouseRightButtonDown
EXTRN	?RunMouseRightButtonUp@CWindowManager@UI@@QAEXJJ@Z:PROC ; UI::CWindowManager::RunMouseRightButtonUp
EXTRN	?RunMouseLeftButtonUp@CWindowManager@UI@@QAEXJJ@Z:PROC ; UI::CWindowManager::RunMouseLeftButtonUp
EXTRN	?RunMouseLeftButtonDoubleClick@CWindowManager@UI@@QAEXJJ@Z:PROC ; UI::CWindowManager::RunMouseLeftButtonDoubleClick
EXTRN	?RunMouseMove@CWindowManager@UI@@QAEXJJ@Z:PROC	; UI::CWindowManager::RunMouseMove
EXTRN	?RunMouseLeftButtonDown@CWindowManager@UI@@QAEXJJ@Z:PROC ; UI::CWindowManager::RunMouseLeftButtonDown
EXTRN	?SetResolution@CWindowManager@UI@@QAEXHH@Z:PROC	; UI::CWindowManager::SetResolution
EXTRN	__imp__SetCursorPos@8:PROC
EXTRN	?Wheel@CCamera@@QAEXH@Z:PROC			; CCamera::Wheel
EXTRN	?Drag@CCamera@@QAE_NHHPAUtagPOINT@@@Z:PROC	; CCamera::Drag
EXTRN	?EndDrag@CCamera@@QAE_NXZ:PROC			; CCamera::EndDrag
EXTRN	?BeginDrag@CCamera@@QAEXHH@Z:PROC		; CCamera::BeginDrag
EXTRN	?Update@CWindowManager@UI@@QAEXXZ:PROC		; UI::CWindowManager::Update
EXTRN	?Render@CWindowManager@UI@@QAEXXZ:PROC		; UI::CWindowManager::Render
EXTRN	?IsMapReady@CMapManager@@QAE_NXZ:PROC		; CMapManager::IsMapReady
;	COMDAT ??_C@_06EPLDPNDB@Render?$AA@
CONST	SEGMENT
??_C@_06EPLDPNDB@Render?$AA@ DB 'Render', 00H		; `string'
CONST	ENDS
;	COMDAT ??_C@_06LMAGPFNF@Update?$AA@
CONST	SEGMENT
??_C@_06LMAGPFNF@Update?$AA@ DB 'Update', 00H		; `string'
CONST	ENDS
;	COMDAT ??_C@_04INACLLOK@?$CIii?$CJ?$AA@
CONST	SEGMENT
??_C@_04INACLLOK@?$CIii?$CJ?$AA@ DB '(ii)', 00H		; `string'
PUBLIC	?RunPressExitKey@CPythonApplication@@QAEXXZ	; CPythonApplication::RunPressExitKey
PUBLIC	?OnIMEKeyDown@CPythonApplication@@IAEXH@Z	; CPythonApplication::OnIMEKeyDown
PUBLIC	?OnMouseRightButtonUp@CPythonApplication@@IAEXHH@Z ; CPythonApplication::OnMouseRightButtonUp
PUBLIC	?OnMouseRightButtonDown@CPythonApplication@@IAEXHH@Z ; CPythonApplication::OnMouseRightButtonDown
PUBLIC	?OnMouseLeftButtonDoubleClick@CPythonApplication@@IAEXHH@Z ; CPythonApplication::OnMouseLeftButtonDoubleClick
PUBLIC	?OnMouseLeftButtonUp@CPythonApplication@@IAEXHH@Z ; CPythonApplication::OnMouseLeftButtonUp
PUBLIC	?OnMouseLeftButtonDown@CPythonApplication@@IAEXHH@Z ; CPythonApplication::OnMouseLeftButtonDown
PUBLIC	?OnMouseWheel@CPythonApplication@@IAEXH@Z	; CPythonApplication::OnMouseWheel
PUBLIC	?OnMouseMove@CPythonApplication@@IAEXHH@Z	; CPythonApplication::OnMouseMove
PUBLIC	?OnCameraUpdate@CPythonApplication@@IAEXXZ	; CPythonApplication::OnCameraUpdate
PUBLIC	?OnMouseUpdate@CPythonApplication@@IAEXXZ	; CPythonApplication::OnMouseUpdate
PUBLIC	?OnUIUpdate@CPythonApplication@@IAEXXZ		; CPythonApplication::OnUIUpdate
PUBLIC	?OnUIRender@CPythonApplication@@IAEXXZ		; CPythonApplication::OnUIRender
PUBLIC	?OnMouseRender@CPythonApplication@@IAEXXZ	; CPythonApplication::OnMouseRender
PUBLIC	?OnSizeChange@CPythonApplication@@IAEXHH@Z	; CPythonApplication::OnSizeChange
PUBLIC	?OnKeyDown@CPythonApplication@@MAEXH@Z		; CPythonApplication::OnKeyDown
PUBLIC	?OnKeyUp@CPythonApplication@@MAEXH@Z		; CPythonApplication::OnKeyUp
PUBLIC	?RunIMEUpdate@CPythonApplication@@UAEXXZ	; CPythonApplication::RunIMEUpdate
PUBLIC	?RunIMETabEvent@CPythonApplication@@UAEXXZ	; CPythonApplication::RunIMETabEvent
PUBLIC	?RunIMEReturnEvent@CPythonApplication@@UAEXXZ	; CPythonApplication::RunIMEReturnEvent
PUBLIC	?RunIMEChangeCodePage@CPythonApplication@@UAEXXZ ; CPythonApplication::RunIMEChangeCodePage
PUBLIC	?RunIMEOpenCandidateListEvent@CPythonApplication@@UAEXXZ ; CPythonApplication::RunIMEOpenCandidateListEvent
PUBLIC	?RunIMECloseCandidateListEvent@CPythonApplication@@UAEXXZ ; CPythonApplication::RunIMECloseCandidateListEvent
PUBLIC	?RunIMEOpenReadingWndEvent@CPythonApplication@@UAEXXZ ; CPythonApplication::RunIMEOpenReadingWndEvent
PUBLIC	?RunIMECloseReadingWndEvent@CPythonApplication@@UAEXXZ ; CPythonApplication::RunIMECloseReadingWndEvent
	ALIGN	4

_piecewise_construct DB 01H DUP (?)
_BSS	ENDS
; Function compile flags: /Ogtp
; File d:\metin2\metin2\client_source_clean\client_source_clean\source\userinterface\pythonapplicationevent.cpp
;	COMDAT ?RunIMECloseReadingWndEvent@CPythonApplication@@UAEXXZ
_TEXT	SEGMENT
?RunIMECloseReadingWndEvent@CPythonApplication@@UAEXXZ PROC ; CPythonApplication::RunIMECloseReadingWndEvent, COMDAT
; _this$ = ecx

; 192  : 	UI::CWindowManager& rkWndMgr=UI::CWindowManager::Instance();
; 193  : 	rkWndMgr.RunCloseReading();

  00000	8b 0d 00 00 00
	00		 mov	 ecx, DWORD PTR ?ms_singleton@?$CSingleton@VCWindowManager@UI@@@@0PAVCWindowManager@UI@@A ; CSingleton<UI::CWindowManager>::ms_singleton
  00006	e9 00 00 00 00	 jmp	 ?RunCloseReading@CWindowManager@UI@@QAEXXZ ; UI::CWindowManager::RunCloseReading
?RunIMECloseReadingWndEvent@CPythonApplication@@UAEXXZ ENDP ; CPythonApplication::RunIMECloseReadingWndEvent
_TEXT	ENDS
; Function compile flags: /Ogtp
; File d:\metin2\metin2\client_source_clean\client_source_clean\source\userinterface\pythonapplicationevent.cpp
;	COMDAT ?RunIMEOpenReadingWndEvent@CPythonApplication@@UAEXXZ
_TEXT	SEGMENT
?RunIMEOpenReadingWndEvent@CPythonApplication@@UAEXXZ PROC ; CPythonApplication::RunIMEOpenReadingWndEvent, COMDAT
; _this$ = ecx

; 187  : 	UI::CWindowManager& rkWndMgr=UI::CWindowManager::Instance();
; 188  : 	rkWndMgr.RunOpenReading();

  00000	8b 0d 00 00 00
	00		 mov	 ecx, DWORD PTR ?ms_singleton@?$CSingleton@VCWindowManager@UI@@@@0PAVCWindowManager@UI@@A ; CSingleton<UI::CWindowManager>::ms_singleton
  00006	e9 00 00 00 00	 jmp	 ?RunOpenReading@CWindowManager@UI@@QAEXXZ ; UI::CWindowManager::RunOpenReading
?RunIMEOpenReadingWndEvent@CPythonApplication@@UAEXXZ ENDP ; CPythonApplication::RunIMEOpenReadingWndEvent
_TEXT	ENDS
; Function compile flags: /Ogtp
; File d:\metin2\metin2\client_source_clean\client_source_clean\source\userinterface\pythonapplicationevent.cpp
;	COMDAT ?RunIMECloseCandidateListEvent@CPythonApplication@@UAEXXZ
_TEXT	SEGMENT
?RunIMECloseCandidateListEvent@CPythonApplication@@UAEXXZ PROC ; CPythonApplication::RunIMECloseCandidateListEvent, COMDAT
; _this$ = ecx

; 182  : 	UI::CWindowManager& rkWndMgr=UI::CWindowManager::Instance();
; 183  : 	rkWndMgr.RunCloseCandidate();

  00000	8b 0d 00 00 00
	00		 mov	 ecx, DWORD PTR ?ms_singleton@?$CSingleton@VCWindowManager@UI@@@@0PAVCWindowManager@UI@@A ; CSingleton<UI::CWindowManager>::ms_singleton
  00006	e9 00 00 00 00	 jmp	 ?RunCloseCandidate@CWindowManager@UI@@QAEXXZ ; UI::CWindowManager::RunCloseCandidate
?RunIMECloseCandidateListEvent@CPythonApplication@@UAEXXZ ENDP ; CPythonApplication::RunIMECloseCandidateListEvent
_TEXT	ENDS
; Function compile flags: /Ogtp
; File d:\metin2\metin2\client_source_clean\client_source_clean\source\userinterface\pythonapplicationevent.cpp
;	COMDAT ?RunIMEOpenCandidateListEvent@CPythonApplication@@UAEXXZ
_TEXT	SEGMENT
?RunIMEOpenCandidateListEvent@CPythonApplication@@UAEXXZ PROC ; CPythonApplication::RunIMEOpenCandidateListEvent, COMDAT
; _this$ = ecx

; 177  : 	UI::CWindowManager& rkWndMgr=UI::CWindowManager::Instance();
; 178  : 	rkWndMgr.RunOpenCandidate();

  00000	8b 0d 00 00 00
	00		 mov	 ecx, DWORD PTR ?ms_singleton@?$CSingleton@VCWindowManager@UI@@@@0PAVCWindowManager@UI@@A ; CSingleton<UI::CWindowManager>::ms_singleton
  00006	e9 00 00 00 00	 jmp	 ?RunOpenCandidate@CWindowManager@UI@@QAEXXZ ; UI::CWindowManager::RunOpenCandidate
?RunIMEOpenCandidateListEvent@CPythonApplication@@UAEXXZ ENDP ; CPythonApplication::RunIMEOpenCandidateListEvent
_TEXT	ENDS
; Function compile flags: /Ogtp
; File d:\metin2\metin2\client_source_clean\client_source_clean\source\userinterface\pythonapplicationevent.cpp
;	COMDAT ?RunIMEChangeCodePage@CPythonApplication@@UAEXXZ
_TEXT	SEGMENT
?RunIMEChangeCodePage@CPythonApplication@@UAEXXZ PROC	; CPythonApplication::RunIMEChangeCodePage, COMDAT
; _this$ = ecx

; 172  : 	UI::CWindowManager& rkWndMgr=UI::CWindowManager::Instance();
; 173  : 	rkWndMgr.RunChangeCodePage();

  00000	8b 0d 00 00 00
	00		 mov	 ecx, DWORD PTR ?ms_singleton@?$CSingleton@VCWindowManager@UI@@@@0PAVCWindowManager@UI@@A ; CSingleton<UI::CWindowManager>::ms_singleton
  00006	e9 00 00 00 00	 jmp	 ?RunChangeCodePage@CWindowManager@UI@@QAEXXZ ; UI::CWindowManager::RunChangeCodePage
?RunIMEChangeCodePage@CPythonApplication@@UAEXXZ ENDP	; CPythonApplication::RunIMEChangeCodePage
_TEXT	ENDS
; Function compile flags: /Ogtp
; File d:\metin2\metin2\client_source_clean\client_source_clean\source\userinterface\pythonapplicationevent.cpp
;	COMDAT ?RunIMEReturnEvent@CPythonApplication@@UAEXXZ
_TEXT	SEGMENT
?RunIMEReturnEvent@CPythonApplication@@UAEXXZ PROC	; CPythonApplication::RunIMEReturnEvent, COMDAT
; _this$ = ecx

; 160  : 	UI::CWindowManager& rkWndMgr=UI::CWindowManager::Instance();
; 161  : 	rkWndMgr.RunIMEReturnEvent();

  00000	8b 0d 00 00 00
	00		 mov	 ecx, DWORD PTR ?ms_singleton@?$CSingleton@VCWindowManager@UI@@@@0PAVCWindowManager@UI@@A ; CSingleton<UI::CWindowManager>::ms_singleton
  00006	e9 00 00 00 00	 jmp	 ?RunIMEReturnEvent@CWindowManager@UI@@QAEXXZ ; UI::CWindowManager::RunIMEReturnEvent
?RunIMEReturnEvent@CPythonApplication@@UAEXXZ ENDP	; CPythonApplication::RunIMEReturnEvent
_TEXT	ENDS
; Function compile flags: /Ogtp
; File d:\metin2\metin2\client_source_clean\client_source_clean\source\userinterface\pythonapplicationevent.cpp
;	COMDAT ?RunIMETabEvent@CPythonApplication@@UAEXXZ
_TEXT	SEGMENT
?RunIMETabEvent@CPythonApplication@@UAEXXZ PROC		; CPythonApplication::RunIMETabEvent, COMDAT
; _this$ = ecx

; 155  : 	UI::CWindowManager& rkWndMgr=UI::CWindowManager::Instance();
; 156  : 	rkWndMgr.RunIMETabEvent();

  00000	8b 0d 00 00 00
	00		 mov	 ecx, DWORD PTR ?ms_singleton@?$CSingleton@VCWindowManager@UI@@@@0PAVCWindowManager@UI@@A ; CSingleton<UI::CWindowManager>::ms_singleton
  00006	e9 00 00 00 00	 jmp	 ?RunIMETabEvent@CWindowManager@UI@@QAEXXZ ; UI::CWindowManager::RunIMETabEvent
?RunIMETabEvent@CPythonApplication@@UAEXXZ ENDP		; CPythonApplication::RunIMETabEvent
_TEXT	ENDS
; Function compile flags: /Ogtp
; File d:\metin2\metin2\client_source_clean\client_source_clean\source\userinterface\pythonapplicationevent.cpp
;	COMDAT ?RunIMEUpdate@CPythonApplication@@UAEXXZ
_TEXT	SEGMENT
?RunIMEUpdate@CPythonApplication@@UAEXXZ PROC		; CPythonApplication::RunIMEUpdate, COMDAT
; _this$ = ecx

; 150  : 	UI::CWindowManager& rkWndMgr=UI::CWindowManager::Instance();
; 151  : 	rkWndMgr.RunIMEUpdate();

  00000	8b 0d 00 00 00
	00		 mov	 ecx, DWORD PTR ?ms_singleton@?$CSingleton@VCWindowManager@UI@@@@0PAVCWindowManager@UI@@A ; CSingleton<UI::CWindowManager>::ms_singleton
  00006	e9 00 00 00 00	 jmp	 ?RunIMEUpdate@CWindowManager@UI@@QAEXXZ ; UI::CWindowManager::RunIMEUpdate
?RunIMEUpdate@CPythonApplication@@UAEXXZ ENDP		; CPythonApplication::RunIMEUpdate
_TEXT	ENDS
; Function compile flags: /Ogtp
; File d:\metin2\metin2\client_source_clean\client_source_clean\source\userinterface\pythonapplicationevent.cpp
;	COMDAT ?OnKeyUp@CPythonApplication@@MAEXH@Z
_TEXT	SEGMENT
_iIndex$ = 8						; size = 4
?OnKeyUp@CPythonApplication@@MAEXH@Z PROC		; CPythonApplication::OnKeyUp, COMDAT
; _this$ = ecx

; 143  : {

  00000	55		 push	 ebp
  00001	8b ec		 mov	 ebp, esp

; 144  : 	UI::CWindowManager& rkWndMgr=UI::CWindowManager::Instance();
; 145  : 	rkWndMgr.RunKeyUp(iIndex);

  00003	8b 0d 00 00 00
	00		 mov	 ecx, DWORD PTR ?ms_singleton@?$CSingleton@VCWindowManager@UI@@@@0PAVCWindowManager@UI@@A ; CSingleton<UI::CWindowManager>::ms_singleton

; 146  : }

  00009	5d		 pop	 ebp

; 144  : 	UI::CWindowManager& rkWndMgr=UI::CWindowManager::Instance();
; 145  : 	rkWndMgr.RunKeyUp(iIndex);

  0000a	e9 00 00 00 00	 jmp	 ?RunKeyUp@CWindowManager@UI@@QAEXH@Z ; UI::CWindowManager::RunKeyUp
?OnKeyUp@CPythonApplication@@MAEXH@Z ENDP		; CPythonApplication::OnKeyUp
_TEXT	ENDS
; Function compile flags: /Ogtp
; File d:\metin2\metin2\client_source_clean\client_source_clean\source\userinterface\pythonapplicationevent.cpp
;	COMDAT ?OnKeyDown@CPythonApplication@@MAEXH@Z
_TEXT	SEGMENT
_iIndex$ = 8						; size = 4
?OnKeyDown@CPythonApplication@@MAEXH@Z PROC		; CPythonApplication::OnKeyDown, COMDAT
; _this$ = ecx

; 131  : {

  00000	55		 push	 ebp
  00001	8b ec		 mov	 ebp, esp

; 132  : 	UI::CWindowManager& rkWndMgr=UI::CWindowManager::Instance();
; 133  : 
; 134  : 	if (DIK_ESCAPE == iIndex)

  00003	83 7d 08 01	 cmp	 DWORD PTR _iIndex$[ebp], 1
  00007	57		 push	 edi
  00008	8b 3d 00 00 00
	00		 mov	 edi, DWORD PTR ?ms_singleton@?$CSingleton@VCWindowManager@UI@@@@0PAVCWindowManager@UI@@A ; CSingleton<UI::CWindowManager>::ms_singleton
  0000e	75 07		 jne	 SHORT $LN1@OnKeyDown

; 135  : 	{
; 136  : 		rkWndMgr.RunPressEscapeKey();

  00010	8b cf		 mov	 ecx, edi
  00012	e8 00 00 00 00	 call	 ?RunPressEscapeKey@CWindowManager@UI@@QAEXXZ ; UI::CWindowManager::RunPressEscapeKey
$LN1@OnKeyDown:

; 137  : 	}
; 138  : 
; 139  : 	rkWndMgr.RunKeyDown(iIndex);

  00017	ff 75 08	 push	 DWORD PTR _iIndex$[ebp]
  0001a	8b cf		 mov	 ecx, edi
  0001c	e8 00 00 00 00	 call	 ?RunKeyDown@CWindowManager@UI@@QAEXH@Z ; UI::CWindowManager::RunKeyDown
  00021	5f		 pop	 edi

; 140  : }

  00022	5d		 pop	 ebp
  00023	c2 04 00	 ret	 4
?OnKeyDown@CPythonApplication@@MAEXH@Z ENDP		; CPythonApplication::OnKeyDown
_TEXT	ENDS
; Function compile flags: /Ogtp
; File d:\metin2\metin2\client_source_clean\client_source_clean\source\userinterface\pythonapplicationevent.cpp
;	COMDAT ?OnSizeChange@CPythonApplication@@IAEXHH@Z
_TEXT	SEGMENT
_width$dead$ = 8					; size = 4
_height$dead$ = 12					; size = 4
?OnSizeChange@CPythonApplication@@IAEXHH@Z PROC		; CPythonApplication::OnSizeChange, COMDAT
; _this$dead$ = ecx

; 29   : }

  00000	c2 08 00	 ret	 8
?OnSizeChange@CPythonApplication@@IAEXHH@Z ENDP		; CPythonApplication::OnSizeChange
_TEXT	ENDS
; Function compile flags: /Ogtp
; File d:\metin2\metin2\client_source_clean\client_source_clean\source\userinterface\pythonapplicationevent.cpp
;	COMDAT ?OnMouseRender@CPythonApplication@@IAEXXZ
_TEXT	SEGMENT
?OnMouseRender@CPythonApplication@@IAEXXZ PROC		; CPythonApplication::OnMouseRender, COMDAT
; _this$ = ecx

; 221  : {

  00000	56		 push	 esi

; 222  : #ifdef _DEBUG
; 223  : 	if (!m_poMouseHandler)
; 224  : 	{
; 225  : 		//assert(!" CPythonApplication::OnMouseRender - Mouse handler has not set!");
; 226  : 		return;
; 227  : 	}
; 228  : #endif _DEBUG
; 229  : 
; 230  : 	PyCallClassMemberFunc(m_poMouseHandler, "Render", Py_BuildValue("()"));

  00001	68 00 00 00 00	 push	 OFFSET ??_C@_02HCKGKOFO@?$CI?$CJ?$AA@
  00006	8b f1		 mov	 esi, ecx
  00008	ff 15 00 00 00
	00		 call	 DWORD PTR __imp__Py_BuildValue
  0000e	50		 push	 eax
  0000f	68 00 00 00 00	 push	 OFFSET ??_C@_06EPLDPNDB@Render?$AA@
  00014	ff b6 60 ff 01
	00		 push	 DWORD PTR [esi+130912]
  0001a	e8 00 00 00 00	 call	 ?PyCallClassMemberFunc@@YA_NPAU_object@@PBD0@Z ; PyCallClassMemberFunc
  0001f	83 c4 10	 add	 esp, 16			; 00000010H
  00022	5e		 pop	 esi

; 231  : }

  00023	c3		 ret	 0
?OnMouseRender@CPythonApplication@@IAEXXZ ENDP		; CPythonApplication::OnMouseRender
_TEXT	ENDS
; Function compile flags: /Ogtp
; File d:\metin2\metin2\client_source_clean\client_source_clean\source\userinterface\pythonapplicationevent.cpp
;	COMDAT ?OnUIRender@CPythonApplication@@IAEXXZ
_TEXT	SEGMENT
?OnUIRender@CPythonApplication@@IAEXXZ PROC		; CPythonApplication::OnUIRender, COMDAT
; _this$dead$ = ecx

; 23   : 	UI::CWindowManager& rkUIMgr=UI::CWindowManager::Instance();
; 24   : 	rkUIMgr.Render();

  00000	8b 0d 00 00 00
	00		 mov	 ecx, DWORD PTR ?ms_singleton@?$CSingleton@VCWindowManager@UI@@@@0PAVCWindowManager@UI@@A ; CSingleton<UI::CWindowManager>::ms_singleton
  00006	e9 00 00 00 00	 jmp	 ?Render@CWindowManager@UI@@QAEXXZ ; UI::CWindowManager::Render
?OnUIRender@CPythonApplication@@IAEXXZ ENDP		; CPythonApplication::OnUIRender
_TEXT	ENDS
; Function compile flags: /Ogtp
; File d:\metin2\metin2\client_source_clean\client_source_clean\source\userinterface\pythonapplicationevent.cpp
;	COMDAT ?OnUIUpdate@CPythonApplication@@IAEXXZ
_TEXT	SEGMENT
?OnUIUpdate@CPythonApplication@@IAEXXZ PROC		; CPythonApplication::OnUIUpdate, COMDAT
; _this$dead$ = ecx

; 17   : 	UI::CWindowManager& rkUIMgr=UI::CWindowManager::Instance();
; 18   : 	rkUIMgr.Update();

  00000	8b 0d 00 00 00
	00		 mov	 ecx, DWORD PTR ?ms_singleton@?$CSingleton@VCWindowManager@UI@@@@0PAVCWindowManager@UI@@A ; CSingleton<UI::CWindowManager>::ms_singleton
  00006	e9 00 00 00 00	 jmp	 ?Update@CWindowManager@UI@@QAEXXZ ; UI::CWindowManager::Update
?OnUIUpdate@CPythonApplication@@IAEXXZ ENDP		; CPythonApplication::OnUIUpdate
_TEXT	ENDS
; Function compile flags: /Ogtp
; File d:\metin2\metin2\client_source_clean\client_source_clean\source\userinterface\pythonapplicationevent.cpp
;	COMDAT ?OnMouseUpdate@CPythonApplication@@IAEXXZ
_TEXT	SEGMENT
_lx$ = -8						; size = 4
_ly$ = -4						; size = 4
?OnMouseUpdate@CPythonApplication@@IAEXXZ PROC		; CPythonApplication::OnMouseUpdate, COMDAT
; _this$ = ecx

; 205  : {

  00000	55		 push	 ebp
  00001	8b ec		 mov	 ebp, esp
  00003	83 ec 08	 sub	 esp, 8
  00006	56		 push	 esi

; 206  : #ifdef _DEBUG
; 207  : 	if (!m_poMouseHandler)
; 208  : 	{
; 209  : 		//assert(!" CPythonApplication::OnMouseUpdate - Mouse handler has not set!");
; 210  : 		return;
; 211  : 	}
; 212  : #endif _DEBUG
; 213  : 
; 214  : 	UI::CWindowManager& rkWndMgr=UI::CWindowManager::Instance();
; 215  : 	long lx, ly;
; 216  : 	rkWndMgr.GetMousePosition(lx, ly);

  00007	8d 45 fc	 lea	 eax, DWORD PTR _ly$[ebp]
  0000a	8b f1		 mov	 esi, ecx
  0000c	8b 0d 00 00 00
	00		 mov	 ecx, DWORD PTR ?ms_singleton@?$CSingleton@VCWindowManager@UI@@@@0PAVCWindowManager@UI@@A ; CSingleton<UI::CWindowManager>::ms_singleton
  00012	50		 push	 eax
  00013	8d 45 f8	 lea	 eax, DWORD PTR _lx$[ebp]
  00016	50		 push	 eax
  00017	e8 00 00 00 00	 call	 ?GetMousePosition@CWindowManager@UI@@QAEXAAJ0@Z ; UI::CWindowManager::GetMousePosition

; 217  : 	PyCallClassMemberFunc(m_poMouseHandler, "Update", Py_BuildValue("(ii)", lx, ly));

  0001c	ff 75 fc	 push	 DWORD PTR _ly$[ebp]
  0001f	ff 75 f8	 push	 DWORD PTR _lx$[ebp]
  00022	68 00 00 00 00	 push	 OFFSET ??_C@_04INACLLOK@?$CIii?$CJ?$AA@
  00027	ff 15 00 00 00
	00		 call	 DWORD PTR __imp__Py_BuildValue
  0002d	50		 push	 eax
  0002e	68 00 00 00 00	 push	 OFFSET ??_C@_06LMAGPFNF@Update?$AA@
  00033	ff b6 60 ff 01
	00		 push	 DWORD PTR [esi+130912]
  00039	e8 00 00 00 00	 call	 ?PyCallClassMemberFunc@@YA_NPAU_object@@PBD0@Z ; PyCallClassMemberFunc
  0003e	83 c4 18	 add	 esp, 24			; 00000018H
  00041	5e		 pop	 esi

; 218  : }

  00042	8b e5		 mov	 esp, ebp
  00044	5d		 pop	 ebp
  00045	c3		 ret	 0
?OnMouseUpdate@CPythonApplication@@IAEXXZ ENDP		; CPythonApplication::OnMouseUpdate
_TEXT	ENDS
; Function compile flags: /Ogtp
; File d:\metin2\metin2\client_source_clean\client_source_clean\source\userinterface\pythonapplicationevent.cpp
;	COMDAT ?OnCameraUpdate@CPythonApplication@@IAEXXZ
_TEXT	SEGMENT
?OnCameraUpdate@CPythonApplication@@IAEXXZ PROC		; CPythonApplication::OnCameraUpdate, COMDAT
; _this$ = ecx

; 6    : {

  00000	51		 push	 ecx

; 7    : 	if ( m_pyBackground.IsMapReady() )

  00001	81 c1 74 bb 01
	00		 add	 ecx, 113524		; 0001bb74H
  00007	e8 00 00 00 00	 call	 ?IsMapReady@CMapManager@@QAE_NXZ ; CMapManager::IsMapReady
  0000c	84 c0		 test	 al, al
  0000e	74 16		 je	 SHORT $LN1@OnCameraUp

; 8    : 	{
; 9    : 		CCamera* pkCameraMgr = CCameraManager::Instance().GetCurrentCamera();

  00010	8b 0d 00 00 00
	00		 mov	 ecx, DWORD PTR ?ms_singleton@?$CSingleton@VCCameraManager@@@@0PAVCCameraManager@@A ; CSingleton<CCameraManager>::ms_singleton
  00016	e8 00 00 00 00	 call	 ?GetCurrentCamera@CCameraManager@@QAEPAVCCamera@@XZ ; CCameraManager::GetCurrentCamera

; 10   : 		if (pkCameraMgr)

  0001b	85 c0		 test	 eax, eax
  0001d	74 07		 je	 SHORT $LN1@OnCameraUp

; 11   : 			pkCameraMgr->Update();

  0001f	8b c8		 mov	 ecx, eax
  00021	e8 00 00 00 00	 call	 ?Update@CCamera@@QAEXXZ	; CCamera::Update
$LN1@OnCameraUp:
  00026	59		 pop	 ecx

; 12   : 	}
; 13   : }

  00027	c3		 ret	 0
?OnCameraUpdate@CPythonApplication@@IAEXXZ ENDP		; CPythonApplication::OnCameraUpdate
_TEXT	ENDS
; Function compile flags: /Ogtp
; File d:\metin2\metin2\client_source_clean\client_source_clean\source\userinterface\pythonapplicationevent.cpp
;	COMDAT ?OnMouseMove@CPythonApplication@@IAEXHH@Z
_TEXT	SEGMENT
_Point$ = -32						; size = 8
_this$GSCopy$1$ = -24					; size = 4
_rcWnd$ = -20						; size = 16
__$ArrayPad$ = -4					; size = 4
_x$ = 8							; size = 4
_y$ = 12						; size = 4
?OnMouseMove@CPythonApplication@@IAEXHH@Z PROC		; CPythonApplication::OnMouseMove, COMDAT
; _this$ = ecx

; 71   : {

  00000	55		 push	 ebp
  00001	8b ec		 mov	 ebp, esp
  00003	83 ec 24	 sub	 esp, 36			; 00000024H
  00006	a1 00 00 00 00	 mov	 eax, DWORD PTR ___security_cookie
  0000b	33 c5		 xor	 eax, ebp
  0000d	89 45 fc	 mov	 DWORD PTR __$ArrayPad$[ebp], eax
  00010	53		 push	 ebx
  00011	56		 push	 esi
  00012	89 4d e8	 mov	 DWORD PTR _this$GSCopy$1$[ebp], ecx

; 72   : 	CCameraManager& rkCmrMgr=CCameraManager::Instance();
; 73   : 	CCamera* pkCmrCur=rkCmrMgr.GetCurrentCamera();

  00015	8b 0d 00 00 00
	00		 mov	 ecx, DWORD PTR ?ms_singleton@?$CSingleton@VCCameraManager@@@@0PAVCCameraManager@@A ; CSingleton<CCameraManager>::ms_singleton
  0001b	57		 push	 edi
  0001c	e8 00 00 00 00	 call	 ?GetCurrentCamera@CCameraManager@@QAEPAVCCamera@@XZ ; CCameraManager::GetCurrentCamera
  00021	8b f0		 mov	 esi, eax

; 74   : 	
; 75   : 	POINT Point;
; 76   : 	if (pkCmrCur)

  00023	85 f6		 test	 esi, esi
  00025	74 4a		 je	 SHORT $LN11@OnMouseMov

; 77   : 	{
; 78   : 		if ( CPythonBackground::Instance().IsMapReady() && pkCmrCur->Drag(x, y, &Point) )

  00027	8b 0d 00 00 00
	00		 mov	 ecx, DWORD PTR ?ms_singleton@?$CSingleton@VCPythonBackground@@@@0PAVCPythonBackground@@A ; CSingleton<CPythonBackground>::ms_singleton
  0002d	e8 00 00 00 00	 call	 ?IsMapReady@CMapManager@@QAE_NXZ ; CMapManager::IsMapReady
  00032	84 c0		 test	 al, al
  00034	74 3b		 je	 SHORT $LN11@OnMouseMov
  00036	8b 7d 0c	 mov	 edi, DWORD PTR _y$[ebp]
  00039	8d 45 e0	 lea	 eax, DWORD PTR _Point$[ebp]
  0003c	8b 5d 08	 mov	 ebx, DWORD PTR _x$[ebp]
  0003f	8b ce		 mov	 ecx, esi
  00041	50		 push	 eax
  00042	57		 push	 edi
  00043	53		 push	 ebx
  00044	e8 00 00 00 00	 call	 ?Drag@CCamera@@QAE_NHHPAUtagPOINT@@@Z ; CCamera::Drag

; 79   : 		{
; 80   : 			x = Point.x;
; 81   : 			y = Point.y;
; 82   : 			ClientToScreen(m_hWnd, &Point);

  00049	8b 75 e8	 mov	 esi, DWORD PTR _this$GSCopy$1$[ebp]
  0004c	84 c0		 test	 al, al
  0004e	74 2a		 je	 SHORT $LN1@OnMouseMov
  00050	8b 5d e0	 mov	 ebx, DWORD PTR _Point$[ebp]
  00053	8d 45 e0	 lea	 eax, DWORD PTR _Point$[ebp]
  00056	8b 7d e4	 mov	 edi, DWORD PTR _Point$[ebp+4]
  00059	50		 push	 eax
  0005a	ff 76 04	 push	 DWORD PTR [esi+4]
  0005d	ff 15 00 00 00
	00		 call	 DWORD PTR __imp__ClientToScreen@8

; 83   : 
; 84   : 			// 2004.07.26.myevan.안철수HackShield와 충돌
; 85   : 			SetCursorPos(Point.x, Point.y);

  00063	ff 75 e4	 push	 DWORD PTR _Point$[ebp+4]
  00066	ff 75 e0	 push	 DWORD PTR _Point$[ebp]
  00069	ff 15 00 00 00
	00		 call	 DWORD PTR __imp__SetCursorPos@8
  0006f	eb 09		 jmp	 SHORT $LN1@OnMouseMov
$LN11@OnMouseMov:
  00071	8b 7d 0c	 mov	 edi, DWORD PTR _y$[ebp]
  00074	8b 5d 08	 mov	 ebx, DWORD PTR _x$[ebp]
  00077	8b 75 e8	 mov	 esi, DWORD PTR _this$GSCopy$1$[ebp]
$LN1@OnMouseMov:

; 86   : 
; 87   : 		}
; 88   : 	}
; 89   : 	
; 90   : 	RECT rcWnd;
; 91   : 	GetClientRect(&rcWnd);

  0007a	8d 45 ec	 lea	 eax, DWORD PTR _rcWnd$[ebp]
  0007d	8b ce		 mov	 ecx, esi
  0007f	50		 push	 eax
  00080	e8 00 00 00 00	 call	 ?GetClientRect@CMSWindow@@QAEXPAUtagRECT@@@Z ; CMSWindow::GetClientRect

; 92   : 	
; 93   : 	UI::CWindowManager& rkWndMgr=UI::CWindowManager::Instance();
; 94   : 	rkWndMgr.SetResolution(rcWnd.right-rcWnd.left, rcWnd.bottom-rcWnd.top);

  00085	8b 45 f8	 mov	 eax, DWORD PTR _rcWnd$[ebp+12]
  00088	2b 45 f0	 sub	 eax, DWORD PTR _rcWnd$[ebp+4]
  0008b	8b 35 00 00 00
	00		 mov	 esi, DWORD PTR ?ms_singleton@?$CSingleton@VCWindowManager@UI@@@@0PAVCWindowManager@UI@@A ; CSingleton<UI::CWindowManager>::ms_singleton
  00091	8b ce		 mov	 ecx, esi
  00093	50		 push	 eax
  00094	8b 45 f4	 mov	 eax, DWORD PTR _rcWnd$[ebp+8]
  00097	2b 45 ec	 sub	 eax, DWORD PTR _rcWnd$[ebp]
  0009a	50		 push	 eax
  0009b	e8 00 00 00 00	 call	 ?SetResolution@CWindowManager@UI@@QAEXHH@Z ; UI::CWindowManager::SetResolution

; 95   : 
; 96   : 	rkWndMgr.RunMouseMove(x, y);

  000a0	57		 push	 edi
  000a1	53		 push	 ebx
  000a2	8b ce		 mov	 ecx, esi
  000a4	e8 00 00 00 00	 call	 ?RunMouseMove@CWindowManager@UI@@QAEXJJ@Z ; UI::CWindowManager::RunMouseMove

; 97   : }

  000a9	8b 4d fc	 mov	 ecx, DWORD PTR __$ArrayPad$[ebp]
  000ac	5f		 pop	 edi
  000ad	5e		 pop	 esi
  000ae	33 cd		 xor	 ecx, ebp
  000b0	5b		 pop	 ebx
  000b1	e8 00 00 00 00	 call	 @__security_check_cookie@4
  000b6	8b e5		 mov	 esp, ebp
  000b8	5d		 pop	 ebp
  000b9	c2 08 00	 ret	 8
?OnMouseMove@CPythonApplication@@IAEXHH@Z ENDP		; CPythonApplication::OnMouseMove
_TEXT	ENDS
; Function compile flags: /Ogtp
; File d:\metin2\metin2\client_source_clean\client_source_clean\source\userinterface\pythonapplicationevent.cpp
;	COMDAT ?OnMouseWheel@CPythonApplication@@IAEXH@Z
_TEXT	SEGMENT
_nLen$ = 8						; size = 4
?OnMouseWheel@CPythonApplication@@IAEXH@Z PROC		; CPythonApplication::OnMouseWheel, COMDAT
; _this$dead$ = ecx

; 62   : {

  00000	55		 push	 ebp
  00001	8b ec		 mov	 ebp, esp

; 63   : 	CCameraManager& rkCmrMgr=CCameraManager::Instance();
; 64   : 	CCamera* pkCmrCur=rkCmrMgr.GetCurrentCamera();

  00003	8b 0d 00 00 00
	00		 mov	 ecx, DWORD PTR ?ms_singleton@?$CSingleton@VCCameraManager@@@@0PAVCCameraManager@@A ; CSingleton<CCameraManager>::ms_singleton
  00009	e8 00 00 00 00	 call	 ?GetCurrentCamera@CCameraManager@@QAEPAVCCamera@@XZ ; CCameraManager::GetCurrentCamera

; 65   : 	if (pkCmrCur)

  0000e	85 c0		 test	 eax, eax
  00010	74 08		 je	 SHORT $LN1@OnMouseWhe

; 66   : 		pkCmrCur->Wheel(nLen);

  00012	8b c8		 mov	 ecx, eax

; 67   : }

  00014	5d		 pop	 ebp

; 66   : 		pkCmrCur->Wheel(nLen);

  00015	e9 00 00 00 00	 jmp	 ?Wheel@CCamera@@QAEXH@Z	; CCamera::Wheel
$LN1@OnMouseWhe:

; 67   : }

  0001a	5d		 pop	 ebp
  0001b	c2 04 00	 ret	 4
?OnMouseWheel@CPythonApplication@@IAEXH@Z ENDP		; CPythonApplication::OnMouseWheel
_TEXT	ENDS
; Function compile flags: /Ogtp
; File d:\metin2\metin2\client_source_clean\client_source_clean\source\userinterface\pythonapplicationevent.cpp
;	COMDAT ?OnMouseLeftButtonDown@CPythonApplication@@IAEXHH@Z
_TEXT	SEGMENT
_x$ = 8							; size = 4
_y$ = 12						; size = 4
?OnMouseLeftButtonDown@CPythonApplication@@IAEXHH@Z PROC ; CPythonApplication::OnMouseLeftButtonDown, COMDAT
; _this$dead$ = ecx

; 100  : {

  00000	55		 push	 ebp
  00001	8b ec		 mov	 ebp, esp

; 101  : 	UI::CWindowManager& rkWndMgr=UI::CWindowManager::Instance();
; 102  : 	rkWndMgr.RunMouseLeftButtonDown(x, y);

  00003	8b 0d 00 00 00
	00		 mov	 ecx, DWORD PTR ?ms_singleton@?$CSingleton@VCWindowManager@UI@@@@0PAVCWindowManager@UI@@A ; CSingleton<UI::CWindowManager>::ms_singleton

; 103  : }

  00009	5d		 pop	 ebp

; 101  : 	UI::CWindowManager& rkWndMgr=UI::CWindowManager::Instance();
; 102  : 	rkWndMgr.RunMouseLeftButtonDown(x, y);

  0000a	e9 00 00 00 00	 jmp	 ?RunMouseLeftButtonDown@CWindowManager@UI@@QAEXJJ@Z ; UI::CWindowManager::RunMouseLeftButtonDown
?OnMouseLeftButtonDown@CPythonApplication@@IAEXHH@Z ENDP ; CPythonApplication::OnMouseLeftButtonDown
_TEXT	ENDS
; Function compile flags: /Ogtp
; File d:\metin2\metin2\client_source_clean\client_source_clean\source\userinterface\pythonapplicationevent.cpp
;	COMDAT ?OnMouseLeftButtonUp@CPythonApplication@@IAEXHH@Z
_TEXT	SEGMENT
_x$ = 8							; size = 4
_y$ = 12						; size = 4
?OnMouseLeftButtonUp@CPythonApplication@@IAEXHH@Z PROC	; CPythonApplication::OnMouseLeftButtonUp, COMDAT
; _this$dead$ = ecx

; 106  : {

  00000	55		 push	 ebp
  00001	8b ec		 mov	 ebp, esp

; 107  : 	UI::CWindowManager& rkWndMgr=UI::CWindowManager::Instance();
; 108  : 	rkWndMgr.RunMouseLeftButtonUp(x, y);

  00003	8b 0d 00 00 00
	00		 mov	 ecx, DWORD PTR ?ms_singleton@?$CSingleton@VCWindowManager@UI@@@@0PAVCWindowManager@UI@@A ; CSingleton<UI::CWindowManager>::ms_singleton

; 109  : }

  00009	5d		 pop	 ebp

; 107  : 	UI::CWindowManager& rkWndMgr=UI::CWindowManager::Instance();
; 108  : 	rkWndMgr.RunMouseLeftButtonUp(x, y);

  0000a	e9 00 00 00 00	 jmp	 ?RunMouseLeftButtonUp@CWindowManager@UI@@QAEXJJ@Z ; UI::CWindowManager::RunMouseLeftButtonUp
?OnMouseLeftButtonUp@CPythonApplication@@IAEXHH@Z ENDP	; CPythonApplication::OnMouseLeftButtonUp
_TEXT	ENDS
; Function compile flags: /Ogtp
; File d:\metin2\metin2\client_source_clean\client_source_clean\source\userinterface\pythonapplicationevent.cpp
;	COMDAT ?OnMouseLeftButtonDoubleClick@CPythonApplication@@IAEXHH@Z
_TEXT	SEGMENT
_x$ = 8							; size = 4
_y$ = 12						; size = 4
?OnMouseLeftButtonDoubleClick@CPythonApplication@@IAEXHH@Z PROC ; CPythonApplication::OnMouseLeftButtonDoubleClick, COMDAT
; _this$dead$ = ecx

; 112  : {

  00000	55		 push	 ebp
  00001	8b ec		 mov	 ebp, esp
  00003	53		 push	 ebx

; 113  : 	UI::CWindowManager& rkWndMgr=UI::CWindowManager::Instance();
; 114  : 	rkWndMgr.RunMouseLeftButtonDown(x, y);

  00004	ff 75 0c	 push	 DWORD PTR _y$[ebp]
  00007	8b 1d 00 00 00
	00		 mov	 ebx, DWORD PTR ?ms_singleton@?$CSingleton@VCWindowManager@UI@@@@0PAVCWindowManager@UI@@A ; CSingleton<UI::CWindowManager>::ms_singleton
  0000d	8b cb		 mov	 ecx, ebx
  0000f	ff 75 08	 push	 DWORD PTR _x$[ebp]
  00012	e8 00 00 00 00	 call	 ?RunMouseLeftButtonDown@CWindowManager@UI@@QAEXJJ@Z ; UI::CWindowManager::RunMouseLeftButtonDown

; 115  : 	rkWndMgr.RunMouseLeftButtonDoubleClick(x, y);

  00017	ff 75 0c	 push	 DWORD PTR _y$[ebp]
  0001a	8b cb		 mov	 ecx, ebx
  0001c	ff 75 08	 push	 DWORD PTR _x$[ebp]
  0001f	e8 00 00 00 00	 call	 ?RunMouseLeftButtonDoubleClick@CWindowManager@UI@@QAEXJJ@Z ; UI::CWindowManager::RunMouseLeftButtonDoubleClick
  00024	5b		 pop	 ebx

; 116  : }

  00025	5d		 pop	 ebp
  00026	c2 08 00	 ret	 8
?OnMouseLeftButtonDoubleClick@CPythonApplication@@IAEXHH@Z ENDP ; CPythonApplication::OnMouseLeftButtonDoubleClick
_TEXT	ENDS
; Function compile flags: /Ogtp
; File d:\metin2\metin2\client_source_clean\client_source_clean\source\userinterface\pythonapplicationevent.cpp
;	COMDAT ?OnMouseRightButtonDown@CPythonApplication@@IAEXHH@Z
_TEXT	SEGMENT
_x$ = 8							; size = 4
_y$ = 12						; size = 4
?OnMouseRightButtonDown@CPythonApplication@@IAEXHH@Z PROC ; CPythonApplication::OnMouseRightButtonDown, COMDAT
; _this$dead$ = ecx

; 119  : {

  00000	55		 push	 ebp
  00001	8b ec		 mov	 ebp, esp

; 120  : 	UI::CWindowManager& rkWndMgr=UI::CWindowManager::Instance();
; 121  : 	rkWndMgr.RunMouseRightButtonDown(x, y);

  00003	8b 0d 00 00 00
	00		 mov	 ecx, DWORD PTR ?ms_singleton@?$CSingleton@VCWindowManager@UI@@@@0PAVCWindowManager@UI@@A ; CSingleton<UI::CWindowManager>::ms_singleton

; 122  : }

  00009	5d		 pop	 ebp

; 120  : 	UI::CWindowManager& rkWndMgr=UI::CWindowManager::Instance();
; 121  : 	rkWndMgr.RunMouseRightButtonDown(x, y);

  0000a	e9 00 00 00 00	 jmp	 ?RunMouseRightButtonDown@CWindowManager@UI@@QAEXJJ@Z ; UI::CWindowManager::RunMouseRightButtonDown
?OnMouseRightButtonDown@CPythonApplication@@IAEXHH@Z ENDP ; CPythonApplication::OnMouseRightButtonDown
_TEXT	ENDS
; Function compile flags: /Ogtp
; File d:\metin2\metin2\client_source_clean\client_source_clean\source\userinterface\pythonapplicationevent.cpp
;	COMDAT ?OnMouseRightButtonUp@CPythonApplication@@IAEXHH@Z
_TEXT	SEGMENT
_x$ = 8							; size = 4
_y$ = 12						; size = 4
?OnMouseRightButtonUp@CPythonApplication@@IAEXHH@Z PROC	; CPythonApplication::OnMouseRightButtonUp, COMDAT
; _this$dead$ = ecx

; 125  : {

  00000	55		 push	 ebp
  00001	8b ec		 mov	 ebp, esp

; 126  : 	UI::CWindowManager& rkWndMgr=UI::CWindowManager::Instance();
; 127  : 	rkWndMgr.RunMouseRightButtonUp(x, y);

  00003	8b 0d 00 00 00
	00		 mov	 ecx, DWORD PTR ?ms_singleton@?$CSingleton@VCWindowManager@UI@@@@0PAVCWindowManager@UI@@A ; CSingleton<UI::CWindowManager>::ms_singleton

; 128  : }

  00009	5d		 pop	 ebp

; 126  : 	UI::CWindowManager& rkWndMgr=UI::CWindowManager::Instance();
; 127  : 	rkWndMgr.RunMouseRightButtonUp(x, y);

  0000a	e9 00 00 00 00	 jmp	 ?RunMouseRightButtonUp@CWindowManager@UI@@QAEXJJ@Z ; UI::CWindowManager::RunMouseRightButtonUp
?OnMouseRightButtonUp@CPythonApplication@@IAEXHH@Z ENDP	; CPythonApplication::OnMouseRightButtonUp
_TEXT	ENDS
; Function compile flags: /Ogtp
; File d:\metin2\metin2\client_source_clean\client_source_clean\source\userinterface\pythonapplicationevent.cpp
;	COMDAT ?OnIMEKeyDown@CPythonApplication@@IAEXH@Z
_TEXT	SEGMENT
_iIndex$ = 8						; size = 4
?OnIMEKeyDown@CPythonApplication@@IAEXH@Z PROC		; CPythonApplication::OnIMEKeyDown, COMDAT
; _this$dead$ = ecx

; 164  : {

  00000	55		 push	 ebp
  00001	8b ec		 mov	 ebp, esp

; 165  : 	UI::CWindowManager& rkWndMgr=UI::CWindowManager::Instance();
; 166  : 	rkWndMgr.RunIMEKeyDown(iIndex);

  00003	8b 0d 00 00 00
	00		 mov	 ecx, DWORD PTR ?ms_singleton@?$CSingleton@VCWindowManager@UI@@@@0PAVCWindowManager@UI@@A ; CSingleton<UI::CWindowManager>::ms_singleton

; 167  : }

  00009	5d		 pop	 ebp

; 165  : 	UI::CWindowManager& rkWndMgr=UI::CWindowManager::Instance();
; 166  : 	rkWndMgr.RunIMEKeyDown(iIndex);

  0000a	e9 00 00 00 00	 jmp	 ?RunIMEKeyDown@CWindowManager@UI@@QAEXH@Z ; UI::CWindowManager::RunIMEKeyDown
?OnIMEKeyDown@CPythonApplication@@IAEXH@Z ENDP		; CPythonApplication::OnIMEKeyDown
_TEXT	ENDS
; Function compile flags: /Ogtp
; File d:\metin2\metin2\client_source_clean\client_source_clean\source\userinterface\pythonapplicationevent.cpp
;	COMDAT ?RunPressExitKey@CPythonApplication@@QAEXXZ
_TEXT	SEGMENT
?RunPressExitKey@CPythonApplication@@QAEXXZ PROC	; CPythonApplication::RunPressExitKey, COMDAT
; _this$dead$ = ecx

; 199  : 	UI::CWindowManager& rkWndMgr=UI::CWindowManager::Instance();
; 200  : 	rkWndMgr.RunPressExitKey();

  00000	8b 0d 00 00 00
	00		 mov	 ecx, DWORD PTR ?ms_singleton@?$CSingleton@VCWindowManager@UI@@@@0PAVCWindowManager@UI@@A ; CSingleton<UI::CWindowManager>::ms_singleton
  00006	e9 00 00 00 00	 jmp	 ?RunPressExitKey@CWindowManager@UI@@QAEXXZ ; UI::CWindowManager::RunPressExitKey
?RunPressExitKey@CPythonApplication@@QAEXXZ ENDP	; CPythonApplication::RunPressExitKey
_TEXT	ENDS
END
