; Listing generated by Microsoft (R) Optimizing Compiler Version 18.00.40629.0 

	TITLE	D:\Metin2\Metin2\client_source_clean\client_source_clean\source\UserInterface\PythonExchange.cpp
	.686P
	.XMM
	include listing.inc
	.model	flat

INCLUDELIB OLDNAMES

PUBLIC	??_R2?$CSingleton@VCPythonExchange@@@@8		; CSingleton<CPythonExchange>::`RTTI Base Class Array'
PUBLIC	??_R2CPythonExchange@@8				; CPythonExchange::`RTTI Base Class Array'
PUBLIC	??_R1A@?0A@EA@CPythonExchange@@8		; CPythonExchange::`RTTI Base Class Descriptor at (0,-1,0,64)'
PUBLIC	??_R1A@?0A@EA@?$CSingleton@VCPythonExchange@@@@8 ; CSingleton<CPythonExchange>::`RTTI Base Class Descriptor at (0,-1,0,64)'
PUBLIC	??_R0?AV?$CSingleton@VCPythonExchange@@@@@8	; CSingleton<CPythonExchange> `RTTI Type Descriptor'
PUBLIC	??_R3?$CSingleton@VCPythonExchange@@@@8		; CSingleton<CPythonExchange>::`RTTI Class Hierarchy Descriptor'
PUBLIC	??_R0?AVCPythonExchange@@@8			; CPythonExchange `RTTI Type Descriptor'
PUBLIC	??_R3CPythonExchange@@8				; CPythonExchange::`RTTI Class Hierarchy Descriptor'
PUBLIC	??_R4?$CSingleton@VCPythonExchange@@@@6B@	; CSingleton<CPythonExchange>::`RTTI Complete Object Locator'
PUBLIC	??_R4CPythonExchange@@6B@			; CPythonExchange::`RTTI Complete Object Locator'
PUBLIC	??_7?$CSingleton@VCPythonExchange@@@@6B@	; CSingleton<CPythonExchange>::`vftable'
PUBLIC	?ms_singleton@?$CSingleton@VCPythonExchange@@@@0PAVCPythonExchange@@A ; CSingleton<CPythonExchange>::ms_singleton
PUBLIC	??_7CPythonExchange@@6B@			; CPythonExchange::`vftable'
;	COMDAT ?ms_singleton@?$CSingleton@VCPythonExchange@@@@0PAVCPythonExchange@@A
_BSS	SEGMENT
?ms_singleton@?$CSingleton@VCPythonExchange@@@@0PAVCPythonExchange@@A DD 01H DUP (?) ; CSingleton<CPythonExchange>::ms_singleton
_BSS	ENDS
;	COMDAT ??_7CPythonExchange@@6B@
CONST	SEGMENT
??_7CPythonExchange@@6B@ DD FLAT:??_R4CPythonExchange@@6B@ ; CPythonExchange::`vftable'
	DD	FLAT:??_ECPythonExchange@@UAEPAXI@Z
CONST	ENDS
;	COMDAT ??_7?$CSingleton@VCPythonExchange@@@@6B@
CONST	SEGMENT
??_7?$CSingleton@VCPythonExchange@@@@6B@ DD FLAT:??_R4?$CSingleton@VCPythonExchange@@@@6B@ ; CSingleton<CPythonExchange>::`vftable'
	DD	FLAT:??_E?$CSingleton@VCPythonExchange@@@@UAEPAXI@Z
CONST	ENDS
;	COMDAT ??_R4CPythonExchange@@6B@
rdata$r	SEGMENT
??_R4CPythonExchange@@6B@ DD 00H			; CPythonExchange::`RTTI Complete Object Locator'
	DD	00H
	DD	00H
	DD	FLAT:??_R0?AVCPythonExchange@@@8
	DD	FLAT:??_R3CPythonExchange@@8
rdata$r	ENDS
;	COMDAT ??_R4?$CSingleton@VCPythonExchange@@@@6B@
rdata$r	SEGMENT
??_R4?$CSingleton@VCPythonExchange@@@@6B@ DD 00H	; CSingleton<CPythonExchange>::`RTTI Complete Object Locator'
	DD	00H
	DD	00H
	DD	FLAT:??_R0?AV?$CSingleton@VCPythonExchange@@@@@8
	DD	FLAT:??_R3?$CSingleton@VCPythonExchange@@@@8
rdata$r	ENDS
;	COMDAT ??_R3CPythonExchange@@8
rdata$r	SEGMENT
??_R3CPythonExchange@@8 DD 00H				; CPythonExchange::`RTTI Class Hierarchy Descriptor'
	DD	00H
	DD	02H
	DD	FLAT:??_R2CPythonExchange@@8
rdata$r	ENDS
;	COMDAT ??_R0?AVCPythonExchange@@@8
data$r	SEGMENT
??_R0?AVCPythonExchange@@@8 DD FLAT:??_7type_info@@6B@	; CPythonExchange `RTTI Type Descriptor'
	DD	00H
	DB	'.?AVCPythonExchange@@', 00H
data$r	ENDS
;	COMDAT ??_R3?$CSingleton@VCPythonExchange@@@@8
rdata$r	SEGMENT
??_R3?$CSingleton@VCPythonExchange@@@@8 DD 00H		; CSingleton<CPythonExchange>::`RTTI Class Hierarchy Descriptor'
	DD	00H
	DD	01H
	DD	FLAT:??_R2?$CSingleton@VCPythonExchange@@@@8
rdata$r	ENDS
;	COMDAT ??_R0?AV?$CSingleton@VCPythonExchange@@@@@8
data$r	SEGMENT
??_R0?AV?$CSingleton@VCPythonExchange@@@@@8 DD FLAT:??_7type_info@@6B@ ; CSingleton<CPythonExchange> `RTTI Type Descriptor'
	DD	00H
	DB	'.?AV?$CSingleton@VCPythonExchange@@@@', 00H
data$r	ENDS
;	COMDAT ??_R1A@?0A@EA@?$CSingleton@VCPythonExchange@@@@8
rdata$r	SEGMENT
??_R1A@?0A@EA@?$CSingleton@VCPythonExchange@@@@8 DD FLAT:??_R0?AV?$CSingleton@VCPythonExchange@@@@@8 ; CSingleton<CPythonExchange>::`RTTI Base Class Descriptor at (0,-1,0,64)'
	DD	00H
	DD	00H
	DD	0ffffffffH
	DD	00H
	DD	040H
	DD	FLAT:??_R3?$CSingleton@VCPythonExchange@@@@8
rdata$r	ENDS
;	COMDAT ??_R1A@?0A@EA@CPythonExchange@@8
rdata$r	SEGMENT
??_R1A@?0A@EA@CPythonExchange@@8 DD FLAT:??_R0?AVCPythonExchange@@@8 ; CPythonExchange::`RTTI Base Class Descriptor at (0,-1,0,64)'
	DD	01H
	DD	00H
	DD	0ffffffffH
	DD	00H
	DD	040H
	DD	FLAT:??_R3CPythonExchange@@8
rdata$r	ENDS
;	COMDAT ??_R2CPythonExchange@@8
rdata$r	SEGMENT
??_R2CPythonExchange@@8 DD FLAT:??_R1A@?0A@EA@CPythonExchange@@8 ; CPythonExchange::`RTTI Base Class Array'
	DD	FLAT:??_R1A@?0A@EA@?$CSingleton@VCPythonExchange@@@@8
rdata$r	ENDS
;	COMDAT ??_R2?$CSingleton@VCPythonExchange@@@@8
rdata$r	SEGMENT
??_R2?$CSingleton@VCPythonExchange@@@@8 DD FLAT:??_R1A@?0A@EA@?$CSingleton@VCPythonExchange@@@@8 ; CSingleton<CPythonExchange>::`RTTI Base Class Array'
PUBLIC	??_G?$CSingleton@VCPythonExchange@@@@UAEPAXI@Z	; CSingleton<CPythonExchange>::`scalar deleting destructor'
PUBLIC	??1?$CSingleton@VCPythonExchange@@@@UAE@XZ	; CSingleton<CPythonExchange>::~CSingleton<CPythonExchange>
PUBLIC	??0?$CSingleton@VCPythonExchange@@@@QAE@XZ	; CSingleton<CPythonExchange>::CSingleton<CPythonExchange>
PUBLIC	??_GCPythonExchange@@UAEPAXI@Z			; CPythonExchange::`scalar deleting destructor'
PUBLIC	?Clear@CPythonExchange@@QAEXXZ			; CPythonExchange::Clear
PUBLIC	?isTrading@CPythonExchange@@QAE_NXZ		; CPythonExchange::isTrading
PUBLIC	?End@CPythonExchange@@QAEXXZ			; CPythonExchange::End
PUBLIC	?Start@CPythonExchange@@QAEXXZ			; CPythonExchange::Start
PUBLIC	?SetElkMode@CPythonExchange@@QAEX_N@Z		; CPythonExchange::SetElkMode
PUBLIC	?GetElkMode@CPythonExchange@@QAE_NXZ		; CPythonExchange::GetElkMode
PUBLIC	?GetAcceptFromSelf@CPythonExchange@@QAE_NXZ	; CPythonExchange::GetAcceptFromSelf
PUBLIC	?GetAcceptFromTarget@CPythonExchange@@QAE_NXZ	; CPythonExchange::GetAcceptFromTarget
PUBLIC	?SetAcceptToSelf@CPythonExchange@@QAEXE@Z	; CPythonExchange::SetAcceptToSelf
PUBLIC	?SetAcceptToTarget@CPythonExchange@@QAEXE@Z	; CPythonExchange::SetAcceptToTarget
PUBLIC	?GetItemAttributeFromSelf@CPythonExchange@@QAEXEHPAEPAF@Z ; CPythonExchange::GetItemAttributeFromSelf
PUBLIC	?GetItemAttributeFromTarget@CPythonExchange@@QAEXEHPAEPAF@Z ; CPythonExchange::GetItemAttributeFromTarget
PUBLIC	?GetItemMetinSocketFromSelf@CPythonExchange@@QAEKEH@Z ; CPythonExchange::GetItemMetinSocketFromSelf
PUBLIC	?GetItemMetinSocketFromTarget@CPythonExchange@@QAEKEH@Z ; CPythonExchange::GetItemMetinSocketFromTarget
PUBLIC	?GetItemCountFromSelf@CPythonExchange@@QAEEE@Z	; CPythonExchange::GetItemCountFromSelf
PUBLIC	?GetItemCountFromTarget@CPythonExchange@@QAEEE@Z ; CPythonExchange::GetItemCountFromTarget
PUBLIC	?GetItemVnumFromSelf@CPythonExchange@@QAEKE@Z	; CPythonExchange::GetItemVnumFromSelf
PUBLIC	?GetItemVnumFromTarget@CPythonExchange@@QAEKE@Z	; CPythonExchange::GetItemVnumFromTarget
PUBLIC	?DelItemOfSelf@CPythonExchange@@QAEXE@Z		; CPythonExchange::DelItemOfSelf
PUBLIC	?DelItemOfTarget@CPythonExchange@@QAEXE@Z	; CPythonExchange::DelItemOfTarget
PUBLIC	?SetItemAttributeToSelf@CPythonExchange@@QAEXHHEF@Z ; CPythonExchange::SetItemAttributeToSelf
PUBLIC	?SetItemAttributeToTarget@CPythonExchange@@QAEXHHEF@Z ; CPythonExchange::SetItemAttributeToTarget
PUBLIC	?SetItemMetinSocketToSelf@CPythonExchange@@QAEXHHK@Z ; CPythonExchange::SetItemMetinSocketToSelf
PUBLIC	?SetItemMetinSocketToTarget@CPythonExchange@@QAEXHHK@Z ; CPythonExchange::SetItemMetinSocketToTarget
PUBLIC	?SetItemToSelf@CPythonExchange@@QAEXKKE@Z	; CPythonExchange::SetItemToSelf
PUBLIC	?SetItemToTarget@CPythonExchange@@QAEXKKE@Z	; CPythonExchange::SetItemToTarget
PUBLIC	?GetElkFromSelf@CPythonExchange@@QAEKXZ		; CPythonExchange::GetElkFromSelf
PUBLIC	?GetElkFromTarget@CPythonExchange@@QAEKXZ	; CPythonExchange::GetElkFromTarget
PUBLIC	?SetElkToSelf@CPythonExchange@@QAEXK@Z		; CPythonExchange::SetElkToSelf
PUBLIC	?SetElkToTarget@CPythonExchange@@QAEXK@Z	; CPythonExchange::SetElkToTarget
PUBLIC	?GetNameFromTarget@CPythonExchange@@QAEPADXZ	; CPythonExchange::GetNameFromTarget
PUBLIC	?GetNameFromSelf@CPythonExchange@@QAEPADXZ	; CPythonExchange::GetNameFromSelf
PUBLIC	?SetTargetName@CPythonExchange@@QAEXPBD@Z	; CPythonExchange::SetTargetName
PUBLIC	?SetSelfName@CPythonExchange@@QAEXPBD@Z		; CPythonExchange::SetSelfName
PUBLIC	??0CPythonExchange@@QAE@XZ			; CPythonExchange::CPythonExchange
PUBLIC	??1CPythonExchange@@UAE@XZ			; CPythonExchange::~CPythonExchange
EXTRN	??_ECPythonExchange@@UAEPAXI@Z:PROC		; CPythonExchange::`vector deleting destructor'
EXTRN	??_E?$CSingleton@VCPythonExchange@@@@UAEPAXI@Z:PROC ; CSingleton<CPythonExchange>::`vector deleting destructor'
; Function compile flags: /Ogtp
; File d:\metin2\metin2\client_source_clean\client_source_clean\source\userinterface\pythonexchange.cpp
; File d:\metin2\metin2\client_source_clean\client_source_clean\source\eterbase\singleton.h
; File d:\metin2\metin2\client_source_clean\client_source_clean\source\userinterface\pythonexchange.cpp
;	COMDAT ??1CPythonExchange@@UAE@XZ
_TEXT	SEGMENT
??1CPythonExchange@@UAE@XZ PROC				; CPythonExchange::~CPythonExchange, COMDAT
; _this$ = ecx
; File d:\metin2\metin2\client_source_clean\client_source_clean\source\eterbase\singleton.h

; 19   : 	{ 

  00000	c7 01 00 00 00
	00		 mov	 DWORD PTR [ecx], OFFSET ??_7?$CSingleton@VCPythonExchange@@@@6B@

; 20   : 		assert(ms_singleton);
; 21   : 		ms_singleton = 0; 

  00006	c7 05 00 00 00
	00 00 00 00 00	 mov	 DWORD PTR ?ms_singleton@?$CSingleton@VCPythonExchange@@@@0PAVCPythonExchange@@A, 0 ; CSingleton<CPythonExchange>::ms_singleton
; File d:\metin2\metin2\client_source_clean\client_source_clean\source\userinterface\pythonexchange.cpp

; 248  : }

  00010	c3		 ret	 0
??1CPythonExchange@@UAE@XZ ENDP				; CPythonExchange::~CPythonExchange
_TEXT	ENDS
; Function compile flags: /Ogtp
; File d:\metin2\metin2\client_source_clean\client_source_clean\source\userinterface\pythonexchange.cpp
; File d:\metin2\metin2\client_source_clean\client_source_clean\source\eterbase\singleton.h
; File d:\metin2\metin2\client_source_clean\client_source_clean\source\userinterface\pythonexchange.cpp
;	COMDAT ??0CPythonExchange@@QAE@XZ
_TEXT	SEGMENT
??0CPythonExchange@@QAE@XZ PROC				; CPythonExchange::CPythonExchange, COMDAT
; _this$ = ecx

; 238  : {

  00000	56		 push	 esi
  00001	8b f1		 mov	 esi, ecx
; File d:\metin2\metin2\client_source_clean\client_source_clean\source\eterbase\singleton.h

; 15   : 		ms_singleton = (T*) ((int) this + offset);

  00003	89 35 00 00 00
	00		 mov	 DWORD PTR ?ms_singleton@?$CSingleton@VCPythonExchange@@@@0PAVCPythonExchange@@A, esi ; CSingleton<CPythonExchange>::ms_singleton
; File d:\metin2\metin2\client_source_clean\client_source_clean\source\userinterface\pythonexchange.cpp

; 238  : {

  00009	c7 06 00 00 00
	00		 mov	 DWORD PTR [esi], OFFSET ??_7CPythonExchange@@6B@

; 239  : 	Clear();

  0000f	e8 00 00 00 00	 call	 ?Clear@CPythonExchange@@QAEXXZ ; CPythonExchange::Clear

; 240  : 	m_isTrading = false;

  00014	66 c7 46 04 00
	00		 mov	 WORD PTR [esi+4], 0

; 241  : 	m_elk_mode = false;
; 242  : 		// Clear로 옴겨놓으면 안됨. 
; 243  : 		// trade_start 페킷이 오면 Clear를 실행하는데
; 244  : 		// m_elk_mode는 클리어 되선 안됨.;  
; 245  : }

  0001a	8b c6		 mov	 eax, esi
  0001c	5e		 pop	 esi
  0001d	c3		 ret	 0
??0CPythonExchange@@QAE@XZ ENDP				; CPythonExchange::CPythonExchange
_TEXT	ENDS
; Function compile flags: /Ogtp
; File d:\metin2\metin2\client_source_clean\client_source_clean\source\userinterface\pythonexchange.cpp
;	COMDAT ?SetSelfName@CPythonExchange@@QAEXPBD@Z
_TEXT	SEGMENT
_name$ = 8						; size = 4
?SetSelfName@CPythonExchange@@QAEXPBD@Z PROC		; CPythonExchange::SetSelfName, COMDAT
; _this$ = ecx

; 5    : {

  00000	55		 push	 ebp
  00001	8b ec		 mov	 ebp, esp

; 6    : 	strncpy(m_self.name, name, CHARACTER_NAME_MAX_LEN);

  00003	6a 18		 push	 24			; 00000018H
  00005	ff 75 08	 push	 DWORD PTR _name$[ebp]
  00008	8d 41 08	 lea	 eax, DWORD PTR [ecx+8]
  0000b	50		 push	 eax
  0000c	e8 00 00 00 00	 call	 _strncpy
  00011	83 c4 0c	 add	 esp, 12			; 0000000cH

; 7    : }

  00014	5d		 pop	 ebp
  00015	c2 04 00	 ret	 4
?SetSelfName@CPythonExchange@@QAEXPBD@Z ENDP		; CPythonExchange::SetSelfName
_TEXT	ENDS
; Function compile flags: /Ogtp
; File d:\metin2\metin2\client_source_clean\client_source_clean\source\userinterface\pythonexchange.cpp
;	COMDAT ?SetTargetName@CPythonExchange@@QAEXPBD@Z
_TEXT	SEGMENT
_name$ = 8						; size = 4
?SetTargetName@CPythonExchange@@QAEXPBD@Z PROC		; CPythonExchange::SetTargetName, COMDAT
; _this$ = ecx

; 10   : {

  00000	55		 push	 ebp
  00001	8b ec		 mov	 ebp, esp

; 11   : 	strncpy(m_victim.name, name, CHARACTER_NAME_MAX_LEN);

  00003	6a 18		 push	 24			; 00000018H
  00005	ff 75 08	 push	 DWORD PTR _name$[ebp]
  00008	8d 81 f4 01 00
	00		 lea	 eax, DWORD PTR [ecx+500]
  0000e	50		 push	 eax
  0000f	e8 00 00 00 00	 call	 _strncpy
  00014	83 c4 0c	 add	 esp, 12			; 0000000cH

; 12   : }

  00017	5d		 pop	 ebp
  00018	c2 04 00	 ret	 4
?SetTargetName@CPythonExchange@@QAEXPBD@Z ENDP		; CPythonExchange::SetTargetName
_TEXT	ENDS
; Function compile flags: /Ogtp
; File d:\metin2\metin2\client_source_clean\client_source_clean\source\userinterface\pythonexchange.cpp
;	COMDAT ?GetNameFromSelf@CPythonExchange@@QAEPADXZ
_TEXT	SEGMENT
?GetNameFromSelf@CPythonExchange@@QAEPADXZ PROC		; CPythonExchange::GetNameFromSelf, COMDAT
; _this$ = ecx

; 16   : 	return m_self.name;

  00000	8d 41 08	 lea	 eax, DWORD PTR [ecx+8]

; 17   : }

  00003	c3		 ret	 0
?GetNameFromSelf@CPythonExchange@@QAEPADXZ ENDP		; CPythonExchange::GetNameFromSelf
_TEXT	ENDS
; Function compile flags: /Ogtp
; File d:\metin2\metin2\client_source_clean\client_source_clean\source\userinterface\pythonexchange.cpp
;	COMDAT ?GetNameFromTarget@CPythonExchange@@QAEPADXZ
_TEXT	SEGMENT
?GetNameFromTarget@CPythonExchange@@QAEPADXZ PROC	; CPythonExchange::GetNameFromTarget, COMDAT
; _this$ = ecx

; 21   : 	return m_victim.name;

  00000	8d 81 f4 01 00
	00		 lea	 eax, DWORD PTR [ecx+500]

; 22   : }

  00006	c3		 ret	 0
?GetNameFromTarget@CPythonExchange@@QAEPADXZ ENDP	; CPythonExchange::GetNameFromTarget
_TEXT	ENDS
; Function compile flags: /Ogtp
; File d:\metin2\metin2\client_source_clean\client_source_clean\source\userinterface\pythonexchange.cpp
;	COMDAT ?SetElkToTarget@CPythonExchange@@QAEXK@Z
_TEXT	SEGMENT
_elk$ = 8						; size = 4
?SetElkToTarget@CPythonExchange@@QAEXK@Z PROC		; CPythonExchange::SetElkToTarget, COMDAT
; _this$ = ecx

; 25   : {	

  00000	55		 push	 ebp
  00001	8b ec		 mov	 ebp, esp

; 26   : 	m_victim.elk = elk;

  00003	8b 45 08	 mov	 eax, DWORD PTR _elk$[ebp]
  00006	89 81 dc 03 00
	00		 mov	 DWORD PTR [ecx+988], eax

; 27   : }

  0000c	5d		 pop	 ebp
  0000d	c2 04 00	 ret	 4
?SetElkToTarget@CPythonExchange@@QAEXK@Z ENDP		; CPythonExchange::SetElkToTarget
_TEXT	ENDS
; Function compile flags: /Ogtp
; File d:\metin2\metin2\client_source_clean\client_source_clean\source\userinterface\pythonexchange.cpp
;	COMDAT ?SetElkToSelf@CPythonExchange@@QAEXK@Z
_TEXT	SEGMENT
_elk$ = 8						; size = 4
?SetElkToSelf@CPythonExchange@@QAEXK@Z PROC		; CPythonExchange::SetElkToSelf, COMDAT
; _this$ = ecx

; 30   : {

  00000	55		 push	 ebp
  00001	8b ec		 mov	 ebp, esp

; 31   : 	m_self.elk = elk;

  00003	8b 45 08	 mov	 eax, DWORD PTR _elk$[ebp]
  00006	89 81 f0 01 00
	00		 mov	 DWORD PTR [ecx+496], eax

; 32   : }

  0000c	5d		 pop	 ebp
  0000d	c2 04 00	 ret	 4
?SetElkToSelf@CPythonExchange@@QAEXK@Z ENDP		; CPythonExchange::SetElkToSelf
_TEXT	ENDS
; Function compile flags: /Ogtp
; File d:\metin2\metin2\client_source_clean\client_source_clean\source\userinterface\pythonexchange.cpp
;	COMDAT ?GetElkFromTarget@CPythonExchange@@QAEKXZ
_TEXT	SEGMENT
?GetElkFromTarget@CPythonExchange@@QAEKXZ PROC		; CPythonExchange::GetElkFromTarget, COMDAT
; _this$ = ecx

; 36   : 	return m_victim.elk;

  00000	8b 81 dc 03 00
	00		 mov	 eax, DWORD PTR [ecx+988]

; 37   : }

  00006	c3		 ret	 0
?GetElkFromTarget@CPythonExchange@@QAEKXZ ENDP		; CPythonExchange::GetElkFromTarget
_TEXT	ENDS
; Function compile flags: /Ogtp
; File d:\metin2\metin2\client_source_clean\client_source_clean\source\userinterface\pythonexchange.cpp
;	COMDAT ?GetElkFromSelf@CPythonExchange@@QAEKXZ
_TEXT	SEGMENT
?GetElkFromSelf@CPythonExchange@@QAEKXZ PROC		; CPythonExchange::GetElkFromSelf, COMDAT
; _this$ = ecx

; 41   : 	return m_self.elk;

  00000	8b 81 f0 01 00
	00		 mov	 eax, DWORD PTR [ecx+496]

; 42   : }

  00006	c3		 ret	 0
?GetElkFromSelf@CPythonExchange@@QAEKXZ ENDP		; CPythonExchange::GetElkFromSelf
_TEXT	ENDS
; Function compile flags: /Ogtp
; File d:\metin2\metin2\client_source_clean\client_source_clean\source\userinterface\pythonexchange.cpp
;	COMDAT ?SetItemToTarget@CPythonExchange@@QAEXKKE@Z
_TEXT	SEGMENT
_pos$ = 8						; size = 4
_vnum$ = 12						; size = 4
_count$ = 16						; size = 1
?SetItemToTarget@CPythonExchange@@QAEXKKE@Z PROC	; CPythonExchange::SetItemToTarget, COMDAT
; _this$ = ecx

; 45   : {

  00000	55		 push	 ebp
  00001	8b ec		 mov	 ebp, esp

; 46   : 	if (pos >= EXCHANGE_ITEM_MAX_NUM)

  00003	8b 55 08	 mov	 edx, DWORD PTR _pos$[ebp]
  00006	83 fa 0c	 cmp	 edx, 12			; 0000000cH
  00009	73 14		 jae	 SHORT $LN2@SetItemToT

; 47   : 		return;
; 48   : 
; 49   : 	m_victim.item_vnum[pos] = vnum;

  0000b	8b 45 0c	 mov	 eax, DWORD PTR _vnum$[ebp]
  0000e	89 84 91 10 02
	00 00		 mov	 DWORD PTR [ecx+edx*4+528], eax

; 50   : 	m_victim.item_count[pos] = count;

  00015	8a 45 10	 mov	 al, BYTE PTR _count$[ebp]
  00018	88 84 0a 40 02
	00 00		 mov	 BYTE PTR [edx+ecx+576], al
$LN2@SetItemToT:

; 51   : }

  0001f	5d		 pop	 ebp
  00020	c2 0c 00	 ret	 12			; 0000000cH
?SetItemToTarget@CPythonExchange@@QAEXKKE@Z ENDP	; CPythonExchange::SetItemToTarget
_TEXT	ENDS
; Function compile flags: /Ogtp
; File d:\metin2\metin2\client_source_clean\client_source_clean\source\userinterface\pythonexchange.cpp
;	COMDAT ?SetItemToSelf@CPythonExchange@@QAEXKKE@Z
_TEXT	SEGMENT
_pos$ = 8						; size = 4
_vnum$ = 12						; size = 4
_count$ = 16						; size = 1
?SetItemToSelf@CPythonExchange@@QAEXKKE@Z PROC		; CPythonExchange::SetItemToSelf, COMDAT
; _this$ = ecx

; 54   : {

  00000	55		 push	 ebp
  00001	8b ec		 mov	 ebp, esp

; 55   : 	if (pos >= EXCHANGE_ITEM_MAX_NUM)

  00003	8b 55 08	 mov	 edx, DWORD PTR _pos$[ebp]
  00006	83 fa 0c	 cmp	 edx, 12			; 0000000cH
  00009	73 0e		 jae	 SHORT $LN2@SetItemToS

; 56   : 		return;
; 57   : 
; 58   : 	m_self.item_vnum[pos] = vnum;

  0000b	8b 45 0c	 mov	 eax, DWORD PTR _vnum$[ebp]
  0000e	89 44 91 24	 mov	 DWORD PTR [ecx+edx*4+36], eax

; 59   : 	m_self.item_count[pos] = count;

  00012	8a 45 10	 mov	 al, BYTE PTR _count$[ebp]
  00015	88 44 0a 54	 mov	 BYTE PTR [edx+ecx+84], al
$LN2@SetItemToS:

; 60   : }

  00019	5d		 pop	 ebp
  0001a	c2 0c 00	 ret	 12			; 0000000cH
?SetItemToSelf@CPythonExchange@@QAEXKKE@Z ENDP		; CPythonExchange::SetItemToSelf
_TEXT	ENDS
; Function compile flags: /Ogtp
; File d:\metin2\metin2\client_source_clean\client_source_clean\source\userinterface\pythonexchange.cpp
;	COMDAT ?SetItemMetinSocketToTarget@CPythonExchange@@QAEXHHK@Z
_TEXT	SEGMENT
_pos$ = 8						; size = 4
_imetinpos$ = 12					; size = 4
_vnum$ = 16						; size = 4
?SetItemMetinSocketToTarget@CPythonExchange@@QAEXHHK@Z PROC ; CPythonExchange::SetItemMetinSocketToTarget, COMDAT
; _this$ = ecx

; 63   : {

  00000	55		 push	 ebp
  00001	8b ec		 mov	 ebp, esp
  00003	56		 push	 esi

; 64   : 	if (pos >= EXCHANGE_ITEM_MAX_NUM)

  00004	8b 75 08	 mov	 esi, DWORD PTR _pos$[ebp]
  00007	83 fe 0c	 cmp	 esi, 12			; 0000000cH
  0000a	7d 11		 jge	 SHORT $LN2@SetItemMet

; 65   : 		return;
; 66   : 
; 67   : 	m_victim.item_metin[pos][imetinpos] = vnum;

  0000c	8b 45 0c	 mov	 eax, DWORD PTR _imetinpos$[ebp]
  0000f	83 c6 31	 add	 esi, 49			; 00000031H
  00012	8d 14 70	 lea	 edx, DWORD PTR [eax+esi*2]
  00015	8b 45 10	 mov	 eax, DWORD PTR _vnum$[ebp]
  00018	03 d6		 add	 edx, esi
  0001a	89 04 91	 mov	 DWORD PTR [ecx+edx*4], eax
$LN2@SetItemMet:
  0001d	5e		 pop	 esi

; 68   : }

  0001e	5d		 pop	 ebp
  0001f	c2 0c 00	 ret	 12			; 0000000cH
?SetItemMetinSocketToTarget@CPythonExchange@@QAEXHHK@Z ENDP ; CPythonExchange::SetItemMetinSocketToTarget
_TEXT	ENDS
; Function compile flags: /Ogtp
; File d:\metin2\metin2\client_source_clean\client_source_clean\source\userinterface\pythonexchange.cpp
;	COMDAT ?SetItemMetinSocketToSelf@CPythonExchange@@QAEXHHK@Z
_TEXT	SEGMENT
_pos$ = 8						; size = 4
_imetinpos$ = 12					; size = 4
_vnum$ = 16						; size = 4
?SetItemMetinSocketToSelf@CPythonExchange@@QAEXHHK@Z PROC ; CPythonExchange::SetItemMetinSocketToSelf, COMDAT
; _this$ = ecx

; 71   : {

  00000	55		 push	 ebp
  00001	8b ec		 mov	 ebp, esp
  00003	56		 push	 esi

; 72   : 	if (pos >= EXCHANGE_ITEM_MAX_NUM)

  00004	8b 75 08	 mov	 esi, DWORD PTR _pos$[ebp]
  00007	83 fe 0c	 cmp	 esi, 12			; 0000000cH
  0000a	7d 11		 jge	 SHORT $LN2@SetItemMet

; 73   : 		return;
; 74   : 
; 75   : 	m_self.item_metin[pos][imetinpos] = vnum;

  0000c	8b 45 0c	 mov	 eax, DWORD PTR _imetinpos$[ebp]
  0000f	83 c6 08	 add	 esi, 8
  00012	8d 14 70	 lea	 edx, DWORD PTR [eax+esi*2]
  00015	8b 45 10	 mov	 eax, DWORD PTR _vnum$[ebp]
  00018	03 d6		 add	 edx, esi
  0001a	89 04 91	 mov	 DWORD PTR [ecx+edx*4], eax
$LN2@SetItemMet:
  0001d	5e		 pop	 esi

; 76   : }

  0001e	5d		 pop	 ebp
  0001f	c2 0c 00	 ret	 12			; 0000000cH
?SetItemMetinSocketToSelf@CPythonExchange@@QAEXHHK@Z ENDP ; CPythonExchange::SetItemMetinSocketToSelf
_TEXT	ENDS
; Function compile flags: /Ogtp
; File d:\metin2\metin2\client_source_clean\client_source_clean\source\userinterface\pythonexchange.cpp
;	COMDAT ?SetItemAttributeToTarget@CPythonExchange@@QAEXHHEF@Z
_TEXT	SEGMENT
_pos$ = 8						; size = 4
_iattrpos$ = 12						; size = 4
_byType$ = 16						; size = 1
_sValue$ = 20						; size = 2
?SetItemAttributeToTarget@CPythonExchange@@QAEXHHEF@Z PROC ; CPythonExchange::SetItemAttributeToTarget, COMDAT
; _this$ = ecx

; 79   : {

  00000	55		 push	 ebp
  00001	8b ec		 mov	 ebp, esp

; 80   : 	if (pos >= EXCHANGE_ITEM_MAX_NUM)

  00003	8b 45 08	 mov	 eax, DWORD PTR _pos$[ebp]
  00006	56		 push	 esi
  00007	8b f1		 mov	 esi, ecx
  00009	83 f8 0c	 cmp	 eax, 12			; 0000000cH
  0000c	7d 28		 jge	 SHORT $LN2@SetItemAtt

; 81   : 		return;
; 82   : 
; 83   : 	m_victim.item_attr[pos][iattrpos].bType = byType;

  0000e	8d 14 c5 00 00
	00 00		 lea	 edx, DWORD PTR [eax*8]
  00015	2b d0		 sub	 edx, eax
  00017	8a 45 10	 mov	 al, BYTE PTR _byType$[ebp]
  0001a	03 55 0c	 add	 edx, DWORD PTR _iattrpos$[ebp]
  0001d	8d 0c 56	 lea	 ecx, DWORD PTR [esi+edx*2]
  00020	88 84 0a dc 02
	00 00		 mov	 BYTE PTR [edx+ecx+732], al

; 84   : 	m_victim.item_attr[pos][iattrpos].sValue = sValue;

  00027	8d 0c 56	 lea	 ecx, DWORD PTR [esi+edx*2]
  0002a	66 8b 45 14	 mov	 ax, WORD PTR _sValue$[ebp]
  0002e	66 89 84 0a dd
	02 00 00	 mov	 WORD PTR [edx+ecx+733], ax
$LN2@SetItemAtt:
  00036	5e		 pop	 esi

; 85   : }

  00037	5d		 pop	 ebp
  00038	c2 10 00	 ret	 16			; 00000010H
?SetItemAttributeToTarget@CPythonExchange@@QAEXHHEF@Z ENDP ; CPythonExchange::SetItemAttributeToTarget
_TEXT	ENDS
; Function compile flags: /Ogtp
; File d:\metin2\metin2\client_source_clean\client_source_clean\source\userinterface\pythonexchange.cpp
;	COMDAT ?SetItemAttributeToSelf@CPythonExchange@@QAEXHHEF@Z
_TEXT	SEGMENT
_pos$ = 8						; size = 4
_iattrpos$ = 12						; size = 4
_byType$ = 16						; size = 1
_sValue$ = 20						; size = 2
?SetItemAttributeToSelf@CPythonExchange@@QAEXHHEF@Z PROC ; CPythonExchange::SetItemAttributeToSelf, COMDAT
; _this$ = ecx

; 88   : {

  00000	55		 push	 ebp
  00001	8b ec		 mov	 ebp, esp

; 89   : 	if (pos >= EXCHANGE_ITEM_MAX_NUM)

  00003	8b 45 08	 mov	 eax, DWORD PTR _pos$[ebp]
  00006	56		 push	 esi
  00007	8b f1		 mov	 esi, ecx
  00009	83 f8 0c	 cmp	 eax, 12			; 0000000cH
  0000c	7d 28		 jge	 SHORT $LN2@SetItemAtt

; 90   : 		return;
; 91   : 
; 92   : 	m_self.item_attr[pos][iattrpos].bType = byType;

  0000e	8d 14 c5 00 00
	00 00		 lea	 edx, DWORD PTR [eax*8]
  00015	2b d0		 sub	 edx, eax
  00017	8a 45 10	 mov	 al, BYTE PTR _byType$[ebp]
  0001a	03 55 0c	 add	 edx, DWORD PTR _iattrpos$[ebp]
  0001d	8d 0c 56	 lea	 ecx, DWORD PTR [esi+edx*2]
  00020	88 84 0a f0 00
	00 00		 mov	 BYTE PTR [edx+ecx+240], al

; 93   : 	m_self.item_attr[pos][iattrpos].sValue = sValue;

  00027	8d 0c 56	 lea	 ecx, DWORD PTR [esi+edx*2]
  0002a	66 8b 45 14	 mov	 ax, WORD PTR _sValue$[ebp]
  0002e	66 89 84 0a f1
	00 00 00	 mov	 WORD PTR [edx+ecx+241], ax
$LN2@SetItemAtt:
  00036	5e		 pop	 esi

; 94   : }

  00037	5d		 pop	 ebp
  00038	c2 10 00	 ret	 16			; 00000010H
?SetItemAttributeToSelf@CPythonExchange@@QAEXHHEF@Z ENDP ; CPythonExchange::SetItemAttributeToSelf
_TEXT	ENDS
; Function compile flags: /Ogtp
; File d:\metin2\metin2\client_source_clean\client_source_clean\source\userinterface\pythonexchange.cpp
;	COMDAT ?DelItemOfTarget@CPythonExchange@@QAEXE@Z
_TEXT	SEGMENT
_pos$ = 8						; size = 1
?DelItemOfTarget@CPythonExchange@@QAEXE@Z PROC		; CPythonExchange::DelItemOfTarget, COMDAT
; _this$ = ecx

; 97   : {

  00000	55		 push	 ebp
  00001	8b ec		 mov	 ebp, esp

; 98   : 	if (pos >= EXCHANGE_ITEM_MAX_NUM)

  00003	8a 45 08	 mov	 al, BYTE PTR _pos$[ebp]
  00006	3c 0c		 cmp	 al, 12			; 0000000cH
  00008	73 16		 jae	 SHORT $LN2@DelItemOfT

; 99   : 		return;
; 100  : 
; 101  : 	m_victim.item_vnum[pos] = 0;

  0000a	0f b6 c0	 movzx	 eax, al
  0000d	c7 84 81 10 02
	00 00 00 00 00
	00		 mov	 DWORD PTR [ecx+eax*4+528], 0

; 102  : 	m_victim.item_count[pos] = 0;

  00018	c6 84 08 40 02
	00 00 00	 mov	 BYTE PTR [eax+ecx+576], 0
$LN2@DelItemOfT:

; 103  : }

  00020	5d		 pop	 ebp
  00021	c2 04 00	 ret	 4
?DelItemOfTarget@CPythonExchange@@QAEXE@Z ENDP		; CPythonExchange::DelItemOfTarget
_TEXT	ENDS
; Function compile flags: /Ogtp
; File d:\metin2\metin2\client_source_clean\client_source_clean\source\userinterface\pythonexchange.cpp
;	COMDAT ?DelItemOfSelf@CPythonExchange@@QAEXE@Z
_TEXT	SEGMENT
_pos$ = 8						; size = 1
?DelItemOfSelf@CPythonExchange@@QAEXE@Z PROC		; CPythonExchange::DelItemOfSelf, COMDAT
; _this$ = ecx

; 106  : {

  00000	55		 push	 ebp
  00001	8b ec		 mov	 ebp, esp

; 107  : 	if (pos >= EXCHANGE_ITEM_MAX_NUM)

  00003	8a 45 08	 mov	 al, BYTE PTR _pos$[ebp]
  00006	3c 0c		 cmp	 al, 12			; 0000000cH
  00008	73 10		 jae	 SHORT $LN2@DelItemOfS

; 108  : 		return;
; 109  : 
; 110  : 	m_self.item_vnum[pos] = 0;

  0000a	0f b6 c0	 movzx	 eax, al
  0000d	c7 44 81 24 00
	00 00 00	 mov	 DWORD PTR [ecx+eax*4+36], 0

; 111  : 	m_self.item_count[pos] = 0;

  00015	c6 44 08 54 00	 mov	 BYTE PTR [eax+ecx+84], 0
$LN2@DelItemOfS:

; 112  : }

  0001a	5d		 pop	 ebp
  0001b	c2 04 00	 ret	 4
?DelItemOfSelf@CPythonExchange@@QAEXE@Z ENDP		; CPythonExchange::DelItemOfSelf
_TEXT	ENDS
; Function compile flags: /Ogtp
; File d:\metin2\metin2\client_source_clean\client_source_clean\source\userinterface\pythonexchange.cpp
;	COMDAT ?GetItemVnumFromTarget@CPythonExchange@@QAEKE@Z
_TEXT	SEGMENT
_pos$ = 8						; size = 1
?GetItemVnumFromTarget@CPythonExchange@@QAEKE@Z PROC	; CPythonExchange::GetItemVnumFromTarget, COMDAT
; _this$ = ecx

; 115  : {

  00000	55		 push	 ebp
  00001	8b ec		 mov	 ebp, esp

; 116  : 	if (pos >= EXCHANGE_ITEM_MAX_NUM)

  00003	8a 45 08	 mov	 al, BYTE PTR _pos$[ebp]
  00006	3c 0c		 cmp	 al, 12			; 0000000cH
  00008	72 06		 jb	 SHORT $LN1@GetItemVnu

; 117  : 		return 0;

  0000a	33 c0		 xor	 eax, eax

; 120  : }

  0000c	5d		 pop	 ebp
  0000d	c2 04 00	 ret	 4
$LN1@GetItemVnu:

; 118  : 
; 119  : 	return m_victim.item_vnum[pos];

  00010	0f b6 c0	 movzx	 eax, al
  00013	8b 84 81 10 02
	00 00		 mov	 eax, DWORD PTR [ecx+eax*4+528]

; 120  : }

  0001a	5d		 pop	 ebp
  0001b	c2 04 00	 ret	 4
?GetItemVnumFromTarget@CPythonExchange@@QAEKE@Z ENDP	; CPythonExchange::GetItemVnumFromTarget
_TEXT	ENDS
; Function compile flags: /Ogtp
; File d:\metin2\metin2\client_source_clean\client_source_clean\source\userinterface\pythonexchange.cpp
;	COMDAT ?GetItemVnumFromSelf@CPythonExchange@@QAEKE@Z
_TEXT	SEGMENT
_pos$ = 8						; size = 1
?GetItemVnumFromSelf@CPythonExchange@@QAEKE@Z PROC	; CPythonExchange::GetItemVnumFromSelf, COMDAT
; _this$ = ecx

; 123  : {

  00000	55		 push	 ebp
  00001	8b ec		 mov	 ebp, esp

; 124  : 	if (pos >= EXCHANGE_ITEM_MAX_NUM)

  00003	8a 45 08	 mov	 al, BYTE PTR _pos$[ebp]
  00006	3c 0c		 cmp	 al, 12			; 0000000cH
  00008	72 06		 jb	 SHORT $LN1@GetItemVnu

; 125  : 		return 0;

  0000a	33 c0		 xor	 eax, eax

; 128  : }

  0000c	5d		 pop	 ebp
  0000d	c2 04 00	 ret	 4
$LN1@GetItemVnu:

; 126  : 
; 127  : 	return m_self.item_vnum[pos];

  00010	0f b6 c0	 movzx	 eax, al
  00013	8b 44 81 24	 mov	 eax, DWORD PTR [ecx+eax*4+36]

; 128  : }

  00017	5d		 pop	 ebp
  00018	c2 04 00	 ret	 4
?GetItemVnumFromSelf@CPythonExchange@@QAEKE@Z ENDP	; CPythonExchange::GetItemVnumFromSelf
_TEXT	ENDS
; Function compile flags: /Ogtp
; File d:\metin2\metin2\client_source_clean\client_source_clean\source\userinterface\pythonexchange.cpp
;	COMDAT ?GetItemCountFromTarget@CPythonExchange@@QAEEE@Z
_TEXT	SEGMENT
_pos$ = 8						; size = 1
?GetItemCountFromTarget@CPythonExchange@@QAEEE@Z PROC	; CPythonExchange::GetItemCountFromTarget, COMDAT
; _this$ = ecx

; 131  : {

  00000	55		 push	 ebp
  00001	8b ec		 mov	 ebp, esp

; 132  : 	if (pos >= EXCHANGE_ITEM_MAX_NUM)

  00003	8a 45 08	 mov	 al, BYTE PTR _pos$[ebp]
  00006	3c 0c		 cmp	 al, 12			; 0000000cH
  00008	72 06		 jb	 SHORT $LN1@GetItemCou

; 133  : 		return 0;

  0000a	32 c0		 xor	 al, al

; 136  : }

  0000c	5d		 pop	 ebp
  0000d	c2 04 00	 ret	 4
$LN1@GetItemCou:

; 134  : 
; 135  : 	return m_victim.item_count[pos];

  00010	0f b6 c0	 movzx	 eax, al
  00013	8a 84 08 40 02
	00 00		 mov	 al, BYTE PTR [eax+ecx+576]

; 136  : }

  0001a	5d		 pop	 ebp
  0001b	c2 04 00	 ret	 4
?GetItemCountFromTarget@CPythonExchange@@QAEEE@Z ENDP	; CPythonExchange::GetItemCountFromTarget
_TEXT	ENDS
; Function compile flags: /Ogtp
; File d:\metin2\metin2\client_source_clean\client_source_clean\source\userinterface\pythonexchange.cpp
;	COMDAT ?GetItemCountFromSelf@CPythonExchange@@QAEEE@Z
_TEXT	SEGMENT
_pos$ = 8						; size = 1
?GetItemCountFromSelf@CPythonExchange@@QAEEE@Z PROC	; CPythonExchange::GetItemCountFromSelf, COMDAT
; _this$ = ecx

; 139  : {

  00000	55		 push	 ebp
  00001	8b ec		 mov	 ebp, esp

; 140  : 	if (pos >= EXCHANGE_ITEM_MAX_NUM)

  00003	8a 45 08	 mov	 al, BYTE PTR _pos$[ebp]
  00006	3c 0c		 cmp	 al, 12			; 0000000cH
  00008	72 06		 jb	 SHORT $LN1@GetItemCou

; 141  : 		return 0;

  0000a	32 c0		 xor	 al, al

; 144  : }

  0000c	5d		 pop	 ebp
  0000d	c2 04 00	 ret	 4
$LN1@GetItemCou:

; 142  : 
; 143  : 	return m_self.item_count[pos];

  00010	0f b6 c0	 movzx	 eax, al
  00013	8a 44 08 54	 mov	 al, BYTE PTR [eax+ecx+84]

; 144  : }

  00017	5d		 pop	 ebp
  00018	c2 04 00	 ret	 4
?GetItemCountFromSelf@CPythonExchange@@QAEEE@Z ENDP	; CPythonExchange::GetItemCountFromSelf
_TEXT	ENDS
; Function compile flags: /Ogtp
; File d:\metin2\metin2\client_source_clean\client_source_clean\source\userinterface\pythonexchange.cpp
;	COMDAT ?GetItemMetinSocketFromTarget@CPythonExchange@@QAEKEH@Z
_TEXT	SEGMENT
_pos$ = 8						; size = 1
_iMetinSocketPos$ = 12					; size = 4
?GetItemMetinSocketFromTarget@CPythonExchange@@QAEKEH@Z PROC ; CPythonExchange::GetItemMetinSocketFromTarget, COMDAT
; _this$ = ecx

; 147  : {

  00000	55		 push	 ebp
  00001	8b ec		 mov	 ebp, esp

; 148  : 	if (pos >= EXCHANGE_ITEM_MAX_NUM)

  00003	8a 45 08	 mov	 al, BYTE PTR _pos$[ebp]
  00006	8b d1		 mov	 edx, ecx
  00008	3c 0c		 cmp	 al, 12			; 0000000cH
  0000a	72 06		 jb	 SHORT $LN1@GetItemMet

; 149  : 		return 0;

  0000c	33 c0		 xor	 eax, eax

; 152  : }

  0000e	5d		 pop	 ebp
  0000f	c2 08 00	 ret	 8
$LN1@GetItemMet:

; 150  : 
; 151  : 	return m_victim.item_metin[pos][iMetinSocketPos];

  00012	0f b6 c8	 movzx	 ecx, al
  00015	8b 45 0c	 mov	 eax, DWORD PTR _iMetinSocketPos$[ebp]
  00018	83 c1 31	 add	 ecx, 49			; 00000031H
  0001b	8d 04 48	 lea	 eax, DWORD PTR [eax+ecx*2]
  0001e	03 c1		 add	 eax, ecx
  00020	8b 04 82	 mov	 eax, DWORD PTR [edx+eax*4]

; 152  : }

  00023	5d		 pop	 ebp
  00024	c2 08 00	 ret	 8
?GetItemMetinSocketFromTarget@CPythonExchange@@QAEKEH@Z ENDP ; CPythonExchange::GetItemMetinSocketFromTarget
_TEXT	ENDS
; Function compile flags: /Ogtp
; File d:\metin2\metin2\client_source_clean\client_source_clean\source\userinterface\pythonexchange.cpp
;	COMDAT ?GetItemMetinSocketFromSelf@CPythonExchange@@QAEKEH@Z
_TEXT	SEGMENT
_pos$ = 8						; size = 1
_iMetinSocketPos$ = 12					; size = 4
?GetItemMetinSocketFromSelf@CPythonExchange@@QAEKEH@Z PROC ; CPythonExchange::GetItemMetinSocketFromSelf, COMDAT
; _this$ = ecx

; 155  : {

  00000	55		 push	 ebp
  00001	8b ec		 mov	 ebp, esp

; 156  : 	if (pos >= EXCHANGE_ITEM_MAX_NUM)

  00003	8a 45 08	 mov	 al, BYTE PTR _pos$[ebp]
  00006	8b d1		 mov	 edx, ecx
  00008	3c 0c		 cmp	 al, 12			; 0000000cH
  0000a	72 06		 jb	 SHORT $LN1@GetItemMet

; 157  : 		return 0;

  0000c	33 c0		 xor	 eax, eax

; 160  : }

  0000e	5d		 pop	 ebp
  0000f	c2 08 00	 ret	 8
$LN1@GetItemMet:

; 158  : 
; 159  : 	return m_self.item_metin[pos][iMetinSocketPos];

  00012	0f b6 c8	 movzx	 ecx, al
  00015	8b 45 0c	 mov	 eax, DWORD PTR _iMetinSocketPos$[ebp]
  00018	83 c1 08	 add	 ecx, 8
  0001b	8d 04 48	 lea	 eax, DWORD PTR [eax+ecx*2]
  0001e	03 c1		 add	 eax, ecx
  00020	8b 04 82	 mov	 eax, DWORD PTR [edx+eax*4]

; 160  : }

  00023	5d		 pop	 ebp
  00024	c2 08 00	 ret	 8
?GetItemMetinSocketFromSelf@CPythonExchange@@QAEKEH@Z ENDP ; CPythonExchange::GetItemMetinSocketFromSelf
_TEXT	ENDS
; Function compile flags: /Ogtp
; File d:\metin2\metin2\client_source_clean\client_source_clean\source\userinterface\pythonexchange.cpp
;	COMDAT ?GetItemAttributeFromTarget@CPythonExchange@@QAEXEHPAEPAF@Z
_TEXT	SEGMENT
_pos$ = 8						; size = 1
_iAttrPos$ = 12						; size = 4
_pbyType$ = 16						; size = 4
_psValue$ = 20						; size = 4
?GetItemAttributeFromTarget@CPythonExchange@@QAEXEHPAEPAF@Z PROC ; CPythonExchange::GetItemAttributeFromTarget, COMDAT
; _this$ = ecx

; 163  : {

  00000	55		 push	 ebp
  00001	8b ec		 mov	 ebp, esp

; 164  : 	if (pos >= EXCHANGE_ITEM_MAX_NUM)

  00003	8a 45 08	 mov	 al, BYTE PTR _pos$[ebp]
  00006	56		 push	 esi
  00007	8b f1		 mov	 esi, ecx
  00009	3c 0c		 cmp	 al, 12			; 0000000cH
  0000b	73 2f		 jae	 SHORT $LN2@GetItemAtt

; 165  : 		return;
; 166  : 
; 167  : 	*pbyType = m_victim.item_attr[pos][iAttrPos].bType;

  0000d	0f b6 c0	 movzx	 eax, al
  00010	8d 14 c5 00 00
	00 00		 lea	 edx, DWORD PTR [eax*8]
  00017	2b d0		 sub	 edx, eax
  00019	03 55 0c	 add	 edx, DWORD PTR _iAttrPos$[ebp]
  0001c	8d 04 56	 lea	 eax, DWORD PTR [esi+edx*2]
  0001f	8a 8c 02 dc 02
	00 00		 mov	 cl, BYTE PTR [edx+eax+732]
  00026	8b 45 10	 mov	 eax, DWORD PTR _pbyType$[ebp]
  00029	88 08		 mov	 BYTE PTR [eax], cl

; 168  : 	*psValue = m_victim.item_attr[pos][iAttrPos].sValue;

  0002b	8d 04 56	 lea	 eax, DWORD PTR [esi+edx*2]
  0002e	66 8b 8c 02 dd
	02 00 00	 mov	 cx, WORD PTR [edx+eax+733]
  00036	8b 45 14	 mov	 eax, DWORD PTR _psValue$[ebp]
  00039	66 89 08	 mov	 WORD PTR [eax], cx
$LN2@GetItemAtt:
  0003c	5e		 pop	 esi

; 169  : }

  0003d	5d		 pop	 ebp
  0003e	c2 10 00	 ret	 16			; 00000010H
?GetItemAttributeFromTarget@CPythonExchange@@QAEXEHPAEPAF@Z ENDP ; CPythonExchange::GetItemAttributeFromTarget
_TEXT	ENDS
; Function compile flags: /Ogtp
; File d:\metin2\metin2\client_source_clean\client_source_clean\source\userinterface\pythonexchange.cpp
;	COMDAT ?GetItemAttributeFromSelf@CPythonExchange@@QAEXEHPAEPAF@Z
_TEXT	SEGMENT
_pos$ = 8						; size = 1
_iAttrPos$ = 12						; size = 4
_pbyType$ = 16						; size = 4
_psValue$ = 20						; size = 4
?GetItemAttributeFromSelf@CPythonExchange@@QAEXEHPAEPAF@Z PROC ; CPythonExchange::GetItemAttributeFromSelf, COMDAT
; _this$ = ecx

; 172  : {

  00000	55		 push	 ebp
  00001	8b ec		 mov	 ebp, esp

; 173  : 	if (pos >= EXCHANGE_ITEM_MAX_NUM)

  00003	8a 45 08	 mov	 al, BYTE PTR _pos$[ebp]
  00006	56		 push	 esi
  00007	8b f1		 mov	 esi, ecx
  00009	3c 0c		 cmp	 al, 12			; 0000000cH
  0000b	73 2f		 jae	 SHORT $LN2@GetItemAtt

; 174  : 		return;
; 175  : 
; 176  : 	*pbyType = m_self.item_attr[pos][iAttrPos].bType;

  0000d	0f b6 c0	 movzx	 eax, al
  00010	8d 14 c5 00 00
	00 00		 lea	 edx, DWORD PTR [eax*8]
  00017	2b d0		 sub	 edx, eax
  00019	03 55 0c	 add	 edx, DWORD PTR _iAttrPos$[ebp]
  0001c	8d 04 56	 lea	 eax, DWORD PTR [esi+edx*2]
  0001f	8a 8c 02 f0 00
	00 00		 mov	 cl, BYTE PTR [edx+eax+240]
  00026	8b 45 10	 mov	 eax, DWORD PTR _pbyType$[ebp]
  00029	88 08		 mov	 BYTE PTR [eax], cl

; 177  : 	*psValue = m_self.item_attr[pos][iAttrPos].sValue;

  0002b	8d 04 56	 lea	 eax, DWORD PTR [esi+edx*2]
  0002e	66 8b 8c 02 f1
	00 00 00	 mov	 cx, WORD PTR [edx+eax+241]
  00036	8b 45 14	 mov	 eax, DWORD PTR _psValue$[ebp]
  00039	66 89 08	 mov	 WORD PTR [eax], cx
$LN2@GetItemAtt:
  0003c	5e		 pop	 esi

; 178  : }

  0003d	5d		 pop	 ebp
  0003e	c2 10 00	 ret	 16			; 00000010H
?GetItemAttributeFromSelf@CPythonExchange@@QAEXEHPAEPAF@Z ENDP ; CPythonExchange::GetItemAttributeFromSelf
_TEXT	ENDS
; Function compile flags: /Ogtp
; File d:\metin2\metin2\client_source_clean\client_source_clean\source\userinterface\pythonexchange.cpp
;	COMDAT ?SetAcceptToTarget@CPythonExchange@@QAEXE@Z
_TEXT	SEGMENT
_Accept$ = 8						; size = 1
?SetAcceptToTarget@CPythonExchange@@QAEXE@Z PROC	; CPythonExchange::SetAcceptToTarget, COMDAT
; _this$ = ecx

; 181  : {

  00000	55		 push	 ebp
  00001	8b ec		 mov	 ebp, esp

; 182  : 	m_victim.accept = Accept ? true : false;

  00003	80 7d 08 00	 cmp	 BYTE PTR _Accept$[ebp], 0
  00007	0f 95 c0	 setne	 al
  0000a	88 81 d8 03 00
	00		 mov	 BYTE PTR [ecx+984], al

; 183  : }

  00010	5d		 pop	 ebp
  00011	c2 04 00	 ret	 4
?SetAcceptToTarget@CPythonExchange@@QAEXE@Z ENDP	; CPythonExchange::SetAcceptToTarget
_TEXT	ENDS
; Function compile flags: /Ogtp
; File d:\metin2\metin2\client_source_clean\client_source_clean\source\userinterface\pythonexchange.cpp
;	COMDAT ?SetAcceptToSelf@CPythonExchange@@QAEXE@Z
_TEXT	SEGMENT
_Accept$ = 8						; size = 1
?SetAcceptToSelf@CPythonExchange@@QAEXE@Z PROC		; CPythonExchange::SetAcceptToSelf, COMDAT
; _this$ = ecx

; 186  : {

  00000	55		 push	 ebp
  00001	8b ec		 mov	 ebp, esp

; 187  : 	m_self.accept = Accept ? true : false;

  00003	80 7d 08 00	 cmp	 BYTE PTR _Accept$[ebp], 0
  00007	0f 95 c0	 setne	 al
  0000a	88 81 ec 01 00
	00		 mov	 BYTE PTR [ecx+492], al

; 188  : }

  00010	5d		 pop	 ebp
  00011	c2 04 00	 ret	 4
?SetAcceptToSelf@CPythonExchange@@QAEXE@Z ENDP		; CPythonExchange::SetAcceptToSelf
_TEXT	ENDS
; Function compile flags: /Ogtp
; File d:\metin2\metin2\client_source_clean\client_source_clean\source\userinterface\pythonexchange.cpp
;	COMDAT ?GetAcceptFromTarget@CPythonExchange@@QAE_NXZ
_TEXT	SEGMENT
?GetAcceptFromTarget@CPythonExchange@@QAE_NXZ PROC	; CPythonExchange::GetAcceptFromTarget, COMDAT
; _this$ = ecx

; 192  : 	return m_victim.accept ? true : false;

  00000	80 b9 d8 03 00
	00 00		 cmp	 BYTE PTR [ecx+984], 0
  00007	0f 95 c0	 setne	 al

; 193  : }

  0000a	c3		 ret	 0
?GetAcceptFromTarget@CPythonExchange@@QAE_NXZ ENDP	; CPythonExchange::GetAcceptFromTarget
_TEXT	ENDS
; Function compile flags: /Ogtp
; File d:\metin2\metin2\client_source_clean\client_source_clean\source\userinterface\pythonexchange.cpp
;	COMDAT ?GetAcceptFromSelf@CPythonExchange@@QAE_NXZ
_TEXT	SEGMENT
?GetAcceptFromSelf@CPythonExchange@@QAE_NXZ PROC	; CPythonExchange::GetAcceptFromSelf, COMDAT
; _this$ = ecx

; 197  : 	return m_self.accept ? true : false;

  00000	80 b9 ec 01 00
	00 00		 cmp	 BYTE PTR [ecx+492], 0
  00007	0f 95 c0	 setne	 al

; 198  : }

  0000a	c3		 ret	 0
?GetAcceptFromSelf@CPythonExchange@@QAE_NXZ ENDP	; CPythonExchange::GetAcceptFromSelf
_TEXT	ENDS
; Function compile flags: /Ogtp
; File d:\metin2\metin2\client_source_clean\client_source_clean\source\userinterface\pythonexchange.cpp
;	COMDAT ?GetElkMode@CPythonExchange@@QAE_NXZ
_TEXT	SEGMENT
?GetElkMode@CPythonExchange@@QAE_NXZ PROC		; CPythonExchange::GetElkMode, COMDAT
; _this$ = ecx

; 202  : 	return m_elk_mode;

  00000	8a 41 05	 mov	 al, BYTE PTR [ecx+5]

; 203  : }

  00003	c3		 ret	 0
?GetElkMode@CPythonExchange@@QAE_NXZ ENDP		; CPythonExchange::GetElkMode
_TEXT	ENDS
; Function compile flags: /Ogtp
; File d:\metin2\metin2\client_source_clean\client_source_clean\source\userinterface\pythonexchange.cpp
;	COMDAT ?SetElkMode@CPythonExchange@@QAEX_N@Z
_TEXT	SEGMENT
_value$ = 8						; size = 1
?SetElkMode@CPythonExchange@@QAEX_N@Z PROC		; CPythonExchange::SetElkMode, COMDAT
; _this$ = ecx

; 206  : {

  00000	55		 push	 ebp
  00001	8b ec		 mov	 ebp, esp

; 207  : 	m_elk_mode = value;

  00003	8a 45 08	 mov	 al, BYTE PTR _value$[ebp]
  00006	88 41 05	 mov	 BYTE PTR [ecx+5], al

; 208  : }

  00009	5d		 pop	 ebp
  0000a	c2 04 00	 ret	 4
?SetElkMode@CPythonExchange@@QAEX_N@Z ENDP		; CPythonExchange::SetElkMode
_TEXT	ENDS
; Function compile flags: /Ogtp
; File d:\metin2\metin2\client_source_clean\client_source_clean\source\userinterface\pythonexchange.cpp
;	COMDAT ?Start@CPythonExchange@@QAEXXZ
_TEXT	SEGMENT
?Start@CPythonExchange@@QAEXXZ PROC			; CPythonExchange::Start, COMDAT
; _this$ = ecx

; 212  : 	m_isTrading = true;

  00000	c6 41 04 01	 mov	 BYTE PTR [ecx+4], 1

; 213  : }

  00004	c3		 ret	 0
?Start@CPythonExchange@@QAEXXZ ENDP			; CPythonExchange::Start
_TEXT	ENDS
; Function compile flags: /Ogtp
; File d:\metin2\metin2\client_source_clean\client_source_clean\source\userinterface\pythonexchange.cpp
;	COMDAT ?End@CPythonExchange@@QAEXXZ
_TEXT	SEGMENT
?End@CPythonExchange@@QAEXXZ PROC			; CPythonExchange::End, COMDAT
; _this$ = ecx

; 217  : 	m_isTrading = false;

  00000	c6 41 04 00	 mov	 BYTE PTR [ecx+4], 0

; 218  : }

  00004	c3		 ret	 0
?End@CPythonExchange@@QAEXXZ ENDP			; CPythonExchange::End
_TEXT	ENDS
; Function compile flags: /Ogtp
; File d:\metin2\metin2\client_source_clean\client_source_clean\source\userinterface\pythonexchange.cpp
;	COMDAT ?isTrading@CPythonExchange@@QAE_NXZ
_TEXT	SEGMENT
?isTrading@CPythonExchange@@QAE_NXZ PROC		; CPythonExchange::isTrading, COMDAT
; _this$ = ecx

; 222  : 	return m_isTrading;

  00000	8a 41 04	 mov	 al, BYTE PTR [ecx+4]

; 223  : }

  00003	c3		 ret	 0
?isTrading@CPythonExchange@@QAE_NXZ ENDP		; CPythonExchange::isTrading
_TEXT	ENDS
; Function compile flags: /Ogtp
; File d:\metin2\metin2\client_source_clean\client_source_clean\source\userinterface\pythonexchange.cpp
;	COMDAT ?Clear@CPythonExchange@@QAEXXZ
_TEXT	SEGMENT
?Clear@CPythonExchange@@QAEXXZ PROC			; CPythonExchange::Clear, COMDAT
; _this$ = ecx

; 226  : {

  00000	56		 push	 esi
  00001	8b f1		 mov	 esi, ecx

; 227  : 	memset(&m_self, 0, sizeof(m_self));

  00003	68 ec 01 00 00	 push	 492			; 000001ecH
  00008	6a 00		 push	 0
  0000a	8d 46 08	 lea	 eax, DWORD PTR [esi+8]
  0000d	50		 push	 eax
  0000e	e8 00 00 00 00	 call	 _memset

; 228  : 	memset(&m_victim, 0, sizeof(m_victim));

  00013	68 ec 01 00 00	 push	 492			; 000001ecH
  00018	8d 86 f4 01 00
	00		 lea	 eax, DWORD PTR [esi+500]
  0001e	6a 00		 push	 0
  00020	50		 push	 eax
  00021	e8 00 00 00 00	 call	 _memset
  00026	83 c4 18	 add	 esp, 24			; 00000018H
  00029	5e		 pop	 esi

; 229  : /*
; 230  : 	m_self.item_vnum[0] = 30;
; 231  : 	m_victim.item_vnum[0] = 30;
; 232  : 	m_victim.item_vnum[1] = 40;
; 233  : 	m_victim.item_vnum[2] = 50;
; 234  : */
; 235  : }

  0002a	c3		 ret	 0
?Clear@CPythonExchange@@QAEXXZ ENDP			; CPythonExchange::Clear
_TEXT	ENDS
; Function compile flags: /Ogtp
;	COMDAT ??_GCPythonExchange@@UAEPAXI@Z
_TEXT	SEGMENT
___flags$ = 8						; size = 4
??_GCPythonExchange@@UAEPAXI@Z PROC			; CPythonExchange::`scalar deleting destructor', COMDAT
; _this$ = ecx
  00000	55		 push	 ebp
  00001	8b ec		 mov	 ebp, esp
  00003	56		 push	 esi
  00004	8b f1		 mov	 esi, ecx
  00006	e8 00 00 00 00	 call	 ??1CPythonExchange@@UAE@XZ ; CPythonExchange::~CPythonExchange
  0000b	f6 45 08 01	 test	 BYTE PTR ___flags$[ebp], 1
  0000f	74 09		 je	 SHORT $LN4@scalar
  00011	56		 push	 esi
  00012	e8 00 00 00 00	 call	 ??3@YAXPAX@Z		; operator delete
  00017	83 c4 04	 add	 esp, 4
$LN4@scalar:
  0001a	8b c6		 mov	 eax, esi
  0001c	5e		 pop	 esi
  0001d	5d		 pop	 ebp
  0001e	c2 04 00	 ret	 4
??_GCPythonExchange@@UAEPAXI@Z ENDP			; CPythonExchange::`scalar deleting destructor'
_TEXT	ENDS
; Function compile flags: /Ogtp
; File d:\metin2\metin2\client_source_clean\client_source_clean\source\eterbase\singleton.h
;	COMDAT ??0?$CSingleton@VCPythonExchange@@@@QAE@XZ
_TEXT	SEGMENT
??0?$CSingleton@VCPythonExchange@@@@QAE@XZ PROC		; CSingleton<CPythonExchange>::CSingleton<CPythonExchange>, COMDAT
; _this$ = ecx

; 11   : 	CSingleton()

  00000	c7 01 00 00 00
	00		 mov	 DWORD PTR [ecx], OFFSET ??_7?$CSingleton@VCPythonExchange@@@@6B@

; 12   : 	{ 
; 13   : 		assert(!ms_singleton);
; 14   : 		int offset = (int) (T*) 1 - (int) (CSingleton <T>*) (T*) 1; 
; 15   : 		ms_singleton = (T*) ((int) this + offset);
; 16   : 	} 

  00006	8b c1		 mov	 eax, ecx
  00008	89 0d 00 00 00
	00		 mov	 DWORD PTR ?ms_singleton@?$CSingleton@VCPythonExchange@@@@0PAVCPythonExchange@@A, ecx ; CSingleton<CPythonExchange>::ms_singleton
  0000e	c3		 ret	 0
??0?$CSingleton@VCPythonExchange@@@@QAE@XZ ENDP		; CSingleton<CPythonExchange>::CSingleton<CPythonExchange>
_TEXT	ENDS
; Function compile flags: /Ogtp
; File d:\metin2\metin2\client_source_clean\client_source_clean\source\eterbase\singleton.h
;	COMDAT ??1?$CSingleton@VCPythonExchange@@@@UAE@XZ
_TEXT	SEGMENT
??1?$CSingleton@VCPythonExchange@@@@UAE@XZ PROC		; CSingleton<CPythonExchange>::~CSingleton<CPythonExchange>, COMDAT
; _this$ = ecx

; 19   : 	{ 

  00000	c7 01 00 00 00
	00		 mov	 DWORD PTR [ecx], OFFSET ??_7?$CSingleton@VCPythonExchange@@@@6B@

; 20   : 		assert(ms_singleton);
; 21   : 		ms_singleton = 0; 

  00006	c7 05 00 00 00
	00 00 00 00 00	 mov	 DWORD PTR ?ms_singleton@?$CSingleton@VCPythonExchange@@@@0PAVCPythonExchange@@A, 0 ; CSingleton<CPythonExchange>::ms_singleton

; 22   : 	}

  00010	c3		 ret	 0
??1?$CSingleton@VCPythonExchange@@@@UAE@XZ ENDP		; CSingleton<CPythonExchange>::~CSingleton<CPythonExchange>
_TEXT	ENDS
; Function compile flags: /Ogtp
; File d:\metin2\metin2\client_source_clean\client_source_clean\source\eterbase\singleton.h
;	COMDAT ??_G?$CSingleton@VCPythonExchange@@@@UAEPAXI@Z
_TEXT	SEGMENT
___flags$ = 8						; size = 4
??_G?$CSingleton@VCPythonExchange@@@@UAEPAXI@Z PROC	; CSingleton<CPythonExchange>::`scalar deleting destructor', COMDAT
; _this$ = ecx
  00000	55		 push	 ebp
  00001	8b ec		 mov	 ebp, esp
  00003	f6 45 08 01	 test	 BYTE PTR ___flags$[ebp], 1
  00007	56		 push	 esi
  00008	8b f1		 mov	 esi, ecx

; 21   : 		ms_singleton = 0; 

  0000a	c7 05 00 00 00
	00 00 00 00 00	 mov	 DWORD PTR ?ms_singleton@?$CSingleton@VCPythonExchange@@@@0PAVCPythonExchange@@A, 0 ; CSingleton<CPythonExchange>::ms_singleton
  00014	c7 06 00 00 00
	00		 mov	 DWORD PTR [esi], OFFSET ??_7?$CSingleton@VCPythonExchange@@@@6B@
  0001a	74 09		 je	 SHORT $LN6@scalar
  0001c	56		 push	 esi
  0001d	e8 00 00 00 00	 call	 ??3@YAXPAX@Z		; operator delete
  00022	83 c4 04	 add	 esp, 4
$LN6@scalar:
  00025	8b c6		 mov	 eax, esi
  00027	5e		 pop	 esi
  00028	5d		 pop	 ebp
  00029	c2 04 00	 ret	 4
??_G?$CSingleton@VCPythonExchange@@@@UAEPAXI@Z ENDP	; CSingleton<CPythonExchange>::`scalar deleting destructor'
_TEXT	ENDS
END
