; Listing generated by Microsoft (R) Optimizing Compiler Version 18.00.40629.0 

	TITLE	D:\Metin2\Metin2\client_source_clean\client_source_clean\source\UserInterface\PythonExceptionSender.cpp
	.686P
	.XMM
	include listing.inc
	.model	flat

INCLUDELIB OLDNAMES

PUBLIC	??_R2IPythonExceptionSender@@8			; IPythonExceptionSender::`RTTI Base Class Array'
PUBLIC	??_R2CPythonExceptionSender@@8			; CPythonExceptionSender::`RTTI Base Class Array'
PUBLIC	??_R1A@?0A@EA@IPythonExceptionSender@@8		; IPythonExceptionSender::`RTTI Base Class Descriptor at (0,-1,0,64)'
PUBLIC	??_R1A@?0A@EA@CPythonExceptionSender@@8		; CPythonExceptionSender::`RTTI Base Class Descriptor at (0,-1,0,64)'
PUBLIC	??_R0?AVCPythonExceptionSender@@@8		; CPythonExceptionSender `RTTI Type Descriptor'
PUBLIC	??_R3CPythonExceptionSender@@8			; CPythonExceptionSender::`RTTI Class Hierarchy Descriptor'
PUBLIC	??_R0?AVIPythonExceptionSender@@@8		; IPythonExceptionSender `RTTI Type Descriptor'
PUBLIC	??_R3IPythonExceptionSender@@8			; IPythonExceptionSender::`RTTI Class Hierarchy Descriptor'
PUBLIC	??_R4CPythonExceptionSender@@6B@		; CPythonExceptionSender::`RTTI Complete Object Locator'
PUBLIC	??_7IPythonExceptionSender@@6B@			; IPythonExceptionSender::`vftable'
PUBLIC	??_R4IPythonExceptionSender@@6B@		; IPythonExceptionSender::`RTTI Complete Object Locator'
PUBLIC	??_7CPythonExceptionSender@@6B@			; CPythonExceptionSender::`vftable'
;	COMDAT ??_7CPythonExceptionSender@@6B@
CONST	SEGMENT
??_7CPythonExceptionSender@@6B@ DD FLAT:??_R4CPythonExceptionSender@@6B@ ; CPythonExceptionSender::`vftable'
	DD	FLAT:?Send@CPythonExceptionSender@@UAEXXZ
	DD	FLAT:??_ECPythonExceptionSender@@UAEPAXI@Z
CONST	ENDS
;	COMDAT ??_R4IPythonExceptionSender@@6B@
rdata$r	SEGMENT
??_R4IPythonExceptionSender@@6B@ DD 00H			; IPythonExceptionSender::`RTTI Complete Object Locator'
	DD	00H
	DD	00H
	DD	FLAT:??_R0?AVIPythonExceptionSender@@@8
	DD	FLAT:??_R3IPythonExceptionSender@@8
rdata$r	ENDS
;	COMDAT ??_7IPythonExceptionSender@@6B@
CONST	SEGMENT
??_7IPythonExceptionSender@@6B@ DD FLAT:??_R4IPythonExceptionSender@@6B@ ; IPythonExceptionSender::`vftable'
	DD	FLAT:__purecall
CONST	ENDS
;	COMDAT ??_R4CPythonExceptionSender@@6B@
rdata$r	SEGMENT
??_R4CPythonExceptionSender@@6B@ DD 00H			; CPythonExceptionSender::`RTTI Complete Object Locator'
	DD	00H
	DD	00H
	DD	FLAT:??_R0?AVCPythonExceptionSender@@@8
	DD	FLAT:??_R3CPythonExceptionSender@@8
rdata$r	ENDS
;	COMDAT ??_R3IPythonExceptionSender@@8
rdata$r	SEGMENT
??_R3IPythonExceptionSender@@8 DD 00H			; IPythonExceptionSender::`RTTI Class Hierarchy Descriptor'
	DD	00H
	DD	01H
	DD	FLAT:??_R2IPythonExceptionSender@@8
rdata$r	ENDS
;	COMDAT ??_R0?AVIPythonExceptionSender@@@8
data$r	SEGMENT
??_R0?AVIPythonExceptionSender@@@8 DD FLAT:??_7type_info@@6B@ ; IPythonExceptionSender `RTTI Type Descriptor'
	DD	00H
	DB	'.?AVIPythonExceptionSender@@', 00H
data$r	ENDS
;	COMDAT ??_R3CPythonExceptionSender@@8
rdata$r	SEGMENT
??_R3CPythonExceptionSender@@8 DD 00H			; CPythonExceptionSender::`RTTI Class Hierarchy Descriptor'
	DD	00H
	DD	02H
	DD	FLAT:??_R2CPythonExceptionSender@@8
rdata$r	ENDS
;	COMDAT ??_R0?AVCPythonExceptionSender@@@8
data$r	SEGMENT
??_R0?AVCPythonExceptionSender@@@8 DD FLAT:??_7type_info@@6B@ ; CPythonExceptionSender `RTTI Type Descriptor'
	DD	00H
	DB	'.?AVCPythonExceptionSender@@', 00H
data$r	ENDS
;	COMDAT ??_R1A@?0A@EA@CPythonExceptionSender@@8
rdata$r	SEGMENT
??_R1A@?0A@EA@CPythonExceptionSender@@8 DD FLAT:??_R0?AVCPythonExceptionSender@@@8 ; CPythonExceptionSender::`RTTI Base Class Descriptor at (0,-1,0,64)'
	DD	01H
	DD	00H
	DD	0ffffffffH
	DD	00H
	DD	040H
	DD	FLAT:??_R3CPythonExceptionSender@@8
rdata$r	ENDS
;	COMDAT ??_R1A@?0A@EA@IPythonExceptionSender@@8
rdata$r	SEGMENT
??_R1A@?0A@EA@IPythonExceptionSender@@8 DD FLAT:??_R0?AVIPythonExceptionSender@@@8 ; IPythonExceptionSender::`RTTI Base Class Descriptor at (0,-1,0,64)'
	DD	00H
	DD	00H
	DD	0ffffffffH
	DD	00H
	DD	040H
	DD	FLAT:??_R3IPythonExceptionSender@@8
rdata$r	ENDS
;	COMDAT ??_R2CPythonExceptionSender@@8
rdata$r	SEGMENT
??_R2CPythonExceptionSender@@8 DD FLAT:??_R1A@?0A@EA@CPythonExceptionSender@@8 ; CPythonExceptionSender::`RTTI Base Class Array'
	DD	FLAT:??_R1A@?0A@EA@IPythonExceptionSender@@8
rdata$r	ENDS
;	COMDAT ??_R2IPythonExceptionSender@@8
rdata$r	SEGMENT
??_R2IPythonExceptionSender@@8 DD FLAT:??_R1A@?0A@EA@IPythonExceptionSender@@8 ; IPythonExceptionSender::`RTTI Base Class Array'
PUBLIC	??1CPythonExceptionSender@@UAE@XZ		; CPythonExceptionSender::~CPythonExceptionSender
PUBLIC	??1IPythonExceptionSender@@QAE@XZ		; IPythonExceptionSender::~IPythonExceptionSender
PUBLIC	??0IPythonExceptionSender@@QAE@XZ		; IPythonExceptionSender::IPythonExceptionSender
PUBLIC	??_GCPythonExceptionSender@@UAEPAXI@Z		; CPythonExceptionSender::`scalar deleting destructor'
PUBLIC	??0CPythonExceptionSender@@QAE@XZ		; CPythonExceptionSender::CPythonExceptionSender
PUBLIC	?Send@CPythonExceptionSender@@UAEXXZ		; CPythonExceptionSender::Send
EXTRN	??_ECPythonExceptionSender@@UAEPAXI@Z:PROC	; CPythonExceptionSender::`vector deleting destructor'
;	COMDAT xdata$x
xdata$x	SEGMENT
__ehfuncinfo$??0CPythonExceptionSender@@QAE@XZ DD 019930522H
	DD	01H
	DD	FLAT:__unwindtable$??0CPythonExceptionSender@@QAE@XZ
	DD	2 DUP(00H)
	DD	2 DUP(00H)
	DD	00H
	DD	01H
__unwindtable$??0CPythonExceptionSender@@QAE@XZ DD 0ffffffffH
	DD	FLAT:__unwindfunclet$??0CPythonExceptionSender@@QAE@XZ$0
; Function compile flags: /Ogtp
; File d:\metin2\metin2\client_source_clean\client_source_clean\source\userinterface\pythonexceptionsender.cpp
;	COMDAT ?Send@CPythonExceptionSender@@UAEXXZ
_TEXT	SEGMENT
?Send@CPythonExceptionSender@@UAEXXZ PROC		; CPythonExceptionSender::Send, COMDAT
; _this$ = ecx

; 6    : 	//DWORD dwCRC32 = GetCaseCRC32(m_strExceptionString.c_str(), m_strExceptionString.length());
; 7    : 	//if (m_kSet_dwSendedExceptionCRC.end() != m_kSet_dwSendedExceptionCRC.find(dwCRC32))
; 8    : 	//	return;
; 9    : 
; 10   : 	//TraceError("%s", m_strExceptionString.c_str());
; 11   : 
; 12   : 	//SOCKET s = socket(AF_INET, SOCK_STREAM, IPPROTO_TCP);
; 13   : 
; 14   : 	//if (s==INVALID_SOCKET)
; 15   : 	//{
; 16   : 	//	Tracef(" CPythonExceptionSender::Send() - Invalid Socket");
; 17   : 	//}
; 18   : 
; 19   : 
; 20   : 	//DWORD arg = 1;
; 21   : 	//ioctlsocket(s, FIONBIO, &arg);	// Non-blocking mode
; 22   : 
; 23   : 	//char szServerAddr[256];
; 24   : 	//int  nServerPort;
; 25   : 	//strncpy(szServerAddr, "211.105.222.20", sizeof(szServerAddr)-1);
; 26   : 
; 27   : 	//nServerPort=LocaleService_GetPythonErrorReportPort();
; 28   : 	//
; 29   : 	//sockaddr_in sa;
; 30   : 	//sa.sin_family = AF_INET;
; 31   : 	//sa.sin_port = htons(nServerPort);
; 32   : 	//sa.sin_addr.s_addr = inet_addr(szServerAddr);
; 33   : 	//if (connect(s,(sockaddr*)&sa,sizeof(sa)))
; 34   : 	//	return;
; 35   : 
; 36   : 	//int number_ticket=0;
; 37   : 	//if (recv(s,(char*)&number_ticket,4,0))
; 38   : 	//	return;
; 39   : 
; 40   : 	//int length=m_strExceptionString.length();
; 41   : 	//int total=0;
; 42   : 	//int ret=0;
; 43   : 
; 44   : 	//int count = 100;
; 45   : 	//while(count--)
; 46   : 	//{
; 47   : 	//	// send plain text
; 48   : 	//	ret = send(s,(char*)(&m_strExceptionString[0])+total,length-total,0);
; 49   : 	//	
; 50   : 	//	if (ret<0)
; 51   : 	//		break;
; 52   : 
; 53   : 	//	total+=ret;
; 54   : 	//	if (total>=length)
; 55   : 	//		break;
; 56   : 	//}
; 57   : 	//closesocket(s);
; 58   : 
; 59   : 	//m_kSet_dwSendedExceptionCRC.insert(dwCRC32);
; 60   : }

  00000	c3		 ret	 0
?Send@CPythonExceptionSender@@UAEXXZ ENDP		; CPythonExceptionSender::Send
_TEXT	ENDS
; Function compile flags: /Ogtp
; File d:\metin2\metin2\client_source_clean\client_source_clean\source\userinterface\pythonexceptionsender.cpp
; File c:\program files (x86)\microsoft visual studio 12.0\vc\include\xstring
; File c:\program files (x86)\microsoft visual studio 12.0\vc\include\iosfwd
; File d:\metin2\metin2\client_source_clean\client_source_clean\source\userinterface\pythonexceptionsender.cpp
; File c:\program files (x86)\microsoft visual studio 12.0\vc\include\xtree
; File d:\metin2\metin2\client_source_clean\client_source_clean\source\userinterface\pythonexceptionsender.cpp
; File c:\program files (x86)\microsoft visual studio 12.0\vc\include\xtree
; File d:\metin2\metin2\client_source_clean\client_source_clean\source\userinterface\pythonexceptionsender.cpp
;	COMDAT ??0CPythonExceptionSender@@QAE@XZ
_TEXT	SEGMENT
_this$ = -16						; size = 4
__$EHRec$ = -12						; size = 12
??0CPythonExceptionSender@@QAE@XZ PROC			; CPythonExceptionSender::CPythonExceptionSender, COMDAT
; _this$ = ecx

; 63   : {

  00000	55		 push	 ebp
  00001	8b ec		 mov	 ebp, esp
  00003	6a ff		 push	 -1
  00005	68 00 00 00 00	 push	 __ehhandler$??0CPythonExceptionSender@@QAE@XZ
  0000a	64 a1 00 00 00
	00		 mov	 eax, DWORD PTR fs:0
  00010	50		 push	 eax
  00011	51		 push	 ecx
  00012	56		 push	 esi
  00013	57		 push	 edi
  00014	a1 00 00 00 00	 mov	 eax, DWORD PTR ___security_cookie
  00019	33 c5		 xor	 eax, ebp
  0001b	50		 push	 eax
  0001c	8d 45 f4	 lea	 eax, DWORD PTR __$EHRec$[ebp]
  0001f	64 a3 00 00 00
	00		 mov	 DWORD PTR fs:0, eax
  00025	8b f9		 mov	 edi, ecx
  00027	89 7d f0	 mov	 DWORD PTR _this$[ebp], edi
; File c:\program files (x86)\microsoft visual studio 12.0\vc\include\xstring

; 2284 : 		this->_Myres = this->_BUF_SIZE - 1;

  0002a	c7 47 18 0f 00
	00 00		 mov	 DWORD PTR [edi+24], 15	; 0000000fH

; 2237 : 		_Traits::assign(this->_Myptr()[this->_Mysize = _Newsize], _Elem());

  00031	c7 47 14 00 00
	00 00		 mov	 DWORD PTR [edi+20], 0
; File c:\program files (x86)\microsoft visual studio 12.0\vc\include\iosfwd

; 564  : 		_Left = _Right;

  00038	c6 47 04 00	 mov	 BYTE PTR [edi+4], 0
; File d:\metin2\metin2\client_source_clean\client_source_clean\source\userinterface\pythonexceptionsender.cpp

; 63   : {

  0003c	c7 45 fc 00 00
	00 00		 mov	 DWORD PTR __$EHRec$[ebp+8], 0
; File c:\program files (x86)\microsoft visual studio 12.0\vc\include\xtree

; 773  : 		this->_Myhead = _Buyheadnode();

  00043	8d 4f 1c	 lea	 ecx, DWORD PTR [edi+28]
; File d:\metin2\metin2\client_source_clean\client_source_clean\source\userinterface\pythonexceptionsender.cpp

; 63   : {

  00046	c7 07 00 00 00
	00		 mov	 DWORD PTR [edi], OFFSET ??_7CPythonExceptionSender@@6B@
; File c:\program files (x86)\microsoft visual studio 12.0\vc\include\xtree

; 569  : 		this->_Myhead = 0;

  0004c	c7 47 1c 00 00
	00 00		 mov	 DWORD PTR [edi+28], 0

; 570  : 		this->_Mysize = 0;

  00053	c7 47 20 00 00
	00 00		 mov	 DWORD PTR [edi+32], 0

; 773  : 		this->_Myhead = _Buyheadnode();

  0005a	e8 00 00 00 00	 call	 ?_Buyheadnode@?$_Tree_alloc@$0A@U?$_Tree_base_types@KV?$allocator@K@std@@@std@@@std@@QAEPAU?$_Tree_node@KPAX@2@XZ ; std::_Tree_alloc<0,std::_Tree_base_types<unsigned long,std::allocator<unsigned long> > >::_Buyheadnode
  0005f	89 47 1c	 mov	 DWORD PTR [edi+28], eax
; File d:\metin2\metin2\client_source_clean\client_source_clean\source\userinterface\pythonexceptionsender.cpp

; 64   : }

  00062	8b c7		 mov	 eax, edi
  00064	8b 4d f4	 mov	 ecx, DWORD PTR __$EHRec$[ebp]
  00067	64 89 0d 00 00
	00 00		 mov	 DWORD PTR fs:0, ecx
  0006e	59		 pop	 ecx
  0006f	5f		 pop	 edi
  00070	5e		 pop	 esi
  00071	8b e5		 mov	 esp, ebp
  00073	5d		 pop	 ebp
  00074	c3		 ret	 0
_TEXT	ENDS
;	COMDAT text$x
text$x	SEGMENT
__unwindfunclet$??0CPythonExceptionSender@@QAE@XZ$0:
  00000	8b 4d f0	 mov	 ecx, DWORD PTR _this$[ebp]
  00003	e9 00 00 00 00	 jmp	 ??1IPythonExceptionSender@@QAE@XZ
__ehhandler$??0CPythonExceptionSender@@QAE@XZ:
  00008	8b 54 24 08	 mov	 edx, DWORD PTR [esp+8]
  0000c	8d 42 0c	 lea	 eax, DWORD PTR [edx+12]
  0000f	8b 4a f0	 mov	 ecx, DWORD PTR [edx-16]
  00012	33 c8		 xor	 ecx, eax
  00014	e8 00 00 00 00	 call	 @__security_check_cookie@4
  00019	b8 00 00 00 00	 mov	 eax, OFFSET __ehfuncinfo$??0CPythonExceptionSender@@QAE@XZ
  0001e	e9 00 00 00 00	 jmp	 ___CxxFrameHandler3
text$x	ENDS
??0CPythonExceptionSender@@QAE@XZ ENDP			; CPythonExceptionSender::CPythonExceptionSender
; Function compile flags: /Ogtp
;	COMDAT ??_GCPythonExceptionSender@@UAEPAXI@Z
_TEXT	SEGMENT
___flags$ = 8						; size = 4
??_GCPythonExceptionSender@@UAEPAXI@Z PROC		; CPythonExceptionSender::`scalar deleting destructor', COMDAT
; _this$ = ecx
  00000	55		 push	 ebp
  00001	8b ec		 mov	 ebp, esp
  00003	56		 push	 esi
  00004	8b f1		 mov	 esi, ecx
  00006	e8 00 00 00 00	 call	 ??1CPythonExceptionSender@@UAE@XZ ; CPythonExceptionSender::~CPythonExceptionSender
  0000b	f6 45 08 01	 test	 BYTE PTR ___flags$[ebp], 1
  0000f	74 09		 je	 SHORT $LN4@scalar
  00011	56		 push	 esi
  00012	e8 00 00 00 00	 call	 ??3@YAXPAX@Z		; operator delete
  00017	83 c4 04	 add	 esp, 4
$LN4@scalar:
  0001a	8b c6		 mov	 eax, esi
  0001c	5e		 pop	 esi
  0001d	5d		 pop	 ebp
  0001e	c2 04 00	 ret	 4
??_GCPythonExceptionSender@@UAEPAXI@Z ENDP		; CPythonExceptionSender::`scalar deleting destructor'
_TEXT	ENDS
; Function compile flags: /Ogtp
; File c:\program files (x86)\microsoft visual studio 12.0\vc\include\xstring
; File c:\program files (x86)\microsoft visual studio 12.0\vc\include\iosfwd
;	COMDAT ??0IPythonExceptionSender@@QAE@XZ
_TEXT	SEGMENT
??0IPythonExceptionSender@@QAE@XZ PROC			; IPythonExceptionSender::IPythonExceptionSender, COMDAT
; _this$ = ecx
  00000	c7 01 00 00 00
	00		 mov	 DWORD PTR [ecx], OFFSET ??_7IPythonExceptionSender@@6B@
  00006	8b c1		 mov	 eax, ecx
; File c:\program files (x86)\microsoft visual studio 12.0\vc\include\xstring

; 2284 : 		this->_Myres = this->_BUF_SIZE - 1;

  00008	c7 41 18 0f 00
	00 00		 mov	 DWORD PTR [ecx+24], 15	; 0000000fH

; 2237 : 		_Traits::assign(this->_Myptr()[this->_Mysize = _Newsize], _Elem());

  0000f	c7 41 14 00 00
	00 00		 mov	 DWORD PTR [ecx+20], 0
; File c:\program files (x86)\microsoft visual studio 12.0\vc\include\iosfwd

; 564  : 		_Left = _Right;

  00016	c6 41 04 00	 mov	 BYTE PTR [ecx+4], 0
  0001a	c3		 ret	 0
??0IPythonExceptionSender@@QAE@XZ ENDP			; IPythonExceptionSender::IPythonExceptionSender
_TEXT	ENDS
; Function compile flags: /Ogtp
; File c:\program files (x86)\microsoft visual studio 12.0\vc\include\xstring
; File c:\program files (x86)\microsoft visual studio 12.0\vc\include\xmemory0
; File c:\program files (x86)\microsoft visual studio 12.0\vc\include\xstring
; File c:\program files (x86)\microsoft visual studio 12.0\vc\include\iosfwd
;	COMDAT ??1IPythonExceptionSender@@QAE@XZ
_TEXT	SEGMENT
??1IPythonExceptionSender@@QAE@XZ PROC			; IPythonExceptionSender::~IPythonExceptionSender, COMDAT
; _this$ = ecx
  00000	56		 push	 esi
  00001	8b f1		 mov	 esi, ecx
; File c:\program files (x86)\microsoft visual studio 12.0\vc\include\xstring

; 2275 : 		else if (this->_BUF_SIZE <= this->_Myres)

  00003	83 7e 18 10	 cmp	 DWORD PTR [esi+24], 16	; 00000010H
  00007	72 0b		 jb	 SHORT $LN23@IPythonExc
; File c:\program files (x86)\microsoft visual studio 12.0\vc\include\xmemory0

; 573  : 		::operator delete(_Ptr);

  00009	ff 76 04	 push	 DWORD PTR [esi+4]
  0000c	e8 00 00 00 00	 call	 ??3@YAXPAX@Z		; operator delete
  00011	83 c4 04	 add	 esp, 4
$LN23@IPythonExc:
; File c:\program files (x86)\microsoft visual studio 12.0\vc\include\xstring

; 2284 : 		this->_Myres = this->_BUF_SIZE - 1;

  00014	c7 46 18 0f 00
	00 00		 mov	 DWORD PTR [esi+24], 15	; 0000000fH

; 2237 : 		_Traits::assign(this->_Myptr()[this->_Mysize = _Newsize], _Elem());

  0001b	c7 46 14 00 00
	00 00		 mov	 DWORD PTR [esi+20], 0
; File c:\program files (x86)\microsoft visual studio 12.0\vc\include\iosfwd

; 564  : 		_Left = _Right;

  00022	c6 46 04 00	 mov	 BYTE PTR [esi+4], 0
  00026	5e		 pop	 esi
  00027	c3		 ret	 0
??1IPythonExceptionSender@@QAE@XZ ENDP			; IPythonExceptionSender::~IPythonExceptionSender
_TEXT	ENDS
; Function compile flags: /Ogtp
; File d:\metin2\metin2\client_source_clean\client_source_clean\source\userinterface\pythonexceptionsender.cpp
; File c:\program files (x86)\microsoft visual studio 12.0\vc\include\xtree
; File c:\program files (x86)\microsoft visual studio 12.0\vc\include\xmemory0
; File c:\program files (x86)\microsoft visual studio 12.0\vc\include\xstring
; File c:\program files (x86)\microsoft visual studio 12.0\vc\include\xmemory0
; File c:\program files (x86)\microsoft visual studio 12.0\vc\include\xstring
; File c:\program files (x86)\microsoft visual studio 12.0\vc\include\iosfwd
; File d:\metin2\metin2\client_source_clean\client_source_clean\source\userinterface\pythonexceptionsender.cpp
;	COMDAT ??1CPythonExceptionSender@@UAE@XZ
_TEXT	SEGMENT
$T1 = -4						; size = 4
??1CPythonExceptionSender@@UAE@XZ PROC			; CPythonExceptionSender::~CPythonExceptionSender, COMDAT
; _this$ = ecx

; 66   : {

  00000	55		 push	 ebp
  00001	8b ec		 mov	 ebp, esp
  00003	51		 push	 ecx
  00004	56		 push	 esi
  00005	57		 push	 edi
  00006	8b f9		 mov	 edi, ecx
  00008	c7 07 00 00 00
	00		 mov	 DWORD PTR [edi], OFFSET ??_7CPythonExceptionSender@@6B@
; File c:\program files (x86)\microsoft visual studio 12.0\vc\include\xtree

; 2230 : 		erase(begin(), end());

  0000e	8d 4f 1c	 lea	 ecx, DWORD PTR [edi+28]

; 44   : 		{	// construct with node pointer _Pnode

  00011	8b 47 1c	 mov	 eax, DWORD PTR [edi+28]

; 2230 : 		erase(begin(), end());

  00014	50		 push	 eax
  00015	ff 30		 push	 DWORD PTR [eax]
  00017	8d 45 fc	 lea	 eax, DWORD PTR $T1[ebp]
  0001a	50		 push	 eax
  0001b	e8 00 00 00 00	 call	 ?erase@?$_Tree@V?$_Tset_traits@KU?$less@K@std@@V?$allocator@K@2@$0A@@std@@@std@@QAE?AV?$_Tree_const_iterator@V?$_Tree_val@U?$_Tree_simple_types@K@std@@@std@@@2@V32@0@Z ; std::_Tree<std::_Tset_traits<unsigned long,std::less<unsigned long>,std::allocator<unsigned long>,0> >::erase
; File c:\program files (x86)\microsoft visual studio 12.0\vc\include\xmemory0

; 573  : 		::operator delete(_Ptr);

  00020	ff 77 1c	 push	 DWORD PTR [edi+28]
  00023	e8 00 00 00 00	 call	 ??3@YAXPAX@Z		; operator delete
  00028	83 c4 04	 add	 esp, 4
; File c:\program files (x86)\microsoft visual studio 12.0\vc\include\xstring

; 2275 : 		else if (this->_BUF_SIZE <= this->_Myres)

  0002b	83 7f 18 10	 cmp	 DWORD PTR [edi+24], 16	; 00000010H
  0002f	72 0b		 jb	 SHORT $LN83@CPythonExc
; File c:\program files (x86)\microsoft visual studio 12.0\vc\include\xmemory0

; 573  : 		::operator delete(_Ptr);

  00031	ff 77 04	 push	 DWORD PTR [edi+4]
  00034	e8 00 00 00 00	 call	 ??3@YAXPAX@Z		; operator delete
  00039	83 c4 04	 add	 esp, 4
$LN83@CPythonExc:
  0003c	c7 47 18 0f 00
	00 00		 mov	 DWORD PTR [edi+24], 15	; 0000000fH
; File c:\program files (x86)\microsoft visual studio 12.0\vc\include\xstring

; 2237 : 		_Traits::assign(this->_Myptr()[this->_Mysize = _Newsize], _Elem());

  00043	c7 47 14 00 00
	00 00		 mov	 DWORD PTR [edi+20], 0
; File c:\program files (x86)\microsoft visual studio 12.0\vc\include\iosfwd

; 564  : 		_Left = _Right;

  0004a	c6 47 04 00	 mov	 BYTE PTR [edi+4], 0
  0004e	5f		 pop	 edi
  0004f	5e		 pop	 esi
; File d:\metin2\metin2\client_source_clean\client_source_clean\source\userinterface\pythonexceptionsender.cpp

; 67   : }

  00050	8b e5		 mov	 esp, ebp
  00052	5d		 pop	 ebp
  00053	c3		 ret	 0
??1CPythonExceptionSender@@UAE@XZ ENDP			; CPythonExceptionSender::~CPythonExceptionSender
_TEXT	ENDS
END
