; Listing generated by Microsoft (R) Optimizing Compiler Version 18.00.40629.0 

	TITLE	D:\Metin2\Metin2\client_source_clean\client_source_clean\source\UserInterface\PythonBackgroundModule.cpp
	.686P
	.XMM
	include listing.inc
	.model	flat

INCLUDELIB OLDNAMES

PUBLIC	??_C@_0EI@HLELLDPI@background?4RegisterEnvironmentDa@ ; `string'
PUBLIC	??_C@_03LPALPDIP@fff?$AA@			; `string'
PUBLIC	??_C@_03JDANDILB@?$CFd?5?$AA@			; `string'
PUBLIC	??_C@_04KDJJDIPA@iifs?$AA@			; `string'
PUBLIC	??_C@_0CC@JHPGFABG@ePart?$CI?$CFd?$CJ?$DMbackground?4PART_NUM?$CI?$CFd@ ; `string'
PUBLIC	??_C@_0CL@HHHOJMJN@background?4SetSplatLimit?$CIiSplatN@ ; `string'
PUBLIC	??_C@_04MMEPMOLC@ifff?$AA@			; `string'
PUBLIC	??_C@_03FEAIAPNA@sii?$AA@			; `string'
PUBLIC	??_C@_0BB@BFKDCFBH@IsSoftwareTiling?$AA@	; `string'
PUBLIC	??_C@_0BF@ODLMFADE@EnableSoftwareTiling?$AA@	; `string'
PUBLIC	??_C@_0L@LGAPBDCD@EnableSnow?$AA@		; `string'
PUBLIC	??_C@_0BO@OIANPCLB@GlobalPositionToLocalPosition?$AA@ ; `string'
PUBLIC	??_C@_0BI@NCKBLOGC@GlobalPositionToMapInfo?$AA@	; `string'
PUBLIC	??_C@_0BE@LMGPCAD@GetRenderShadowTime?$AA@	; `string'
PUBLIC	??_C@_07DJFPJOEL@LoadMap?$AA@			; `string'
PUBLIC	??_C@_07BDCAJABG@Destroy?$AA@			; `string'
PUBLIC	??_C@_0BI@CHPHFBLI@RegisterEnvironmentData?$AA@	; `string'
PUBLIC	??_C@_0BD@BHFOHELP@SetEnvironmentData?$AA@	; `string'
PUBLIC	??_C@_0BC@DINKEDB@GetCurrentMapName?$AA@	; `string'
PUBLIC	??_C@_0BA@DNJBOOGC@GetPickingPoint?$AA@		; `string'
PUBLIC	??_C@_0BB@JHBDNCLO@BeginEnvironment?$AA@	; `string'
PUBLIC	??_C@_0P@DMJMMGKP@EndEnvironment?$AA@		; `string'
PUBLIC	??_C@_0BF@DFKOLKBM@SetCharacterDirLight?$AA@	; `string'
PUBLIC	??_C@_0BG@PNPLCIKE@SetBackgroundDirLight?$AA@	; `string'
PUBLIC	??_C@_0L@KIAPHAEH@Initialize?$AA@		; `string'
PUBLIC	??_C@_0BA@FDBALAKK@RenderPCBlocker?$AA@		; `string'
PUBLIC	??_C@_0BA@OAOAOPAN@RenderCollision?$AA@		; `string'
PUBLIC	??_C@_09LFBELEBM@RenderSky?$AA@			; `string'
PUBLIC	??_C@_0M@LNFEENAM@RenderCloud?$AA@		; `string'
PUBLIC	??_C@_0M@FKCFAPAJ@RenderWater?$AA@		; `string'
PUBLIC	??_C@_0N@NIFFJBKD@RenderEffect?$AA@		; `string'
PUBLIC	??_C@_0BG@FMKIIHNL@RenderBeforeLensFlare?$AA@	; `string'
PUBLIC	??_C@_0BF@IFHDODFN@RenderAfterLensFlare?$AA@	; `string'
PUBLIC	??_C@_0BP@HPJLNAG@RenderCharacterShadowToTexture?$AA@ ; `string'
PUBLIC	??_C@_0O@INGOKFGH@RenderDungeon?$AA@		; `string'
PUBLIC	??_C@_09EOGEIJMK@GetHeight?$AA@			; `string'
PUBLIC	??_C@_0P@JLOPHJNK@SetShadowLevel?$AA@		; `string'
PUBLIC	??_C@_0P@PBNEJLOP@SetVisiblePart?$AA@		; `string'
PUBLIC	??_C@_0BC@CCJLGKJP@GetShadowMapColor?$AA@	; `string'
PUBLIC	??_C@_0O@MBDLBPAA@SetSplatLimit?$AA@		; `string'
PUBLIC	??_C@_0BE@OLLMHPAP@GetRenderedSplatNum?$AA@	; `string'
PUBLIC	??_C@_0CD@KCFKJMJJ@GetRenderedGraphicThingInstanceN@ ; `string'
PUBLIC	??_C@_0BG@HJLACBME@SelectViewDistanceNum?$AA@	; `string'
PUBLIC	??_C@_0BD@MAFLMANF@SetViewDistanceSet?$AA@	; `string'
PUBLIC	??_C@_0L@HDMJNMBI@GetFarClip?$AA@		; `string'
PUBLIC	??_C@_0BD@DLMMDNAG@GetDistanceSetInfo?$AA@	; `string'
PUBLIC	??_C@_0N@BIHACEOH@SetBGLoading?$AA@		; `string'
PUBLIC	??_C@_0O@JBGHJBE@SetRenderSort?$AA@		; `string'
PUBLIC	??_C@_0BD@FPJHLEBA@SetTransparentTree?$AA@	; `string'
PUBLIC	??_C@_0M@JALIDFKN@SetXMasTree?$AA@		; `string'
PUBLIC	??_C@_0BH@MNHHOIMG@RegisterDungeonMapName?$AA@	; `string'
PUBLIC	??_C@_0BB@CIANHCAN@VisibleGuildArea?$AA@	; `string'
PUBLIC	??_C@_0BB@NIDJGFIB@DisableGuildArea?$AA@	; `string'
PUBLIC	??_C@_08LPNOKPMJ@WarpTest?$AA@			; `string'
PUBLIC	??_C@_0L@EGCKCJDC@background?$AA@		; `string'
PUBLIC	??_C@_08NJILKGEB@PART_SKY?$AA@			; `string'
PUBLIC	??_C@_09GABNPPB@PART_TREE?$AA@			; `string'
PUBLIC	??_C@_0L@OMDBBBIA@PART_CLOUD?$AA@		; `string'
PUBLIC	??_C@_0L@LEAFDIF@PART_WATER?$AA@		; `string'
PUBLIC	??_C@_0M@FDJPOPAP@PART_OBJECT?$AA@		; `string'
PUBLIC	??_C@_0N@JJNCMAMK@PART_TERRAIN?$AA@		; `string'
PUBLIC	??_C@_0BI@KFLFFAKF@SKY_RENDER_MODE_DEFAULT?$AA@	; `string'
PUBLIC	??_C@_0BI@JEJGCBJM@SKY_RENDER_MODE_DIFFUSE?$AA@	; `string'
PUBLIC	??_C@_0BI@NLDLHPN@SKY_RENDER_MODE_TEXTURE?$AA@	; `string'
PUBLIC	??_C@_0BJ@IGDGIPGO@SKY_RENDER_MODE_MODULATE?$AA@ ; `string'
PUBLIC	??_C@_0BL@NDPELIAM@SKY_RENDER_MODE_MODULATE2X?$AA@ ; `string'
PUBLIC	??_C@_0BL@NHHJMELO@SKY_RENDER_MODE_MODULATE4X?$AA@ ; `string'
PUBLIC	??_C@_0M@GJOLHPMA@SHADOW_NONE?$AA@		; `string'
PUBLIC	??_C@_0O@KCPINCHK@SHADOW_GROUND?$AA@		; `string'
PUBLIC	??_C@_0BH@GACINHHJ@SHADOW_GROUND_AND_SOLO?$AA@	; `string'
PUBLIC	??_C@_0L@IDBIEHAB@SHADOW_ALL?$AA@		; `string'
PUBLIC	??_C@_0BA@HAKJACB@SHADOW_ALL_HIGH?$AA@		; `string'
PUBLIC	??_C@_0P@OLMEFOLC@SHADOW_ALL_MAX?$AA@		; `string'
PUBLIC	??_C@_09PGFHANGE@DISTANCE0?$AA@			; `string'
PUBLIC	??_C@_09OPEMDMCF@DISTANCE1?$AA@			; `string'
PUBLIC	??_C@_09MEGBGPOG@DISTANCE2?$AA@			; `string'
PUBLIC	??_C@_09NNHKFOKH@DISTANCE3?$AA@			; `string'
PUBLIC	??_C@_09JCDLMIGA@DISTANCE4?$AA@			; `string'
PUBLIC	??_C@_0O@OJDBENMM@DISTANCE_SORT?$AA@		; `string'
PUBLIC	??_C@_0N@CKPMLBKJ@TEXTURE_SORT?$AA@		; `string'
EXTRN	?SetTerrainRenderSort@CMapManager@@QAEXW4ETerrainRenderSort@CMapOutdoor@@@Z:PROC ; CMapManager::SetTerrainRenderSort
EXTRN	?SetTransparentTree@CMapManager@@QAEX_N@Z:PROC	; CMapManager::SetTransparentTree
EXTRN	?PyTuple_GetBoolean@@YA_NPAU_object@@HPA_N@Z:PROC ; PyTuple_GetBoolean
EXTRN	?GetRenderedSplatNum@CMapManager@@QAEAAV?$vector@HV?$allocator@H@std@@@std@@PAH0PAM@Z:PROC ; CMapManager::GetRenderedSplatNum
EXTRN	?GetRenderedGraphicThingInstanceNum@CMapManager@@QAEAAV?$vector@USCRCWithNumber@CArea@@V?$allocator@USCRCWithNumber@CArea@@@std@@@std@@PAK0@Z:PROC ; CMapManager::GetRenderedGraphicThingInstanceNum
EXTRN	?GetEnvironmentData@CMapManager@@QAE_NKPAPBUSEnvironmentData@@@Z:PROC ; CMapManager::GetEnvironmentData
EXTRN	?ResetEnvironmentDataPtr@CMapManager@@QAEXPBUSEnvironmentData@@@Z:PROC ; CMapManager::ResetEnvironmentDataPtr
EXTRN	?RegisterEnvironmentData@CMapManager@@QAE_NKPBD@Z:PROC ; CMapManager::RegisterEnvironmentData
EXTRN	?IsSoftwareTilingEnable@CMapManager@@QAE_NXZ:PROC ; CMapManager::IsSoftwareTilingEnable
EXTRN	?Py_BadArgument@@YAPAU_object@@XZ:PROC		; Py_BadArgument
;	COMDAT ?s_methods@?1??initBackground@@YAXXZ@4PAUPyMethodDef@@A
_DATA	SEGMENT
?s_methods@?1??initBackground@@YAXXZ@4PAUPyMethodDef@@A DD FLAT:??_C@_0BB@BFKDCFBH@IsSoftwareTiling?$AA@ ; `initBackground'::`2'::s_methods
	DD	FLAT:?backgroundIsSoftwareTiling@@YAPAU_object@@PAU1@0@Z
	DD	01H
	ORG $+4
	DD	FLAT:??_C@_0BF@ODLMFADE@EnableSoftwareTiling?$AA@
	DD	FLAT:?backgroundEnableSoftwareTiling@@YAPAU_object@@PAU1@0@Z
	DD	01H
	ORG $+4
	DD	FLAT:??_C@_0L@LGAPBDCD@EnableSnow?$AA@
	DD	FLAT:?backgroundEnableSnow@@YAPAU_object@@PAU1@0@Z
	DD	01H
	ORG $+4
	DD	FLAT:??_C@_0BO@OIANPCLB@GlobalPositionToLocalPosition?$AA@
	DD	FLAT:?backgroundGlobalPositionToLocalPosition@@YAPAU_object@@PAU1@0@Z
	DD	01H
	ORG $+4
	DD	FLAT:??_C@_0BI@NCKBLOGC@GlobalPositionToMapInfo?$AA@
	DD	FLAT:?backgroundGlobalPositionToMapInfo@@YAPAU_object@@PAU1@0@Z
	DD	01H
	ORG $+4
	DD	FLAT:??_C@_0BE@LMGPCAD@GetRenderShadowTime?$AA@
	DD	FLAT:?backgroundGetRenderShadowTime@@YAPAU_object@@PAU1@0@Z
	DD	01H
	ORG $+4
	DD	FLAT:??_C@_07DJFPJOEL@LoadMap?$AA@
	DD	FLAT:?backgroundLoadMap@@YAPAU_object@@PAU1@0@Z
	DD	01H
	ORG $+4
	DD	FLAT:??_C@_07BDCAJABG@Destroy?$AA@
	DD	FLAT:?backgroundDestroy@@YAPAU_object@@PAU1@0@Z
	DD	01H
	ORG $+4
	DD	FLAT:??_C@_0BI@CHPHFBLI@RegisterEnvironmentData?$AA@
	DD	FLAT:?backgroundRegisterEnvironmentData@@YAPAU_object@@PAU1@0@Z
	DD	01H
	ORG $+4
	DD	FLAT:??_C@_0BD@BHFOHELP@SetEnvironmentData?$AA@
	DD	FLAT:?backgroundSetEnvironmentData@@YAPAU_object@@PAU1@0@Z
	DD	01H
	ORG $+4
	DD	FLAT:??_C@_0BC@DINKEDB@GetCurrentMapName?$AA@
	DD	FLAT:?backgroundGetCurrentMapName@@YAPAU_object@@PAU1@0@Z
	DD	01H
	ORG $+4
	DD	FLAT:??_C@_0BA@DNJBOOGC@GetPickingPoint?$AA@
	DD	FLAT:?backgroundGetPickingPoint@@YAPAU_object@@PAU1@0@Z
	DD	01H
	ORG $+4
	DD	FLAT:??_C@_0BB@JHBDNCLO@BeginEnvironment?$AA@
	DD	FLAT:?backgroundBeginEnvironment@@YAPAU_object@@PAU1@0@Z
	DD	01H
	ORG $+4
	DD	FLAT:??_C@_0P@DMJMMGKP@EndEnvironment?$AA@
	DD	FLAT:?backgroundEndEnvironemt@@YAPAU_object@@PAU1@0@Z
	DD	01H
	ORG $+4
	DD	FLAT:??_C@_0BF@DFKOLKBM@SetCharacterDirLight?$AA@
	DD	FLAT:?backgroundSetCharacterDirLight@@YAPAU_object@@PAU1@0@Z
	DD	01H
	ORG $+4
	DD	FLAT:??_C@_0BG@PNPLCIKE@SetBackgroundDirLight?$AA@
	DD	FLAT:?backgroundSetBackgroundDirLight@@YAPAU_object@@PAU1@0@Z
	DD	01H
	ORG $+4
	DD	FLAT:??_C@_0L@KIAPHAEH@Initialize?$AA@
	DD	FLAT:?backgroundInitialize@@YAPAU_object@@PAU1@0@Z
	DD	01H
	ORG $+4
	DD	FLAT:??_C@_06LMAGPFNF@Update?$AA@
	DD	FLAT:?backgroundUpdate@@YAPAU_object@@PAU1@0@Z
	DD	01H
	ORG $+4
	DD	FLAT:??_C@_06EPLDPNDB@Render?$AA@
	DD	FLAT:?backgroundRender@@YAPAU_object@@PAU1@0@Z
	DD	01H
	ORG $+4
	DD	FLAT:??_C@_0BA@FDBALAKK@RenderPCBlocker?$AA@
	DD	FLAT:?backgroundRenderPCBlocker@@YAPAU_object@@PAU1@0@Z
	DD	01H
	ORG $+4
	DD	FLAT:??_C@_0BA@OAOAOPAN@RenderCollision?$AA@
	DD	FLAT:?backgroundRenderCollision@@YAPAU_object@@PAU1@0@Z
	DD	01H
	ORG $+4
	DD	FLAT:??_C@_09LFBELEBM@RenderSky?$AA@
	DD	FLAT:?backgroundRenderSky@@YAPAU_object@@PAU1@0@Z
	DD	01H
	ORG $+4
	DD	FLAT:??_C@_0M@LNFEENAM@RenderCloud?$AA@
	DD	FLAT:?backgroundRenderCloud@@YAPAU_object@@PAU1@0@Z
	DD	01H
	ORG $+4
	DD	FLAT:??_C@_0M@FKCFAPAJ@RenderWater?$AA@
	DD	FLAT:?backgroundRenderWater@@YAPAU_object@@PAU1@0@Z
	DD	01H
	ORG $+4
	DD	FLAT:??_C@_0N@NIFFJBKD@RenderEffect?$AA@
	DD	FLAT:?backgroundRenderEffect@@YAPAU_object@@PAU1@0@Z
	DD	01H
	ORG $+4
	DD	FLAT:??_C@_0BG@FMKIIHNL@RenderBeforeLensFlare?$AA@
	DD	FLAT:?backgroundRenderBeforeLensFlare@@YAPAU_object@@PAU1@0@Z
	DD	01H
	ORG $+4
	DD	FLAT:??_C@_0BF@IFHDODFN@RenderAfterLensFlare?$AA@
	DD	FLAT:?backgroundRenderAfterLensFlare@@YAPAU_object@@PAU1@0@Z
	DD	01H
	ORG $+4
	DD	FLAT:??_C@_0BP@HPJLNAG@RenderCharacterShadowToTexture?$AA@
	DD	FLAT:?backgroundRenderCharacterShadowToTexture@@YAPAU_object@@PAU1@0@Z
	DD	01H
	ORG $+4
	DD	FLAT:??_C@_0O@INGOKFGH@RenderDungeon?$AA@
	DD	FLAT:?backgroundRenderDungeon@@YAPAU_object@@PAU1@0@Z
	DD	01H
	ORG $+4
	DD	FLAT:??_C@_09EOGEIJMK@GetHeight?$AA@
	DD	FLAT:?backgroundGetHeight@@YAPAU_object@@PAU1@0@Z
	DD	01H
	ORG $+4
	DD	FLAT:??_C@_0P@JLOPHJNK@SetShadowLevel?$AA@
	DD	FLAT:?backgroundSetShadowLevel@@YAPAU_object@@PAU1@0@Z
	DD	01H
	ORG $+4
	DD	FLAT:??_C@_0P@PBNEJLOP@SetVisiblePart?$AA@
	DD	FLAT:?backgroundSetVisiblePart@@YAPAU_object@@PAU1@0@Z
	DD	01H
	ORG $+4
	DD	FLAT:??_C@_0BC@CCJLGKJP@GetShadowMapColor?$AA@
	DD	FLAT:?backgroundGetShadowMapcolor@@YAPAU_object@@PAU1@0@Z
	DD	01H
	ORG $+4
	DD	FLAT:??_C@_0O@MBDLBPAA@SetSplatLimit?$AA@
	DD	FLAT:?backgroundSetSpaltLimit@@YAPAU_object@@PAU1@0@Z
	DD	01H
	ORG $+4
	DD	FLAT:??_C@_0BE@OLLMHPAP@GetRenderedSplatNum?$AA@
	DD	FLAT:?backgroundGetRenderedSplatNum@@YAPAU_object@@PAU1@0@Z
	DD	01H
	ORG $+4
	DD	FLAT:??_C@_0CD@KCFKJMJJ@GetRenderedGraphicThingInstanceN@
	DD	FLAT:?backgroundGetRenderedGTINum@@YAPAU_object@@PAU1@0@Z
	DD	01H
	ORG $+4
	DD	FLAT:??_C@_0BG@HJLACBME@SelectViewDistanceNum?$AA@
	DD	FLAT:?backgroundSelectViewDistanceNum@@YAPAU_object@@PAU1@0@Z
	DD	01H
	ORG $+4
	DD	FLAT:??_C@_0BD@MAFLMANF@SetViewDistanceSet?$AA@
	DD	FLAT:?backgroundSetViewDistanceSet@@YAPAU_object@@PAU1@0@Z
	DD	01H
	ORG $+4
	DD	FLAT:??_C@_0L@HDMJNMBI@GetFarClip?$AA@
	DD	FLAT:?backgroundGetFarClip@@YAPAU_object@@PAU1@0@Z
	DD	01H
	ORG $+4
	DD	FLAT:??_C@_0BD@DLMMDNAG@GetDistanceSetInfo?$AA@
	DD	FLAT:?backgroundGetDistanceSetInfo@@YAPAU_object@@PAU1@0@Z
	DD	01H
	ORG $+4
	DD	FLAT:??_C@_0N@BIHACEOH@SetBGLoading?$AA@
	DD	FLAT:?backgroundSetBGLoading@@YAPAU_object@@PAU1@0@Z
	DD	01H
	ORG $+4
	DD	FLAT:??_C@_0O@JBGHJBE@SetRenderSort?$AA@
	DD	FLAT:?backgroundSetRenderSort@@YAPAU_object@@PAU1@0@Z
	DD	01H
	ORG $+4
	DD	FLAT:??_C@_0BD@FPJHLEBA@SetTransparentTree?$AA@
	DD	FLAT:?backgroundSetTransparentTree@@YAPAU_object@@PAU1@0@Z
	DD	01H
	ORG $+4
	DD	FLAT:??_C@_0M@JALIDFKN@SetXMasTree?$AA@
	DD	FLAT:?backgroundSetXMasTree@@YAPAU_object@@PAU1@0@Z
	DD	01H
	ORG $+4
	DD	FLAT:??_C@_0BH@MNHHOIMG@RegisterDungeonMapName?$AA@
	DD	FLAT:?backgroundRegisterDungeonMapName@@YAPAU_object@@PAU1@0@Z
	DD	01H
	ORG $+4
	DD	FLAT:??_C@_0BB@CIANHCAN@VisibleGuildArea?$AA@
	DD	FLAT:?backgroundVisibleGuildArea@@YAPAU_object@@PAU1@0@Z
	DD	01H
	ORG $+4
	DD	FLAT:??_C@_0BB@NIDJGFIB@DisableGuildArea?$AA@
	DD	FLAT:?backgroundDisableGuildArea@@YAPAU_object@@PAU1@0@Z
	DD	01H
	ORG $+4
	DD	FLAT:??_C@_08LPNOKPMJ@WarpTest?$AA@
	DD	FLAT:?backgroundWarpTest@@YAPAU_object@@PAU1@0@Z
	DD	01H
	ORG $+4
	DD	00H
	DD	00H
	DD	00H
	ORG $+4
_DATA	ENDS
;	COMDAT ??_C@_0N@CKPMLBKJ@TEXTURE_SORT?$AA@
CONST	SEGMENT
??_C@_0N@CKPMLBKJ@TEXTURE_SORT?$AA@ DB 'TEXTURE_SORT', 00H ; `string'
CONST	ENDS
;	COMDAT ??_C@_0O@OJDBENMM@DISTANCE_SORT?$AA@
CONST	SEGMENT
??_C@_0O@OJDBENMM@DISTANCE_SORT?$AA@ DB 'DISTANCE_SORT', 00H ; `string'
CONST	ENDS
;	COMDAT ??_C@_09JCDLMIGA@DISTANCE4?$AA@
CONST	SEGMENT
??_C@_09JCDLMIGA@DISTANCE4?$AA@ DB 'DISTANCE4', 00H	; `string'
CONST	ENDS
;	COMDAT ??_C@_09NNHKFOKH@DISTANCE3?$AA@
CONST	SEGMENT
??_C@_09NNHKFOKH@DISTANCE3?$AA@ DB 'DISTANCE3', 00H	; `string'
CONST	ENDS
;	COMDAT ??_C@_09MEGBGPOG@DISTANCE2?$AA@
CONST	SEGMENT
??_C@_09MEGBGPOG@DISTANCE2?$AA@ DB 'DISTANCE2', 00H	; `string'
CONST	ENDS
;	COMDAT ??_C@_09OPEMDMCF@DISTANCE1?$AA@
CONST	SEGMENT
??_C@_09OPEMDMCF@DISTANCE1?$AA@ DB 'DISTANCE1', 00H	; `string'
CONST	ENDS
;	COMDAT ??_C@_09PGFHANGE@DISTANCE0?$AA@
CONST	SEGMENT
??_C@_09PGFHANGE@DISTANCE0?$AA@ DB 'DISTANCE0', 00H	; `string'
CONST	ENDS
;	COMDAT ??_C@_0P@OLMEFOLC@SHADOW_ALL_MAX?$AA@
CONST	SEGMENT
??_C@_0P@OLMEFOLC@SHADOW_ALL_MAX?$AA@ DB 'SHADOW_ALL_MAX', 00H ; `string'
CONST	ENDS
;	COMDAT ??_C@_0BA@HAKJACB@SHADOW_ALL_HIGH?$AA@
CONST	SEGMENT
??_C@_0BA@HAKJACB@SHADOW_ALL_HIGH?$AA@ DB 'SHADOW_ALL_HIGH', 00H ; `string'
CONST	ENDS
;	COMDAT ??_C@_0L@IDBIEHAB@SHADOW_ALL?$AA@
CONST	SEGMENT
??_C@_0L@IDBIEHAB@SHADOW_ALL?$AA@ DB 'SHADOW_ALL', 00H	; `string'
CONST	ENDS
;	COMDAT ??_C@_0BH@GACINHHJ@SHADOW_GROUND_AND_SOLO?$AA@
CONST	SEGMENT
??_C@_0BH@GACINHHJ@SHADOW_GROUND_AND_SOLO?$AA@ DB 'SHADOW_GROUND_AND_SOLO'
	DB	00H						; `string'
CONST	ENDS
;	COMDAT ??_C@_0O@KCPINCHK@SHADOW_GROUND?$AA@
CONST	SEGMENT
??_C@_0O@KCPINCHK@SHADOW_GROUND?$AA@ DB 'SHADOW_GROUND', 00H ; `string'
CONST	ENDS
;	COMDAT ??_C@_0M@GJOLHPMA@SHADOW_NONE?$AA@
CONST	SEGMENT
??_C@_0M@GJOLHPMA@SHADOW_NONE?$AA@ DB 'SHADOW_NONE', 00H ; `string'
CONST	ENDS
;	COMDAT ??_C@_0BL@NHHJMELO@SKY_RENDER_MODE_MODULATE4X?$AA@
CONST	SEGMENT
??_C@_0BL@NHHJMELO@SKY_RENDER_MODE_MODULATE4X?$AA@ DB 'SKY_RENDER_MODE_MO'
	DB	'DULATE4X', 00H				; `string'
CONST	ENDS
;	COMDAT ??_C@_0BL@NDPELIAM@SKY_RENDER_MODE_MODULATE2X?$AA@
CONST	SEGMENT
??_C@_0BL@NDPELIAM@SKY_RENDER_MODE_MODULATE2X?$AA@ DB 'SKY_RENDER_MODE_MO'
	DB	'DULATE2X', 00H				; `string'
CONST	ENDS
;	COMDAT ??_C@_0BJ@IGDGIPGO@SKY_RENDER_MODE_MODULATE?$AA@
CONST	SEGMENT
??_C@_0BJ@IGDGIPGO@SKY_RENDER_MODE_MODULATE?$AA@ DB 'SKY_RENDER_MODE_MODU'
	DB	'LATE', 00H					; `string'
CONST	ENDS
;	COMDAT ??_C@_0BI@NLDLHPN@SKY_RENDER_MODE_TEXTURE?$AA@
CONST	SEGMENT
??_C@_0BI@NLDLHPN@SKY_RENDER_MODE_TEXTURE?$AA@ DB 'SKY_RENDER_MODE_TEXTUR'
	DB	'E', 00H					; `string'
CONST	ENDS
;	COMDAT ??_C@_0BI@JEJGCBJM@SKY_RENDER_MODE_DIFFUSE?$AA@
CONST	SEGMENT
??_C@_0BI@JEJGCBJM@SKY_RENDER_MODE_DIFFUSE?$AA@ DB 'SKY_RENDER_MODE_DIFFU'
	DB	'SE', 00H					; `string'
CONST	ENDS
;	COMDAT ??_C@_0BI@KFLFFAKF@SKY_RENDER_MODE_DEFAULT?$AA@
CONST	SEGMENT
??_C@_0BI@KFLFFAKF@SKY_RENDER_MODE_DEFAULT?$AA@ DB 'SKY_RENDER_MODE_DEFAU'
	DB	'LT', 00H					; `string'
CONST	ENDS
;	COMDAT ??_C@_0N@JJNCMAMK@PART_TERRAIN?$AA@
CONST	SEGMENT
??_C@_0N@JJNCMAMK@PART_TERRAIN?$AA@ DB 'PART_TERRAIN', 00H ; `string'
CONST	ENDS
;	COMDAT ??_C@_0M@FDJPOPAP@PART_OBJECT?$AA@
CONST	SEGMENT
??_C@_0M@FDJPOPAP@PART_OBJECT?$AA@ DB 'PART_OBJECT', 00H ; `string'
CONST	ENDS
;	COMDAT ??_C@_0L@LEAFDIF@PART_WATER?$AA@
CONST	SEGMENT
??_C@_0L@LEAFDIF@PART_WATER?$AA@ DB 'PART_WATER', 00H	; `string'
CONST	ENDS
;	COMDAT ??_C@_0L@OMDBBBIA@PART_CLOUD?$AA@
CONST	SEGMENT
??_C@_0L@OMDBBBIA@PART_CLOUD?$AA@ DB 'PART_CLOUD', 00H	; `string'
CONST	ENDS
;	COMDAT ??_C@_09GABNPPB@PART_TREE?$AA@
CONST	SEGMENT
??_C@_09GABNPPB@PART_TREE?$AA@ DB 'PART_TREE', 00H	; `string'
CONST	ENDS
;	COMDAT ??_C@_08NJILKGEB@PART_SKY?$AA@
CONST	SEGMENT
??_C@_08NJILKGEB@PART_SKY?$AA@ DB 'PART_SKY', 00H	; `string'
CONST	ENDS
;	COMDAT ??_C@_0L@EGCKCJDC@background?$AA@
CONST	SEGMENT
??_C@_0L@EGCKCJDC@background?$AA@ DB 'background', 00H	; `string'
CONST	ENDS
;	COMDAT ??_C@_08LPNOKPMJ@WarpTest?$AA@
CONST	SEGMENT
??_C@_08LPNOKPMJ@WarpTest?$AA@ DB 'WarpTest', 00H	; `string'
CONST	ENDS
;	COMDAT ??_C@_0BB@NIDJGFIB@DisableGuildArea?$AA@
CONST	SEGMENT
??_C@_0BB@NIDJGFIB@DisableGuildArea?$AA@ DB 'DisableGuildArea', 00H ; `string'
CONST	ENDS
;	COMDAT ??_C@_0BB@CIANHCAN@VisibleGuildArea?$AA@
CONST	SEGMENT
??_C@_0BB@CIANHCAN@VisibleGuildArea?$AA@ DB 'VisibleGuildArea', 00H ; `string'
CONST	ENDS
;	COMDAT ??_C@_0BH@MNHHOIMG@RegisterDungeonMapName?$AA@
CONST	SEGMENT
??_C@_0BH@MNHHOIMG@RegisterDungeonMapName?$AA@ DB 'RegisterDungeonMapName'
	DB	00H						; `string'
CONST	ENDS
;	COMDAT ??_C@_0M@JALIDFKN@SetXMasTree?$AA@
CONST	SEGMENT
??_C@_0M@JALIDFKN@SetXMasTree?$AA@ DB 'SetXMasTree', 00H ; `string'
CONST	ENDS
;	COMDAT ??_C@_0BD@FPJHLEBA@SetTransparentTree?$AA@
CONST	SEGMENT
??_C@_0BD@FPJHLEBA@SetTransparentTree?$AA@ DB 'SetTransparentTree', 00H ; `string'
CONST	ENDS
;	COMDAT ??_C@_0O@JBGHJBE@SetRenderSort?$AA@
CONST	SEGMENT
??_C@_0O@JBGHJBE@SetRenderSort?$AA@ DB 'SetRenderSort', 00H ; `string'
CONST	ENDS
;	COMDAT ??_C@_0N@BIHACEOH@SetBGLoading?$AA@
CONST	SEGMENT
??_C@_0N@BIHACEOH@SetBGLoading?$AA@ DB 'SetBGLoading', 00H ; `string'
CONST	ENDS
;	COMDAT ??_C@_0BD@DLMMDNAG@GetDistanceSetInfo?$AA@
CONST	SEGMENT
??_C@_0BD@DLMMDNAG@GetDistanceSetInfo?$AA@ DB 'GetDistanceSetInfo', 00H ; `string'
CONST	ENDS
;	COMDAT ??_C@_0L@HDMJNMBI@GetFarClip?$AA@
CONST	SEGMENT
??_C@_0L@HDMJNMBI@GetFarClip?$AA@ DB 'GetFarClip', 00H	; `string'
CONST	ENDS
;	COMDAT ??_C@_0BD@MAFLMANF@SetViewDistanceSet?$AA@
CONST	SEGMENT
??_C@_0BD@MAFLMANF@SetViewDistanceSet?$AA@ DB 'SetViewDistanceSet', 00H ; `string'
CONST	ENDS
;	COMDAT ??_C@_0BG@HJLACBME@SelectViewDistanceNum?$AA@
CONST	SEGMENT
??_C@_0BG@HJLACBME@SelectViewDistanceNum?$AA@ DB 'SelectViewDistanceNum', 00H ; `string'
CONST	ENDS
;	COMDAT ??_C@_0CD@KCFKJMJJ@GetRenderedGraphicThingInstanceN@
CONST	SEGMENT
??_C@_0CD@KCFKJMJJ@GetRenderedGraphicThingInstanceN@ DB 'GetRenderedGraph'
	DB	'icThingInstanceNum', 00H			; `string'
CONST	ENDS
;	COMDAT ??_C@_0BE@OLLMHPAP@GetRenderedSplatNum?$AA@
CONST	SEGMENT
??_C@_0BE@OLLMHPAP@GetRenderedSplatNum?$AA@ DB 'GetRenderedSplatNum', 00H ; `string'
CONST	ENDS
;	COMDAT ??_C@_0O@MBDLBPAA@SetSplatLimit?$AA@
CONST	SEGMENT
??_C@_0O@MBDLBPAA@SetSplatLimit?$AA@ DB 'SetSplatLimit', 00H ; `string'
CONST	ENDS
;	COMDAT ??_C@_0BC@CCJLGKJP@GetShadowMapColor?$AA@
CONST	SEGMENT
??_C@_0BC@CCJLGKJP@GetShadowMapColor?$AA@ DB 'GetShadowMapColor', 00H ; `string'
CONST	ENDS
;	COMDAT ??_C@_0P@PBNEJLOP@SetVisiblePart?$AA@
CONST	SEGMENT
??_C@_0P@PBNEJLOP@SetVisiblePart?$AA@ DB 'SetVisiblePart', 00H ; `string'
CONST	ENDS
;	COMDAT ??_C@_0P@JLOPHJNK@SetShadowLevel?$AA@
CONST	SEGMENT
??_C@_0P@JLOPHJNK@SetShadowLevel?$AA@ DB 'SetShadowLevel', 00H ; `string'
CONST	ENDS
;	COMDAT ??_C@_09EOGEIJMK@GetHeight?$AA@
CONST	SEGMENT
??_C@_09EOGEIJMK@GetHeight?$AA@ DB 'GetHeight', 00H	; `string'
CONST	ENDS
;	COMDAT ??_C@_0O@INGOKFGH@RenderDungeon?$AA@
CONST	SEGMENT
??_C@_0O@INGOKFGH@RenderDungeon?$AA@ DB 'RenderDungeon', 00H ; `string'
CONST	ENDS
;	COMDAT ??_C@_0BP@HPJLNAG@RenderCharacterShadowToTexture?$AA@
CONST	SEGMENT
??_C@_0BP@HPJLNAG@RenderCharacterShadowToTexture?$AA@ DB 'RenderCharacter'
	DB	'ShadowToTexture', 00H			; `string'
CONST	ENDS
;	COMDAT ??_C@_0BF@IFHDODFN@RenderAfterLensFlare?$AA@
CONST	SEGMENT
??_C@_0BF@IFHDODFN@RenderAfterLensFlare?$AA@ DB 'RenderAfterLensFlare', 00H ; `string'
CONST	ENDS
;	COMDAT ??_C@_0BG@FMKIIHNL@RenderBeforeLensFlare?$AA@
CONST	SEGMENT
??_C@_0BG@FMKIIHNL@RenderBeforeLensFlare?$AA@ DB 'RenderBeforeLensFlare', 00H ; `string'
CONST	ENDS
;	COMDAT ??_C@_0N@NIFFJBKD@RenderEffect?$AA@
CONST	SEGMENT
??_C@_0N@NIFFJBKD@RenderEffect?$AA@ DB 'RenderEffect', 00H ; `string'
CONST	ENDS
;	COMDAT ??_C@_0M@FKCFAPAJ@RenderWater?$AA@
CONST	SEGMENT
??_C@_0M@FKCFAPAJ@RenderWater?$AA@ DB 'RenderWater', 00H ; `string'
CONST	ENDS
;	COMDAT ??_C@_0M@LNFEENAM@RenderCloud?$AA@
CONST	SEGMENT
??_C@_0M@LNFEENAM@RenderCloud?$AA@ DB 'RenderCloud', 00H ; `string'
CONST	ENDS
;	COMDAT ??_C@_09LFBELEBM@RenderSky?$AA@
CONST	SEGMENT
??_C@_09LFBELEBM@RenderSky?$AA@ DB 'RenderSky', 00H	; `string'
CONST	ENDS
;	COMDAT ??_C@_0BA@OAOAOPAN@RenderCollision?$AA@
CONST	SEGMENT
??_C@_0BA@OAOAOPAN@RenderCollision?$AA@ DB 'RenderCollision', 00H ; `string'
CONST	ENDS
;	COMDAT ??_C@_0BA@FDBALAKK@RenderPCBlocker?$AA@
CONST	SEGMENT
??_C@_0BA@FDBALAKK@RenderPCBlocker?$AA@ DB 'RenderPCBlocker', 00H ; `string'
CONST	ENDS
;	COMDAT ??_C@_0L@KIAPHAEH@Initialize?$AA@
CONST	SEGMENT
??_C@_0L@KIAPHAEH@Initialize?$AA@ DB 'Initialize', 00H	; `string'
CONST	ENDS
;	COMDAT ??_C@_0BG@PNPLCIKE@SetBackgroundDirLight?$AA@
CONST	SEGMENT
??_C@_0BG@PNPLCIKE@SetBackgroundDirLight?$AA@ DB 'SetBackgroundDirLight', 00H ; `string'
CONST	ENDS
;	COMDAT ??_C@_0BF@DFKOLKBM@SetCharacterDirLight?$AA@
CONST	SEGMENT
??_C@_0BF@DFKOLKBM@SetCharacterDirLight?$AA@ DB 'SetCharacterDirLight', 00H ; `string'
CONST	ENDS
;	COMDAT ??_C@_0P@DMJMMGKP@EndEnvironment?$AA@
CONST	SEGMENT
??_C@_0P@DMJMMGKP@EndEnvironment?$AA@ DB 'EndEnvironment', 00H ; `string'
CONST	ENDS
;	COMDAT ??_C@_0BB@JHBDNCLO@BeginEnvironment?$AA@
CONST	SEGMENT
??_C@_0BB@JHBDNCLO@BeginEnvironment?$AA@ DB 'BeginEnvironment', 00H ; `string'
CONST	ENDS
;	COMDAT ??_C@_0BA@DNJBOOGC@GetPickingPoint?$AA@
CONST	SEGMENT
??_C@_0BA@DNJBOOGC@GetPickingPoint?$AA@ DB 'GetPickingPoint', 00H ; `string'
CONST	ENDS
;	COMDAT ??_C@_0BC@DINKEDB@GetCurrentMapName?$AA@
CONST	SEGMENT
??_C@_0BC@DINKEDB@GetCurrentMapName?$AA@ DB 'GetCurrentMapName', 00H ; `string'
CONST	ENDS
;	COMDAT ??_C@_0BD@BHFOHELP@SetEnvironmentData?$AA@
CONST	SEGMENT
??_C@_0BD@BHFOHELP@SetEnvironmentData?$AA@ DB 'SetEnvironmentData', 00H ; `string'
CONST	ENDS
;	COMDAT ??_C@_0BI@CHPHFBLI@RegisterEnvironmentData?$AA@
CONST	SEGMENT
??_C@_0BI@CHPHFBLI@RegisterEnvironmentData?$AA@ DB 'RegisterEnvironmentDa'
	DB	'ta', 00H					; `string'
CONST	ENDS
;	COMDAT ??_C@_07BDCAJABG@Destroy?$AA@
CONST	SEGMENT
??_C@_07BDCAJABG@Destroy?$AA@ DB 'Destroy', 00H		; `string'
CONST	ENDS
;	COMDAT ??_C@_07DJFPJOEL@LoadMap?$AA@
CONST	SEGMENT
??_C@_07DJFPJOEL@LoadMap?$AA@ DB 'LoadMap', 00H		; `string'
CONST	ENDS
;	COMDAT ??_C@_0BE@LMGPCAD@GetRenderShadowTime?$AA@
CONST	SEGMENT
??_C@_0BE@LMGPCAD@GetRenderShadowTime?$AA@ DB 'GetRenderShadowTime', 00H ; `string'
CONST	ENDS
;	COMDAT ??_C@_0BI@NCKBLOGC@GlobalPositionToMapInfo?$AA@
CONST	SEGMENT
??_C@_0BI@NCKBLOGC@GlobalPositionToMapInfo?$AA@ DB 'GlobalPositionToMapIn'
	DB	'fo', 00H					; `string'
CONST	ENDS
;	COMDAT ??_C@_0BO@OIANPCLB@GlobalPositionToLocalPosition?$AA@
CONST	SEGMENT
??_C@_0BO@OIANPCLB@GlobalPositionToLocalPosition?$AA@ DB 'GlobalPositionT'
	DB	'oLocalPosition', 00H			; `string'
CONST	ENDS
;	COMDAT ??_C@_0L@LGAPBDCD@EnableSnow?$AA@
CONST	SEGMENT
??_C@_0L@LGAPBDCD@EnableSnow?$AA@ DB 'EnableSnow', 00H	; `string'
CONST	ENDS
;	COMDAT ??_C@_0BF@ODLMFADE@EnableSoftwareTiling?$AA@
CONST	SEGMENT
??_C@_0BF@ODLMFADE@EnableSoftwareTiling?$AA@ DB 'EnableSoftwareTiling', 00H ; `string'
CONST	ENDS
;	COMDAT ??_C@_0BB@BFKDCFBH@IsSoftwareTiling?$AA@
CONST	SEGMENT
??_C@_0BB@BFKDCFBH@IsSoftwareTiling?$AA@ DB 'IsSoftwareTiling', 00H ; `string'
CONST	ENDS
;	COMDAT ??_C@_03FEAIAPNA@sii?$AA@
CONST	SEGMENT
??_C@_03FEAIAPNA@sii?$AA@ DB 'sii', 00H			; `string'
CONST	ENDS
;	COMDAT ??_C@_04MMEPMOLC@ifff?$AA@
CONST	SEGMENT
??_C@_04MMEPMOLC@ifff?$AA@ DB 'ifff', 00H		; `string'
CONST	ENDS
;	COMDAT ??_C@_0CL@HHHOJMJN@background?4SetSplatLimit?$CIiSplatN@
CONST	SEGMENT
??_C@_0CL@HHHOJMJN@background?4SetSplatLimit?$CIiSplatN@ DB 'background.S'
	DB	'etSplatLimit(iSplatNum(%d)>=0)', 00H	; `string'
CONST	ENDS
;	COMDAT ??_C@_0CC@JHPGFABG@ePart?$CI?$CFd?$CJ?$DMbackground?4PART_NUM?$CI?$CFd@
CONST	SEGMENT
??_C@_0CC@JHPGFABG@ePart?$CI?$CFd?$CJ?$DMbackground?4PART_NUM?$CI?$CFd@ DB 'e'
	DB	'Part(%d)<background.PART_NUM(%d)', 00H	; `string'
CONST	ENDS
;	COMDAT ??_C@_04KDJJDIPA@iifs?$AA@
CONST	SEGMENT
??_C@_04KDJJDIPA@iifs?$AA@ DB 'iifs', 00H		; `string'
CONST	ENDS
;	COMDAT ??_C@_03JDANDILB@?$CFd?5?$AA@
CONST	SEGMENT
??_C@_03JDANDILB@?$CFd?5?$AA@ DB '%d ', 00H		; `string'
CONST	ENDS
;	COMDAT ??_C@_03LPALPDIP@fff?$AA@
CONST	SEGMENT
??_C@_03LPALPDIP@fff?$AA@ DB 'fff', 00H			; `string'
CONST	ENDS
;	COMDAT ??_C@_0EI@HLELLDPI@background?4RegisterEnvironmentDa@
CONST	SEGMENT
??_C@_0EI@HLELLDPI@background?4RegisterEnvironmentDa@ DB 'background.Regi'
	DB	'sterEnvironmentData(iIndex=%d, szEnvironmentFileName=%s)', 00H ; `string'
PUBLIC	?_Compat@?$_Vector_const_iterator@V?$_Vector_val@U?$_Simple_types@H@std@@@std@@@std@@QBEXABV12@@Z ; std::_Vector_const_iterator<std::_Vector_val<std::_Simple_types<int> > >::_Compat
PUBLIC	??E?$_Vector_const_iterator@V?$_Vector_val@U?$_Simple_types@H@std@@@std@@@std@@QAEAAV01@XZ ; std::_Vector_const_iterator<std::_Vector_val<std::_Simple_types<int> > >::operator++
PUBLIC	??0?$_Vector_const_iterator@V?$_Vector_val@U?$_Simple_types@H@std@@@std@@@std@@QAE@PAHPBU_Container_base0@1@@Z ; std::_Vector_const_iterator<std::_Vector_val<std::_Simple_types<int> > >::_Vector_const_iterator<std::_Vector_val<std::_Simple_types<int> > >
PUBLIC	??8?$_Vector_const_iterator@V?$_Vector_val@U?$_Simple_types@H@std@@@std@@@std@@QBE_NABV01@@Z ; std::_Vector_const_iterator<std::_Vector_val<std::_Simple_types<int> > >::operator==
PUBLIC	??D?$_Vector_const_iterator@V?$_Vector_val@U?$_Simple_types@H@std@@@std@@@std@@QBEABHXZ ; std::_Vector_const_iterator<std::_Vector_val<std::_Simple_types<int> > >::operator*
PUBLIC	??E?$_Vector_iterator@V?$_Vector_val@U?$_Simple_types@H@std@@@std@@@std@@QAEAAV01@XZ ; std::_Vector_iterator<std::_Vector_val<std::_Simple_types<int> > >::operator++
PUBLIC	??0?$_Vector_iterator@V?$_Vector_val@U?$_Simple_types@H@std@@@std@@@std@@QAE@PAHPBU_Container_base0@1@@Z ; std::_Vector_iterator<std::_Vector_val<std::_Simple_types<int> > >::_Vector_iterator<std::_Vector_val<std::_Simple_types<int> > >
PUBLIC	??9?$_Vector_const_iterator@V?$_Vector_val@U?$_Simple_types@H@std@@@std@@@std@@QBE_NABV01@@Z ; std::_Vector_const_iterator<std::_Vector_val<std::_Simple_types<int> > >::operator!=
PUBLIC	??E?$_Vector_iterator@V?$_Vector_val@U?$_Simple_types@H@std@@@std@@@std@@QAE?AV01@H@Z ; std::_Vector_iterator<std::_Vector_val<std::_Simple_types<int> > >::operator++
PUBLIC	??D?$_Vector_iterator@V?$_Vector_val@U?$_Simple_types@H@std@@@std@@@std@@QBEAAHXZ ; std::_Vector_iterator<std::_Vector_val<std::_Simple_types<int> > >::operator*
PUBLIC	?end@?$vector@HV?$allocator@H@std@@@std@@QAE?AV?$_Vector_iterator@V?$_Vector_val@U?$_Simple_types@H@std@@@std@@@2@XZ ; std::vector<int,std::allocator<int> >::end
PUBLIC	?begin@?$vector@HV?$allocator@H@std@@@std@@QAE?AV?$_Vector_iterator@V?$_Vector_val@U?$_Simple_types@H@std@@@std@@@2@XZ ; std::vector<int,std::allocator<int> >::begin
PUBLIC	?initBackground@@YAXXZ				; initBackground
PUBLIC	?backgroundDisableGuildArea@@YAPAU_object@@PAU1@0@Z ; backgroundDisableGuildArea
PUBLIC	?backgroundVisibleGuildArea@@YAPAU_object@@PAU1@0@Z ; backgroundVisibleGuildArea
PUBLIC	?backgroundRegisterDungeonMapName@@YAPAU_object@@PAU1@0@Z ; backgroundRegisterDungeonMapName
PUBLIC	?backgroundSetXMasTree@@YAPAU_object@@PAU1@0@Z	; backgroundSetXMasTree
PUBLIC	?backgroundWarpTest@@YAPAU_object@@PAU1@0@Z	; backgroundWarpTest
PUBLIC	?backgroundGlobalPositionToMapInfo@@YAPAU_object@@PAU1@0@Z ; backgroundGlobalPositionToMapInfo
PUBLIC	?backgroundGlobalPositionToLocalPosition@@YAPAU_object@@PAU1@0@Z ; backgroundGlobalPositionToLocalPosition
PUBLIC	?backgroundSetTransparentTree@@YAPAU_object@@PAU1@0@Z ; backgroundSetTransparentTree
PUBLIC	?backgroundSetRenderSort@@YAPAU_object@@PAU1@0@Z ; backgroundSetRenderSort
PUBLIC	?backgroundSetBGLoading@@YAPAU_object@@PAU1@0@Z	; backgroundSetBGLoading
PUBLIC	?backgroundGetDistanceSetInfo@@YAPAU_object@@PAU1@0@Z ; backgroundGetDistanceSetInfo
PUBLIC	?backgroundGetFarClip@@YAPAU_object@@PAU1@0@Z	; backgroundGetFarClip
PUBLIC	?backgroundSetViewDistanceSet@@YAPAU_object@@PAU1@0@Z ; backgroundSetViewDistanceSet
PUBLIC	?backgroundSelectViewDistanceNum@@YAPAU_object@@PAU1@0@Z ; backgroundSelectViewDistanceNum
PUBLIC	?backgroundSetSpaltLimit@@YAPAU_object@@PAU1@0@Z ; backgroundSetSpaltLimit
PUBLIC	?backgroundSetVisiblePart@@YAPAU_object@@PAU1@0@Z ; backgroundSetVisiblePart
PUBLIC	?backgroundSetShadowLevel@@YAPAU_object@@PAU1@0@Z ; backgroundSetShadowLevel
PUBLIC	?backgroundGetShadowMapcolor@@YAPAU_object@@PAU1@0@Z ; backgroundGetShadowMapcolor
PUBLIC	?backgroundGetRenderShadowTime@@YAPAU_object@@PAU1@0@Z ; backgroundGetRenderShadowTime
PUBLIC	?backgroundGetRenderedGTINum@@YAPAU_object@@PAU1@0@Z ; backgroundGetRenderedGTINum
PUBLIC	?backgroundGetRenderedSplatNum@@YAPAU_object@@PAU1@0@Z ; backgroundGetRenderedSplatNum
PUBLIC	?backgroundGetHeight@@YAPAU_object@@PAU1@0@Z	; backgroundGetHeight
PUBLIC	?backgroundRenderDungeon@@YAPAU_object@@PAU1@0@Z ; backgroundRenderDungeon
PUBLIC	?backgroundRenderCharacterShadowToTexture@@YAPAU_object@@PAU1@0@Z ; backgroundRenderCharacterShadowToTexture
PUBLIC	?backgroundRenderAfterLensFlare@@YAPAU_object@@PAU1@0@Z ; backgroundRenderAfterLensFlare
PUBLIC	?backgroundRenderBeforeLensFlare@@YAPAU_object@@PAU1@0@Z ; backgroundRenderBeforeLensFlare
PUBLIC	?backgroundRenderEffect@@YAPAU_object@@PAU1@0@Z	; backgroundRenderEffect
PUBLIC	?backgroundRenderWater@@YAPAU_object@@PAU1@0@Z	; backgroundRenderWater
PUBLIC	?backgroundRenderCloud@@YAPAU_object@@PAU1@0@Z	; backgroundRenderCloud
PUBLIC	?backgroundRenderSky@@YAPAU_object@@PAU1@0@Z	; backgroundRenderSky
PUBLIC	?backgroundRenderCollision@@YAPAU_object@@PAU1@0@Z ; backgroundRenderCollision
PUBLIC	?backgroundRenderPCBlocker@@YAPAU_object@@PAU1@0@Z ; backgroundRenderPCBlocker
PUBLIC	?backgroundRender@@YAPAU_object@@PAU1@0@Z	; backgroundRender
PUBLIC	?backgroundUpdate@@YAPAU_object@@PAU1@0@Z	; backgroundUpdate
PUBLIC	?backgroundInitialize@@YAPAU_object@@PAU1@0@Z	; backgroundInitialize
PUBLIC	?backgroundSetBackgroundDirLight@@YAPAU_object@@PAU1@0@Z ; backgroundSetBackgroundDirLight
PUBLIC	?backgroundSetCharacterDirLight@@YAPAU_object@@PAU1@0@Z ; backgroundSetCharacterDirLight
PUBLIC	?backgroundEndEnvironemt@@YAPAU_object@@PAU1@0@Z ; backgroundEndEnvironemt
PUBLIC	?backgroundBeginEnvironment@@YAPAU_object@@PAU1@0@Z ; backgroundBeginEnvironment
PUBLIC	?backgroundGetPickingPoint@@YAPAU_object@@PAU1@0@Z ; backgroundGetPickingPoint
PUBLIC	?backgroundGetCurrentMapName@@YAPAU_object@@PAU1@0@Z ; backgroundGetCurrentMapName
PUBLIC	?backgroundSetEnvironmentData@@YAPAU_object@@PAU1@0@Z ; backgroundSetEnvironmentData
PUBLIC	?backgroundRegisterEnvironmentData@@YAPAU_object@@PAU1@0@Z ; backgroundRegisterEnvironmentData
PUBLIC	?backgroundDestroy@@YAPAU_object@@PAU1@0@Z	; backgroundDestroy
PUBLIC	?backgroundLoadMap@@YAPAU_object@@PAU1@0@Z	; backgroundLoadMap
PUBLIC	?backgroundEnableSnow@@YAPAU_object@@PAU1@0@Z	; backgroundEnableSnow
PUBLIC	?backgroundEnableSoftwareTiling@@YAPAU_object@@PAU1@0@Z ; backgroundEnableSoftwareTiling
PUBLIC	?backgroundIsSoftwareTiling@@YAPAU_object@@PAU1@0@Z ; backgroundIsSoftwareTiling
	ALIGN	4

_piecewise_construct DB 01H DUP (?)
_BSS	ENDS
;	COMDAT xdata$x
xdata$x	SEGMENT
__ehfuncinfo$?backgroundLoadMap@@YAPAU_object@@PAU1@0@Z DD 019930522H
	DD	01H
	DD	FLAT:__unwindtable$?backgroundLoadMap@@YAPAU_object@@PAU1@0@Z
	DD	2 DUP(00H)
	DD	2 DUP(00H)
	DD	00H
	DD	01H
__unwindtable$?backgroundLoadMap@@YAPAU_object@@PAU1@0@Z DD 0ffffffffH
	DD	FLAT:__unwindfunclet$?backgroundLoadMap@@YAPAU_object@@PAU1@0@Z$0
; Function compile flags: /Ogtp
; File d:\metin2\metin2\client_source_clean\client_source_clean\source\userinterface\pythonbackgroundmodule.cpp
;	COMDAT ?backgroundIsSoftwareTiling@@YAPAU_object@@PAU1@0@Z
_TEXT	SEGMENT
_poSelf$ = 8						; size = 4
_poArgs$ = 12						; size = 4
?backgroundIsSoftwareTiling@@YAPAU_object@@PAU1@0@Z PROC ; backgroundIsSoftwareTiling, COMDAT

; 9    : 	CPythonBackground& rkBG=CPythonBackground::Instance();
; 10   : 	return Py_BuildValue("i", rkBG.IsSoftwareTilingEnable());

  00000	8b 0d 00 00 00
	00		 mov	 ecx, DWORD PTR ?ms_singleton@?$CSingleton@VCPythonBackground@@@@0PAVCPythonBackground@@A ; CSingleton<CPythonBackground>::ms_singleton
  00006	e8 00 00 00 00	 call	 ?IsSoftwareTilingEnable@CMapManager@@QAE_NXZ ; CMapManager::IsSoftwareTilingEnable
  0000b	0f b6 c0	 movzx	 eax, al
  0000e	50		 push	 eax
  0000f	68 00 00 00 00	 push	 OFFSET ??_C@_01KBJDNOO@i?$AA@
  00014	ff 15 00 00 00
	00		 call	 DWORD PTR __imp__Py_BuildValue
  0001a	83 c4 08	 add	 esp, 8

; 11   : }

  0001d	c3		 ret	 0
?backgroundIsSoftwareTiling@@YAPAU_object@@PAU1@0@Z ENDP ; backgroundIsSoftwareTiling
_TEXT	ENDS
; Function compile flags: /Ogtp
; File d:\metin2\metin2\client_source_clean\client_source_clean\source\userinterface\pythonbackgroundmodule.cpp
;	COMDAT ?backgroundEnableSoftwareTiling@@YAPAU_object@@PAU1@0@Z
_TEXT	SEGMENT
_nIsEnable$ = -8					; size = 4
_isEnable$ = -4						; size = 1
_poSelf$ = 8						; size = 4
_poArgs$ = 12						; size = 4
?backgroundEnableSoftwareTiling@@YAPAU_object@@PAU1@0@Z PROC ; backgroundEnableSoftwareTiling, COMDAT

; 14   : {

  00000	55		 push	 ebp
  00001	8b ec		 mov	 ebp, esp
  00003	83 ec 08	 sub	 esp, 8

; 15   : 	int nIsEnable;
; 16   : 	if (!PyTuple_GetInteger(poArgs, 0, &nIsEnable))

  00006	8d 45 f8	 lea	 eax, DWORD PTR _nIsEnable$[ebp]
  00009	50		 push	 eax
  0000a	6a 00		 push	 0
  0000c	ff 75 0c	 push	 DWORD PTR _poArgs$[ebp]
  0000f	e8 00 00 00 00	 call	 ?PyTuple_GetInteger@@YA_NPAU_object@@HPAH@Z ; PyTuple_GetInteger
  00014	83 c4 0c	 add	 esp, 12			; 0000000cH
  00017	84 c0		 test	 al, al
  00019	75 09		 jne	 SHORT $LN1@background

; 17   : 		return Py_BadArgument();

  0001b	e8 00 00 00 00	 call	 ?Py_BadArgument@@YAPAU_object@@XZ ; Py_BadArgument

; 27   : }

  00020	8b e5		 mov	 esp, ebp
  00022	5d		 pop	 ebp
  00023	c3		 ret	 0
$LN1@background:

; 18   : 
; 19   : 	bool isEnable=nIsEnable ? true : false;

  00024	83 7d f8 00	 cmp	 DWORD PTR _nIsEnable$[ebp], 0

; 20   : 
; 21   : 	CPythonBackground& rkBG=CPythonBackground::Instance();
; 22   : 	rkBG.ReserveSoftwareTilingEnable(isEnable);

  00028	8b 0d 00 00 00
	00		 mov	 ecx, DWORD PTR ?ms_singleton@?$CSingleton@VCPythonBackground@@@@0PAVCPythonBackground@@A ; CSingleton<CPythonBackground>::ms_singleton
  0002e	0f 95 45 fc	 setne	 BYTE PTR _isEnable$[ebp]
  00032	ff 75 fc	 push	 DWORD PTR _isEnable$[ebp]
  00035	e8 00 00 00 00	 call	 ?ReserveSoftwareTilingEnable@CMapManager@@QAEX_N@Z ; CMapManager::ReserveSoftwareTilingEnable

; 23   : 
; 24   : 	CPythonSystem& rkSystem=CPythonSystem::Instance();
; 25   : 	rkSystem.SetSoftwareTiling(isEnable);

  0003a	ff 75 fc	 push	 DWORD PTR _isEnable$[ebp]
  0003d	8b 0d 00 00 00
	00		 mov	 ecx, DWORD PTR ?ms_singleton@?$CSingleton@VCPythonSystem@@@@0PAVCPythonSystem@@A ; CSingleton<CPythonSystem>::ms_singleton
  00043	e8 00 00 00 00	 call	 ?SetSoftwareTiling@CPythonSystem@@QAEX_N@Z ; CPythonSystem::SetSoftwareTiling

; 26   : 	return Py_BuildNone();

  00048	e8 00 00 00 00	 call	 ?Py_BuildNone@@YAPAU_object@@XZ ; Py_BuildNone

; 27   : }

  0004d	8b e5		 mov	 esp, ebp
  0004f	5d		 pop	 ebp
  00050	c3		 ret	 0
?backgroundEnableSoftwareTiling@@YAPAU_object@@PAU1@0@Z ENDP ; backgroundEnableSoftwareTiling
_TEXT	ENDS
; Function compile flags: /Ogtp
; File d:\metin2\metin2\client_source_clean\client_source_clean\source\userinterface\pythonbackgroundmodule.cpp
;	COMDAT ?backgroundEnableSnow@@YAPAU_object@@PAU1@0@Z
_TEXT	SEGMENT
_nIsEnable$ = -4					; size = 4
_poSelf$ = 8						; size = 4
_poArgs$ = 12						; size = 4
?backgroundEnableSnow@@YAPAU_object@@PAU1@0@Z PROC	; backgroundEnableSnow, COMDAT

; 30   : {

  00000	55		 push	 ebp
  00001	8b ec		 mov	 ebp, esp
  00003	51		 push	 ecx

; 31   : 	int nIsEnable;
; 32   : 	if (!PyTuple_GetInteger(poArgs, 0, &nIsEnable))

  00004	8d 45 fc	 lea	 eax, DWORD PTR _nIsEnable$[ebp]
  00007	50		 push	 eax
  00008	6a 00		 push	 0
  0000a	ff 75 0c	 push	 DWORD PTR _poArgs$[ebp]
  0000d	e8 00 00 00 00	 call	 ?PyTuple_GetInteger@@YA_NPAU_object@@HPAH@Z ; PyTuple_GetInteger
  00012	83 c4 0c	 add	 esp, 12			; 0000000cH
  00015	84 c0		 test	 al, al
  00017	75 09		 jne	 SHORT $LN3@background

; 33   : 		return Py_BadArgument();

  00019	e8 00 00 00 00	 call	 ?Py_BadArgument@@YAPAU_object@@XZ ; Py_BadArgument

; 42   : }

  0001e	8b e5		 mov	 esp, ebp
  00020	5d		 pop	 ebp
  00021	c3		 ret	 0
$LN3@background:

; 34   : 
; 35   : 	CPythonBackground& rkBG=CPythonBackground::Instance();
; 36   : 	if (nIsEnable)

  00022	83 7d fc 00	 cmp	 DWORD PTR _nIsEnable$[ebp], 0
  00026	8b 0d 00 00 00
	00		 mov	 ecx, DWORD PTR ?ms_singleton@?$CSingleton@VCPythonBackground@@@@0PAVCPythonBackground@@A ; CSingleton<CPythonBackground>::ms_singleton
  0002c	74 0e		 je	 SHORT $LN2@background

; 37   : 		rkBG.EnableSnowEnvironment();

  0002e	e8 00 00 00 00	 call	 ?EnableSnowEnvironment@CPythonBackground@@QAEXXZ ; CPythonBackground::EnableSnowEnvironment

; 40   : 
; 41   : 	return Py_BuildNone();

  00033	e8 00 00 00 00	 call	 ?Py_BuildNone@@YAPAU_object@@XZ ; Py_BuildNone

; 42   : }

  00038	8b e5		 mov	 esp, ebp
  0003a	5d		 pop	 ebp
  0003b	c3		 ret	 0
$LN2@background:

; 38   : 	else
; 39   : 		rkBG.DisableSnowEnvironment();

  0003c	e8 00 00 00 00	 call	 ?DisableSnowEnvironment@CPythonBackground@@QAEXXZ ; CPythonBackground::DisableSnowEnvironment

; 40   : 
; 41   : 	return Py_BuildNone();

  00041	e8 00 00 00 00	 call	 ?Py_BuildNone@@YAPAU_object@@XZ ; Py_BuildNone

; 42   : }

  00046	8b e5		 mov	 esp, ebp
  00048	5d		 pop	 ebp
  00049	c3		 ret	 0
?backgroundEnableSnow@@YAPAU_object@@PAU1@0@Z ENDP	; backgroundEnableSnow
_TEXT	ENDS
; Function compile flags: /Ogtp
; File d:\metin2\metin2\client_source_clean\client_source_clean\source\userinterface\pythonbackgroundmodule.cpp
;	COMDAT ?backgroundLoadMap@@YAPAU_object@@PAU1@0@Z
_TEXT	SEGMENT
_y$ = -60						; size = 4
_pszMapPathName$ = -56					; size = 4
_x$ = -52						; size = 4
_z$ = -48						; size = 4
$T2 = -44						; size = 24
__$ArrayPad$ = -20					; size = 4
__$EHRec$ = -12						; size = 12
_poSelf$ = 8						; size = 4
_poArgs$ = 12						; size = 4
?backgroundLoadMap@@YAPAU_object@@PAU1@0@Z PROC		; backgroundLoadMap, COMDAT

; 45   : {

  00000	55		 push	 ebp
  00001	8b ec		 mov	 ebp, esp
  00003	83 e4 f8	 and	 esp, -8			; fffffff8H
  00006	6a ff		 push	 -1
  00008	68 00 00 00 00	 push	 __ehhandler$?backgroundLoadMap@@YAPAU_object@@PAU1@0@Z
  0000d	64 a1 00 00 00
	00		 mov	 eax, DWORD PTR fs:0
  00013	50		 push	 eax
  00014	83 ec 30	 sub	 esp, 48			; 00000030H
  00017	a1 00 00 00 00	 mov	 eax, DWORD PTR ___security_cookie
  0001c	33 c4		 xor	 eax, esp
  0001e	89 44 24 28	 mov	 DWORD PTR __$ArrayPad$[esp+60], eax
  00022	56		 push	 esi
  00023	a1 00 00 00 00	 mov	 eax, DWORD PTR ___security_cookie
  00028	33 c4		 xor	 eax, esp
  0002a	50		 push	 eax
  0002b	8d 44 24 38	 lea	 eax, DWORD PTR __$EHRec$[esp+68]
  0002f	64 a3 00 00 00
	00		 mov	 DWORD PTR fs:0, eax
  00035	8b 75 0c	 mov	 esi, DWORD PTR _poArgs$[ebp]

; 46   : 	char * pszMapPathName;
; 47   : 
; 48   : 	if (!PyTuple_GetString(poArgs, 0, &pszMapPathName))

  00038	8d 44 24 0c	 lea	 eax, DWORD PTR _pszMapPathName$[esp+68]
  0003c	50		 push	 eax
  0003d	6a 00		 push	 0
  0003f	56		 push	 esi
  00040	e8 00 00 00 00	 call	 ?PyTuple_GetString@@YA_NPAU_object@@HPAPAD@Z ; PyTuple_GetString
  00045	83 c4 0c	 add	 esp, 12			; 0000000cH
  00048	84 c0		 test	 al, al
  0004a	75 0a		 jne	 SHORT $LN4@background
$LN11@background:

; 49   : 		return Py_BadArgument();

  0004c	e8 00 00 00 00	 call	 ?Py_BadArgument@@YAPAU_object@@XZ ; Py_BadArgument
  00051	e9 9f 00 00 00	 jmp	 $LN5@background
$LN4@background:

; 50   : 
; 51   : 	float x, y, z;
; 52   : 
; 53   : 	if (!PyTuple_GetFloat(poArgs, 1, &x))

  00056	8d 44 24 10	 lea	 eax, DWORD PTR _x$[esp+68]
  0005a	50		 push	 eax
  0005b	6a 01		 push	 1
  0005d	56		 push	 esi
  0005e	e8 00 00 00 00	 call	 ?PyTuple_GetFloat@@YA_NPAU_object@@HPAM@Z ; PyTuple_GetFloat
  00063	83 c4 0c	 add	 esp, 12			; 0000000cH
  00066	84 c0		 test	 al, al
  00068	74 e2		 je	 SHORT $LN11@background

; 54   : 		return Py_BadArgument();
; 55   : 
; 56   : 	if (!PyTuple_GetFloat(poArgs, 2, &y))

  0006a	8d 44 24 08	 lea	 eax, DWORD PTR _y$[esp+68]
  0006e	50		 push	 eax
  0006f	6a 02		 push	 2
  00071	56		 push	 esi
  00072	e8 00 00 00 00	 call	 ?PyTuple_GetFloat@@YA_NPAU_object@@HPAM@Z ; PyTuple_GetFloat
  00077	83 c4 0c	 add	 esp, 12			; 0000000cH
  0007a	84 c0		 test	 al, al
  0007c	74 ce		 je	 SHORT $LN11@background

; 57   : 		return Py_BadArgument();
; 58   : 
; 59   : 	if (!PyTuple_GetFloat(poArgs, 3, &z))

  0007e	8d 44 24 14	 lea	 eax, DWORD PTR _z$[esp+68]
  00082	50		 push	 eax
  00083	6a 03		 push	 3
  00085	56		 push	 esi
  00086	e8 00 00 00 00	 call	 ?PyTuple_GetFloat@@YA_NPAU_object@@HPAM@Z ; PyTuple_GetFloat
  0008b	83 c4 0c	 add	 esp, 12			; 0000000cH
  0008e	84 c0		 test	 al, al
  00090	74 ba		 je	 SHORT $LN11@background

; 60   : 		return Py_BadArgument();
; 61   : 
; 62   : 	CPythonBackground& rkBG=CPythonBackground::Instance();
; 63   : 	rkBG.LoadMap(pszMapPathName, x, y, z);

  00092	ff 74 24 0c	 push	 DWORD PTR _pszMapPathName$[esp+68]
  00096	8b 35 00 00 00
	00		 mov	 esi, DWORD PTR ?ms_singleton@?$CSingleton@VCPythonBackground@@@@0PAVCPythonBackground@@A ; CSingleton<CPythonBackground>::ms_singleton
  0009c	8d 4c 24 1c	 lea	 ecx, DWORD PTR $T2[esp+72]
  000a0	e8 00 00 00 00	 call	 ??0?$basic_string@DU?$char_traits@D@std@@V?$allocator@D@2@@std@@QAE@PBD@Z ; std::basic_string<char,std::char_traits<char>,std::allocator<char> >::basic_string<char,std::char_traits<char>,std::allocator<char> >
  000a5	c7 44 24 40 00
	00 00 00	 mov	 DWORD PTR __$EHRec$[esp+76], 0
  000ad	8d 4c 24 18	 lea	 ecx, DWORD PTR $T2[esp+68]
  000b1	f3 0f 10 44 24
	14		 movss	 xmm0, DWORD PTR _z$[esp+68]
  000b7	83 ec 0c	 sub	 esp, 12			; 0000000cH
  000ba	8b 06		 mov	 eax, DWORD PTR [esi]
  000bc	f3 0f 11 44 24
	08		 movss	 DWORD PTR [esp+8], xmm0
  000c2	f3 0f 10 44 24
	14		 movss	 xmm0, DWORD PTR _y$[esp+80]
  000c8	f3 0f 11 44 24
	04		 movss	 DWORD PTR [esp+4], xmm0
  000ce	f3 0f 10 44 24
	1c		 movss	 xmm0, DWORD PTR _x$[esp+80]
  000d4	f3 0f 11 04 24	 movss	 DWORD PTR [esp], xmm0
  000d9	51		 push	 ecx
  000da	8b ce		 mov	 ecx, esi
  000dc	ff 50 0c	 call	 DWORD PTR [eax+12]
  000df	8d 4c 24 18	 lea	 ecx, DWORD PTR $T2[esp+68]
  000e3	c7 44 24 40 ff
	ff ff ff	 mov	 DWORD PTR __$EHRec$[esp+76], -1
  000eb	e8 00 00 00 00	 call	 ??1?$basic_string@DU?$char_traits@D@std@@V?$allocator@D@2@@std@@QAE@XZ ; std::basic_string<char,std::char_traits<char>,std::allocator<char> >::~basic_string<char,std::char_traits<char>,std::allocator<char> >

; 64   : 
; 65   : //#ifdef _DEBUG
; 66   : //	CMapOutdoor& rkMap=rkBG.GetMapOutdoorRef();
; 67   : //	rkMap.EnablePortal(TRUE);
; 68   : //	rkBG.EnableTerrainOnlyForHeight();
; 69   : //#endif
; 70   : 
; 71   : 	return Py_BuildNone();

  000f0	e8 00 00 00 00	 call	 ?Py_BuildNone@@YAPAU_object@@XZ ; Py_BuildNone
$LN5@background:

; 72   : }

  000f5	8b 4c 24 38	 mov	 ecx, DWORD PTR __$EHRec$[esp+68]
  000f9	64 89 0d 00 00
	00 00		 mov	 DWORD PTR fs:0, ecx
  00100	59		 pop	 ecx
  00101	5e		 pop	 esi
  00102	8b 4c 24 28	 mov	 ecx, DWORD PTR __$ArrayPad$[esp+60]
  00106	33 cc		 xor	 ecx, esp
  00108	e8 00 00 00 00	 call	 @__security_check_cookie@4
  0010d	8b e5		 mov	 esp, ebp
  0010f	5d		 pop	 ebp
  00110	c3		 ret	 0
_TEXT	ENDS
;	COMDAT text$x
text$x	SEGMENT
__unwindfunclet$?backgroundLoadMap@@YAPAU_object@@PAU1@0@Z$0:
  00000	8d 4d d4	 lea	 ecx, DWORD PTR $T2[ebp]
  00003	e9 00 00 00 00	 jmp	 ??1?$basic_string@DU?$char_traits@D@std@@V?$allocator@D@2@@std@@QAE@XZ ; std::basic_string<char,std::char_traits<char>,std::allocator<char> >::~basic_string<char,std::char_traits<char>,std::allocator<char> >
__ehhandler$?backgroundLoadMap@@YAPAU_object@@PAU1@0@Z:
  00008	8b 54 24 08	 mov	 edx, DWORD PTR [esp+8]
  0000c	8d 42 cc	 lea	 eax, DWORD PTR [edx-52]
  0000f	8b 4a c8	 mov	 ecx, DWORD PTR [edx-56]
  00012	33 c8		 xor	 ecx, eax
  00014	e8 00 00 00 00	 call	 @__security_check_cookie@4
  00019	83 c0 04	 add	 eax, 4
  0001c	8b 4a f8	 mov	 ecx, DWORD PTR [edx-8]
  0001f	33 c8		 xor	 ecx, eax
  00021	e8 00 00 00 00	 call	 @__security_check_cookie@4
  00026	b8 00 00 00 00	 mov	 eax, OFFSET __ehfuncinfo$?backgroundLoadMap@@YAPAU_object@@PAU1@0@Z
  0002b	e9 00 00 00 00	 jmp	 ___CxxFrameHandler3
text$x	ENDS
?backgroundLoadMap@@YAPAU_object@@PAU1@0@Z ENDP		; backgroundLoadMap
; Function compile flags: /Ogtp
; File d:\metin2\metin2\client_source_clean\client_source_clean\source\userinterface\pythonbackgroundmodule.cpp
;	COMDAT ?backgroundDestroy@@YAPAU_object@@PAU1@0@Z
_TEXT	SEGMENT
_poSelf$ = 8						; size = 4
_poArgs$ = 12						; size = 4
?backgroundDestroy@@YAPAU_object@@PAU1@0@Z PROC		; backgroundDestroy, COMDAT

; 75   : {

  00000	56		 push	 esi

; 76   : 	CPythonBackground& rkBG=CPythonBackground::Instance();

  00001	8b 35 00 00 00
	00		 mov	 esi, DWORD PTR ?ms_singleton@?$CSingleton@VCPythonBackground@@@@0PAVCPythonBackground@@A ; CSingleton<CPythonBackground>::ms_singleton

; 77   : 	rkBG.SetShadowLevel(CPythonBackground::SHADOW_NONE);

  00007	8b ce		 mov	 ecx, esi
  00009	6a 00		 push	 0
  0000b	e8 00 00 00 00	 call	 ?SetShadowLevel@CPythonBackground@@QAE_NH@Z ; CPythonBackground::SetShadowLevel

; 78   : 	rkBG.Destroy();

  00010	8b ce		 mov	 ecx, esi
  00012	e8 00 00 00 00	 call	 ?Destroy@CPythonBackground@@QAEXXZ ; CPythonBackground::Destroy
  00017	5e		 pop	 esi

; 79   : 	return Py_BuildNone();

  00018	e9 00 00 00 00	 jmp	 ?Py_BuildNone@@YAPAU_object@@XZ ; Py_BuildNone
?backgroundDestroy@@YAPAU_object@@PAU1@0@Z ENDP		; backgroundDestroy
_TEXT	ENDS
; Function compile flags: /Ogtp
; File d:\metin2\metin2\client_source_clean\client_source_clean\source\userinterface\pythonbackgroundmodule.cpp
;	COMDAT ?backgroundRegisterEnvironmentData@@YAPAU_object@@PAU1@0@Z
_TEXT	SEGMENT
_iIndex$ = -8						; size = 4
_pszEnvironmentFileName$ = -4				; size = 4
_poSelf$ = 8						; size = 4
_poArgs$ = 12						; size = 4
?backgroundRegisterEnvironmentData@@YAPAU_object@@PAU1@0@Z PROC ; backgroundRegisterEnvironmentData, COMDAT

; 83   : {

  00000	55		 push	 ebp
  00001	8b ec		 mov	 ebp, esp
  00003	83 ec 08	 sub	 esp, 8

; 84   : 	int iIndex;
; 85   : 	if (!PyTuple_GetInteger(poArgs, 0, &iIndex))

  00006	8d 45 f8	 lea	 eax, DWORD PTR _iIndex$[ebp]
  00009	50		 push	 eax
  0000a	6a 00		 push	 0
  0000c	ff 75 0c	 push	 DWORD PTR _poArgs$[ebp]
  0000f	e8 00 00 00 00	 call	 ?PyTuple_GetInteger@@YA_NPAU_object@@HPAH@Z ; PyTuple_GetInteger
  00014	83 c4 0c	 add	 esp, 12			; 0000000cH
  00017	84 c0		 test	 al, al
  00019	75 09		 jne	 SHORT $LN3@background
$LN8@background:

; 86   : 		return Py_BadArgument();

  0001b	e8 00 00 00 00	 call	 ?Py_BadArgument@@YAPAU_object@@XZ ; Py_BadArgument

; 102  : }

  00020	8b e5		 mov	 esp, ebp
  00022	5d		 pop	 ebp
  00023	c3		 ret	 0
$LN3@background:

; 87   : 
; 88   : 	char * pszEnvironmentFileName;
; 89   : 	if (!PyTuple_GetString(poArgs, 1, &pszEnvironmentFileName))

  00024	8d 45 fc	 lea	 eax, DWORD PTR _pszEnvironmentFileName$[ebp]
  00027	50		 push	 eax
  00028	6a 01		 push	 1
  0002a	ff 75 0c	 push	 DWORD PTR _poArgs$[ebp]
  0002d	e8 00 00 00 00	 call	 ?PyTuple_GetString@@YA_NPAU_object@@HPAPAD@Z ; PyTuple_GetString
  00032	83 c4 0c	 add	 esp, 12			; 0000000cH
  00035	84 c0		 test	 al, al
  00037	74 e2		 je	 SHORT $LN8@background

; 90   : 		return Py_BadArgument();
; 91   : 
; 92   : 	CPythonBackground& rkBG=CPythonBackground::Instance();
; 93   :  	if (!rkBG.RegisterEnvironmentData(iIndex, pszEnvironmentFileName))

  00039	ff 75 fc	 push	 DWORD PTR _pszEnvironmentFileName$[ebp]
  0003c	8b 0d 00 00 00
	00		 mov	 ecx, DWORD PTR ?ms_singleton@?$CSingleton@VCPythonBackground@@@@0PAVCPythonBackground@@A ; CSingleton<CPythonBackground>::ms_singleton
  00042	ff 75 f8	 push	 DWORD PTR _iIndex$[ebp]
  00045	e8 00 00 00 00	 call	 ?RegisterEnvironmentData@CMapManager@@QAE_NKPBD@Z ; CMapManager::RegisterEnvironmentData
  0004a	84 c0		 test	 al, al
  0004c	75 13		 jne	 SHORT $LN1@background

; 94   : 	{
; 95   : 		TraceError("background.RegisterEnvironmentData(iIndex=%d, szEnvironmentFileName=%s)", iIndex, pszEnvironmentFileName);

  0004e	ff 75 fc	 push	 DWORD PTR _pszEnvironmentFileName$[ebp]
  00051	ff 75 f8	 push	 DWORD PTR _iIndex$[ebp]
  00054	68 00 00 00 00	 push	 OFFSET ??_C@_0EI@HLELLDPI@background?4RegisterEnvironmentDa@
  00059	e8 00 00 00 00	 call	 ?TraceError@@YAXPBDZZ	; TraceError
  0005e	83 c4 0c	 add	 esp, 12			; 0000000cH
$LN1@background:

; 96   : 
; 97   : 		// TODO:
; 98   : 		// 디폴트 환경 설정 작업을 해주자
; 99   : 	}
; 100  : 
; 101  : 	return Py_BuildNone();

  00061	e8 00 00 00 00	 call	 ?Py_BuildNone@@YAPAU_object@@XZ ; Py_BuildNone

; 102  : }

  00066	8b e5		 mov	 esp, ebp
  00068	5d		 pop	 ebp
  00069	c3		 ret	 0
?backgroundRegisterEnvironmentData@@YAPAU_object@@PAU1@0@Z ENDP ; backgroundRegisterEnvironmentData
_TEXT	ENDS
; Function compile flags: /Ogtp
; File d:\metin2\metin2\client_source_clean\client_source_clean\source\userinterface\pythonbackgroundmodule.cpp
;	COMDAT ?backgroundSetEnvironmentData@@YAPAU_object@@PAU1@0@Z
_TEXT	SEGMENT
_c_pEnvironmenData$ = -8				; size = 4
_iIndex$ = -4						; size = 4
_poSelf$ = 8						; size = 4
_poArgs$ = 12						; size = 4
?backgroundSetEnvironmentData@@YAPAU_object@@PAU1@0@Z PROC ; backgroundSetEnvironmentData, COMDAT

; 105  : {

  00000	55		 push	 ebp
  00001	8b ec		 mov	 ebp, esp
  00003	83 ec 08	 sub	 esp, 8

; 106  : 	int iIndex;
; 107  : 	if (!PyTuple_GetInteger(poArgs, 0, &iIndex))

  00006	8d 45 fc	 lea	 eax, DWORD PTR _iIndex$[ebp]
  00009	50		 push	 eax
  0000a	6a 00		 push	 0
  0000c	ff 75 0c	 push	 DWORD PTR _poArgs$[ebp]
  0000f	e8 00 00 00 00	 call	 ?PyTuple_GetInteger@@YA_NPAU_object@@HPAH@Z ; PyTuple_GetInteger
  00014	83 c4 0c	 add	 esp, 12			; 0000000cH
  00017	84 c0		 test	 al, al
  00019	75 09		 jne	 SHORT $LN2@background

; 108  : 		return Py_BadArgument();

  0001b	e8 00 00 00 00	 call	 ?Py_BadArgument@@YAPAU_object@@XZ ; Py_BadArgument

; 117  : }

  00020	8b e5		 mov	 esp, ebp
  00022	5d		 pop	 ebp
  00023	c3		 ret	 0
$LN2@background:
  00024	56		 push	 esi

; 109  : 
; 110  : 	const TEnvironmentData * c_pEnvironmenData;
; 111  : 
; 112  : 	CPythonBackground& rkBG=CPythonBackground::Instance();

  00025	8b 35 00 00 00
	00		 mov	 esi, DWORD PTR ?ms_singleton@?$CSingleton@VCPythonBackground@@@@0PAVCPythonBackground@@A ; CSingleton<CPythonBackground>::ms_singleton

; 113  : 	if (rkBG.GetEnvironmentData(iIndex, &c_pEnvironmenData))

  0002b	8d 45 f8	 lea	 eax, DWORD PTR _c_pEnvironmenData$[ebp]
  0002e	50		 push	 eax
  0002f	ff 75 fc	 push	 DWORD PTR _iIndex$[ebp]
  00032	8b ce		 mov	 ecx, esi
  00034	e8 00 00 00 00	 call	 ?GetEnvironmentData@CMapManager@@QAE_NKPAPBUSEnvironmentData@@@Z ; CMapManager::GetEnvironmentData
  00039	84 c0		 test	 al, al
  0003b	74 0a		 je	 SHORT $LN1@background

; 114  : 		rkBG.ResetEnvironmentDataPtr(c_pEnvironmenData);

  0003d	ff 75 f8	 push	 DWORD PTR _c_pEnvironmenData$[ebp]
  00040	8b ce		 mov	 ecx, esi
  00042	e8 00 00 00 00	 call	 ?ResetEnvironmentDataPtr@CMapManager@@QAEXPBUSEnvironmentData@@@Z ; CMapManager::ResetEnvironmentDataPtr
$LN1@background:

; 115  : 
; 116  : 	return Py_BuildNone();

  00047	e8 00 00 00 00	 call	 ?Py_BuildNone@@YAPAU_object@@XZ ; Py_BuildNone
  0004c	5e		 pop	 esi

; 117  : }

  0004d	8b e5		 mov	 esp, ebp
  0004f	5d		 pop	 ebp
  00050	c3		 ret	 0
?backgroundSetEnvironmentData@@YAPAU_object@@PAU1@0@Z ENDP ; backgroundSetEnvironmentData
_TEXT	ENDS
; Function compile flags: /Ogtp
; File d:\metin2\metin2\client_source_clean\client_source_clean\source\userinterface\pythonbackgroundmodule.cpp
;	COMDAT ?backgroundGetCurrentMapName@@YAPAU_object@@PAU1@0@Z
_TEXT	SEGMENT
_poSelf$ = 8						; size = 4
_poArgs$ = 12						; size = 4
?backgroundGetCurrentMapName@@YAPAU_object@@PAU1@0@Z PROC ; backgroundGetCurrentMapName, COMDAT

; 121  : 	CPythonBackground& rkBG=CPythonBackground::Instance();
; 122  : 	return Py_BuildValue("s", rkBG.GetWarpMapName());

  00000	8b 0d 00 00 00
	00		 mov	 ecx, DWORD PTR ?ms_singleton@?$CSingleton@VCPythonBackground@@@@0PAVCPythonBackground@@A ; CSingleton<CPythonBackground>::ms_singleton
  00006	e8 00 00 00 00	 call	 ?GetWarpMapName@CPythonBackground@@QAEPBDXZ ; CPythonBackground::GetWarpMapName
  0000b	50		 push	 eax
  0000c	68 00 00 00 00	 push	 OFFSET ??_C@_01LKDEMHDF@s?$AA@
  00011	ff 15 00 00 00
	00		 call	 DWORD PTR __imp__Py_BuildValue
  00017	83 c4 08	 add	 esp, 8

; 123  : }

  0001a	c3		 ret	 0
?backgroundGetCurrentMapName@@YAPAU_object@@PAU1@0@Z ENDP ; backgroundGetCurrentMapName
_TEXT	ENDS
; Function compile flags: /Ogtp
; File d:\metin2\metin2\client_source_clean\client_source_clean\source\userinterface\pythonbackgroundmodule.cpp
; File d:\metin2\metin2\client_source_clean\client_source_clean\extern\include\d3dx8math.inl
; File d:\metin2\metin2\client_source_clean\client_source_clean\source\userinterface\pythonbackgroundmodule.cpp
;	COMDAT ?backgroundGetPickingPoint@@YAPAU_object@@PAU1@0@Z
_TEXT	SEGMENT
_kPPosPicked$ = -16					; size = 12
__$ArrayPad$ = -4					; size = 4
_poSelf$ = 8						; size = 4
_poArgs$ = 12						; size = 4
?backgroundGetPickingPoint@@YAPAU_object@@PAU1@0@Z PROC	; backgroundGetPickingPoint, COMDAT

; 126  : {

  00000	55		 push	 ebp
  00001	8b ec		 mov	 ebp, esp
  00003	83 e4 f8	 and	 esp, -8			; fffffff8H
  00006	83 ec 10	 sub	 esp, 16			; 00000010H
  00009	a1 00 00 00 00	 mov	 eax, DWORD PTR ___security_cookie
  0000e	33 c4		 xor	 eax, esp
  00010	89 44 24 0c	 mov	 DWORD PTR __$ArrayPad$[esp+16], eax

; 129  : 	if (rkBG.GetPickingPoint(&kPPosPicked))

  00014	8b 0d 00 00 00
	00		 mov	 ecx, DWORD PTR ?ms_singleton@?$CSingleton@VCPythonBackground@@@@0PAVCPythonBackground@@A ; CSingleton<CPythonBackground>::ms_singleton
  0001a	8d 04 24	 lea	 eax, DWORD PTR _kPPosPicked$[esp+16]
  0001d	50		 push	 eax
; File d:\metin2\metin2\client_source_clean\client_source_clean\extern\include\d3dx8math.inl

; 180  :     x = fx;

  0001e	c7 44 24 04 00
	00 00 00	 mov	 DWORD PTR _kPPosPicked$[esp+20], 0

; 181  :     y = fy;

  00026	c7 44 24 08 00
	00 00 00	 mov	 DWORD PTR _kPPosPicked$[esp+24], 0

; 182  :     z = fz;

  0002e	c7 44 24 0c 00
	00 00 00	 mov	 DWORD PTR _kPPosPicked$[esp+28], 0
; File d:\metin2\metin2\client_source_clean\client_source_clean\source\userinterface\pythonbackgroundmodule.cpp

; 129  : 	if (rkBG.GetPickingPoint(&kPPosPicked))

  00036	e8 00 00 00 00	 call	 ?GetPickingPoint@CPythonBackground@@QAE_NPAUD3DXVECTOR3@@@Z ; CPythonBackground::GetPickingPoint

; 130  : 	{
; 131  : 		kPPosPicked.y=-kPPosPicked.y;

  0003b	f3 0f 10 4c 24
	04		 movss	 xmm1, DWORD PTR _kPPosPicked$[esp+20]
  00041	84 c0		 test	 al, al
  00043	74 0d		 je	 SHORT $LN1@background
  00045	0f 57 0d 00 00
	00 00		 xorps	 xmm1, DWORD PTR __xmm@80000000800000008000000080000000
  0004c	f3 0f 11 4c 24
	04		 movss	 DWORD PTR _kPPosPicked$[esp+20], xmm1
$LN1@background:

; 132  : 	}
; 133  : 	return Py_BuildValue("fff", kPPosPicked.x, kPPosPicked.y, kPPosPicked.z);

  00052	f3 0f 10 44 24
	08		 movss	 xmm0, DWORD PTR _kPPosPicked$[esp+24]
  00058	83 ec 18	 sub	 esp, 24			; 00000018H
  0005b	0f 5a c0	 cvtps2pd xmm0, xmm0
  0005e	f2 0f 11 44 24
	10		 movsd	 QWORD PTR [esp+16], xmm0
  00064	0f 57 c0	 xorps	 xmm0, xmm0
  00067	f3 0f 5a c1	 cvtss2sd xmm0, xmm1
  0006b	f2 0f 11 44 24
	08		 movsd	 QWORD PTR [esp+8], xmm0
  00071	f3 0f 10 44 24
	18		 movss	 xmm0, DWORD PTR _kPPosPicked$[esp+40]
  00077	0f 5a c0	 cvtps2pd xmm0, xmm0
  0007a	f2 0f 11 04 24	 movsd	 QWORD PTR [esp], xmm0
  0007f	68 00 00 00 00	 push	 OFFSET ??_C@_03LPALPDIP@fff?$AA@
  00084	ff 15 00 00 00
	00		 call	 DWORD PTR __imp__Py_BuildValue

; 134  : }

  0008a	8b 4c 24 28	 mov	 ecx, DWORD PTR __$ArrayPad$[esp+44]
  0008e	83 c4 1c	 add	 esp, 28			; 0000001cH
  00091	33 cc		 xor	 ecx, esp
  00093	e8 00 00 00 00	 call	 @__security_check_cookie@4
  00098	8b e5		 mov	 esp, ebp
  0009a	5d		 pop	 ebp
  0009b	c3		 ret	 0
?backgroundGetPickingPoint@@YAPAU_object@@PAU1@0@Z ENDP	; backgroundGetPickingPoint
_TEXT	ENDS
; Function compile flags: /Ogtp
; File d:\metin2\metin2\client_source_clean\client_source_clean\source\userinterface\pythonbackgroundmodule.cpp
;	COMDAT ?backgroundBeginEnvironment@@YAPAU_object@@PAU1@0@Z
_TEXT	SEGMENT
_poSelf$ = 8						; size = 4
_poArgs$ = 12						; size = 4
?backgroundBeginEnvironment@@YAPAU_object@@PAU1@0@Z PROC ; backgroundBeginEnvironment, COMDAT

; 138  : 	CPythonBackground& rkBG=CPythonBackground::Instance();
; 139  : 	rkBG.BeginEnvironment();

  00000	8b 0d 00 00 00
	00		 mov	 ecx, DWORD PTR ?ms_singleton@?$CSingleton@VCPythonBackground@@@@0PAVCPythonBackground@@A ; CSingleton<CPythonBackground>::ms_singleton
  00006	e8 00 00 00 00	 call	 ?BeginEnvironment@CMapManager@@QAEXXZ ; CMapManager::BeginEnvironment

; 140  : 	return Py_BuildNone();

  0000b	e9 00 00 00 00	 jmp	 ?Py_BuildNone@@YAPAU_object@@XZ ; Py_BuildNone
?backgroundBeginEnvironment@@YAPAU_object@@PAU1@0@Z ENDP ; backgroundBeginEnvironment
_TEXT	ENDS
; Function compile flags: /Ogtp
; File d:\metin2\metin2\client_source_clean\client_source_clean\source\userinterface\pythonbackgroundmodule.cpp
;	COMDAT ?backgroundEndEnvironemt@@YAPAU_object@@PAU1@0@Z
_TEXT	SEGMENT
_poSelf$ = 8						; size = 4
_poArgs$ = 12						; size = 4
?backgroundEndEnvironemt@@YAPAU_object@@PAU1@0@Z PROC	; backgroundEndEnvironemt, COMDAT

; 145  : 	CPythonBackground& rkBG=CPythonBackground::Instance();
; 146  : 	rkBG.EndEnvironment();

  00000	8b 0d 00 00 00
	00		 mov	 ecx, DWORD PTR ?ms_singleton@?$CSingleton@VCPythonBackground@@@@0PAVCPythonBackground@@A ; CSingleton<CPythonBackground>::ms_singleton
  00006	e8 00 00 00 00	 call	 ?EndEnvironment@CMapManager@@QAEXXZ ; CMapManager::EndEnvironment

; 147  : 	return Py_BuildNone();

  0000b	e9 00 00 00 00	 jmp	 ?Py_BuildNone@@YAPAU_object@@XZ ; Py_BuildNone
?backgroundEndEnvironemt@@YAPAU_object@@PAU1@0@Z ENDP	; backgroundEndEnvironemt
_TEXT	ENDS
; Function compile flags: /Ogtp
; File d:\metin2\metin2\client_source_clean\client_source_clean\source\userinterface\pythonbackgroundmodule.cpp
;	COMDAT ?backgroundSetCharacterDirLight@@YAPAU_object@@PAU1@0@Z
_TEXT	SEGMENT
_poSelf$ = 8						; size = 4
_poArgs$ = 12						; size = 4
?backgroundSetCharacterDirLight@@YAPAU_object@@PAU1@0@Z PROC ; backgroundSetCharacterDirLight, COMDAT

; 152  : 	CPythonBackground& rkBG = CPythonBackground::Instance();
; 153  : 	rkBG.SetCharacterDirLight();

  00000	8b 0d 00 00 00
	00		 mov	 ecx, DWORD PTR ?ms_singleton@?$CSingleton@VCPythonBackground@@@@0PAVCPythonBackground@@A ; CSingleton<CPythonBackground>::ms_singleton
  00006	e8 00 00 00 00	 call	 ?SetCharacterDirLight@CPythonBackground@@QAEXXZ ; CPythonBackground::SetCharacterDirLight

; 154  : 	return Py_BuildNone();

  0000b	e9 00 00 00 00	 jmp	 ?Py_BuildNone@@YAPAU_object@@XZ ; Py_BuildNone
?backgroundSetCharacterDirLight@@YAPAU_object@@PAU1@0@Z ENDP ; backgroundSetCharacterDirLight
_TEXT	ENDS
; Function compile flags: /Ogtp
; File d:\metin2\metin2\client_source_clean\client_source_clean\source\userinterface\pythonbackgroundmodule.cpp
;	COMDAT ?backgroundSetBackgroundDirLight@@YAPAU_object@@PAU1@0@Z
_TEXT	SEGMENT
_poSelf$ = 8						; size = 4
_poArgs$ = 12						; size = 4
?backgroundSetBackgroundDirLight@@YAPAU_object@@PAU1@0@Z PROC ; backgroundSetBackgroundDirLight, COMDAT

; 159  : 	CPythonBackground& rkBG = CPythonBackground::Instance();
; 160  : 	rkBG.SetBackgroundDirLight();

  00000	8b 0d 00 00 00
	00		 mov	 ecx, DWORD PTR ?ms_singleton@?$CSingleton@VCPythonBackground@@@@0PAVCPythonBackground@@A ; CSingleton<CPythonBackground>::ms_singleton
  00006	e8 00 00 00 00	 call	 ?SetBackgroundDirLight@CPythonBackground@@QAEXXZ ; CPythonBackground::SetBackgroundDirLight

; 161  : 	return Py_BuildNone();

  0000b	e9 00 00 00 00	 jmp	 ?Py_BuildNone@@YAPAU_object@@XZ ; Py_BuildNone
?backgroundSetBackgroundDirLight@@YAPAU_object@@PAU1@0@Z ENDP ; backgroundSetBackgroundDirLight
_TEXT	ENDS
; Function compile flags: /Ogtp
; File d:\metin2\metin2\client_source_clean\client_source_clean\source\userinterface\pythonbackgroundmodule.cpp
;	COMDAT ?backgroundInitialize@@YAPAU_object@@PAU1@0@Z
_TEXT	SEGMENT
_poSelf$ = 8						; size = 4
_poArgs$ = 12						; size = 4
?backgroundInitialize@@YAPAU_object@@PAU1@0@Z PROC	; backgroundInitialize, COMDAT

; 166  : 	CPythonBackground& rkBG=CPythonBackground::Instance();
; 167  : 	rkBG.Create();

  00000	8b 0d 00 00 00
	00		 mov	 ecx, DWORD PTR ?ms_singleton@?$CSingleton@VCPythonBackground@@@@0PAVCPythonBackground@@A ; CSingleton<CPythonBackground>::ms_singleton
  00006	e8 00 00 00 00	 call	 ?Create@CPythonBackground@@QAEXXZ ; CPythonBackground::Create

; 168  : 	return Py_BuildNone();

  0000b	e9 00 00 00 00	 jmp	 ?Py_BuildNone@@YAPAU_object@@XZ ; Py_BuildNone
?backgroundInitialize@@YAPAU_object@@PAU1@0@Z ENDP	; backgroundInitialize
_TEXT	ENDS
; Function compile flags: /Ogtp
; File d:\metin2\metin2\client_source_clean\client_source_clean\source\userinterface\pythonbackgroundmodule.cpp
;	COMDAT ?backgroundUpdate@@YAPAU_object@@PAU1@0@Z
_TEXT	SEGMENT
_fCameraX$ = -12					; size = 4
_fCameraY$ = -8						; size = 4
_fCameraZ$ = -4						; size = 4
_poSelf$ = 8						; size = 4
_poArgs$ = 12						; size = 4
?backgroundUpdate@@YAPAU_object@@PAU1@0@Z PROC		; backgroundUpdate, COMDAT

; 172  : {

  00000	55		 push	 ebp
  00001	8b ec		 mov	 ebp, esp
  00003	83 ec 0c	 sub	 esp, 12			; 0000000cH

; 173  : 	float fCameraX;
; 174  : 	if (!PyTuple_GetFloat(poArgs, 0, &fCameraX))

  00006	8d 45 f4	 lea	 eax, DWORD PTR _fCameraX$[ebp]
  00009	56		 push	 esi
  0000a	8b 75 0c	 mov	 esi, DWORD PTR _poArgs$[ebp]
  0000d	50		 push	 eax
  0000e	6a 00		 push	 0
  00010	56		 push	 esi
  00011	e8 00 00 00 00	 call	 ?PyTuple_GetFloat@@YA_NPAU_object@@HPAM@Z ; PyTuple_GetFloat
  00016	83 c4 0c	 add	 esp, 12			; 0000000cH
  00019	84 c0		 test	 al, al
  0001b	75 0a		 jne	 SHORT $LN3@background
$LN8@background:

; 175  : 		return Py_BadArgument();

  0001d	e8 00 00 00 00	 call	 ?Py_BadArgument@@YAPAU_object@@XZ ; Py_BadArgument
  00022	5e		 pop	 esi

; 187  : }

  00023	8b e5		 mov	 esp, ebp
  00025	5d		 pop	 ebp
  00026	c3		 ret	 0
$LN3@background:

; 176  : 
; 177  : 	float fCameraY;
; 178  : 	if (!PyTuple_GetFloat(poArgs, 1, &fCameraY))

  00027	8d 45 f8	 lea	 eax, DWORD PTR _fCameraY$[ebp]
  0002a	50		 push	 eax
  0002b	6a 01		 push	 1
  0002d	56		 push	 esi
  0002e	e8 00 00 00 00	 call	 ?PyTuple_GetFloat@@YA_NPAU_object@@HPAM@Z ; PyTuple_GetFloat
  00033	83 c4 0c	 add	 esp, 12			; 0000000cH
  00036	84 c0		 test	 al, al
  00038	74 e3		 je	 SHORT $LN8@background

; 179  : 		return Py_BadArgument();
; 180  : 
; 181  : 	float fCameraZ;
; 182  : 	if (!PyTuple_GetFloat(poArgs, 2, &fCameraZ))

  0003a	8d 45 fc	 lea	 eax, DWORD PTR _fCameraZ$[ebp]
  0003d	50		 push	 eax
  0003e	6a 02		 push	 2
  00040	56		 push	 esi
  00041	e8 00 00 00 00	 call	 ?PyTuple_GetFloat@@YA_NPAU_object@@HPAM@Z ; PyTuple_GetFloat
  00046	83 c4 0c	 add	 esp, 12			; 0000000cH
  00049	84 c0		 test	 al, al
  0004b	74 d0		 je	 SHORT $LN8@background

; 183  : 		return Py_BadArgument();
; 184  : 
; 185  : 	CPythonBackground::Instance().Update(fCameraX, fCameraY, fCameraZ);

  0004d	f3 0f 10 5d fc	 movss	 xmm3, DWORD PTR _fCameraZ$[ebp]
  00052	f3 0f 10 55 f8	 movss	 xmm2, DWORD PTR _fCameraY$[ebp]
  00057	f3 0f 10 4d f4	 movss	 xmm1, DWORD PTR _fCameraX$[ebp]
  0005c	8b 0d 00 00 00
	00		 mov	 ecx, DWORD PTR ?ms_singleton@?$CSingleton@VCPythonBackground@@@@0PAVCPythonBackground@@A ; CSingleton<CPythonBackground>::ms_singleton
  00062	e8 00 00 00 00	 call	 ?Update@CPythonBackground@@QAEXMMM@Z ; CPythonBackground::Update

; 186  : 	return Py_BuildNone();

  00067	e8 00 00 00 00	 call	 ?Py_BuildNone@@YAPAU_object@@XZ ; Py_BuildNone
  0006c	5e		 pop	 esi

; 187  : }

  0006d	8b e5		 mov	 esp, ebp
  0006f	5d		 pop	 ebp
  00070	c3		 ret	 0
?backgroundUpdate@@YAPAU_object@@PAU1@0@Z ENDP		; backgroundUpdate
_TEXT	ENDS
; Function compile flags: /Ogtp
; File d:\metin2\metin2\client_source_clean\client_source_clean\source\userinterface\pythonbackgroundmodule.cpp
;	COMDAT ?backgroundRender@@YAPAU_object@@PAU1@0@Z
_TEXT	SEGMENT
_poSelf$ = 8						; size = 4
_poArgs$ = 12						; size = 4
?backgroundRender@@YAPAU_object@@PAU1@0@Z PROC		; backgroundRender, COMDAT

; 191  : 	CPythonBackground::Instance().Render();

  00000	8b 0d 00 00 00
	00		 mov	 ecx, DWORD PTR ?ms_singleton@?$CSingleton@VCPythonBackground@@@@0PAVCPythonBackground@@A ; CSingleton<CPythonBackground>::ms_singleton
  00006	e8 00 00 00 00	 call	 ?Render@CPythonBackground@@QAEXXZ ; CPythonBackground::Render

; 192  : 	return Py_BuildNone();

  0000b	e9 00 00 00 00	 jmp	 ?Py_BuildNone@@YAPAU_object@@XZ ; Py_BuildNone
?backgroundRender@@YAPAU_object@@PAU1@0@Z ENDP		; backgroundRender
_TEXT	ENDS
; Function compile flags: /Ogtp
; File d:\metin2\metin2\client_source_clean\client_source_clean\source\userinterface\pythonbackgroundmodule.cpp
;	COMDAT ?backgroundRenderPCBlocker@@YAPAU_object@@PAU1@0@Z
_TEXT	SEGMENT
_poSelf$ = 8						; size = 4
_poArgs$ = 12						; size = 4
?backgroundRenderPCBlocker@@YAPAU_object@@PAU1@0@Z PROC	; backgroundRenderPCBlocker, COMDAT

; 197  : 	CPythonBackground::Instance().RenderPCBlocker();

  00000	8b 0d 00 00 00
	00		 mov	 ecx, DWORD PTR ?ms_singleton@?$CSingleton@VCPythonBackground@@@@0PAVCPythonBackground@@A ; CSingleton<CPythonBackground>::ms_singleton
  00006	e8 00 00 00 00	 call	 ?RenderPCBlocker@CPythonBackground@@QAEXXZ ; CPythonBackground::RenderPCBlocker

; 198  : 	return Py_BuildNone();

  0000b	e9 00 00 00 00	 jmp	 ?Py_BuildNone@@YAPAU_object@@XZ ; Py_BuildNone
?backgroundRenderPCBlocker@@YAPAU_object@@PAU1@0@Z ENDP	; backgroundRenderPCBlocker
_TEXT	ENDS
; Function compile flags: /Ogtp
; File d:\metin2\metin2\client_source_clean\client_source_clean\source\userinterface\pythonbackgroundmodule.cpp
;	COMDAT ?backgroundRenderCollision@@YAPAU_object@@PAU1@0@Z
_TEXT	SEGMENT
_poSelf$ = 8						; size = 4
_poArgs$ = 12						; size = 4
?backgroundRenderCollision@@YAPAU_object@@PAU1@0@Z PROC	; backgroundRenderCollision, COMDAT

; 203  : 	CPythonBackground::Instance().RenderCollision();

  00000	8b 0d 00 00 00
	00		 mov	 ecx, DWORD PTR ?ms_singleton@?$CSingleton@VCPythonBackground@@@@0PAVCPythonBackground@@A ; CSingleton<CPythonBackground>::ms_singleton
  00006	e8 00 00 00 00	 call	 ?RenderCollision@CPythonBackground@@QAEXXZ ; CPythonBackground::RenderCollision

; 204  : 	return Py_BuildNone();

  0000b	e9 00 00 00 00	 jmp	 ?Py_BuildNone@@YAPAU_object@@XZ ; Py_BuildNone
?backgroundRenderCollision@@YAPAU_object@@PAU1@0@Z ENDP	; backgroundRenderCollision
_TEXT	ENDS
; Function compile flags: /Ogtp
; File d:\metin2\metin2\client_source_clean\client_source_clean\source\userinterface\pythonbackgroundmodule.cpp
;	COMDAT ?backgroundRenderSky@@YAPAU_object@@PAU1@0@Z
_TEXT	SEGMENT
_poSelf$ = 8						; size = 4
_poArgs$ = 12						; size = 4
?backgroundRenderSky@@YAPAU_object@@PAU1@0@Z PROC	; backgroundRenderSky, COMDAT

; 209  : 	CPythonBackground::Instance().RenderSky();

  00000	8b 0d 00 00 00
	00		 mov	 ecx, DWORD PTR ?ms_singleton@?$CSingleton@VCPythonBackground@@@@0PAVCPythonBackground@@A ; CSingleton<CPythonBackground>::ms_singleton
  00006	e8 00 00 00 00	 call	 ?RenderSky@CPythonBackground@@QAEXXZ ; CPythonBackground::RenderSky

; 210  : 	return Py_BuildNone();

  0000b	e9 00 00 00 00	 jmp	 ?Py_BuildNone@@YAPAU_object@@XZ ; Py_BuildNone
?backgroundRenderSky@@YAPAU_object@@PAU1@0@Z ENDP	; backgroundRenderSky
_TEXT	ENDS
; Function compile flags: /Ogtp
; File d:\metin2\metin2\client_source_clean\client_source_clean\source\userinterface\pythonbackgroundmodule.cpp
;	COMDAT ?backgroundRenderCloud@@YAPAU_object@@PAU1@0@Z
_TEXT	SEGMENT
_poSelf$ = 8						; size = 4
_poArgs$ = 12						; size = 4
?backgroundRenderCloud@@YAPAU_object@@PAU1@0@Z PROC	; backgroundRenderCloud, COMDAT

; 215  : 	CPythonBackground::Instance().RenderCloud();

  00000	8b 0d 00 00 00
	00		 mov	 ecx, DWORD PTR ?ms_singleton@?$CSingleton@VCPythonBackground@@@@0PAVCPythonBackground@@A ; CSingleton<CPythonBackground>::ms_singleton
  00006	e8 00 00 00 00	 call	 ?RenderCloud@CPythonBackground@@QAEXXZ ; CPythonBackground::RenderCloud

; 216  : 	return Py_BuildNone();

  0000b	e9 00 00 00 00	 jmp	 ?Py_BuildNone@@YAPAU_object@@XZ ; Py_BuildNone
?backgroundRenderCloud@@YAPAU_object@@PAU1@0@Z ENDP	; backgroundRenderCloud
_TEXT	ENDS
; Function compile flags: /Ogtp
; File d:\metin2\metin2\client_source_clean\client_source_clean\source\userinterface\pythonbackgroundmodule.cpp
;	COMDAT ?backgroundRenderWater@@YAPAU_object@@PAU1@0@Z
_TEXT	SEGMENT
_poSelf$ = 8						; size = 4
_poArgs$ = 12						; size = 4
?backgroundRenderWater@@YAPAU_object@@PAU1@0@Z PROC	; backgroundRenderWater, COMDAT

; 221  : 	CPythonBackground::Instance().RenderWater();

  00000	8b 0d 00 00 00
	00		 mov	 ecx, DWORD PTR ?ms_singleton@?$CSingleton@VCPythonBackground@@@@0PAVCPythonBackground@@A ; CSingleton<CPythonBackground>::ms_singleton
  00006	e8 00 00 00 00	 call	 ?RenderWater@CPythonBackground@@QAEXXZ ; CPythonBackground::RenderWater

; 222  : 	return Py_BuildNone();

  0000b	e9 00 00 00 00	 jmp	 ?Py_BuildNone@@YAPAU_object@@XZ ; Py_BuildNone
?backgroundRenderWater@@YAPAU_object@@PAU1@0@Z ENDP	; backgroundRenderWater
_TEXT	ENDS
; Function compile flags: /Ogtp
; File d:\metin2\metin2\client_source_clean\client_source_clean\source\userinterface\pythonbackgroundmodule.cpp
;	COMDAT ?backgroundRenderEffect@@YAPAU_object@@PAU1@0@Z
_TEXT	SEGMENT
_poSelf$ = 8						; size = 4
_poArgs$ = 12						; size = 4
?backgroundRenderEffect@@YAPAU_object@@PAU1@0@Z PROC	; backgroundRenderEffect, COMDAT

; 227  : 	CPythonBackground::Instance().RenderEffect();

  00000	8b 0d 00 00 00
	00		 mov	 ecx, DWORD PTR ?ms_singleton@?$CSingleton@VCPythonBackground@@@@0PAVCPythonBackground@@A ; CSingleton<CPythonBackground>::ms_singleton
  00006	e8 00 00 00 00	 call	 ?RenderEffect@CPythonBackground@@QAEXXZ ; CPythonBackground::RenderEffect

; 228  : 	return Py_BuildNone();

  0000b	e9 00 00 00 00	 jmp	 ?Py_BuildNone@@YAPAU_object@@XZ ; Py_BuildNone
?backgroundRenderEffect@@YAPAU_object@@PAU1@0@Z ENDP	; backgroundRenderEffect
_TEXT	ENDS
; Function compile flags: /Ogtp
; File d:\metin2\metin2\client_source_clean\client_source_clean\source\userinterface\pythonbackgroundmodule.cpp
;	COMDAT ?backgroundRenderBeforeLensFlare@@YAPAU_object@@PAU1@0@Z
_TEXT	SEGMENT
_poSelf$ = 8						; size = 4
_poArgs$ = 12						; size = 4
?backgroundRenderBeforeLensFlare@@YAPAU_object@@PAU1@0@Z PROC ; backgroundRenderBeforeLensFlare, COMDAT

; 233  : 	CPythonBackground::Instance().RenderBeforeLensFlare();

  00000	8b 0d 00 00 00
	00		 mov	 ecx, DWORD PTR ?ms_singleton@?$CSingleton@VCPythonBackground@@@@0PAVCPythonBackground@@A ; CSingleton<CPythonBackground>::ms_singleton
  00006	e8 00 00 00 00	 call	 ?RenderBeforeLensFlare@CPythonBackground@@QAEXXZ ; CPythonBackground::RenderBeforeLensFlare

; 234  : 	return Py_BuildNone();

  0000b	e9 00 00 00 00	 jmp	 ?Py_BuildNone@@YAPAU_object@@XZ ; Py_BuildNone
?backgroundRenderBeforeLensFlare@@YAPAU_object@@PAU1@0@Z ENDP ; backgroundRenderBeforeLensFlare
_TEXT	ENDS
; Function compile flags: /Ogtp
; File d:\metin2\metin2\client_source_clean\client_source_clean\source\userinterface\pythonbackgroundmodule.cpp
;	COMDAT ?backgroundRenderAfterLensFlare@@YAPAU_object@@PAU1@0@Z
_TEXT	SEGMENT
_poSelf$ = 8						; size = 4
_poArgs$ = 12						; size = 4
?backgroundRenderAfterLensFlare@@YAPAU_object@@PAU1@0@Z PROC ; backgroundRenderAfterLensFlare, COMDAT

; 239  : 	CPythonBackground::Instance().RenderAfterLensFlare();

  00000	8b 0d 00 00 00
	00		 mov	 ecx, DWORD PTR ?ms_singleton@?$CSingleton@VCPythonBackground@@@@0PAVCPythonBackground@@A ; CSingleton<CPythonBackground>::ms_singleton
  00006	e8 00 00 00 00	 call	 ?RenderAfterLensFlare@CPythonBackground@@QAEXXZ ; CPythonBackground::RenderAfterLensFlare

; 240  : 	return Py_BuildNone();

  0000b	e9 00 00 00 00	 jmp	 ?Py_BuildNone@@YAPAU_object@@XZ ; Py_BuildNone
?backgroundRenderAfterLensFlare@@YAPAU_object@@PAU1@0@Z ENDP ; backgroundRenderAfterLensFlare
_TEXT	ENDS
; Function compile flags: /Ogtp
; File d:\metin2\metin2\client_source_clean\client_source_clean\source\userinterface\pythonbackgroundmodule.cpp
;	COMDAT ?backgroundRenderCharacterShadowToTexture@@YAPAU_object@@PAU1@0@Z
_TEXT	SEGMENT
_poSelf$ = 8						; size = 4
_poArgs$ = 12						; size = 4
?backgroundRenderCharacterShadowToTexture@@YAPAU_object@@PAU1@0@Z PROC ; backgroundRenderCharacterShadowToTexture, COMDAT

; 245  : 	CPythonBackground::Instance().RenderCharacterShadowToTexture();

  00000	8b 0d 00 00 00
	00		 mov	 ecx, DWORD PTR ?ms_singleton@?$CSingleton@VCPythonBackground@@@@0PAVCPythonBackground@@A ; CSingleton<CPythonBackground>::ms_singleton
  00006	e8 00 00 00 00	 call	 ?RenderCharacterShadowToTexture@CPythonBackground@@QAEXXZ ; CPythonBackground::RenderCharacterShadowToTexture

; 246  : 	return Py_BuildNone();

  0000b	e9 00 00 00 00	 jmp	 ?Py_BuildNone@@YAPAU_object@@XZ ; Py_BuildNone
?backgroundRenderCharacterShadowToTexture@@YAPAU_object@@PAU1@0@Z ENDP ; backgroundRenderCharacterShadowToTexture
_TEXT	ENDS
; Function compile flags: /Ogtp
; File d:\metin2\metin2\client_source_clean\client_source_clean\source\userinterface\pythonbackgroundmodule.cpp
;	COMDAT ?backgroundRenderDungeon@@YAPAU_object@@PAU1@0@Z
_TEXT	SEGMENT
_poSelf$ = 8						; size = 4
_poArgs$ = 12						; size = 4
?backgroundRenderDungeon@@YAPAU_object@@PAU1@0@Z PROC	; backgroundRenderDungeon, COMDAT

; 251  : 	assert(!"background.RenderDungeon() - 사용하지 않는 함수입니다 - [levites]");
; 252  : 	return Py_BuildNone();

  00000	e9 00 00 00 00	 jmp	 ?Py_BuildNone@@YAPAU_object@@XZ ; Py_BuildNone
?backgroundRenderDungeon@@YAPAU_object@@PAU1@0@Z ENDP	; backgroundRenderDungeon
_TEXT	ENDS
; Function compile flags: /Ogtp
; File d:\metin2\metin2\client_source_clean\client_source_clean\source\userinterface\pythonbackgroundmodule.cpp
;	COMDAT ?backgroundGetHeight@@YAPAU_object@@PAU1@0@Z
_TEXT	SEGMENT
_fz$ = -12						; size = 4
_fx$ = -8						; size = 4
_fy$ = -4						; size = 4
_poSelf$ = 8						; size = 4
_poArgs$ = 12						; size = 4
?backgroundGetHeight@@YAPAU_object@@PAU1@0@Z PROC	; backgroundGetHeight, COMDAT

; 256  : {

  00000	55		 push	 ebp
  00001	8b ec		 mov	 ebp, esp
  00003	83 ec 0c	 sub	 esp, 12			; 0000000cH

; 257  : 	float fx;
; 258  : 	if (!PyTuple_GetFloat(poArgs, 0, &fx))

  00006	8d 45 f8	 lea	 eax, DWORD PTR _fx$[ebp]
  00009	50		 push	 eax
  0000a	6a 00		 push	 0
  0000c	ff 75 0c	 push	 DWORD PTR _poArgs$[ebp]
  0000f	e8 00 00 00 00	 call	 ?PyTuple_GetFloat@@YA_NPAU_object@@HPAM@Z ; PyTuple_GetFloat
  00014	83 c4 0c	 add	 esp, 12			; 0000000cH
  00017	84 c0		 test	 al, al
  00019	75 09		 jne	 SHORT $LN2@background
$LN7@background:

; 259  : 		return Py_BadArgument();

  0001b	e8 00 00 00 00	 call	 ?Py_BadArgument@@YAPAU_object@@XZ ; Py_BadArgument

; 267  : }

  00020	8b e5		 mov	 esp, ebp
  00022	5d		 pop	 ebp
  00023	c3		 ret	 0
$LN2@background:

; 260  : 
; 261  : 	float fy;
; 262  : 	if (!PyTuple_GetFloat(poArgs, 1, &fy))

  00024	8d 45 fc	 lea	 eax, DWORD PTR _fy$[ebp]
  00027	50		 push	 eax
  00028	6a 01		 push	 1
  0002a	ff 75 0c	 push	 DWORD PTR _poArgs$[ebp]
  0002d	e8 00 00 00 00	 call	 ?PyTuple_GetFloat@@YA_NPAU_object@@HPAM@Z ; PyTuple_GetFloat
  00032	83 c4 0c	 add	 esp, 12			; 0000000cH
  00035	84 c0		 test	 al, al
  00037	74 e2		 je	 SHORT $LN7@background

; 263  : 		return Py_BadArgument();
; 264  : 
; 265  : 	float fz = CPythonBackground::Instance().GetHeight(fx, fy);

  00039	f3 0f 10 45 fc	 movss	 xmm0, DWORD PTR _fy$[ebp]
  0003e	83 ec 08	 sub	 esp, 8
  00041	8b 0d 00 00 00
	00		 mov	 ecx, DWORD PTR ?ms_singleton@?$CSingleton@VCPythonBackground@@@@0PAVCPythonBackground@@A ; CSingleton<CPythonBackground>::ms_singleton
  00047	f3 0f 11 44 24
	04		 movss	 DWORD PTR [esp+4], xmm0
  0004d	f3 0f 10 45 f8	 movss	 xmm0, DWORD PTR _fx$[ebp]
  00052	f3 0f 11 04 24	 movss	 DWORD PTR [esp], xmm0
  00057	e8 00 00 00 00	 call	 ?GetHeight@CMapManager@@QAEMMM@Z ; CMapManager::GetHeight
  0005c	d9 5d f4	 fstp	 DWORD PTR _fz$[ebp]
  0005f	f3 0f 10 45 f4	 movss	 xmm0, DWORD PTR _fz$[ebp]

; 266  : 	return Py_BuildValue("f", fz);

  00064	83 ec 08	 sub	 esp, 8
  00067	0f 5a c0	 cvtps2pd xmm0, xmm0
  0006a	f2 0f 11 04 24	 movsd	 QWORD PTR [esp], xmm0
  0006f	68 00 00 00 00	 push	 OFFSET ??_C@_01INIBCBCB@f?$AA@
  00074	ff 15 00 00 00
	00		 call	 DWORD PTR __imp__Py_BuildValue
  0007a	83 c4 0c	 add	 esp, 12			; 0000000cH

; 267  : }

  0007d	8b e5		 mov	 esp, ebp
  0007f	5d		 pop	 ebp
  00080	c3		 ret	 0
?backgroundGetHeight@@YAPAU_object@@PAU1@0@Z ENDP	; backgroundGetHeight
_TEXT	ENDS
; Function compile flags: /Ogtp
; File d:\metin2\metin2\client_source_clean\client_source_clean\source\userinterface\pythonbackgroundmodule.cpp
; File c:\program files (x86)\microsoft visual studio 12.0\vc\include\vector
; File d:\metin2\metin2\client_source_clean\client_source_clean\source\userinterface\pythonbackgroundmodule.cpp
; File c:\program files (x86)\microsoft visual studio 12.0\vc\include\vector
; File d:\metin2\metin2\client_source_clean\client_source_clean\source\userinterface\pythonbackgroundmodule.cpp
; File c:\program files (x86)\microsoft visual studio 12.0\vc\include\vector
; File d:\metin2\metin2\client_source_clean\client_source_clean\source\userinterface\pythonbackgroundmodule.cpp
; File c:\program files (x86)\microsoft visual studio 12.0\vc\include\vector
; File d:\metin2\metin2\client_source_clean\client_source_clean\source\userinterface\pythonbackgroundmodule.cpp
;	COMDAT ?backgroundGetRenderedSplatNum@@YAPAU_object@@PAU1@0@Z
_TEXT	SEGMENT
_fSplatRatio$ = -276					; size = 4
_iPatch$ = -272						; size = 4
_iSplat$ = -268						; size = 4
_szOutput$ = -264					; size = 260
__$ArrayPad$ = -4					; size = 4
_poSelf$ = 8						; size = 4
_poArgs$ = 12						; size = 4
?backgroundGetRenderedSplatNum@@YAPAU_object@@PAU1@0@Z PROC ; backgroundGetRenderedSplatNum, COMDAT

; 270  : {

  00000	55		 push	 ebp
  00001	8b ec		 mov	 ebp, esp
  00003	81 ec 14 01 00
	00		 sub	 esp, 276		; 00000114H
  00009	a1 00 00 00 00	 mov	 eax, DWORD PTR ___security_cookie
  0000e	33 c5		 xor	 eax, ebp
  00010	89 45 fc	 mov	 DWORD PTR __$ArrayPad$[ebp], eax

; 271  : 	int iPatch;
; 272  : 	int iSplat;
; 273  : 	float fSplatRatio;
; 274  : 
; 275  : 	std::vector<int> & aTextureNumVector = CPythonBackground::Instance().GetRenderedSplatNum(&iPatch, &iSplat, &fSplatRatio);

  00013	8b 0d 00 00 00
	00		 mov	 ecx, DWORD PTR ?ms_singleton@?$CSingleton@VCPythonBackground@@@@0PAVCPythonBackground@@A ; CSingleton<CPythonBackground>::ms_singleton
  00019	8d 85 ec fe ff
	ff		 lea	 eax, DWORD PTR _fSplatRatio$[ebp]
  0001f	53		 push	 ebx
  00020	56		 push	 esi
  00021	57		 push	 edi
  00022	50		 push	 eax
  00023	8d 85 f4 fe ff
	ff		 lea	 eax, DWORD PTR _iSplat$[ebp]
  00029	50		 push	 eax
  0002a	8d 85 f0 fe ff
	ff		 lea	 eax, DWORD PTR _iPatch$[ebp]
  00030	50		 push	 eax
  00031	e8 00 00 00 00	 call	 ?GetRenderedSplatNum@CMapManager@@QAEAAV?$vector@HV?$allocator@H@std@@@std@@PAH0PAM@Z ; CMapManager::GetRenderedSplatNum

; 277  : 	char szOutput[MAX_PATH] = "";

  00036	68 03 01 00 00	 push	 259			; 00000103H
  0003b	8b d8		 mov	 ebx, eax
  0003d	c6 85 f8 fe ff
	ff 00		 mov	 BYTE PTR _szOutput$[ebp], 0
  00044	8d 85 f9 fe ff
	ff		 lea	 eax, DWORD PTR _szOutput$[ebp+1]
  0004a	6a 00		 push	 0
  0004c	50		 push	 eax
  0004d	e8 00 00 00 00	 call	 _memset
; File c:\program files (x86)\microsoft visual studio 12.0\vc\include\vector

; 47   : 		{	// construct with pointer _Parg

  00052	8b 33		 mov	 esi, DWORD PTR [ebx]
; File d:\metin2\metin2\client_source_clean\client_source_clean\source\userinterface\pythonbackgroundmodule.cpp

; 277  : 	char szOutput[MAX_PATH] = "";

  00054	83 c4 0c	 add	 esp, 12			; 0000000cH

; 278  : 	int iOutput = 0;

  00057	33 ff		 xor	 edi, edi
; File c:\program files (x86)\microsoft visual studio 12.0\vc\include\vector

; 205  : 		return (this->_Ptr == _Right._Ptr);

  00059	3b 73 04	 cmp	 esi, DWORD PTR [ebx+4]
; File d:\metin2\metin2\client_source_clean\client_source_clean\source\userinterface\pythonbackgroundmodule.cpp

; 279  : 	for( std::vector<int>::iterator it = aTextureNumVector.begin(); it != aTextureNumVector.end(); it++ ) {

  0005c	74 2c		 je	 SHORT $LN1@background
  0005e	8b ff		 npad	 2
$LL20@background:

; 280  : 		iOutput += snprintf(szOutput + iOutput, sizeof(szOutput) - iOutput, "%d ", *it);

  00060	ff 36		 push	 DWORD PTR [esi]
  00062	b8 04 01 00 00	 mov	 eax, 260		; 00000104H
  00067	2b c7		 sub	 eax, edi
  00069	68 00 00 00 00	 push	 OFFSET ??_C@_03JDANDILB@?$CFd?5?$AA@
  0006e	50		 push	 eax
  0006f	8d 85 f8 fe ff
	ff		 lea	 eax, DWORD PTR _szOutput$[ebp]
  00075	03 c7		 add	 eax, edi
  00077	50		 push	 eax
  00078	e8 00 00 00 00	 call	 __snprintf
; File c:\program files (x86)\microsoft visual studio 12.0\vc\include\vector

; 112  : 		++this->_Ptr;

  0007d	83 c6 04	 add	 esi, 4
; File d:\metin2\metin2\client_source_clean\client_source_clean\source\userinterface\pythonbackgroundmodule.cpp

; 280  : 		iOutput += snprintf(szOutput + iOutput, sizeof(szOutput) - iOutput, "%d ", *it);

  00080	83 c4 10	 add	 esp, 16			; 00000010H
  00083	03 f8		 add	 edi, eax
; File c:\program files (x86)\microsoft visual studio 12.0\vc\include\vector

; 205  : 		return (this->_Ptr == _Right._Ptr);

  00085	3b 73 04	 cmp	 esi, DWORD PTR [ebx+4]
; File d:\metin2\metin2\client_source_clean\client_source_clean\source\userinterface\pythonbackgroundmodule.cpp

; 279  : 	for( std::vector<int>::iterator it = aTextureNumVector.begin(); it != aTextureNumVector.end(); it++ ) {

  00088	75 d6		 jne	 SHORT $LL20@background
$LN1@background:
  0008a	f3 0f 10 85 ec
	fe ff ff	 movss	 xmm0, DWORD PTR _fSplatRatio$[ebp]

; 281  : 	}
; 282  : 	//std::copy(aTextureNumVector.begin(),aTextureNumVector.end(),std::ostream_iterator<int>(ostr," "));
; 283  : 
; 284  : 	return Py_BuildValue("iifs", iPatch, iSplat, fSplatRatio, szOutput);

  00092	8d 85 f8 fe ff
	ff		 lea	 eax, DWORD PTR _szOutput$[ebp]
  00098	50		 push	 eax
  00099	0f 5a c0	 cvtps2pd xmm0, xmm0
  0009c	83 ec 08	 sub	 esp, 8
  0009f	f2 0f 11 04 24	 movsd	 QWORD PTR [esp], xmm0
  000a4	ff b5 f4 fe ff
	ff		 push	 DWORD PTR _iSplat$[ebp]
  000aa	ff b5 f0 fe ff
	ff		 push	 DWORD PTR _iPatch$[ebp]
  000b0	68 00 00 00 00	 push	 OFFSET ??_C@_04KDJJDIPA@iifs?$AA@
  000b5	ff 15 00 00 00
	00		 call	 DWORD PTR __imp__Py_BuildValue

; 285  : }

  000bb	8b 4d fc	 mov	 ecx, DWORD PTR __$ArrayPad$[ebp]
  000be	83 c4 18	 add	 esp, 24			; 00000018H
  000c1	33 cd		 xor	 ecx, ebp
  000c3	5f		 pop	 edi
  000c4	5e		 pop	 esi
  000c5	5b		 pop	 ebx
  000c6	e8 00 00 00 00	 call	 @__security_check_cookie@4
  000cb	8b e5		 mov	 esp, ebp
  000cd	5d		 pop	 ebp
  000ce	c3		 ret	 0
?backgroundGetRenderedSplatNum@@YAPAU_object@@PAU1@0@Z ENDP ; backgroundGetRenderedSplatNum
_TEXT	ENDS
; Function compile flags: /Ogtp
; File d:\metin2\metin2\client_source_clean\client_source_clean\source\userinterface\pythonbackgroundmodule.cpp
;	COMDAT ?backgroundGetRenderedGTINum@@YAPAU_object@@PAU1@0@Z
_TEXT	SEGMENT
_dwGraphicThingInstanceNum$ = -8			; size = 4
_dwCRCNum$ = -4						; size = 4
_poSelf$ = 8						; size = 4
_poArgs$ = 12						; size = 4
?backgroundGetRenderedGTINum@@YAPAU_object@@PAU1@0@Z PROC ; backgroundGetRenderedGTINum, COMDAT

; 288  : {

  00000	55		 push	 ebp
  00001	8b ec		 mov	 ebp, esp
  00003	83 ec 08	 sub	 esp, 8

; 289  : 	DWORD dwGraphicThingInstanceNum;
; 290  : 	DWORD dwCRCNum;
; 291  : 
; 292  : 	/*CArea::TCRCWithNumberVector & rCRCWithNumberVector = */
; 293  : 	CPythonBackground::Instance().GetRenderedGraphicThingInstanceNum(&dwGraphicThingInstanceNum, &dwCRCNum);

  00006	8b 0d 00 00 00
	00		 mov	 ecx, DWORD PTR ?ms_singleton@?$CSingleton@VCPythonBackground@@@@0PAVCPythonBackground@@A ; CSingleton<CPythonBackground>::ms_singleton
  0000c	8d 45 fc	 lea	 eax, DWORD PTR _dwCRCNum$[ebp]
  0000f	50		 push	 eax
  00010	8d 45 f8	 lea	 eax, DWORD PTR _dwGraphicThingInstanceNum$[ebp]
  00013	50		 push	 eax
  00014	e8 00 00 00 00	 call	 ?GetRenderedGraphicThingInstanceNum@CMapManager@@QAEAAV?$vector@USCRCWithNumber@CArea@@V?$allocator@USCRCWithNumber@CArea@@@std@@@std@@PAK0@Z ; CMapManager::GetRenderedGraphicThingInstanceNum

; 294  : 
; 295  : /*
; 296  : 	std::ostringstream ostr;
; 297  : 
; 298  : 	std::for_each(rCRCWithNumberVector.begin(),rCRCWithNumberVector.end(),std::ostream_iterator<CArea::TCRCWithNumberVector>(ostr," "));
; 299  : */
; 300  : 
; 301  : 	return Py_BuildValue("ii", dwGraphicThingInstanceNum, dwCRCNum);

  00019	ff 75 fc	 push	 DWORD PTR _dwCRCNum$[ebp]
  0001c	ff 75 f8	 push	 DWORD PTR _dwGraphicThingInstanceNum$[ebp]
  0001f	68 00 00 00 00	 push	 OFFSET ??_C@_02PDIHAGKM@ii?$AA@
  00024	ff 15 00 00 00
	00		 call	 DWORD PTR __imp__Py_BuildValue
  0002a	83 c4 0c	 add	 esp, 12			; 0000000cH

; 302  : }

  0002d	8b e5		 mov	 esp, ebp
  0002f	5d		 pop	 ebp
  00030	c3		 ret	 0
?backgroundGetRenderedGTINum@@YAPAU_object@@PAU1@0@Z ENDP ; backgroundGetRenderedGTINum
_TEXT	ENDS
; Function compile flags: /Ogtp
; File d:\metin2\metin2\client_source_clean\client_source_clean\source\userinterface\pythonbackgroundmodule.cpp
;	COMDAT ?backgroundGetRenderShadowTime@@YAPAU_object@@PAU1@0@Z
_TEXT	SEGMENT
_poSelf$ = 8						; size = 4
_poArgs$ = 12						; size = 4
?backgroundGetRenderShadowTime@@YAPAU_object@@PAU1@0@Z PROC ; backgroundGetRenderShadowTime, COMDAT

; 306  : 	CPythonBackground& rkBG=CPythonBackground::Instance();
; 307  : 	return Py_BuildValue("i", rkBG.GetRenderShadowTime());

  00000	8b 0d 00 00 00
	00		 mov	 ecx, DWORD PTR ?ms_singleton@?$CSingleton@VCPythonBackground@@@@0PAVCPythonBackground@@A ; CSingleton<CPythonBackground>::ms_singleton
  00006	e8 00 00 00 00	 call	 ?GetRenderShadowTime@CPythonBackground@@QAEKXZ ; CPythonBackground::GetRenderShadowTime
  0000b	50		 push	 eax
  0000c	68 00 00 00 00	 push	 OFFSET ??_C@_01KBJDNOO@i?$AA@
  00011	ff 15 00 00 00
	00		 call	 DWORD PTR __imp__Py_BuildValue
  00017	83 c4 08	 add	 esp, 8

; 308  : }

  0001a	c3		 ret	 0
?backgroundGetRenderShadowTime@@YAPAU_object@@PAU1@0@Z ENDP ; backgroundGetRenderShadowTime
_TEXT	ENDS
; Function compile flags: /Ogtp
; File d:\metin2\metin2\client_source_clean\client_source_clean\source\userinterface\pythonbackgroundmodule.cpp
;	COMDAT ?backgroundGetShadowMapcolor@@YAPAU_object@@PAU1@0@Z
_TEXT	SEGMENT
_fx$ = -8						; size = 4
_fy$ = -4						; size = 4
_poSelf$ = 8						; size = 4
_poArgs$ = 12						; size = 4
?backgroundGetShadowMapcolor@@YAPAU_object@@PAU1@0@Z PROC ; backgroundGetShadowMapcolor, COMDAT

; 311  : {

  00000	55		 push	 ebp
  00001	8b ec		 mov	 ebp, esp
  00003	83 ec 08	 sub	 esp, 8

; 312  : 	float fx;
; 313  : 	if (!PyTuple_GetFloat(poArgs, 0, &fx))

  00006	8d 45 f8	 lea	 eax, DWORD PTR _fx$[ebp]
  00009	50		 push	 eax
  0000a	6a 00		 push	 0
  0000c	ff 75 0c	 push	 DWORD PTR _poArgs$[ebp]
  0000f	e8 00 00 00 00	 call	 ?PyTuple_GetFloat@@YA_NPAU_object@@HPAM@Z ; PyTuple_GetFloat
  00014	83 c4 0c	 add	 esp, 12			; 0000000cH
  00017	84 c0		 test	 al, al
  00019	75 09		 jne	 SHORT $LN2@background
$LN7@background:

; 314  : 		return Py_BadArgument();

  0001b	e8 00 00 00 00	 call	 ?Py_BadArgument@@YAPAU_object@@XZ ; Py_BadArgument

; 322  : }

  00020	8b e5		 mov	 esp, ebp
  00022	5d		 pop	 ebp
  00023	c3		 ret	 0
$LN2@background:

; 315  : 
; 316  : 	float fy;
; 317  : 	if (!PyTuple_GetFloat(poArgs, 1, &fy))

  00024	8d 45 fc	 lea	 eax, DWORD PTR _fy$[ebp]
  00027	50		 push	 eax
  00028	6a 01		 push	 1
  0002a	ff 75 0c	 push	 DWORD PTR _poArgs$[ebp]
  0002d	e8 00 00 00 00	 call	 ?PyTuple_GetFloat@@YA_NPAU_object@@HPAM@Z ; PyTuple_GetFloat
  00032	83 c4 0c	 add	 esp, 12			; 0000000cH
  00035	84 c0		 test	 al, al
  00037	74 e2		 je	 SHORT $LN7@background

; 318  : 		return Py_BadArgument();
; 319  : 
; 320  : 	DWORD dwColor = CPythonBackground::Instance().GetShadowMapColor(fx, fy);

  00039	f3 0f 10 45 fc	 movss	 xmm0, DWORD PTR _fy$[ebp]
  0003e	83 ec 08	 sub	 esp, 8
  00041	8b 0d 00 00 00
	00		 mov	 ecx, DWORD PTR ?ms_singleton@?$CSingleton@VCPythonBackground@@@@0PAVCPythonBackground@@A ; CSingleton<CPythonBackground>::ms_singleton
  00047	f3 0f 11 44 24
	04		 movss	 DWORD PTR [esp+4], xmm0
  0004d	f3 0f 10 45 f8	 movss	 xmm0, DWORD PTR _fx$[ebp]
  00052	f3 0f 11 04 24	 movss	 DWORD PTR [esp], xmm0
  00057	e8 00 00 00 00	 call	 ?GetShadowMapColor@CMapManager@@QAEKMM@Z ; CMapManager::GetShadowMapColor

; 321  : 	return Py_BuildValue("i", dwColor);

  0005c	50		 push	 eax
  0005d	68 00 00 00 00	 push	 OFFSET ??_C@_01KBJDNOO@i?$AA@
  00062	ff 15 00 00 00
	00		 call	 DWORD PTR __imp__Py_BuildValue
  00068	83 c4 08	 add	 esp, 8

; 322  : }

  0006b	8b e5		 mov	 esp, ebp
  0006d	5d		 pop	 ebp
  0006e	c3		 ret	 0
?backgroundGetShadowMapcolor@@YAPAU_object@@PAU1@0@Z ENDP ; backgroundGetShadowMapcolor
_TEXT	ENDS
; Function compile flags: /Ogtp
; File d:\metin2\metin2\client_source_clean\client_source_clean\source\userinterface\pythonbackgroundmodule.cpp
;	COMDAT ?backgroundSetShadowLevel@@YAPAU_object@@PAU1@0@Z
_TEXT	SEGMENT
_iLevel$ = -4						; size = 4
_poSelf$ = 8						; size = 4
_poArgs$ = 12						; size = 4
?backgroundSetShadowLevel@@YAPAU_object@@PAU1@0@Z PROC	; backgroundSetShadowLevel, COMDAT

; 325  : {

  00000	55		 push	 ebp
  00001	8b ec		 mov	 ebp, esp
  00003	51		 push	 ecx

; 326  : 	int iLevel;
; 327  : 
; 328  : 	if (!PyTuple_GetInteger(poArgs, 0, &iLevel))

  00004	8d 45 fc	 lea	 eax, DWORD PTR _iLevel$[ebp]
  00007	50		 push	 eax
  00008	6a 00		 push	 0
  0000a	ff 75 0c	 push	 DWORD PTR _poArgs$[ebp]
  0000d	e8 00 00 00 00	 call	 ?PyTuple_GetInteger@@YA_NPAU_object@@HPAH@Z ; PyTuple_GetInteger
  00012	83 c4 0c	 add	 esp, 12			; 0000000cH
  00015	84 c0		 test	 al, al
  00017	75 09		 jne	 SHORT $LN1@background

; 329  : 		return Py_BadArgument();

  00019	e8 00 00 00 00	 call	 ?Py_BadArgument@@YAPAU_object@@XZ ; Py_BadArgument

; 334  : }

  0001e	8b e5		 mov	 esp, ebp
  00020	5d		 pop	 ebp
  00021	c3		 ret	 0
$LN1@background:

; 330  : 
; 331  : 	CPythonBackground& rkBG = CPythonBackground::Instance();
; 332  : 	rkBG.SetShadowLevel(iLevel);

  00022	ff 75 fc	 push	 DWORD PTR _iLevel$[ebp]
  00025	8b 0d 00 00 00
	00		 mov	 ecx, DWORD PTR ?ms_singleton@?$CSingleton@VCPythonBackground@@@@0PAVCPythonBackground@@A ; CSingleton<CPythonBackground>::ms_singleton
  0002b	e8 00 00 00 00	 call	 ?SetShadowLevel@CPythonBackground@@QAE_NH@Z ; CPythonBackground::SetShadowLevel

; 333  : 	return Py_BuildNone();

  00030	e8 00 00 00 00	 call	 ?Py_BuildNone@@YAPAU_object@@XZ ; Py_BuildNone

; 334  : }

  00035	8b e5		 mov	 esp, ebp
  00037	5d		 pop	 ebp
  00038	c3		 ret	 0
?backgroundSetShadowLevel@@YAPAU_object@@PAU1@0@Z ENDP	; backgroundSetShadowLevel
_TEXT	ENDS
; Function compile flags: /Ogtp
; File d:\metin2\metin2\client_source_clean\client_source_clean\source\userinterface\pythonbackgroundmodule.cpp
;	COMDAT ?backgroundSetVisiblePart@@YAPAU_object@@PAU1@0@Z
_TEXT	SEGMENT
_isVisible$ = -8					; size = 4
_ePart$ = -4						; size = 4
_poSelf$ = 8						; size = 4
_poArgs$ = 12						; size = 4
?backgroundSetVisiblePart@@YAPAU_object@@PAU1@0@Z PROC	; backgroundSetVisiblePart, COMDAT

; 337  : {

  00000	55		 push	 ebp
  00001	8b ec		 mov	 ebp, esp
  00003	83 ec 08	 sub	 esp, 8

; 338  : 	int ePart;
; 339  : 	if (!PyTuple_GetInteger(poArgs, 0, &ePart))

  00006	8d 45 fc	 lea	 eax, DWORD PTR _ePart$[ebp]
  00009	50		 push	 eax
  0000a	6a 00		 push	 0
  0000c	ff 75 0c	 push	 DWORD PTR _poArgs$[ebp]
  0000f	e8 00 00 00 00	 call	 ?PyTuple_GetInteger@@YA_NPAU_object@@HPAH@Z ; PyTuple_GetInteger
  00014	83 c4 0c	 add	 esp, 12			; 0000000cH
  00017	84 c0		 test	 al, al
  00019	75 09		 jne	 SHORT $LN3@background
$LN8@background:

; 340  : 		return Py_BadArgument();

  0001b	e8 00 00 00 00	 call	 ?Py_BadArgument@@YAPAU_object@@XZ ; Py_BadArgument

; 353  : }

  00020	8b e5		 mov	 esp, ebp
  00022	5d		 pop	 ebp
  00023	c3		 ret	 0
$LN3@background:

; 341  : 
; 342  : 	int isVisible;
; 343  : 	if (!PyTuple_GetInteger(poArgs, 1, &isVisible))

  00024	8d 45 f8	 lea	 eax, DWORD PTR _isVisible$[ebp]
  00027	50		 push	 eax
  00028	6a 01		 push	 1
  0002a	ff 75 0c	 push	 DWORD PTR _poArgs$[ebp]
  0002d	e8 00 00 00 00	 call	 ?PyTuple_GetInteger@@YA_NPAU_object@@HPAH@Z ; PyTuple_GetInteger
  00032	83 c4 0c	 add	 esp, 12			; 0000000cH
  00035	84 c0		 test	 al, al
  00037	74 e2		 je	 SHORT $LN8@background

; 344  : 		return Py_BadArgument();
; 345  : 
; 346  : 	if (ePart>=CMapOutdoor::PART_NUM)

  00039	8b 4d fc	 mov	 ecx, DWORD PTR _ePart$[ebp]
  0003c	83 f9 06	 cmp	 ecx, 6
  0003f	7c 14		 jl	 SHORT $LN1@background

; 347  : 		return Py_BuildException("ePart(%d)<background.PART_NUM(%d)", ePart, CMapOutdoor::PART_NUM);

  00041	6a 06		 push	 6
  00043	51		 push	 ecx
  00044	68 00 00 00 00	 push	 OFFSET ??_C@_0CC@JHPGFABG@ePart?$CI?$CFd?$CJ?$DMbackground?4PART_NUM?$CI?$CFd@
  00049	e8 00 00 00 00	 call	 ?Py_BuildException@@YAPAU_object@@PBDZZ ; Py_BuildException
  0004e	83 c4 0c	 add	 esp, 12			; 0000000cH

; 353  : }

  00051	8b e5		 mov	 esp, ebp
  00053	5d		 pop	 ebp
  00054	c3		 ret	 0
$LN1@background:

; 348  : 
; 349  : 	CPythonBackground& rkBG=CPythonBackground::Instance();
; 350  : 	rkBG.SetVisiblePart(ePart, isVisible ? true : false);

  00055	83 7d f8 00	 cmp	 DWORD PTR _isVisible$[ebp], 0
  00059	0f 95 c0	 setne	 al
  0005c	0f b6 c0	 movzx	 eax, al
  0005f	50		 push	 eax
  00060	51		 push	 ecx
  00061	8b 0d 00 00 00
	00		 mov	 ecx, DWORD PTR ?ms_singleton@?$CSingleton@VCPythonBackground@@@@0PAVCPythonBackground@@A ; CSingleton<CPythonBackground>::ms_singleton
  00067	e8 00 00 00 00	 call	 ?SetVisiblePart@CPythonBackground@@QAE_NH_N@Z ; CPythonBackground::SetVisiblePart

; 351  : 
; 352  : 	return Py_BuildNone();

  0006c	e8 00 00 00 00	 call	 ?Py_BuildNone@@YAPAU_object@@XZ ; Py_BuildNone

; 353  : }

  00071	8b e5		 mov	 esp, ebp
  00073	5d		 pop	 ebp
  00074	c3		 ret	 0
?backgroundSetVisiblePart@@YAPAU_object@@PAU1@0@Z ENDP	; backgroundSetVisiblePart
_TEXT	ENDS
; Function compile flags: /Ogtp
; File d:\metin2\metin2\client_source_clean\client_source_clean\source\userinterface\pythonbackgroundmodule.cpp
;	COMDAT ?backgroundSetSpaltLimit@@YAPAU_object@@PAU1@0@Z
_TEXT	SEGMENT
_iSplatNum$ = -4					; size = 4
_poSelf$ = 8						; size = 4
_poArgs$ = 12						; size = 4
?backgroundSetSpaltLimit@@YAPAU_object@@PAU1@0@Z PROC	; backgroundSetSpaltLimit, COMDAT

; 356  : {

  00000	55		 push	 ebp
  00001	8b ec		 mov	 ebp, esp
  00003	51		 push	 ecx

; 357  : 	int iSplatNum;
; 358  : 	if (!PyTuple_GetInteger(poArgs, 0, &iSplatNum))

  00004	8d 45 fc	 lea	 eax, DWORD PTR _iSplatNum$[ebp]
  00007	50		 push	 eax
  00008	6a 00		 push	 0
  0000a	ff 75 0c	 push	 DWORD PTR _poArgs$[ebp]
  0000d	e8 00 00 00 00	 call	 ?PyTuple_GetInteger@@YA_NPAU_object@@HPAH@Z ; PyTuple_GetInteger
  00012	83 c4 0c	 add	 esp, 12			; 0000000cH
  00015	84 c0		 test	 al, al
  00017	75 09		 jne	 SHORT $LN2@background

; 359  : 		return Py_BadArgument();

  00019	e8 00 00 00 00	 call	 ?Py_BadArgument@@YAPAU_object@@XZ ; Py_BadArgument

; 368  : }

  0001e	8b e5		 mov	 esp, ebp
  00020	5d		 pop	 ebp
  00021	c3		 ret	 0
$LN2@background:

; 360  : 
; 361  : 	if (iSplatNum<0)

  00022	8b 45 fc	 mov	 eax, DWORD PTR _iSplatNum$[ebp]

; 362  : 		return Py_BuildException("background.SetSplatLimit(iSplatNum(%d)>=0)", iSplatNum);

  00025	50		 push	 eax
  00026	85 c0		 test	 eax, eax
  00028	79 11		 jns	 SHORT $LN1@background
  0002a	68 00 00 00 00	 push	 OFFSET ??_C@_0CL@HHHOJMJN@background?4SetSplatLimit?$CIiSplatN@
  0002f	e8 00 00 00 00	 call	 ?Py_BuildException@@YAPAU_object@@PBDZZ ; Py_BuildException
  00034	83 c4 08	 add	 esp, 8

; 368  : }

  00037	8b e5		 mov	 esp, ebp
  00039	5d		 pop	 ebp
  0003a	c3		 ret	 0
$LN1@background:

; 363  : 
; 364  : 	CPythonBackground& rkBG=CPythonBackground::Instance();
; 365  : 	rkBG.SetSplatLimit(iSplatNum);

  0003b	8b 0d 00 00 00
	00		 mov	 ecx, DWORD PTR ?ms_singleton@?$CSingleton@VCPythonBackground@@@@0PAVCPythonBackground@@A ; CSingleton<CPythonBackground>::ms_singleton
  00041	e8 00 00 00 00	 call	 ?SetSplatLimit@CPythonBackground@@QAE_NH@Z ; CPythonBackground::SetSplatLimit

; 366  : 
; 367  : 	return Py_BuildNone();

  00046	e8 00 00 00 00	 call	 ?Py_BuildNone@@YAPAU_object@@XZ ; Py_BuildNone

; 368  : }

  0004b	8b e5		 mov	 esp, ebp
  0004d	5d		 pop	 ebp
  0004e	c3		 ret	 0
?backgroundSetSpaltLimit@@YAPAU_object@@PAU1@0@Z ENDP	; backgroundSetSpaltLimit
_TEXT	ENDS
; Function compile flags: /Ogtp
; File d:\metin2\metin2\client_source_clean\client_source_clean\source\userinterface\pythonbackgroundmodule.cpp
;	COMDAT ?backgroundSelectViewDistanceNum@@YAPAU_object@@PAU1@0@Z
_TEXT	SEGMENT
_iNum$ = -4						; size = 4
_poSelf$ = 8						; size = 4
_poArgs$ = 12						; size = 4
?backgroundSelectViewDistanceNum@@YAPAU_object@@PAU1@0@Z PROC ; backgroundSelectViewDistanceNum, COMDAT

; 371  : {

  00000	55		 push	 ebp
  00001	8b ec		 mov	 ebp, esp
  00003	51		 push	 ecx

; 372  : 	int iNum;
; 373  : 
; 374  : 	if (!PyTuple_GetInteger(poArgs, 0, &iNum))

  00004	8d 45 fc	 lea	 eax, DWORD PTR _iNum$[ebp]
  00007	50		 push	 eax
  00008	6a 00		 push	 0
  0000a	ff 75 0c	 push	 DWORD PTR _poArgs$[ebp]
  0000d	e8 00 00 00 00	 call	 ?PyTuple_GetInteger@@YA_NPAU_object@@HPAH@Z ; PyTuple_GetInteger
  00012	83 c4 0c	 add	 esp, 12			; 0000000cH
  00015	84 c0		 test	 al, al
  00017	75 09		 jne	 SHORT $LN1@background

; 375  : 		return Py_BadArgument();

  00019	e8 00 00 00 00	 call	 ?Py_BadArgument@@YAPAU_object@@XZ ; Py_BadArgument

; 381  : }

  0001e	8b e5		 mov	 esp, ebp
  00020	5d		 pop	 ebp
  00021	c3		 ret	 0
$LN1@background:

; 376  : 
; 377  : 	CPythonBackground& rkBG=CPythonBackground::Instance();
; 378  : 	rkBG.SelectViewDistanceNum(iNum);

  00022	ff 75 fc	 push	 DWORD PTR _iNum$[ebp]
  00025	8b 0d 00 00 00
	00		 mov	 ecx, DWORD PTR ?ms_singleton@?$CSingleton@VCPythonBackground@@@@0PAVCPythonBackground@@A ; CSingleton<CPythonBackground>::ms_singleton
  0002b	e8 00 00 00 00	 call	 ?SelectViewDistanceNum@CPythonBackground@@QAEXH@Z ; CPythonBackground::SelectViewDistanceNum

; 379  : 
; 380  : 	return Py_BuildNone();

  00030	e8 00 00 00 00	 call	 ?Py_BuildNone@@YAPAU_object@@XZ ; Py_BuildNone

; 381  : }

  00035	8b e5		 mov	 esp, ebp
  00037	5d		 pop	 ebp
  00038	c3		 ret	 0
?backgroundSelectViewDistanceNum@@YAPAU_object@@PAU1@0@Z ENDP ; backgroundSelectViewDistanceNum
_TEXT	ENDS
; Function compile flags: /Ogtp
; File d:\metin2\metin2\client_source_clean\client_source_clean\source\userinterface\pythonbackgroundmodule.cpp
;	COMDAT ?backgroundSetViewDistanceSet@@YAPAU_object@@PAU1@0@Z
_TEXT	SEGMENT
_fFarClip$ = -8						; size = 4
_iNum$ = -4						; size = 4
_poSelf$ = 8						; size = 4
_poArgs$ = 12						; size = 4
?backgroundSetViewDistanceSet@@YAPAU_object@@PAU1@0@Z PROC ; backgroundSetViewDistanceSet, COMDAT

; 384  : {

  00000	55		 push	 ebp
  00001	8b ec		 mov	 ebp, esp
  00003	83 ec 08	 sub	 esp, 8

; 385  : 	int iNum;
; 386  : 	if (!PyTuple_GetInteger(poArgs, 0, &iNum))

  00006	8d 45 fc	 lea	 eax, DWORD PTR _iNum$[ebp]
  00009	50		 push	 eax
  0000a	6a 00		 push	 0
  0000c	ff 75 0c	 push	 DWORD PTR _poArgs$[ebp]
  0000f	e8 00 00 00 00	 call	 ?PyTuple_GetInteger@@YA_NPAU_object@@HPAH@Z ; PyTuple_GetInteger
  00014	83 c4 0c	 add	 esp, 12			; 0000000cH
  00017	84 c0		 test	 al, al
  00019	75 09		 jne	 SHORT $LN2@background
$LN7@background:

; 387  : 		return Py_BadArgument();

  0001b	e8 00 00 00 00	 call	 ?Py_BadArgument@@YAPAU_object@@XZ ; Py_BadArgument

; 396  : }

  00020	8b e5		 mov	 esp, ebp
  00022	5d		 pop	 ebp
  00023	c3		 ret	 0
$LN2@background:

; 388  : 
; 389  : 	float fFarClip;
; 390  : 	if (!PyTuple_GetFloat(poArgs, 1, &fFarClip))

  00024	8d 45 f8	 lea	 eax, DWORD PTR _fFarClip$[ebp]
  00027	50		 push	 eax
  00028	6a 01		 push	 1
  0002a	ff 75 0c	 push	 DWORD PTR _poArgs$[ebp]
  0002d	e8 00 00 00 00	 call	 ?PyTuple_GetFloat@@YA_NPAU_object@@HPAM@Z ; PyTuple_GetFloat
  00032	83 c4 0c	 add	 esp, 12			; 0000000cH
  00035	84 c0		 test	 al, al
  00037	74 e2		 je	 SHORT $LN7@background

; 391  : 		return Py_BadArgument();
; 392  : 
; 393  : 	CPythonBackground& rkBG=CPythonBackground::Instance();
; 394  : 	rkBG.SetViewDistanceSet(iNum, fFarClip);

  00039	ff 75 fc	 push	 DWORD PTR _iNum$[ebp]
  0003c	f3 0f 10 55 f8	 movss	 xmm2, DWORD PTR _fFarClip$[ebp]
  00041	8b 0d 00 00 00
	00		 mov	 ecx, DWORD PTR ?ms_singleton@?$CSingleton@VCPythonBackground@@@@0PAVCPythonBackground@@A ; CSingleton<CPythonBackground>::ms_singleton
  00047	e8 00 00 00 00	 call	 ?SetViewDistanceSet@CPythonBackground@@QAEXHM@Z ; CPythonBackground::SetViewDistanceSet

; 395  : 	return Py_BuildNone();

  0004c	e8 00 00 00 00	 call	 ?Py_BuildNone@@YAPAU_object@@XZ ; Py_BuildNone

; 396  : }

  00051	8b e5		 mov	 esp, ebp
  00053	5d		 pop	 ebp
  00054	c3		 ret	 0
?backgroundSetViewDistanceSet@@YAPAU_object@@PAU1@0@Z ENDP ; backgroundSetViewDistanceSet
_TEXT	ENDS
; Function compile flags: /Ogtp
; File d:\metin2\metin2\client_source_clean\client_source_clean\source\userinterface\pythonbackgroundmodule.cpp
;	COMDAT ?backgroundGetFarClip@@YAPAU_object@@PAU1@0@Z
_TEXT	SEGMENT
_poSelf$ = 8						; size = 4
_poArgs$ = 12						; size = 4
?backgroundGetFarClip@@YAPAU_object@@PAU1@0@Z PROC	; backgroundGetFarClip, COMDAT

; 400  : 	float fFarClip = CPythonBackground::Instance().GetFarClip();

  00000	8b 0d 00 00 00
	00		 mov	 ecx, DWORD PTR ?ms_singleton@?$CSingleton@VCPythonBackground@@@@0PAVCPythonBackground@@A ; CSingleton<CPythonBackground>::ms_singleton
  00006	e8 00 00 00 00	 call	 ?GetFarClip@CPythonBackground@@QAEMXZ ; CPythonBackground::GetFarClip

; 401  : 	return Py_BuildValue("f", fFarClip);

  0000b	f3 0f 5a c0	 cvtss2sd xmm0, xmm0
  0000f	83 ec 08	 sub	 esp, 8
  00012	f2 0f 11 04 24	 movsd	 QWORD PTR [esp], xmm0
  00017	68 00 00 00 00	 push	 OFFSET ??_C@_01INIBCBCB@f?$AA@
  0001c	ff 15 00 00 00
	00		 call	 DWORD PTR __imp__Py_BuildValue
  00022	83 c4 0c	 add	 esp, 12			; 0000000cH

; 402  : }

  00025	c3		 ret	 0
?backgroundGetFarClip@@YAPAU_object@@PAU1@0@Z ENDP	; backgroundGetFarClip
_TEXT	ENDS
; Function compile flags: /Ogtp
; File d:\metin2\metin2\client_source_clean\client_source_clean\source\userinterface\pythonbackgroundmodule.cpp
;	COMDAT ?backgroundGetDistanceSetInfo@@YAPAU_object@@PAU1@0@Z
_TEXT	SEGMENT
_fFarClip$ = -16					; size = 4
_fEnd$ = -12						; size = 4
_fStart$ = -8						; size = 4
_iNum$ = -4						; size = 4
_poSelf$ = 8						; size = 4
_poArgs$ = 12						; size = 4
?backgroundGetDistanceSetInfo@@YAPAU_object@@PAU1@0@Z PROC ; backgroundGetDistanceSetInfo, COMDAT

; 405  : {

  00000	55		 push	 ebp
  00001	8b ec		 mov	 ebp, esp
  00003	83 e4 c0	 and	 esp, -64		; ffffffc0H
  00006	83 ec 40	 sub	 esp, 64			; 00000040H

; 406  : 	int iNum;
; 407  : 	float fStart, fEnd, fFarClip;
; 408  : 	CPythonBackground::Instance().GetDistanceSetInfo(&iNum, &fStart, &fEnd, &fFarClip);

  00009	8b 0d 00 00 00
	00		 mov	 ecx, DWORD PTR ?ms_singleton@?$CSingleton@VCPythonBackground@@@@0PAVCPythonBackground@@A ; CSingleton<CPythonBackground>::ms_singleton
  0000f	8d 44 24 30	 lea	 eax, DWORD PTR _fFarClip$[esp+64]
  00013	50		 push	 eax
  00014	8d 44 24 38	 lea	 eax, DWORD PTR _fEnd$[esp+68]
  00018	50		 push	 eax
  00019	8d 44 24 40	 lea	 eax, DWORD PTR _fStart$[esp+72]
  0001d	50		 push	 eax
  0001e	8d 44 24 48	 lea	 eax, DWORD PTR _iNum$[esp+76]
  00022	50		 push	 eax
  00023	e8 00 00 00 00	 call	 ?GetDistanceSetInfo@CPythonBackground@@QAEXPAHPAM11@Z ; CPythonBackground::GetDistanceSetInfo
  00028	f3 0f 10 44 24
	30		 movss	 xmm0, DWORD PTR _fFarClip$[esp+64]

; 409  : 	return Py_BuildValue("ifff", iNum, fStart, fEnd, fFarClip);

  0002e	83 ec 18	 sub	 esp, 24			; 00000018H
  00031	0f 5a c0	 cvtps2pd xmm0, xmm0
  00034	f2 0f 11 44 24
	10		 movsd	 QWORD PTR [esp+16], xmm0
  0003a	f3 0f 10 44 24
	4c		 movss	 xmm0, DWORD PTR _fEnd$[esp+88]
  00040	0f 5a c0	 cvtps2pd xmm0, xmm0
  00043	f2 0f 11 44 24
	08		 movsd	 QWORD PTR [esp+8], xmm0
  00049	f3 0f 10 44 24
	50		 movss	 xmm0, DWORD PTR _fStart$[esp+88]
  0004f	0f 5a c0	 cvtps2pd xmm0, xmm0
  00052	f2 0f 11 04 24	 movsd	 QWORD PTR [esp], xmm0
  00057	ff 74 24 54	 push	 DWORD PTR _iNum$[esp+88]
  0005b	68 00 00 00 00	 push	 OFFSET ??_C@_04MMEPMOLC@ifff?$AA@
  00060	ff 15 00 00 00
	00		 call	 DWORD PTR __imp__Py_BuildValue
  00066	83 c4 20	 add	 esp, 32			; 00000020H

; 410  : }

  00069	8b e5		 mov	 esp, ebp
  0006b	5d		 pop	 ebp
  0006c	c3		 ret	 0
?backgroundGetDistanceSetInfo@@YAPAU_object@@PAU1@0@Z ENDP ; backgroundGetDistanceSetInfo
_TEXT	ENDS
; Function compile flags: /Ogtp
; File d:\metin2\metin2\client_source_clean\client_source_clean\source\userinterface\pythonbackgroundmodule.cpp
;	COMDAT ?backgroundSetBGLoading@@YAPAU_object@@PAU1@0@Z
_TEXT	SEGMENT
_bBGLoading$ = -1					; size = 1
_poSelf$ = 8						; size = 4
_poArgs$ = 12						; size = 4
?backgroundSetBGLoading@@YAPAU_object@@PAU1@0@Z PROC	; backgroundSetBGLoading, COMDAT

; 413  : {

  00000	55		 push	 ebp
  00001	8b ec		 mov	 ebp, esp
  00003	51		 push	 ecx

; 414  : 	bool bBGLoading;
; 415  : 	if (!PyTuple_GetBoolean(poArgs, 0, &bBGLoading))

  00004	8d 45 ff	 lea	 eax, DWORD PTR _bBGLoading$[ebp]
  00007	50		 push	 eax
  00008	6a 00		 push	 0
  0000a	ff 75 0c	 push	 DWORD PTR _poArgs$[ebp]
  0000d	e8 00 00 00 00	 call	 ?PyTuple_GetBoolean@@YA_NPAU_object@@HPA_N@Z ; PyTuple_GetBoolean
  00012	83 c4 0c	 add	 esp, 12			; 0000000cH
  00015	84 c0		 test	 al, al
  00017	75 09		 jne	 SHORT $LN1@background

; 416  : 		return Py_BadArgument();

  00019	e8 00 00 00 00	 call	 ?Py_BadArgument@@YAPAU_object@@XZ ; Py_BadArgument

; 420  : }

  0001e	8b e5		 mov	 esp, ebp
  00020	5d		 pop	 ebp
  00021	c3		 ret	 0
$LN1@background:

; 417  : 
; 418  : 	//CPythonBackground::Instance().BGLoadingEnable(bBGLoading);
; 419  : 	return Py_BuildNone();

  00022	e8 00 00 00 00	 call	 ?Py_BuildNone@@YAPAU_object@@XZ ; Py_BuildNone

; 420  : }

  00027	8b e5		 mov	 esp, ebp
  00029	5d		 pop	 ebp
  0002a	c3		 ret	 0
?backgroundSetBGLoading@@YAPAU_object@@PAU1@0@Z ENDP	; backgroundSetBGLoading
_TEXT	ENDS
; Function compile flags: /Ogtp
; File d:\metin2\metin2\client_source_clean\client_source_clean\source\userinterface\pythonbackgroundmodule.cpp
;	COMDAT ?backgroundSetRenderSort@@YAPAU_object@@PAU1@0@Z
_TEXT	SEGMENT
_eSort$ = -4						; size = 4
_poSelf$ = 8						; size = 4
_poArgs$ = 12						; size = 4
?backgroundSetRenderSort@@YAPAU_object@@PAU1@0@Z PROC	; backgroundSetRenderSort, COMDAT

; 423  : {

  00000	55		 push	 ebp
  00001	8b ec		 mov	 ebp, esp
  00003	51		 push	 ecx

; 424  : 	int eSort;
; 425  : 	if (!PyTuple_GetInteger(poArgs, 0, &eSort))

  00004	8d 45 fc	 lea	 eax, DWORD PTR _eSort$[ebp]
  00007	50		 push	 eax
  00008	6a 00		 push	 0
  0000a	ff 75 0c	 push	 DWORD PTR _poArgs$[ebp]
  0000d	e8 00 00 00 00	 call	 ?PyTuple_GetInteger@@YA_NPAU_object@@HPAH@Z ; PyTuple_GetInteger
  00012	83 c4 0c	 add	 esp, 12			; 0000000cH
  00015	84 c0		 test	 al, al
  00017	75 09		 jne	 SHORT $LN1@background

; 426  : 		return Py_BadArgument();

  00019	e8 00 00 00 00	 call	 ?Py_BadArgument@@YAPAU_object@@XZ ; Py_BadArgument

; 430  : }

  0001e	8b e5		 mov	 esp, ebp
  00020	5d		 pop	 ebp
  00021	c3		 ret	 0
$LN1@background:

; 427  : 
; 428  : 	CPythonBackground::Instance().SetTerrainRenderSort((CMapOutdoor::ETerrainRenderSort) eSort);

  00022	ff 75 fc	 push	 DWORD PTR _eSort$[ebp]
  00025	8b 0d 00 00 00
	00		 mov	 ecx, DWORD PTR ?ms_singleton@?$CSingleton@VCPythonBackground@@@@0PAVCPythonBackground@@A ; CSingleton<CPythonBackground>::ms_singleton
  0002b	e8 00 00 00 00	 call	 ?SetTerrainRenderSort@CMapManager@@QAEXW4ETerrainRenderSort@CMapOutdoor@@@Z ; CMapManager::SetTerrainRenderSort

; 429  : 	return Py_BuildNone();

  00030	e8 00 00 00 00	 call	 ?Py_BuildNone@@YAPAU_object@@XZ ; Py_BuildNone

; 430  : }

  00035	8b e5		 mov	 esp, ebp
  00037	5d		 pop	 ebp
  00038	c3		 ret	 0
?backgroundSetRenderSort@@YAPAU_object@@PAU1@0@Z ENDP	; backgroundSetRenderSort
_TEXT	ENDS
; Function compile flags: /Ogtp
; File d:\metin2\metin2\client_source_clean\client_source_clean\source\userinterface\pythonbackgroundmodule.cpp
;	COMDAT ?backgroundSetTransparentTree@@YAPAU_object@@PAU1@0@Z
_TEXT	SEGMENT
_bTransparent$ = -4					; size = 4
_poSelf$ = 8						; size = 4
_poArgs$ = 12						; size = 4
?backgroundSetTransparentTree@@YAPAU_object@@PAU1@0@Z PROC ; backgroundSetTransparentTree, COMDAT

; 433  : {

  00000	55		 push	 ebp
  00001	8b ec		 mov	 ebp, esp
  00003	51		 push	 ecx

; 434  : 	int bTransparent;
; 435  : 	if (!PyTuple_GetInteger(poArgs, 0, &bTransparent))

  00004	8d 45 fc	 lea	 eax, DWORD PTR _bTransparent$[ebp]
  00007	50		 push	 eax
  00008	6a 00		 push	 0
  0000a	ff 75 0c	 push	 DWORD PTR _poArgs$[ebp]
  0000d	e8 00 00 00 00	 call	 ?PyTuple_GetInteger@@YA_NPAU_object@@HPAH@Z ; PyTuple_GetInteger
  00012	83 c4 0c	 add	 esp, 12			; 0000000cH
  00015	84 c0		 test	 al, al
  00017	75 09		 jne	 SHORT $LN1@background

; 436  : 		return Py_BadArgument();

  00019	e8 00 00 00 00	 call	 ?Py_BadArgument@@YAPAU_object@@XZ ; Py_BadArgument

; 440  : }

  0001e	8b e5		 mov	 esp, ebp
  00020	5d		 pop	 ebp
  00021	c3		 ret	 0
$LN1@background:

; 437  : 
; 438  : 	CPythonBackground::Instance().SetTransparentTree(bTransparent ? true : false);

  00022	83 7d fc 00	 cmp	 DWORD PTR _bTransparent$[ebp], 0
  00026	8b 0d 00 00 00
	00		 mov	 ecx, DWORD PTR ?ms_singleton@?$CSingleton@VCPythonBackground@@@@0PAVCPythonBackground@@A ; CSingleton<CPythonBackground>::ms_singleton
  0002c	0f 95 c0	 setne	 al
  0002f	0f b6 c0	 movzx	 eax, al
  00032	50		 push	 eax
  00033	e8 00 00 00 00	 call	 ?SetTransparentTree@CMapManager@@QAEX_N@Z ; CMapManager::SetTransparentTree

; 439  : 	return Py_BuildNone();

  00038	e8 00 00 00 00	 call	 ?Py_BuildNone@@YAPAU_object@@XZ ; Py_BuildNone

; 440  : }

  0003d	8b e5		 mov	 esp, ebp
  0003f	5d		 pop	 ebp
  00040	c3		 ret	 0
?backgroundSetTransparentTree@@YAPAU_object@@PAU1@0@Z ENDP ; backgroundSetTransparentTree
_TEXT	ENDS
; Function compile flags: /Ogtp
; File d:\metin2\metin2\client_source_clean\client_source_clean\source\userinterface\pythonbackgroundmodule.cpp
;	COMDAT ?backgroundGlobalPositionToLocalPosition@@YAPAU_object@@PAU1@0@Z
_TEXT	SEGMENT
_iY$ = -16						; size = 4
_iX$ = -12						; size = 4
_lX$ = -8						; size = 4
_lY$ = -4						; size = 4
_poSelf$ = 8						; size = 4
_poArgs$ = 12						; size = 4
?backgroundGlobalPositionToLocalPosition@@YAPAU_object@@PAU1@0@Z PROC ; backgroundGlobalPositionToLocalPosition, COMDAT

; 443  : {

  00000	55		 push	 ebp
  00001	8b ec		 mov	 ebp, esp
  00003	83 ec 10	 sub	 esp, 16			; 00000010H

; 444  : 	int iX;
; 445  : 	if (!PyTuple_GetInteger(poArgs, 0, &iX))

  00006	8d 45 f4	 lea	 eax, DWORD PTR _iX$[ebp]
  00009	50		 push	 eax
  0000a	6a 00		 push	 0
  0000c	ff 75 0c	 push	 DWORD PTR _poArgs$[ebp]
  0000f	e8 00 00 00 00	 call	 ?PyTuple_GetInteger@@YA_NPAU_object@@HPAH@Z ; PyTuple_GetInteger
  00014	83 c4 0c	 add	 esp, 12			; 0000000cH
  00017	84 c0		 test	 al, al
  00019	75 09		 jne	 SHORT $LN2@background
$LN7@background:

; 446  : 		return Py_BadArgument();

  0001b	e8 00 00 00 00	 call	 ?Py_BadArgument@@YAPAU_object@@XZ ; Py_BadArgument

; 458  : }

  00020	8b e5		 mov	 esp, ebp
  00022	5d		 pop	 ebp
  00023	c3		 ret	 0
$LN2@background:

; 447  : 
; 448  : 	int iY;
; 449  : 	if (!PyTuple_GetInteger(poArgs, 1, &iY))

  00024	8d 45 f0	 lea	 eax, DWORD PTR _iY$[ebp]
  00027	50		 push	 eax
  00028	6a 01		 push	 1
  0002a	ff 75 0c	 push	 DWORD PTR _poArgs$[ebp]
  0002d	e8 00 00 00 00	 call	 ?PyTuple_GetInteger@@YA_NPAU_object@@HPAH@Z ; PyTuple_GetInteger
  00032	83 c4 0c	 add	 esp, 12			; 0000000cH
  00035	84 c0		 test	 al, al
  00037	74 e2		 je	 SHORT $LN7@background

; 450  : 		return Py_BadArgument();
; 451  : 
; 452  : 	LONG lX=iX;

  00039	8b 45 f4	 mov	 eax, DWORD PTR _iX$[ebp]

; 453  : 	LONG lY=iY;	
; 454  : 	CPythonBackground& rkBG=CPythonBackground::Instance();
; 455  : 	rkBG.GlobalPositionToLocalPosition(lX, lY);

  0003c	8b 0d 00 00 00
	00		 mov	 ecx, DWORD PTR ?ms_singleton@?$CSingleton@VCPythonBackground@@@@0PAVCPythonBackground@@A ; CSingleton<CPythonBackground>::ms_singleton
  00042	89 45 f8	 mov	 DWORD PTR _lX$[ebp], eax
  00045	8b 45 f0	 mov	 eax, DWORD PTR _iY$[ebp]
  00048	89 45 fc	 mov	 DWORD PTR _lY$[ebp], eax
  0004b	8d 45 fc	 lea	 eax, DWORD PTR _lY$[ebp]
  0004e	50		 push	 eax
  0004f	8d 45 f8	 lea	 eax, DWORD PTR _lX$[ebp]
  00052	50		 push	 eax
  00053	e8 00 00 00 00	 call	 ?GlobalPositionToLocalPosition@CPythonBackground@@QAEXAAJ0@Z ; CPythonBackground::GlobalPositionToLocalPosition

; 456  : 
; 457  : 	return Py_BuildValue("ii", lX, lY);

  00058	ff 75 fc	 push	 DWORD PTR _lY$[ebp]
  0005b	ff 75 f8	 push	 DWORD PTR _lX$[ebp]
  0005e	68 00 00 00 00	 push	 OFFSET ??_C@_02PDIHAGKM@ii?$AA@
  00063	ff 15 00 00 00
	00		 call	 DWORD PTR __imp__Py_BuildValue
  00069	83 c4 0c	 add	 esp, 12			; 0000000cH

; 458  : }

  0006c	8b e5		 mov	 esp, ebp
  0006e	5d		 pop	 ebp
  0006f	c3		 ret	 0
?backgroundGlobalPositionToLocalPosition@@YAPAU_object@@PAU1@0@Z ENDP ; backgroundGlobalPositionToLocalPosition
_TEXT	ENDS
; Function compile flags: /Ogtp
; File d:\metin2\metin2\client_source_clean\client_source_clean\source\userinterface\pythonbackgroundmodule.cpp
; File c:\program files (x86)\microsoft visual studio 12.0\vc\include\xstring
; File d:\metin2\metin2\client_source_clean\client_source_clean\source\userinterface\pythonbackgroundmodule.cpp
; File c:\program files (x86)\microsoft visual studio 12.0\vc\include\xstddef
; File d:\metin2\metin2\client_source_clean\client_source_clean\source\userinterface\pythonbackgroundmodule.cpp
; File c:\program files (x86)\microsoft visual studio 12.0\vc\include\xstring
; File d:\metin2\metin2\client_source_clean\client_source_clean\source\userinterface\pythonbackgroundmodule.cpp
;	COMDAT ?backgroundGlobalPositionToMapInfo@@YAPAU_object@@PAU1@0@Z
_TEXT	SEGMENT
_iX$ = -8						; size = 4
_iY$ = -4						; size = 4
_poSelf$ = 8						; size = 4
_poArgs$ = 12						; size = 4
?backgroundGlobalPositionToMapInfo@@YAPAU_object@@PAU1@0@Z PROC ; backgroundGlobalPositionToMapInfo, COMDAT

; 461  : {

  00000	55		 push	 ebp
  00001	8b ec		 mov	 ebp, esp
  00003	83 ec 08	 sub	 esp, 8

; 462  : 	int iX;
; 463  : 	if (!PyTuple_GetInteger(poArgs, 0, &iX))

  00006	8d 45 f8	 lea	 eax, DWORD PTR _iX$[ebp]
  00009	50		 push	 eax
  0000a	6a 00		 push	 0
  0000c	ff 75 0c	 push	 DWORD PTR _poArgs$[ebp]
  0000f	e8 00 00 00 00	 call	 ?PyTuple_GetInteger@@YA_NPAU_object@@HPAH@Z ; PyTuple_GetInteger
  00014	83 c4 0c	 add	 esp, 12			; 0000000cH
  00017	84 c0		 test	 al, al
  00019	75 09		 jne	 SHORT $LN4@background
$LN18@background:

; 464  : 		return Py_BadArgument();

  0001b	e8 00 00 00 00	 call	 ?Py_BadArgument@@YAPAU_object@@XZ ; Py_BadArgument

; 477  : }

  00020	8b e5		 mov	 esp, ebp
  00022	5d		 pop	 ebp
  00023	c3		 ret	 0
$LN4@background:

; 465  : 
; 466  : 	int iY;
; 467  : 	if (!PyTuple_GetInteger(poArgs, 1, &iY))

  00024	8d 45 fc	 lea	 eax, DWORD PTR _iY$[ebp]
  00027	50		 push	 eax
  00028	6a 01		 push	 1
  0002a	ff 75 0c	 push	 DWORD PTR _poArgs$[ebp]
  0002d	e8 00 00 00 00	 call	 ?PyTuple_GetInteger@@YA_NPAU_object@@HPAH@Z ; PyTuple_GetInteger
  00032	83 c4 0c	 add	 esp, 12			; 0000000cH
  00035	84 c0		 test	 al, al
  00037	74 e2		 je	 SHORT $LN18@background

; 468  : 		return Py_BadArgument();
; 469  : 
; 470  : 	CPythonBackground& rkBG=CPythonBackground::Instance();
; 471  : 	CPythonBackground::TMapInfo* pkMapInfo=rkBG.GlobalPositionToMapInfo(iX, iY);

  00039	ff 75 fc	 push	 DWORD PTR _iY$[ebp]
  0003c	8b 0d 00 00 00
	00		 mov	 ecx, DWORD PTR ?ms_singleton@?$CSingleton@VCPythonBackground@@@@0PAVCPythonBackground@@A ; CSingleton<CPythonBackground>::ms_singleton
  00042	ff 75 f8	 push	 DWORD PTR _iX$[ebp]
  00045	e8 00 00 00 00	 call	 ?GlobalPositionToMapInfo@CPythonBackground@@QAEPAUTMapInfo@CMapManager@@KK@Z ; CPythonBackground::GlobalPositionToMapInfo

; 472  : 	
; 473  : 	if (pkMapInfo)

  0004a	85 c0		 test	 eax, eax
  0004c	74 3c		 je	 SHORT $LN2@background
; File c:\program files (x86)\microsoft visual studio 12.0\vc\include\xstring

; 520  : 			: this->_Bx._Buf);

  0004e	83 78 14 10	 cmp	 DWORD PTR [eax+20], 16	; 00000010H
  00052	72 1b		 jb	 SHORT $LN13@background
; File d:\metin2\metin2\client_source_clean\client_source_clean\source\userinterface\pythonbackgroundmodule.cpp

; 474  : 		return Py_BuildValue("sii", pkMapInfo->m_strName.c_str(), pkMapInfo->m_dwBaseX, pkMapInfo->m_dwBaseY);

  00054	ff 70 1c	 push	 DWORD PTR [eax+28]
; File c:\program files (x86)\microsoft visual studio 12.0\vc\include\xstddef

; 95   : 		reinterpret_cast<const volatile char&>(_Val)))));

  00057	8b 08		 mov	 ecx, DWORD PTR [eax]
; File d:\metin2\metin2\client_source_clean\client_source_clean\source\userinterface\pythonbackgroundmodule.cpp

; 474  : 		return Py_BuildValue("sii", pkMapInfo->m_strName.c_str(), pkMapInfo->m_dwBaseX, pkMapInfo->m_dwBaseY);

  00059	ff 70 18	 push	 DWORD PTR [eax+24]
  0005c	51		 push	 ecx

; 475  : 	else
; 476  : 		return Py_BuildValue("sii", "", 0, 0);

  0005d	68 00 00 00 00	 push	 OFFSET ??_C@_03FEAIAPNA@sii?$AA@
  00062	ff 15 00 00 00
	00		 call	 DWORD PTR __imp__Py_BuildValue
  00068	83 c4 10	 add	 esp, 16			; 00000010H

; 477  : }

  0006b	8b e5		 mov	 esp, ebp
  0006d	5d		 pop	 ebp
  0006e	c3		 ret	 0
$LN13@background:

; 474  : 		return Py_BuildValue("sii", pkMapInfo->m_strName.c_str(), pkMapInfo->m_dwBaseX, pkMapInfo->m_dwBaseY);

  0006f	ff 70 1c	 push	 DWORD PTR [eax+28]
; File c:\program files (x86)\microsoft visual studio 12.0\vc\include\xstring

; 520  : 			: this->_Bx._Buf);

  00072	8b c8		 mov	 ecx, eax
; File d:\metin2\metin2\client_source_clean\client_source_clean\source\userinterface\pythonbackgroundmodule.cpp

; 474  : 		return Py_BuildValue("sii", pkMapInfo->m_strName.c_str(), pkMapInfo->m_dwBaseX, pkMapInfo->m_dwBaseY);

  00074	ff 70 18	 push	 DWORD PTR [eax+24]
  00077	51		 push	 ecx

; 475  : 	else
; 476  : 		return Py_BuildValue("sii", "", 0, 0);

  00078	68 00 00 00 00	 push	 OFFSET ??_C@_03FEAIAPNA@sii?$AA@
  0007d	ff 15 00 00 00
	00		 call	 DWORD PTR __imp__Py_BuildValue
  00083	83 c4 10	 add	 esp, 16			; 00000010H

; 477  : }

  00086	8b e5		 mov	 esp, ebp
  00088	5d		 pop	 ebp
  00089	c3		 ret	 0
$LN2@background:

; 475  : 	else
; 476  : 		return Py_BuildValue("sii", "", 0, 0);

  0008a	6a 00		 push	 0
  0008c	6a 00		 push	 0
  0008e	68 00 00 00 00	 push	 OFFSET ??_C@_00CNPNBAHC@?$AA@
  00093	68 00 00 00 00	 push	 OFFSET ??_C@_03FEAIAPNA@sii?$AA@
  00098	ff 15 00 00 00
	00		 call	 DWORD PTR __imp__Py_BuildValue
  0009e	83 c4 10	 add	 esp, 16			; 00000010H

; 477  : }

  000a1	8b e5		 mov	 esp, ebp
  000a3	5d		 pop	 ebp
  000a4	c3		 ret	 0
?backgroundGlobalPositionToMapInfo@@YAPAU_object@@PAU1@0@Z ENDP ; backgroundGlobalPositionToMapInfo
_TEXT	ENDS
; Function compile flags: /Ogtp
; File d:\metin2\metin2\client_source_clean\client_source_clean\source\userinterface\pythonbackgroundmodule.cpp
;	COMDAT ?backgroundWarpTest@@YAPAU_object@@PAU1@0@Z
_TEXT	SEGMENT
_iX$ = -8						; size = 4
_iY$ = -4						; size = 4
_poSelf$ = 8						; size = 4
_poArgs$ = 12						; size = 4
?backgroundWarpTest@@YAPAU_object@@PAU1@0@Z PROC	; backgroundWarpTest, COMDAT

; 481  : {

  00000	55		 push	 ebp
  00001	8b ec		 mov	 ebp, esp
  00003	83 ec 08	 sub	 esp, 8

; 482  : 	int iX;
; 483  : 	if (!PyTuple_GetInteger(poArgs, 0, &iX))

  00006	8d 45 f8	 lea	 eax, DWORD PTR _iX$[ebp]
  00009	50		 push	 eax
  0000a	6a 00		 push	 0
  0000c	ff 75 0c	 push	 DWORD PTR _poArgs$[ebp]
  0000f	e8 00 00 00 00	 call	 ?PyTuple_GetInteger@@YA_NPAU_object@@HPAH@Z ; PyTuple_GetInteger
  00014	83 c4 0c	 add	 esp, 12			; 0000000cH
  00017	84 c0		 test	 al, al
  00019	75 09		 jne	 SHORT $LN2@background
$LN7@background:

; 484  : 		return Py_BadArgument();

  0001b	e8 00 00 00 00	 call	 ?Py_BadArgument@@YAPAU_object@@XZ ; Py_BadArgument

; 492  : }

  00020	8b e5		 mov	 esp, ebp
  00022	5d		 pop	 ebp
  00023	c3		 ret	 0
$LN2@background:

; 485  : 
; 486  : 	int iY;
; 487  : 	if (!PyTuple_GetInteger(poArgs, 1, &iY))

  00024	8d 45 fc	 lea	 eax, DWORD PTR _iY$[ebp]
  00027	50		 push	 eax
  00028	6a 01		 push	 1
  0002a	ff 75 0c	 push	 DWORD PTR _poArgs$[ebp]
  0002d	e8 00 00 00 00	 call	 ?PyTuple_GetInteger@@YA_NPAU_object@@HPAH@Z ; PyTuple_GetInteger
  00032	83 c4 0c	 add	 esp, 12			; 0000000cH
  00035	84 c0		 test	 al, al
  00037	74 e2		 je	 SHORT $LN7@background

; 488  : 		return Py_BadArgument();
; 489  : 
; 490  : 	CPythonBackground::Instance().Warp((DWORD)iX * 100 , (DWORD)iY * 100);

  00039	6b 45 fc 64	 imul	 eax, DWORD PTR _iY$[ebp], 100
  0003d	8b 0d 00 00 00
	00		 mov	 ecx, DWORD PTR ?ms_singleton@?$CSingleton@VCPythonBackground@@@@0PAVCPythonBackground@@A ; CSingleton<CPythonBackground>::ms_singleton
  00043	50		 push	 eax
  00044	6b 45 f8 64	 imul	 eax, DWORD PTR _iX$[ebp], 100
  00048	50		 push	 eax
  00049	e8 00 00 00 00	 call	 ?Warp@CPythonBackground@@QAEXKK@Z ; CPythonBackground::Warp

; 491  : 	return Py_BuildNone();

  0004e	e8 00 00 00 00	 call	 ?Py_BuildNone@@YAPAU_object@@XZ ; Py_BuildNone

; 492  : }

  00053	8b e5		 mov	 esp, ebp
  00055	5d		 pop	 ebp
  00056	c3		 ret	 0
?backgroundWarpTest@@YAPAU_object@@PAU1@0@Z ENDP	; backgroundWarpTest
_TEXT	ENDS
; Function compile flags: /Ogtp
; File d:\metin2\metin2\client_source_clean\client_source_clean\source\userinterface\pythonbackgroundmodule.cpp
;	COMDAT ?backgroundSetXMasTree@@YAPAU_object@@PAU1@0@Z
_TEXT	SEGMENT
_iGrade$ = -4						; size = 4
_poSelf$ = 8						; size = 4
_poArgs$ = 12						; size = 4
?backgroundSetXMasTree@@YAPAU_object@@PAU1@0@Z PROC	; backgroundSetXMasTree, COMDAT

; 495  : {

  00000	55		 push	 ebp
  00001	8b ec		 mov	 ebp, esp
  00003	51		 push	 ecx

; 496  : 	int iGrade;
; 497  : 	if (!PyTuple_GetInteger(poArgs, 0, &iGrade))

  00004	8d 45 fc	 lea	 eax, DWORD PTR _iGrade$[ebp]
  00007	50		 push	 eax
  00008	6a 00		 push	 0
  0000a	ff 75 0c	 push	 DWORD PTR _poArgs$[ebp]
  0000d	e8 00 00 00 00	 call	 ?PyTuple_GetInteger@@YA_NPAU_object@@HPAH@Z ; PyTuple_GetInteger
  00012	83 c4 0c	 add	 esp, 12			; 0000000cH
  00015	84 c0		 test	 al, al
  00017	75 09		 jne	 SHORT $LN1@background

; 498  : 		return Py_BadArgument();

  00019	e8 00 00 00 00	 call	 ?Py_BadArgument@@YAPAU_object@@XZ ; Py_BadArgument

; 502  : }

  0001e	8b e5		 mov	 esp, ebp
  00020	5d		 pop	 ebp
  00021	c3		 ret	 0
$LN1@background:

; 499  : 
; 500  : 	CPythonBackground::Instance().SetXMaxTree(iGrade);

  00022	ff 75 fc	 push	 DWORD PTR _iGrade$[ebp]
  00025	8b 0d 00 00 00
	00		 mov	 ecx, DWORD PTR ?ms_singleton@?$CSingleton@VCPythonBackground@@@@0PAVCPythonBackground@@A ; CSingleton<CPythonBackground>::ms_singleton
  0002b	e8 00 00 00 00	 call	 ?SetXMaxTree@CPythonBackground@@QAEXH@Z ; CPythonBackground::SetXMaxTree

; 501  : 	return Py_BuildNone();

  00030	e8 00 00 00 00	 call	 ?Py_BuildNone@@YAPAU_object@@XZ ; Py_BuildNone

; 502  : }

  00035	8b e5		 mov	 esp, ebp
  00037	5d		 pop	 ebp
  00038	c3		 ret	 0
?backgroundSetXMasTree@@YAPAU_object@@PAU1@0@Z ENDP	; backgroundSetXMasTree
_TEXT	ENDS
; Function compile flags: /Ogtp
; File d:\metin2\metin2\client_source_clean\client_source_clean\source\userinterface\pythonbackgroundmodule.cpp
;	COMDAT ?backgroundRegisterDungeonMapName@@YAPAU_object@@PAU1@0@Z
_TEXT	SEGMENT
_szName$ = -4						; size = 4
_poSelf$ = 8						; size = 4
_poArgs$ = 12						; size = 4
?backgroundRegisterDungeonMapName@@YAPAU_object@@PAU1@0@Z PROC ; backgroundRegisterDungeonMapName, COMDAT

; 505  : {

  00000	55		 push	 ebp
  00001	8b ec		 mov	 ebp, esp
  00003	51		 push	 ecx

; 506  : 	char * szName;
; 507  : 	if (!PyTuple_GetString(poArgs, 0, &szName))

  00004	8d 45 fc	 lea	 eax, DWORD PTR _szName$[ebp]
  00007	50		 push	 eax
  00008	6a 00		 push	 0
  0000a	ff 75 0c	 push	 DWORD PTR _poArgs$[ebp]
  0000d	e8 00 00 00 00	 call	 ?PyTuple_GetString@@YA_NPAU_object@@HPAPAD@Z ; PyTuple_GetString
  00012	83 c4 0c	 add	 esp, 12			; 0000000cH
  00015	84 c0		 test	 al, al
  00017	75 09		 jne	 SHORT $LN1@background

; 508  : 		return Py_BadArgument();

  00019	e8 00 00 00 00	 call	 ?Py_BadArgument@@YAPAU_object@@XZ ; Py_BadArgument

; 512  : }

  0001e	8b e5		 mov	 esp, ebp
  00020	5d		 pop	 ebp
  00021	c3		 ret	 0
$LN1@background:

; 509  : 
; 510  : 	CPythonBackground::Instance().RegisterDungeonMapName(szName);

  00022	ff 75 fc	 push	 DWORD PTR _szName$[ebp]
  00025	8b 0d 00 00 00
	00		 mov	 ecx, DWORD PTR ?ms_singleton@?$CSingleton@VCPythonBackground@@@@0PAVCPythonBackground@@A ; CSingleton<CPythonBackground>::ms_singleton
  0002b	e8 00 00 00 00	 call	 ?RegisterDungeonMapName@CPythonBackground@@QAEXPBD@Z ; CPythonBackground::RegisterDungeonMapName

; 511  : 	return Py_BuildNone();

  00030	e8 00 00 00 00	 call	 ?Py_BuildNone@@YAPAU_object@@XZ ; Py_BuildNone

; 512  : }

  00035	8b e5		 mov	 esp, ebp
  00037	5d		 pop	 ebp
  00038	c3		 ret	 0
?backgroundRegisterDungeonMapName@@YAPAU_object@@PAU1@0@Z ENDP ; backgroundRegisterDungeonMapName
_TEXT	ENDS
; Function compile flags: /Ogtp
; File d:\metin2\metin2\client_source_clean\client_source_clean\source\userinterface\pythonbackgroundmodule.cpp
;	COMDAT ?backgroundVisibleGuildArea@@YAPAU_object@@PAU1@0@Z
_TEXT	SEGMENT
_poSelf$ = 8						; size = 4
_poArgs$ = 12						; size = 4
?backgroundVisibleGuildArea@@YAPAU_object@@PAU1@0@Z PROC ; backgroundVisibleGuildArea, COMDAT

; 516  : 	CPythonBackground::Instance().VisibleGuildArea();

  00000	8b 0d 00 00 00
	00		 mov	 ecx, DWORD PTR ?ms_singleton@?$CSingleton@VCPythonBackground@@@@0PAVCPythonBackground@@A ; CSingleton<CPythonBackground>::ms_singleton
  00006	e8 00 00 00 00	 call	 ?VisibleGuildArea@CPythonBackground@@QAEXXZ ; CPythonBackground::VisibleGuildArea

; 517  : 	return Py_BuildNone();

  0000b	e9 00 00 00 00	 jmp	 ?Py_BuildNone@@YAPAU_object@@XZ ; Py_BuildNone
?backgroundVisibleGuildArea@@YAPAU_object@@PAU1@0@Z ENDP ; backgroundVisibleGuildArea
_TEXT	ENDS
; Function compile flags: /Ogtp
; File d:\metin2\metin2\client_source_clean\client_source_clean\source\userinterface\pythonbackgroundmodule.cpp
;	COMDAT ?backgroundDisableGuildArea@@YAPAU_object@@PAU1@0@Z
_TEXT	SEGMENT
_poSelf$ = 8						; size = 4
_poArgs$ = 12						; size = 4
?backgroundDisableGuildArea@@YAPAU_object@@PAU1@0@Z PROC ; backgroundDisableGuildArea, COMDAT

; 522  : 	CPythonBackground::Instance().DisableGuildArea();

  00000	8b 0d 00 00 00
	00		 mov	 ecx, DWORD PTR ?ms_singleton@?$CSingleton@VCPythonBackground@@@@0PAVCPythonBackground@@A ; CSingleton<CPythonBackground>::ms_singleton
  00006	e8 00 00 00 00	 call	 ?DisableGuildArea@CPythonBackground@@QAEXXZ ; CPythonBackground::DisableGuildArea

; 523  : 	return Py_BuildNone();

  0000b	e9 00 00 00 00	 jmp	 ?Py_BuildNone@@YAPAU_object@@XZ ; Py_BuildNone
?backgroundDisableGuildArea@@YAPAU_object@@PAU1@0@Z ENDP ; backgroundDisableGuildArea
_TEXT	ENDS
; Function compile flags: /Ogtp
; File d:\metin2\metin2\client_source_clean\client_source_clean\source\userinterface\pythonbackgroundmodule.cpp
;	COMDAT ?initBackground@@YAXXZ
_TEXT	SEGMENT
?initBackground@@YAXXZ PROC				; initBackground, COMDAT

; 527  : {

  00000	56		 push	 esi
  00001	57		 push	 edi

; 528  : 	static PyMethodDef s_methods[] =
; 529  : 	{
; 530  : 		{ "IsSoftwareTiling",					backgroundIsSoftwareTiling,					METH_VARARGS }, 
; 531  : 		{ "EnableSoftwareTiling",				backgroundEnableSoftwareTiling,				METH_VARARGS }, 
; 532  : 		{ "EnableSnow",							backgroundEnableSnow,						METH_VARARGS }, 
; 533  : 		{ "GlobalPositionToLocalPosition",		backgroundGlobalPositionToLocalPosition,	METH_VARARGS }, 
; 534  : 		{ "GlobalPositionToMapInfo",			backgroundGlobalPositionToMapInfo,			METH_VARARGS }, 
; 535  : 		{ "GetRenderShadowTime",				backgroundGetRenderShadowTime,				METH_VARARGS },
; 536  : 		{ "LoadMap",							backgroundLoadMap,							METH_VARARGS },
; 537  : 		{ "Destroy",							backgroundDestroy,							METH_VARARGS },
; 538  : 		{ "RegisterEnvironmentData",			backgroundRegisterEnvironmentData,			METH_VARARGS },
; 539  : 		{ "SetEnvironmentData",					backgroundSetEnvironmentData,				METH_VARARGS },
; 540  : 		{ "GetCurrentMapName",					backgroundGetCurrentMapName,				METH_VARARGS },
; 541  : 		{ "GetPickingPoint",					backgroundGetPickingPoint,					METH_VARARGS },
; 542  : 
; 543  : 		{ "BeginEnvironment",					backgroundBeginEnvironment,					METH_VARARGS },
; 544  : 		{ "EndEnvironment",						backgroundEndEnvironemt,					METH_VARARGS },
; 545  : 		{ "SetCharacterDirLight",				backgroundSetCharacterDirLight,				METH_VARARGS },
; 546  : 		{ "SetBackgroundDirLight",				backgroundSetBackgroundDirLight,			METH_VARARGS },
; 547  : 
; 548  : 		{ "Initialize",							backgroundInitialize,						METH_VARARGS },
; 549  : 		{ "Update",								backgroundUpdate,							METH_VARARGS },
; 550  : 		{ "Render",								backgroundRender,							METH_VARARGS },
; 551  : 		{ "RenderPCBlocker",					backgroundRenderPCBlocker,					METH_VARARGS },
; 552  : 		{ "RenderCollision",					backgroundRenderCollision,					METH_VARARGS },
; 553  : 		{ "RenderSky",							backgroundRenderSky,						METH_VARARGS },
; 554  : 		{ "RenderCloud",						backgroundRenderCloud,						METH_VARARGS },
; 555  : 		{ "RenderWater",						backgroundRenderWater,						METH_VARARGS },
; 556  : 		{ "RenderEffect",						backgroundRenderEffect,						METH_VARARGS },
; 557  : 		{ "RenderBeforeLensFlare",				backgroundRenderBeforeLensFlare,			METH_VARARGS },
; 558  : 		{ "RenderAfterLensFlare",				backgroundRenderAfterLensFlare,				METH_VARARGS },
; 559  : 		{ "RenderCharacterShadowToTexture",		backgroundRenderCharacterShadowToTexture,	METH_VARARGS },
; 560  : 		{ "RenderDungeon",						backgroundRenderDungeon,					METH_VARARGS },
; 561  : 		{ "GetHeight",							backgroundGetHeight,						METH_VARARGS },
; 562  : 		
; 563  : 		{ "SetShadowLevel",						backgroundSetShadowLevel,					METH_VARARGS },
; 564  : 
; 565  : 		{ "SetVisiblePart",						backgroundSetVisiblePart,					METH_VARARGS },
; 566  : 		{ "GetShadowMapColor",					backgroundGetShadowMapcolor,				METH_VARARGS },
; 567  : 		{ "SetSplatLimit",						backgroundSetSpaltLimit,					METH_VARARGS },
; 568  : 		{ "GetRenderedSplatNum",				backgroundGetRenderedSplatNum,				METH_VARARGS },
; 569  : 		{ "GetRenderedGraphicThingInstanceNum",	backgroundGetRenderedGTINum,				METH_VARARGS },
; 570  : 		{ "SelectViewDistanceNum",				backgroundSelectViewDistanceNum,			METH_VARARGS },
; 571  : 		{ "SetViewDistanceSet",					backgroundSetViewDistanceSet,				METH_VARARGS },
; 572  : 		{ "GetFarClip",							backgroundGetFarClip,						METH_VARARGS },
; 573  : 		{ "GetDistanceSetInfo",					backgroundGetDistanceSetInfo,				METH_VARARGS },
; 574  : 		{ "SetBGLoading",						backgroundSetBGLoading,						METH_VARARGS },
; 575  : 		{ "SetRenderSort",						backgroundSetRenderSort,					METH_VARARGS },
; 576  : 		{ "SetTransparentTree",					backgroundSetTransparentTree,				METH_VARARGS },
; 577  : 		{ "SetXMasTree",						backgroundSetXMasTree,						METH_VARARGS },
; 578  : 		{ "RegisterDungeonMapName",				backgroundRegisterDungeonMapName,			METH_VARARGS },
; 579  : 
; 580  : 		{ "VisibleGuildArea",					backgroundVisibleGuildArea,					METH_VARARGS },
; 581  : 		{ "DisableGuildArea",					backgroundDisableGuildArea,					METH_VARARGS },
; 582  : 
; 583  : 		{ "WarpTest",							backgroundWarpTest,							METH_VARARGS },
; 584  : 
; 585  : 		{ NULL, NULL, NULL },
; 586  : 	};
; 587  : 
; 588  : 	PyObject * poModule = Py_InitModule("background", s_methods);

  00002	68 f5 03 00 00	 push	 1013			; 000003f5H
  00007	6a 00		 push	 0
  00009	6a 00		 push	 0
  0000b	68 00 00 00 00	 push	 OFFSET ?s_methods@?1??initBackground@@YAXXZ@4PAUPyMethodDef@@A
  00010	68 00 00 00 00	 push	 OFFSET ??_C@_0L@EGCKCJDC@background?$AA@
  00015	ff 15 00 00 00
	00		 call	 DWORD PTR __imp__Py_InitModule4

; 589  : 
; 590  : 	PyModule_AddIntConstant(poModule, "PART_SKY",				CMapOutdoor::PART_SKY);

  0001b	8b 35 00 00 00
	00		 mov	 esi, DWORD PTR __imp__PyModule_AddIntConstant
  00021	8b f8		 mov	 edi, eax
  00023	6a 05		 push	 5
  00025	68 00 00 00 00	 push	 OFFSET ??_C@_08NJILKGEB@PART_SKY?$AA@
  0002a	57		 push	 edi
  0002b	ff d6		 call	 esi

; 591  : 	PyModule_AddIntConstant(poModule, "PART_TREE",				CMapOutdoor::PART_TREE);

  0002d	6a 04		 push	 4
  0002f	68 00 00 00 00	 push	 OFFSET ??_C@_09GABNPPB@PART_TREE?$AA@
  00034	57		 push	 edi
  00035	ff d6		 call	 esi

; 592  : 	PyModule_AddIntConstant(poModule, "PART_CLOUD",				CMapOutdoor::PART_CLOUD);

  00037	6a 02		 push	 2
  00039	68 00 00 00 00	 push	 OFFSET ??_C@_0L@OMDBBBIA@PART_CLOUD?$AA@
  0003e	57		 push	 edi
  0003f	ff d6		 call	 esi

; 593  : 	PyModule_AddIntConstant(poModule, "PART_WATER",				CMapOutdoor::PART_WATER);

  00041	6a 03		 push	 3
  00043	68 00 00 00 00	 push	 OFFSET ??_C@_0L@LEAFDIF@PART_WATER?$AA@
  00048	57		 push	 edi
  00049	ff d6		 call	 esi
  0004b	83 c4 44	 add	 esp, 68			; 00000044H

; 594  : 	PyModule_AddIntConstant(poModule, "PART_OBJECT",			CMapOutdoor::PART_OBJECT);	

  0004e	6a 01		 push	 1
  00050	68 00 00 00 00	 push	 OFFSET ??_C@_0M@FDJPOPAP@PART_OBJECT?$AA@
  00055	57		 push	 edi
  00056	ff d6		 call	 esi

; 595  : 	PyModule_AddIntConstant(poModule, "PART_TERRAIN",			CMapOutdoor::PART_TERRAIN);	

  00058	6a 00		 push	 0
  0005a	68 00 00 00 00	 push	 OFFSET ??_C@_0N@JJNCMAMK@PART_TERRAIN?$AA@
  0005f	57		 push	 edi
  00060	ff d6		 call	 esi

; 596  : 
; 597  : 	PyModule_AddIntConstant(poModule, "SKY_RENDER_MODE_DEFAULT",			CSkyObject::SKY_RENDER_MODE_DEFAULT);

  00062	6a 00		 push	 0
  00064	68 00 00 00 00	 push	 OFFSET ??_C@_0BI@KFLFFAKF@SKY_RENDER_MODE_DEFAULT?$AA@
  00069	57		 push	 edi
  0006a	ff d6		 call	 esi

; 598  : 	PyModule_AddIntConstant(poModule, "SKY_RENDER_MODE_DIFFUSE",			CSkyObject::SKY_RENDER_MODE_DIFFUSE);

  0006c	6a 01		 push	 1
  0006e	68 00 00 00 00	 push	 OFFSET ??_C@_0BI@JEJGCBJM@SKY_RENDER_MODE_DIFFUSE?$AA@
  00073	57		 push	 edi
  00074	ff d6		 call	 esi

; 599  : 	PyModule_AddIntConstant(poModule, "SKY_RENDER_MODE_TEXTURE",			CSkyObject::SKY_RENDER_MODE_TEXTURE);

  00076	6a 02		 push	 2
  00078	68 00 00 00 00	 push	 OFFSET ??_C@_0BI@NLDLHPN@SKY_RENDER_MODE_TEXTURE?$AA@
  0007d	57		 push	 edi
  0007e	ff d6		 call	 esi

; 600  : 	PyModule_AddIntConstant(poModule, "SKY_RENDER_MODE_MODULATE",			CSkyObject::SKY_RENDER_MODE_MODULATE);

  00080	6a 03		 push	 3
  00082	68 00 00 00 00	 push	 OFFSET ??_C@_0BJ@IGDGIPGO@SKY_RENDER_MODE_MODULATE?$AA@
  00087	57		 push	 edi
  00088	ff d6		 call	 esi
  0008a	83 c4 48	 add	 esp, 72			; 00000048H

; 601  : 	PyModule_AddIntConstant(poModule, "SKY_RENDER_MODE_MODULATE2X",			CSkyObject::SKY_RENDER_MODE_MODULATE2X);

  0008d	6a 04		 push	 4
  0008f	68 00 00 00 00	 push	 OFFSET ??_C@_0BL@NDPELIAM@SKY_RENDER_MODE_MODULATE2X?$AA@
  00094	57		 push	 edi
  00095	ff d6		 call	 esi

; 602  : 	PyModule_AddIntConstant(poModule, "SKY_RENDER_MODE_MODULATE4X",			CSkyObject::SKY_RENDER_MODE_MODULATE4X);

  00097	6a 05		 push	 5
  00099	68 00 00 00 00	 push	 OFFSET ??_C@_0BL@NHHJMELO@SKY_RENDER_MODE_MODULATE4X?$AA@
  0009e	57		 push	 edi
  0009f	ff d6		 call	 esi

; 603  : 
; 604  : 	PyModule_AddIntConstant(poModule, "SHADOW_NONE", CPythonBackground::SHADOW_NONE);

  000a1	6a 00		 push	 0
  000a3	68 00 00 00 00	 push	 OFFSET ??_C@_0M@GJOLHPMA@SHADOW_NONE?$AA@
  000a8	57		 push	 edi
  000a9	ff d6		 call	 esi

; 605  : 	PyModule_AddIntConstant(poModule, "SHADOW_GROUND", CPythonBackground::SHADOW_GROUND);

  000ab	6a 01		 push	 1
  000ad	68 00 00 00 00	 push	 OFFSET ??_C@_0O@KCPINCHK@SHADOW_GROUND?$AA@
  000b2	57		 push	 edi
  000b3	ff d6		 call	 esi

; 606  : 	PyModule_AddIntConstant(poModule, "SHADOW_GROUND_AND_SOLO", CPythonBackground::SHADOW_GROUND_AND_SOLO);

  000b5	6a 02		 push	 2
  000b7	68 00 00 00 00	 push	 OFFSET ??_C@_0BH@GACINHHJ@SHADOW_GROUND_AND_SOLO?$AA@
  000bc	57		 push	 edi
  000bd	ff d6		 call	 esi

; 607  : 	PyModule_AddIntConstant(poModule, "SHADOW_ALL", CPythonBackground::SHADOW_ALL);

  000bf	6a 03		 push	 3
  000c1	68 00 00 00 00	 push	 OFFSET ??_C@_0L@IDBIEHAB@SHADOW_ALL?$AA@
  000c6	57		 push	 edi
  000c7	ff d6		 call	 esi
  000c9	83 c4 48	 add	 esp, 72			; 00000048H

; 608  : 	PyModule_AddIntConstant(poModule, "SHADOW_ALL_HIGH", CPythonBackground::SHADOW_ALL_HIGH);

  000cc	6a 04		 push	 4
  000ce	68 00 00 00 00	 push	 OFFSET ??_C@_0BA@HAKJACB@SHADOW_ALL_HIGH?$AA@
  000d3	57		 push	 edi
  000d4	ff d6		 call	 esi

; 609  : 	PyModule_AddIntConstant(poModule, "SHADOW_ALL_MAX", CPythonBackground::SHADOW_ALL_MAX);

  000d6	6a 05		 push	 5
  000d8	68 00 00 00 00	 push	 OFFSET ??_C@_0P@OLMEFOLC@SHADOW_ALL_MAX?$AA@
  000dd	57		 push	 edi
  000de	ff d6		 call	 esi

; 610  : 
; 611  : 	PyModule_AddIntConstant(poModule, "DISTANCE0", CPythonBackground::DISTANCE0);

  000e0	6a 00		 push	 0
  000e2	68 00 00 00 00	 push	 OFFSET ??_C@_09PGFHANGE@DISTANCE0?$AA@
  000e7	57		 push	 edi
  000e8	ff d6		 call	 esi

; 612  : 	PyModule_AddIntConstant(poModule, "DISTANCE1", CPythonBackground::DISTANCE1);

  000ea	6a 01		 push	 1
  000ec	68 00 00 00 00	 push	 OFFSET ??_C@_09OPEMDMCF@DISTANCE1?$AA@
  000f1	57		 push	 edi
  000f2	ff d6		 call	 esi

; 613  : 	PyModule_AddIntConstant(poModule, "DISTANCE2", CPythonBackground::DISTANCE2);

  000f4	6a 02		 push	 2
  000f6	68 00 00 00 00	 push	 OFFSET ??_C@_09MEGBGPOG@DISTANCE2?$AA@
  000fb	57		 push	 edi
  000fc	ff d6		 call	 esi

; 614  : 	PyModule_AddIntConstant(poModule, "DISTANCE3", CPythonBackground::DISTANCE3);

  000fe	6a 03		 push	 3
  00100	68 00 00 00 00	 push	 OFFSET ??_C@_09NNHKFOKH@DISTANCE3?$AA@
  00105	57		 push	 edi
  00106	ff d6		 call	 esi
  00108	83 c4 48	 add	 esp, 72			; 00000048H

; 615  : 	PyModule_AddIntConstant(poModule, "DISTANCE4", CPythonBackground::DISTANCE4);

  0010b	6a 04		 push	 4
  0010d	68 00 00 00 00	 push	 OFFSET ??_C@_09JCDLMIGA@DISTANCE4?$AA@
  00112	57		 push	 edi
  00113	ff d6		 call	 esi

; 616  : 
; 617  : 	PyModule_AddIntConstant(poModule, "DISTANCE_SORT", CMapOutdoor::DISTANCE_SORT);

  00115	6a 00		 push	 0
  00117	68 00 00 00 00	 push	 OFFSET ??_C@_0O@OJDBENMM@DISTANCE_SORT?$AA@
  0011c	57		 push	 edi
  0011d	ff d6		 call	 esi

; 618  : 	PyModule_AddIntConstant(poModule, "TEXTURE_SORT", CMapOutdoor::TEXTURE_SORT);

  0011f	6a 01		 push	 1
  00121	68 00 00 00 00	 push	 OFFSET ??_C@_0N@CKPMLBKJ@TEXTURE_SORT?$AA@
  00126	57		 push	 edi
  00127	ff d6		 call	 esi
  00129	83 c4 24	 add	 esp, 36			; 00000024H
  0012c	5f		 pop	 edi
  0012d	5e		 pop	 esi

; 619  : }

  0012e	c3		 ret	 0
?initBackground@@YAXXZ ENDP				; initBackground
_TEXT	ENDS
; Function compile flags: /Ogtp
; File c:\program files (x86)\microsoft visual studio 12.0\vc\include\vector
;	COMDAT ?begin@?$vector@HV?$allocator@H@std@@@std@@QAE?AV?$_Vector_iterator@V?$_Vector_val@U?$_Simple_types@H@std@@@std@@@2@XZ
_TEXT	SEGMENT
___$ReturnUdt$ = 8					; size = 4
?begin@?$vector@HV?$allocator@H@std@@@std@@QAE?AV?$_Vector_iterator@V?$_Vector_val@U?$_Simple_types@H@std@@@std@@@2@XZ PROC ; std::vector<int,std::allocator<int> >::begin, COMDAT
; _this$ = ecx

; 1024 : 		{	// return iterator for beginning of mutable sequence

  00000	55		 push	 ebp
  00001	8b ec		 mov	 ebp, esp

; 47   : 		{	// construct with pointer _Parg

  00003	8b 45 08	 mov	 eax, DWORD PTR ___$ReturnUdt$[ebp]
  00006	8b 09		 mov	 ecx, DWORD PTR [ecx]
  00008	89 08		 mov	 DWORD PTR [eax], ecx

; 1025 : 		return (iterator(this->_Myfirst, this));
; 1026 : 		}

  0000a	5d		 pop	 ebp
  0000b	c2 04 00	 ret	 4
?begin@?$vector@HV?$allocator@H@std@@@std@@QAE?AV?$_Vector_iterator@V?$_Vector_val@U?$_Simple_types@H@std@@@std@@@2@XZ ENDP ; std::vector<int,std::allocator<int> >::begin
_TEXT	ENDS
; Function compile flags: /Ogtp
; File c:\program files (x86)\microsoft visual studio 12.0\vc\include\vector
;	COMDAT ?end@?$vector@HV?$allocator@H@std@@@std@@QAE?AV?$_Vector_iterator@V?$_Vector_val@U?$_Simple_types@H@std@@@std@@@2@XZ
_TEXT	SEGMENT
___$ReturnUdt$ = 8					; size = 4
?end@?$vector@HV?$allocator@H@std@@@std@@QAE?AV?$_Vector_iterator@V?$_Vector_val@U?$_Simple_types@H@std@@@std@@@2@XZ PROC ; std::vector<int,std::allocator<int> >::end, COMDAT
; _this$ = ecx

; 1034 : 		{	// return iterator for end of mutable sequence

  00000	55		 push	 ebp
  00001	8b ec		 mov	 ebp, esp

; 47   : 		{	// construct with pointer _Parg

  00003	8b 45 08	 mov	 eax, DWORD PTR ___$ReturnUdt$[ebp]
  00006	8b 49 04	 mov	 ecx, DWORD PTR [ecx+4]
  00009	89 08		 mov	 DWORD PTR [eax], ecx

; 1035 : 		return (iterator(this->_Mylast, this));
; 1036 : 		}

  0000b	5d		 pop	 ebp
  0000c	c2 04 00	 ret	 4
?end@?$vector@HV?$allocator@H@std@@@std@@QAE?AV?$_Vector_iterator@V?$_Vector_val@U?$_Simple_types@H@std@@@std@@@2@XZ ENDP ; std::vector<int,std::allocator<int> >::end
_TEXT	ENDS
; Function compile flags: /Ogtp
; File c:\program files (x86)\microsoft visual studio 12.0\vc\include\vector
;	COMDAT ??D?$_Vector_iterator@V?$_Vector_val@U?$_Simple_types@H@std@@@std@@@std@@QBEAAHXZ
_TEXT	SEGMENT
??D?$_Vector_iterator@V?$_Vector_val@U?$_Simple_types@H@std@@@std@@@std@@QBEAAHXZ PROC ; std::_Vector_iterator<std::_Vector_val<std::_Simple_types<int> > >::operator*, COMDAT
; _this$ = ecx

; 324  : 		return ((reference)**(_Mybase *)this);

  00000	8b 01		 mov	 eax, DWORD PTR [ecx]

; 325  : 		}

  00002	c3		 ret	 0
??D?$_Vector_iterator@V?$_Vector_val@U?$_Simple_types@H@std@@@std@@@std@@QBEAAHXZ ENDP ; std::_Vector_iterator<std::_Vector_val<std::_Simple_types<int> > >::operator*
_TEXT	ENDS
; Function compile flags: /Ogtp
; File c:\program files (x86)\microsoft visual studio 12.0\vc\include\vector
;	COMDAT ??E?$_Vector_iterator@V?$_Vector_val@U?$_Simple_types@H@std@@@std@@@std@@QAE?AV01@H@Z
_TEXT	SEGMENT
___$ReturnUdt$ = 8					; size = 4
___formal$ = 12						; size = 4
??E?$_Vector_iterator@V?$_Vector_val@U?$_Simple_types@H@std@@@std@@@std@@QAE?AV01@H@Z PROC ; std::_Vector_iterator<std::_Vector_val<std::_Simple_types<int> > >::operator++, COMDAT
; _this$ = ecx

; 339  : 		{	// postincrement

  00000	55		 push	 ebp
  00001	8b ec		 mov	 ebp, esp

; 340  : 		_Myiter _Tmp = *this;

  00003	8b 45 08	 mov	 eax, DWORD PTR ___$ReturnUdt$[ebp]
  00006	8b 11		 mov	 edx, DWORD PTR [ecx]
  00008	89 10		 mov	 DWORD PTR [eax], edx

; 112  : 		++this->_Ptr;

  0000a	83 c2 04	 add	 edx, 4
  0000d	89 11		 mov	 DWORD PTR [ecx], edx

; 341  : 		++*this;
; 342  : 		return (_Tmp);
; 343  : 		}

  0000f	5d		 pop	 ebp
  00010	c2 08 00	 ret	 8
??E?$_Vector_iterator@V?$_Vector_val@U?$_Simple_types@H@std@@@std@@@std@@QAE?AV01@H@Z ENDP ; std::_Vector_iterator<std::_Vector_val<std::_Simple_types<int> > >::operator++
_TEXT	ENDS
; Function compile flags: /Ogtp
; File c:\program files (x86)\microsoft visual studio 12.0\vc\include\vector
;	COMDAT ??9?$_Vector_const_iterator@V?$_Vector_val@U?$_Simple_types@H@std@@@std@@@std@@QBE_NABV01@@Z
_TEXT	SEGMENT
__Right$ = 8						; size = 4
??9?$_Vector_const_iterator@V?$_Vector_val@U?$_Simple_types@H@std@@@std@@@std@@QBE_NABV01@@Z PROC ; std::_Vector_const_iterator<std::_Vector_val<std::_Simple_types<int> > >::operator!=, COMDAT
; _this$ = ecx

; 209  : 		{	// test for iterator inequality

  00000	55		 push	 ebp
  00001	8b ec		 mov	 ebp, esp

; 205  : 		return (this->_Ptr == _Right._Ptr);

  00003	8b 11		 mov	 edx, DWORD PTR [ecx]

; 210  : 		return (!(*this == _Right));

  00005	33 c0		 xor	 eax, eax

; 205  : 		return (this->_Ptr == _Right._Ptr);

  00007	8b 4d 08	 mov	 ecx, DWORD PTR __Right$[ebp]
  0000a	3b 11		 cmp	 edx, DWORD PTR [ecx]

; 210  : 		return (!(*this == _Right));

  0000c	0f 95 c0	 setne	 al

; 211  : 		}

  0000f	5d		 pop	 ebp
  00010	c2 04 00	 ret	 4
??9?$_Vector_const_iterator@V?$_Vector_val@U?$_Simple_types@H@std@@@std@@@std@@QBE_NABV01@@Z ENDP ; std::_Vector_const_iterator<std::_Vector_val<std::_Simple_types<int> > >::operator!=
_TEXT	ENDS
; Function compile flags: /Ogtp
; File c:\program files (x86)\microsoft visual studio 12.0\vc\include\vector
;	COMDAT ??0?$_Vector_iterator@V?$_Vector_val@U?$_Simple_types@H@std@@@std@@@std@@QAE@PAHPBU_Container_base0@1@@Z
_TEXT	SEGMENT
__Parg$ = 8						; size = 4
__Pvector$ = 12						; size = 4
??0?$_Vector_iterator@V?$_Vector_val@U?$_Simple_types@H@std@@@std@@@std@@QAE@PAHPBU_Container_base0@1@@Z PROC ; std::_Vector_iterator<std::_Vector_val<std::_Simple_types<int> > >::_Vector_iterator<std::_Vector_val<std::_Simple_types<int> > >, COMDAT
; _this$ = ecx

; 306  : 		{	// construct with pointer _Parg

  00000	55		 push	 ebp
  00001	8b ec		 mov	 ebp, esp

; 47   : 		{	// construct with pointer _Parg

  00003	8b 45 08	 mov	 eax, DWORD PTR __Parg$[ebp]
  00006	89 01		 mov	 DWORD PTR [ecx], eax

; 307  : 		}

  00008	8b c1		 mov	 eax, ecx
  0000a	5d		 pop	 ebp
  0000b	c2 08 00	 ret	 8
??0?$_Vector_iterator@V?$_Vector_val@U?$_Simple_types@H@std@@@std@@@std@@QAE@PAHPBU_Container_base0@1@@Z ENDP ; std::_Vector_iterator<std::_Vector_val<std::_Simple_types<int> > >::_Vector_iterator<std::_Vector_val<std::_Simple_types<int> > >
_TEXT	ENDS
; Function compile flags: /Ogtp
; File c:\program files (x86)\microsoft visual studio 12.0\vc\include\vector
;	COMDAT ??E?$_Vector_iterator@V?$_Vector_val@U?$_Simple_types@H@std@@@std@@@std@@QAEAAV01@XZ
_TEXT	SEGMENT
??E?$_Vector_iterator@V?$_Vector_val@U?$_Simple_types@H@std@@@std@@@std@@QAEAAV01@XZ PROC ; std::_Vector_iterator<std::_Vector_val<std::_Simple_types<int> > >::operator++, COMDAT
; _this$ = ecx

; 112  : 		++this->_Ptr;

  00000	83 01 04	 add	 DWORD PTR [ecx], 4

; 334  : 		++*(_Mybase *)this;
; 335  : 		return (*this);

  00003	8b c1		 mov	 eax, ecx

; 336  : 		}

  00005	c3		 ret	 0
??E?$_Vector_iterator@V?$_Vector_val@U?$_Simple_types@H@std@@@std@@@std@@QAEAAV01@XZ ENDP ; std::_Vector_iterator<std::_Vector_val<std::_Simple_types<int> > >::operator++
_TEXT	ENDS
; Function compile flags: /Ogtp
; File c:\program files (x86)\microsoft visual studio 12.0\vc\include\vector
;	COMDAT ??D?$_Vector_const_iterator@V?$_Vector_val@U?$_Simple_types@H@std@@@std@@@std@@QBEABHXZ
_TEXT	SEGMENT
??D?$_Vector_const_iterator@V?$_Vector_val@U?$_Simple_types@H@std@@@std@@@std@@QBEABHXZ PROC ; std::_Vector_const_iterator<std::_Vector_val<std::_Simple_types<int> > >::operator*, COMDAT
; _this$ = ecx

; 66   :  #if _ITERATOR_DEBUG_LEVEL == 2
; 67   : 		if (this->_Getcont() == 0
; 68   : 			|| this->_Ptr == 0
; 69   : 			|| this->_Ptr < ((_Myvec *)this->_Getcont())->_Myfirst
; 70   : 			|| ((_Myvec *)this->_Getcont())->_Mylast <= this->_Ptr)
; 71   : 			{	// report error
; 72   : 			_DEBUG_ERROR("vector iterator not dereferencable");
; 73   : 			_SCL_SECURE_OUT_OF_RANGE;
; 74   : 			}
; 75   : 
; 76   :  #elif _ITERATOR_DEBUG_LEVEL == 1
; 77   : 		_SCL_SECURE_VALIDATE(this->_Getcont() != 0);
; 78   : 		_SCL_SECURE_VALIDATE_RANGE(
; 79   : 			this->_Ptr != _Tptr()
; 80   : 			&& ((_Myvec *)this->_Getcont())->_Myfirst <= this->_Ptr
; 81   : 			&& this->_Ptr < ((_Myvec *)this->_Getcont())->_Mylast);
; 82   :  #endif /* _ITERATOR_DEBUG_LEVEL */
; 83   : 
; 84   : 		_Analysis_assume_(this->_Ptr != _Tptr());
; 85   : 
; 86   : 		return (*this->_Ptr);

  00000	8b 01		 mov	 eax, DWORD PTR [ecx]

; 87   : 		}

  00002	c3		 ret	 0
??D?$_Vector_const_iterator@V?$_Vector_val@U?$_Simple_types@H@std@@@std@@@std@@QBEABHXZ ENDP ; std::_Vector_const_iterator<std::_Vector_val<std::_Simple_types<int> > >::operator*
_TEXT	ENDS
; Function compile flags: /Ogtp
; File c:\program files (x86)\microsoft visual studio 12.0\vc\include\vector
;	COMDAT ??8?$_Vector_const_iterator@V?$_Vector_val@U?$_Simple_types@H@std@@@std@@@std@@QBE_NABV01@@Z
_TEXT	SEGMENT
__Right$ = 8						; size = 4
??8?$_Vector_const_iterator@V?$_Vector_val@U?$_Simple_types@H@std@@@std@@@std@@QBE_NABV01@@Z PROC ; std::_Vector_const_iterator<std::_Vector_val<std::_Simple_types<int> > >::operator==, COMDAT
; _this$ = ecx

; 203  : 		{	// test for iterator equality

  00000	55		 push	 ebp
  00001	8b ec		 mov	 ebp, esp

; 204  : 		_Compat(_Right);
; 205  : 		return (this->_Ptr == _Right._Ptr);

  00003	8b 11		 mov	 edx, DWORD PTR [ecx]
  00005	33 c0		 xor	 eax, eax
  00007	8b 4d 08	 mov	 ecx, DWORD PTR __Right$[ebp]
  0000a	3b 11		 cmp	 edx, DWORD PTR [ecx]
  0000c	0f 94 c0	 sete	 al

; 206  : 		}

  0000f	5d		 pop	 ebp
  00010	c2 04 00	 ret	 4
??8?$_Vector_const_iterator@V?$_Vector_val@U?$_Simple_types@H@std@@@std@@@std@@QBE_NABV01@@Z ENDP ; std::_Vector_const_iterator<std::_Vector_val<std::_Simple_types<int> > >::operator==
_TEXT	ENDS
; Function compile flags: /Ogtp
; File c:\program files (x86)\microsoft visual studio 12.0\vc\include\vector
;	COMDAT ??0?$_Vector_const_iterator@V?$_Vector_val@U?$_Simple_types@H@std@@@std@@@std@@QAE@PAHPBU_Container_base0@1@@Z
_TEXT	SEGMENT
__Parg$ = 8						; size = 4
__Pvector$ = 12						; size = 4
??0?$_Vector_const_iterator@V?$_Vector_val@U?$_Simple_types@H@std@@@std@@@std@@QAE@PAHPBU_Container_base0@1@@Z PROC ; std::_Vector_const_iterator<std::_Vector_val<std::_Simple_types<int> > >::_Vector_const_iterator<std::_Vector_val<std::_Simple_types<int> > >, COMDAT
; _this$ = ecx

; 47   : 		{	// construct with pointer _Parg

  00000	55		 push	 ebp
  00001	8b ec		 mov	 ebp, esp
  00003	8b 45 08	 mov	 eax, DWORD PTR __Parg$[ebp]
  00006	89 01		 mov	 DWORD PTR [ecx], eax

; 48   : 		this->_Adopt(_Pvector);
; 49   : 		}

  00008	8b c1		 mov	 eax, ecx
  0000a	5d		 pop	 ebp
  0000b	c2 08 00	 ret	 8
??0?$_Vector_const_iterator@V?$_Vector_val@U?$_Simple_types@H@std@@@std@@@std@@QAE@PAHPBU_Container_base0@1@@Z ENDP ; std::_Vector_const_iterator<std::_Vector_val<std::_Simple_types<int> > >::_Vector_const_iterator<std::_Vector_val<std::_Simple_types<int> > >
_TEXT	ENDS
; Function compile flags: /Ogtp
; File c:\program files (x86)\microsoft visual studio 12.0\vc\include\vector
;	COMDAT ??E?$_Vector_const_iterator@V?$_Vector_val@U?$_Simple_types@H@std@@@std@@@std@@QAEAAV01@XZ
_TEXT	SEGMENT
??E?$_Vector_const_iterator@V?$_Vector_val@U?$_Simple_types@H@std@@@std@@@std@@QAEAAV01@XZ PROC ; std::_Vector_const_iterator<std::_Vector_val<std::_Simple_types<int> > >::operator++, COMDAT
; _this$ = ecx

; 96   :  #if _ITERATOR_DEBUG_LEVEL == 2
; 97   : 		if (this->_Getcont() == 0
; 98   : 			|| this->_Ptr == 0
; 99   : 			|| ((_Myvec *)this->_Getcont())->_Mylast <= this->_Ptr)
; 100  : 			{	// report error
; 101  : 			_DEBUG_ERROR("vector iterator not incrementable");
; 102  : 			_SCL_SECURE_OUT_OF_RANGE;
; 103  : 			}
; 104  : 
; 105  :  #elif _ITERATOR_DEBUG_LEVEL == 1
; 106  : 		_SCL_SECURE_VALIDATE(this->_Getcont() != 0);
; 107  : 		_SCL_SECURE_VALIDATE_RANGE(
; 108  : 			this->_Ptr != _Tptr()
; 109  : 			&& this->_Ptr < ((_Myvec *)this->_Getcont())->_Mylast);
; 110  :  #endif /* _ITERATOR_DEBUG_LEVEL */
; 111  : 
; 112  : 		++this->_Ptr;

  00000	83 01 04	 add	 DWORD PTR [ecx], 4

; 113  : 		return (*this);

  00003	8b c1		 mov	 eax, ecx

; 114  : 		}

  00005	c3		 ret	 0
??E?$_Vector_const_iterator@V?$_Vector_val@U?$_Simple_types@H@std@@@std@@@std@@QAEAAV01@XZ ENDP ; std::_Vector_const_iterator<std::_Vector_val<std::_Simple_types<int> > >::operator++
_TEXT	ENDS
; Function compile flags: /Ogtp
; File c:\program files (x86)\microsoft visual studio 12.0\vc\include\vector
;	COMDAT ?_Compat@?$_Vector_const_iterator@V?$_Vector_val@U?$_Simple_types@H@std@@@std@@@std@@QBEXABV12@@Z
_TEXT	SEGMENT
___formal$ = 8						; size = 4
?_Compat@?$_Vector_const_iterator@V?$_Vector_val@U?$_Simple_types@H@std@@@std@@@std@@QBEXABV12@@Z PROC ; std::_Vector_const_iterator<std::_Vector_val<std::_Simple_types<int> > >::_Compat, COMDAT
; _this$ = ecx

; 255  : 		}

  00000	c2 04 00	 ret	 4
?_Compat@?$_Vector_const_iterator@V?$_Vector_val@U?$_Simple_types@H@std@@@std@@@std@@QBEXABV12@@Z ENDP ; std::_Vector_const_iterator<std::_Vector_val<std::_Simple_types<int> > >::_Compat
_TEXT	ENDS
END
