; Listing generated by Microsoft (R) Optimizing Compiler Version 18.00.40629.0 

	TITLE	D:\Metin2\Metin2\client_source_clean\client_source_clean\source\UserInterface\PythonEventManager.cpp
	.686P
	.XMM
	include listing.inc
	.model	flat

INCLUDELIB OLDNAMES

PUBLIC	??_C@_01GLPGHMHM@z?$AA@				; `string'
PUBLIC	??_C@_04CHADEDPO@view?$AA@			; `string'
PUBLIC	??_C@_02HNLLPFKA@up?$AA@			; `string'
PUBLIC	??_C@_08LHFODBFO@distance?$AA@			; `string'
PUBLIC	??_C@_05HCKPILGO@cross?$AA@			; `string'
PUBLIC	??_C@_05NCNFOFLM@pitch?$AA@			; `string'
PUBLIC	??_C@_03BHFFHIBL@rot?$AA@			; `string'
PUBLIC	??_C@_0EK@NAEFMGNK@CPythonEventManager?3?3SetRestrict@ ; `string'
PUBLIC	??_C@_05MFEJDJP@value?$AA@			; `string'
PUBLIC	??_C@_01JEJKBAGA@g?$AA@				; `string'
PUBLIC	??_C@_0EH@KHNDFHCA@CPythonEventManager?3?3SetEventHan@ ; `string'
PUBLIC	??_C@_09DIPEHMLE@DoneEvent?$AA@			; `string'
PUBLIC	??_C@_01OJONOECF@b?$AA@				; `string'
PUBLIC	??_C@_0M@MHNDOIJH@OnLeftImage?$AA@		; `string'
PUBLIC	??_C@_03LOJEKLML@src?$AA@			; `string'
PUBLIC	??_C@_0BC@OIPDJOGL@OnBackgroundImage?$AA@	; `string'
PUBLIC	??_C@_0L@ELIGNPMG@OnTopImage?$AA@		; `string'
PUBLIC	??_C@_07COJEPNBG@OnImage?$AA@			; `string'
PUBLIC	??_C@_05GFDPDNFA@?$CIiis?$CJ?$AA@		; `string'
PUBLIC	??_C@_05PHLGJONK@title?$AA@			; `string'
PUBLIC	??_C@_0L@NDIFBCJA@image_name?$AA@		; `string'
PUBLIC	??_C@_05FKHKFDID@index?$AA@			; `string'
PUBLIC	??_C@_04EBPADADD@desc?$AA@			; `string'
PUBLIC	??_C@_0L@HIIGNCOA@image_type?$AA@		; `string'
PUBLIC	??_C@_05KBOMEDGA@total?$AA@			; `string'
PUBLIC	??_C@_08GKIEGGBC@?$CIsissii?$CJ?$AA@		; `string'
PUBLIC	??_C@_03DAKNAIGI@idx?$AA@			; `string'
PUBLIC	??_C@_08KJCKKFJC@?$CIssssii?$CJ?$AA@		; `string'
PUBLIC	??_C@_0BB@FCLBKNGH@OnInsertItemIcon?$AA@	; `string'
PUBLIC	??_C@_0BC@HCOLHKJD@BINARY_ClearQuest?$AA@	; `string'
PUBLIC	??_C@_0O@LBIBFC@OnInsertImage?$AA@		; `string'
PUBLIC	??_C@_09IGOOKEAE@icon_name?$AA@			; `string'
PUBLIC	??_C@_09CNONGEHE@icon_type?$AA@			; `string'
PUBLIC	??_C@_0BD@MDDAOGBD@?A?$LG?$LA?$KC?$LD?$KN?5?$LP?k?H?$KF?$LM?$KO?$DP?4?4?4?4?$AA@ ; `string'
PUBLIC	??_C@_04MEMAJGDJ@name?$AA@			; `string'
PUBLIC	??_C@_06GEDDNFGH@?$CIisss?$CJ?$AA@		; `string'
PUBLIC	??_C@_09MIAHMBP@highlight?$AA@			; `string'
PUBLIC	??_C@_04JMLDJNEM@?$CIis?$CJ?$AA@		; `string'
PUBLIC	??_C@_0BB@JCGLEGP@BINARY_RecvQuest?$AA@		; `string'
PUBLIC	??_C@_09LBCONMEI@blendtime?$AA@			; `string'
PUBLIC	??_C@_09IBEAJOHJ@RecvQuest?$AA@			; `string'
PUBLIC	??_C@_03LDCBIPEL@?$CIf?$CJ?$AA@			; `string'
PUBLIC	??_C@_05HJCMGBKF@speed?$AA@			; `string'
PUBLIC	??_C@_06GCJPJKOH@FadeIn?$AA@			; `string'
PUBLIC	??_C@_07EAEHEHPO@FadeOut?$AA@			; `string'
PUBLIC	??_C@_07NGADDHAB@WhiteIn?$AA@			; `string'
PUBLIC	??_C@_08JJKJMBO@WhiteOut?$AA@			; `string'
PUBLIC	??_C@_0BA@FCPOOKJM@killstone_count?$AA@		; `string'
PUBLIC	??_C@_0N@CCHILNPP@OnTitleImage?$AA@		; `string'
PUBLIC	??_C@_0M@NAENPPOP@find_hidden?$AA@		; `string'
PUBLIC	??_C@_0O@DDDIKPAP@killmob_count?$AA@		; `string'
PUBLIC	??_C@_0L@HLMCPCKO@use_potion?$AA@		; `string'
PUBLIC	??_C@_0N@MAFIFFGH@hidden_total?$AA@		; `string'
PUBLIC	??_C@_0L@CEFFAPEL@killallmob?$AA@		; `string'
PUBLIC	??_C@_0L@HAAPAAPF@is_revived?$AA@		; `string'
PUBLIC	??_C@_09HPFMCAOO@bonus_exp?$AA@			; `string'
PUBLIC	??_C@_0L@OIFGKHMH@total_time?$AA@		; `string'
PUBLIC	??_C@_0BC@GLAGHMFL@ShowDungeonResult?$AA@	; `string'
PUBLIC	??_C@_0M@EDIBAKKL@?$CIiiiiiiiii?$CJ?$AA@	; `string'
PUBLIC	??_C@_06LNLHEAAG@height?$AA@			; `string'
PUBLIC	??_C@_05IGKADHGO@width?$AA@			; `string'
PUBLIC	??_C@_07MNOKODDC@OnInput?$AA@			; `string'
PUBLIC	??_C@_06JKFPDEMN@OnSize?$AA@			; `string'
PUBLIC	??_C@_09FOPMPDJN@CloseSelf?$AA@			; `string'
PUBLIC	??_C@_07DDHNKDGP@timeout?$AA@			; `string'
PUBLIC	??_C@_0P@FONAKFHL@MakeNextButton?$AA@		; `string'
PUBLIC	??_C@_0BM@GFGEFDCO@BINARY_OpenSelectItemWindow?$AA@ ; `string'
PUBLIC	??_C@_04LCKGAMBB@?$CIsi?$CJ?$AA@		; `string'
PUBLIC	??_C@_0N@NKMOFENJ@MakeQuestion?$AA@		; `string'
PUBLIC	??_C@_0DL@PFMMJDKG@CPythonEventManager?3?3InsertLine?5@ ; `string'
PUBLIC	??_C@_0P@EGMAHDDO@AppendQuestion?$AA@		; `string'
PUBLIC	??_C@_0CK@JOIMEHF@?5?$CB?$CB?5PARSING?5ERROR?5?9?5Strange?5Comm@ ; `string'
PUBLIC	??_C@_0DD@ENOBDFJN@CPythonEventManager?3?3InsertLine?5@ ; `string'
PUBLIC	??_C@_06MJINCFFA@LETTER?$AA@			; `string'
PUBLIC	??_C@_0BB@GNKEGEMJ@?$LD?$LC?$MA?$LK?5?$LN?C?$LA?$KD?5?3?5?$CFd?C?J?$AA@ ; `string'
PUBLIC	??_C@_05IBAECHHA@DELAY?$AA@			; `string'
PUBLIC	??_C@_05DPNLPLKI@COLOR?$AA@			; `string'
PUBLIC	??_C@_04DBNKAKHO@WAIT?$AA@			; `string'
PUBLIC	??_C@_05EMNIMLKD@ENTER?$AA@			; `string'
PUBLIC	??_C@_08MDIDLFIL@QUESTION?$AA@			; `string'
PUBLIC	??_C@_05PONODPI@CLEAR?$AA@			; `string'
PUBLIC	??_C@_04KANDKFIK@DONE?$AA@			; `string'
PUBLIC	??_C@_04MOKMKBJN@NEXT?$AA@			; `string'
PUBLIC	??_C@_08LGGHBKNM@TOPIMAGE?$AA@			; `string'
PUBLIC	??_C@_09GHNJOICA@LEFTIMAGE?$AA@			; `string'
PUBLIC	??_C@_05BNHKIGFN@IMAGE?$AA@			; `string'
PUBLIC	??_C@_07CDIOHGPA@BGIMAGE?$AA@			; `string'
PUBLIC	??_C@_0P@MCDNLKLH@CLEARMAPSIGNAL?$AA@		; `string'
PUBLIC	??_C@_0N@LEAJJLAE@ADDMAPSIGNAL?$AA@		; `string'
PUBLIC	??_C@_09DCGGFGEI@ADJMSGPOS?$AA@			; `string'
PUBLIC	??_C@_09GPHHDAMH@SETMSGPOS?$AA@			; `string'
PUBLIC	??_C@_0M@NLCKLGGC@QUESTBUTTON?$AA@		; `string'
PUBLIC	??_C@_0L@HNINCFNF@SETCMAPPOS?$AA@		; `string'
PUBLIC	??_C@_05DJAECLDN@SLEEP?$AA@			; `string'
PUBLIC	??_C@_0BC@HFDJPBHI@QUESTBUTTON_CLOSE?$AA@	; `string'
PUBLIC	??_C@_0N@LDDFAHD@BLEND_CAMERA?$AA@		; `string'
PUBLIC	??_C@_0L@JFBLMOIC@SET_CAMERA?$AA@		; `string'
PUBLIC	??_C@_08HDAMPNGA@FADE_OUT?$AA@			; `string'
PUBLIC	??_C@_0P@JLFCBANF@RESTORE_CAMERA?$AA@		; `string'
PUBLIC	??_C@_09FBLOEAGA@WHITE_OUT?$AA@			; `string'
PUBLIC	??_C@_07BBFGMBEC@FADE_IN?$AA@			; `string'
PUBLIC	??_C@_0L@LKNFDGAI@CLEAR_TEXT?$AA@		; `string'
PUBLIC	??_C@_08KBPNHIPE@WHITE_IN?$AA@			; `string'
PUBLIC	??_C@_0M@HJKMCEHO@TITLE_IMAGE?$AA@		; `string'
PUBLIC	??_C@_0BN@MHHHIBEN@TEXT_HORIZONTAL_ALIGN_CENTER?$AA@ ; `string'
PUBLIC	??_C@_0P@FFIDJBND@DUNGEON_RESULT?$AA@		; `string'
PUBLIC	??_C@_0L@PGFMEELF@RUN_CINEMA?$AA@		; `string'
PUBLIC	??_C@_03OEMEHHJ@MOB?$AA@			; `string'
PUBLIC	??_C@_04BLNHNEEM@ITEM?$AA@			; `string'
PUBLIC	??_C@_0M@PMFMMHLB@WINDOW_SIZE?$AA@		; `string'
PUBLIC	??_C@_08MALMLJOJ@COLOR256?$AA@			; `string'
PUBLIC	??_C@_0N@BAJAMEHH@CONFIRM_WAIT?$AA@		; `string'
PUBLIC	??_C@_05POAEJIHJ@INPUT?$AA@			; `string'
PUBLIC	??_C@_0N@IBBMOEIC@INSERT_IMAGE?$AA@		; `string'
PUBLIC	??_C@_0BB@EAAHJLBE@END_CONFIRM_WAIT?$AA@	; `string'
PUBLIC	??_C@_0M@NHAJMLIB@SELECT_ITEM?$AA@		; `string'
PUBLIC	??_R2?$CDynamicPool@USEventSet@CPythonEventManager@@@@8 ; CDynamicPool<CPythonEventManager::SEventSet>::`RTTI Base Class Array'
PUBLIC	??_R2CPythonEventManager@@8			; CPythonEventManager::`RTTI Base Class Array'
PUBLIC	??_R2SEventSet@CPythonEventManager@@8		; CPythonEventManager::SEventSet::`RTTI Base Class Array'
PUBLIC	??_R2?$CSingleton@VCPythonEventManager@@@@8	; CSingleton<CPythonEventManager>::`RTTI Base Class Array'
PUBLIC	??_R1A@?0A@EA@?$CDynamicPool@USEventSet@CPythonEventManager@@@@8 ; CDynamicPool<CPythonEventManager::SEventSet>::`RTTI Base Class Descriptor at (0,-1,0,64)'
PUBLIC	??_R1A@?0A@EA@CPythonEventManager@@8		; CPythonEventManager::`RTTI Base Class Descriptor at (0,-1,0,64)'
PUBLIC	??_R1A@?0A@EA@SEventSet@CPythonEventManager@@8	; CPythonEventManager::SEventSet::`RTTI Base Class Descriptor at (0,-1,0,64)'
PUBLIC	??_R1A@?0A@EA@?$CSingleton@VCPythonEventManager@@@@8 ; CSingleton<CPythonEventManager>::`RTTI Base Class Descriptor at (0,-1,0,64)'
PUBLIC	??_R0?AV?$CDynamicPool@USEventSet@CPythonEventManager@@@@@8 ; CDynamicPool<CPythonEventManager::SEventSet> `RTTI Type Descriptor'
PUBLIC	??_R3?$CDynamicPool@USEventSet@CPythonEventManager@@@@8 ; CDynamicPool<CPythonEventManager::SEventSet>::`RTTI Class Hierarchy Descriptor'
PUBLIC	??_R0?AUSEventSet@CPythonEventManager@@@8	; CPythonEventManager::SEventSet `RTTI Type Descriptor'
PUBLIC	??_R3SEventSet@CPythonEventManager@@8		; CPythonEventManager::SEventSet::`RTTI Class Hierarchy Descriptor'
PUBLIC	??_R0?AV?$CSingleton@VCPythonEventManager@@@@@8	; CSingleton<CPythonEventManager> `RTTI Type Descriptor'
PUBLIC	??_R3?$CSingleton@VCPythonEventManager@@@@8	; CSingleton<CPythonEventManager>::`RTTI Class Hierarchy Descriptor'
PUBLIC	??_R0?AVCPythonEventManager@@@8			; CPythonEventManager `RTTI Type Descriptor'
PUBLIC	??_R3CPythonEventManager@@8			; CPythonEventManager::`RTTI Class Hierarchy Descriptor'
PUBLIC	??_R4?$CDynamicPool@USEventSet@CPythonEventManager@@@@6B@ ; CDynamicPool<CPythonEventManager::SEventSet>::`RTTI Complete Object Locator'
PUBLIC	??_R4SEventSet@CPythonEventManager@@6B@		; CPythonEventManager::SEventSet::`RTTI Complete Object Locator'
PUBLIC	??_R4CPythonEventManager@@6B@			; CPythonEventManager::`RTTI Complete Object Locator'
PUBLIC	??_R4?$CSingleton@VCPythonEventManager@@@@6B@	; CSingleton<CPythonEventManager>::`RTTI Complete Object Locator'
PUBLIC	??_7?$CDynamicPool@USEventSet@CPythonEventManager@@@@6B@ ; CDynamicPool<CPythonEventManager::SEventSet>::`vftable'
PUBLIC	?ms_singleton@?$CSingleton@VCPythonEventManager@@@@0PAVCPythonEventManager@@A ; CSingleton<CPythonEventManager>::ms_singleton
PUBLIC	??_R0?AV?$CDynamicPool@VCGraphicTextInstance@@@@@8 ; CDynamicPool<CGraphicTextInstance> `RTTI Type Descriptor'
PUBLIC	??_7?$CSingleton@VCPythonEventManager@@@@6B@	; CSingleton<CPythonEventManager>::`vftable'
PUBLIC	??_R2?$CDynamicPool@VCGraphicTextInstance@@@@8	; CDynamicPool<CGraphicTextInstance>::`RTTI Base Class Array'
PUBLIC	??_R1A@?0A@EA@?$CDynamicPool@VCGraphicTextInstance@@@@8 ; CDynamicPool<CGraphicTextInstance>::`RTTI Base Class Descriptor at (0,-1,0,64)'
PUBLIC	??_R4?$CDynamicPool@VCGraphicTextInstance@@@@6B@ ; CDynamicPool<CGraphicTextInstance>::`RTTI Complete Object Locator'
PUBLIC	??_R3?$CDynamicPool@VCGraphicTextInstance@@@@8	; CDynamicPool<CGraphicTextInstance>::`RTTI Class Hierarchy Descriptor'
PUBLIC	??_7?$CDynamicPool@VCGraphicTextInstance@@@@6B@	; CDynamicPool<CGraphicTextInstance>::`vftable'
PUBLIC	??_7CPythonEventManager@@6B@			; CPythonEventManager::`vftable'
PUBLIC	??_7SEventSet@CPythonEventManager@@6B@		; CPythonEventManager::SEventSet::`vftable'
EXTRN	?GetDefaultCodePage@@YAKXZ:PROC			; GetDefaultCodePage
EXTRN	?GetTextSize@CGraphicTextInstance@@QAEXPAH0@Z:PROC ; CGraphicTextInstance::GetTextSize
EXTRN	?GetHorizontalAlign@CGraphicTextInstance@@QAEHXZ:PROC ; CGraphicTextInstance::GetHorizontalAlign
EXTRN	?SetColor@CGraphicTextInstance@@QAEXMMMM@Z:PROC	; CGraphicTextInstance::SetColor
EXTRN	?SetValueString@CGraphicTextInstance@@QAEXABV?$basic_string@DU?$char_traits@D@std@@V?$allocator@D@2@@std@@@Z:PROC ; CGraphicTextInstance::SetValueString
EXTRN	__imp__timeGetTime@0:PROC
EXTRN	?GetCmd@Group@script@@QAE_NAAUSCmd@2@@Z:PROC	; script::Group::GetCmd
EXTRN	?ReadCmd@Group@script@@QAE_NAAUSCmd@2@@Z:PROC	; script::Group::ReadCmd
EXTRN	?SetHorizonalAlign@CGraphicTextInstance@@QAEXH@Z:PROC ; CGraphicTextInstance::SetHorizonalAlign
EXTRN	?Read@CMappedFile@@QAEHPAXH@Z:PROC		; CMappedFile::Read
EXTRN	?Create@Group@script@@QAE_NABV?$basic_string@DU?$char_traits@D@std@@V?$allocator@D@2@@std@@@Z:PROC ; script::Group::Create
EXTRN	??1Group@script@@QAE@XZ:PROC			; script::Group::~Group
EXTRN	??0Group@script@@QAE@XZ:PROC			; script::Group::Group
;	COMDAT ?ms_singleton@?$CSingleton@VCPythonEventManager@@@@0PAVCPythonEventManager@@A
_BSS	SEGMENT
?ms_singleton@?$CSingleton@VCPythonEventManager@@@@0PAVCPythonEventManager@@A DD 01H DUP (?) ; CSingleton<CPythonEventManager>::ms_singleton
_BSS	ENDS
;	COMDAT ??_7SEventSet@CPythonEventManager@@6B@
CONST	SEGMENT
??_7SEventSet@CPythonEventManager@@6B@ DD FLAT:??_R4SEventSet@CPythonEventManager@@6B@ ; CPythonEventManager::SEventSet::`vftable'
	DD	FLAT:??_ESEventSet@CPythonEventManager@@UAEPAXI@Z
CONST	ENDS
;	COMDAT ??_7CPythonEventManager@@6B@
CONST	SEGMENT
??_7CPythonEventManager@@6B@ DD FLAT:??_R4CPythonEventManager@@6B@ ; CPythonEventManager::`vftable'
	DD	FLAT:??_ECPythonEventManager@@UAEPAXI@Z
CONST	ENDS
;	COMDAT ??_7?$CDynamicPool@VCGraphicTextInstance@@@@6B@
CONST	SEGMENT
??_7?$CDynamicPool@VCGraphicTextInstance@@@@6B@ DD FLAT:??_R4?$CDynamicPool@VCGraphicTextInstance@@@@6B@ ; CDynamicPool<CGraphicTextInstance>::`vftable'
	DD	FLAT:??_E?$CDynamicPool@VCGraphicTextInstance@@@@UAEPAXI@Z
CONST	ENDS
;	COMDAT ??_R3?$CDynamicPool@VCGraphicTextInstance@@@@8
rdata$r	SEGMENT
??_R3?$CDynamicPool@VCGraphicTextInstance@@@@8 DD 00H	; CDynamicPool<CGraphicTextInstance>::`RTTI Class Hierarchy Descriptor'
	DD	00H
	DD	01H
	DD	FLAT:??_R2?$CDynamicPool@VCGraphicTextInstance@@@@8
rdata$r	ENDS
;	COMDAT ??_R4?$CDynamicPool@VCGraphicTextInstance@@@@6B@
rdata$r	SEGMENT
??_R4?$CDynamicPool@VCGraphicTextInstance@@@@6B@ DD 00H	; CDynamicPool<CGraphicTextInstance>::`RTTI Complete Object Locator'
	DD	00H
	DD	00H
	DD	FLAT:??_R0?AV?$CDynamicPool@VCGraphicTextInstance@@@@@8
	DD	FLAT:??_R3?$CDynamicPool@VCGraphicTextInstance@@@@8
rdata$r	ENDS
;	COMDAT ??_R1A@?0A@EA@?$CDynamicPool@VCGraphicTextInstance@@@@8
rdata$r	SEGMENT
??_R1A@?0A@EA@?$CDynamicPool@VCGraphicTextInstance@@@@8 DD FLAT:??_R0?AV?$CDynamicPool@VCGraphicTextInstance@@@@@8 ; CDynamicPool<CGraphicTextInstance>::`RTTI Base Class Descriptor at (0,-1,0,64)'
	DD	00H
	DD	00H
	DD	0ffffffffH
	DD	00H
	DD	040H
	DD	FLAT:??_R3?$CDynamicPool@VCGraphicTextInstance@@@@8
rdata$r	ENDS
;	COMDAT ??_R2?$CDynamicPool@VCGraphicTextInstance@@@@8
rdata$r	SEGMENT
??_R2?$CDynamicPool@VCGraphicTextInstance@@@@8 DD FLAT:??_R1A@?0A@EA@?$CDynamicPool@VCGraphicTextInstance@@@@8 ; CDynamicPool<CGraphicTextInstance>::`RTTI Base Class Array'
rdata$r	ENDS
;	COMDAT ??_7?$CSingleton@VCPythonEventManager@@@@6B@
CONST	SEGMENT
??_7?$CSingleton@VCPythonEventManager@@@@6B@ DD FLAT:??_R4?$CSingleton@VCPythonEventManager@@@@6B@ ; CSingleton<CPythonEventManager>::`vftable'
	DD	FLAT:??_E?$CSingleton@VCPythonEventManager@@@@UAEPAXI@Z
CONST	ENDS
;	COMDAT ??_R0?AV?$CDynamicPool@VCGraphicTextInstance@@@@@8
data$r	SEGMENT
??_R0?AV?$CDynamicPool@VCGraphicTextInstance@@@@@8 DD FLAT:??_7type_info@@6B@ ; CDynamicPool<CGraphicTextInstance> `RTTI Type Descriptor'
	DD	00H
	DB	'.?AV?$CDynamicPool@VCGraphicTextInstance@@@@', 00H
data$r	ENDS
;	COMDAT ??_7?$CDynamicPool@USEventSet@CPythonEventManager@@@@6B@
CONST	SEGMENT
??_7?$CDynamicPool@USEventSet@CPythonEventManager@@@@6B@ DD FLAT:??_R4?$CDynamicPool@USEventSet@CPythonEventManager@@@@6B@ ; CDynamicPool<CPythonEventManager::SEventSet>::`vftable'
	DD	FLAT:??_E?$CDynamicPool@USEventSet@CPythonEventManager@@@@UAEPAXI@Z
CONST	ENDS
;	COMDAT ??_R4?$CSingleton@VCPythonEventManager@@@@6B@
rdata$r	SEGMENT
??_R4?$CSingleton@VCPythonEventManager@@@@6B@ DD 00H	; CSingleton<CPythonEventManager>::`RTTI Complete Object Locator'
	DD	00H
	DD	00H
	DD	FLAT:??_R0?AV?$CSingleton@VCPythonEventManager@@@@@8
	DD	FLAT:??_R3?$CSingleton@VCPythonEventManager@@@@8
rdata$r	ENDS
;	COMDAT ??_R4CPythonEventManager@@6B@
rdata$r	SEGMENT
??_R4CPythonEventManager@@6B@ DD 00H			; CPythonEventManager::`RTTI Complete Object Locator'
	DD	00H
	DD	00H
	DD	FLAT:??_R0?AVCPythonEventManager@@@8
	DD	FLAT:??_R3CPythonEventManager@@8
rdata$r	ENDS
;	COMDAT ??_R4SEventSet@CPythonEventManager@@6B@
rdata$r	SEGMENT
??_R4SEventSet@CPythonEventManager@@6B@ DD 00H		; CPythonEventManager::SEventSet::`RTTI Complete Object Locator'
	DD	00H
	DD	00H
	DD	FLAT:??_R0?AUSEventSet@CPythonEventManager@@@8
	DD	FLAT:??_R3SEventSet@CPythonEventManager@@8
rdata$r	ENDS
;	COMDAT ??_R4?$CDynamicPool@USEventSet@CPythonEventManager@@@@6B@
rdata$r	SEGMENT
??_R4?$CDynamicPool@USEventSet@CPythonEventManager@@@@6B@ DD 00H ; CDynamicPool<CPythonEventManager::SEventSet>::`RTTI Complete Object Locator'
	DD	00H
	DD	00H
	DD	FLAT:??_R0?AV?$CDynamicPool@USEventSet@CPythonEventManager@@@@@8
	DD	FLAT:??_R3?$CDynamicPool@USEventSet@CPythonEventManager@@@@8
rdata$r	ENDS
;	COMDAT ??_R3CPythonEventManager@@8
rdata$r	SEGMENT
??_R3CPythonEventManager@@8 DD 00H			; CPythonEventManager::`RTTI Class Hierarchy Descriptor'
	DD	00H
	DD	02H
	DD	FLAT:??_R2CPythonEventManager@@8
rdata$r	ENDS
;	COMDAT ??_R0?AVCPythonEventManager@@@8
data$r	SEGMENT
??_R0?AVCPythonEventManager@@@8 DD FLAT:??_7type_info@@6B@ ; CPythonEventManager `RTTI Type Descriptor'
	DD	00H
	DB	'.?AVCPythonEventManager@@', 00H
data$r	ENDS
;	COMDAT ??_R3?$CSingleton@VCPythonEventManager@@@@8
rdata$r	SEGMENT
??_R3?$CSingleton@VCPythonEventManager@@@@8 DD 00H	; CSingleton<CPythonEventManager>::`RTTI Class Hierarchy Descriptor'
	DD	00H
	DD	01H
	DD	FLAT:??_R2?$CSingleton@VCPythonEventManager@@@@8
rdata$r	ENDS
;	COMDAT ??_R0?AV?$CSingleton@VCPythonEventManager@@@@@8
data$r	SEGMENT
??_R0?AV?$CSingleton@VCPythonEventManager@@@@@8 DD FLAT:??_7type_info@@6B@ ; CSingleton<CPythonEventManager> `RTTI Type Descriptor'
	DD	00H
	DB	'.?AV?$CSingleton@VCPythonEventManager@@@@', 00H
data$r	ENDS
;	COMDAT ??_R3SEventSet@CPythonEventManager@@8
rdata$r	SEGMENT
??_R3SEventSet@CPythonEventManager@@8 DD 00H		; CPythonEventManager::SEventSet::`RTTI Class Hierarchy Descriptor'
	DD	00H
	DD	01H
	DD	FLAT:??_R2SEventSet@CPythonEventManager@@8
rdata$r	ENDS
;	COMDAT ??_R0?AUSEventSet@CPythonEventManager@@@8
data$r	SEGMENT
??_R0?AUSEventSet@CPythonEventManager@@@8 DD FLAT:??_7type_info@@6B@ ; CPythonEventManager::SEventSet `RTTI Type Descriptor'
	DD	00H
	DB	'.?AUSEventSet@CPythonEventManager@@', 00H
data$r	ENDS
;	COMDAT ??_R3?$CDynamicPool@USEventSet@CPythonEventManager@@@@8
rdata$r	SEGMENT
??_R3?$CDynamicPool@USEventSet@CPythonEventManager@@@@8 DD 00H ; CDynamicPool<CPythonEventManager::SEventSet>::`RTTI Class Hierarchy Descriptor'
	DD	00H
	DD	01H
	DD	FLAT:??_R2?$CDynamicPool@USEventSet@CPythonEventManager@@@@8
rdata$r	ENDS
;	COMDAT ??_R0?AV?$CDynamicPool@USEventSet@CPythonEventManager@@@@@8
data$r	SEGMENT
??_R0?AV?$CDynamicPool@USEventSet@CPythonEventManager@@@@@8 DD FLAT:??_7type_info@@6B@ ; CDynamicPool<CPythonEventManager::SEventSet> `RTTI Type Descriptor'
	DD	00H
	DB	'.?AV?$CDynamicPool@USEventSet@CPythonEventManager@@@@', 00H
data$r	ENDS
;	COMDAT ??_R1A@?0A@EA@?$CSingleton@VCPythonEventManager@@@@8
rdata$r	SEGMENT
??_R1A@?0A@EA@?$CSingleton@VCPythonEventManager@@@@8 DD FLAT:??_R0?AV?$CSingleton@VCPythonEventManager@@@@@8 ; CSingleton<CPythonEventManager>::`RTTI Base Class Descriptor at (0,-1,0,64)'
	DD	00H
	DD	00H
	DD	0ffffffffH
	DD	00H
	DD	040H
	DD	FLAT:??_R3?$CSingleton@VCPythonEventManager@@@@8
rdata$r	ENDS
;	COMDAT ??_R1A@?0A@EA@SEventSet@CPythonEventManager@@8
rdata$r	SEGMENT
??_R1A@?0A@EA@SEventSet@CPythonEventManager@@8 DD FLAT:??_R0?AUSEventSet@CPythonEventManager@@@8 ; CPythonEventManager::SEventSet::`RTTI Base Class Descriptor at (0,-1,0,64)'
	DD	00H
	DD	00H
	DD	0ffffffffH
	DD	00H
	DD	040H
	DD	FLAT:??_R3SEventSet@CPythonEventManager@@8
rdata$r	ENDS
;	COMDAT ??_R1A@?0A@EA@CPythonEventManager@@8
rdata$r	SEGMENT
??_R1A@?0A@EA@CPythonEventManager@@8 DD FLAT:??_R0?AVCPythonEventManager@@@8 ; CPythonEventManager::`RTTI Base Class Descriptor at (0,-1,0,64)'
	DD	01H
	DD	00H
	DD	0ffffffffH
	DD	00H
	DD	040H
	DD	FLAT:??_R3CPythonEventManager@@8
rdata$r	ENDS
;	COMDAT ??_R1A@?0A@EA@?$CDynamicPool@USEventSet@CPythonEventManager@@@@8
rdata$r	SEGMENT
??_R1A@?0A@EA@?$CDynamicPool@USEventSet@CPythonEventManager@@@@8 DD FLAT:??_R0?AV?$CDynamicPool@USEventSet@CPythonEventManager@@@@@8 ; CDynamicPool<CPythonEventManager::SEventSet>::`RTTI Base Class Descriptor at (0,-1,0,64)'
	DD	00H
	DD	00H
	DD	0ffffffffH
	DD	00H
	DD	040H
	DD	FLAT:??_R3?$CDynamicPool@USEventSet@CPythonEventManager@@@@8
rdata$r	ENDS
;	COMDAT ??_R2?$CSingleton@VCPythonEventManager@@@@8
rdata$r	SEGMENT
??_R2?$CSingleton@VCPythonEventManager@@@@8 DD FLAT:??_R1A@?0A@EA@?$CSingleton@VCPythonEventManager@@@@8 ; CSingleton<CPythonEventManager>::`RTTI Base Class Array'
rdata$r	ENDS
;	COMDAT ??_R2SEventSet@CPythonEventManager@@8
rdata$r	SEGMENT
??_R2SEventSet@CPythonEventManager@@8 DD FLAT:??_R1A@?0A@EA@SEventSet@CPythonEventManager@@8 ; CPythonEventManager::SEventSet::`RTTI Base Class Array'
rdata$r	ENDS
;	COMDAT ??_R2CPythonEventManager@@8
rdata$r	SEGMENT
??_R2CPythonEventManager@@8 DD FLAT:??_R1A@?0A@EA@CPythonEventManager@@8 ; CPythonEventManager::`RTTI Base Class Array'
	DD	FLAT:??_R1A@?0A@EA@?$CSingleton@VCPythonEventManager@@@@8
rdata$r	ENDS
;	COMDAT ??_R2?$CDynamicPool@USEventSet@CPythonEventManager@@@@8
rdata$r	SEGMENT
??_R2?$CDynamicPool@USEventSet@CPythonEventManager@@@@8 DD FLAT:??_R1A@?0A@EA@?$CDynamicPool@USEventSet@CPythonEventManager@@@@8 ; CDynamicPool<CPythonEventManager::SEventSet>::`RTTI Base Class Array'
rdata$r	ENDS
;	COMDAT ??_C@_0M@NHAJMLIB@SELECT_ITEM?$AA@
CONST	SEGMENT
??_C@_0M@NHAJMLIB@SELECT_ITEM?$AA@ DB 'SELECT_ITEM', 00H ; `string'
CONST	ENDS
;	COMDAT ??_C@_0BB@EAAHJLBE@END_CONFIRM_WAIT?$AA@
CONST	SEGMENT
??_C@_0BB@EAAHJLBE@END_CONFIRM_WAIT?$AA@ DB 'END_CONFIRM_WAIT', 00H ; `string'
CONST	ENDS
;	COMDAT ??_C@_0N@IBBMOEIC@INSERT_IMAGE?$AA@
CONST	SEGMENT
??_C@_0N@IBBMOEIC@INSERT_IMAGE?$AA@ DB 'INSERT_IMAGE', 00H ; `string'
CONST	ENDS
;	COMDAT ??_C@_05POAEJIHJ@INPUT?$AA@
CONST	SEGMENT
??_C@_05POAEJIHJ@INPUT?$AA@ DB 'INPUT', 00H		; `string'
CONST	ENDS
;	COMDAT ??_C@_0N@BAJAMEHH@CONFIRM_WAIT?$AA@
CONST	SEGMENT
??_C@_0N@BAJAMEHH@CONFIRM_WAIT?$AA@ DB 'CONFIRM_WAIT', 00H ; `string'
CONST	ENDS
;	COMDAT ??_C@_08MALMLJOJ@COLOR256?$AA@
CONST	SEGMENT
??_C@_08MALMLJOJ@COLOR256?$AA@ DB 'COLOR256', 00H	; `string'
CONST	ENDS
;	COMDAT ??_C@_0M@PMFMMHLB@WINDOW_SIZE?$AA@
CONST	SEGMENT
??_C@_0M@PMFMMHLB@WINDOW_SIZE?$AA@ DB 'WINDOW_SIZE', 00H ; `string'
CONST	ENDS
;	COMDAT ??_C@_04BLNHNEEM@ITEM?$AA@
CONST	SEGMENT
??_C@_04BLNHNEEM@ITEM?$AA@ DB 'ITEM', 00H		; `string'
CONST	ENDS
;	COMDAT ??_C@_03OEMEHHJ@MOB?$AA@
CONST	SEGMENT
??_C@_03OEMEHHJ@MOB?$AA@ DB 'MOB', 00H			; `string'
CONST	ENDS
;	COMDAT ??_C@_0L@PGFMEELF@RUN_CINEMA?$AA@
CONST	SEGMENT
??_C@_0L@PGFMEELF@RUN_CINEMA?$AA@ DB 'RUN_CINEMA', 00H	; `string'
CONST	ENDS
;	COMDAT ??_C@_0P@FFIDJBND@DUNGEON_RESULT?$AA@
CONST	SEGMENT
??_C@_0P@FFIDJBND@DUNGEON_RESULT?$AA@ DB 'DUNGEON_RESULT', 00H ; `string'
CONST	ENDS
;	COMDAT ??_C@_0BN@MHHHIBEN@TEXT_HORIZONTAL_ALIGN_CENTER?$AA@
CONST	SEGMENT
??_C@_0BN@MHHHIBEN@TEXT_HORIZONTAL_ALIGN_CENTER?$AA@ DB 'TEXT_HORIZONTAL_'
	DB	'ALIGN_CENTER', 00H				; `string'
CONST	ENDS
;	COMDAT ??_C@_0M@HJKMCEHO@TITLE_IMAGE?$AA@
CONST	SEGMENT
??_C@_0M@HJKMCEHO@TITLE_IMAGE?$AA@ DB 'TITLE_IMAGE', 00H ; `string'
CONST	ENDS
;	COMDAT ??_C@_08KBPNHIPE@WHITE_IN?$AA@
CONST	SEGMENT
??_C@_08KBPNHIPE@WHITE_IN?$AA@ DB 'WHITE_IN', 00H	; `string'
CONST	ENDS
;	COMDAT ??_C@_0L@LKNFDGAI@CLEAR_TEXT?$AA@
CONST	SEGMENT
??_C@_0L@LKNFDGAI@CLEAR_TEXT?$AA@ DB 'CLEAR_TEXT', 00H	; `string'
CONST	ENDS
;	COMDAT ??_C@_07BBFGMBEC@FADE_IN?$AA@
CONST	SEGMENT
??_C@_07BBFGMBEC@FADE_IN?$AA@ DB 'FADE_IN', 00H		; `string'
CONST	ENDS
;	COMDAT ??_C@_09FBLOEAGA@WHITE_OUT?$AA@
CONST	SEGMENT
??_C@_09FBLOEAGA@WHITE_OUT?$AA@ DB 'WHITE_OUT', 00H	; `string'
CONST	ENDS
;	COMDAT ??_C@_0P@JLFCBANF@RESTORE_CAMERA?$AA@
CONST	SEGMENT
??_C@_0P@JLFCBANF@RESTORE_CAMERA?$AA@ DB 'RESTORE_CAMERA', 00H ; `string'
CONST	ENDS
;	COMDAT ??_C@_08HDAMPNGA@FADE_OUT?$AA@
CONST	SEGMENT
??_C@_08HDAMPNGA@FADE_OUT?$AA@ DB 'FADE_OUT', 00H	; `string'
CONST	ENDS
;	COMDAT ??_C@_0L@JFBLMOIC@SET_CAMERA?$AA@
CONST	SEGMENT
??_C@_0L@JFBLMOIC@SET_CAMERA?$AA@ DB 'SET_CAMERA', 00H	; `string'
CONST	ENDS
;	COMDAT ??_C@_0N@LDDFAHD@BLEND_CAMERA?$AA@
CONST	SEGMENT
??_C@_0N@LDDFAHD@BLEND_CAMERA?$AA@ DB 'BLEND_CAMERA', 00H ; `string'
CONST	ENDS
;	COMDAT ??_C@_0BC@HFDJPBHI@QUESTBUTTON_CLOSE?$AA@
CONST	SEGMENT
??_C@_0BC@HFDJPBHI@QUESTBUTTON_CLOSE?$AA@ DB 'QUESTBUTTON_CLOSE', 00H ; `string'
CONST	ENDS
;	COMDAT ??_C@_05DJAECLDN@SLEEP?$AA@
CONST	SEGMENT
??_C@_05DJAECLDN@SLEEP?$AA@ DB 'SLEEP', 00H		; `string'
CONST	ENDS
;	COMDAT ??_C@_0L@HNINCFNF@SETCMAPPOS?$AA@
CONST	SEGMENT
??_C@_0L@HNINCFNF@SETCMAPPOS?$AA@ DB 'SETCMAPPOS', 00H	; `string'
CONST	ENDS
;	COMDAT ??_C@_0M@NLCKLGGC@QUESTBUTTON?$AA@
CONST	SEGMENT
??_C@_0M@NLCKLGGC@QUESTBUTTON?$AA@ DB 'QUESTBUTTON', 00H ; `string'
CONST	ENDS
;	COMDAT ??_C@_09GPHHDAMH@SETMSGPOS?$AA@
CONST	SEGMENT
??_C@_09GPHHDAMH@SETMSGPOS?$AA@ DB 'SETMSGPOS', 00H	; `string'
CONST	ENDS
;	COMDAT ??_C@_09DCGGFGEI@ADJMSGPOS?$AA@
CONST	SEGMENT
??_C@_09DCGGFGEI@ADJMSGPOS?$AA@ DB 'ADJMSGPOS', 00H	; `string'
CONST	ENDS
;	COMDAT ??_C@_0N@LEAJJLAE@ADDMAPSIGNAL?$AA@
CONST	SEGMENT
??_C@_0N@LEAJJLAE@ADDMAPSIGNAL?$AA@ DB 'ADDMAPSIGNAL', 00H ; `string'
CONST	ENDS
;	COMDAT ??_C@_0P@MCDNLKLH@CLEARMAPSIGNAL?$AA@
CONST	SEGMENT
??_C@_0P@MCDNLKLH@CLEARMAPSIGNAL?$AA@ DB 'CLEARMAPSIGNAL', 00H ; `string'
CONST	ENDS
;	COMDAT ??_C@_07CDIOHGPA@BGIMAGE?$AA@
CONST	SEGMENT
??_C@_07CDIOHGPA@BGIMAGE?$AA@ DB 'BGIMAGE', 00H		; `string'
CONST	ENDS
;	COMDAT ??_C@_05BNHKIGFN@IMAGE?$AA@
CONST	SEGMENT
??_C@_05BNHKIGFN@IMAGE?$AA@ DB 'IMAGE', 00H		; `string'
CONST	ENDS
;	COMDAT ??_C@_09GHNJOICA@LEFTIMAGE?$AA@
CONST	SEGMENT
??_C@_09GHNJOICA@LEFTIMAGE?$AA@ DB 'LEFTIMAGE', 00H	; `string'
CONST	ENDS
;	COMDAT ??_C@_08LGGHBKNM@TOPIMAGE?$AA@
CONST	SEGMENT
??_C@_08LGGHBKNM@TOPIMAGE?$AA@ DB 'TOPIMAGE', 00H	; `string'
CONST	ENDS
;	COMDAT ??_C@_04MOKMKBJN@NEXT?$AA@
CONST	SEGMENT
??_C@_04MOKMKBJN@NEXT?$AA@ DB 'NEXT', 00H		; `string'
CONST	ENDS
;	COMDAT ??_C@_04KANDKFIK@DONE?$AA@
CONST	SEGMENT
??_C@_04KANDKFIK@DONE?$AA@ DB 'DONE', 00H		; `string'
CONST	ENDS
;	COMDAT ??_C@_05PONODPI@CLEAR?$AA@
CONST	SEGMENT
??_C@_05PONODPI@CLEAR?$AA@ DB 'CLEAR', 00H		; `string'
CONST	ENDS
;	COMDAT ??_C@_08MDIDLFIL@QUESTION?$AA@
CONST	SEGMENT
??_C@_08MDIDLFIL@QUESTION?$AA@ DB 'QUESTION', 00H	; `string'
CONST	ENDS
;	COMDAT ??_C@_05EMNIMLKD@ENTER?$AA@
CONST	SEGMENT
??_C@_05EMNIMLKD@ENTER?$AA@ DB 'ENTER', 00H		; `string'
CONST	ENDS
;	COMDAT ??_C@_04DBNKAKHO@WAIT?$AA@
CONST	SEGMENT
??_C@_04DBNKAKHO@WAIT?$AA@ DB 'WAIT', 00H		; `string'
CONST	ENDS
;	COMDAT ??_C@_05DPNLPLKI@COLOR?$AA@
CONST	SEGMENT
??_C@_05DPNLPLKI@COLOR?$AA@ DB 'COLOR', 00H		; `string'
CONST	ENDS
;	COMDAT ??_C@_05IBAECHHA@DELAY?$AA@
CONST	SEGMENT
??_C@_05IBAECHHA@DELAY?$AA@ DB 'DELAY', 00H		; `string'
CONST	ENDS
;	COMDAT ??_C@_0BB@GNKEGEMJ@?$LD?$LC?$MA?$LK?5?$LN?C?$LA?$KD?5?3?5?$CFd?C?J?$AA@
CONST	SEGMENT
??_C@_0BB@GNKEGEMJ@?$LD?$LC?$MA?$LK?5?$LN?C?$LA?$KD?5?3?5?$CFd?C?J?$AA@ DB 0b3H
	DB	0b2H, 0c0H, 0baH, ' ', 0bdH, 0c3H, 0b0H, 0a3H, ' : %d', 0c3H, 0caH
	DB	00H						; `string'
CONST	ENDS
;	COMDAT ??_C@_06MJINCFFA@LETTER?$AA@
CONST	SEGMENT
??_C@_06MJINCFFA@LETTER?$AA@ DB 'LETTER', 00H		; `string'
CONST	ENDS
;	COMDAT ??_C@_0DD@ENOBDFJN@CPythonEventManager?3?3InsertLine?5@
CONST	SEGMENT
??_C@_0DD@ENOBDFJN@CPythonEventManager?3?3InsertLine?5@ DB 'CPythonEventM'
	DB	'anager::InsertLine - OUT_OF_TEXT_LINE', 00H	; `string'
CONST	ENDS
;	COMDAT ??_C@_0CK@JOIMEHF@?5?$CB?$CB?5PARSING?5ERROR?5?9?5Strange?5Comm@
CONST	SEGMENT
??_C@_0CK@JOIMEHF@?5?$CB?$CB?5PARSING?5ERROR?5?9?5Strange?5Comm@ DB ' !! '
	DB	'PARSING ERROR - Strange Command : %s', 0aH, 00H ; `string'
CONST	ENDS
;	COMDAT ??_C@_0P@EGMAHDDO@AppendQuestion?$AA@
CONST	SEGMENT
??_C@_0P@EGMAHDDO@AppendQuestion?$AA@ DB 'AppendQuestion', 00H ; `string'
CONST	ENDS
;	COMDAT ??_C@_0DL@PFMMJDKG@CPythonEventManager?3?3InsertLine?5@
CONST	SEGMENT
??_C@_0DL@PFMMJDKG@CPythonEventManager?3?3InsertLine?5@ DB 'CPythonEventM'
	DB	'anager::InsertLine - CANNOT_FIND_DEFAULT_FONT', 00H ; `string'
CONST	ENDS
;	COMDAT ??_C@_0N@NKMOFENJ@MakeQuestion?$AA@
CONST	SEGMENT
??_C@_0N@NKMOFENJ@MakeQuestion?$AA@ DB 'MakeQuestion', 00H ; `string'
CONST	ENDS
;	COMDAT ??_C@_04LCKGAMBB@?$CIsi?$CJ?$AA@
CONST	SEGMENT
??_C@_04LCKGAMBB@?$CIsi?$CJ?$AA@ DB '(si)', 00H		; `string'
CONST	ENDS
;	COMDAT ??_C@_0BM@GFGEFDCO@BINARY_OpenSelectItemWindow?$AA@
CONST	SEGMENT
??_C@_0BM@GFGEFDCO@BINARY_OpenSelectItemWindow?$AA@ DB 'BINARY_OpenSelect'
	DB	'ItemWindow', 00H				; `string'
CONST	ENDS
;	COMDAT ??_C@_0P@FONAKFHL@MakeNextButton?$AA@
CONST	SEGMENT
??_C@_0P@FONAKFHL@MakeNextButton?$AA@ DB 'MakeNextButton', 00H ; `string'
CONST	ENDS
;	COMDAT ??_C@_07DDHNKDGP@timeout?$AA@
CONST	SEGMENT
??_C@_07DDHNKDGP@timeout?$AA@ DB 'timeout', 00H		; `string'
CONST	ENDS
;	COMDAT ??_C@_09FOPMPDJN@CloseSelf?$AA@
CONST	SEGMENT
??_C@_09FOPMPDJN@CloseSelf?$AA@ DB 'CloseSelf', 00H	; `string'
CONST	ENDS
;	COMDAT ??_C@_06JKFPDEMN@OnSize?$AA@
CONST	SEGMENT
??_C@_06JKFPDEMN@OnSize?$AA@ DB 'OnSize', 00H		; `string'
CONST	ENDS
;	COMDAT ??_C@_07MNOKODDC@OnInput?$AA@
CONST	SEGMENT
??_C@_07MNOKODDC@OnInput?$AA@ DB 'OnInput', 00H		; `string'
CONST	ENDS
;	COMDAT ??_C@_05IGKADHGO@width?$AA@
CONST	SEGMENT
??_C@_05IGKADHGO@width?$AA@ DB 'width', 00H		; `string'
CONST	ENDS
;	COMDAT ??_C@_06LNLHEAAG@height?$AA@
CONST	SEGMENT
??_C@_06LNLHEAAG@height?$AA@ DB 'height', 00H		; `string'
CONST	ENDS
;	COMDAT ??_C@_0M@EDIBAKKL@?$CIiiiiiiiii?$CJ?$AA@
CONST	SEGMENT
??_C@_0M@EDIBAKKL@?$CIiiiiiiiii?$CJ?$AA@ DB '(iiiiiiiii)', 00H ; `string'
CONST	ENDS
;	COMDAT ??_C@_0BC@GLAGHMFL@ShowDungeonResult?$AA@
CONST	SEGMENT
??_C@_0BC@GLAGHMFL@ShowDungeonResult?$AA@ DB 'ShowDungeonResult', 00H ; `string'
CONST	ENDS
;	COMDAT ??_C@_0L@OIFGKHMH@total_time?$AA@
CONST	SEGMENT
??_C@_0L@OIFGKHMH@total_time?$AA@ DB 'total_time', 00H	; `string'
CONST	ENDS
;	COMDAT ??_C@_09HPFMCAOO@bonus_exp?$AA@
CONST	SEGMENT
??_C@_09HPFMCAOO@bonus_exp?$AA@ DB 'bonus_exp', 00H	; `string'
CONST	ENDS
;	COMDAT ??_C@_0L@HAAPAAPF@is_revived?$AA@
CONST	SEGMENT
??_C@_0L@HAAPAAPF@is_revived?$AA@ DB 'is_revived', 00H	; `string'
CONST	ENDS
;	COMDAT ??_C@_0L@CEFFAPEL@killallmob?$AA@
CONST	SEGMENT
??_C@_0L@CEFFAPEL@killallmob?$AA@ DB 'killallmob', 00H	; `string'
CONST	ENDS
;	COMDAT ??_C@_0N@MAFIFFGH@hidden_total?$AA@
CONST	SEGMENT
??_C@_0N@MAFIFFGH@hidden_total?$AA@ DB 'hidden_total', 00H ; `string'
CONST	ENDS
;	COMDAT ??_C@_0L@HLMCPCKO@use_potion?$AA@
CONST	SEGMENT
??_C@_0L@HLMCPCKO@use_potion?$AA@ DB 'use_potion', 00H	; `string'
CONST	ENDS
;	COMDAT ??_C@_0O@DDDIKPAP@killmob_count?$AA@
CONST	SEGMENT
??_C@_0O@DDDIKPAP@killmob_count?$AA@ DB 'killmob_count', 00H ; `string'
CONST	ENDS
;	COMDAT ??_C@_0M@NAENPPOP@find_hidden?$AA@
CONST	SEGMENT
??_C@_0M@NAENPPOP@find_hidden?$AA@ DB 'find_hidden', 00H ; `string'
CONST	ENDS
;	COMDAT ??_C@_0N@CCHILNPP@OnTitleImage?$AA@
CONST	SEGMENT
??_C@_0N@CCHILNPP@OnTitleImage?$AA@ DB 'OnTitleImage', 00H ; `string'
CONST	ENDS
;	COMDAT ??_C@_0BA@FCPOOKJM@killstone_count?$AA@
CONST	SEGMENT
??_C@_0BA@FCPOOKJM@killstone_count?$AA@ DB 'killstone_count', 00H ; `string'
CONST	ENDS
;	COMDAT ??_C@_08JJKJMBO@WhiteOut?$AA@
CONST	SEGMENT
??_C@_08JJKJMBO@WhiteOut?$AA@ DB 'WhiteOut', 00H	; `string'
CONST	ENDS
;	COMDAT ??_C@_07NGADDHAB@WhiteIn?$AA@
CONST	SEGMENT
??_C@_07NGADDHAB@WhiteIn?$AA@ DB 'WhiteIn', 00H		; `string'
CONST	ENDS
;	COMDAT ??_C@_07EAEHEHPO@FadeOut?$AA@
CONST	SEGMENT
??_C@_07EAEHEHPO@FadeOut?$AA@ DB 'FadeOut', 00H		; `string'
CONST	ENDS
;	COMDAT ??_C@_06GCJPJKOH@FadeIn?$AA@
CONST	SEGMENT
??_C@_06GCJPJKOH@FadeIn?$AA@ DB 'FadeIn', 00H		; `string'
CONST	ENDS
;	COMDAT ??_C@_05HJCMGBKF@speed?$AA@
CONST	SEGMENT
??_C@_05HJCMGBKF@speed?$AA@ DB 'speed', 00H		; `string'
CONST	ENDS
;	COMDAT ??_C@_03LDCBIPEL@?$CIf?$CJ?$AA@
CONST	SEGMENT
??_C@_03LDCBIPEL@?$CIf?$CJ?$AA@ DB '(f)', 00H		; `string'
CONST	ENDS
;	COMDAT ??_C@_09IBEAJOHJ@RecvQuest?$AA@
CONST	SEGMENT
??_C@_09IBEAJOHJ@RecvQuest?$AA@ DB 'RecvQuest', 00H	; `string'
CONST	ENDS
;	COMDAT ??_C@_09LBCONMEI@blendtime?$AA@
CONST	SEGMENT
??_C@_09LBCONMEI@blendtime?$AA@ DB 'blendtime', 00H	; `string'
CONST	ENDS
;	COMDAT ??_C@_0BB@JCGLEGP@BINARY_RecvQuest?$AA@
CONST	SEGMENT
??_C@_0BB@JCGLEGP@BINARY_RecvQuest?$AA@ DB 'BINARY_RecvQuest', 00H ; `string'
CONST	ENDS
;	COMDAT ??_C@_04JMLDJNEM@?$CIis?$CJ?$AA@
CONST	SEGMENT
??_C@_04JMLDJNEM@?$CIis?$CJ?$AA@ DB '(is)', 00H		; `string'
CONST	ENDS
;	COMDAT ??_C@_09MIAHMBP@highlight?$AA@
CONST	SEGMENT
??_C@_09MIAHMBP@highlight?$AA@ DB 'highlight', 00H	; `string'
CONST	ENDS
;	COMDAT ??_C@_06GEDDNFGH@?$CIisss?$CJ?$AA@
CONST	SEGMENT
??_C@_06GEDDNFGH@?$CIisss?$CJ?$AA@ DB '(isss)', 00H	; `string'
CONST	ENDS
;	COMDAT ??_C@_04MEMAJGDJ@name?$AA@
CONST	SEGMENT
??_C@_04MEMAJGDJ@name?$AA@ DB 'name', 00H		; `string'
CONST	ENDS
;	COMDAT ??_C@_0BD@MDDAOGBD@?A?$LG?$LA?$KC?$LD?$KN?5?$LP?k?H?$KF?$LM?$KO?$DP?4?4?4?4?$AA@
CONST	SEGMENT
??_C@_0BD@MDDAOGBD@?A?$LG?$LA?$KC?$LD?$KN?5?$LP?k?H?$KF?$LM?$KO?$DP?4?4?4?4?$AA@ DB 0c1H
	DB	0b6H, 0b0H, 0a2H, 0b3H, 0adH, ' ', 0bfH, 0ebH, 0c8H, 0a5H, 0bcH
	DB	0aeH, '?....', 00H				; `string'
CONST	ENDS
;	COMDAT ??_C@_09CNONGEHE@icon_type?$AA@
CONST	SEGMENT
??_C@_09CNONGEHE@icon_type?$AA@ DB 'icon_type', 00H	; `string'
CONST	ENDS
;	COMDAT ??_C@_09IGOOKEAE@icon_name?$AA@
CONST	SEGMENT
??_C@_09IGOOKEAE@icon_name?$AA@ DB 'icon_name', 00H	; `string'
CONST	ENDS
;	COMDAT ??_C@_0O@LBIBFC@OnInsertImage?$AA@
CONST	SEGMENT
??_C@_0O@LBIBFC@OnInsertImage?$AA@ DB 'OnInsertImage', 00H ; `string'
CONST	ENDS
;	COMDAT ??_C@_0BC@HCOLHKJD@BINARY_ClearQuest?$AA@
CONST	SEGMENT
??_C@_0BC@HCOLHKJD@BINARY_ClearQuest?$AA@ DB 'BINARY_ClearQuest', 00H ; `string'
CONST	ENDS
;	COMDAT ??_C@_0BB@FCLBKNGH@OnInsertItemIcon?$AA@
CONST	SEGMENT
??_C@_0BB@FCLBKNGH@OnInsertItemIcon?$AA@ DB 'OnInsertItemIcon', 00H ; `string'
CONST	ENDS
;	COMDAT ??_C@_08KJCKKFJC@?$CIssssii?$CJ?$AA@
CONST	SEGMENT
??_C@_08KJCKKFJC@?$CIssssii?$CJ?$AA@ DB '(ssssii)', 00H	; `string'
CONST	ENDS
;	COMDAT ??_C@_03DAKNAIGI@idx?$AA@
CONST	SEGMENT
??_C@_03DAKNAIGI@idx?$AA@ DB 'idx', 00H			; `string'
CONST	ENDS
;	COMDAT ??_C@_08GKIEGGBC@?$CIsissii?$CJ?$AA@
CONST	SEGMENT
??_C@_08GKIEGGBC@?$CIsissii?$CJ?$AA@ DB '(sissii)', 00H	; `string'
CONST	ENDS
;	COMDAT ??_C@_05KBOMEDGA@total?$AA@
CONST	SEGMENT
??_C@_05KBOMEDGA@total?$AA@ DB 'total', 00H		; `string'
CONST	ENDS
;	COMDAT ??_C@_0L@HIIGNCOA@image_type?$AA@
CONST	SEGMENT
??_C@_0L@HIIGNCOA@image_type?$AA@ DB 'image_type', 00H	; `string'
CONST	ENDS
;	COMDAT ??_C@_04EBPADADD@desc?$AA@
CONST	SEGMENT
??_C@_04EBPADADD@desc?$AA@ DB 'desc', 00H		; `string'
CONST	ENDS
;	COMDAT ??_C@_05FKHKFDID@index?$AA@
CONST	SEGMENT
??_C@_05FKHKFDID@index?$AA@ DB 'index', 00H		; `string'
CONST	ENDS
;	COMDAT ??_C@_0L@NDIFBCJA@image_name?$AA@
CONST	SEGMENT
??_C@_0L@NDIFBCJA@image_name?$AA@ DB 'image_name', 00H	; `string'
CONST	ENDS
;	COMDAT ??_C@_05PHLGJONK@title?$AA@
CONST	SEGMENT
??_C@_05PHLGJONK@title?$AA@ DB 'title', 00H		; `string'
CONST	ENDS
;	COMDAT ??_C@_05GFDPDNFA@?$CIiis?$CJ?$AA@
CONST	SEGMENT
??_C@_05GFDPDNFA@?$CIiis?$CJ?$AA@ DB '(iis)', 00H	; `string'
CONST	ENDS
;	COMDAT ??_C@_07COJEPNBG@OnImage?$AA@
CONST	SEGMENT
??_C@_07COJEPNBG@OnImage?$AA@ DB 'OnImage', 00H		; `string'
CONST	ENDS
;	COMDAT ??_C@_0L@ELIGNPMG@OnTopImage?$AA@
CONST	SEGMENT
??_C@_0L@ELIGNPMG@OnTopImage?$AA@ DB 'OnTopImage', 00H	; `string'
CONST	ENDS
;	COMDAT ??_C@_0BC@OIPDJOGL@OnBackgroundImage?$AA@
CONST	SEGMENT
??_C@_0BC@OIPDJOGL@OnBackgroundImage?$AA@ DB 'OnBackgroundImage', 00H ; `string'
CONST	ENDS
;	COMDAT ??_C@_03LOJEKLML@src?$AA@
CONST	SEGMENT
??_C@_03LOJEKLML@src?$AA@ DB 'src', 00H			; `string'
CONST	ENDS
;	COMDAT ??_C@_0M@MHNDOIJH@OnLeftImage?$AA@
CONST	SEGMENT
??_C@_0M@MHNDOIJH@OnLeftImage?$AA@ DB 'OnLeftImage', 00H ; `string'
CONST	ENDS
;	COMDAT ??_C@_01OJONOECF@b?$AA@
CONST	SEGMENT
??_C@_01OJONOECF@b?$AA@ DB 'b', 00H			; `string'
CONST	ENDS
;	COMDAT ??_C@_09DIPEHMLE@DoneEvent?$AA@
CONST	SEGMENT
??_C@_09DIPEHMLE@DoneEvent?$AA@ DB 'DoneEvent', 00H	; `string'
CONST	ENDS
;	COMDAT ??_C@_0EH@KHNDFHCA@CPythonEventManager?3?3SetEventHan@
CONST	SEGMENT
??_C@_0EH@KHNDFHCA@CPythonEventManager?3?3SetEventHan@ DB 'CPythonEventMa'
	DB	'nager::SetEventHandler m_EventSetVector[iIndex=%d]==NULL', 00H ; `string'
CONST	ENDS
;	COMDAT ??_C@_01JEJKBAGA@g?$AA@
CONST	SEGMENT
??_C@_01JEJKBAGA@g?$AA@ DB 'g', 00H			; `string'
CONST	ENDS
;	COMDAT ??_C@_05MFEJDJP@value?$AA@
CONST	SEGMENT
??_C@_05MFEJDJP@value?$AA@ DB 'value', 00H		; `string'
CONST	ENDS
;	COMDAT ??_C@_0EK@NAEFMGNK@CPythonEventManager?3?3SetRestrict@
CONST	SEGMENT
??_C@_0EK@NAEFMGNK@CPythonEventManager?3?3SetRestrict@ DB 'CPythonEventMa'
	DB	'nager::SetRestrictedCount m_EventSetVector[iIndex=%d]==NULL', 00H ; `string'
CONST	ENDS
;	COMDAT ??_C@_03BHFFHIBL@rot?$AA@
CONST	SEGMENT
??_C@_03BHFFHIBL@rot?$AA@ DB 'rot', 00H			; `string'
CONST	ENDS
;	COMDAT ??_C@_05NCNFOFLM@pitch?$AA@
CONST	SEGMENT
??_C@_05NCNFOFLM@pitch?$AA@ DB 'pitch', 00H		; `string'
CONST	ENDS
;	COMDAT ??_C@_05HCKPILGO@cross?$AA@
CONST	SEGMENT
??_C@_05HCKPILGO@cross?$AA@ DB 'cross', 00H		; `string'
CONST	ENDS
;	COMDAT ??_C@_08LHFODBFO@distance?$AA@
CONST	SEGMENT
??_C@_08LHFODBFO@distance?$AA@ DB 'distance', 00H	; `string'
CONST	ENDS
;	COMDAT ??_C@_02HNLLPFKA@up?$AA@
CONST	SEGMENT
??_C@_02HNLLPFKA@up?$AA@ DB 'up', 00H			; `string'
CONST	ENDS
;	COMDAT ??_C@_04CHADEDPO@view?$AA@
CONST	SEGMENT
??_C@_04CHADEDPO@view?$AA@ DB 'view', 00H		; `string'
CONST	ENDS
;	COMDAT ??_C@_01GLPGHMHM@z?$AA@
CONST	SEGMENT
??_C@_01GLPGHMHM@z?$AA@ DB 'z', 00H			; `string'
PUBLIC	??A?$basic_string@DU?$char_traits@D@std@@V?$allocator@D@2@@std@@QAEAADI@Z ; std::basic_string<char,std::char_traits<char>,std::allocator<char> >::operator[]
PUBLIC	??1?$CDynamicPool@VCGraphicTextInstance@@@@UAE@XZ ; CDynamicPool<CGraphicTextInstance>::~CDynamicPool<CGraphicTextInstance>
PUBLIC	??1?$vector@PAVCGraphicTextInstance@@V?$allocator@PAVCGraphicTextInstance@@@std@@@std@@QAE@XZ ; std::vector<CGraphicTextInstance *,std::allocator<CGraphicTextInstance *> >::~vector<CGraphicTextInstance *,std::allocator<CGraphicTextInstance *> >
PUBLIC	?_Tidy@?$vector@PAVCGraphicTextInstance@@V?$allocator@PAVCGraphicTextInstance@@@std@@@std@@IAEXXZ ; std::vector<CGraphicTextInstance *,std::allocator<CGraphicTextInstance *> >::_Tidy
PUBLIC	?_Getal@?$_Vector_alloc@$0A@U?$_Vec_base_types@PAVCGraphicTextInstance@@V?$allocator@PAVCGraphicTextInstance@@@std@@@std@@@std@@QBE?AU?$_Wrap_alloc@V?$allocator@PAVCGraphicTextInstance@@@std@@@2@XZ ; std::_Vector_alloc<0,std::_Vec_base_types<CGraphicTextInstance *,std::allocator<CGraphicTextInstance *> > >::_Getal
PUBLIC	??0?$_Wrap_alloc@V?$allocator@PAVCGraphicTextInstance@@@std@@@std@@QAE@XZ ; std::_Wrap_alloc<std::allocator<CGraphicTextInstance *> >::_Wrap_alloc<std::allocator<CGraphicTextInstance *> >
PUBLIC	??0?$allocator@PAVCGraphicTextInstance@@@std@@QAE@XZ ; std::allocator<CGraphicTextInstance *>::allocator<CGraphicTextInstance *>
PUBLIC	?deallocate@?$_Wrap_alloc@V?$allocator@PAVCGraphicTextInstance@@@std@@@std@@QAEXPAPAVCGraphicTextInstance@@I@Z ; std::_Wrap_alloc<std::allocator<CGraphicTextInstance *> >::deallocate
PUBLIC	?deallocate@?$allocator@PAVCGraphicTextInstance@@@std@@QAEXPAPAVCGraphicTextInstance@@I@Z ; std::allocator<CGraphicTextInstance *>::deallocate
PUBLIC	?_Destroy@?$vector@PAVCGraphicTextInstance@@V?$allocator@PAVCGraphicTextInstance@@@std@@@std@@IAEXPAPAVCGraphicTextInstance@@0@Z ; std::vector<CGraphicTextInstance *,std::allocator<CGraphicTextInstance *> >::_Destroy
PUBLIC	??$_Destroy_range@U?$_Wrap_alloc@V?$allocator@PAVCGraphicTextInstance@@@std@@@std@@@std@@YAXPAPAVCGraphicTextInstance@@0AAU?$_Wrap_alloc@V?$allocator@PAVCGraphicTextInstance@@@std@@@0@@Z ; std::_Destroy_range<std::_Wrap_alloc<std::allocator<CGraphicTextInstance *> > >
PUBLIC	??$_Ptr_cat@PAVCGraphicTextInstance@@PAV1@@std@@YA?AU_Scalar_ptr_iterator_tag@0@PAPAVCGraphicTextInstance@@0@Z ; std::_Ptr_cat<CGraphicTextInstance *,CGraphicTextInstance *>
PUBLIC	??$_Destroy_range@U?$_Wrap_alloc@V?$allocator@PAVCGraphicTextInstance@@@std@@@std@@@std@@YAXPAPAVCGraphicTextInstance@@0AAU?$_Wrap_alloc@V?$allocator@PAVCGraphicTextInstance@@@std@@@0@U_Scalar_ptr_iterator_tag@0@@Z ; std::_Destroy_range<std::_Wrap_alloc<std::allocator<CGraphicTextInstance *> > >
PUBLIC	??_G?$CDynamicPool@VCGraphicTextInstance@@@@UAEPAXI@Z ; CDynamicPool<CGraphicTextInstance>::`scalar deleting destructor'
PUBLIC	??$get@$0A@$$QAV?$basic_string@DU?$char_traits@D@std@@V?$allocator@D@2@@std@@@std@@YA$$QAV?$basic_string@DU?$char_traits@D@std@@V?$allocator@D@2@@0@$$QAV?$tuple@$$QAV?$basic_string@DU?$char_traits@D@std@@V?$allocator@D@2@@std@@@0@@Z ; std::get<0,std::basic_string<char,std::char_traits<char>,std::allocator<char> > &&>
PUBLIC	??$move@AAV?$tuple@$$QAV?$basic_string@DU?$char_traits@D@std@@V?$allocator@D@2@@std@@@std@@@std@@YA$$QAV?$tuple@$$QAV?$basic_string@DU?$char_traits@D@std@@V?$allocator@D@2@@std@@@0@AAV10@@Z ; std::move<std::tuple<std::basic_string<char,std::char_traits<char>,std::allocator<char> > &&> &>
PUBLIC	??$?0V?$tuple@$$QAV?$basic_string@DU?$char_traits@D@std@@V?$allocator@D@2@@std@@@std@@V?$tuple@$$$V@1@$0A@$S@?$pair@$$CBV?$basic_string@DU?$char_traits@D@std@@V?$allocator@D@2@@std@@H@std@@QAE@AAV?$tuple@$$QAV?$basic_string@DU?$char_traits@D@std@@V?$allocator@D@2@@std@@@1@AAV?$tuple@$$$V@1@U?$_Arg_idx@$0A@@1@U?$_Arg_idx@$S@1@@Z ; std::pair<std::basic_string<char,std::char_traits<char>,std::allocator<char> > const ,int>::pair<std::basic_string<char,std::char_traits<char>,std::allocator<char> > const ,int><std::tuple<std::basic_string<char,std::char_traits<char>,std::allocator<char> > &&>,std::tuple<>,0>
PUBLIC	??$forward@$$QAV?$basic_string@DU?$char_traits@D@std@@V?$allocator@D@2@@std@@@std@@YA$$QAV?$basic_string@DU?$char_traits@D@std@@V?$allocator@D@2@@0@AAV10@@Z ; std::forward<std::basic_string<char,std::char_traits<char>,std::allocator<char> > &&>
PUBLIC	?_Get_rest@?$tuple@$$QAV?$basic_string@DU?$char_traits@D@std@@V?$allocator@D@2@@std@@@std@@QAEAAV?$tuple@$$$V@2@XZ ; std::tuple<std::basic_string<char,std::char_traits<char>,std::allocator<char> > &&>::_Get_rest
PUBLIC	??$?0$$QAV?$basic_string@DU?$char_traits@D@std@@V?$allocator@D@2@@std@@$$$V@?$pair@$$CBV?$basic_string@DU?$char_traits@D@std@@V?$allocator@D@2@@std@@H@std@@QAE@Upiecewise_construct_t@1@V?$tuple@$$QAV?$basic_string@DU?$char_traits@D@std@@V?$allocator@D@2@@std@@@1@V?$tuple@$$$V@1@@Z ; std::pair<std::basic_string<char,std::char_traits<char>,std::allocator<char> > const ,int>::pair<std::basic_string<char,std::char_traits<char>,std::allocator<char> > const ,int><std::basic_string<char,std::char_traits<char>,std::allocator<char> > &&>
PUBLIC	??$?0$$QAV?$basic_string@DU?$char_traits@D@std@@V?$allocator@D@2@@std@@PAPAX@?$tuple@$$QAV?$basic_string@DU?$char_traits@D@std@@V?$allocator@D@2@@std@@@std@@QAE@$$QAV01@@Z ; std::tuple<std::basic_string<char,std::char_traits<char>,std::allocator<char> > &&>::tuple<std::basic_string<char,std::char_traits<char>,std::allocator<char> > &&><std::basic_string<char,std::char_traits<char>,std::allocator<char> > &&,void * *>
PUBLIC	??$construct@USTextLine@CPythonEventManager@@ABU12@@?$allocator@U?$_List_node@USTextLine@CPythonEventManager@@PAX@std@@@std@@QAEXPAUSTextLine@CPythonEventManager@@ABU23@@Z ; std::allocator<std::_List_node<CPythonEventManager::STextLine,void *> >::construct<CPythonEventManager::STextLine,CPythonEventManager::STextLine const &>
PUBLIC	??$forward@AAV?$_Tree_iterator@V?$_Tree_val@U?$_Tree_simple_types@U?$pair@$$CBV?$basic_string@DU?$char_traits@D@std@@V?$allocator@D@2@@std@@H@std@@@std@@@std@@@std@@@std@@YAAAV?$_Tree_iterator@V?$_Tree_val@U?$_Tree_simple_types@U?$pair@$$CBV?$basic_string@DU?$char_traits@D@std@@V?$allocator@D@2@@std@@H@std@@@std@@@std@@@0@AAV10@@Z ; std::forward<std::_Tree_iterator<std::_Tree_val<std::_Tree_simple_types<std::pair<std::basic_string<char,std::char_traits<char>,std::allocator<char> > const ,int> > > > &>
PUBLIC	??$forward@V?$_Tree_iterator@V?$_Tree_val@U?$_Tree_simple_types@U?$pair@$$CBV?$basic_string@DU?$char_traits@D@std@@V?$allocator@D@2@@std@@H@std@@@std@@@std@@@std@@@std@@YA$$QAV?$_Tree_iterator@V?$_Tree_val@U?$_Tree_simple_types@U?$pair@$$CBV?$basic_string@DU?$char_traits@D@std@@V?$allocator@D@2@@std@@H@std@@@std@@@std@@@0@AAV10@@Z ; std::forward<std::_Tree_iterator<std::_Tree_val<std::_Tree_simple_types<std::pair<std::basic_string<char,std::char_traits<char>,std::allocator<char> > const ,int> > > > >
PUBLIC	??$construct@U?$pair@$$CBV?$basic_string@DU?$char_traits@D@std@@V?$allocator@D@2@@std@@H@std@@ABUpiecewise_construct_t@2@V?$tuple@$$QAV?$basic_string@DU?$char_traits@D@std@@V?$allocator@D@2@@std@@@2@V?$tuple@$$$V@2@@?$allocator@U?$_Tree_node@U?$pair@$$CBV?$basic_string@DU?$char_traits@D@std@@V?$allocator@D@2@@std@@H@std@@PAX@std@@@std@@QAEXPAU?$pair@$$CBV?$basic_string@DU?$char_traits@D@std@@V?$allocator@D@2@@std@@H@1@ABUpiecewise_construct_t@1@$$QAV?$tuple@$$QAV?$basic_string@DU?$char_traits@D@std@@V?$allocator@D@2@@std@@@1@$$QAV?$tuple@$$$V@1@@Z ; std::allocator<std::_Tree_node<std::pair<std::basic_string<char,std::char_traits<char>,std::allocator<char> > const ,int>,void *> >::construct<std::pair<std::basic_string<char,std::char_traits<char>,std::allocator<char> > const ,int>,std::piecewise_construct_t const &,std::tuple<std::basic_string<char,std::char_traits<char>,std::allocator<char> > &&>,std::tuple<> >
PUBLIC	??$_Uninit_move@PAVCGraphicTextInstance@@PAV1@PAV1@@std@@YAPAPAVCGraphicTextInstance@@PAPAV1@00AAU?$_Wrap_alloc@V?$allocator@PAVCGraphicTextInstance@@@std@@@0@0U_Scalar_ptr_iterator_tag@0@@Z ; std::_Uninit_move<CGraphicTextInstance *,CGraphicTextInstance *,CGraphicTextInstance *>
PUBLIC	??$_Val_type@PAPAVCGraphicTextInstance@@@std@@YAPAPAVCGraphicTextInstance@@PAPAV1@@Z ; std::_Val_type<CGraphicTextInstance * *>
PUBLIC	??$_Uninit_move@PAUSEventSet@CPythonEventManager@@PAU12@PAU12@@std@@YAPAPAUSEventSet@CPythonEventManager@@PAPAU12@00AAU?$_Wrap_alloc@V?$allocator@PAUSEventSet@CPythonEventManager@@@std@@@0@0U_Scalar_ptr_iterator_tag@0@@Z ; std::_Uninit_move<CPythonEventManager::SEventSet *,CPythonEventManager::SEventSet *,CPythonEventManager::SEventSet *>
PUBLIC	??$_Val_type@PAPAUSEventSet@CPythonEventManager@@@std@@YAPAPAUSEventSet@CPythonEventManager@@PAPAU12@@Z ; std::_Val_type<CPythonEventManager::SEventSet * *>
PUBLIC	??$construct@USTextLine@CPythonEventManager@@ABU12@@?$allocator_traits@V?$allocator@U?$_List_node@USTextLine@CPythonEventManager@@PAX@std@@@std@@@std@@SAXAAV?$allocator@U?$_List_node@USTextLine@CPythonEventManager@@PAX@std@@@1@PAUSTextLine@CPythonEventManager@@ABU34@@Z ; std::allocator_traits<std::allocator<std::_List_node<CPythonEventManager::STextLine,void *> > >::construct<CPythonEventManager::STextLine,CPythonEventManager::STextLine const &>
PUBLIC	??$?0AAV?$_Tree_iterator@V?$_Tree_val@U?$_Tree_simple_types@U?$pair@$$CBV?$basic_string@DU?$char_traits@D@std@@V?$allocator@D@2@@std@@H@std@@@std@@@std@@@std@@_NX@?$pair@V?$_Tree_iterator@V?$_Tree_val@U?$_Tree_simple_types@U?$pair@$$CBV?$basic_string@DU?$char_traits@D@std@@V?$allocator@D@2@@std@@H@std@@@std@@@std@@@std@@_N@std@@QAE@AAV?$_Tree_iterator@V?$_Tree_val@U?$_Tree_simple_types@U?$pair@$$CBV?$basic_string@DU?$char_traits@D@std@@V?$allocator@D@2@@std@@H@std@@@std@@@std@@@1@$$QA_N@Z ; std::pair<std::_Tree_iterator<std::_Tree_val<std::_Tree_simple_types<std::pair<std::basic_string<char,std::char_traits<char>,std::allocator<char> > const ,int> > > >,bool>::pair<std::_Tree_iterator<std::_Tree_val<std::_Tree_simple_types<std::pair<std::basic_string<char,std::char_traits<char>,std::allocator<char> > const ,int> > > >,bool><std::_Tree_iterator<std::_Tree_val<std::_Tree_simple_types<std::pair<std::basic_string<char,std::char_traits<char>,std::allocator<char> > const ,int> > > > &,bool,void>
PUBLIC	??$?0V?$_Tree_iterator@V?$_Tree_val@U?$_Tree_simple_types@U?$pair@$$CBV?$basic_string@DU?$char_traits@D@std@@V?$allocator@D@2@@std@@H@std@@@std@@@std@@@std@@_NX@?$pair@V?$_Tree_iterator@V?$_Tree_val@U?$_Tree_simple_types@U?$pair@$$CBV?$basic_string@DU?$char_traits@D@std@@V?$allocator@D@2@@std@@H@std@@@std@@@std@@@std@@_N@std@@QAE@$$QAV?$_Tree_iterator@V?$_Tree_val@U?$_Tree_simple_types@U?$pair@$$CBV?$basic_string@DU?$char_traits@D@std@@V?$allocator@D@2@@std@@H@std@@@std@@@std@@@1@$$QA_N@Z ; std::pair<std::_Tree_iterator<std::_Tree_val<std::_Tree_simple_types<std::pair<std::basic_string<char,std::char_traits<char>,std::allocator<char> > const ,int> > > >,bool>::pair<std::_Tree_iterator<std::_Tree_val<std::_Tree_simple_types<std::pair<std::basic_string<char,std::char_traits<char>,std::allocator<char> > const ,int> > > >,bool><std::_Tree_iterator<std::_Tree_val<std::_Tree_simple_types<std::pair<std::basic_string<char,std::char_traits<char>,std::allocator<char> > const ,int> > > >,bool,void>
PUBLIC	??$_Buynode_if_nil@AAU?$pair@$$CBV?$basic_string@DU?$char_traits@D@std@@V?$allocator@D@2@@std@@H@std@@@?$_Tree@V?$_Tmap_traits@V?$basic_string@DU?$char_traits@D@std@@V?$allocator@D@2@@std@@HU?$less@V?$basic_string@DU?$char_traits@D@std@@V?$allocator@D@2@@std@@@2@V?$allocator@U?$pair@$$CBV?$basic_string@DU?$char_traits@D@std@@V?$allocator@D@2@@std@@H@std@@@2@$0A@@std@@@std@@IAEPAU?$_Tree_node@U?$pair@$$CBV?$basic_string@DU?$char_traits@D@std@@V?$allocator@D@2@@std@@H@std@@PAX@1@PAU21@AAU?$pair@$$CBV?$basic_string@DU?$char_traits@D@std@@V?$allocator@D@2@@std@@H@1@@Z ; std::_Tree<std::_Tmap_traits<std::basic_string<char,std::char_traits<char>,std::allocator<char> >,int,std::less<std::basic_string<char,std::char_traits<char>,std::allocator<char> > >,std::allocator<std::pair<std::basic_string<char,std::char_traits<char>,std::allocator<char> > const ,int> >,0> >::_Buynode_if_nil<std::pair<std::basic_string<char,std::char_traits<char>,std::allocator<char> > const ,int> &>
PUBLIC	??$construct@U?$pair@$$CBV?$basic_string@DU?$char_traits@D@std@@V?$allocator@D@2@@std@@H@std@@ABUpiecewise_construct_t@2@V?$tuple@$$QAV?$basic_string@DU?$char_traits@D@std@@V?$allocator@D@2@@std@@@2@V?$tuple@$$$V@2@@?$allocator_traits@V?$allocator@U?$_Tree_node@U?$pair@$$CBV?$basic_string@DU?$char_traits@D@std@@V?$allocator@D@2@@std@@H@std@@PAX@std@@@std@@@std@@SAXAAV?$allocator@U?$_Tree_node@U?$pair@$$CBV?$basic_string@DU?$char_traits@D@std@@V?$allocator@D@2@@std@@H@std@@PAX@std@@@1@PAU?$pair@$$CBV?$basic_string@DU?$char_traits@D@std@@V?$allocator@D@2@@std@@H@1@ABUpiecewise_construct_t@1@$$QAV?$tuple@$$QAV?$basic_string@DU?$char_traits@D@std@@V?$allocator@D@2@@std@@@1@$$QAV?$tuple@$$$V@1@@Z ; std::allocator_traits<std::allocator<std::_Tree_node<std::pair<std::basic_string<char,std::char_traits<char>,std::allocator<char> > const ,int>,void *> > >::construct<std::pair<std::basic_string<char,std::char_traits<char>,std::allocator<char> > const ,int>,std::piecewise_construct_t const &,std::tuple<std::basic_string<char,std::char_traits<char>,std::allocator<char> > &&>,std::tuple<> >
PUBLIC	?max_size@?$allocator@U?$_Tree_node@U?$pair@$$CBV?$basic_string@DU?$char_traits@D@std@@V?$allocator@D@2@@std@@H@std@@PAX@std@@@std@@QBEIXZ ; std::allocator<std::_Tree_node<std::pair<std::basic_string<char,std::char_traits<char>,std::allocator<char> > const ,int>,void *> >::max_size
PUBLIC	?max_size@?$allocator_traits@V?$allocator@U?$_Tree_node@U?$pair@$$CBV?$basic_string@DU?$char_traits@D@std@@V?$allocator@D@2@@std@@H@std@@PAX@std@@@std@@@std@@SAIABV?$allocator@U?$_Tree_node@U?$pair@$$CBV?$basic_string@DU?$char_traits@D@std@@V?$allocator@D@2@@std@@H@std@@PAX@std@@@2@@Z ; std::allocator_traits<std::allocator<std::_Tree_node<std::pair<std::basic_string<char,std::char_traits<char>,std::allocator<char> > const ,int>,void *> > >::max_size
PUBLIC	?max_size@?$_Wrap_alloc@V?$allocator@U?$_Tree_node@U?$pair@$$CBV?$basic_string@DU?$char_traits@D@std@@V?$allocator@D@2@@std@@H@std@@PAX@std@@@std@@@std@@QBEIXZ ; std::_Wrap_alloc<std::allocator<std::_Tree_node<std::pair<std::basic_string<char,std::char_traits<char>,std::allocator<char> > const ,int>,void *> > >::max_size
PUBLIC	??F?$_Tree_iterator@V?$_Tree_val@U?$_Tree_simple_types@U?$pair@$$CBV?$basic_string@DU?$char_traits@D@std@@V?$allocator@D@2@@std@@H@std@@@std@@@std@@@std@@QAEAAV01@XZ ; std::_Tree_iterator<std::_Tree_val<std::_Tree_simple_types<std::pair<std::basic_string<char,std::char_traits<char>,std::allocator<char> > const ,int> > > >::operator--
PUBLIC	?max_size@?$_Tree@V?$_Tmap_traits@V?$basic_string@DU?$char_traits@D@std@@V?$allocator@D@2@@std@@HU?$less@V?$basic_string@DU?$char_traits@D@std@@V?$allocator@D@2@@std@@@2@V?$allocator@U?$pair@$$CBV?$basic_string@DU?$char_traits@D@std@@V?$allocator@D@2@@std@@H@std@@@2@$0A@@std@@@std@@QBEIXZ ; std::_Tree<std::_Tmap_traits<std::basic_string<char,std::char_traits<char>,std::allocator<char> >,int,std::less<std::basic_string<char,std::char_traits<char>,std::allocator<char> > >,std::allocator<std::pair<std::basic_string<char,std::char_traits<char>,std::allocator<char> > const ,int> >,0> >::max_size
PUBLIC	??1?$pair@$$CBV?$basic_string@DU?$char_traits@D@std@@V?$allocator@D@2@@std@@H@std@@QAE@XZ ; std::pair<std::basic_string<char,std::char_traits<char>,std::allocator<char> > const ,int>::~pair<std::basic_string<char,std::char_traits<char>,std::allocator<char> > const ,int>
PUBLIC	??1SArgumet@script@@QAE@XZ			; script::SArgumet::~SArgumet
PUBLIC	??_G?$pair@$$CBV?$basic_string@DU?$char_traits@D@std@@V?$allocator@D@2@@std@@H@std@@QAEPAXI@Z ; std::pair<std::basic_string<char,std::char_traits<char>,std::allocator<char> > const ,int>::`scalar deleting destructor'
PUBLIC	??_GSArgumet@script@@QAEPAXI@Z			; script::SArgumet::`scalar deleting destructor'
PUBLIC	??$construct@PAU?$_Tree_node@U?$pair@$$CBV?$basic_string@DU?$char_traits@D@std@@V?$allocator@D@2@@std@@H@std@@PAX@std@@AAPAU12@@?$allocator@U?$_Tree_node@U?$pair@$$CBV?$basic_string@DU?$char_traits@D@std@@V?$allocator@D@2@@std@@H@std@@PAX@std@@@std@@QAEXPAPAU?$_Tree_node@U?$pair@$$CBV?$basic_string@DU?$char_traits@D@std@@V?$allocator@D@2@@std@@H@std@@PAX@1@AAPAU21@@Z ; std::allocator<std::_Tree_node<std::pair<std::basic_string<char,std::char_traits<char>,std::allocator<char> > const ,int>,void *> >::construct<std::_Tree_node<std::pair<std::basic_string<char,std::char_traits<char>,std::allocator<char> > const ,int>,void *> *,std::_Tree_node<std::pair<std::basic_string<char,std::char_traits<char>,std::allocator<char> > const ,int>,void *> * &>
PUBLIC	??$construct@PAU?$_List_node@USTextLine@CPythonEventManager@@PAX@std@@AAPAU12@@?$allocator@U?$_List_node@USTextLine@CPythonEventManager@@PAX@std@@@std@@QAEXPAPAU?$_List_node@USTextLine@CPythonEventManager@@PAX@1@AAPAU21@@Z ; std::allocator<std::_List_node<CPythonEventManager::STextLine,void *> >::construct<std::_List_node<CPythonEventManager::STextLine,void *> *,std::_List_node<CPythonEventManager::STextLine,void *> * &>
PUBLIC	??$construct@PAU?$_List_node@USArgumet@script@@PAX@std@@AAPAU12@@?$allocator@U?$_List_node@USArgumet@script@@PAX@std@@@std@@QAEXPAPAU?$_List_node@USArgumet@script@@PAX@1@AAPAU21@@Z ; std::allocator<std::_List_node<script::SArgumet,void *> >::construct<std::_List_node<script::SArgumet,void *> *,std::_List_node<script::SArgumet,void *> * &>
PUBLIC	??$destroy@U?$pair@$$CBV?$basic_string@DU?$char_traits@D@std@@V?$allocator@D@2@@std@@H@std@@@?$allocator@U?$_Tree_node@U?$pair@$$CBV?$basic_string@DU?$char_traits@D@std@@V?$allocator@D@2@@std@@H@std@@PAX@std@@@std@@QAEXPAU?$pair@$$CBV?$basic_string@DU?$char_traits@D@std@@V?$allocator@D@2@@std@@H@1@@Z ; std::allocator<std::_Tree_node<std::pair<std::basic_string<char,std::char_traits<char>,std::allocator<char> > const ,int>,void *> >::destroy<std::pair<std::basic_string<char,std::char_traits<char>,std::allocator<char> > const ,int> >
PUBLIC	??$_Rechecked@PAPAVCGraphicTextInstance@@PAPAV1@@std@@YAAAPAPAVCGraphicTextInstance@@AAPAPAV1@PAPAV1@@Z ; std::_Rechecked<CGraphicTextInstance * *,CGraphicTextInstance * *>
PUBLIC	??$_Uninit_move@PAPAVCGraphicTextInstance@@PAPAV1@U?$_Wrap_alloc@V?$allocator@PAVCGraphicTextInstance@@@std@@@std@@@std@@YAPAPAVCGraphicTextInstance@@PAPAV1@00AAU?$_Wrap_alloc@V?$allocator@PAVCGraphicTextInstance@@@std@@@0@@Z ; std::_Uninit_move<CGraphicTextInstance * *,CGraphicTextInstance * *,std::_Wrap_alloc<std::allocator<CGraphicTextInstance *> > >
PUBLIC	??$_Unchecked@PAPAVCGraphicTextInstance@@@std@@YAPAPAVCGraphicTextInstance@@PAPAV1@@Z ; std::_Unchecked<CGraphicTextInstance * *>
PUBLIC	??$_Rechecked@PAPAUSEventSet@CPythonEventManager@@PAPAU12@@std@@YAAAPAPAUSEventSet@CPythonEventManager@@AAPAPAU12@PAPAU12@@Z ; std::_Rechecked<CPythonEventManager::SEventSet * *,CPythonEventManager::SEventSet * *>
PUBLIC	??$_Uninit_move@PAPAUSEventSet@CPythonEventManager@@PAPAU12@U?$_Wrap_alloc@V?$allocator@PAUSEventSet@CPythonEventManager@@@std@@@std@@@std@@YAPAPAUSEventSet@CPythonEventManager@@PAPAU12@00AAU?$_Wrap_alloc@V?$allocator@PAUSEventSet@CPythonEventManager@@@std@@@0@@Z ; std::_Uninit_move<CPythonEventManager::SEventSet * *,CPythonEventManager::SEventSet * *,std::_Wrap_alloc<std::allocator<CPythonEventManager::SEventSet *> > >
PUBLIC	??$_Unchecked@PAPAUSEventSet@CPythonEventManager@@@std@@YAPAPAUSEventSet@CPythonEventManager@@PAPAU12@@Z ; std::_Unchecked<CPythonEventManager::SEventSet * *>
PUBLIC	??$destroy@PAU?$_Tree_node@U?$pair@$$CBV?$basic_string@DU?$char_traits@D@std@@V?$allocator@D@2@@std@@H@std@@PAX@std@@@?$allocator@U?$_Tree_node@U?$pair@$$CBV?$basic_string@DU?$char_traits@D@std@@V?$allocator@D@2@@std@@H@std@@PAX@std@@@std@@QAEXPAPAU?$_Tree_node@U?$pair@$$CBV?$basic_string@DU?$char_traits@D@std@@V?$allocator@D@2@@std@@H@std@@PAX@1@@Z ; std::allocator<std::_Tree_node<std::pair<std::basic_string<char,std::char_traits<char>,std::allocator<char> > const ,int>,void *> >::destroy<std::_Tree_node<std::pair<std::basic_string<char,std::char_traits<char>,std::allocator<char> > const ,int>,void *> *>
PUBLIC	??$destroy@USArgumet@script@@@?$allocator@U?$_List_node@USArgumet@script@@PAX@std@@@std@@QAEXPAUSArgumet@script@@@Z ; std::allocator<std::_List_node<script::SArgumet,void *> >::destroy<script::SArgumet>
PUBLIC	??$destroy@PAU?$_List_node@USArgumet@script@@PAX@std@@@?$allocator@U?$_List_node@USArgumet@script@@PAX@std@@@std@@QAEXPAPAU?$_List_node@USArgumet@script@@PAX@1@@Z ; std::allocator<std::_List_node<script::SArgumet,void *> >::destroy<std::_List_node<script::SArgumet,void *> *>
PUBLIC	??$destroy@PAUSEventSet@CPythonEventManager@@@?$allocator@PAUSEventSet@CPythonEventManager@@@std@@QAEXPAPAUSEventSet@CPythonEventManager@@@Z ; std::allocator<CPythonEventManager::SEventSet *>::destroy<CPythonEventManager::SEventSet *>
PUBLIC	??$construct@PAUSEventSet@CPythonEventManager@@AAPAU12@@?$allocator@PAUSEventSet@CPythonEventManager@@@std@@QAEXPAPAUSEventSet@CPythonEventManager@@AAPAU23@@Z ; std::allocator<CPythonEventManager::SEventSet *>::construct<CPythonEventManager::SEventSet *,CPythonEventManager::SEventSet * &>
PUBLIC	??$destroy@USTextLine@CPythonEventManager@@@?$allocator@U?$_List_node@USTextLine@CPythonEventManager@@PAX@std@@@std@@QAEXPAUSTextLine@CPythonEventManager@@@Z ; std::allocator<std::_List_node<CPythonEventManager::STextLine,void *> >::destroy<CPythonEventManager::STextLine>
PUBLIC	??$destroy@PAU?$_List_node@USTextLine@CPythonEventManager@@PAX@std@@@?$allocator@U?$_List_node@USTextLine@CPythonEventManager@@PAX@std@@@std@@QAEXPAPAU?$_List_node@USTextLine@CPythonEventManager@@PAX@1@@Z ; std::allocator<std::_List_node<CPythonEventManager::STextLine,void *> >::destroy<std::_List_node<CPythonEventManager::STextLine,void *> *>
PUBLIC	??$destroy@PAVCGraphicTextInstance@@@?$allocator@PAVCGraphicTextInstance@@@std@@QAEXPAPAVCGraphicTextInstance@@@Z ; std::allocator<CGraphicTextInstance *>::destroy<CGraphicTextInstance *>
PUBLIC	??$construct@PAVCGraphicTextInstance@@AAPAV1@@?$allocator@PAVCGraphicTextInstance@@@std@@QAEXPAPAVCGraphicTextInstance@@AAPAV2@@Z ; std::allocator<CGraphicTextInstance *>::construct<CGraphicTextInstance *,CGraphicTextInstance * &>
PUBLIC	??$construct@PAUSEventSet@CPythonEventManager@@PAU12@@?$allocator@PAUSEventSet@CPythonEventManager@@@std@@QAEXPAPAUSEventSet@CPythonEventManager@@$$QAPAU23@@Z ; std::allocator<CPythonEventManager::SEventSet *>::construct<CPythonEventManager::SEventSet *,CPythonEventManager::SEventSet *>
PUBLIC	??$construct@USTextLine@CPythonEventManager@@ABU12@@?$_Wrap_alloc@V?$allocator@U?$_List_node@USTextLine@CPythonEventManager@@PAX@std@@@std@@@std@@QAEXPAUSTextLine@CPythonEventManager@@ABU23@@Z ; std::_Wrap_alloc<std::allocator<std::_List_node<CPythonEventManager::STextLine,void *> > >::construct<CPythonEventManager::STextLine,CPythonEventManager::STextLine const &>
PUBLIC	??$_Insert_nohint@AAU?$pair@$$CBV?$basic_string@DU?$char_traits@D@std@@V?$allocator@D@2@@std@@H@std@@PAU?$_Tree_node@U?$pair@$$CBV?$basic_string@DU?$char_traits@D@std@@V?$allocator@D@2@@std@@H@std@@PAX@2@@?$_Tree@V?$_Tmap_traits@V?$basic_string@DU?$char_traits@D@std@@V?$allocator@D@2@@std@@HU?$less@V?$basic_string@DU?$char_traits@D@std@@V?$allocator@D@2@@std@@@2@V?$allocator@U?$pair@$$CBV?$basic_string@DU?$char_traits@D@std@@V?$allocator@D@2@@std@@H@std@@@2@$0A@@std@@@std@@IAE?AU?$pair@V?$_Tree_iterator@V?$_Tree_val@U?$_Tree_simple_types@U?$pair@$$CBV?$basic_string@DU?$char_traits@D@std@@V?$allocator@D@2@@std@@H@std@@@std@@@std@@@std@@_N@1@_NAAU?$pair@$$CBV?$basic_string@DU?$char_traits@D@std@@V?$allocator@D@2@@std@@H@1@PAU?$_Tree_node@U?$pair@$$CBV?$basic_string@DU?$char_traits@D@std@@V?$allocator@D@2@@std@@H@std@@PAX@1@@Z ; std::_Tree<std::_Tmap_traits<std::basic_string<char,std::char_traits<char>,std::allocator<char> >,int,std::less<std::basic_string<char,std::char_traits<char>,std::allocator<char> > >,std::allocator<std::pair<std::basic_string<char,std::char_traits<char>,std::allocator<char> > const ,int> >,0> >::_Insert_nohint<std::pair<std::basic_string<char,std::char_traits<char>,std::allocator<char> > const ,int> &,std::_Tree_node<std::pair<std::basic_string<char,std::char_traits<char>,std::allocator<char> > const ,int>,void *> *>
PUBLIC	??$_Insert_at@AAU?$pair@$$CBV?$basic_string@DU?$char_traits@D@std@@V?$allocator@D@2@@std@@H@std@@PAU?$_Tree_node@U?$pair@$$CBV?$basic_string@DU?$char_traits@D@std@@V?$allocator@D@2@@std@@H@std@@PAX@2@@?$_Tree@V?$_Tmap_traits@V?$basic_string@DU?$char_traits@D@std@@V?$allocator@D@2@@std@@HU?$less@V?$basic_string@DU?$char_traits@D@std@@V?$allocator@D@2@@std@@@2@V?$allocator@U?$pair@$$CBV?$basic_string@DU?$char_traits@D@std@@V?$allocator@D@2@@std@@H@std@@@2@$0A@@std@@@std@@IAE?AV?$_Tree_iterator@V?$_Tree_val@U?$_Tree_simple_types@U?$pair@$$CBV?$basic_string@DU?$char_traits@D@std@@V?$allocator@D@2@@std@@H@std@@@std@@@std@@@1@_NPAU?$_Tree_node@U?$pair@$$CBV?$basic_string@DU?$char_traits@D@std@@V?$allocator@D@2@@std@@H@std@@PAX@1@AAU?$pair@$$CBV?$basic_string@DU?$char_traits@D@std@@V?$allocator@D@2@@std@@H@1@1@Z ; std::_Tree<std::_Tmap_traits<std::basic_string<char,std::char_traits<char>,std::allocator<char> >,int,std::less<std::basic_string<char,std::char_traits<char>,std::allocator<char> > >,std::allocator<std::pair<std::basic_string<char,std::char_traits<char>,std::allocator<char> > const ,int> >,0> >::_Insert_at<std::pair<std::basic_string<char,std::char_traits<char>,std::allocator<char> > const ,int> &,std::_Tree_node<std::pair<std::basic_string<char,std::char_traits<char>,std::allocator<char> > const ,int>,void *> *>
PUBLIC	??$forward@AAU?$pair@$$CBV?$basic_string@DU?$char_traits@D@std@@V?$allocator@D@2@@std@@H@std@@@std@@YAAAU?$pair@$$CBV?$basic_string@DU?$char_traits@D@std@@V?$allocator@D@2@@std@@H@0@AAU10@@Z ; std::forward<std::pair<std::basic_string<char,std::char_traits<char>,std::allocator<char> > const ,int> &>
PUBLIC	??$construct@U?$pair@$$CBV?$basic_string@DU?$char_traits@D@std@@V?$allocator@D@2@@std@@H@std@@ABUpiecewise_construct_t@2@V?$tuple@$$QAV?$basic_string@DU?$char_traits@D@std@@V?$allocator@D@2@@std@@@2@V?$tuple@$$$V@2@@?$_Wrap_alloc@V?$allocator@U?$_Tree_node@U?$pair@$$CBV?$basic_string@DU?$char_traits@D@std@@V?$allocator@D@2@@std@@H@std@@PAX@std@@@std@@@std@@QAEXPAU?$pair@$$CBV?$basic_string@DU?$char_traits@D@std@@V?$allocator@D@2@@std@@H@1@ABUpiecewise_construct_t@1@$$QAV?$tuple@$$QAV?$basic_string@DU?$char_traits@D@std@@V?$allocator@D@2@@std@@@1@$$QAV?$tuple@$$$V@1@@Z ; std::_Wrap_alloc<std::allocator<std::_Tree_node<std::pair<std::basic_string<char,std::char_traits<char>,std::allocator<char> > const ,int>,void *> > >::construct<std::pair<std::basic_string<char,std::char_traits<char>,std::allocator<char> > const ,int>,std::piecewise_construct_t const &,std::tuple<std::basic_string<char,std::char_traits<char>,std::allocator<char> > &&>,std::tuple<> >
PUBLIC	??$?0V?$basic_string@DU?$char_traits@D@std@@V?$allocator@D@2@@std@@@?$_Tuple_val@$$QAV?$basic_string@DU?$char_traits@D@std@@V?$allocator@D@2@@std@@@std@@QAE@$$QAV?$basic_string@DU?$char_traits@D@std@@V?$allocator@D@2@@1@@Z ; std::_Tuple_val<std::basic_string<char,std::char_traits<char>,std::allocator<char> > &&>::_Tuple_val<std::basic_string<char,std::char_traits<char>,std::allocator<char> > &&><std::basic_string<char,std::char_traits<char>,std::allocator<char> > >
PUBLIC	??F?$_Tree_unchecked_const_iterator@V?$_Tree_val@U?$_Tree_simple_types@U?$pair@$$CBV?$basic_string@DU?$char_traits@D@std@@V?$allocator@D@2@@std@@H@std@@@std@@@std@@U_Iterator_base0@2@@std@@QAEAAV01@XZ ; std::_Tree_unchecked_const_iterator<std::_Tree_val<std::_Tree_simple_types<std::pair<std::basic_string<char,std::char_traits<char>,std::allocator<char> > const ,int> > >,std::_Iterator_base0>::operator--
PUBLIC	??0?$_Tree_unchecked_const_iterator@V?$_Tree_val@U?$_Tree_simple_types@U?$pair@$$CBV?$basic_string@DU?$char_traits@D@std@@V?$allocator@D@2@@std@@H@std@@@std@@@std@@U_Iterator_base0@2@@std@@QAE@XZ ; std::_Tree_unchecked_const_iterator<std::_Tree_val<std::_Tree_simple_types<std::pair<std::basic_string<char,std::char_traits<char>,std::allocator<char> > const ,int> > >,std::_Iterator_base0>::_Tree_unchecked_const_iterator<std::_Tree_val<std::_Tree_simple_types<std::pair<std::basic_string<char,std::char_traits<char>,std::allocator<char> > const ,int> > >,std::_Iterator_base0>
PUBLIC	?_Unchecked@?$_Vector_iterator@V?$_Vector_val@U?$_Simple_types@PAUSEventSet@CPythonEventManager@@@std@@@std@@@std@@QBEPAPAUSEventSet@CPythonEventManager@@XZ ; std::_Vector_iterator<std::_Vector_val<std::_Simple_types<CPythonEventManager::SEventSet *> > >::_Unchecked
PUBLIC	?_Unchecked@?$_Vector_iterator@V?$_Vector_val@U?$_Simple_types@PAVCGraphicTextInstance@@@std@@@std@@@std@@QBEPAPAVCGraphicTextInstance@@XZ ; std::_Vector_iterator<std::_Vector_val<std::_Simple_types<CGraphicTextInstance *> > >::_Unchecked
PUBLIC	??F?$_Tree_const_iterator@V?$_Tree_val@U?$_Tree_simple_types@U?$pair@$$CBV?$basic_string@DU?$char_traits@D@std@@V?$allocator@D@2@@std@@H@std@@@std@@@std@@@std@@QAEAAV01@XZ ; std::_Tree_const_iterator<std::_Tree_val<std::_Tree_simple_types<std::pair<std::basic_string<char,std::char_traits<char>,std::allocator<char> > const ,int> > > >::operator--
PUBLIC	??0?$_Tree_const_iterator@V?$_Tree_val@U?$_Tree_simple_types@U?$pair@$$CBV?$basic_string@DU?$char_traits@D@std@@V?$allocator@D@2@@std@@H@std@@@std@@@std@@@std@@QAE@XZ ; std::_Tree_const_iterator<std::_Tree_val<std::_Tree_simple_types<std::pair<std::basic_string<char,std::char_traits<char>,std::allocator<char> > const ,int> > > >::_Tree_const_iterator<std::_Tree_val<std::_Tree_simple_types<std::pair<std::basic_string<char,std::char_traits<char>,std::allocator<char> > const ,int> > > >
PUBLIC	?construct@?$allocator@PAUSEventSet@CPythonEventManager@@@std@@QAEXPAPAUSEventSet@CPythonEventManager@@ABQAU34@@Z ; std::allocator<CPythonEventManager::SEventSet *>::construct
PUBLIC	?_Freenode0@?$_Tree_buy@U?$pair@$$CBV?$basic_string@DU?$char_traits@D@std@@V?$allocator@D@2@@std@@H@std@@V?$allocator@U?$pair@$$CBV?$basic_string@DU?$char_traits@D@std@@V?$allocator@D@2@@std@@H@std@@@2@@std@@QAEXPAU?$_Tree_node@U?$pair@$$CBV?$basic_string@DU?$char_traits@D@std@@V?$allocator@D@2@@std@@H@std@@PAX@2@@Z ; std::_Tree_buy<std::pair<std::basic_string<char,std::char_traits<char>,std::allocator<char> > const ,int>,std::allocator<std::pair<std::basic_string<char,std::char_traits<char>,std::allocator<char> > const ,int> > >::_Freenode0
PUBLIC	?_Buynode0@?$_Tree_buy@U?$pair@$$CBV?$basic_string@DU?$char_traits@D@std@@V?$allocator@D@2@@std@@H@std@@V?$allocator@U?$pair@$$CBV?$basic_string@DU?$char_traits@D@std@@V?$allocator@D@2@@std@@H@std@@@2@@std@@QAEPAU?$_Tree_node@U?$pair@$$CBV?$basic_string@DU?$char_traits@D@std@@V?$allocator@D@2@@std@@H@std@@PAX@2@XZ ; std::_Tree_buy<std::pair<std::basic_string<char,std::char_traits<char>,std::allocator<char> > const ,int>,std::allocator<std::pair<std::basic_string<char,std::char_traits<char>,std::allocator<char> > const ,int> > >::_Buynode0
PUBLIC	?_Destroy_if_not_nil@?$_Tree@V?$_Tmap_traits@V?$basic_string@DU?$char_traits@D@std@@V?$allocator@D@2@@std@@HU?$less@V?$basic_string@DU?$char_traits@D@std@@V?$allocator@D@2@@std@@@2@V?$allocator@U?$pair@$$CBV?$basic_string@DU?$char_traits@D@std@@V?$allocator@D@2@@std@@H@std@@@2@$0A@@std@@@std@@IAEXPAU?$_Tree_node@U?$pair@$$CBV?$basic_string@DU?$char_traits@D@std@@V?$allocator@D@2@@std@@H@std@@PAX@2@@Z ; std::_Tree<std::_Tmap_traits<std::basic_string<char,std::char_traits<char>,std::allocator<char> >,int,std::less<std::basic_string<char,std::char_traits<char>,std::allocator<char> > >,std::allocator<std::pair<std::basic_string<char,std::char_traits<char>,std::allocator<char> > const ,int> >,0> >::_Destroy_if_not_nil
PUBLIC	?size@?$_Tree@V?$_Tmap_traits@V?$basic_string@DU?$char_traits@D@std@@V?$allocator@D@2@@std@@HU?$less@V?$basic_string@DU?$char_traits@D@std@@V?$allocator@D@2@@std@@@2@V?$allocator@U?$pair@$$CBV?$basic_string@DU?$char_traits@D@std@@V?$allocator@D@2@@std@@H@std@@@2@$0A@@std@@@std@@QBEIXZ ; std::_Tree<std::_Tmap_traits<std::basic_string<char,std::char_traits<char>,std::allocator<char> >,int,std::less<std::basic_string<char,std::char_traits<char>,std::allocator<char> > >,std::allocator<std::pair<std::basic_string<char,std::char_traits<char>,std::allocator<char> > const ,int> >,0> >::size
PUBLIC	?construct@?$allocator@PAVCGraphicTextInstance@@@std@@QAEXPAPAVCGraphicTextInstance@@ABQAV3@@Z ; std::allocator<CGraphicTextInstance *>::construct
PUBLIC	??$construct@PAU?$_Tree_node@U?$pair@$$CBV?$basic_string@DU?$char_traits@D@std@@V?$allocator@D@2@@std@@H@std@@PAX@std@@AAPAU12@@?$allocator_traits@V?$allocator@U?$_Tree_node@U?$pair@$$CBV?$basic_string@DU?$char_traits@D@std@@V?$allocator@D@2@@std@@H@std@@PAX@std@@@std@@@std@@SAXAAV?$allocator@U?$_Tree_node@U?$pair@$$CBV?$basic_string@DU?$char_traits@D@std@@V?$allocator@D@2@@std@@H@std@@PAX@std@@@1@PAPAU?$_Tree_node@U?$pair@$$CBV?$basic_string@DU?$char_traits@D@std@@V?$allocator@D@2@@std@@H@std@@PAX@1@AAPAU31@@Z ; std::allocator_traits<std::allocator<std::_Tree_node<std::pair<std::basic_string<char,std::char_traits<char>,std::allocator<char> > const ,int>,void *> > >::construct<std::_Tree_node<std::pair<std::basic_string<char,std::char_traits<char>,std::allocator<char> > const ,int>,void *> *,std::_Tree_node<std::pair<std::basic_string<char,std::char_traits<char>,std::allocator<char> > const ,int>,void *> * &>
PUBLIC	??$forward@AAPAU?$_Tree_node@U?$pair@$$CBV?$basic_string@DU?$char_traits@D@std@@V?$allocator@D@2@@std@@H@std@@PAX@std@@@std@@YAAAPAU?$_Tree_node@U?$pair@$$CBV?$basic_string@DU?$char_traits@D@std@@V?$allocator@D@2@@std@@H@std@@PAX@0@AAPAU10@@Z ; std::forward<std::_Tree_node<std::pair<std::basic_string<char,std::char_traits<char>,std::allocator<char> > const ,int>,void *> * &>
PUBLIC	??$construct@PAU?$_List_node@USTextLine@CPythonEventManager@@PAX@std@@AAPAU12@@?$allocator_traits@V?$allocator@U?$_List_node@USTextLine@CPythonEventManager@@PAX@std@@@std@@@std@@SAXAAV?$allocator@U?$_List_node@USTextLine@CPythonEventManager@@PAX@std@@@1@PAPAU?$_List_node@USTextLine@CPythonEventManager@@PAX@1@AAPAU31@@Z ; std::allocator_traits<std::allocator<std::_List_node<CPythonEventManager::STextLine,void *> > >::construct<std::_List_node<CPythonEventManager::STextLine,void *> *,std::_List_node<CPythonEventManager::STextLine,void *> * &>
PUBLIC	??$forward@AAPAU?$_List_node@USTextLine@CPythonEventManager@@PAX@std@@@std@@YAAAPAU?$_List_node@USTextLine@CPythonEventManager@@PAX@0@AAPAU10@@Z ; std::forward<std::_List_node<CPythonEventManager::STextLine,void *> * &>
PUBLIC	??$construct@PAU?$_List_node@USArgumet@script@@PAX@std@@AAPAU12@@?$allocator_traits@V?$allocator@U?$_List_node@USArgumet@script@@PAX@std@@@std@@@std@@SAXAAV?$allocator@U?$_List_node@USArgumet@script@@PAX@std@@@1@PAPAU?$_List_node@USArgumet@script@@PAX@1@AAPAU31@@Z ; std::allocator_traits<std::allocator<std::_List_node<script::SArgumet,void *> > >::construct<std::_List_node<script::SArgumet,void *> *,std::_List_node<script::SArgumet,void *> * &>
PUBLIC	??$forward@AAPAU?$_List_node@USArgumet@script@@PAX@std@@@std@@YAAAPAU?$_List_node@USArgumet@script@@PAX@0@AAPAU10@@Z ; std::forward<std::_List_node<script::SArgumet,void *> * &>
PUBLIC	??$destroy@U?$pair@$$CBV?$basic_string@DU?$char_traits@D@std@@V?$allocator@D@2@@std@@H@std@@@?$allocator_traits@V?$allocator@U?$_Tree_node@U?$pair@$$CBV?$basic_string@DU?$char_traits@D@std@@V?$allocator@D@2@@std@@H@std@@PAX@std@@@std@@@std@@SAXAAV?$allocator@U?$_Tree_node@U?$pair@$$CBV?$basic_string@DU?$char_traits@D@std@@V?$allocator@D@2@@std@@H@std@@PAX@std@@@1@PAU?$pair@$$CBV?$basic_string@DU?$char_traits@D@std@@V?$allocator@D@2@@std@@H@1@@Z ; std::allocator_traits<std::allocator<std::_Tree_node<std::pair<std::basic_string<char,std::char_traits<char>,std::allocator<char> > const ,int>,void *> > >::destroy<std::pair<std::basic_string<char,std::char_traits<char>,std::allocator<char> > const ,int> >
PUBLIC	??$_Uninitialized_move@PAPAVCGraphicTextInstance@@PAPAV1@U?$_Wrap_alloc@V?$allocator@PAVCGraphicTextInstance@@@std@@@std@@@std@@YAPAPAVCGraphicTextInstance@@PAPAV1@00AAU?$_Wrap_alloc@V?$allocator@PAVCGraphicTextInstance@@@std@@@0@@Z ; std::_Uninitialized_move<CGraphicTextInstance * *,CGraphicTextInstance * *,std::_Wrap_alloc<std::allocator<CGraphicTextInstance *> > >
PUBLIC	??$_Uninitialized_move@PAPAUSEventSet@CPythonEventManager@@PAPAU12@U?$_Wrap_alloc@V?$allocator@PAUSEventSet@CPythonEventManager@@@std@@@std@@@std@@YAPAPAUSEventSet@CPythonEventManager@@PAPAU12@00AAU?$_Wrap_alloc@V?$allocator@PAUSEventSet@CPythonEventManager@@@std@@@0@@Z ; std::_Uninitialized_move<CPythonEventManager::SEventSet * *,CPythonEventManager::SEventSet * *,std::_Wrap_alloc<std::allocator<CPythonEventManager::SEventSet *> > >
PUBLIC	??$destroy@PAU?$_Tree_node@U?$pair@$$CBV?$basic_string@DU?$char_traits@D@std@@V?$allocator@D@2@@std@@H@std@@PAX@std@@@?$allocator_traits@V?$allocator@U?$_Tree_node@U?$pair@$$CBV?$basic_string@DU?$char_traits@D@std@@V?$allocator@D@2@@std@@H@std@@PAX@std@@@std@@@std@@SAXAAV?$allocator@U?$_Tree_node@U?$pair@$$CBV?$basic_string@DU?$char_traits@D@std@@V?$allocator@D@2@@std@@H@std@@PAX@std@@@1@PAPAU?$_Tree_node@U?$pair@$$CBV?$basic_string@DU?$char_traits@D@std@@V?$allocator@D@2@@std@@H@std@@PAX@1@@Z ; std::allocator_traits<std::allocator<std::_Tree_node<std::pair<std::basic_string<char,std::char_traits<char>,std::allocator<char> > const ,int>,void *> > >::destroy<std::_Tree_node<std::pair<std::basic_string<char,std::char_traits<char>,std::allocator<char> > const ,int>,void *> *>
PUBLIC	??$destroy@USArgumet@script@@@?$allocator_traits@V?$allocator@U?$_List_node@USArgumet@script@@PAX@std@@@std@@@std@@SAXAAV?$allocator@U?$_List_node@USArgumet@script@@PAX@std@@@1@PAUSArgumet@script@@@Z ; std::allocator_traits<std::allocator<std::_List_node<script::SArgumet,void *> > >::destroy<script::SArgumet>
PUBLIC	??$destroy@PAU?$_List_node@USArgumet@script@@PAX@std@@@?$allocator_traits@V?$allocator@U?$_List_node@USArgumet@script@@PAX@std@@@std@@@std@@SAXAAV?$allocator@U?$_List_node@USArgumet@script@@PAX@std@@@1@PAPAU?$_List_node@USArgumet@script@@PAX@1@@Z ; std::allocator_traits<std::allocator<std::_List_node<script::SArgumet,void *> > >::destroy<std::_List_node<script::SArgumet,void *> *>
PUBLIC	??$move@AAP6AXPAUSEventSet@CPythonEventManager@@@Z@std@@YA$$QAP6AXPAUSEventSet@CPythonEventManager@@@ZAAP6AX0@Z@Z ; std::move<void (__cdecl*&)(CPythonEventManager::SEventSet *)>
PUBLIC	??$_For_each@PAPAUSEventSet@CPythonEventManager@@P6AXPAU12@@Z@std@@YAXPAPAUSEventSet@CPythonEventManager@@0AAP6AXPAU12@@Z@Z ; std::_For_each<CPythonEventManager::SEventSet * *,void (__cdecl*)(CPythonEventManager::SEventSet *)>
PUBLIC	??$_Unchecked@V?$_Vector_val@U?$_Simple_types@PAUSEventSet@CPythonEventManager@@@std@@@std@@@std@@YAPAPAUSEventSet@CPythonEventManager@@V?$_Vector_iterator@V?$_Vector_val@U?$_Simple_types@PAUSEventSet@CPythonEventManager@@@std@@@std@@@0@@Z ; std::_Unchecked<std::_Vector_val<std::_Simple_types<CPythonEventManager::SEventSet *> > >
PUBLIC	??$_Destroy_range@U?$_Wrap_alloc@V?$allocator@PAUSEventSet@CPythonEventManager@@@std@@@std@@@std@@YAXPAPAUSEventSet@CPythonEventManager@@0AAU?$_Wrap_alloc@V?$allocator@PAUSEventSet@CPythonEventManager@@@std@@@0@U_Scalar_ptr_iterator_tag@0@@Z ; std::_Destroy_range<std::_Wrap_alloc<std::allocator<CPythonEventManager::SEventSet *> > >
PUBLIC	??$_Ptr_cat@PAUSEventSet@CPythonEventManager@@PAU12@@std@@YA?AU_Scalar_ptr_iterator_tag@0@PAPAUSEventSet@CPythonEventManager@@0@Z ; std::_Ptr_cat<CPythonEventManager::SEventSet *,CPythonEventManager::SEventSet *>
PUBLIC	??$destroy@PAUSEventSet@CPythonEventManager@@@?$allocator_traits@V?$allocator@PAUSEventSet@CPythonEventManager@@@std@@@std@@SAXAAV?$allocator@PAUSEventSet@CPythonEventManager@@@1@PAPAUSEventSet@CPythonEventManager@@@Z ; std::allocator_traits<std::allocator<CPythonEventManager::SEventSet *> >::destroy<CPythonEventManager::SEventSet *>
PUBLIC	??$construct@PAUSEventSet@CPythonEventManager@@ABQAU12@@?$allocator_traits@V?$allocator@PAUSEventSet@CPythonEventManager@@@std@@@std@@SAXAAV?$allocator@PAUSEventSet@CPythonEventManager@@@1@PAPAUSEventSet@CPythonEventManager@@ABQAU34@@Z ; std::allocator_traits<std::allocator<CPythonEventManager::SEventSet *> >::construct<CPythonEventManager::SEventSet *,CPythonEventManager::SEventSet * const &>
PUBLIC	??$forward@ABQAUSEventSet@CPythonEventManager@@@std@@YAABQAUSEventSet@CPythonEventManager@@ABQAU12@@Z ; std::forward<CPythonEventManager::SEventSet * const &>
PUBLIC	??$construct@PAUSEventSet@CPythonEventManager@@AAPAU12@@?$allocator_traits@V?$allocator@PAUSEventSet@CPythonEventManager@@@std@@@std@@SAXAAV?$allocator@PAUSEventSet@CPythonEventManager@@@1@PAPAUSEventSet@CPythonEventManager@@AAPAU34@@Z ; std::allocator_traits<std::allocator<CPythonEventManager::SEventSet *> >::construct<CPythonEventManager::SEventSet *,CPythonEventManager::SEventSet * &>
PUBLIC	??$forward@AAPAUSEventSet@CPythonEventManager@@@std@@YAAAPAUSEventSet@CPythonEventManager@@AAPAU12@@Z ; std::forward<CPythonEventManager::SEventSet * &>
PUBLIC	??$destroy@USTextLine@CPythonEventManager@@@?$allocator_traits@V?$allocator@U?$_List_node@USTextLine@CPythonEventManager@@PAX@std@@@std@@@std@@SAXAAV?$allocator@U?$_List_node@USTextLine@CPythonEventManager@@PAX@std@@@1@PAUSTextLine@CPythonEventManager@@@Z ; std::allocator_traits<std::allocator<std::_List_node<CPythonEventManager::STextLine,void *> > >::destroy<CPythonEventManager::STextLine>
PUBLIC	??$destroy@PAU?$_List_node@USTextLine@CPythonEventManager@@PAX@std@@@?$allocator_traits@V?$allocator@U?$_List_node@USTextLine@CPythonEventManager@@PAX@std@@@std@@@std@@SAXAAV?$allocator@U?$_List_node@USTextLine@CPythonEventManager@@PAX@std@@@1@PAPAU?$_List_node@USTextLine@CPythonEventManager@@PAX@1@@Z ; std::allocator_traits<std::allocator<std::_List_node<CPythonEventManager::STextLine,void *> > >::destroy<std::_List_node<CPythonEventManager::STextLine,void *> *>
PUBLIC	??$destroy@PAVCGraphicTextInstance@@@?$allocator_traits@V?$allocator@PAVCGraphicTextInstance@@@std@@@std@@SAXAAV?$allocator@PAVCGraphicTextInstance@@@1@PAPAVCGraphicTextInstance@@@Z ; std::allocator_traits<std::allocator<CGraphicTextInstance *> >::destroy<CGraphicTextInstance *>
PUBLIC	??$construct@PAVCGraphicTextInstance@@ABQAV1@@?$allocator_traits@V?$allocator@PAVCGraphicTextInstance@@@std@@@std@@SAXAAV?$allocator@PAVCGraphicTextInstance@@@1@PAPAVCGraphicTextInstance@@ABQAV3@@Z ; std::allocator_traits<std::allocator<CGraphicTextInstance *> >::construct<CGraphicTextInstance *,CGraphicTextInstance * const &>
PUBLIC	??$forward@ABQAVCGraphicTextInstance@@@std@@YAABQAVCGraphicTextInstance@@ABQAV1@@Z ; std::forward<CGraphicTextInstance * const &>
PUBLIC	??$construct@PAVCGraphicTextInstance@@AAPAV1@@?$allocator_traits@V?$allocator@PAVCGraphicTextInstance@@@std@@@std@@SAXAAV?$allocator@PAVCGraphicTextInstance@@@1@PAPAVCGraphicTextInstance@@AAPAV3@@Z ; std::allocator_traits<std::allocator<CGraphicTextInstance *> >::construct<CGraphicTextInstance *,CGraphicTextInstance * &>
PUBLIC	??$forward@AAPAVCGraphicTextInstance@@@std@@YAAAPAVCGraphicTextInstance@@AAPAV1@@Z ; std::forward<CGraphicTextInstance * &>
PUBLIC	??$move@AAP6AXPAVCGraphicTextInstance@@@Z@std@@YA$$QAP6AXPAVCGraphicTextInstance@@@ZAAP6AX0@Z@Z ; std::move<void (__cdecl*&)(CGraphicTextInstance *)>
PUBLIC	??$_For_each@PAPAVCGraphicTextInstance@@P6AXPAV1@@Z@std@@YAXPAPAVCGraphicTextInstance@@0AAP6AXPAV1@@Z@Z ; std::_For_each<CGraphicTextInstance * *,void (__cdecl*)(CGraphicTextInstance *)>
PUBLIC	??$_Unchecked@V?$_Vector_val@U?$_Simple_types@PAVCGraphicTextInstance@@@std@@@std@@@std@@YAPAPAVCGraphicTextInstance@@V?$_Vector_iterator@V?$_Vector_val@U?$_Simple_types@PAVCGraphicTextInstance@@@std@@@std@@@0@@Z ; std::_Unchecked<std::_Vector_val<std::_Simple_types<CGraphicTextInstance *> > >
PUBLIC	??$construct@PAUSEventSet@CPythonEventManager@@PAU12@@?$allocator_traits@V?$allocator@PAUSEventSet@CPythonEventManager@@@std@@@std@@SAXAAV?$allocator@PAUSEventSet@CPythonEventManager@@@1@PAPAUSEventSet@CPythonEventManager@@$$QAPAU34@@Z ; std::allocator_traits<std::allocator<CPythonEventManager::SEventSet *> >::construct<CPythonEventManager::SEventSet *,CPythonEventManager::SEventSet *>
PUBLIC	??$_Buynode@ABUSTextLine@CPythonEventManager@@@?$_List_buy@USTextLine@CPythonEventManager@@V?$allocator@USTextLine@CPythonEventManager@@@std@@@std@@QAEPAU?$_List_node@USTextLine@CPythonEventManager@@PAX@1@PAU21@0ABUSTextLine@CPythonEventManager@@@Z ; std::_List_buy<CPythonEventManager::STextLine,std::allocator<CPythonEventManager::STextLine> >::_Buynode<CPythonEventManager::STextLine const &>
PUBLIC	??$forward@ABUSTextLine@CPythonEventManager@@@std@@YAABUSTextLine@CPythonEventManager@@ABU12@@Z ; std::forward<CPythonEventManager::STextLine const &>
PUBLIC	??$_Insert_hint@AAU?$pair@$$CBV?$basic_string@DU?$char_traits@D@std@@V?$allocator@D@2@@std@@H@std@@PAU?$_Tree_node@U?$pair@$$CBV?$basic_string@DU?$char_traits@D@std@@V?$allocator@D@2@@std@@H@std@@PAX@2@@?$_Tree@V?$_Tmap_traits@V?$basic_string@DU?$char_traits@D@std@@V?$allocator@D@2@@std@@HU?$less@V?$basic_string@DU?$char_traits@D@std@@V?$allocator@D@2@@std@@@2@V?$allocator@U?$pair@$$CBV?$basic_string@DU?$char_traits@D@std@@V?$allocator@D@2@@std@@H@std@@@2@$0A@@std@@@std@@IAE?AV?$_Tree_iterator@V?$_Tree_val@U?$_Tree_simple_types@U?$pair@$$CBV?$basic_string@DU?$char_traits@D@std@@V?$allocator@D@2@@std@@H@std@@@std@@@std@@@1@V?$_Tree_const_iterator@V?$_Tree_val@U?$_Tree_simple_types@U?$pair@$$CBV?$basic_string@DU?$char_traits@D@std@@V?$allocator@D@2@@std@@H@std@@@std@@@std@@@1@AAU?$pair@$$CBV?$basic_string@DU?$char_traits@D@std@@V?$allocator@D@2@@std@@H@1@PAU?$_Tree_node@U?$pair@$$CBV?$basic_string@DU?$char_traits@D@std@@V?$allocator@D@2@@std@@H@std@@PAX@1@@Z ; std::_Tree<std::_Tmap_traits<std::basic_string<char,std::char_traits<char>,std::allocator<char> >,int,std::less<std::basic_string<char,std::char_traits<char>,std::allocator<char> > >,std::allocator<std::pair<std::basic_string<char,std::char_traits<char>,std::allocator<char> > const ,int> >,0> >::_Insert_hint<std::pair<std::basic_string<char,std::char_traits<char>,std::allocator<char> > const ,int> &,std::_Tree_node<std::pair<std::basic_string<char,std::char_traits<char>,std::allocator<char> > const ,int>,void *> *>
PUBLIC	??$_Buynode@ABUpiecewise_construct_t@std@@V?$tuple@$$QAV?$basic_string@DU?$char_traits@D@std@@V?$allocator@D@2@@std@@@2@V?$tuple@$$$V@2@@?$_Tree_buy@U?$pair@$$CBV?$basic_string@DU?$char_traits@D@std@@V?$allocator@D@2@@std@@H@std@@V?$allocator@U?$pair@$$CBV?$basic_string@DU?$char_traits@D@std@@V?$allocator@D@2@@std@@H@std@@@2@@std@@QAEPAU?$_Tree_node@U?$pair@$$CBV?$basic_string@DU?$char_traits@D@std@@V?$allocator@D@2@@std@@H@std@@PAX@1@ABUpiecewise_construct_t@1@$$QAV?$tuple@$$QAV?$basic_string@DU?$char_traits@D@std@@V?$allocator@D@2@@std@@@1@$$QAV?$tuple@$$$V@1@@Z ; std::_Tree_buy<std::pair<std::basic_string<char,std::char_traits<char>,std::allocator<char> > const ,int>,std::allocator<std::pair<std::basic_string<char,std::char_traits<char>,std::allocator<char> > const ,int> > >::_Buynode<std::piecewise_construct_t const &,std::tuple<std::basic_string<char,std::char_traits<char>,std::allocator<char> > &&>,std::tuple<> >
PUBLIC	??$forward@V?$tuple@$$QAV?$basic_string@DU?$char_traits@D@std@@V?$allocator@D@2@@std@@@std@@@std@@YA$$QAV?$tuple@$$QAV?$basic_string@DU?$char_traits@D@std@@V?$allocator@D@2@@std@@@0@AAV10@@Z ; std::forward<std::tuple<std::basic_string<char,std::char_traits<char>,std::allocator<char> > &&> >
PUBLIC	??$?0V?$basic_string@DU?$char_traits@D@std@@V?$allocator@D@2@@std@@$$$VPAPAX@?$tuple@$$QAV?$basic_string@DU?$char_traits@D@std@@V?$allocator@D@2@@std@@@std@@QAE@$$QAV?$basic_string@DU?$char_traits@D@std@@V?$allocator@D@2@@1@@Z ; std::tuple<std::basic_string<char,std::char_traits<char>,std::allocator<char> > &&>::tuple<std::basic_string<char,std::char_traits<char>,std::allocator<char> > &&><std::basic_string<char,std::char_traits<char>,std::allocator<char> >,void * *>
PUBLIC	?max_size@?$allocator@U?$_List_node@USTextLine@CPythonEventManager@@PAX@std@@@std@@QBEIXZ ; std::allocator<std::_List_node<CPythonEventManager::STextLine,void *> >::max_size
PUBLIC	?max_size@?$allocator_traits@V?$allocator@U?$_List_node@USTextLine@CPythonEventManager@@PAX@std@@@std@@@std@@SAIABV?$allocator@U?$_List_node@USTextLine@CPythonEventManager@@PAX@std@@@2@@Z ; std::allocator_traits<std::allocator<std::_List_node<CPythonEventManager::STextLine,void *> > >::max_size
PUBLIC	?max_size@?$_Wrap_alloc@V?$allocator@U?$_List_node@USTextLine@CPythonEventManager@@PAX@std@@@std@@@std@@QBEIXZ ; std::_Wrap_alloc<std::allocator<std::_List_node<CPythonEventManager::STextLine,void *> > >::max_size
PUBLIC	?max_size@?$list@USTextLine@CPythonEventManager@@V?$allocator@USTextLine@CPythonEventManager@@@std@@@std@@QBEIXZ ; std::list<CPythonEventManager::STextLine,std::allocator<CPythonEventManager::STextLine> >::max_size
PUBLIC	?_Mynode@?$_List_unchecked_const_iterator@V?$_List_val@U?$_List_simple_types@USTextLine@CPythonEventManager@@@std@@@std@@U_Iterator_base0@2@@std@@QBEPAU?$_List_node@USTextLine@CPythonEventManager@@PAX@2@XZ ; std::_List_unchecked_const_iterator<std::_List_val<std::_List_simple_types<CPythonEventManager::STextLine> >,std::_Iterator_base0>::_Mynode
PUBLIC	?_Incsize@?$list@USTextLine@CPythonEventManager@@V?$allocator@USTextLine@CPythonEventManager@@@std@@@std@@QAEXI@Z ; std::list<CPythonEventManager::STextLine,std::allocator<CPythonEventManager::STextLine> >::_Incsize
PUBLIC	??$_Allocate@U?$_Tree_node@U?$pair@$$CBV?$basic_string@DU?$char_traits@D@std@@V?$allocator@D@2@@std@@H@std@@PAX@std@@@std@@YAPAU?$_Tree_node@U?$pair@$$CBV?$basic_string@DU?$char_traits@D@std@@V?$allocator@D@2@@std@@H@std@@PAX@0@IPAU10@@Z ; std::_Allocate<std::_Tree_node<std::pair<std::basic_string<char,std::char_traits<char>,std::allocator<char> > const ,int>,void *> >
PUBLIC	??$_Allocate@U?$_List_node@USTextLine@CPythonEventManager@@PAX@std@@@std@@YAPAU?$_List_node@USTextLine@CPythonEventManager@@PAX@0@IPAU10@@Z ; std::_Allocate<std::_List_node<CPythonEventManager::STextLine,void *> >
PUBLIC	??$_Allocate@U?$_List_node@USArgumet@script@@PAX@std@@@std@@YAPAU?$_List_node@USArgumet@script@@PAX@0@IPAU10@@Z ; std::_Allocate<std::_List_node<script::SArgumet,void *> >
PUBLIC	??$construct@PAU?$_Tree_node@U?$pair@$$CBV?$basic_string@DU?$char_traits@D@std@@V?$allocator@D@2@@std@@H@std@@PAX@std@@AAPAU12@@?$_Wrap_alloc@V?$allocator@U?$_Tree_node@U?$pair@$$CBV?$basic_string@DU?$char_traits@D@std@@V?$allocator@D@2@@std@@H@std@@PAX@std@@@std@@@std@@QAEXPAPAU?$_Tree_node@U?$pair@$$CBV?$basic_string@DU?$char_traits@D@std@@V?$allocator@D@2@@std@@H@std@@PAX@1@AAPAU21@@Z ; std::_Wrap_alloc<std::allocator<std::_Tree_node<std::pair<std::basic_string<char,std::char_traits<char>,std::allocator<char> > const ,int>,void *> > >::construct<std::_Tree_node<std::pair<std::basic_string<char,std::char_traits<char>,std::allocator<char> > const ,int>,void *> *,std::_Tree_node<std::pair<std::basic_string<char,std::char_traits<char>,std::allocator<char> > const ,int>,void *> * &>
PUBLIC	??$_Allocate@PAVCGraphicTextInstance@@@std@@YAPAPAVCGraphicTextInstance@@IPAPAV1@@Z ; std::_Allocate<CGraphicTextInstance *>
PUBLIC	??$_Allocate@PAUSEventSet@CPythonEventManager@@@std@@YAPAPAUSEventSet@CPythonEventManager@@IPAPAU12@@Z ; std::_Allocate<CPythonEventManager::SEventSet *>
PUBLIC	??$construct@PAU?$_List_node@USTextLine@CPythonEventManager@@PAX@std@@AAPAU12@@?$_Wrap_alloc@V?$allocator@U?$_List_node@USTextLine@CPythonEventManager@@PAX@std@@@std@@@std@@QAEXPAPAU?$_List_node@USTextLine@CPythonEventManager@@PAX@1@AAPAU21@@Z ; std::_Wrap_alloc<std::allocator<std::_List_node<CPythonEventManager::STextLine,void *> > >::construct<std::_List_node<CPythonEventManager::STextLine,void *> *,std::_List_node<CPythonEventManager::STextLine,void *> * &>
PUBLIC	??$construct@PAU?$_List_node@USArgumet@script@@PAX@std@@AAPAU12@@?$_Wrap_alloc@V?$allocator@U?$_List_node@USArgumet@script@@PAX@std@@@std@@@std@@QAEXPAPAU?$_List_node@USArgumet@script@@PAX@1@AAPAU21@@Z ; std::_Wrap_alloc<std::allocator<std::_List_node<script::SArgumet,void *> > >::construct<std::_List_node<script::SArgumet,void *> *,std::_List_node<script::SArgumet,void *> * &>
PUBLIC	??$destroy@U?$pair@$$CBV?$basic_string@DU?$char_traits@D@std@@V?$allocator@D@2@@std@@H@std@@@?$_Wrap_alloc@V?$allocator@U?$_Tree_node@U?$pair@$$CBV?$basic_string@DU?$char_traits@D@std@@V?$allocator@D@2@@std@@H@std@@PAX@std@@@std@@@std@@QAEXPAU?$pair@$$CBV?$basic_string@DU?$char_traits@D@std@@V?$allocator@D@2@@std@@H@1@@Z ; std::_Wrap_alloc<std::allocator<std::_Tree_node<std::pair<std::basic_string<char,std::char_traits<char>,std::allocator<char> > const ,int>,void *> > >::destroy<std::pair<std::basic_string<char,std::char_traits<char>,std::allocator<char> > const ,int> >
PUBLIC	??$_Umove@PAPAVCGraphicTextInstance@@@?$vector@PAVCGraphicTextInstance@@V?$allocator@PAVCGraphicTextInstance@@@std@@@std@@IAEPAPAVCGraphicTextInstance@@PAPAV2@00@Z ; std::vector<CGraphicTextInstance *,std::allocator<CGraphicTextInstance *> >::_Umove<CGraphicTextInstance * *>
PUBLIC	??$_Umove@PAPAUSEventSet@CPythonEventManager@@@?$vector@PAUSEventSet@CPythonEventManager@@V?$allocator@PAUSEventSet@CPythonEventManager@@@std@@@std@@IAEPAPAUSEventSet@CPythonEventManager@@PAPAU23@00@Z ; std::vector<CPythonEventManager::SEventSet *,std::allocator<CPythonEventManager::SEventSet *> >::_Umove<CPythonEventManager::SEventSet * *>
PUBLIC	??$destroy@PAU?$_Tree_node@U?$pair@$$CBV?$basic_string@DU?$char_traits@D@std@@V?$allocator@D@2@@std@@H@std@@PAX@std@@@?$_Wrap_alloc@V?$allocator@U?$_Tree_node@U?$pair@$$CBV?$basic_string@DU?$char_traits@D@std@@V?$allocator@D@2@@std@@H@std@@PAX@std@@@std@@@std@@QAEXPAPAU?$_Tree_node@U?$pair@$$CBV?$basic_string@DU?$char_traits@D@std@@V?$allocator@D@2@@std@@H@std@@PAX@1@@Z ; std::_Wrap_alloc<std::allocator<std::_Tree_node<std::pair<std::basic_string<char,std::char_traits<char>,std::allocator<char> > const ,int>,void *> > >::destroy<std::_Tree_node<std::pair<std::basic_string<char,std::char_traits<char>,std::allocator<char> > const ,int>,void *> *>
PUBLIC	??$addressof@PAU?$_Tree_node@U?$pair@$$CBV?$basic_string@DU?$char_traits@D@std@@V?$allocator@D@2@@std@@H@std@@PAX@std@@@std@@YAPAPAU?$_Tree_node@U?$pair@$$CBV?$basic_string@DU?$char_traits@D@std@@V?$allocator@D@2@@std@@H@std@@PAX@0@AAPAU10@@Z ; std::addressof<std::_Tree_node<std::pair<std::basic_string<char,std::char_traits<char>,std::allocator<char> > const ,int>,void *> *>
PUBLIC	??$_Kfn@$$CBV?$basic_string@DU?$char_traits@D@std@@V?$allocator@D@2@@std@@H@?$_Tmap_traits@V?$basic_string@DU?$char_traits@D@std@@V?$allocator@D@2@@std@@HU?$less@V?$basic_string@DU?$char_traits@D@std@@V?$allocator@D@2@@std@@@2@V?$allocator@U?$pair@$$CBV?$basic_string@DU?$char_traits@D@std@@V?$allocator@D@2@@std@@H@std@@@2@$0A@@std@@SAABV?$basic_string@DU?$char_traits@D@std@@V?$allocator@D@2@@1@ABU?$pair@$$CBV?$basic_string@DU?$char_traits@D@std@@V?$allocator@D@2@@std@@H@1@@Z ; std::_Tmap_traits<std::basic_string<char,std::char_traits<char>,std::allocator<char> >,int,std::less<std::basic_string<char,std::char_traits<char>,std::allocator<char> > >,std::allocator<std::pair<std::basic_string<char,std::char_traits<char>,std::allocator<char> > const ,int> >,0>::_Kfn<std::basic_string<char,std::char_traits<char>,std::allocator<char> > const ,int>
PUBLIC	??$destroy@USArgumet@script@@@?$_Wrap_alloc@V?$allocator@U?$_List_node@USArgumet@script@@PAX@std@@@std@@@std@@QAEXPAUSArgumet@script@@@Z ; std::_Wrap_alloc<std::allocator<std::_List_node<script::SArgumet,void *> > >::destroy<script::SArgumet>
PUBLIC	??$addressof@USArgumet@script@@@std@@YAPAUSArgumet@script@@AAU12@@Z ; std::addressof<script::SArgumet>
PUBLIC	??$destroy@PAU?$_List_node@USArgumet@script@@PAX@std@@@?$_Wrap_alloc@V?$allocator@U?$_List_node@USArgumet@script@@PAX@std@@@std@@@std@@QAEXPAPAU?$_List_node@USArgumet@script@@PAX@1@@Z ; std::_Wrap_alloc<std::allocator<std::_List_node<script::SArgumet,void *> > >::destroy<std::_List_node<script::SArgumet,void *> *>
PUBLIC	??$addressof@PAU?$_List_node@USArgumet@script@@PAX@std@@@std@@YAPAPAU?$_List_node@USArgumet@script@@PAX@0@AAPAU10@@Z ; std::addressof<std::_List_node<script::SArgumet,void *> *>
PUBLIC	??$addressof@U?$pair@$$CBV?$basic_string@DU?$char_traits@D@std@@V?$allocator@D@2@@std@@H@std@@@std@@YAPAU?$pair@$$CBV?$basic_string@DU?$char_traits@D@std@@V?$allocator@D@2@@std@@H@0@AAU10@@Z ; std::addressof<std::pair<std::basic_string<char,std::char_traits<char>,std::allocator<char> > const ,int> >
PUBLIC	??$for_each@V?$_Vector_iterator@V?$_Vector_val@U?$_Simple_types@PAUSEventSet@CPythonEventManager@@@std@@@std@@@std@@P6AXPAUSEventSet@CPythonEventManager@@@Z@std@@YAP6AXPAUSEventSet@CPythonEventManager@@@ZV?$_Vector_iterator@V?$_Vector_val@U?$_Simple_types@PAUSEventSet@CPythonEventManager@@@std@@@std@@@0@1P6AX0@Z@Z ; std::for_each<std::_Vector_iterator<std::_Vector_val<std::_Simple_types<CPythonEventManager::SEventSet *> > >,void (__cdecl*)(CPythonEventManager::SEventSet *)>
PUBLIC	??$_Destroy_range@U?$_Wrap_alloc@V?$allocator@PAUSEventSet@CPythonEventManager@@@std@@@std@@@std@@YAXPAPAUSEventSet@CPythonEventManager@@0AAU?$_Wrap_alloc@V?$allocator@PAUSEventSet@CPythonEventManager@@@std@@@0@@Z ; std::_Destroy_range<std::_Wrap_alloc<std::allocator<CPythonEventManager::SEventSet *> > >
PUBLIC	??$destroy@PAUSEventSet@CPythonEventManager@@@?$_Wrap_alloc@V?$allocator@PAUSEventSet@CPythonEventManager@@@std@@@std@@QAEXPAPAUSEventSet@CPythonEventManager@@@Z ; std::_Wrap_alloc<std::allocator<CPythonEventManager::SEventSet *> >::destroy<CPythonEventManager::SEventSet *>
PUBLIC	??$construct@PAUSEventSet@CPythonEventManager@@ABQAU12@@?$_Wrap_alloc@V?$allocator@PAUSEventSet@CPythonEventManager@@@std@@@std@@QAEXPAPAUSEventSet@CPythonEventManager@@ABQAU23@@Z ; std::_Wrap_alloc<std::allocator<CPythonEventManager::SEventSet *> >::construct<CPythonEventManager::SEventSet *,CPythonEventManager::SEventSet * const &>
PUBLIC	??$construct@PAUSEventSet@CPythonEventManager@@AAPAU12@@?$_Wrap_alloc@V?$allocator@PAUSEventSet@CPythonEventManager@@@std@@@std@@QAEXPAPAUSEventSet@CPythonEventManager@@AAPAU23@@Z ; std::_Wrap_alloc<std::allocator<CPythonEventManager::SEventSet *> >::construct<CPythonEventManager::SEventSet *,CPythonEventManager::SEventSet * &>
PUBLIC	??$addressof@QAUSEventSet@CPythonEventManager@@@std@@YAPBQAUSEventSet@CPythonEventManager@@ABQAU12@@Z ; std::addressof<CPythonEventManager::SEventSet * const>
PUBLIC	??$destroy@USTextLine@CPythonEventManager@@@?$_Wrap_alloc@V?$allocator@U?$_List_node@USTextLine@CPythonEventManager@@PAX@std@@@std@@@std@@QAEXPAUSTextLine@CPythonEventManager@@@Z ; std::_Wrap_alloc<std::allocator<std::_List_node<CPythonEventManager::STextLine,void *> > >::destroy<CPythonEventManager::STextLine>
PUBLIC	??$addressof@USTextLine@CPythonEventManager@@@std@@YAPAUSTextLine@CPythonEventManager@@AAU12@@Z ; std::addressof<CPythonEventManager::STextLine>
PUBLIC	??$destroy@PAU?$_List_node@USTextLine@CPythonEventManager@@PAX@std@@@?$_Wrap_alloc@V?$allocator@U?$_List_node@USTextLine@CPythonEventManager@@PAX@std@@@std@@@std@@QAEXPAPAU?$_List_node@USTextLine@CPythonEventManager@@PAX@1@@Z ; std::_Wrap_alloc<std::allocator<std::_List_node<CPythonEventManager::STextLine,void *> > >::destroy<std::_List_node<CPythonEventManager::STextLine,void *> *>
PUBLIC	??$addressof@PAU?$_List_node@USTextLine@CPythonEventManager@@PAX@std@@@std@@YAPAPAU?$_List_node@USTextLine@CPythonEventManager@@PAX@0@AAPAU10@@Z ; std::addressof<std::_List_node<CPythonEventManager::STextLine,void *> *>
PUBLIC	??$destroy@PAVCGraphicTextInstance@@@?$_Wrap_alloc@V?$allocator@PAVCGraphicTextInstance@@@std@@@std@@QAEXPAPAVCGraphicTextInstance@@@Z ; std::_Wrap_alloc<std::allocator<CGraphicTextInstance *> >::destroy<CGraphicTextInstance *>
PUBLIC	??$construct@PAVCGraphicTextInstance@@ABQAV1@@?$_Wrap_alloc@V?$allocator@PAVCGraphicTextInstance@@@std@@@std@@QAEXPAPAVCGraphicTextInstance@@ABQAV2@@Z ; std::_Wrap_alloc<std::allocator<CGraphicTextInstance *> >::construct<CGraphicTextInstance *,CGraphicTextInstance * const &>
PUBLIC	??$construct@PAVCGraphicTextInstance@@AAPAV1@@?$_Wrap_alloc@V?$allocator@PAVCGraphicTextInstance@@@std@@@std@@QAEXPAPAVCGraphicTextInstance@@AAPAV2@@Z ; std::_Wrap_alloc<std::allocator<CGraphicTextInstance *> >::construct<CGraphicTextInstance *,CGraphicTextInstance * &>
PUBLIC	??$addressof@QAVCGraphicTextInstance@@@std@@YAPBQAVCGraphicTextInstance@@ABQAV1@@Z ; std::addressof<CGraphicTextInstance * const>
PUBLIC	??$for_each@V?$_Vector_iterator@V?$_Vector_val@U?$_Simple_types@PAVCGraphicTextInstance@@@std@@@std@@@std@@P6AXPAVCGraphicTextInstance@@@Z@std@@YAP6AXPAVCGraphicTextInstance@@@ZV?$_Vector_iterator@V?$_Vector_val@U?$_Simple_types@PAVCGraphicTextInstance@@@std@@@std@@@0@1P6AX0@Z@Z ; std::for_each<std::_Vector_iterator<std::_Vector_val<std::_Simple_types<CGraphicTextInstance *> > >,void (__cdecl*)(CGraphicTextInstance *)>
PUBLIC	??$construct@PAUSEventSet@CPythonEventManager@@PAU12@@?$_Wrap_alloc@V?$allocator@PAUSEventSet@CPythonEventManager@@@std@@@std@@QAEXPAPAUSEventSet@CPythonEventManager@@$$QAPAU23@@Z ; std::_Wrap_alloc<std::allocator<CPythonEventManager::SEventSet *> >::construct<CPythonEventManager::SEventSet *,CPythonEventManager::SEventSet *>
PUBLIC	??$forward@PAUSEventSet@CPythonEventManager@@@std@@YA$$QAPAUSEventSet@CPythonEventManager@@AAPAU12@@Z ; std::forward<CPythonEventManager::SEventSet *>
PUBLIC	??$addressof@PAUSEventSet@CPythonEventManager@@@std@@YAPAPAUSEventSet@CPythonEventManager@@AAPAU12@@Z ; std::addressof<CPythonEventManager::SEventSet *>
PUBLIC	??$_Insert@ABUSTextLine@CPythonEventManager@@@?$list@USTextLine@CPythonEventManager@@V?$allocator@USTextLine@CPythonEventManager@@@std@@@std@@QAEXV?$_List_unchecked_const_iterator@V?$_List_val@U?$_List_simple_types@USTextLine@CPythonEventManager@@@std@@@std@@U_Iterator_base0@2@@1@ABUSTextLine@CPythonEventManager@@@Z ; std::list<CPythonEventManager::STextLine,std::allocator<CPythonEventManager::STextLine> >::_Insert<CPythonEventManager::STextLine const &>
PUBLIC	??$emplace_hint@ABUpiecewise_construct_t@std@@V?$tuple@$$QAV?$basic_string@DU?$char_traits@D@std@@V?$allocator@D@2@@std@@@2@V?$tuple@$$$V@2@@?$_Tree@V?$_Tmap_traits@V?$basic_string@DU?$char_traits@D@std@@V?$allocator@D@2@@std@@HU?$less@V?$basic_string@DU?$char_traits@D@std@@V?$allocator@D@2@@std@@@2@V?$allocator@U?$pair@$$CBV?$basic_string@DU?$char_traits@D@std@@V?$allocator@D@2@@std@@H@std@@@2@$0A@@std@@@std@@QAE?AV?$_Tree_iterator@V?$_Tree_val@U?$_Tree_simple_types@U?$pair@$$CBV?$basic_string@DU?$char_traits@D@std@@V?$allocator@D@2@@std@@H@std@@@std@@@std@@@1@V?$_Tree_const_iterator@V?$_Tree_val@U?$_Tree_simple_types@U?$pair@$$CBV?$basic_string@DU?$char_traits@D@std@@V?$allocator@D@2@@std@@H@std@@@std@@@std@@@1@ABUpiecewise_construct_t@1@$$QAV?$tuple@$$QAV?$basic_string@DU?$char_traits@D@std@@V?$allocator@D@2@@std@@@1@$$QAV?$tuple@$$$V@1@@Z ; std::_Tree<std::_Tmap_traits<std::basic_string<char,std::char_traits<char>,std::allocator<char> >,int,std::less<std::basic_string<char,std::char_traits<char>,std::allocator<char> > >,std::allocator<std::pair<std::basic_string<char,std::char_traits<char>,std::allocator<char> > const ,int> >,0> >::emplace_hint<std::piecewise_construct_t const &,std::tuple<std::basic_string<char,std::char_traits<char>,std::allocator<char> > &&>,std::tuple<> >
PUBLIC	??$forward_as_tuple@V?$basic_string@DU?$char_traits@D@std@@V?$allocator@D@2@@std@@@std@@YA?AV?$tuple@$$QAV?$basic_string@DU?$char_traits@D@std@@V?$allocator@D@2@@std@@@0@$$QAV?$basic_string@DU?$char_traits@D@std@@V?$allocator@D@2@@0@@Z ; std::forward_as_tuple<std::basic_string<char,std::char_traits<char>,std::allocator<char> > >
PUBLIC	?allocate@?$allocator@U?$_Tree_node@U?$pair@$$CBV?$basic_string@DU?$char_traits@D@std@@V?$allocator@D@2@@std@@H@std@@PAX@std@@@std@@QAEPAU?$_Tree_node@U?$pair@$$CBV?$basic_string@DU?$char_traits@D@std@@V?$allocator@D@2@@std@@H@std@@PAX@2@I@Z ; std::allocator<std::_Tree_node<std::pair<std::basic_string<char,std::char_traits<char>,std::allocator<char> > const ,int>,void *> >::allocate
PUBLIC	?allocate@?$allocator@U?$_List_node@USTextLine@CPythonEventManager@@PAX@std@@@std@@QAEPAU?$_List_node@USTextLine@CPythonEventManager@@PAX@2@I@Z ; std::allocator<std::_List_node<CPythonEventManager::STextLine,void *> >::allocate
PUBLIC	?allocate@?$_Wrap_alloc@V?$allocator@U?$_Tree_node@U?$pair@$$CBV?$basic_string@DU?$char_traits@D@std@@V?$allocator@D@2@@std@@H@std@@PAX@std@@@std@@@std@@QAEPAU?$_Tree_node@U?$pair@$$CBV?$basic_string@DU?$char_traits@D@std@@V?$allocator@D@2@@std@@H@std@@PAX@2@I@Z ; std::_Wrap_alloc<std::allocator<std::_Tree_node<std::pair<std::basic_string<char,std::char_traits<char>,std::allocator<char> > const ,int>,void *> > >::allocate
PUBLIC	?allocate@?$allocator@U?$_List_node@USArgumet@script@@PAX@std@@@std@@QAEPAU?$_List_node@USArgumet@script@@PAX@2@I@Z ; std::allocator<std::_List_node<script::SArgumet,void *> >::allocate
PUBLIC	?max_size@?$allocator@PAVCGraphicTextInstance@@@std@@QBEIXZ ; std::allocator<CGraphicTextInstance *>::max_size
PUBLIC	??Y?$_Vector_const_iterator@V?$_Vector_val@U?$_Simple_types@PAUSEventSet@CPythonEventManager@@@std@@@std@@@std@@QAEAAV01@H@Z ; std::_Vector_const_iterator<std::_Vector_val<std::_Simple_types<CPythonEventManager::SEventSet *> > >::operator+=
PUBLIC	??Y?$_Vector_const_iterator@V?$_Vector_val@U?$_Simple_types@PAVCGraphicTextInstance@@@std@@@std@@@std@@QAEAAV01@H@Z ; std::_Vector_const_iterator<std::_Vector_val<std::_Simple_types<CGraphicTextInstance *> > >::operator+=
PUBLIC	??E?$_Tree_unchecked_const_iterator@V?$_Tree_val@U?$_Tree_simple_types@U?$pair@$$CBV?$basic_string@DU?$char_traits@D@std@@V?$allocator@D@2@@std@@H@std@@@std@@@std@@U_Iterator_base0@2@@std@@QAEAAV01@XZ ; std::_Tree_unchecked_const_iterator<std::_Tree_val<std::_Tree_simple_types<std::pair<std::basic_string<char,std::char_traits<char>,std::allocator<char> > const ,int> > >,std::_Iterator_base0>::operator++
PUBLIC	?max_size@?$allocator@PAUSEventSet@CPythonEventManager@@@std@@QBEIXZ ; std::allocator<CPythonEventManager::SEventSet *>::max_size
PUBLIC	?allocate@?$_Wrap_alloc@V?$allocator@U?$_List_node@USTextLine@CPythonEventManager@@PAX@std@@@std@@@std@@QAEPAU?$_List_node@USTextLine@CPythonEventManager@@PAX@2@I@Z ; std::_Wrap_alloc<std::allocator<std::_List_node<CPythonEventManager::STextLine,void *> > >::allocate
PUBLIC	??0?$_Tree_val@U?$_Tree_simple_types@U?$pair@$$CBV?$basic_string@DU?$char_traits@D@std@@V?$allocator@D@2@@std@@H@std@@@std@@@std@@QAE@XZ ; std::_Tree_val<std::_Tree_simple_types<std::pair<std::basic_string<char,std::char_traits<char>,std::allocator<char> > const ,int> > >::_Tree_val<std::_Tree_simple_types<std::pair<std::basic_string<char,std::char_traits<char>,std::allocator<char> > const ,int> > >
PUBLIC	??0?$allocator@U?$_Tree_node@U?$pair@$$CBV?$basic_string@DU?$char_traits@D@std@@V?$allocator@D@2@@std@@H@std@@PAX@std@@@std@@QAE@XZ ; std::allocator<std::_Tree_node<std::pair<std::basic_string<char,std::char_traits<char>,std::allocator<char> > const ,int>,void *> >::allocator<std::_Tree_node<std::pair<std::basic_string<char,std::char_traits<char>,std::allocator<char> > const ,int>,void *> >
PUBLIC	?_Buyheadnode@?$_Tree_alloc@$0A@U?$_Tree_base_types@U?$pair@$$CBV?$basic_string@DU?$char_traits@D@std@@V?$allocator@D@2@@std@@H@std@@V?$allocator@U?$pair@$$CBV?$basic_string@DU?$char_traits@D@std@@V?$allocator@D@2@@std@@H@std@@@2@@std@@@std@@QAEPAU?$_Tree_node@U?$pair@$$CBV?$basic_string@DU?$char_traits@D@std@@V?$allocator@D@2@@std@@H@std@@PAX@2@XZ ; std::_Tree_alloc<0,std::_Tree_base_types<std::pair<std::basic_string<char,std::char_traits<char>,std::allocator<char> > const ,int>,std::allocator<std::pair<std::basic_string<char,std::char_traits<char>,std::allocator<char> > const ,int> > > >::_Buyheadnode
PUBLIC	?allocate@?$_Wrap_alloc@V?$allocator@U?$_List_node@USArgumet@script@@PAX@std@@@std@@@std@@QAEPAU?$_List_node@USArgumet@script@@PAX@2@I@Z ; std::_Wrap_alloc<std::allocator<std::_List_node<script::SArgumet,void *> > >::allocate
PUBLIC	?max_size@?$allocator_traits@V?$allocator@PAVCGraphicTextInstance@@@std@@@std@@SAIABV?$allocator@PAVCGraphicTextInstance@@@2@@Z ; std::allocator_traits<std::allocator<CGraphicTextInstance *> >::max_size
PUBLIC	?allocate@?$allocator@PAVCGraphicTextInstance@@@std@@QAEPAPAVCGraphicTextInstance@@I@Z ; std::allocator<CGraphicTextInstance *>::allocate
PUBLIC	??0?$_Vector_const_iterator@V?$_Vector_val@U?$_Simple_types@PAUSEventSet@CPythonEventManager@@@std@@@std@@@std@@QAE@PAPAUSEventSet@CPythonEventManager@@PBU_Container_base0@1@@Z ; std::_Vector_const_iterator<std::_Vector_val<std::_Simple_types<CPythonEventManager::SEventSet *> > >::_Vector_const_iterator<std::_Vector_val<std::_Simple_types<CPythonEventManager::SEventSet *> > >
PUBLIC	??Y?$_Vector_iterator@V?$_Vector_val@U?$_Simple_types@PAUSEventSet@CPythonEventManager@@@std@@@std@@@std@@QAEAAV01@H@Z ; std::_Vector_iterator<std::_Vector_val<std::_Simple_types<CPythonEventManager::SEventSet *> > >::operator+=
PUBLIC	??0?$_Vector_const_iterator@V?$_Vector_val@U?$_Simple_types@PAVCGraphicTextInstance@@@std@@@std@@@std@@QAE@PAPAVCGraphicTextInstance@@PBU_Container_base0@1@@Z ; std::_Vector_const_iterator<std::_Vector_val<std::_Simple_types<CGraphicTextInstance *> > >::_Vector_const_iterator<std::_Vector_val<std::_Simple_types<CGraphicTextInstance *> > >
PUBLIC	??Y?$_Vector_iterator@V?$_Vector_val@U?$_Simple_types@PAVCGraphicTextInstance@@@std@@@std@@@std@@QAEAAV01@H@Z ; std::_Vector_iterator<std::_Vector_val<std::_Simple_types<CGraphicTextInstance *> > >::operator+=
PUBLIC	??E?$_Tree_const_iterator@V?$_Tree_val@U?$_Tree_simple_types@U?$pair@$$CBV?$basic_string@DU?$char_traits@D@std@@V?$allocator@D@2@@std@@H@std@@@std@@@std@@@std@@QAEAAV01@XZ ; std::_Tree_const_iterator<std::_Tree_val<std::_Tree_simple_types<std::pair<std::basic_string<char,std::char_traits<char>,std::allocator<char> > const ,int> > > >::operator++
PUBLIC	?max_size@?$allocator_traits@V?$allocator@PAUSEventSet@CPythonEventManager@@@std@@@std@@SAIABV?$allocator@PAUSEventSet@CPythonEventManager@@@2@@Z ; std::allocator_traits<std::allocator<CPythonEventManager::SEventSet *> >::max_size
PUBLIC	?allocate@?$allocator@PAUSEventSet@CPythonEventManager@@@std@@QAEPAPAUSEventSet@CPythonEventManager@@I@Z ; std::allocator<CPythonEventManager::SEventSet *>::allocate
PUBLIC	??0?$allocator@U?$_List_node@USTextLine@CPythonEventManager@@PAX@std@@@std@@QAE@XZ ; std::allocator<std::_List_node<CPythonEventManager::STextLine,void *> >::allocator<std::_List_node<CPythonEventManager::STextLine,void *> >
PUBLIC	?_Buynode0@?$_List_alloc@$0A@U?$_List_base_types@USTextLine@CPythonEventManager@@V?$allocator@USTextLine@CPythonEventManager@@@std@@@std@@@std@@QAEPAU?$_List_node@USTextLine@CPythonEventManager@@PAX@2@PAU32@0@Z ; std::_List_alloc<0,std::_List_base_types<CPythonEventManager::STextLine,std::allocator<CPythonEventManager::STextLine> > >::_Buynode0
PUBLIC	?_Min@?$_Tree_val@U?$_Tree_simple_types@U?$pair@$$CBV?$basic_string@DU?$char_traits@D@std@@V?$allocator@D@2@@std@@H@std@@@std@@@std@@SAPAU?$_Tree_node@U?$pair@$$CBV?$basic_string@DU?$char_traits@D@std@@V?$allocator@D@2@@std@@H@std@@PAX@2@PAU32@@Z ; std::_Tree_val<std::_Tree_simple_types<std::pair<std::basic_string<char,std::char_traits<char>,std::allocator<char> > const ,int> > >::_Min
PUBLIC	?_Max@?$_Tree_val@U?$_Tree_simple_types@U?$pair@$$CBV?$basic_string@DU?$char_traits@D@std@@V?$allocator@D@2@@std@@H@std@@@std@@@std@@SAPAU?$_Tree_node@U?$pair@$$CBV?$basic_string@DU?$char_traits@D@std@@V?$allocator@D@2@@std@@H@std@@PAX@2@PAU32@@Z ; std::_Tree_val<std::_Tree_simple_types<std::pair<std::basic_string<char,std::char_traits<char>,std::allocator<char> > const ,int> > >::_Max
PUBLIC	?_Color@?$_Tree_val@U?$_Tree_simple_types@U?$pair@$$CBV?$basic_string@DU?$char_traits@D@std@@V?$allocator@D@2@@std@@H@std@@@std@@@std@@SAAADPAU?$_Tree_node@U?$pair@$$CBV?$basic_string@DU?$char_traits@D@std@@V?$allocator@D@2@@std@@H@std@@PAX@2@@Z ; std::_Tree_val<std::_Tree_simple_types<std::pair<std::basic_string<char,std::char_traits<char>,std::allocator<char> > const ,int> > >::_Color
PUBLIC	?deallocate@?$allocator@U?$_Tree_node@U?$pair@$$CBV?$basic_string@DU?$char_traits@D@std@@V?$allocator@D@2@@std@@H@std@@PAX@std@@@std@@QAEXPAU?$_Tree_node@U?$pair@$$CBV?$basic_string@DU?$char_traits@D@std@@V?$allocator@D@2@@std@@H@std@@PAX@2@I@Z ; std::allocator<std::_Tree_node<std::pair<std::basic_string<char,std::char_traits<char>,std::allocator<char> > const ,int>,void *> >::deallocate
PUBLIC	??0?$_Wrap_alloc@V?$allocator@U?$_Tree_node@U?$pair@$$CBV?$basic_string@DU?$char_traits@D@std@@V?$allocator@D@2@@std@@H@std@@PAX@std@@@std@@@std@@QAE@XZ ; std::_Wrap_alloc<std::allocator<std::_Tree_node<std::pair<std::basic_string<char,std::char_traits<char>,std::allocator<char> > const ,int>,void *> > >::_Wrap_alloc<std::allocator<std::_Tree_node<std::pair<std::basic_string<char,std::char_traits<char>,std::allocator<char> > const ,int>,void *> > >
PUBLIC	??0?$_Tree_alloc@$0A@U?$_Tree_base_types@U?$pair@$$CBV?$basic_string@DU?$char_traits@D@std@@V?$allocator@D@2@@std@@H@std@@V?$allocator@U?$pair@$$CBV?$basic_string@DU?$char_traits@D@std@@V?$allocator@D@2@@std@@H@std@@@2@@std@@@std@@QAE@ABV?$allocator@U?$pair@$$CBV?$basic_string@DU?$char_traits@D@std@@V?$allocator@D@2@@std@@H@std@@@1@@Z ; std::_Tree_alloc<0,std::_Tree_base_types<std::pair<std::basic_string<char,std::char_traits<char>,std::allocator<char> > const ,int>,std::allocator<std::pair<std::basic_string<char,std::char_traits<char>,std::allocator<char> > const ,int> > > >::_Tree_alloc<0,std::_Tree_base_types<std::pair<std::basic_string<char,std::char_traits<char>,std::allocator<char> > const ,int>,std::allocator<std::pair<std::basic_string<char,std::char_traits<char>,std::allocator<char> > const ,int> > > >
PUBLIC	?_Rrotate@?$_Tree@V?$_Tmap_traits@V?$basic_string@DU?$char_traits@D@std@@V?$allocator@D@2@@std@@HU?$less@V?$basic_string@DU?$char_traits@D@std@@V?$allocator@D@2@@std@@@2@V?$allocator@U?$pair@$$CBV?$basic_string@DU?$char_traits@D@std@@V?$allocator@D@2@@std@@H@std@@@2@$0A@@std@@@std@@IAEXPAU?$_Tree_node@U?$pair@$$CBV?$basic_string@DU?$char_traits@D@std@@V?$allocator@D@2@@std@@H@std@@PAX@2@@Z ; std::_Tree<std::_Tmap_traits<std::basic_string<char,std::char_traits<char>,std::allocator<char> >,int,std::less<std::basic_string<char,std::char_traits<char>,std::allocator<char> > >,std::allocator<std::pair<std::basic_string<char,std::char_traits<char>,std::allocator<char> > const ,int> >,0> >::_Rrotate
PUBLIC	?_Rmost@?$_Tree@V?$_Tmap_traits@V?$basic_string@DU?$char_traits@D@std@@V?$allocator@D@2@@std@@HU?$less@V?$basic_string@DU?$char_traits@D@std@@V?$allocator@D@2@@std@@@2@V?$allocator@U?$pair@$$CBV?$basic_string@DU?$char_traits@D@std@@V?$allocator@D@2@@std@@H@std@@@2@$0A@@std@@@std@@IBEAAPAU?$_Tree_node@U?$pair@$$CBV?$basic_string@DU?$char_traits@D@std@@V?$allocator@D@2@@std@@H@std@@PAX@2@XZ ; std::_Tree<std::_Tmap_traits<std::basic_string<char,std::char_traits<char>,std::allocator<char> >,int,std::less<std::basic_string<char,std::char_traits<char>,std::allocator<char> > >,std::allocator<std::pair<std::basic_string<char,std::char_traits<char>,std::allocator<char> > const ,int> >,0> >::_Rmost
PUBLIC	?_Lrotate@?$_Tree@V?$_Tmap_traits@V?$basic_string@DU?$char_traits@D@std@@V?$allocator@D@2@@std@@HU?$less@V?$basic_string@DU?$char_traits@D@std@@V?$allocator@D@2@@std@@@2@V?$allocator@U?$pair@$$CBV?$basic_string@DU?$char_traits@D@std@@V?$allocator@D@2@@std@@H@std@@@2@$0A@@std@@@std@@IAEXPAU?$_Tree_node@U?$pair@$$CBV?$basic_string@DU?$char_traits@D@std@@V?$allocator@D@2@@std@@H@std@@PAX@2@@Z ; std::_Tree<std::_Tmap_traits<std::basic_string<char,std::char_traits<char>,std::allocator<char> >,int,std::less<std::basic_string<char,std::char_traits<char>,std::allocator<char> > >,std::allocator<std::pair<std::basic_string<char,std::char_traits<char>,std::allocator<char> > const ,int> >,0> >::_Lrotate
PUBLIC	?_Erase@?$_Tree@V?$_Tmap_traits@V?$basic_string@DU?$char_traits@D@std@@V?$allocator@D@2@@std@@HU?$less@V?$basic_string@DU?$char_traits@D@std@@V?$allocator@D@2@@std@@@2@V?$allocator@U?$pair@$$CBV?$basic_string@DU?$char_traits@D@std@@V?$allocator@D@2@@std@@H@std@@@2@$0A@@std@@@std@@IAEXPAU?$_Tree_node@U?$pair@$$CBV?$basic_string@DU?$char_traits@D@std@@V?$allocator@D@2@@std@@H@std@@PAX@2@@Z ; std::_Tree<std::_Tmap_traits<std::basic_string<char,std::char_traits<char>,std::allocator<char> >,int,std::less<std::basic_string<char,std::char_traits<char>,std::allocator<char> > >,std::allocator<std::pair<std::basic_string<char,std::char_traits<char>,std::allocator<char> > const ,int> >,0> >::_Erase
PUBLIC	?deallocate@?$allocator@U?$_List_node@USArgumet@script@@PAX@std@@@std@@QAEXPAU?$_List_node@USArgumet@script@@PAX@2@I@Z ; std::allocator<std::_List_node<script::SArgumet,void *> >::deallocate
PUBLIC	?_Buynode0@?$_List_alloc@$0A@U?$_List_base_types@USArgumet@script@@V?$allocator@USArgumet@script@@@std@@@std@@@std@@QAEPAU?$_List_node@USArgumet@script@@PAX@2@PAU32@0@Z ; std::_List_alloc<0,std::_List_base_types<script::SArgumet,std::allocator<script::SArgumet> > >::_Buynode0
PUBLIC	?max_size@?$_Wrap_alloc@V?$allocator@PAVCGraphicTextInstance@@@std@@@std@@QBEIXZ ; std::_Wrap_alloc<std::allocator<CGraphicTextInstance *> >::max_size
PUBLIC	?allocate@?$_Wrap_alloc@V?$allocator@PAVCGraphicTextInstance@@@std@@@std@@QAEPAPAVCGraphicTextInstance@@I@Z ; std::_Wrap_alloc<std::allocator<CGraphicTextInstance *> >::allocate
PUBLIC	?capacity@?$vector@PAVCGraphicTextInstance@@V?$allocator@PAVCGraphicTextInstance@@@std@@@std@@QBEIXZ ; std::vector<CGraphicTextInstance *,std::allocator<CGraphicTextInstance *> >::capacity
PUBLIC	??D?$_Vector_const_iterator@V?$_Vector_val@U?$_Simple_types@PAUSEventSet@CPythonEventManager@@@std@@@std@@@std@@QBEABQAUSEventSet@CPythonEventManager@@XZ ; std::_Vector_const_iterator<std::_Vector_val<std::_Simple_types<CPythonEventManager::SEventSet *> > >::operator*
PUBLIC	??Z?$_Vector_iterator@V?$_Vector_val@U?$_Simple_types@PAUSEventSet@CPythonEventManager@@@std@@@std@@@std@@QAEAAV01@H@Z ; std::_Vector_iterator<std::_Vector_val<std::_Simple_types<CPythonEventManager::SEventSet *> > >::operator-=
PUBLIC	??0?$_Vector_iterator@V?$_Vector_val@U?$_Simple_types@PAUSEventSet@CPythonEventManager@@@std@@@std@@@std@@QAE@PAPAUSEventSet@CPythonEventManager@@PBU_Container_base0@1@@Z ; std::_Vector_iterator<std::_Vector_val<std::_Simple_types<CPythonEventManager::SEventSet *> > >::_Vector_iterator<std::_Vector_val<std::_Simple_types<CPythonEventManager::SEventSet *> > >
PUBLIC	??D?$_Vector_const_iterator@V?$_Vector_val@U?$_Simple_types@PAVCGraphicTextInstance@@@std@@@std@@@std@@QBEABQAVCGraphicTextInstance@@XZ ; std::_Vector_const_iterator<std::_Vector_val<std::_Simple_types<CGraphicTextInstance *> > >::operator*
PUBLIC	??Z?$_Vector_iterator@V?$_Vector_val@U?$_Simple_types@PAVCGraphicTextInstance@@@std@@@std@@@std@@QAEAAV01@H@Z ; std::_Vector_iterator<std::_Vector_val<std::_Simple_types<CGraphicTextInstance *> > >::operator-=
PUBLIC	??0?$_Vector_iterator@V?$_Vector_val@U?$_Simple_types@PAVCGraphicTextInstance@@@std@@@std@@@std@@QAE@PAPAVCGraphicTextInstance@@PBU_Container_base0@1@@Z ; std::_Vector_iterator<std::_Vector_val<std::_Simple_types<CGraphicTextInstance *> > >::_Vector_iterator<std::_Vector_val<std::_Simple_types<CGraphicTextInstance *> > >
PUBLIC	??0?$_Tree_unchecked_const_iterator@V?$_Tree_val@U?$_Tree_simple_types@U?$pair@$$CBV?$basic_string@DU?$char_traits@D@std@@V?$allocator@D@2@@std@@H@std@@@std@@@std@@U_Iterator_base0@2@@std@@QAE@PAU?$_Tree_node@U?$pair@$$CBV?$basic_string@DU?$char_traits@D@std@@V?$allocator@D@2@@std@@H@std@@PAX@1@PBV?$_Tree_val@U?$_Tree_simple_types@U?$pair@$$CBV?$basic_string@DU?$char_traits@D@std@@V?$allocator@D@2@@std@@H@std@@@std@@@1@@Z ; std::_Tree_unchecked_const_iterator<std::_Tree_val<std::_Tree_simple_types<std::pair<std::basic_string<char,std::char_traits<char>,std::allocator<char> > const ,int> > >,std::_Iterator_base0>::_Tree_unchecked_const_iterator<std::_Tree_val<std::_Tree_simple_types<std::pair<std::basic_string<char,std::char_traits<char>,std::allocator<char> > const ,int> > >,std::_Iterator_base0>
PUBLIC	??9?$_Tree_const_iterator@V?$_Tree_val@U?$_Tree_simple_types@U?$pair@$$CBV?$basic_string@DU?$char_traits@D@std@@V?$allocator@D@2@@std@@H@std@@@std@@@std@@@std@@QBE_NABV01@@Z ; std::_Tree_const_iterator<std::_Tree_val<std::_Tree_simple_types<std::pair<std::basic_string<char,std::char_traits<char>,std::allocator<char> > const ,int> > > >::operator!=
PUBLIC	??E?$_Tree_const_iterator@V?$_Tree_val@U?$_Tree_simple_types@U?$pair@$$CBV?$basic_string@DU?$char_traits@D@std@@V?$allocator@D@2@@std@@H@std@@@std@@@std@@@std@@QAE?AV01@H@Z ; std::_Tree_const_iterator<std::_Tree_val<std::_Tree_simple_types<std::pair<std::basic_string<char,std::char_traits<char>,std::allocator<char> > const ,int> > > >::operator++
PUBLIC	??0?$_List_unchecked_const_iterator@V?$_List_val@U?$_List_simple_types@USTextLine@CPythonEventManager@@@std@@@std@@U_Iterator_base0@2@@std@@QAE@PAU?$_List_node@USTextLine@CPythonEventManager@@PAX@1@PBV?$_List_val@U?$_List_simple_types@USTextLine@CPythonEventManager@@@std@@@1@@Z ; std::_List_unchecked_const_iterator<std::_List_val<std::_List_simple_types<CPythonEventManager::STextLine> >,std::_Iterator_base0>::_List_unchecked_const_iterator<std::_List_val<std::_List_simple_types<CPythonEventManager::STextLine> >,std::_Iterator_base0>
PUBLIC	??0?$_List_unchecked_const_iterator@V?$_List_val@U?$_List_simple_types@USArgumet@script@@@std@@@std@@U_Iterator_base0@2@@std@@QAE@PAU?$_List_node@USArgumet@script@@PAX@1@PBV?$_List_val@U?$_List_simple_types@USArgumet@script@@@std@@@1@@Z ; std::_List_unchecked_const_iterator<std::_List_val<std::_List_simple_types<script::SArgumet> >,std::_Iterator_base0>::_List_unchecked_const_iterator<std::_List_val<std::_List_simple_types<script::SArgumet> >,std::_Iterator_base0>
PUBLIC	?max_size@?$_Wrap_alloc@V?$allocator@PAUSEventSet@CPythonEventManager@@@std@@@std@@QBEIXZ ; std::_Wrap_alloc<std::allocator<CPythonEventManager::SEventSet *> >::max_size
PUBLIC	?allocate@?$_Wrap_alloc@V?$allocator@PAUSEventSet@CPythonEventManager@@@std@@@std@@QAEPAPAUSEventSet@CPythonEventManager@@I@Z ; std::_Wrap_alloc<std::allocator<CPythonEventManager::SEventSet *> >::allocate
PUBLIC	?deallocate@?$allocator@PAUSEventSet@CPythonEventManager@@@std@@QAEXPAPAUSEventSet@CPythonEventManager@@I@Z ; std::allocator<CPythonEventManager::SEventSet *>::deallocate
PUBLIC	?capacity@?$vector@PAUSEventSet@CPythonEventManager@@V?$allocator@PAUSEventSet@CPythonEventManager@@@std@@@std@@QBEIXZ ; std::vector<CPythonEventManager::SEventSet *,std::allocator<CPythonEventManager::SEventSet *> >::capacity
PUBLIC	??0?$_List_val@U?$_List_simple_types@USTextLine@CPythonEventManager@@@std@@@std@@QAE@XZ ; std::_List_val<std::_List_simple_types<CPythonEventManager::STextLine> >::_List_val<std::_List_simple_types<CPythonEventManager::STextLine> >
PUBLIC	?deallocate@?$allocator@U?$_List_node@USTextLine@CPythonEventManager@@PAX@std@@@std@@QAEXPAU?$_List_node@USTextLine@CPythonEventManager@@PAX@2@I@Z ; std::allocator<std::_List_node<CPythonEventManager::STextLine,void *> >::deallocate
PUBLIC	??0?$_Wrap_alloc@V?$allocator@U?$_List_node@USTextLine@CPythonEventManager@@PAX@std@@@std@@@std@@QAE@XZ ; std::_Wrap_alloc<std::allocator<std::_List_node<CPythonEventManager::STextLine,void *> > >::_Wrap_alloc<std::allocator<std::_List_node<CPythonEventManager::STextLine,void *> > >
PUBLIC	?_Buyheadnode@?$_List_alloc@$0A@U?$_List_base_types@USTextLine@CPythonEventManager@@V?$allocator@USTextLine@CPythonEventManager@@@std@@@std@@@std@@QAEPAU?$_List_node@USTextLine@CPythonEventManager@@PAX@2@XZ ; std::_List_alloc<0,std::_List_base_types<CPythonEventManager::STextLine,std::allocator<CPythonEventManager::STextLine> > >::_Buyheadnode
PUBLIC	?_Right@?$_Tree_val@U?$_Tree_simple_types@U?$pair@$$CBV?$basic_string@DU?$char_traits@D@std@@V?$allocator@D@2@@std@@H@std@@@std@@@std@@SAAAPAU?$_Tree_node@U?$pair@$$CBV?$basic_string@DU?$char_traits@D@std@@V?$allocator@D@2@@std@@H@std@@PAX@2@PAU32@@Z ; std::_Tree_val<std::_Tree_simple_types<std::pair<std::basic_string<char,std::char_traits<char>,std::allocator<char> > const ,int> > >::_Right
PUBLIC	?_Parent@?$_Tree_val@U?$_Tree_simple_types@U?$pair@$$CBV?$basic_string@DU?$char_traits@D@std@@V?$allocator@D@2@@std@@H@std@@@std@@@std@@SAAAPAU?$_Tree_node@U?$pair@$$CBV?$basic_string@DU?$char_traits@D@std@@V?$allocator@D@2@@std@@H@std@@PAX@2@PAU32@@Z ; std::_Tree_val<std::_Tree_simple_types<std::pair<std::basic_string<char,std::char_traits<char>,std::allocator<char> > const ,int> > >::_Parent
PUBLIC	?_Left@?$_Tree_val@U?$_Tree_simple_types@U?$pair@$$CBV?$basic_string@DU?$char_traits@D@std@@V?$allocator@D@2@@std@@H@std@@@std@@@std@@SAAAPAU?$_Tree_node@U?$pair@$$CBV?$basic_string@DU?$char_traits@D@std@@V?$allocator@D@2@@std@@H@std@@PAX@2@PAU32@@Z ; std::_Tree_val<std::_Tree_simple_types<std::pair<std::basic_string<char,std::char_traits<char>,std::allocator<char> > const ,int> > >::_Left
PUBLIC	?_Isnil@?$_Tree_val@U?$_Tree_simple_types@U?$pair@$$CBV?$basic_string@DU?$char_traits@D@std@@V?$allocator@D@2@@std@@H@std@@@std@@@std@@SAAADPAU?$_Tree_node@U?$pair@$$CBV?$basic_string@DU?$char_traits@D@std@@V?$allocator@D@2@@std@@H@std@@PAX@2@@Z ; std::_Tree_val<std::_Tree_simple_types<std::pair<std::basic_string<char,std::char_traits<char>,std::allocator<char> > const ,int> > >::_Isnil
PUBLIC	?deallocate@?$_Wrap_alloc@V?$allocator@U?$_Tree_node@U?$pair@$$CBV?$basic_string@DU?$char_traits@D@std@@V?$allocator@D@2@@std@@H@std@@PAX@std@@@std@@@std@@QAEXPAU?$_Tree_node@U?$pair@$$CBV?$basic_string@DU?$char_traits@D@std@@V?$allocator@D@2@@std@@H@std@@PAX@2@I@Z ; std::_Wrap_alloc<std::allocator<std::_Tree_node<std::pair<std::basic_string<char,std::char_traits<char>,std::allocator<char> > const ,int>,void *> > >::deallocate
PUBLIC	?_Getal@?$_Tree_alloc@$0A@U?$_Tree_base_types@U?$pair@$$CBV?$basic_string@DU?$char_traits@D@std@@V?$allocator@D@2@@std@@H@std@@V?$allocator@U?$pair@$$CBV?$basic_string@DU?$char_traits@D@std@@V?$allocator@D@2@@std@@H@std@@@2@@std@@@std@@QBE?AU?$_Wrap_alloc@V?$allocator@U?$_Tree_node@U?$pair@$$CBV?$basic_string@DU?$char_traits@D@std@@V?$allocator@D@2@@std@@H@std@@PAX@std@@@std@@@2@XZ ; std::_Tree_alloc<0,std::_Tree_base_types<std::pair<std::basic_string<char,std::char_traits<char>,std::allocator<char> > const ,int>,std::allocator<std::pair<std::basic_string<char,std::char_traits<char>,std::allocator<char> > const ,int> > > >::_Getal
PUBLIC	??0?$_Tree_buy@U?$pair@$$CBV?$basic_string@DU?$char_traits@D@std@@V?$allocator@D@2@@std@@H@std@@V?$allocator@U?$pair@$$CBV?$basic_string@DU?$char_traits@D@std@@V?$allocator@D@2@@std@@H@std@@@2@@std@@QAE@ABV?$allocator@U?$pair@$$CBV?$basic_string@DU?$char_traits@D@std@@V?$allocator@D@2@@std@@H@std@@@1@@Z ; std::_Tree_buy<std::pair<std::basic_string<char,std::char_traits<char>,std::allocator<char> > const ,int>,std::allocator<std::pair<std::basic_string<char,std::char_traits<char>,std::allocator<char> > const ,int> > >::_Tree_buy<std::pair<std::basic_string<char,std::char_traits<char>,std::allocator<char> > const ,int>,std::allocator<std::pair<std::basic_string<char,std::char_traits<char>,std::allocator<char> > const ,int> > >
PUBLIC	?_Root@?$_Tree@V?$_Tmap_traits@V?$basic_string@DU?$char_traits@D@std@@V?$allocator@D@2@@std@@HU?$less@V?$basic_string@DU?$char_traits@D@std@@V?$allocator@D@2@@std@@@2@V?$allocator@U?$pair@$$CBV?$basic_string@DU?$char_traits@D@std@@V?$allocator@D@2@@std@@H@std@@@2@$0A@@std@@@std@@IBEAAPAU?$_Tree_node@U?$pair@$$CBV?$basic_string@DU?$char_traits@D@std@@V?$allocator@D@2@@std@@H@std@@PAX@2@XZ ; std::_Tree<std::_Tmap_traits<std::basic_string<char,std::char_traits<char>,std::allocator<char> >,int,std::less<std::basic_string<char,std::char_traits<char>,std::allocator<char> > >,std::allocator<std::pair<std::basic_string<char,std::char_traits<char>,std::allocator<char> > const ,int> >,0> >::_Root
PUBLIC	?_Lmost@?$_Tree@V?$_Tmap_traits@V?$basic_string@DU?$char_traits@D@std@@V?$allocator@D@2@@std@@HU?$less@V?$basic_string@DU?$char_traits@D@std@@V?$allocator@D@2@@std@@@2@V?$allocator@U?$pair@$$CBV?$basic_string@DU?$char_traits@D@std@@V?$allocator@D@2@@std@@H@std@@@2@$0A@@std@@@std@@IBEAAPAU?$_Tree_node@U?$pair@$$CBV?$basic_string@DU?$char_traits@D@std@@V?$allocator@D@2@@std@@H@std@@PAX@2@XZ ; std::_Tree<std::_Tmap_traits<std::basic_string<char,std::char_traits<char>,std::allocator<char> >,int,std::less<std::basic_string<char,std::char_traits<char>,std::allocator<char> > >,std::allocator<std::pair<std::basic_string<char,std::char_traits<char>,std::allocator<char> > const ,int> >,0> >::_Lmost
PUBLIC	?clear@?$_Tree@V?$_Tmap_traits@V?$basic_string@DU?$char_traits@D@std@@V?$allocator@D@2@@std@@HU?$less@V?$basic_string@DU?$char_traits@D@std@@V?$allocator@D@2@@std@@@2@V?$allocator@U?$pair@$$CBV?$basic_string@DU?$char_traits@D@std@@V?$allocator@D@2@@std@@H@std@@@2@$0A@@std@@@std@@QAEXXZ ; std::_Tree<std::_Tmap_traits<std::basic_string<char,std::char_traits<char>,std::allocator<char> >,int,std::less<std::basic_string<char,std::char_traits<char>,std::allocator<char> > >,std::allocator<std::pair<std::basic_string<char,std::char_traits<char>,std::allocator<char> > const ,int> >,0> >::clear
PUBLIC	?erase@?$_Tree@V?$_Tmap_traits@V?$basic_string@DU?$char_traits@D@std@@V?$allocator@D@2@@std@@HU?$less@V?$basic_string@DU?$char_traits@D@std@@V?$allocator@D@2@@std@@@2@V?$allocator@U?$pair@$$CBV?$basic_string@DU?$char_traits@D@std@@V?$allocator@D@2@@std@@H@std@@@2@$0A@@std@@@std@@QAE?AV?$_Tree_iterator@V?$_Tree_val@U?$_Tree_simple_types@U?$pair@$$CBV?$basic_string@DU?$char_traits@D@std@@V?$allocator@D@2@@std@@H@std@@@std@@@std@@@2@V?$_Tree_const_iterator@V?$_Tree_val@U?$_Tree_simple_types@U?$pair@$$CBV?$basic_string@DU?$char_traits@D@std@@V?$allocator@D@2@@std@@H@std@@@std@@@std@@@2@@Z ; std::_Tree<std::_Tmap_traits<std::basic_string<char,std::char_traits<char>,std::allocator<char> >,int,std::less<std::basic_string<char,std::char_traits<char>,std::allocator<char> > >,std::allocator<std::pair<std::basic_string<char,std::char_traits<char>,std::allocator<char> > const ,int> >,0> >::erase
PUBLIC	??0?$_List_val@U?$_List_simple_types@USArgumet@script@@@std@@@std@@QAE@XZ ; std::_List_val<std::_List_simple_types<script::SArgumet> >::_List_val<std::_List_simple_types<script::SArgumet> >
PUBLIC	??0?$allocator@U?$_List_node@USArgumet@script@@PAX@std@@@std@@QAE@XZ ; std::allocator<std::_List_node<script::SArgumet,void *> >::allocator<std::_List_node<script::SArgumet,void *> >
PUBLIC	?deallocate@?$_Wrap_alloc@V?$allocator@U?$_List_node@USArgumet@script@@PAX@std@@@std@@@std@@QAEXPAU?$_List_node@USArgumet@script@@PAX@2@I@Z ; std::_Wrap_alloc<std::allocator<std::_List_node<script::SArgumet,void *> > >::deallocate
PUBLIC	?_Buyheadnode@?$_List_alloc@$0A@U?$_List_base_types@USArgumet@script@@V?$allocator@USArgumet@script@@@std@@@std@@@std@@QAEPAU?$_List_node@USArgumet@script@@PAX@2@XZ ; std::_List_alloc<0,std::_List_base_types<script::SArgumet,std::allocator<script::SArgumet> > >::_Buyheadnode
PUBLIC	??0?$_Vector_val@U?$_Simple_types@PAVCGraphicTextInstance@@@std@@@std@@QAE@XZ ; std::_Vector_val<std::_Simple_types<CGraphicTextInstance *> >::_Vector_val<std::_Simple_types<CGraphicTextInstance *> >
PUBLIC	?_Xlen@?$vector@PAVCGraphicTextInstance@@V?$allocator@PAVCGraphicTextInstance@@@std@@@std@@IBEXXZ ; std::vector<CGraphicTextInstance *,std::allocator<CGraphicTextInstance *> >::_Xlen
PUBLIC	?_Reallocate@?$vector@PAVCGraphicTextInstance@@V?$allocator@PAVCGraphicTextInstance@@@std@@@std@@IAEXI@Z ; std::vector<CGraphicTextInstance *,std::allocator<CGraphicTextInstance *> >::_Reallocate
PUBLIC	?_Grow_to@?$vector@PAVCGraphicTextInstance@@V?$allocator@PAVCGraphicTextInstance@@@std@@@std@@IBEII@Z ; std::vector<CGraphicTextInstance *,std::allocator<CGraphicTextInstance *> >::_Grow_to
PUBLIC	?max_size@?$vector@PAVCGraphicTextInstance@@V?$allocator@PAVCGraphicTextInstance@@@std@@@std@@QBEIXZ ; std::vector<CGraphicTextInstance *,std::allocator<CGraphicTextInstance *> >::max_size
PUBLIC	?size@?$vector@PAVCGraphicTextInstance@@V?$allocator@PAVCGraphicTextInstance@@@std@@@std@@QBEIXZ ; std::vector<CGraphicTextInstance *,std::allocator<CGraphicTextInstance *> >::size
PUBLIC	?_Unused_capacity@?$vector@PAVCGraphicTextInstance@@V?$allocator@PAVCGraphicTextInstance@@@std@@@std@@QBEIXZ ; std::vector<CGraphicTextInstance *,std::allocator<CGraphicTextInstance *> >::_Unused_capacity
PUBLIC	??G?$_Vector_iterator@V?$_Vector_val@U?$_Simple_types@PAUSEventSet@CPythonEventManager@@@std@@@std@@@std@@QBE?AV01@H@Z ; std::_Vector_iterator<std::_Vector_val<std::_Simple_types<CPythonEventManager::SEventSet *> > >::operator-
PUBLIC	??D?$_Vector_iterator@V?$_Vector_val@U?$_Simple_types@PAUSEventSet@CPythonEventManager@@@std@@@std@@@std@@QBEAAPAUSEventSet@CPythonEventManager@@XZ ; std::_Vector_iterator<std::_Vector_val<std::_Simple_types<CPythonEventManager::SEventSet *> > >::operator*
PUBLIC	??G?$_Vector_iterator@V?$_Vector_val@U?$_Simple_types@PAVCGraphicTextInstance@@@std@@@std@@@std@@QBE?AV01@H@Z ; std::_Vector_iterator<std::_Vector_val<std::_Simple_types<CGraphicTextInstance *> > >::operator-
PUBLIC	??D?$_Vector_iterator@V?$_Vector_val@U?$_Simple_types@PAVCGraphicTextInstance@@@std@@@std@@@std@@QBEAAPAVCGraphicTextInstance@@XZ ; std::_Vector_iterator<std::_Vector_val<std::_Simple_types<CGraphicTextInstance *> > >::operator*
PUBLIC	??0?$_List_unchecked_iterator@V?$_List_val@U?$_List_simple_types@USTextLine@CPythonEventManager@@@std@@@std@@@std@@QAE@PAU?$_List_node@USTextLine@CPythonEventManager@@PAX@1@PBV?$_List_val@U?$_List_simple_types@USTextLine@CPythonEventManager@@@std@@@1@@Z ; std::_List_unchecked_iterator<std::_List_val<std::_List_simple_types<CPythonEventManager::STextLine> > >::_List_unchecked_iterator<std::_List_val<std::_List_simple_types<CPythonEventManager::STextLine> > >
PUBLIC	??D?$_Tree_const_iterator@V?$_Tree_val@U?$_Tree_simple_types@U?$pair@$$CBV?$basic_string@DU?$char_traits@D@std@@V?$allocator@D@2@@std@@H@std@@@std@@@std@@@std@@QBEABU?$pair@$$CBV?$basic_string@DU?$char_traits@D@std@@V?$allocator@D@2@@std@@H@1@XZ ; std::_Tree_const_iterator<std::_Tree_val<std::_Tree_simple_types<std::pair<std::basic_string<char,std::char_traits<char>,std::allocator<char> > const ,int> > > >::operator*
PUBLIC	??0?$_Tree_const_iterator@V?$_Tree_val@U?$_Tree_simple_types@U?$pair@$$CBV?$basic_string@DU?$char_traits@D@std@@V?$allocator@D@2@@std@@H@std@@@std@@@std@@@std@@QAE@PAU?$_Tree_node@U?$pair@$$CBV?$basic_string@DU?$char_traits@D@std@@V?$allocator@D@2@@std@@H@std@@PAX@1@PBV?$_Tree_val@U?$_Tree_simple_types@U?$pair@$$CBV?$basic_string@DU?$char_traits@D@std@@V?$allocator@D@2@@std@@H@std@@@std@@@1@@Z ; std::_Tree_const_iterator<std::_Tree_val<std::_Tree_simple_types<std::pair<std::basic_string<char,std::char_traits<char>,std::allocator<char> > const ,int> > > >::_Tree_const_iterator<std::_Tree_val<std::_Tree_simple_types<std::pair<std::basic_string<char,std::char_traits<char>,std::allocator<char> > const ,int> > > >
PUBLIC	??0?$_List_const_iterator@V?$_List_val@U?$_List_simple_types@USTextLine@CPythonEventManager@@@std@@@std@@@std@@QAE@PAU?$_List_node@USTextLine@CPythonEventManager@@PAX@1@PBV?$_List_val@U?$_List_simple_types@USTextLine@CPythonEventManager@@@std@@@1@@Z ; std::_List_const_iterator<std::_List_val<std::_List_simple_types<CPythonEventManager::STextLine> > >::_List_const_iterator<std::_List_val<std::_List_simple_types<CPythonEventManager::STextLine> > >
PUBLIC	??0?$_List_const_iterator@V?$_List_val@U?$_List_simple_types@USArgumet@script@@@std@@@std@@@std@@QAE@PAU?$_List_node@USArgumet@script@@PAX@1@PBV?$_List_val@U?$_List_simple_types@USArgumet@script@@@std@@@1@@Z ; std::_List_const_iterator<std::_List_val<std::_List_simple_types<script::SArgumet> > >::_List_const_iterator<std::_List_val<std::_List_simple_types<script::SArgumet> > >
PUBLIC	?Delete@?$CDynamicPool@USEventSet@CPythonEventManager@@@@KAXPAUSEventSet@CPythonEventManager@@@Z ; CDynamicPool<CPythonEventManager::SEventSet>::Delete
PUBLIC	??0?$_Vector_val@U?$_Simple_types@PAUSEventSet@CPythonEventManager@@@std@@@std@@QAE@XZ ; std::_Vector_val<std::_Simple_types<CPythonEventManager::SEventSet *> >::_Vector_val<std::_Simple_types<CPythonEventManager::SEventSet *> >
PUBLIC	?deallocate@?$_Wrap_alloc@V?$allocator@PAUSEventSet@CPythonEventManager@@@std@@@std@@QAEXPAPAUSEventSet@CPythonEventManager@@I@Z ; std::_Wrap_alloc<std::allocator<CPythonEventManager::SEventSet *> >::deallocate
PUBLIC	??0?$_Wrap_alloc@V?$allocator@PAUSEventSet@CPythonEventManager@@@std@@@std@@QAE@XZ ; std::_Wrap_alloc<std::allocator<CPythonEventManager::SEventSet *> >::_Wrap_alloc<std::allocator<CPythonEventManager::SEventSet *> >
PUBLIC	?_Xlen@?$vector@PAUSEventSet@CPythonEventManager@@V?$allocator@PAUSEventSet@CPythonEventManager@@@std@@@std@@IBEXXZ ; std::vector<CPythonEventManager::SEventSet *,std::allocator<CPythonEventManager::SEventSet *> >::_Xlen
PUBLIC	?_Reallocate@?$vector@PAUSEventSet@CPythonEventManager@@V?$allocator@PAUSEventSet@CPythonEventManager@@@std@@@std@@IAEXI@Z ; std::vector<CPythonEventManager::SEventSet *,std::allocator<CPythonEventManager::SEventSet *> >::_Reallocate
PUBLIC	?_Grow_to@?$vector@PAUSEventSet@CPythonEventManager@@V?$allocator@PAUSEventSet@CPythonEventManager@@@std@@@std@@IBEII@Z ; std::vector<CPythonEventManager::SEventSet *,std::allocator<CPythonEventManager::SEventSet *> >::_Grow_to
PUBLIC	?max_size@?$vector@PAUSEventSet@CPythonEventManager@@V?$allocator@PAUSEventSet@CPythonEventManager@@@std@@@std@@QBEIXZ ; std::vector<CPythonEventManager::SEventSet *,std::allocator<CPythonEventManager::SEventSet *> >::max_size
PUBLIC	?end@?$vector@PAUSEventSet@CPythonEventManager@@V?$allocator@PAUSEventSet@CPythonEventManager@@@std@@@std@@QAE?AV?$_Vector_iterator@V?$_Vector_val@U?$_Simple_types@PAUSEventSet@CPythonEventManager@@@std@@@std@@@2@XZ ; std::vector<CPythonEventManager::SEventSet *,std::allocator<CPythonEventManager::SEventSet *> >::end
PUBLIC	?begin@?$vector@PAUSEventSet@CPythonEventManager@@V?$allocator@PAUSEventSet@CPythonEventManager@@@std@@@std@@QAE?AV?$_Vector_iterator@V?$_Vector_val@U?$_Simple_types@PAUSEventSet@CPythonEventManager@@@std@@@std@@@2@XZ ; std::vector<CPythonEventManager::SEventSet *,std::allocator<CPythonEventManager::SEventSet *> >::begin
PUBLIC	?_Unused_capacity@?$vector@PAUSEventSet@CPythonEventManager@@V?$allocator@PAUSEventSet@CPythonEventManager@@@std@@@std@@QBEIXZ ; std::vector<CPythonEventManager::SEventSet *,std::allocator<CPythonEventManager::SEventSet *> >::_Unused_capacity
PUBLIC	?_Myval@?$_List_val@U?$_List_simple_types@USTextLine@CPythonEventManager@@@std@@@std@@SAAAUSTextLine@CPythonEventManager@@PAU?$_List_node@USTextLine@CPythonEventManager@@PAX@2@@Z ; std::_List_val<std::_List_simple_types<CPythonEventManager::STextLine> >::_Myval
PUBLIC	?deallocate@?$_Wrap_alloc@V?$allocator@U?$_List_node@USTextLine@CPythonEventManager@@PAX@std@@@std@@@std@@QAEXPAU?$_List_node@USTextLine@CPythonEventManager@@PAX@2@I@Z ; std::_Wrap_alloc<std::allocator<std::_List_node<CPythonEventManager::STextLine,void *> > >::deallocate
PUBLIC	?_Getal@?$_List_alloc@$0A@U?$_List_base_types@USTextLine@CPythonEventManager@@V?$allocator@USTextLine@CPythonEventManager@@@std@@@std@@@std@@QBE?AU?$_Wrap_alloc@V?$allocator@U?$_List_node@USTextLine@CPythonEventManager@@PAX@std@@@std@@@2@XZ ; std::_List_alloc<0,std::_List_base_types<CPythonEventManager::STextLine,std::allocator<CPythonEventManager::STextLine> > >::_Getal
PUBLIC	?_Freeheadnode@?$_List_alloc@$0A@U?$_List_base_types@USTextLine@CPythonEventManager@@V?$allocator@USTextLine@CPythonEventManager@@@std@@@std@@@std@@QAEXPAU?$_List_node@USTextLine@CPythonEventManager@@PAX@2@@Z ; std::_List_alloc<0,std::_List_base_types<CPythonEventManager::STextLine,std::allocator<CPythonEventManager::STextLine> > >::_Freeheadnode
PUBLIC	??0?$_List_alloc@$0A@U?$_List_base_types@USTextLine@CPythonEventManager@@V?$allocator@USTextLine@CPythonEventManager@@@std@@@std@@@std@@QAE@ABV?$allocator@USTextLine@CPythonEventManager@@@1@@Z ; std::_List_alloc<0,std::_List_base_types<CPythonEventManager::STextLine,std::allocator<CPythonEventManager::STextLine> > >::_List_alloc<0,std::_List_base_types<CPythonEventManager::STextLine,std::allocator<CPythonEventManager::STextLine> > >
PUBLIC	?_Myval@?$_Tree_val@U?$_Tree_simple_types@U?$pair@$$CBV?$basic_string@DU?$char_traits@D@std@@V?$allocator@D@2@@std@@H@std@@@std@@@std@@SAAAU?$pair@$$CBV?$basic_string@DU?$char_traits@D@std@@V?$allocator@D@2@@std@@H@2@PAU?$_Tree_node@U?$pair@$$CBV?$basic_string@DU?$char_traits@D@std@@V?$allocator@D@2@@std@@H@std@@PAX@2@@Z ; std::_Tree_val<std::_Tree_simple_types<std::pair<std::basic_string<char,std::char_traits<char>,std::allocator<char> > const ,int> > >::_Myval
PUBLIC	?_Freeheadnode@?$_Tree_alloc@$0A@U?$_Tree_base_types@U?$pair@$$CBV?$basic_string@DU?$char_traits@D@std@@V?$allocator@D@2@@std@@H@std@@V?$allocator@U?$pair@$$CBV?$basic_string@DU?$char_traits@D@std@@V?$allocator@D@2@@std@@H@std@@@2@@std@@@std@@QAEXPAU?$_Tree_node@U?$pair@$$CBV?$basic_string@DU?$char_traits@D@std@@V?$allocator@D@2@@std@@H@std@@PAX@2@@Z ; std::_Tree_alloc<0,std::_Tree_base_types<std::pair<std::basic_string<char,std::char_traits<char>,std::allocator<char> > const ,int>,std::allocator<std::pair<std::basic_string<char,std::char_traits<char>,std::allocator<char> > const ,int> > > >::_Freeheadnode
PUBLIC	??0?$_Tree_comp@$0A@V?$_Tmap_traits@V?$basic_string@DU?$char_traits@D@std@@V?$allocator@D@2@@std@@HU?$less@V?$basic_string@DU?$char_traits@D@std@@V?$allocator@D@2@@std@@@2@V?$allocator@U?$pair@$$CBV?$basic_string@DU?$char_traits@D@std@@V?$allocator@D@2@@std@@H@std@@@2@$0A@@std@@@std@@QAE@ABU?$less@V?$basic_string@DU?$char_traits@D@std@@V?$allocator@D@2@@std@@@1@ABV?$allocator@U?$pair@$$CBV?$basic_string@DU?$char_traits@D@std@@V?$allocator@D@2@@std@@H@std@@@1@@Z ; std::_Tree_comp<0,std::_Tmap_traits<std::basic_string<char,std::char_traits<char>,std::allocator<char> >,int,std::less<std::basic_string<char,std::char_traits<char>,std::allocator<char> > >,std::allocator<std::pair<std::basic_string<char,std::char_traits<char>,std::allocator<char> > const ,int> >,0> >::_Tree_comp<0,std::_Tmap_traits<std::basic_string<char,std::char_traits<char>,std::allocator<char> >,int,std::less<std::basic_string<char,std::char_traits<char>,std::allocator<char> > >,std::allocator<std::pair<std::basic_string<char,std::char_traits<char>,std::allocator<char> > const ,int> >,0> >
PUBLIC	?_Kfn@?$_Tree@V?$_Tmap_traits@V?$basic_string@DU?$char_traits@D@std@@V?$allocator@D@2@@std@@HU?$less@V?$basic_string@DU?$char_traits@D@std@@V?$allocator@D@2@@std@@@2@V?$allocator@U?$pair@$$CBV?$basic_string@DU?$char_traits@D@std@@V?$allocator@D@2@@std@@H@std@@@2@$0A@@std@@@std@@IBEABV?$basic_string@DU?$char_traits@D@std@@V?$allocator@D@2@@2@ABU?$pair@$$CBV?$basic_string@DU?$char_traits@D@std@@V?$allocator@D@2@@std@@H@2@@Z ; std::_Tree<std::_Tmap_traits<std::basic_string<char,std::char_traits<char>,std::allocator<char> >,int,std::less<std::basic_string<char,std::char_traits<char>,std::allocator<char> > >,std::allocator<std::pair<std::basic_string<char,std::char_traits<char>,std::allocator<char> > const ,int> >,0> >::_Kfn
PUBLIC	?_Lbound@?$_Tree@V?$_Tmap_traits@V?$basic_string@DU?$char_traits@D@std@@V?$allocator@D@2@@std@@HU?$less@V?$basic_string@DU?$char_traits@D@std@@V?$allocator@D@2@@std@@@2@V?$allocator@U?$pair@$$CBV?$basic_string@DU?$char_traits@D@std@@V?$allocator@D@2@@std@@H@std@@@2@$0A@@std@@@std@@IAEPAU?$_Tree_node@U?$pair@$$CBV?$basic_string@DU?$char_traits@D@std@@V?$allocator@D@2@@std@@H@std@@PAX@2@ABV?$basic_string@DU?$char_traits@D@std@@V?$allocator@D@2@@2@@Z ; std::_Tree<std::_Tmap_traits<std::basic_string<char,std::char_traits<char>,std::allocator<char> >,int,std::less<std::basic_string<char,std::char_traits<char>,std::allocator<char> > >,std::allocator<std::pair<std::basic_string<char,std::char_traits<char>,std::allocator<char> > const ,int> >,0> >::_Lbound
PUBLIC	?erase@?$_Tree@V?$_Tmap_traits@V?$basic_string@DU?$char_traits@D@std@@V?$allocator@D@2@@std@@HU?$less@V?$basic_string@DU?$char_traits@D@std@@V?$allocator@D@2@@std@@@2@V?$allocator@U?$pair@$$CBV?$basic_string@DU?$char_traits@D@std@@V?$allocator@D@2@@std@@H@std@@@2@$0A@@std@@@std@@QAE?AV?$_Tree_iterator@V?$_Tree_val@U?$_Tree_simple_types@U?$pair@$$CBV?$basic_string@DU?$char_traits@D@std@@V?$allocator@D@2@@std@@H@std@@@std@@@std@@@2@V?$_Tree_const_iterator@V?$_Tree_val@U?$_Tree_simple_types@U?$pair@$$CBV?$basic_string@DU?$char_traits@D@std@@V?$allocator@D@2@@std@@H@std@@@std@@@std@@@2@0@Z ; std::_Tree<std::_Tmap_traits<std::basic_string<char,std::char_traits<char>,std::allocator<char> >,int,std::less<std::basic_string<char,std::char_traits<char>,std::allocator<char> > >,std::allocator<std::pair<std::basic_string<char,std::char_traits<char>,std::allocator<char> > const ,int> >,0> >::erase
PUBLIC	?begin@?$_Tree@V?$_Tmap_traits@V?$basic_string@DU?$char_traits@D@std@@V?$allocator@D@2@@std@@HU?$less@V?$basic_string@DU?$char_traits@D@std@@V?$allocator@D@2@@std@@@2@V?$allocator@U?$pair@$$CBV?$basic_string@DU?$char_traits@D@std@@V?$allocator@D@2@@std@@H@std@@@2@$0A@@std@@@std@@QAE?AV?$_Tree_iterator@V?$_Tree_val@U?$_Tree_simple_types@U?$pair@$$CBV?$basic_string@DU?$char_traits@D@std@@V?$allocator@D@2@@std@@H@std@@@std@@@std@@@2@XZ ; std::_Tree<std::_Tmap_traits<std::basic_string<char,std::char_traits<char>,std::allocator<char> >,int,std::less<std::basic_string<char,std::char_traits<char>,std::allocator<char> > >,std::allocator<std::pair<std::basic_string<char,std::char_traits<char>,std::allocator<char> > const ,int> >,0> >::begin
PUBLIC	?_Myval@?$_List_val@U?$_List_simple_types@USArgumet@script@@@std@@@std@@SAAAUSArgumet@script@@PAU?$_List_node@USArgumet@script@@PAX@2@@Z ; std::_List_val<std::_List_simple_types<script::SArgumet> >::_Myval
PUBLIC	?_Prevnode@?$_List_val@U?$_List_simple_types@USArgumet@script@@@std@@@std@@SAAAPAU?$_List_node@USArgumet@script@@PAX@2@PAU32@@Z ; std::_List_val<std::_List_simple_types<script::SArgumet> >::_Prevnode
PUBLIC	??0?$_Wrap_alloc@V?$allocator@U?$_List_node@USArgumet@script@@PAX@std@@@std@@@std@@QAE@XZ ; std::_Wrap_alloc<std::allocator<std::_List_node<script::SArgumet,void *> > >::_Wrap_alloc<std::allocator<std::_List_node<script::SArgumet,void *> > >
PUBLIC	?_Freeheadnode@?$_List_alloc@$0A@U?$_List_base_types@USArgumet@script@@V?$allocator@USArgumet@script@@@std@@@std@@@std@@QAEXPAU?$_List_node@USArgumet@script@@PAX@2@@Z ; std::_List_alloc<0,std::_List_base_types<script::SArgumet,std::allocator<script::SArgumet> > >::_Freeheadnode
PUBLIC	??0?$_List_alloc@$0A@U?$_List_base_types@USArgumet@script@@V?$allocator@USArgumet@script@@@std@@@std@@@std@@QAE@ABV?$allocator@USArgumet@script@@@1@@Z ; std::_List_alloc<0,std::_List_base_types<script::SArgumet,std::allocator<script::SArgumet> > >::_List_alloc<0,std::_List_base_types<script::SArgumet,std::allocator<script::SArgumet> > >
PUBLIC	?_Freenode@?$_List_buy@USArgumet@script@@V?$allocator@USArgumet@script@@@std@@@std@@QAEXPAU?$_List_node@USArgumet@script@@PAX@2@@Z ; std::_List_buy<script::SArgumet,std::allocator<script::SArgumet> >::_Freenode
PUBLIC	??0?$_Vector_alloc@$0A@U?$_Vec_base_types@PAVCGraphicTextInstance@@V?$allocator@PAVCGraphicTextInstance@@@std@@@std@@@std@@QAE@ABV?$allocator@PAVCGraphicTextInstance@@@1@@Z ; std::_Vector_alloc<0,std::_Vec_base_types<CGraphicTextInstance *,std::allocator<CGraphicTextInstance *> > >::_Vector_alloc<0,std::_Vec_base_types<CGraphicTextInstance *,std::allocator<CGraphicTextInstance *> > >
PUBLIC	?_Orphan_range@?$vector@PAVCGraphicTextInstance@@V?$allocator@PAVCGraphicTextInstance@@@std@@@std@@IBEXPAPAVCGraphicTextInstance@@0@Z ; std::vector<CGraphicTextInstance *,std::allocator<CGraphicTextInstance *> >::_Orphan_range
PUBLIC	?_Reserve@?$vector@PAVCGraphicTextInstance@@V?$allocator@PAVCGraphicTextInstance@@@std@@@std@@IAEXI@Z ; std::vector<CGraphicTextInstance *,std::allocator<CGraphicTextInstance *> >::_Reserve
PUBLIC	?_Inside@?$vector@PAVCGraphicTextInstance@@V?$allocator@PAVCGraphicTextInstance@@@std@@@std@@IBE_NPBQAVCGraphicTextInstance@@@Z ; std::vector<CGraphicTextInstance *,std::allocator<CGraphicTextInstance *> >::_Inside
PUBLIC	?clear@?$vector@PAVCGraphicTextInstance@@V?$allocator@PAVCGraphicTextInstance@@@std@@@std@@QAEXXZ ; std::vector<CGraphicTextInstance *,std::allocator<CGraphicTextInstance *> >::clear
PUBLIC	?end@?$vector@PAVCGraphicTextInstance@@V?$allocator@PAVCGraphicTextInstance@@@std@@@std@@QAE?AV?$_Vector_iterator@V?$_Vector_val@U?$_Simple_types@PAVCGraphicTextInstance@@@std@@@std@@@2@XZ ; std::vector<CGraphicTextInstance *,std::allocator<CGraphicTextInstance *> >::end
PUBLIC	?begin@?$vector@PAVCGraphicTextInstance@@V?$allocator@PAVCGraphicTextInstance@@@std@@@std@@QAE?AV?$_Vector_iterator@V?$_Vector_val@U?$_Simple_types@PAVCGraphicTextInstance@@@std@@@std@@@2@XZ ; std::vector<CGraphicTextInstance *,std::allocator<CGraphicTextInstance *> >::begin
PUBLIC	?Delete@?$CDynamicPool@VCGraphicTextInstance@@@@KAXPAVCGraphicTextInstance@@@Z ; CDynamicPool<CGraphicTextInstance>::Delete
PUBLIC	?pointer_to@?$pointer_traits@PAU?$pair@$$CBV?$basic_string@DU?$char_traits@D@std@@V?$allocator@D@2@@std@@H@std@@@std@@SAPAU?$pair@$$CBV?$basic_string@DU?$char_traits@D@std@@V?$allocator@D@2@@std@@H@2@AAU32@@Z ; std::pointer_traits<std::pair<std::basic_string<char,std::char_traits<char>,std::allocator<char> > const ,int> *>::pointer_to
PUBLIC	?_Mynode@?$_Tree_unchecked_const_iterator@V?$_Tree_val@U?$_Tree_simple_types@U?$pair@$$CBV?$basic_string@DU?$char_traits@D@std@@V?$allocator@D@2@@std@@H@std@@@std@@@std@@U_Iterator_base0@2@@std@@QBEPAU?$_Tree_node@U?$pair@$$CBV?$basic_string@DU?$char_traits@D@std@@V?$allocator@D@2@@std@@H@std@@PAX@2@XZ ; std::_Tree_unchecked_const_iterator<std::_Tree_val<std::_Tree_simple_types<std::pair<std::basic_string<char,std::char_traits<char>,std::allocator<char> > const ,int> > >,std::_Iterator_base0>::_Mynode
PUBLIC	??D?$_Tree_iterator@V?$_Tree_val@U?$_Tree_simple_types@U?$pair@$$CBV?$basic_string@DU?$char_traits@D@std@@V?$allocator@D@2@@std@@H@std@@@std@@@std@@@std@@QBEAAU?$pair@$$CBV?$basic_string@DU?$char_traits@D@std@@V?$allocator@D@2@@std@@H@1@XZ ; std::_Tree_iterator<std::_Tree_val<std::_Tree_simple_types<std::pair<std::basic_string<char,std::char_traits<char>,std::allocator<char> > const ,int> > > >::operator*
PUBLIC	??0?$_Tree_iterator@V?$_Tree_val@U?$_Tree_simple_types@U?$pair@$$CBV?$basic_string@DU?$char_traits@D@std@@V?$allocator@D@2@@std@@H@std@@@std@@@std@@@std@@QAE@PAU?$_Tree_node@U?$pair@$$CBV?$basic_string@DU?$char_traits@D@std@@V?$allocator@D@2@@std@@H@std@@PAX@1@PBV?$_Tree_val@U?$_Tree_simple_types@U?$pair@$$CBV?$basic_string@DU?$char_traits@D@std@@V?$allocator@D@2@@std@@H@std@@@std@@@1@@Z ; std::_Tree_iterator<std::_Tree_val<std::_Tree_simple_types<std::pair<std::basic_string<char,std::char_traits<char>,std::allocator<char> > const ,int> > > >::_Tree_iterator<std::_Tree_val<std::_Tree_simple_types<std::pair<std::basic_string<char,std::char_traits<char>,std::allocator<char> > const ,int> > > >
PUBLIC	??8?$_List_const_iterator@V?$_List_val@U?$_List_simple_types@USTextLine@CPythonEventManager@@@std@@@std@@@std@@QBE_NABV01@@Z ; std::_List_const_iterator<std::_List_val<std::_List_simple_types<CPythonEventManager::STextLine> > >::operator==
PUBLIC	??E?$_List_const_iterator@V?$_List_val@U?$_List_simple_types@USTextLine@CPythonEventManager@@@std@@@std@@@std@@QAEAAV01@XZ ; std::_List_const_iterator<std::_List_val<std::_List_simple_types<CPythonEventManager::STextLine> > >::operator++
PUBLIC	??D?$_List_const_iterator@V?$_List_val@U?$_List_simple_types@USTextLine@CPythonEventManager@@@std@@@std@@@std@@QBEABUSTextLine@CPythonEventManager@@XZ ; std::_List_const_iterator<std::_List_val<std::_List_simple_types<CPythonEventManager::STextLine> > >::operator*
PUBLIC	??0?$_List_iterator@V?$_List_val@U?$_List_simple_types@USTextLine@CPythonEventManager@@@std@@@std@@@std@@QAE@PAU?$_List_node@USTextLine@CPythonEventManager@@PAX@1@PBV?$_List_val@U?$_List_simple_types@USTextLine@CPythonEventManager@@@std@@@1@@Z ; std::_List_iterator<std::_List_val<std::_List_simple_types<CPythonEventManager::STextLine> > >::_List_iterator<std::_List_val<std::_List_simple_types<CPythonEventManager::STextLine> > >
PUBLIC	??8?$_List_const_iterator@V?$_List_val@U?$_List_simple_types@USArgumet@script@@@std@@@std@@@std@@QBE_NABV01@@Z ; std::_List_const_iterator<std::_List_val<std::_List_simple_types<script::SArgumet> > >::operator==
PUBLIC	??E?$_List_const_iterator@V?$_List_val@U?$_List_simple_types@USArgumet@script@@@std@@@std@@@std@@QAEAAV01@XZ ; std::_List_const_iterator<std::_List_val<std::_List_simple_types<script::SArgumet> > >::operator++
PUBLIC	??D?$_List_const_iterator@V?$_List_val@U?$_List_simple_types@USArgumet@script@@@std@@@std@@@std@@QBEABUSArgumet@script@@XZ ; std::_List_const_iterator<std::_List_val<std::_List_simple_types<script::SArgumet> > >::operator*
PUBLIC	??0?$_List_iterator@V?$_List_val@U?$_List_simple_types@USArgumet@script@@@std@@@std@@@std@@QAE@PAU?$_List_node@USArgumet@script@@PAX@1@PBV?$_List_val@U?$_List_simple_types@USArgumet@script@@@std@@@1@@Z ; std::_List_iterator<std::_List_val<std::_List_simple_types<script::SArgumet> > >::_List_iterator<std::_List_val<std::_List_simple_types<script::SArgumet> > >
PUBLIC	?Destroy@?$CDynamicPool@USEventSet@CPythonEventManager@@@@QAEXXZ ; CDynamicPool<CPythonEventManager::SEventSet>::Destroy
PUBLIC	?_Getal@?$_Vector_alloc@$0A@U?$_Vec_base_types@PAUSEventSet@CPythonEventManager@@V?$allocator@PAUSEventSet@CPythonEventManager@@@std@@@std@@@std@@QBE?AU?$_Wrap_alloc@V?$allocator@PAUSEventSet@CPythonEventManager@@@std@@@2@XZ ; std::_Vector_alloc<0,std::_Vec_base_types<CPythonEventManager::SEventSet *,std::allocator<CPythonEventManager::SEventSet *> > >::_Getal
PUBLIC	??0?$_Vector_alloc@$0A@U?$_Vec_base_types@PAUSEventSet@CPythonEventManager@@V?$allocator@PAUSEventSet@CPythonEventManager@@@std@@@std@@@std@@QAE@ABV?$allocator@PAUSEventSet@CPythonEventManager@@@1@@Z ; std::_Vector_alloc<0,std::_Vec_base_types<CPythonEventManager::SEventSet *,std::allocator<CPythonEventManager::SEventSet *> > >::_Vector_alloc<0,std::_Vec_base_types<CPythonEventManager::SEventSet *,std::allocator<CPythonEventManager::SEventSet *> > >
PUBLIC	??0?$allocator@PAUSEventSet@CPythonEventManager@@@std@@QAE@XZ ; std::allocator<CPythonEventManager::SEventSet *>::allocator<CPythonEventManager::SEventSet *>
PUBLIC	?_Orphan_range@?$vector@PAUSEventSet@CPythonEventManager@@V?$allocator@PAUSEventSet@CPythonEventManager@@@std@@@std@@IBEXPAPAUSEventSet@CPythonEventManager@@0@Z ; std::vector<CPythonEventManager::SEventSet *,std::allocator<CPythonEventManager::SEventSet *> >::_Orphan_range
PUBLIC	?_Tidy@?$vector@PAUSEventSet@CPythonEventManager@@V?$allocator@PAUSEventSet@CPythonEventManager@@@std@@@std@@IAEXXZ ; std::vector<CPythonEventManager::SEventSet *,std::allocator<CPythonEventManager::SEventSet *> >::_Tidy
PUBLIC	?_Reserve@?$vector@PAUSEventSet@CPythonEventManager@@V?$allocator@PAUSEventSet@CPythonEventManager@@@std@@@std@@IAEXI@Z ; std::vector<CPythonEventManager::SEventSet *,std::allocator<CPythonEventManager::SEventSet *> >::_Reserve
PUBLIC	?_Inside@?$vector@PAUSEventSet@CPythonEventManager@@V?$allocator@PAUSEventSet@CPythonEventManager@@@std@@@std@@IBE_NPBQAUSEventSet@CPythonEventManager@@@Z ; std::vector<CPythonEventManager::SEventSet *,std::allocator<CPythonEventManager::SEventSet *> >::_Inside
PUBLIC	?_Destroy@?$vector@PAUSEventSet@CPythonEventManager@@V?$allocator@PAUSEventSet@CPythonEventManager@@@std@@@std@@IAEXPAPAUSEventSet@CPythonEventManager@@0@Z ; std::vector<CPythonEventManager::SEventSet *,std::allocator<CPythonEventManager::SEventSet *> >::_Destroy
PUBLIC	?pop_back@?$vector@PAUSEventSet@CPythonEventManager@@V?$allocator@PAUSEventSet@CPythonEventManager@@@std@@@std@@QAEXXZ ; std::vector<CPythonEventManager::SEventSet *,std::allocator<CPythonEventManager::SEventSet *> >::pop_back
PUBLIC	?push_back@?$vector@PAUSEventSet@CPythonEventManager@@V?$allocator@PAUSEventSet@CPythonEventManager@@@std@@@std@@QAEXABQAUSEventSet@CPythonEventManager@@@Z ; std::vector<CPythonEventManager::SEventSet *,std::allocator<CPythonEventManager::SEventSet *> >::push_back
PUBLIC	?back@?$vector@PAUSEventSet@CPythonEventManager@@V?$allocator@PAUSEventSet@CPythonEventManager@@@std@@@std@@QAEAAPAUSEventSet@CPythonEventManager@@XZ ; std::vector<CPythonEventManager::SEventSet *,std::allocator<CPythonEventManager::SEventSet *> >::back
PUBLIC	?empty@?$vector@PAUSEventSet@CPythonEventManager@@V?$allocator@PAUSEventSet@CPythonEventManager@@@std@@@std@@QBE_NXZ ; std::vector<CPythonEventManager::SEventSet *,std::allocator<CPythonEventManager::SEventSet *> >::empty
PUBLIC	?_Prevnode@?$_List_val@U?$_List_simple_types@USTextLine@CPythonEventManager@@@std@@@std@@SAAAPAU?$_List_node@USTextLine@CPythonEventManager@@PAX@2@PAU32@@Z ; std::_List_val<std::_List_simple_types<CPythonEventManager::STextLine> >::_Prevnode
PUBLIC	?_Nextnode@?$_List_val@U?$_List_simple_types@USTextLine@CPythonEventManager@@@std@@@std@@SAAAPAU?$_List_node@USTextLine@CPythonEventManager@@PAX@2@PAU32@@Z ; std::_List_val<std::_List_simple_types<CPythonEventManager::STextLine> >::_Nextnode
PUBLIC	??1?$_List_alloc@$0A@U?$_List_base_types@USTextLine@CPythonEventManager@@V?$allocator@USTextLine@CPythonEventManager@@@std@@@std@@@std@@QAE@XZ ; std::_List_alloc<0,std::_List_base_types<CPythonEventManager::STextLine,std::allocator<CPythonEventManager::STextLine> > >::~_List_alloc<0,std::_List_base_types<CPythonEventManager::STextLine,std::allocator<CPythonEventManager::STextLine> > >
PUBLIC	??0?$allocator@USTextLine@CPythonEventManager@@@std@@QAE@XZ ; std::allocator<CPythonEventManager::STextLine>::allocator<CPythonEventManager::STextLine>
PUBLIC	?_Freenode@?$_List_buy@USTextLine@CPythonEventManager@@V?$allocator@USTextLine@CPythonEventManager@@@std@@@std@@QAEXPAU?$_List_node@USTextLine@CPythonEventManager@@PAX@2@@Z ; std::_List_buy<CPythonEventManager::STextLine,std::allocator<CPythonEventManager::STextLine> >::_Freenode
PUBLIC	??0?$_List_buy@USTextLine@CPythonEventManager@@V?$allocator@USTextLine@CPythonEventManager@@@std@@@std@@QAE@ABV?$allocator@USTextLine@CPythonEventManager@@@1@@Z ; std::_List_buy<CPythonEventManager::STextLine,std::allocator<CPythonEventManager::STextLine> >::_List_buy<CPythonEventManager::STextLine,std::allocator<CPythonEventManager::STextLine> >
PUBLIC	?_Tidy@?$list@USTextLine@CPythonEventManager@@V?$allocator@USTextLine@CPythonEventManager@@@std@@@std@@QAEXXZ ; std::list<CPythonEventManager::STextLine,std::allocator<CPythonEventManager::STextLine> >::_Tidy
PUBLIC	?_Unchecked_end@?$list@USTextLine@CPythonEventManager@@V?$allocator@USTextLine@CPythonEventManager@@@std@@@std@@QAE?AV?$_List_unchecked_iterator@V?$_List_val@U?$_List_simple_types@USTextLine@CPythonEventManager@@@std@@@std@@@2@XZ ; std::list<CPythonEventManager::STextLine,std::allocator<CPythonEventManager::STextLine> >::_Unchecked_end
PUBLIC	??1?$_Tree_alloc@$0A@U?$_Tree_base_types@U?$pair@$$CBV?$basic_string@DU?$char_traits@D@std@@V?$allocator@D@2@@std@@H@std@@V?$allocator@U?$pair@$$CBV?$basic_string@DU?$char_traits@D@std@@V?$allocator@D@2@@std@@H@std@@@2@@std@@@std@@QAE@XZ ; std::_Tree_alloc<0,std::_Tree_base_types<std::pair<std::basic_string<char,std::char_traits<char>,std::allocator<char> > const ,int>,std::allocator<std::pair<std::basic_string<char,std::char_traits<char>,std::allocator<char> > const ,int> > > >::~_Tree_alloc<0,std::_Tree_base_types<std::pair<std::basic_string<char,std::char_traits<char>,std::allocator<char> > const ,int>,std::allocator<std::pair<std::basic_string<char,std::char_traits<char>,std::allocator<char> > const ,int> > > >
PUBLIC	??0?$allocator@U?$pair@$$CBV?$basic_string@DU?$char_traits@D@std@@V?$allocator@D@2@@std@@H@std@@@std@@QAE@XZ ; std::allocator<std::pair<std::basic_string<char,std::char_traits<char>,std::allocator<char> > const ,int> >::allocator<std::pair<std::basic_string<char,std::char_traits<char>,std::allocator<char> > const ,int> >
PUBLIC	?_Getcomp@?$_Tree_comp@$0A@V?$_Tmap_traits@V?$basic_string@DU?$char_traits@D@std@@V?$allocator@D@2@@std@@HU?$less@V?$basic_string@DU?$char_traits@D@std@@V?$allocator@D@2@@std@@@2@V?$allocator@U?$pair@$$CBV?$basic_string@DU?$char_traits@D@std@@V?$allocator@D@2@@std@@H@std@@@2@$0A@@std@@@std@@QBE?AU?$less@V?$basic_string@DU?$char_traits@D@std@@V?$allocator@D@2@@std@@@2@XZ ; std::_Tree_comp<0,std::_Tmap_traits<std::basic_string<char,std::char_traits<char>,std::allocator<char> >,int,std::less<std::basic_string<char,std::char_traits<char>,std::allocator<char> > >,std::allocator<std::pair<std::basic_string<char,std::char_traits<char>,std::allocator<char> > const ,int> >,0> >::_Getcomp
PUBLIC	?_Key@?$_Tree@V?$_Tmap_traits@V?$basic_string@DU?$char_traits@D@std@@V?$allocator@D@2@@std@@HU?$less@V?$basic_string@DU?$char_traits@D@std@@V?$allocator@D@2@@std@@@2@V?$allocator@U?$pair@$$CBV?$basic_string@DU?$char_traits@D@std@@V?$allocator@D@2@@std@@H@std@@@2@$0A@@std@@@std@@IBEABV?$basic_string@DU?$char_traits@D@std@@V?$allocator@D@2@@2@PAU?$_Tree_node@U?$pair@$$CBV?$basic_string@DU?$char_traits@D@std@@V?$allocator@D@2@@std@@H@std@@PAX@2@@Z ; std::_Tree<std::_Tmap_traits<std::basic_string<char,std::char_traits<char>,std::allocator<char> >,int,std::less<std::basic_string<char,std::char_traits<char>,std::allocator<char> > >,std::allocator<std::pair<std::basic_string<char,std::char_traits<char>,std::allocator<char> > const ,int> >,0> >::_Key
PUBLIC	?_Tidy@?$_Tree@V?$_Tmap_traits@V?$basic_string@DU?$char_traits@D@std@@V?$allocator@D@2@@std@@HU?$less@V?$basic_string@DU?$char_traits@D@std@@V?$allocator@D@2@@std@@@2@V?$allocator@U?$pair@$$CBV?$basic_string@DU?$char_traits@D@std@@V?$allocator@D@2@@std@@H@std@@@2@$0A@@std@@@std@@IAEXXZ ; std::_Tree<std::_Tmap_traits<std::basic_string<char,std::char_traits<char>,std::allocator<char> >,int,std::less<std::basic_string<char,std::char_traits<char>,std::allocator<char> > >,std::allocator<std::pair<std::basic_string<char,std::char_traits<char>,std::allocator<char> > const ,int> >,0> >::_Tidy
PUBLIC	?lower_bound@?$_Tree@V?$_Tmap_traits@V?$basic_string@DU?$char_traits@D@std@@V?$allocator@D@2@@std@@HU?$less@V?$basic_string@DU?$char_traits@D@std@@V?$allocator@D@2@@std@@@2@V?$allocator@U?$pair@$$CBV?$basic_string@DU?$char_traits@D@std@@V?$allocator@D@2@@std@@H@std@@@2@$0A@@std@@@std@@QAE?AV?$_Tree_iterator@V?$_Tree_val@U?$_Tree_simple_types@U?$pair@$$CBV?$basic_string@DU?$char_traits@D@std@@V?$allocator@D@2@@std@@H@std@@@std@@@std@@@2@ABV?$basic_string@DU?$char_traits@D@std@@V?$allocator@D@2@@2@@Z ; std::_Tree<std::_Tmap_traits<std::basic_string<char,std::char_traits<char>,std::allocator<char> >,int,std::less<std::basic_string<char,std::char_traits<char>,std::allocator<char> > >,std::allocator<std::pair<std::basic_string<char,std::char_traits<char>,std::allocator<char> > const ,int> >,0> >::lower_bound
PUBLIC	??0?$_Tree@V?$_Tmap_traits@V?$basic_string@DU?$char_traits@D@std@@V?$allocator@D@2@@std@@HU?$less@V?$basic_string@DU?$char_traits@D@std@@V?$allocator@D@2@@std@@@2@V?$allocator@U?$pair@$$CBV?$basic_string@DU?$char_traits@D@std@@V?$allocator@D@2@@std@@H@std@@@2@$0A@@std@@@std@@QAE@ABU?$less@V?$basic_string@DU?$char_traits@D@std@@V?$allocator@D@2@@std@@@1@ABV?$allocator@U?$pair@$$CBV?$basic_string@DU?$char_traits@D@std@@V?$allocator@D@2@@std@@H@std@@@1@@Z ; std::_Tree<std::_Tmap_traits<std::basic_string<char,std::char_traits<char>,std::allocator<char> >,int,std::less<std::basic_string<char,std::char_traits<char>,std::allocator<char> > >,std::allocator<std::pair<std::basic_string<char,std::char_traits<char>,std::allocator<char> > const ,int> >,0> >::_Tree<std::_Tmap_traits<std::basic_string<char,std::char_traits<char>,std::allocator<char> >,int,std::less<std::basic_string<char,std::char_traits<char>,std::allocator<char> > >,std::allocator<std::pair<std::basic_string<char,std::char_traits<char>,std::allocator<char> > const ,int> >,0> >
PUBLIC	?_Nextnode@?$_List_val@U?$_List_simple_types@USArgumet@script@@@std@@@std@@SAAAPAU?$_List_node@USArgumet@script@@PAX@2@PAU32@@Z ; std::_List_val<std::_List_simple_types<script::SArgumet> >::_Nextnode
PUBLIC	?_Getal@?$_List_alloc@$0A@U?$_List_base_types@USArgumet@script@@V?$allocator@USArgumet@script@@@std@@@std@@@std@@QBE?AU?$_Wrap_alloc@V?$allocator@U?$_List_node@USArgumet@script@@PAX@std@@@std@@@2@XZ ; std::_List_alloc<0,std::_List_base_types<script::SArgumet,std::allocator<script::SArgumet> > >::_Getal
PUBLIC	??1?$_List_alloc@$0A@U?$_List_base_types@USArgumet@script@@V?$allocator@USArgumet@script@@@std@@@std@@@std@@QAE@XZ ; std::_List_alloc<0,std::_List_base_types<script::SArgumet,std::allocator<script::SArgumet> > >::~_List_alloc<0,std::_List_base_types<script::SArgumet,std::allocator<script::SArgumet> > >
PUBLIC	??0?$allocator@USArgumet@script@@@std@@QAE@XZ	; std::allocator<script::SArgumet>::allocator<script::SArgumet>
PUBLIC	??0?$_List_buy@USArgumet@script@@V?$allocator@USArgumet@script@@@std@@@std@@QAE@ABV?$allocator@USArgumet@script@@@1@@Z ; std::_List_buy<script::SArgumet,std::allocator<script::SArgumet> >::_List_buy<script::SArgumet,std::allocator<script::SArgumet> >
PUBLIC	?_Tidy@?$list@USArgumet@script@@V?$allocator@USArgumet@script@@@std@@@std@@QAEXXZ ; std::list<script::SArgumet,std::allocator<script::SArgumet> >::_Tidy
PUBLIC	?clear@?$list@USArgumet@script@@V?$allocator@USArgumet@script@@@std@@@std@@QAEXXZ ; std::list<script::SArgumet,std::allocator<script::SArgumet> >::clear
PUBLIC	?pop_back@?$vector@PAVCGraphicTextInstance@@V?$allocator@PAVCGraphicTextInstance@@@std@@@std@@QAEXXZ ; std::vector<CGraphicTextInstance *,std::allocator<CGraphicTextInstance *> >::pop_back
PUBLIC	?push_back@?$vector@PAVCGraphicTextInstance@@V?$allocator@PAVCGraphicTextInstance@@@std@@@std@@QAEXABQAVCGraphicTextInstance@@@Z ; std::vector<CGraphicTextInstance *,std::allocator<CGraphicTextInstance *> >::push_back
PUBLIC	?back@?$vector@PAVCGraphicTextInstance@@V?$allocator@PAVCGraphicTextInstance@@@std@@@std@@QAEAAPAVCGraphicTextInstance@@XZ ; std::vector<CGraphicTextInstance *,std::allocator<CGraphicTextInstance *> >::back
PUBLIC	?empty@?$vector@PAVCGraphicTextInstance@@V?$allocator@PAVCGraphicTextInstance@@@std@@@std@@QBE_NXZ ; std::vector<CGraphicTextInstance *,std::allocator<CGraphicTextInstance *> >::empty
PUBLIC	??0?$vector@PAVCGraphicTextInstance@@V?$allocator@PAVCGraphicTextInstance@@@std@@@std@@QAE@XZ ; std::vector<CGraphicTextInstance *,std::allocator<CGraphicTextInstance *> >::vector<CGraphicTextInstance *,std::allocator<CGraphicTextInstance *> >
PUBLIC	?Destroy@?$CDynamicPool@VCGraphicTextInstance@@@@QAEXXZ ; CDynamicPool<CGraphicTextInstance>::Destroy
PUBLIC	??1?$_Tree_buy@U?$pair@$$CBV?$basic_string@DU?$char_traits@D@std@@V?$allocator@D@2@@std@@H@std@@V?$allocator@U?$pair@$$CBV?$basic_string@DU?$char_traits@D@std@@V?$allocator@D@2@@std@@H@std@@@2@@std@@QAE@XZ ; std::_Tree_buy<std::pair<std::basic_string<char,std::char_traits<char>,std::allocator<char> > const ,int>,std::allocator<std::pair<std::basic_string<char,std::char_traits<char>,std::allocator<char> > const ,int> > >::~_Tree_buy<std::pair<std::basic_string<char,std::char_traits<char>,std::allocator<char> > const ,int>,std::allocator<std::pair<std::basic_string<char,std::char_traits<char>,std::allocator<char> > const ,int> > >
PUBLIC	??_G?$CDynamicPool@USEventSet@CPythonEventManager@@@@UAEPAXI@Z ; CDynamicPool<CPythonEventManager::SEventSet>::`scalar deleting destructor'
PUBLIC	??1?$_List_buy@USTextLine@CPythonEventManager@@V?$allocator@USTextLine@CPythonEventManager@@@std@@@std@@QAE@XZ ; std::_List_buy<CPythonEventManager::STextLine,std::allocator<CPythonEventManager::STextLine> >::~_List_buy<CPythonEventManager::STextLine,std::allocator<CPythonEventManager::STextLine> >
PUBLIC	??1?$_Tree_comp@$0A@V?$_Tmap_traits@V?$basic_string@DU?$char_traits@D@std@@V?$allocator@D@2@@std@@HU?$less@V?$basic_string@DU?$char_traits@D@std@@V?$allocator@D@2@@std@@@2@V?$allocator@U?$pair@$$CBV?$basic_string@DU?$char_traits@D@std@@V?$allocator@D@2@@std@@H@std@@@2@$0A@@std@@@std@@QAE@XZ ; std::_Tree_comp<0,std::_Tmap_traits<std::basic_string<char,std::char_traits<char>,std::allocator<char> >,int,std::less<std::basic_string<char,std::char_traits<char>,std::allocator<char> > >,std::allocator<std::pair<std::basic_string<char,std::char_traits<char>,std::allocator<char> > const ,int> >,0> >::~_Tree_comp<0,std::_Tmap_traits<std::basic_string<char,std::char_traits<char>,std::allocator<char> >,int,std::less<std::basic_string<char,std::char_traits<char>,std::allocator<char> > >,std::allocator<std::pair<std::basic_string<char,std::char_traits<char>,std::allocator<char> > const ,int> >,0> >
PUBLIC	??_G?$CSingleton@VCPythonEventManager@@@@UAEPAXI@Z ; CSingleton<CPythonEventManager>::`scalar deleting destructor'
PUBLIC	??1?$_List_buy@USArgumet@script@@V?$allocator@USArgumet@script@@@std@@@std@@QAE@XZ ; std::_List_buy<script::SArgumet,std::allocator<script::SArgumet> >::~_List_buy<script::SArgumet,std::allocator<script::SArgumet> >
PUBLIC	??8?$_Tree_const_iterator@V?$_Tree_val@U?$_Tree_simple_types@U?$pair@$$CBV?$basic_string@DU?$char_traits@D@std@@V?$allocator@D@2@@std@@H@std@@@std@@@std@@@std@@QBE_NABV01@@Z ; std::_Tree_const_iterator<std::_Tree_val<std::_Tree_simple_types<std::pair<std::basic_string<char,std::char_traits<char>,std::allocator<char> > const ,int> > > >::operator==
PUBLIC	??C?$_Tree_iterator@V?$_Tree_val@U?$_Tree_simple_types@U?$pair@$$CBV?$basic_string@DU?$char_traits@D@std@@V?$allocator@D@2@@std@@H@std@@@std@@@std@@@std@@QBEPAU?$pair@$$CBV?$basic_string@DU?$char_traits@D@std@@V?$allocator@D@2@@std@@H@1@XZ ; std::_Tree_iterator<std::_Tree_val<std::_Tree_simple_types<std::pair<std::basic_string<char,std::char_traits<char>,std::allocator<char> > const ,int> > > >::operator->
PUBLIC	??9?$_List_const_iterator@V?$_List_val@U?$_List_simple_types@USTextLine@CPythonEventManager@@@std@@@std@@@std@@QBE_NABV01@@Z ; std::_List_const_iterator<std::_List_val<std::_List_simple_types<CPythonEventManager::STextLine> > >::operator!=
PUBLIC	??E?$_List_iterator@V?$_List_val@U?$_List_simple_types@USTextLine@CPythonEventManager@@@std@@@std@@@std@@QAEAAV01@XZ ; std::_List_iterator<std::_List_val<std::_List_simple_types<CPythonEventManager::STextLine> > >::operator++
PUBLIC	??D?$_List_iterator@V?$_List_val@U?$_List_simple_types@USTextLine@CPythonEventManager@@@std@@@std@@@std@@QBEAAUSTextLine@CPythonEventManager@@XZ ; std::_List_iterator<std::_List_val<std::_List_simple_types<CPythonEventManager::STextLine> > >::operator*
PUBLIC	??9?$_List_const_iterator@V?$_List_val@U?$_List_simple_types@USArgumet@script@@@std@@@std@@@std@@QBE_NABV01@@Z ; std::_List_const_iterator<std::_List_val<std::_List_simple_types<script::SArgumet> > >::operator!=
PUBLIC	??E?$_List_iterator@V?$_List_val@U?$_List_simple_types@USArgumet@script@@@std@@@std@@@std@@QAEAAV01@XZ ; std::_List_iterator<std::_List_val<std::_List_simple_types<script::SArgumet> > >::operator++
PUBLIC	??D?$_List_iterator@V?$_List_val@U?$_List_simple_types@USArgumet@script@@@std@@@std@@@std@@QBEAAUSArgumet@script@@XZ ; std::_List_iterator<std::_List_val<std::_List_simple_types<script::SArgumet> > >::operator*
PUBLIC	?Free@?$CDynamicPool@USEventSet@CPythonEventManager@@@@QAEXPAUSEventSet@CPythonEventManager@@@Z ; CDynamicPool<CPythonEventManager::SEventSet>::Free
PUBLIC	?Alloc@?$CDynamicPool@USEventSet@CPythonEventManager@@@@QAEPAUSEventSet@CPythonEventManager@@XZ ; CDynamicPool<CPythonEventManager::SEventSet>::Alloc
PUBLIC	?Clear@?$CDynamicPool@USEventSet@CPythonEventManager@@@@QAEXXZ ; CDynamicPool<CPythonEventManager::SEventSet>::Clear
PUBLIC	??1?$CDynamicPool@USEventSet@CPythonEventManager@@@@UAE@XZ ; CDynamicPool<CPythonEventManager::SEventSet>::~CDynamicPool<CPythonEventManager::SEventSet>
PUBLIC	??0?$CDynamicPool@USEventSet@CPythonEventManager@@@@QAE@XZ ; CDynamicPool<CPythonEventManager::SEventSet>::CDynamicPool<CPythonEventManager::SEventSet>
PUBLIC	?clear@?$vector@PAUSEventSet@CPythonEventManager@@V?$allocator@PAUSEventSet@CPythonEventManager@@@std@@@std@@QAEXXZ ; std::vector<CPythonEventManager::SEventSet *,std::allocator<CPythonEventManager::SEventSet *> >::clear
PUBLIC	??A?$vector@PAUSEventSet@CPythonEventManager@@V?$allocator@PAUSEventSet@CPythonEventManager@@@std@@@std@@QAEAAPAUSEventSet@CPythonEventManager@@I@Z ; std::vector<CPythonEventManager::SEventSet *,std::allocator<CPythonEventManager::SEventSet *> >::operator[]
PUBLIC	?size@?$vector@PAUSEventSet@CPythonEventManager@@V?$allocator@PAUSEventSet@CPythonEventManager@@@std@@@std@@QBEIXZ ; std::vector<CPythonEventManager::SEventSet *,std::allocator<CPythonEventManager::SEventSet *> >::size
PUBLIC	??1?$vector@PAUSEventSet@CPythonEventManager@@V?$allocator@PAUSEventSet@CPythonEventManager@@@std@@@std@@QAE@XZ ; std::vector<CPythonEventManager::SEventSet *,std::allocator<CPythonEventManager::SEventSet *> >::~vector<CPythonEventManager::SEventSet *,std::allocator<CPythonEventManager::SEventSet *> >
PUBLIC	?push_back@?$vector@PAUSEventSet@CPythonEventManager@@V?$allocator@PAUSEventSet@CPythonEventManager@@@std@@@std@@QAEX$$QAPAUSEventSet@CPythonEventManager@@@Z ; std::vector<CPythonEventManager::SEventSet *,std::allocator<CPythonEventManager::SEventSet *> >::push_back
PUBLIC	??0?$vector@PAUSEventSet@CPythonEventManager@@V?$allocator@PAUSEventSet@CPythonEventManager@@@std@@@std@@QAE@XZ ; std::vector<CPythonEventManager::SEventSet *,std::allocator<CPythonEventManager::SEventSet *> >::vector<CPythonEventManager::SEventSet *,std::allocator<CPythonEventManager::SEventSet *> >
PUBLIC	?clear@?$list@USTextLine@CPythonEventManager@@V?$allocator@USTextLine@CPythonEventManager@@@std@@@std@@QAEXXZ ; std::list<CPythonEventManager::STextLine,std::allocator<CPythonEventManager::STextLine> >::clear
PUBLIC	?push_back@?$list@USTextLine@CPythonEventManager@@V?$allocator@USTextLine@CPythonEventManager@@@std@@@std@@QAEXABUSTextLine@CPythonEventManager@@@Z ; std::list<CPythonEventManager::STextLine,std::allocator<CPythonEventManager::STextLine> >::push_back
PUBLIC	?size@?$list@USTextLine@CPythonEventManager@@V?$allocator@USTextLine@CPythonEventManager@@@std@@@std@@QBEIXZ ; std::list<CPythonEventManager::STextLine,std::allocator<CPythonEventManager::STextLine> >::size
PUBLIC	?end@?$list@USTextLine@CPythonEventManager@@V?$allocator@USTextLine@CPythonEventManager@@@std@@@std@@QAE?AV?$_List_iterator@V?$_List_val@U?$_List_simple_types@USTextLine@CPythonEventManager@@@std@@@std@@@2@XZ ; std::list<CPythonEventManager::STextLine,std::allocator<CPythonEventManager::STextLine> >::end
PUBLIC	?begin@?$list@USTextLine@CPythonEventManager@@V?$allocator@USTextLine@CPythonEventManager@@@std@@@std@@QAE?AV?$_List_iterator@V?$_List_val@U?$_List_simple_types@USTextLine@CPythonEventManager@@@std@@@std@@@2@XZ ; std::list<CPythonEventManager::STextLine,std::allocator<CPythonEventManager::STextLine> >::begin
PUBLIC	??1?$list@USTextLine@CPythonEventManager@@V?$allocator@USTextLine@CPythonEventManager@@@std@@@std@@QAE@XZ ; std::list<CPythonEventManager::STextLine,std::allocator<CPythonEventManager::STextLine> >::~list<CPythonEventManager::STextLine,std::allocator<CPythonEventManager::STextLine> >
PUBLIC	??0?$list@USTextLine@CPythonEventManager@@V?$allocator@USTextLine@CPythonEventManager@@@std@@@std@@QAE@XZ ; std::list<CPythonEventManager::STextLine,std::allocator<CPythonEventManager::STextLine> >::list<CPythonEventManager::STextLine,std::allocator<CPythonEventManager::STextLine> >
PUBLIC	?find@?$_Tree@V?$_Tmap_traits@V?$basic_string@DU?$char_traits@D@std@@V?$allocator@D@2@@std@@HU?$less@V?$basic_string@DU?$char_traits@D@std@@V?$allocator@D@2@@std@@@2@V?$allocator@U?$pair@$$CBV?$basic_string@DU?$char_traits@D@std@@V?$allocator@D@2@@std@@H@std@@@2@$0A@@std@@@std@@QAE?AV?$_Tree_iterator@V?$_Tree_val@U?$_Tree_simple_types@U?$pair@$$CBV?$basic_string@DU?$char_traits@D@std@@V?$allocator@D@2@@std@@H@std@@@std@@@std@@@2@ABV?$basic_string@DU?$char_traits@D@std@@V?$allocator@D@2@@2@@Z ; std::_Tree<std::_Tmap_traits<std::basic_string<char,std::char_traits<char>,std::allocator<char> >,int,std::less<std::basic_string<char,std::char_traits<char>,std::allocator<char> > >,std::allocator<std::pair<std::basic_string<char,std::char_traits<char>,std::allocator<char> > const ,int> >,0> >::find
PUBLIC	?end@?$_Tree@V?$_Tmap_traits@V?$basic_string@DU?$char_traits@D@std@@V?$allocator@D@2@@std@@HU?$less@V?$basic_string@DU?$char_traits@D@std@@V?$allocator@D@2@@std@@@2@V?$allocator@U?$pair@$$CBV?$basic_string@DU?$char_traits@D@std@@V?$allocator@D@2@@std@@H@std@@@2@$0A@@std@@@std@@QAE?AV?$_Tree_iterator@V?$_Tree_val@U?$_Tree_simple_types@U?$pair@$$CBV?$basic_string@DU?$char_traits@D@std@@V?$allocator@D@2@@std@@H@std@@@std@@@std@@@2@XZ ; std::_Tree<std::_Tmap_traits<std::basic_string<char,std::char_traits<char>,std::allocator<char> >,int,std::less<std::basic_string<char,std::char_traits<char>,std::allocator<char> > >,std::allocator<std::pair<std::basic_string<char,std::char_traits<char>,std::allocator<char> > const ,int> >,0> >::end
PUBLIC	??1?$_Tree@V?$_Tmap_traits@V?$basic_string@DU?$char_traits@D@std@@V?$allocator@D@2@@std@@HU?$less@V?$basic_string@DU?$char_traits@D@std@@V?$allocator@D@2@@std@@@2@V?$allocator@U?$pair@$$CBV?$basic_string@DU?$char_traits@D@std@@V?$allocator@D@2@@std@@H@std@@@2@$0A@@std@@@std@@QAE@XZ ; std::_Tree<std::_Tmap_traits<std::basic_string<char,std::char_traits<char>,std::allocator<char> >,int,std::less<std::basic_string<char,std::char_traits<char>,std::allocator<char> > >,std::allocator<std::pair<std::basic_string<char,std::char_traits<char>,std::allocator<char> > const ,int> >,0> >::~_Tree<std::_Tmap_traits<std::basic_string<char,std::char_traits<char>,std::allocator<char> >,int,std::less<std::basic_string<char,std::char_traits<char>,std::allocator<char> > >,std::allocator<std::pair<std::basic_string<char,std::char_traits<char>,std::allocator<char> > const ,int> >,0> >
PUBLIC	??A?$map@V?$basic_string@DU?$char_traits@D@std@@V?$allocator@D@2@@std@@HU?$less@V?$basic_string@DU?$char_traits@D@std@@V?$allocator@D@2@@std@@@2@V?$allocator@U?$pair@$$CBV?$basic_string@DU?$char_traits@D@std@@V?$allocator@D@2@@std@@H@std@@@2@@std@@QAEAAH$$QAV?$basic_string@DU?$char_traits@D@std@@V?$allocator@D@2@@1@@Z ; std::map<std::basic_string<char,std::char_traits<char>,std::allocator<char> >,int,std::less<std::basic_string<char,std::char_traits<char>,std::allocator<char> > >,std::allocator<std::pair<std::basic_string<char,std::char_traits<char>,std::allocator<char> > const ,int> > >::operator[]
PUBLIC	??0?$map@V?$basic_string@DU?$char_traits@D@std@@V?$allocator@D@2@@std@@HU?$less@V?$basic_string@DU?$char_traits@D@std@@V?$allocator@D@2@@std@@@2@V?$allocator@U?$pair@$$CBV?$basic_string@DU?$char_traits@D@std@@V?$allocator@D@2@@std@@H@std@@@2@@std@@QAE@XZ ; std::map<std::basic_string<char,std::char_traits<char>,std::allocator<char> >,int,std::less<std::basic_string<char,std::char_traits<char>,std::allocator<char> > >,std::allocator<std::pair<std::basic_string<char,std::char_traits<char>,std::allocator<char> > const ,int> > >::map<std::basic_string<char,std::char_traits<char>,std::allocator<char> >,int,std::less<std::basic_string<char,std::char_traits<char>,std::allocator<char> > >,std::allocator<std::pair<std::basic_string<char,std::char_traits<char>,std::allocator<char> > const ,int> > >
PUBLIC	??1?$CSingleton@VCPythonEventManager@@@@UAE@XZ	; CSingleton<CPythonEventManager>::~CSingleton<CPythonEventManager>
PUBLIC	??0?$CSingleton@VCPythonEventManager@@@@QAE@XZ	; CSingleton<CPythonEventManager>::CSingleton<CPythonEventManager>
PUBLIC	?empty@?$list@USArgumet@script@@V?$allocator@USArgumet@script@@@std@@@std@@QBE_NXZ ; std::list<script::SArgumet,std::allocator<script::SArgumet> >::empty
PUBLIC	?size@?$list@USArgumet@script@@V?$allocator@USArgumet@script@@@std@@@std@@QBEIXZ ; std::list<script::SArgumet,std::allocator<script::SArgumet> >::size
PUBLIC	?end@?$list@USArgumet@script@@V?$allocator@USArgumet@script@@@std@@@std@@QAE?AV?$_List_iterator@V?$_List_val@U?$_List_simple_types@USArgumet@script@@@std@@@std@@@2@XZ ; std::list<script::SArgumet,std::allocator<script::SArgumet> >::end
PUBLIC	?begin@?$list@USArgumet@script@@V?$allocator@USArgumet@script@@@std@@@std@@QAE?AV?$_List_iterator@V?$_List_val@U?$_List_simple_types@USArgumet@script@@@std@@@std@@@2@XZ ; std::list<script::SArgumet,std::allocator<script::SArgumet> >::begin
PUBLIC	??1?$list@USArgumet@script@@V?$allocator@USArgumet@script@@@std@@@std@@QAE@XZ ; std::list<script::SArgumet,std::allocator<script::SArgumet> >::~list<script::SArgumet,std::allocator<script::SArgumet> >
PUBLIC	??0?$list@USArgumet@script@@V?$allocator@USArgumet@script@@@std@@@std@@QAE@XZ ; std::list<script::SArgumet,std::allocator<script::SArgumet> >::list<script::SArgumet,std::allocator<script::SArgumet> >
PUBLIC	?Free@?$CDynamicPool@VCGraphicTextInstance@@@@QAEXPAVCGraphicTextInstance@@@Z ; CDynamicPool<CGraphicTextInstance>::Free
PUBLIC	?Alloc@?$CDynamicPool@VCGraphicTextInstance@@@@QAEPAVCGraphicTextInstance@@XZ ; CDynamicPool<CGraphicTextInstance>::Alloc
PUBLIC	?Clear@?$CDynamicPool@VCGraphicTextInstance@@@@QAEXXZ ; CDynamicPool<CGraphicTextInstance>::Clear
PUBLIC	??0?$CDynamicPool@VCGraphicTextInstance@@@@QAE@XZ ; CDynamicPool<CGraphicTextInstance>::CDynamicPool<CGraphicTextInstance>
PUBLIC	??1?$map@V?$basic_string@DU?$char_traits@D@std@@V?$allocator@D@2@@std@@HU?$less@V?$basic_string@DU?$char_traits@D@std@@V?$allocator@D@2@@std@@@2@V?$allocator@U?$pair@$$CBV?$basic_string@DU?$char_traits@D@std@@V?$allocator@D@2@@std@@H@std@@@2@@std@@QAE@XZ ; std::map<std::basic_string<char,std::char_traits<char>,std::allocator<char> >,int,std::less<std::basic_string<char,std::char_traits<char>,std::allocator<char> > >,std::allocator<std::pair<std::basic_string<char,std::char_traits<char>,std::allocator<char> > const ,int> > >::~map<std::basic_string<char,std::char_traits<char>,std::allocator<char> >,int,std::less<std::basic_string<char,std::char_traits<char>,std::allocator<char> > >,std::allocator<std::pair<std::basic_string<char,std::char_traits<char>,std::allocator<char> > const ,int> > >
PUBLIC	??_GCPythonEventManager@@UAEPAXI@Z		; CPythonEventManager::`scalar deleting destructor'
PUBLIC	?SetLeftTimeString@CPythonEventManager@@QAEXPBD@Z ; CPythonEventManager::SetLeftTimeString
PUBLIC	?SetInterfaceWindow@CPythonEventManager@@QAEXPAU_object@@@Z ; CPythonEventManager::SetInterfaceWindow
PUBLIC	?CheckEventSetIndex@CPythonEventManager@@IAE_NH@Z ; CPythonEventManager::CheckEventSetIndex
PUBLIC	?GetScriptEventIndex@CPythonEventManager@@IAE_NPBDPAH1@Z ; CPythonEventManager::GetScriptEventIndex
PUBLIC	?__AddSpace@CPythonEventManager@@IAEXAAUSEventSet@1@H@Z ; CPythonEventManager::__AddSpace
PUBLIC	?RefreshLinePosition@CPythonEventManager@@IAEXPAUSEventSet@1@@Z ; CPythonEventManager::RefreshLinePosition
PUBLIC	?__InsertLine@CPythonEventManager@@IAEXAAUSEventSet@1@HH@Z ; CPythonEventManager::__InsertLine
PUBLIC	?ClearLine@CPythonEventManager@@IAEXPAUSEventSet@1@@Z ; CPythonEventManager::ClearLine
PUBLIC	?GetLineCount@CPythonEventManager@@QAEHH@Z	; CPythonEventManager::GetLineCount
PUBLIC	?GetVisibleStartLine@CPythonEventManager@@QAEHH@Z ; CPythonEventManager::GetVisibleStartLine
PUBLIC	?SetVisibleLineCount@CPythonEventManager@@QAEXHH@Z ; CPythonEventManager::SetVisibleLineCount
PUBLIC	?SetVisibleStartLine@CPythonEventManager@@QAEXHH@Z ; CPythonEventManager::SetVisibleStartLine
PUBLIC	?SelectAnswer@CPythonEventManager@@QAEXHH@Z	; CPythonEventManager::SelectAnswer
PUBLIC	?MakeQuestion@CPythonEventManager@@IAEXPAUSEventSet@1@AAV?$list@USArgumet@script@@V?$allocator@USArgumet@script@@@std@@@std@@@Z ; CPythonEventManager::MakeQuestion
PUBLIC	?MakeNextButton@CPythonEventManager@@IAEXPAUSEventSet@1@H@Z ; CPythonEventManager::MakeNextButton
PUBLIC	?EndEventProcess@CPythonEventManager@@QAEXH@Z	; CPythonEventManager::EndEventProcess
PUBLIC	?IsWait@CPythonEventManager@@QAE_NH@Z		; CPythonEventManager::IsWait
PUBLIC	?Skip@CPythonEventManager@@QAEXH@Z		; CPythonEventManager::Skip
PUBLIC	?RenderEventSet@CPythonEventManager@@QAEXH@Z	; CPythonEventManager::RenderEventSet
PUBLIC	?ProcessEventSet@CPythonEventManager@@IAEXPAUSEventSet@1@@Z ; CPythonEventManager::ProcessEventSet
PUBLIC	?SetEventSetWidth@CPythonEventManager@@QAEXHH@Z	; CPythonEventManager::SetEventSetWidth
PUBLIC	?UpdateEventSet@CPythonEventManager@@QAEXHHH@Z	; CPythonEventManager::UpdateEventSet
PUBLIC	?InsertText@CPythonEventManager@@QAEXHPBDH@Z	; CPythonEventManager::InsertText
PUBLIC	?AddEventSetLocalYPosition@CPythonEventManager@@QAEXHH@Z ; CPythonEventManager::AddEventSetLocalYPosition
PUBLIC	?GetEventSetLocalYPosition@CPythonEventManager@@QAEHH@Z ; CPythonEventManager::GetEventSetLocalYPosition
PUBLIC	?SetEventHandler@CPythonEventManager@@QAEXHPAU_object@@@Z ; CPythonEventManager::SetEventHandler
PUBLIC	?SetRestrictedCount@CPythonEventManager@@QAEXHH@Z ; CPythonEventManager::SetRestrictedCount
PUBLIC	?GetEmptyEventSetSlot@CPythonEventManager@@IAEKXZ ; CPythonEventManager::GetEmptyEventSetSlot
PUBLIC	?__ClearEventSetp@CPythonEventManager@@QAEXPAUSEventSet@1@@Z ; CPythonEventManager::__ClearEventSetp
PUBLIC	?ClearEventSeti@CPythonEventManager@@QAEXH@Z	; CPythonEventManager::ClearEventSeti
PUBLIC	??1SCmd@script@@QAE@XZ				; script::SCmd::~SCmd
PUBLIC	?RegisterEventSetFromString@CPythonEventManager@@QAEHABV?$basic_string@DU?$char_traits@D@std@@V?$allocator@D@2@@std@@@Z ; CPythonEventManager::RegisterEventSetFromString
PUBLIC	?RegisterEventSet@CPythonEventManager@@QAEHPBD@Z ; CPythonEventManager::RegisterEventSet
PUBLIC	?__InitEventSet@CPythonEventManager@@IAEXAAUSEventSet@1@@Z ; CPythonEventManager::__InitEventSet
PUBLIC	?GetCameraSettingFromArgList@@YAXAAV?$list@USArgumet@script@@V?$allocator@USArgumet@script@@@std@@@std@@PAUSCameraSetting@IAbstractApplication@@@Z ; GetCameraSettingFromArgList
PUBLIC	?GetArgument@@YAPBDPBDAAV?$list@USArgumet@script@@V?$allocator@USArgumet@script@@@std@@@std@@@Z ; GetArgument
PUBLIC	?GetArgumentString@@YAABV?$basic_string@DU?$char_traits@D@std@@V?$allocator@D@2@@std@@PBDAAV?$list@USArgumet@script@@V?$allocator@USArgumet@script@@@std@@@2@@Z ; GetArgumentString
PUBLIC	??_GSEventSet@CPythonEventManager@@UAEPAXI@Z	; CPythonEventManager::SEventSet::`scalar deleting destructor'
PUBLIC	??1SEventSet@CPythonEventManager@@UAE@XZ	; CPythonEventManager::SEventSet::~SEventSet
PUBLIC	??0SEventSet@CPythonEventManager@@QAE@XZ	; CPythonEventManager::SEventSet::SEventSet
PUBLIC	??0SCmd@script@@QAE@XZ				; script::SCmd::SCmd
PUBLIC	??0CPythonEventManager@@QAE@XZ			; CPythonEventManager::CPythonEventManager
PUBLIC	??1CPythonEventManager@@UAE@XZ			; CPythonEventManager::~CPythonEventManager
PUBLIC	?Destroy@CPythonEventManager@@QAEXXZ		; CPythonEventManager::Destroy
EXTRN	??_E?$CDynamicPool@VCGraphicTextInstance@@@@UAEPAXI@Z:PROC ; CDynamicPool<CGraphicTextInstance>::`vector deleting destructor'
EXTRN	??_ECPythonEventManager@@UAEPAXI@Z:PROC		; CPythonEventManager::`vector deleting destructor'
EXTRN	??_E?$CSingleton@VCPythonEventManager@@@@UAEPAXI@Z:PROC ; CSingleton<CPythonEventManager>::`vector deleting destructor'
EXTRN	??_ESEventSet@CPythonEventManager@@UAEPAXI@Z:PROC ; CPythonEventManager::SEventSet::`vector deleting destructor'
EXTRN	??_E?$CDynamicPool@USEventSet@CPythonEventManager@@@@UAEPAXI@Z:PROC ; CDynamicPool<CPythonEventManager::SEventSet>::`vector deleting destructor'
	ALIGN	4

_piecewise_construct DB 01H DUP (?)
_BSS	ENDS
;	COMDAT ?$S1@?5??GetArgumentString@@YAABV?$basic_string@DU?$char_traits@D@std@@V?$allocator@D@2@@std@@PBDAAV?$list@USArgumet@script@@V?$allocator@USArgumet@script@@@std@@@3@@Z@4IA
_BSS	SEGMENT
?$S1@?5??GetArgumentString@@YAABV?$basic_string@DU?$char_traits@D@std@@V?$allocator@D@2@@std@@PBDAAV?$list@USArgumet@script@@V?$allocator@USArgumet@script@@@std@@@3@@Z@4IA DD 01H DUP (?) ; S1<`template-parameter-6',tArgumentString,std::D::ar_traits,sic_string::allocator<char> >
_BSS	ENDS
;	COMDAT ?strEmptyValue@?5??GetArgumentString@@YAABV?$basic_string@DU?$char_traits@D@std@@V?$allocator@D@2@@std@@PBDAAV?$list@USArgumet@script@@V?$allocator@USArgumet@script@@@std@@@3@@Z@4V23@A
_BSS	SEGMENT
?strEmptyValue@?5??GetArgumentString@@YAABV?$basic_string@DU?$char_traits@D@std@@V?$allocator@D@2@@std@@PBDAAV?$list@USArgumet@script@@V?$allocator@USArgumet@script@@@std@@@3@@Z@4V23@A DB 018H DUP (?) ; `GetArgumentString'::`6'::strEmptyValue
	ALIGN	4

_piecewise_construct DB 01H DUP (?)
_BSS	ENDS
;	COMDAT xdata$x
xdata$x	SEGMENT
__ehfuncinfo$??0CPythonEventManager@@QAE@XZ DD 019930522H
	DD	030H
	DD	FLAT:__unwindtable$??0CPythonEventManager@@QAE@XZ
	DD	2 DUP(00H)
	DD	2 DUP(00H)
	DD	00H
	DD	01H
	ORG $+4
__unwindtable$??0CPythonEventManager@@QAE@XZ DD 0ffffffffH
	DD	FLAT:__unwindfunclet$??0CPythonEventManager@@QAE@XZ$0
	DD	00H
	DD	FLAT:__unwindfunclet$??0CPythonEventManager@@QAE@XZ$1
	DD	01H
	DD	FLAT:__unwindfunclet$??0CPythonEventManager@@QAE@XZ$2
	DD	02H
	DD	FLAT:__unwindfunclet$??0CPythonEventManager@@QAE@XZ$3
	DD	03H
	DD	FLAT:__unwindfunclet$??0CPythonEventManager@@QAE@XZ$4
	DD	04H
	DD	FLAT:__unwindfunclet$??0CPythonEventManager@@QAE@XZ$5
	DD	05H
	DD	FLAT:__unwindfunclet$??0CPythonEventManager@@QAE@XZ$6
	DD	05H
	DD	FLAT:__unwindfunclet$??0CPythonEventManager@@QAE@XZ$7
	DD	05H
	DD	FLAT:__unwindfunclet$??0CPythonEventManager@@QAE@XZ$8
	DD	05H
	DD	FLAT:__unwindfunclet$??0CPythonEventManager@@QAE@XZ$9
	DD	05H
	DD	FLAT:__unwindfunclet$??0CPythonEventManager@@QAE@XZ$10
	DD	05H
	DD	FLAT:__unwindfunclet$??0CPythonEventManager@@QAE@XZ$11
	DD	05H
	DD	FLAT:__unwindfunclet$??0CPythonEventManager@@QAE@XZ$12
	DD	05H
	DD	FLAT:__unwindfunclet$??0CPythonEventManager@@QAE@XZ$13
	DD	05H
	DD	FLAT:__unwindfunclet$??0CPythonEventManager@@QAE@XZ$14
	DD	05H
	DD	FLAT:__unwindfunclet$??0CPythonEventManager@@QAE@XZ$15
	DD	05H
	DD	FLAT:__unwindfunclet$??0CPythonEventManager@@QAE@XZ$16
	DD	05H
	DD	FLAT:__unwindfunclet$??0CPythonEventManager@@QAE@XZ$17
	DD	05H
	DD	FLAT:__unwindfunclet$??0CPythonEventManager@@QAE@XZ$18
	DD	05H
	DD	FLAT:__unwindfunclet$??0CPythonEventManager@@QAE@XZ$19
	DD	05H
	DD	FLAT:__unwindfunclet$??0CPythonEventManager@@QAE@XZ$20
	DD	05H
	DD	FLAT:__unwindfunclet$??0CPythonEventManager@@QAE@XZ$21
	DD	05H
	DD	FLAT:__unwindfunclet$??0CPythonEventManager@@QAE@XZ$22
	DD	05H
	DD	FLAT:__unwindfunclet$??0CPythonEventManager@@QAE@XZ$23
	DD	05H
	DD	FLAT:__unwindfunclet$??0CPythonEventManager@@QAE@XZ$24
	DD	05H
	DD	FLAT:__unwindfunclet$??0CPythonEventManager@@QAE@XZ$25
	DD	05H
	DD	FLAT:__unwindfunclet$??0CPythonEventManager@@QAE@XZ$26
	DD	05H
	DD	FLAT:__unwindfunclet$??0CPythonEventManager@@QAE@XZ$27
	DD	05H
	DD	FLAT:__unwindfunclet$??0CPythonEventManager@@QAE@XZ$28
	DD	05H
	DD	FLAT:__unwindfunclet$??0CPythonEventManager@@QAE@XZ$29
	DD	05H
	DD	FLAT:__unwindfunclet$??0CPythonEventManager@@QAE@XZ$30
	DD	05H
	DD	FLAT:__unwindfunclet$??0CPythonEventManager@@QAE@XZ$31
	DD	05H
	DD	FLAT:__unwindfunclet$??0CPythonEventManager@@QAE@XZ$32
	DD	05H
	DD	FLAT:__unwindfunclet$??0CPythonEventManager@@QAE@XZ$33
	DD	05H
	DD	FLAT:__unwindfunclet$??0CPythonEventManager@@QAE@XZ$34
	DD	05H
	DD	FLAT:__unwindfunclet$??0CPythonEventManager@@QAE@XZ$35
	DD	05H
	DD	FLAT:__unwindfunclet$??0CPythonEventManager@@QAE@XZ$36
	DD	05H
	DD	FLAT:__unwindfunclet$??0CPythonEventManager@@QAE@XZ$37
	DD	05H
	DD	FLAT:__unwindfunclet$??0CPythonEventManager@@QAE@XZ$38
	DD	05H
	DD	FLAT:__unwindfunclet$??0CPythonEventManager@@QAE@XZ$39
	DD	05H
	DD	FLAT:__unwindfunclet$??0CPythonEventManager@@QAE@XZ$40
	DD	05H
	DD	FLAT:__unwindfunclet$??0CPythonEventManager@@QAE@XZ$41
	DD	05H
	DD	FLAT:__unwindfunclet$??0CPythonEventManager@@QAE@XZ$42
	DD	05H
	DD	FLAT:__unwindfunclet$??0CPythonEventManager@@QAE@XZ$43
	DD	05H
	DD	FLAT:__unwindfunclet$??0CPythonEventManager@@QAE@XZ$44
	DD	05H
	DD	FLAT:__unwindfunclet$??0CPythonEventManager@@QAE@XZ$45
	DD	05H
	DD	FLAT:__unwindfunclet$??0CPythonEventManager@@QAE@XZ$46
	DD	05H
	DD	FLAT:__unwindfunclet$??0CPythonEventManager@@QAE@XZ$47
xdata$x	ENDS
;	COMDAT xdata$x
xdata$x	SEGMENT
__ehfuncinfo$??0SCmd@script@@QAE@XZ DD 019930522H
	DD	01H
	DD	FLAT:__unwindtable$??0SCmd@script@@QAE@XZ
	DD	2 DUP(00H)
	DD	2 DUP(00H)
	DD	00H
	DD	01H
__unwindtable$??0SCmd@script@@QAE@XZ DD 0ffffffffH
	DD	FLAT:__unwindfunclet$??0SCmd@script@@QAE@XZ$0
xdata$x	ENDS
;	COMDAT xdata$x
xdata$x	SEGMENT
__ehfuncinfo$??0SEventSet@CPythonEventManager@@QAE@XZ DD 019930522H
	DD	02H
	DD	FLAT:__unwindtable$??0SEventSet@CPythonEventManager@@QAE@XZ
	DD	2 DUP(00H)
	DD	2 DUP(00H)
	DD	00H
	DD	01H
__unwindtable$??0SEventSet@CPythonEventManager@@QAE@XZ DD 0ffffffffH
	DD	FLAT:__unwindfunclet$??0SEventSet@CPythonEventManager@@QAE@XZ$0
	DD	00H
	DD	FLAT:__unwindfunclet$??0SEventSet@CPythonEventManager@@QAE@XZ$1
xdata$x	ENDS
;	COMDAT xdata$x
xdata$x	SEGMENT
__ehfuncinfo$??1SEventSet@CPythonEventManager@@UAE@XZ DD 019930522H
	DD	02H
	DD	FLAT:__unwindtable$??1SEventSet@CPythonEventManager@@UAE@XZ
	DD	2 DUP(00H)
	DD	2 DUP(00H)
	DD	00H
	DD	01H
__unwindtable$??1SEventSet@CPythonEventManager@@UAE@XZ DD 0ffffffffH
	DD	FLAT:__unwindfunclet$??1SEventSet@CPythonEventManager@@UAE@XZ$0
	DD	00H
	DD	FLAT:__unwindfunclet$??1SEventSet@CPythonEventManager@@UAE@XZ$1
xdata$x	ENDS
;	COMDAT xdata$x
xdata$x	SEGMENT
__ehfuncinfo$?GetArgumentString@@YAABV?$basic_string@DU?$char_traits@D@std@@V?$allocator@D@2@@std@@PBDAAV?$list@USArgumet@script@@V?$allocator@USArgumet@script@@@std@@@2@@Z DD 019930522H
	DD	01H
	DD	FLAT:__unwindtable$?GetArgumentString@@YAABV?$basic_string@DU?$char_traits@D@std@@V?$allocator@D@2@@std@@PBDAAV?$list@USArgumet@script@@V?$allocator@USArgumet@script@@@std@@@2@@Z
	DD	2 DUP(00H)
	DD	2 DUP(00H)
	DD	00H
	DD	01H
__unwindtable$?GetArgumentString@@YAABV?$basic_string@DU?$char_traits@D@std@@V?$allocator@D@2@@std@@PBDAAV?$list@USArgumet@script@@V?$allocator@USArgumet@script@@@std@@@2@@Z DD 0ffffffffH
	DD	FLAT:__unwindfunclet$?GetArgumentString@@YAABV?$basic_string@DU?$char_traits@D@std@@V?$allocator@D@2@@std@@PBDAAV?$list@USArgumet@script@@V?$allocator@USArgumet@script@@@std@@@2@@Z$0
xdata$x	ENDS
;	COMDAT xdata$x
xdata$x	SEGMENT
__ehfuncinfo$?RegisterEventSet@CPythonEventManager@@QAEHPBD@Z DD 019930522H
	DD	02H
	DD	FLAT:__unwindtable$?RegisterEventSet@CPythonEventManager@@QAEHPBD@Z
	DD	2 DUP(00H)
	DD	2 DUP(00H)
	DD	00H
	DD	01H
__unwindtable$?RegisterEventSet@CPythonEventManager@@QAEHPBD@Z DD 0ffffffffH
	DD	FLAT:__unwindfunclet$?RegisterEventSet@CPythonEventManager@@QAEHPBD@Z$0
	DD	00H
	DD	FLAT:__unwindfunclet$?RegisterEventSet@CPythonEventManager@@QAEHPBD@Z$1
xdata$x	ENDS
;	COMDAT xdata$x
xdata$x	SEGMENT
__ehfuncinfo$?RegisterEventSetFromString@CPythonEventManager@@QAEHABV?$basic_string@DU?$char_traits@D@std@@V?$allocator@D@2@@std@@@Z DD 019930522H
	DD	03H
	DD	FLAT:__unwindtable$?RegisterEventSetFromString@CPythonEventManager@@QAEHABV?$basic_string@DU?$char_traits@D@std@@V?$allocator@D@2@@std@@@Z
	DD	2 DUP(00H)
	DD	2 DUP(00H)
	DD	00H
	DD	01H
__unwindtable$?RegisterEventSetFromString@CPythonEventManager@@QAEHABV?$basic_string@DU?$char_traits@D@std@@V?$allocator@D@2@@std@@@Z DD 0ffffffffH
	DD	FLAT:__unwindfunclet$?RegisterEventSetFromString@CPythonEventManager@@QAEHABV?$basic_string@DU?$char_traits@D@std@@V?$allocator@D@2@@std@@@Z$2
	DD	0ffffffffH
	DD	FLAT:__unwindfunclet$?RegisterEventSetFromString@CPythonEventManager@@QAEHABV?$basic_string@DU?$char_traits@D@std@@V?$allocator@D@2@@std@@@Z$0
	DD	01H
	DD	FLAT:__unwindfunclet$?RegisterEventSetFromString@CPythonEventManager@@QAEHABV?$basic_string@DU?$char_traits@D@std@@V?$allocator@D@2@@std@@@Z$1
xdata$x	ENDS
;	COMDAT xdata$x
xdata$x	SEGMENT
__ehfuncinfo$?ProcessEventSet@CPythonEventManager@@IAEXPAUSEventSet@1@@Z DD 019930522H
	DD	02H
	DD	FLAT:__unwindtable$?ProcessEventSet@CPythonEventManager@@IAEXPAUSEventSet@1@@Z
	DD	2 DUP(00H)
	DD	2 DUP(00H)
	DD	00H
	DD	01H
__unwindtable$?ProcessEventSet@CPythonEventManager@@IAEXPAUSEventSet@1@@Z DD 0ffffffffH
	DD	FLAT:__unwindfunclet$?ProcessEventSet@CPythonEventManager@@IAEXPAUSEventSet@1@@Z$1
	DD	0ffffffffH
	DD	FLAT:__unwindfunclet$?ProcessEventSet@CPythonEventManager@@IAEXPAUSEventSet@1@@Z$0
xdata$x	ENDS
;	COMDAT xdata$x
xdata$x	SEGMENT
__ehfuncinfo$?Alloc@?$CDynamicPool@VCGraphicTextInstance@@@@QAEPAVCGraphicTextInstance@@XZ DD 019930522H
	DD	01H
	DD	FLAT:__unwindtable$?Alloc@?$CDynamicPool@VCGraphicTextInstance@@@@QAEPAVCGraphicTextInstance@@XZ
	DD	2 DUP(00H)
	DD	2 DUP(00H)
	DD	00H
	DD	01H
__unwindtable$?Alloc@?$CDynamicPool@VCGraphicTextInstance@@@@QAEPAVCGraphicTextInstance@@XZ DD 0ffffffffH
	DD	FLAT:__unwindfunclet$?Alloc@?$CDynamicPool@VCGraphicTextInstance@@@@QAEPAVCGraphicTextInstance@@XZ$0
xdata$x	ENDS
;	COMDAT xdata$x
xdata$x	SEGMENT
__ehfuncinfo$?Alloc@?$CDynamicPool@USEventSet@CPythonEventManager@@@@QAEPAUSEventSet@CPythonEventManager@@XZ DD 019930522H
	DD	01H
	DD	FLAT:__unwindtable$?Alloc@?$CDynamicPool@USEventSet@CPythonEventManager@@@@QAEPAUSEventSet@CPythonEventManager@@XZ
	DD	2 DUP(00H)
	DD	2 DUP(00H)
	DD	00H
	DD	01H
__unwindtable$?Alloc@?$CDynamicPool@USEventSet@CPythonEventManager@@@@QAEPAUSEventSet@CPythonEventManager@@XZ DD 0ffffffffH
	DD	FLAT:__unwindfunclet$?Alloc@?$CDynamicPool@USEventSet@CPythonEventManager@@@@QAEPAUSEventSet@CPythonEventManager@@XZ$0
xdata$x	ENDS
;	COMDAT xdata$x
xdata$x	SEGMENT
__ehfuncinfo$??$_Insert_hint@AAU?$pair@$$CBV?$basic_string@DU?$char_traits@D@std@@V?$allocator@D@2@@std@@H@std@@PAU?$_Tree_node@U?$pair@$$CBV?$basic_string@DU?$char_traits@D@std@@V?$allocator@D@2@@std@@H@std@@PAX@2@@?$_Tree@V?$_Tmap_traits@V?$basic_string@DU?$char_traits@D@std@@V?$allocator@D@2@@std@@HU?$less@V?$basic_string@DU?$char_traits@D@std@@V?$allocator@D@2@@std@@@2@V?$allocator@U?$pair@$$CBV?$basic_string@DU?$char_traits@D@std@@V?$allocator@D@2@@std@@H@std@@@2@$0A@@std@@@std@@IAE?AV?$_Tree_iterator@V?$_Tree_val@U?$_Tree_simple_types@U?$pair@$$CBV?$basic_string@DU?$char_traits@D@std@@V?$allocator@D@2@@std@@H@std@@@std@@@std@@@1@V?$_Tree_const_iterator@V?$_Tree_val@U?$_Tree_simple_types@U?$pair@$$CBV?$basic_string@DU?$char_traits@D@std@@V?$allocator@D@2@@std@@H@std@@@std@@@std@@@1@AAU?$pair@$$CBV?$basic_string@DU?$char_traits@D@std@@V?$allocator@D@2@@std@@H@1@PAU?$_Tree_node@U?$pair@$$CBV?$basic_string@DU?$char_traits@D@std@@V?$allocator@D@2@@std@@H@std@@PAX@1@@Z DD 019930522H
	DD	02H
	DD	FLAT:__unwindtable$??$_Insert_hint@AAU?$pair@$$CBV?$basic_string@DU?$char_traits@D@std@@V?$allocator@D@2@@std@@H@std@@PAU?$_Tree_node@U?$pair@$$CBV?$basic_string@DU?$char_traits@D@std@@V?$allocator@D@2@@std@@H@std@@PAX@2@@?$_Tree@V?$_Tmap_traits@V?$basic_string@DU?$char_traits@D@std@@V?$allocator@D@2@@std@@HU?$less@V?$basic_string@DU?$char_traits@D@std@@V?$allocator@D@2@@std@@@2@V?$allocator@U?$pair@$$CBV?$basic_string@DU?$char_traits@D@std@@V?$allocator@D@2@@std@@H@std@@@2@$0A@@std@@@std@@IAE?AV?$_Tree_iterator@V?$_Tree_val@U?$_Tree_simple_types@U?$pair@$$CBV?$basic_string@DU?$char_traits@D@std@@V?$allocator@D@2@@std@@H@std@@@std@@@std@@@1@V?$_Tree_const_iterator@V?$_Tree_val@U?$_Tree_simple_types@U?$pair@$$CBV?$basic_string@DU?$char_traits@D@std@@V?$allocator@D@2@@std@@H@std@@@std@@@std@@@1@AAU?$pair@$$CBV?$basic_string@DU?$char_traits@D@std@@V?$allocator@D@2@@std@@H@1@PAU?$_Tree_node@U?$pair@$$CBV?$basic_string@DU?$char_traits@D@std@@V?$allocator@D@2@@std@@H@std@@PAX@1@@Z
	DD	01H
	DD	FLAT:__tryblocktable$??$_Insert_hint@AAU?$pair@$$CBV?$basic_string@DU?$char_traits@D@std@@V?$allocator@D@2@@std@@H@std@@PAU?$_Tree_node@U?$pair@$$CBV?$basic_string@DU?$char_traits@D@std@@V?$allocator@D@2@@std@@H@std@@PAX@2@@?$_Tree@V?$_Tmap_traits@V?$basic_string@DU?$char_traits@D@std@@V?$allocator@D@2@@std@@HU?$less@V?$basic_string@DU?$char_traits@D@std@@V?$allocator@D@2@@std@@@2@V?$allocator@U?$pair@$$CBV?$basic_string@DU?$char_traits@D@std@@V?$allocator@D@2@@std@@H@std@@@2@$0A@@std@@@std@@IAE?AV?$_Tree_iterator@V?$_Tree_val@U?$_Tree_simple_types@U?$pair@$$CBV?$basic_string@DU?$char_traits@D@std@@V?$allocator@D@2@@std@@H@std@@@std@@@std@@@1@V?$_Tree_const_iterator@V?$_Tree_val@U?$_Tree_simple_types@U?$pair@$$CBV?$basic_string@DU?$char_traits@D@std@@V?$allocator@D@2@@std@@H@std@@@std@@@std@@@1@AAU?$pair@$$CBV?$basic_string@DU?$char_traits@D@std@@V?$allocator@D@2@@std@@H@1@PAU?$_Tree_node@U?$pair@$$CBV?$basic_string@DU?$char_traits@D@std@@V?$allocator@D@2@@std@@H@std@@PAX@1@@Z
	DD	2 DUP(00H)
	DD	00H
	DD	01H
__unwindtable$??$_Insert_hint@AAU?$pair@$$CBV?$basic_string@DU?$char_traits@D@std@@V?$allocator@D@2@@std@@H@std@@PAU?$_Tree_node@U?$pair@$$CBV?$basic_string@DU?$char_traits@D@std@@V?$allocator@D@2@@std@@H@std@@PAX@2@@?$_Tree@V?$_Tmap_traits@V?$basic_string@DU?$char_traits@D@std@@V?$allocator@D@2@@std@@HU?$less@V?$basic_string@DU?$char_traits@D@std@@V?$allocator@D@2@@std@@@2@V?$allocator@U?$pair@$$CBV?$basic_string@DU?$char_traits@D@std@@V?$allocator@D@2@@std@@H@std@@@2@$0A@@std@@@std@@IAE?AV?$_Tree_iterator@V?$_Tree_val@U?$_Tree_simple_types@U?$pair@$$CBV?$basic_string@DU?$char_traits@D@std@@V?$allocator@D@2@@std@@H@std@@@std@@@std@@@1@V?$_Tree_const_iterator@V?$_Tree_val@U?$_Tree_simple_types@U?$pair@$$CBV?$basic_string@DU?$char_traits@D@std@@V?$allocator@D@2@@std@@H@std@@@std@@@std@@@1@AAU?$pair@$$CBV?$basic_string@DU?$char_traits@D@std@@V?$allocator@D@2@@std@@H@1@PAU?$_Tree_node@U?$pair@$$CBV?$basic_string@DU?$char_traits@D@std@@V?$allocator@D@2@@std@@H@std@@PAX@1@@Z DD 0ffffffffH
	DD	00H
	DD	0ffffffffH
	DD	00H
__tryblocktable$??$_Insert_hint@AAU?$pair@$$CBV?$basic_string@DU?$char_traits@D@std@@V?$allocator@D@2@@std@@H@std@@PAU?$_Tree_node@U?$pair@$$CBV?$basic_string@DU?$char_traits@D@std@@V?$allocator@D@2@@std@@H@std@@PAX@2@@?$_Tree@V?$_Tmap_traits@V?$basic_string@DU?$char_traits@D@std@@V?$allocator@D@2@@std@@HU?$less@V?$basic_string@DU?$char_traits@D@std@@V?$allocator@D@2@@std@@@2@V?$allocator@U?$pair@$$CBV?$basic_string@DU?$char_traits@D@std@@V?$allocator@D@2@@std@@H@std@@@2@$0A@@std@@@std@@IAE?AV?$_Tree_iterator@V?$_Tree_val@U?$_Tree_simple_types@U?$pair@$$CBV?$basic_string@DU?$char_traits@D@std@@V?$allocator@D@2@@std@@H@std@@@std@@@std@@@1@V?$_Tree_const_iterator@V?$_Tree_val@U?$_Tree_simple_types@U?$pair@$$CBV?$basic_string@DU?$char_traits@D@std@@V?$allocator@D@2@@std@@H@std@@@std@@@std@@@1@AAU?$pair@$$CBV?$basic_string@DU?$char_traits@D@std@@V?$allocator@D@2@@std@@H@1@PAU?$_Tree_node@U?$pair@$$CBV?$basic_string@DU?$char_traits@D@std@@V?$allocator@D@2@@std@@H@std@@PAX@1@@Z DD 00H
	DD	00H
	DD	01H
	DD	01H
	DD	FLAT:__catchsym$??$_Insert_hint@AAU?$pair@$$CBV?$basic_string@DU?$char_traits@D@std@@V?$allocator@D@2@@std@@H@std@@PAU?$_Tree_node@U?$pair@$$CBV?$basic_string@DU?$char_traits@D@std@@V?$allocator@D@2@@std@@H@std@@PAX@2@@?$_Tree@V?$_Tmap_traits@V?$basic_string@DU?$char_traits@D@std@@V?$allocator@D@2@@std@@HU?$less@V?$basic_string@DU?$char_traits@D@std@@V?$allocator@D@2@@std@@@2@V?$allocator@U?$pair@$$CBV?$basic_string@DU?$char_traits@D@std@@V?$allocator@D@2@@std@@H@std@@@2@$0A@@std@@@std@@IAE?AV?$_Tree_iterator@V?$_Tree_val@U?$_Tree_simple_types@U?$pair@$$CBV?$basic_string@DU?$char_traits@D@std@@V?$allocator@D@2@@std@@H@std@@@std@@@std@@@1@V?$_Tree_const_iterator@V?$_Tree_val@U?$_Tree_simple_types@U?$pair@$$CBV?$basic_string@DU?$char_traits@D@std@@V?$allocator@D@2@@std@@H@std@@@std@@@std@@@1@AAU?$pair@$$CBV?$basic_string@DU?$char_traits@D@std@@V?$allocator@D@2@@std@@H@1@PAU?$_Tree_node@U?$pair@$$CBV?$basic_string@DU?$char_traits@D@std@@V?$allocator@D@2@@std@@H@std@@PAX@1@@Z$2
__catchsym$??$_Insert_hint@AAU?$pair@$$CBV?$basic_string@DU?$char_traits@D@std@@V?$allocator@D@2@@std@@H@std@@PAU?$_Tree_node@U?$pair@$$CBV?$basic_string@DU?$char_traits@D@std@@V?$allocator@D@2@@std@@H@std@@PAX@2@@?$_Tree@V?$_Tmap_traits@V?$basic_string@DU?$char_traits@D@std@@V?$allocator@D@2@@std@@HU?$less@V?$basic_string@DU?$char_traits@D@std@@V?$allocator@D@2@@std@@@2@V?$allocator@U?$pair@$$CBV?$basic_string@DU?$char_traits@D@std@@V?$allocator@D@2@@std@@H@std@@@2@$0A@@std@@@std@@IAE?AV?$_Tree_iterator@V?$_Tree_val@U?$_Tree_simple_types@U?$pair@$$CBV?$basic_string@DU?$char_traits@D@std@@V?$allocator@D@2@@std@@H@std@@@std@@@std@@@1@V?$_Tree_const_iterator@V?$_Tree_val@U?$_Tree_simple_types@U?$pair@$$CBV?$basic_string@DU?$char_traits@D@std@@V?$allocator@D@2@@std@@H@std@@@std@@@std@@@1@AAU?$pair@$$CBV?$basic_string@DU?$char_traits@D@std@@V?$allocator@D@2@@std@@H@1@PAU?$_Tree_node@U?$pair@$$CBV?$basic_string@DU?$char_traits@D@std@@V?$allocator@D@2@@std@@H@std@@PAX@1@@Z$2 DD 040H
	DD	00H
	DD	00H
	DD	FLAT:__catch$??$_Insert_hint@AAU?$pair@$$CBV?$basic_string@DU?$char_traits@D@std@@V?$allocator@D@2@@std@@H@std@@PAU?$_Tree_node@U?$pair@$$CBV?$basic_string@DU?$char_traits@D@std@@V?$allocator@D@2@@std@@H@std@@PAX@2@@?$_Tree@V?$_Tmap_traits@V?$basic_string@DU?$char_traits@D@std@@V?$allocator@D@2@@std@@HU?$less@V?$basic_string@DU?$char_traits@D@std@@V?$allocator@D@2@@std@@@2@V?$allocator@U?$pair@$$CBV?$basic_string@DU?$char_traits@D@std@@V?$allocator@D@2@@std@@H@std@@@2@$0A@@std@@@std@@IAE?AV?$_Tree_iterator@V?$_Tree_val@U?$_Tree_simple_types@U?$pair@$$CBV?$basic_string@DU?$char_traits@D@std@@V?$allocator@D@2@@std@@H@std@@@std@@@std@@@1@V?$_Tree_const_iterator@V?$_Tree_val@U?$_Tree_simple_types@U?$pair@$$CBV?$basic_string@DU?$char_traits@D@std@@V?$allocator@D@2@@std@@H@std@@@std@@@std@@@1@AAU?$pair@$$CBV?$basic_string@DU?$char_traits@D@std@@V?$allocator@D@2@@std@@H@1@PAU?$_Tree_node@U?$pair@$$CBV?$basic_string@DU?$char_traits@D@std@@V?$allocator@D@2@@std@@H@std@@PAX@1@@Z$0
xdata$x	ENDS
;	COMDAT xdata$x
xdata$x	SEGMENT
__ehfuncinfo$??$_Insert_nohint@AAU?$pair@$$CBV?$basic_string@DU?$char_traits@D@std@@V?$allocator@D@2@@std@@H@std@@PAU?$_Tree_node@U?$pair@$$CBV?$basic_string@DU?$char_traits@D@std@@V?$allocator@D@2@@std@@H@std@@PAX@2@@?$_Tree@V?$_Tmap_traits@V?$basic_string@DU?$char_traits@D@std@@V?$allocator@D@2@@std@@HU?$less@V?$basic_string@DU?$char_traits@D@std@@V?$allocator@D@2@@std@@@2@V?$allocator@U?$pair@$$CBV?$basic_string@DU?$char_traits@D@std@@V?$allocator@D@2@@std@@H@std@@@2@$0A@@std@@@std@@IAE?AU?$pair@V?$_Tree_iterator@V?$_Tree_val@U?$_Tree_simple_types@U?$pair@$$CBV?$basic_string@DU?$char_traits@D@std@@V?$allocator@D@2@@std@@H@std@@@std@@@std@@@std@@_N@1@_NAAU?$pair@$$CBV?$basic_string@DU?$char_traits@D@std@@V?$allocator@D@2@@std@@H@1@PAU?$_Tree_node@U?$pair@$$CBV?$basic_string@DU?$char_traits@D@std@@V?$allocator@D@2@@std@@H@std@@PAX@1@@Z DD 019930522H
	DD	02H
	DD	FLAT:__unwindtable$??$_Insert_nohint@AAU?$pair@$$CBV?$basic_string@DU?$char_traits@D@std@@V?$allocator@D@2@@std@@H@std@@PAU?$_Tree_node@U?$pair@$$CBV?$basic_string@DU?$char_traits@D@std@@V?$allocator@D@2@@std@@H@std@@PAX@2@@?$_Tree@V?$_Tmap_traits@V?$basic_string@DU?$char_traits@D@std@@V?$allocator@D@2@@std@@HU?$less@V?$basic_string@DU?$char_traits@D@std@@V?$allocator@D@2@@std@@@2@V?$allocator@U?$pair@$$CBV?$basic_string@DU?$char_traits@D@std@@V?$allocator@D@2@@std@@H@std@@@2@$0A@@std@@@std@@IAE?AU?$pair@V?$_Tree_iterator@V?$_Tree_val@U?$_Tree_simple_types@U?$pair@$$CBV?$basic_string@DU?$char_traits@D@std@@V?$allocator@D@2@@std@@H@std@@@std@@@std@@@std@@_N@1@_NAAU?$pair@$$CBV?$basic_string@DU?$char_traits@D@std@@V?$allocator@D@2@@std@@H@1@PAU?$_Tree_node@U?$pair@$$CBV?$basic_string@DU?$char_traits@D@std@@V?$allocator@D@2@@std@@H@std@@PAX@1@@Z
	DD	01H
	DD	FLAT:__tryblocktable$??$_Insert_nohint@AAU?$pair@$$CBV?$basic_string@DU?$char_traits@D@std@@V?$allocator@D@2@@std@@H@std@@PAU?$_Tree_node@U?$pair@$$CBV?$basic_string@DU?$char_traits@D@std@@V?$allocator@D@2@@std@@H@std@@PAX@2@@?$_Tree@V?$_Tmap_traits@V?$basic_string@DU?$char_traits@D@std@@V?$allocator@D@2@@std@@HU?$less@V?$basic_string@DU?$char_traits@D@std@@V?$allocator@D@2@@std@@@2@V?$allocator@U?$pair@$$CBV?$basic_string@DU?$char_traits@D@std@@V?$allocator@D@2@@std@@H@std@@@2@$0A@@std@@@std@@IAE?AU?$pair@V?$_Tree_iterator@V?$_Tree_val@U?$_Tree_simple_types@U?$pair@$$CBV?$basic_string@DU?$char_traits@D@std@@V?$allocator@D@2@@std@@H@std@@@std@@@std@@@std@@_N@1@_NAAU?$pair@$$CBV?$basic_string@DU?$char_traits@D@std@@V?$allocator@D@2@@std@@H@1@PAU?$_Tree_node@U?$pair@$$CBV?$basic_string@DU?$char_traits@D@std@@V?$allocator@D@2@@std@@H@std@@PAX@1@@Z
	DD	2 DUP(00H)
	DD	00H
	DD	01H
__unwindtable$??$_Insert_nohint@AAU?$pair@$$CBV?$basic_string@DU?$char_traits@D@std@@V?$allocator@D@2@@std@@H@std@@PAU?$_Tree_node@U?$pair@$$CBV?$basic_string@DU?$char_traits@D@std@@V?$allocator@D@2@@std@@H@std@@PAX@2@@?$_Tree@V?$_Tmap_traits@V?$basic_string@DU?$char_traits@D@std@@V?$allocator@D@2@@std@@HU?$less@V?$basic_string@DU?$char_traits@D@std@@V?$allocator@D@2@@std@@@2@V?$allocator@U?$pair@$$CBV?$basic_string@DU?$char_traits@D@std@@V?$allocator@D@2@@std@@H@std@@@2@$0A@@std@@@std@@IAE?AU?$pair@V?$_Tree_iterator@V?$_Tree_val@U?$_Tree_simple_types@U?$pair@$$CBV?$basic_string@DU?$char_traits@D@std@@V?$allocator@D@2@@std@@H@std@@@std@@@std@@@std@@_N@1@_NAAU?$pair@$$CBV?$basic_string@DU?$char_traits@D@std@@V?$allocator@D@2@@std@@H@1@PAU?$_Tree_node@U?$pair@$$CBV?$basic_string@DU?$char_traits@D@std@@V?$allocator@D@2@@std@@H@std@@PAX@1@@Z DD 0ffffffffH
	DD	00H
	DD	0ffffffffH
	DD	00H
__tryblocktable$??$_Insert_nohint@AAU?$pair@$$CBV?$basic_string@DU?$char_traits@D@std@@V?$allocator@D@2@@std@@H@std@@PAU?$_Tree_node@U?$pair@$$CBV?$basic_string@DU?$char_traits@D@std@@V?$allocator@D@2@@std@@H@std@@PAX@2@@?$_Tree@V?$_Tmap_traits@V?$basic_string@DU?$char_traits@D@std@@V?$allocator@D@2@@std@@HU?$less@V?$basic_string@DU?$char_traits@D@std@@V?$allocator@D@2@@std@@@2@V?$allocator@U?$pair@$$CBV?$basic_string@DU?$char_traits@D@std@@V?$allocator@D@2@@std@@H@std@@@2@$0A@@std@@@std@@IAE?AU?$pair@V?$_Tree_iterator@V?$_Tree_val@U?$_Tree_simple_types@U?$pair@$$CBV?$basic_string@DU?$char_traits@D@std@@V?$allocator@D@2@@std@@H@std@@@std@@@std@@@std@@_N@1@_NAAU?$pair@$$CBV?$basic_string@DU?$char_traits@D@std@@V?$allocator@D@2@@std@@H@1@PAU?$_Tree_node@U?$pair@$$CBV?$basic_string@DU?$char_traits@D@std@@V?$allocator@D@2@@std@@H@std@@PAX@1@@Z DD 00H
	DD	00H
	DD	01H
	DD	01H
	DD	FLAT:__catchsym$??$_Insert_nohint@AAU?$pair@$$CBV?$basic_string@DU?$char_traits@D@std@@V?$allocator@D@2@@std@@H@std@@PAU?$_Tree_node@U?$pair@$$CBV?$basic_string@DU?$char_traits@D@std@@V?$allocator@D@2@@std@@H@std@@PAX@2@@?$_Tree@V?$_Tmap_traits@V?$basic_string@DU?$char_traits@D@std@@V?$allocator@D@2@@std@@HU?$less@V?$basic_string@DU?$char_traits@D@std@@V?$allocator@D@2@@std@@@2@V?$allocator@U?$pair@$$CBV?$basic_string@DU?$char_traits@D@std@@V?$allocator@D@2@@std@@H@std@@@2@$0A@@std@@@std@@IAE?AU?$pair@V?$_Tree_iterator@V?$_Tree_val@U?$_Tree_simple_types@U?$pair@$$CBV?$basic_string@DU?$char_traits@D@std@@V?$allocator@D@2@@std@@H@std@@@std@@@std@@@std@@_N@1@_NAAU?$pair@$$CBV?$basic_string@DU?$char_traits@D@std@@V?$allocator@D@2@@std@@H@1@PAU?$_Tree_node@U?$pair@$$CBV?$basic_string@DU?$char_traits@D@std@@V?$allocator@D@2@@std@@H@std@@PAX@1@@Z$2
__catchsym$??$_Insert_nohint@AAU?$pair@$$CBV?$basic_string@DU?$char_traits@D@std@@V?$allocator@D@2@@std@@H@std@@PAU?$_Tree_node@U?$pair@$$CBV?$basic_string@DU?$char_traits@D@std@@V?$allocator@D@2@@std@@H@std@@PAX@2@@?$_Tree@V?$_Tmap_traits@V?$basic_string@DU?$char_traits@D@std@@V?$allocator@D@2@@std@@HU?$less@V?$basic_string@DU?$char_traits@D@std@@V?$allocator@D@2@@std@@@2@V?$allocator@U?$pair@$$CBV?$basic_string@DU?$char_traits@D@std@@V?$allocator@D@2@@std@@H@std@@@2@$0A@@std@@@std@@IAE?AU?$pair@V?$_Tree_iterator@V?$_Tree_val@U?$_Tree_simple_types@U?$pair@$$CBV?$basic_string@DU?$char_traits@D@std@@V?$allocator@D@2@@std@@H@std@@@std@@@std@@@std@@_N@1@_NAAU?$pair@$$CBV?$basic_string@DU?$char_traits@D@std@@V?$allocator@D@2@@std@@H@1@PAU?$_Tree_node@U?$pair@$$CBV?$basic_string@DU?$char_traits@D@std@@V?$allocator@D@2@@std@@H@std@@PAX@1@@Z$2 DD 040H
	DD	00H
	DD	00H
	DD	FLAT:__catch$??$_Insert_nohint@AAU?$pair@$$CBV?$basic_string@DU?$char_traits@D@std@@V?$allocator@D@2@@std@@H@std@@PAU?$_Tree_node@U?$pair@$$CBV?$basic_string@DU?$char_traits@D@std@@V?$allocator@D@2@@std@@H@std@@PAX@2@@?$_Tree@V?$_Tmap_traits@V?$basic_string@DU?$char_traits@D@std@@V?$allocator@D@2@@std@@HU?$less@V?$basic_string@DU?$char_traits@D@std@@V?$allocator@D@2@@std@@@2@V?$allocator@U?$pair@$$CBV?$basic_string@DU?$char_traits@D@std@@V?$allocator@D@2@@std@@H@std@@@2@$0A@@std@@@std@@IAE?AU?$pair@V?$_Tree_iterator@V?$_Tree_val@U?$_Tree_simple_types@U?$pair@$$CBV?$basic_string@DU?$char_traits@D@std@@V?$allocator@D@2@@std@@H@std@@@std@@@std@@@std@@_N@1@_NAAU?$pair@$$CBV?$basic_string@DU?$char_traits@D@std@@V?$allocator@D@2@@std@@H@1@PAU?$_Tree_node@U?$pair@$$CBV?$basic_string@DU?$char_traits@D@std@@V?$allocator@D@2@@std@@H@std@@PAX@1@@Z$0
; Function compile flags: /Ogtp
; File d:\metin2\metin2\client_source_clean\client_source_clean\source\userinterface\pythoneventmanager.cpp
; File c:\program files (x86)\microsoft visual studio 12.0\vc\include\vector
; File d:\metin2\metin2\client_source_clean\client_source_clean\source\userinterface\pythoneventmanager.cpp
; File c:\program files (x86)\microsoft visual studio 12.0\vc\include\algorithm
; File c:\program files (x86)\microsoft visual studio 12.0\vc\include\vector
; File c:\program files (x86)\microsoft visual studio 12.0\vc\include\algorithm
; File c:\program files (x86)\microsoft visual studio 12.0\vc\include\vector
; File d:\metin2\metin2\client_source_clean\client_source_clean\source\userinterface\pythoneventmanager.cpp
;	COMDAT ?Destroy@CPythonEventManager@@QAEXXZ
_TEXT	SEGMENT
_this$1$ = -4						; size = 4
?Destroy@CPythonEventManager@@QAEXXZ PROC		; CPythonEventManager::Destroy, COMDAT
; _this$ = ecx

; 1132 : {

  00000	55		 push	 ebp
  00001	8b ec		 mov	 ebp, esp
  00003	51		 push	 ecx
; File c:\program files (x86)\microsoft visual studio 12.0\vc\include\vector

; 1510 : 		this->_Mylast = this->_Myfirst;

  00004	8b 41 0c	 mov	 eax, DWORD PTR [ecx+12]
  00007	33 d2		 xor	 edx, edx
  00009	53		 push	 ebx
  0000a	89 41 10	 mov	 DWORD PTR [ecx+16], eax
  0000d	8b 59 24	 mov	 ebx, DWORD PTR [ecx+36]
  00010	56		 push	 esi

; 1025 : 		return (iterator(this->_Myfirst, this));

  00011	8b 71 20	 mov	 esi, DWORD PTR [ecx+32]
  00014	2b de		 sub	 ebx, esi
  00016	83 c3 03	 add	 ebx, 3
; File d:\metin2\metin2\client_source_clean\client_source_clean\source\userinterface\pythoneventmanager.cpp

; 1132 : {

  00019	89 4d fc	 mov	 DWORD PTR _this$1$[ebp], ecx
  0001c	c1 eb 02	 shr	 ebx, 2
  0001f	57		 push	 edi
  00020	33 ff		 xor	 edi, edi
  00022	3b 71 24	 cmp	 esi, DWORD PTR [ecx+36]
  00025	0f 47 da	 cmova	 ebx, edx
; File c:\program files (x86)\microsoft visual studio 12.0\vc\include\algorithm

; 23   : 	for (; _First != _Last; ++_First)

  00028	85 db		 test	 ebx, ebx
  0002a	74 19		 je	 SHORT $LN37@Destroy
  0002c	8d 64 24 00	 npad	 4
$LL39@Destroy:

; 24   : 		_Func(*_First);

  00030	ff 36		 push	 DWORD PTR [esi]
  00032	e8 00 00 00 00	 call	 ?Delete@?$CDynamicPool@USEventSet@CPythonEventManager@@@@KAXPAUSEventSet@CPythonEventManager@@@Z ; CDynamicPool<CPythonEventManager::SEventSet>::Delete
  00037	47		 inc	 edi
  00038	8d 76 04	 lea	 esi, DWORD PTR [esi+4]
  0003b	83 c4 04	 add	 esp, 4
  0003e	3b fb		 cmp	 edi, ebx
  00040	75 ee		 jne	 SHORT $LL39@Destroy
  00042	8b 4d fc	 mov	 ecx, DWORD PTR _this$1$[ebp]
$LN37@Destroy:
; File c:\program files (x86)\microsoft visual studio 12.0\vc\include\vector

; 1510 : 		this->_Mylast = this->_Myfirst;

  00045	8b 41 20	 mov	 eax, DWORD PTR [ecx+32]
  00048	33 d2		 xor	 edx, edx
  0004a	89 41 24	 mov	 DWORD PTR [ecx+36], eax
  0004d	33 ff		 xor	 edi, edi
  0004f	8b 41 2c	 mov	 eax, DWORD PTR [ecx+44]
  00052	89 41 30	 mov	 DWORD PTR [ecx+48], eax

; 1025 : 		return (iterator(this->_Myfirst, this));

  00055	8b 71 44	 mov	 esi, DWORD PTR [ecx+68]
  00058	8b 59 48	 mov	 ebx, DWORD PTR [ecx+72]
  0005b	2b de		 sub	 ebx, esi
  0005d	83 c3 03	 add	 ebx, 3
  00060	c1 eb 02	 shr	 ebx, 2
  00063	3b 71 48	 cmp	 esi, DWORD PTR [ecx+72]
  00066	0f 47 da	 cmova	 ebx, edx
; File c:\program files (x86)\microsoft visual studio 12.0\vc\include\algorithm

; 23   : 	for (; _First != _Last; ++_First)

  00069	85 db		 test	 ebx, ebx
  0006b	74 18		 je	 SHORT $LN82@Destroy
  0006d	8d 49 00	 npad	 3
$LL84@Destroy:

; 24   : 		_Func(*_First);

  00070	ff 36		 push	 DWORD PTR [esi]
  00072	e8 00 00 00 00	 call	 ?Delete@?$CDynamicPool@VCGraphicTextInstance@@@@KAXPAVCGraphicTextInstance@@@Z ; CDynamicPool<CGraphicTextInstance>::Delete
  00077	47		 inc	 edi
  00078	8d 76 04	 lea	 esi, DWORD PTR [esi+4]
  0007b	83 c4 04	 add	 esp, 4
  0007e	3b fb		 cmp	 edi, ebx
  00080	75 ee		 jne	 SHORT $LL84@Destroy
  00082	8b 4d fc	 mov	 ecx, DWORD PTR _this$1$[ebp]
$LN82@Destroy:
; File c:\program files (x86)\microsoft visual studio 12.0\vc\include\vector

; 1510 : 		this->_Mylast = this->_Myfirst;

  00085	8b 41 44	 mov	 eax, DWORD PTR [ecx+68]
  00088	5f		 pop	 edi
  00089	89 41 48	 mov	 DWORD PTR [ecx+72], eax
  0008c	8b 41 50	 mov	 eax, DWORD PTR [ecx+80]
  0008f	5e		 pop	 esi
  00090	89 41 54	 mov	 DWORD PTR [ecx+84], eax
  00093	5b		 pop	 ebx
; File d:\metin2\metin2\client_source_clean\client_source_clean\source\userinterface\pythoneventmanager.cpp

; 1136 : }

  00094	8b e5		 mov	 esp, ebp
  00096	5d		 pop	 ebp
  00097	c3		 ret	 0
?Destroy@CPythonEventManager@@QAEXXZ ENDP		; CPythonEventManager::Destroy
_TEXT	ENDS
; Function compile flags: /Ogtp
; File d:\metin2\metin2\client_source_clean\client_source_clean\source\userinterface\pythoneventmanager.cpp
; File c:\program files (x86)\microsoft visual studio 12.0\vc\include\xstring
; File c:\program files (x86)\microsoft visual studio 12.0\vc\include\xmemory0
; File c:\program files (x86)\microsoft visual studio 12.0\vc\include\xstring
; File c:\program files (x86)\microsoft visual studio 12.0\vc\include\iosfwd
; File d:\metin2\metin2\client_source_clean\client_source_clean\source\eterlib\pool.h
; File c:\program files (x86)\microsoft visual studio 12.0\vc\include\vector
; File c:\program files (x86)\microsoft visual studio 12.0\vc\include\xmemory0
; File c:\program files (x86)\microsoft visual studio 12.0\vc\include\vector
; File c:\program files (x86)\microsoft visual studio 12.0\vc\include\xmemory0
; File c:\program files (x86)\microsoft visual studio 12.0\vc\include\vector
; File d:\metin2\metin2\client_source_clean\client_source_clean\source\eterlib\pool.h
; File c:\program files (x86)\microsoft visual studio 12.0\vc\include\vector
; File c:\program files (x86)\microsoft visual studio 12.0\vc\include\xmemory0
; File c:\program files (x86)\microsoft visual studio 12.0\vc\include\vector
; File c:\program files (x86)\microsoft visual studio 12.0\vc\include\xmemory0
; File c:\program files (x86)\microsoft visual studio 12.0\vc\include\vector
; File c:\program files (x86)\microsoft visual studio 12.0\vc\include\xmemory0
; File c:\program files (x86)\microsoft visual studio 12.0\vc\include\vector
; File c:\program files (x86)\microsoft visual studio 12.0\vc\include\xtree
; File c:\program files (x86)\microsoft visual studio 12.0\vc\include\xmemory0
; File d:\metin2\metin2\client_source_clean\client_source_clean\source\eterbase\singleton.h
; File d:\metin2\metin2\client_source_clean\client_source_clean\source\userinterface\pythoneventmanager.cpp
;	COMDAT ??1CPythonEventManager@@UAE@XZ
_TEXT	SEGMENT
$T1 = -4						; size = 4
??1CPythonEventManager@@UAE@XZ PROC			; CPythonEventManager::~CPythonEventManager, COMDAT
; _this$ = ecx

; 1210 : {

  00000	55		 push	 ebp
  00001	8b ec		 mov	 ebp, esp
  00003	51		 push	 ecx
  00004	56		 push	 esi
  00005	57		 push	 edi
  00006	8b f9		 mov	 edi, ecx
  00008	c7 07 00 00 00
	00		 mov	 DWORD PTR [edi], OFFSET ??_7CPythonEventManager@@6B@
; File c:\program files (x86)\microsoft visual studio 12.0\vc\include\xstring

; 2275 : 		else if (this->_BUF_SIZE <= this->_Myres)

  0000e	83 7f 7c 10	 cmp	 DWORD PTR [edi+124], 16	; 00000010H
  00012	72 0b		 jb	 SHORT $LN23@CPythonEve
; File c:\program files (x86)\microsoft visual studio 12.0\vc\include\xmemory0

; 573  : 		::operator delete(_Ptr);

  00014	ff 77 68	 push	 DWORD PTR [edi+104]
  00017	e8 00 00 00 00	 call	 ??3@YAXPAX@Z		; operator delete
  0001c	83 c4 04	 add	 esp, 4
$LN23@CPythonEve:
  0001f	c7 47 7c 0f 00
	00 00		 mov	 DWORD PTR [edi+124], 15	; 0000000fH
; File c:\program files (x86)\microsoft visual studio 12.0\vc\include\xstring

; 2237 : 		_Traits::assign(this->_Myptr()[this->_Mysize = _Newsize], _Elem());

  00026	c7 47 78 00 00
	00 00		 mov	 DWORD PTR [edi+120], 0
; File c:\program files (x86)\microsoft visual studio 12.0\vc\include\iosfwd

; 564  : 		_Left = _Right;

  0002d	c6 47 68 00	 mov	 BYTE PTR [edi+104], 0
; File d:\metin2\metin2\client_source_clean\client_source_clean\source\eterlib\pool.h

; 18   : 		{

  00031	c7 47 40 00 00
	00 00		 mov	 DWORD PTR [edi+64], OFFSET ??_7?$CDynamicPool@VCGraphicTextInstance@@@@6B@
; File c:\program files (x86)\microsoft visual studio 12.0\vc\include\vector

; 1623 : 		if (this->_Myfirst != pointer())

  00038	8b 47 50	 mov	 eax, DWORD PTR [edi+80]
  0003b	85 c0		 test	 eax, eax
  0003d	74 1e		 je	 SHORT $LN39@CPythonEve
; File c:\program files (x86)\microsoft visual studio 12.0\vc\include\xmemory0

; 573  : 		::operator delete(_Ptr);

  0003f	50		 push	 eax
  00040	e8 00 00 00 00	 call	 ??3@YAXPAX@Z		; operator delete
  00045	83 c4 04	 add	 esp, 4
; File c:\program files (x86)\microsoft visual studio 12.0\vc\include\vector

; 1629 : 			this->_Myfirst = pointer();

  00048	c7 47 50 00 00
	00 00		 mov	 DWORD PTR [edi+80], 0

; 1630 : 			this->_Mylast = pointer();

  0004f	c7 47 54 00 00
	00 00		 mov	 DWORD PTR [edi+84], 0

; 1631 : 			this->_Myend = pointer();

  00056	c7 47 58 00 00
	00 00		 mov	 DWORD PTR [edi+88], 0
$LN39@CPythonEve:

; 1623 : 		if (this->_Myfirst != pointer())

  0005d	8b 47 44	 mov	 eax, DWORD PTR [edi+68]
  00060	85 c0		 test	 eax, eax
  00062	74 1e		 je	 SHORT $LN52@CPythonEve
; File c:\program files (x86)\microsoft visual studio 12.0\vc\include\xmemory0

; 573  : 		::operator delete(_Ptr);

  00064	50		 push	 eax
  00065	e8 00 00 00 00	 call	 ??3@YAXPAX@Z		; operator delete
  0006a	83 c4 04	 add	 esp, 4
; File c:\program files (x86)\microsoft visual studio 12.0\vc\include\vector

; 1629 : 			this->_Myfirst = pointer();

  0006d	c7 47 44 00 00
	00 00		 mov	 DWORD PTR [edi+68], 0

; 1630 : 			this->_Mylast = pointer();

  00074	c7 47 48 00 00
	00 00		 mov	 DWORD PTR [edi+72], 0

; 1631 : 			this->_Myend = pointer();

  0007b	c7 47 4c 00 00
	00 00		 mov	 DWORD PTR [edi+76], 0
$LN52@CPythonEve:
; File d:\metin2\metin2\client_source_clean\client_source_clean\source\eterlib\pool.h

; 18   : 		{

  00082	c7 47 1c 00 00
	00 00		 mov	 DWORD PTR [edi+28], OFFSET ??_7?$CDynamicPool@USEventSet@CPythonEventManager@@@@6B@
; File c:\program files (x86)\microsoft visual studio 12.0\vc\include\vector

; 1623 : 		if (this->_Myfirst != pointer())

  00089	8b 47 2c	 mov	 eax, DWORD PTR [edi+44]
  0008c	85 c0		 test	 eax, eax
  0008e	74 1e		 je	 SHORT $LN67@CPythonEve
; File c:\program files (x86)\microsoft visual studio 12.0\vc\include\xmemory0

; 573  : 		::operator delete(_Ptr);

  00090	50		 push	 eax
  00091	e8 00 00 00 00	 call	 ??3@YAXPAX@Z		; operator delete
  00096	83 c4 04	 add	 esp, 4
; File c:\program files (x86)\microsoft visual studio 12.0\vc\include\vector

; 1629 : 			this->_Myfirst = pointer();

  00099	c7 47 2c 00 00
	00 00		 mov	 DWORD PTR [edi+44], 0

; 1630 : 			this->_Mylast = pointer();

  000a0	c7 47 30 00 00
	00 00		 mov	 DWORD PTR [edi+48], 0

; 1631 : 			this->_Myend = pointer();

  000a7	c7 47 34 00 00
	00 00		 mov	 DWORD PTR [edi+52], 0
$LN67@CPythonEve:

; 1623 : 		if (this->_Myfirst != pointer())

  000ae	8b 47 20	 mov	 eax, DWORD PTR [edi+32]
  000b1	85 c0		 test	 eax, eax
  000b3	74 1e		 je	 SHORT $LN80@CPythonEve
; File c:\program files (x86)\microsoft visual studio 12.0\vc\include\xmemory0

; 573  : 		::operator delete(_Ptr);

  000b5	50		 push	 eax
  000b6	e8 00 00 00 00	 call	 ??3@YAXPAX@Z		; operator delete
  000bb	83 c4 04	 add	 esp, 4
; File c:\program files (x86)\microsoft visual studio 12.0\vc\include\vector

; 1629 : 			this->_Myfirst = pointer();

  000be	c7 47 20 00 00
	00 00		 mov	 DWORD PTR [edi+32], 0

; 1630 : 			this->_Mylast = pointer();

  000c5	c7 47 24 00 00
	00 00		 mov	 DWORD PTR [edi+36], 0

; 1631 : 			this->_Myend = pointer();

  000cc	c7 47 28 00 00
	00 00		 mov	 DWORD PTR [edi+40], 0
$LN80@CPythonEve:

; 1623 : 		if (this->_Myfirst != pointer())

  000d3	8b 47 0c	 mov	 eax, DWORD PTR [edi+12]
  000d6	85 c0		 test	 eax, eax
  000d8	74 1e		 je	 SHORT $LN93@CPythonEve
; File c:\program files (x86)\microsoft visual studio 12.0\vc\include\xmemory0

; 573  : 		::operator delete(_Ptr);

  000da	50		 push	 eax
  000db	e8 00 00 00 00	 call	 ??3@YAXPAX@Z		; operator delete
  000e0	83 c4 04	 add	 esp, 4
; File c:\program files (x86)\microsoft visual studio 12.0\vc\include\vector

; 1629 : 			this->_Myfirst = pointer();

  000e3	c7 47 0c 00 00
	00 00		 mov	 DWORD PTR [edi+12], 0

; 1630 : 			this->_Mylast = pointer();

  000ea	c7 47 10 00 00
	00 00		 mov	 DWORD PTR [edi+16], 0

; 1631 : 			this->_Myend = pointer();

  000f1	c7 47 14 00 00
	00 00		 mov	 DWORD PTR [edi+20], 0
$LN93@CPythonEve:
; File c:\program files (x86)\microsoft visual studio 12.0\vc\include\xtree

; 2230 : 		erase(begin(), end());

  000f8	8b 47 04	 mov	 eax, DWORD PTR [edi+4]
  000fb	8d 4f 04	 lea	 ecx, DWORD PTR [edi+4]
  000fe	50		 push	 eax
  000ff	ff 30		 push	 DWORD PTR [eax]
  00101	8d 45 fc	 lea	 eax, DWORD PTR $T1[ebp]
  00104	50		 push	 eax
  00105	e8 00 00 00 00	 call	 ?erase@?$_Tree@V?$_Tmap_traits@V?$basic_string@DU?$char_traits@D@std@@V?$allocator@D@2@@std@@HU?$less@V?$basic_string@DU?$char_traits@D@std@@V?$allocator@D@2@@std@@@2@V?$allocator@U?$pair@$$CBV?$basic_string@DU?$char_traits@D@std@@V?$allocator@D@2@@std@@H@std@@@2@$0A@@std@@@std@@QAE?AV?$_Tree_iterator@V?$_Tree_val@U?$_Tree_simple_types@U?$pair@$$CBV?$basic_string@DU?$char_traits@D@std@@V?$allocator@D@2@@std@@H@std@@@std@@@std@@@2@V?$_Tree_const_iterator@V?$_Tree_val@U?$_Tree_simple_types@U?$pair@$$CBV?$basic_string@DU?$char_traits@D@std@@V?$allocator@D@2@@std@@H@std@@@std@@@std@@@2@0@Z ; std::_Tree<std::_Tmap_traits<std::basic_string<char,std::char_traits<char>,std::allocator<char> >,int,std::less<std::basic_string<char,std::char_traits<char>,std::allocator<char> > >,std::allocator<std::pair<std::basic_string<char,std::char_traits<char>,std::allocator<char> > const ,int> >,0> >::erase
; File c:\program files (x86)\microsoft visual studio 12.0\vc\include\xmemory0

; 573  : 		::operator delete(_Ptr);

  0010a	ff 77 04	 push	 DWORD PTR [edi+4]
  0010d	e8 00 00 00 00	 call	 ??3@YAXPAX@Z		; operator delete
  00112	83 c4 04	 add	 esp, 4
; File d:\metin2\metin2\client_source_clean\client_source_clean\source\eterbase\singleton.h

; 19   : 	{ 

  00115	c7 07 00 00 00
	00		 mov	 DWORD PTR [edi], OFFSET ??_7?$CSingleton@VCPythonEventManager@@@@6B@

; 20   : 		assert(ms_singleton);
; 21   : 		ms_singleton = 0; 

  0011b	c7 05 00 00 00
	00 00 00 00 00	 mov	 DWORD PTR ?ms_singleton@?$CSingleton@VCPythonEventManager@@@@0PAVCPythonEventManager@@A, 0 ; CSingleton<CPythonEventManager>::ms_singleton
  00125	5f		 pop	 edi
  00126	5e		 pop	 esi
; File d:\metin2\metin2\client_source_clean\client_source_clean\source\userinterface\pythoneventmanager.cpp

; 1211 : }

  00127	8b e5		 mov	 esp, ebp
  00129	5d		 pop	 ebp
  0012a	c3		 ret	 0
??1CPythonEventManager@@UAE@XZ ENDP			; CPythonEventManager::~CPythonEventManager
_TEXT	ENDS
; Function compile flags: /Ogtp
; File d:\metin2\metin2\client_source_clean\client_source_clean\source\userinterface\pythoneventmanager.cpp
; File d:\metin2\metin2\client_source_clean\client_source_clean\source\eterbase\singleton.h
; File d:\metin2\metin2\client_source_clean\client_source_clean\source\userinterface\pythoneventmanager.cpp
; File c:\program files (x86)\microsoft visual studio 12.0\vc\include\xtree
; File c:\program files (x86)\microsoft visual studio 12.0\vc\include\vector
; File d:\metin2\metin2\client_source_clean\client_source_clean\source\eterlib\pool.h
; File c:\program files (x86)\microsoft visual studio 12.0\vc\include\vector
; File d:\metin2\metin2\client_source_clean\client_source_clean\source\eterlib\pool.h
; File c:\program files (x86)\microsoft visual studio 12.0\vc\include\vector
; File d:\metin2\metin2\client_source_clean\client_source_clean\source\eterlib\pool.h
; File d:\metin2\metin2\client_source_clean\client_source_clean\source\userinterface\pythoneventmanager.cpp
; File c:\program files (x86)\microsoft visual studio 12.0\vc\include\xstring
; File c:\program files (x86)\microsoft visual studio 12.0\vc\include\iosfwd
; File c:\program files (x86)\microsoft visual studio 12.0\vc\include\xstring
; File d:\metin2\metin2\client_source_clean\client_source_clean\source\userinterface\pythoneventmanager.cpp
; File c:\program files (x86)\microsoft visual studio 12.0\vc\include\xstring
; File c:\program files (x86)\microsoft visual studio 12.0\vc\include\iosfwd
; File c:\program files (x86)\microsoft visual studio 12.0\vc\include\xstring
; File d:\metin2\metin2\client_source_clean\client_source_clean\source\userinterface\pythoneventmanager.cpp
; File c:\program files (x86)\microsoft visual studio 12.0\vc\include\xstring
; File c:\program files (x86)\microsoft visual studio 12.0\vc\include\xmemory0
; File c:\program files (x86)\microsoft visual studio 12.0\vc\include\xstring
; File c:\program files (x86)\microsoft visual studio 12.0\vc\include\iosfwd
; File c:\program files (x86)\microsoft visual studio 12.0\vc\include\xstring
; File d:\metin2\metin2\client_source_clean\client_source_clean\source\userinterface\pythoneventmanager.cpp
; File c:\program files (x86)\microsoft visual studio 12.0\vc\include\xstring
; File c:\program files (x86)\microsoft visual studio 12.0\vc\include\xmemory0
; File c:\program files (x86)\microsoft visual studio 12.0\vc\include\xstring
; File c:\program files (x86)\microsoft visual studio 12.0\vc\include\iosfwd
; File c:\program files (x86)\microsoft visual studio 12.0\vc\include\xstring
; File d:\metin2\metin2\client_source_clean\client_source_clean\source\userinterface\pythoneventmanager.cpp
; File c:\program files (x86)\microsoft visual studio 12.0\vc\include\xstring
; File c:\program files (x86)\microsoft visual studio 12.0\vc\include\xmemory0
; File c:\program files (x86)\microsoft visual studio 12.0\vc\include\xstring
; File c:\program files (x86)\microsoft visual studio 12.0\vc\include\iosfwd
; File c:\program files (x86)\microsoft visual studio 12.0\vc\include\xstring
; File d:\metin2\metin2\client_source_clean\client_source_clean\source\userinterface\pythoneventmanager.cpp
; File c:\program files (x86)\microsoft visual studio 12.0\vc\include\xstring
; File c:\program files (x86)\microsoft visual studio 12.0\vc\include\xmemory0
; File c:\program files (x86)\microsoft visual studio 12.0\vc\include\xstring
; File c:\program files (x86)\microsoft visual studio 12.0\vc\include\iosfwd
; File c:\program files (x86)\microsoft visual studio 12.0\vc\include\xstring
; File d:\metin2\metin2\client_source_clean\client_source_clean\source\userinterface\pythoneventmanager.cpp
; File c:\program files (x86)\microsoft visual studio 12.0\vc\include\xstring
; File c:\program files (x86)\microsoft visual studio 12.0\vc\include\xmemory0
; File c:\program files (x86)\microsoft visual studio 12.0\vc\include\xstring
; File c:\program files (x86)\microsoft visual studio 12.0\vc\include\iosfwd
; File c:\program files (x86)\microsoft visual studio 12.0\vc\include\xstring
; File d:\metin2\metin2\client_source_clean\client_source_clean\source\userinterface\pythoneventmanager.cpp
; File c:\program files (x86)\microsoft visual studio 12.0\vc\include\xstring
; File c:\program files (x86)\microsoft visual studio 12.0\vc\include\xmemory0
; File c:\program files (x86)\microsoft visual studio 12.0\vc\include\xstring
; File c:\program files (x86)\microsoft visual studio 12.0\vc\include\iosfwd
; File c:\program files (x86)\microsoft visual studio 12.0\vc\include\xstring
; File d:\metin2\metin2\client_source_clean\client_source_clean\source\userinterface\pythoneventmanager.cpp
; File c:\program files (x86)\microsoft visual studio 12.0\vc\include\xstring
; File c:\program files (x86)\microsoft visual studio 12.0\vc\include\xmemory0
; File c:\program files (x86)\microsoft visual studio 12.0\vc\include\xstring
; File c:\program files (x86)\microsoft visual studio 12.0\vc\include\iosfwd
; File c:\program files (x86)\microsoft visual studio 12.0\vc\include\xstring
; File d:\metin2\metin2\client_source_clean\client_source_clean\source\userinterface\pythoneventmanager.cpp
; File c:\program files (x86)\microsoft visual studio 12.0\vc\include\xstring
; File c:\program files (x86)\microsoft visual studio 12.0\vc\include\xmemory0
; File c:\program files (x86)\microsoft visual studio 12.0\vc\include\xstring
; File c:\program files (x86)\microsoft visual studio 12.0\vc\include\iosfwd
; File c:\program files (x86)\microsoft visual studio 12.0\vc\include\xstring
; File d:\metin2\metin2\client_source_clean\client_source_clean\source\userinterface\pythoneventmanager.cpp
; File c:\program files (x86)\microsoft visual studio 12.0\vc\include\xstring
; File c:\program files (x86)\microsoft visual studio 12.0\vc\include\xmemory0
; File c:\program files (x86)\microsoft visual studio 12.0\vc\include\xstring
; File c:\program files (x86)\microsoft visual studio 12.0\vc\include\iosfwd
; File c:\program files (x86)\microsoft visual studio 12.0\vc\include\xstring
; File d:\metin2\metin2\client_source_clean\client_source_clean\source\userinterface\pythoneventmanager.cpp
; File c:\program files (x86)\microsoft visual studio 12.0\vc\include\xstring
; File c:\program files (x86)\microsoft visual studio 12.0\vc\include\xmemory0
; File c:\program files (x86)\microsoft visual studio 12.0\vc\include\xstring
; File c:\program files (x86)\microsoft visual studio 12.0\vc\include\iosfwd
; File c:\program files (x86)\microsoft visual studio 12.0\vc\include\xstring
; File d:\metin2\metin2\client_source_clean\client_source_clean\source\userinterface\pythoneventmanager.cpp
; File c:\program files (x86)\microsoft visual studio 12.0\vc\include\xstring
; File c:\program files (x86)\microsoft visual studio 12.0\vc\include\xmemory0
; File c:\program files (x86)\microsoft visual studio 12.0\vc\include\xstring
; File c:\program files (x86)\microsoft visual studio 12.0\vc\include\iosfwd
; File c:\program files (x86)\microsoft visual studio 12.0\vc\include\xstring
; File d:\metin2\metin2\client_source_clean\client_source_clean\source\userinterface\pythoneventmanager.cpp
; File c:\program files (x86)\microsoft visual studio 12.0\vc\include\xstring
; File c:\program files (x86)\microsoft visual studio 12.0\vc\include\xmemory0
; File c:\program files (x86)\microsoft visual studio 12.0\vc\include\xstring
; File c:\program files (x86)\microsoft visual studio 12.0\vc\include\iosfwd
; File c:\program files (x86)\microsoft visual studio 12.0\vc\include\xstring
; File d:\metin2\metin2\client_source_clean\client_source_clean\source\userinterface\pythoneventmanager.cpp
; File c:\program files (x86)\microsoft visual studio 12.0\vc\include\xstring
; File c:\program files (x86)\microsoft visual studio 12.0\vc\include\xmemory0
; File c:\program files (x86)\microsoft visual studio 12.0\vc\include\xstring
; File c:\program files (x86)\microsoft visual studio 12.0\vc\include\iosfwd
; File c:\program files (x86)\microsoft visual studio 12.0\vc\include\xstring
; File d:\metin2\metin2\client_source_clean\client_source_clean\source\userinterface\pythoneventmanager.cpp
; File c:\program files (x86)\microsoft visual studio 12.0\vc\include\xstring
; File c:\program files (x86)\microsoft visual studio 12.0\vc\include\xmemory0
; File c:\program files (x86)\microsoft visual studio 12.0\vc\include\xstring
; File c:\program files (x86)\microsoft visual studio 12.0\vc\include\iosfwd
; File c:\program files (x86)\microsoft visual studio 12.0\vc\include\xstring
; File d:\metin2\metin2\client_source_clean\client_source_clean\source\userinterface\pythoneventmanager.cpp
; File c:\program files (x86)\microsoft visual studio 12.0\vc\include\xstring
; File c:\program files (x86)\microsoft visual studio 12.0\vc\include\xmemory0
; File c:\program files (x86)\microsoft visual studio 12.0\vc\include\xstring
; File c:\program files (x86)\microsoft visual studio 12.0\vc\include\iosfwd
; File c:\program files (x86)\microsoft visual studio 12.0\vc\include\xstring
; File d:\metin2\metin2\client_source_clean\client_source_clean\source\userinterface\pythoneventmanager.cpp
; File c:\program files (x86)\microsoft visual studio 12.0\vc\include\xstring
; File c:\program files (x86)\microsoft visual studio 12.0\vc\include\xmemory0
; File c:\program files (x86)\microsoft visual studio 12.0\vc\include\xstring
; File c:\program files (x86)\microsoft visual studio 12.0\vc\include\iosfwd
; File c:\program files (x86)\microsoft visual studio 12.0\vc\include\xstring
; File d:\metin2\metin2\client_source_clean\client_source_clean\source\userinterface\pythoneventmanager.cpp
; File c:\program files (x86)\microsoft visual studio 12.0\vc\include\xstring
; File c:\program files (x86)\microsoft visual studio 12.0\vc\include\xmemory0
; File c:\program files (x86)\microsoft visual studio 12.0\vc\include\xstring
; File c:\program files (x86)\microsoft visual studio 12.0\vc\include\iosfwd
; File c:\program files (x86)\microsoft visual studio 12.0\vc\include\xstring
; File d:\metin2\metin2\client_source_clean\client_source_clean\source\userinterface\pythoneventmanager.cpp
; File c:\program files (x86)\microsoft visual studio 12.0\vc\include\xstring
; File c:\program files (x86)\microsoft visual studio 12.0\vc\include\xmemory0
; File c:\program files (x86)\microsoft visual studio 12.0\vc\include\xstring
; File c:\program files (x86)\microsoft visual studio 12.0\vc\include\iosfwd
; File c:\program files (x86)\microsoft visual studio 12.0\vc\include\xstring
; File d:\metin2\metin2\client_source_clean\client_source_clean\source\userinterface\pythoneventmanager.cpp
; File c:\program files (x86)\microsoft visual studio 12.0\vc\include\xstring
; File c:\program files (x86)\microsoft visual studio 12.0\vc\include\xmemory0
; File d:\metin2\metin2\client_source_clean\client_source_clean\source\userinterface\pythoneventmanager.cpp
; File c:\program files (x86)\microsoft visual studio 12.0\vc\include\xstring
; File c:\program files (x86)\microsoft visual studio 12.0\vc\include\xmemory0
; File d:\metin2\metin2\client_source_clean\client_source_clean\source\userinterface\pythoneventmanager.cpp
; File c:\program files (x86)\microsoft visual studio 12.0\vc\include\xstring
; File c:\program files (x86)\microsoft visual studio 12.0\vc\include\xmemory0
; File d:\metin2\metin2\client_source_clean\client_source_clean\source\userinterface\pythoneventmanager.cpp
; File c:\program files (x86)\microsoft visual studio 12.0\vc\include\xstring
; File c:\program files (x86)\microsoft visual studio 12.0\vc\include\xmemory0
; File d:\metin2\metin2\client_source_clean\client_source_clean\source\userinterface\pythoneventmanager.cpp
; File c:\program files (x86)\microsoft visual studio 12.0\vc\include\xstring
; File c:\program files (x86)\microsoft visual studio 12.0\vc\include\xmemory0
; File d:\metin2\metin2\client_source_clean\client_source_clean\source\userinterface\pythoneventmanager.cpp
; File c:\program files (x86)\microsoft visual studio 12.0\vc\include\xstring
; File c:\program files (x86)\microsoft visual studio 12.0\vc\include\xmemory0
; File d:\metin2\metin2\client_source_clean\client_source_clean\source\userinterface\pythoneventmanager.cpp
; File c:\program files (x86)\microsoft visual studio 12.0\vc\include\xstring
; File c:\program files (x86)\microsoft visual studio 12.0\vc\include\xmemory0
; File d:\metin2\metin2\client_source_clean\client_source_clean\source\userinterface\pythoneventmanager.cpp
; File c:\program files (x86)\microsoft visual studio 12.0\vc\include\xstring
; File c:\program files (x86)\microsoft visual studio 12.0\vc\include\xmemory0
; File d:\metin2\metin2\client_source_clean\client_source_clean\source\userinterface\pythoneventmanager.cpp
; File c:\program files (x86)\microsoft visual studio 12.0\vc\include\xstring
; File c:\program files (x86)\microsoft visual studio 12.0\vc\include\xmemory0
; File d:\metin2\metin2\client_source_clean\client_source_clean\source\userinterface\pythoneventmanager.cpp
; File c:\program files (x86)\microsoft visual studio 12.0\vc\include\xstring
; File c:\program files (x86)\microsoft visual studio 12.0\vc\include\xmemory0
; File d:\metin2\metin2\client_source_clean\client_source_clean\source\userinterface\pythoneventmanager.cpp
; File c:\program files (x86)\microsoft visual studio 12.0\vc\include\xstring
; File c:\program files (x86)\microsoft visual studio 12.0\vc\include\xmemory0
; File d:\metin2\metin2\client_source_clean\client_source_clean\source\userinterface\pythoneventmanager.cpp
; File c:\program files (x86)\microsoft visual studio 12.0\vc\include\xstring
; File c:\program files (x86)\microsoft visual studio 12.0\vc\include\xmemory0
; File d:\metin2\metin2\client_source_clean\client_source_clean\source\userinterface\pythoneventmanager.cpp
; File c:\program files (x86)\microsoft visual studio 12.0\vc\include\xstring
; File c:\program files (x86)\microsoft visual studio 12.0\vc\include\xmemory0
; File d:\metin2\metin2\client_source_clean\client_source_clean\source\userinterface\pythoneventmanager.cpp
; File c:\program files (x86)\microsoft visual studio 12.0\vc\include\xstring
; File c:\program files (x86)\microsoft visual studio 12.0\vc\include\xmemory0
; File d:\metin2\metin2\client_source_clean\client_source_clean\source\userinterface\pythoneventmanager.cpp
; File c:\program files (x86)\microsoft visual studio 12.0\vc\include\xstring
; File c:\program files (x86)\microsoft visual studio 12.0\vc\include\xmemory0
; File d:\metin2\metin2\client_source_clean\client_source_clean\source\userinterface\pythoneventmanager.cpp
; File c:\program files (x86)\microsoft visual studio 12.0\vc\include\xstring
; File c:\program files (x86)\microsoft visual studio 12.0\vc\include\xmemory0
; File d:\metin2\metin2\client_source_clean\client_source_clean\source\userinterface\pythoneventmanager.cpp
; File c:\program files (x86)\microsoft visual studio 12.0\vc\include\xstring
; File c:\program files (x86)\microsoft visual studio 12.0\vc\include\xmemory0
; File d:\metin2\metin2\client_source_clean\client_source_clean\source\userinterface\pythoneventmanager.cpp
; File c:\program files (x86)\microsoft visual studio 12.0\vc\include\xstring
; File c:\program files (x86)\microsoft visual studio 12.0\vc\include\xmemory0
; File d:\metin2\metin2\client_source_clean\client_source_clean\source\userinterface\pythoneventmanager.cpp
; File c:\program files (x86)\microsoft visual studio 12.0\vc\include\xstring
; File c:\program files (x86)\microsoft visual studio 12.0\vc\include\xmemory0
; File d:\metin2\metin2\client_source_clean\client_source_clean\source\userinterface\pythoneventmanager.cpp
; File c:\program files (x86)\microsoft visual studio 12.0\vc\include\xstring
; File c:\program files (x86)\microsoft visual studio 12.0\vc\include\xmemory0
; File d:\metin2\metin2\client_source_clean\client_source_clean\source\userinterface\pythoneventmanager.cpp
; File c:\program files (x86)\microsoft visual studio 12.0\vc\include\xstring
; File c:\program files (x86)\microsoft visual studio 12.0\vc\include\xmemory0
; File d:\metin2\metin2\client_source_clean\client_source_clean\source\userinterface\pythoneventmanager.cpp
; File c:\program files (x86)\microsoft visual studio 12.0\vc\include\xstring
; File c:\program files (x86)\microsoft visual studio 12.0\vc\include\xmemory0
; File d:\metin2\metin2\client_source_clean\client_source_clean\source\userinterface\pythoneventmanager.cpp
; File c:\program files (x86)\microsoft visual studio 12.0\vc\include\xstring
; File c:\program files (x86)\microsoft visual studio 12.0\vc\include\xmemory0
; File d:\metin2\metin2\client_source_clean\client_source_clean\source\userinterface\pythoneventmanager.cpp
; File c:\program files (x86)\microsoft visual studio 12.0\vc\include\xstring
; File c:\program files (x86)\microsoft visual studio 12.0\vc\include\xmemory0
; File d:\metin2\metin2\client_source_clean\client_source_clean\source\userinterface\pythoneventmanager.cpp
;	COMDAT ??0CPythonEventManager@@QAE@XZ
_TEXT	SEGMENT
_this$GSCopy$ = -44					; size = 4
$T2 = -40						; size = 24
$T3 = -40						; size = 24
$T4 = -40						; size = 24
$T5 = -40						; size = 24
$T6 = -40						; size = 24
$T7 = -40						; size = 24
$T8 = -40						; size = 24
$T9 = -40						; size = 24
$T10 = -40						; size = 24
$T11 = -40						; size = 24
$T12 = -40						; size = 24
$T13 = -40						; size = 24
$T14 = -40						; size = 24
$T15 = -40						; size = 24
$T16 = -40						; size = 24
$T17 = -40						; size = 24
$T18 = -40						; size = 24
$T19 = -40						; size = 24
$T20 = -40						; size = 24
$T21 = -40						; size = 24
$T22 = -40						; size = 24
$T23 = -40						; size = 24
$T24 = -40						; size = 24
$T25 = -40						; size = 24
$T26 = -40						; size = 24
$T27 = -40						; size = 24
$T28 = -40						; size = 24
$T29 = -40						; size = 24
$T30 = -40						; size = 24
$T31 = -40						; size = 24
$T32 = -40						; size = 24
$T33 = -40						; size = 24
$T34 = -40						; size = 24
$T35 = -40						; size = 24
$T36 = -40						; size = 24
$T37 = -40						; size = 24
$T38 = -40						; size = 24
$T39 = -40						; size = 24
$T40 = -40						; size = 24
$T41 = -40						; size = 24
$T42 = -40						; size = 24
$T43 = -40						; size = 24
__$ArrayPad$ = -16					; size = 4
__$EHRec$ = -12						; size = 12
??0CPythonEventManager@@QAE@XZ PROC			; CPythonEventManager::CPythonEventManager, COMDAT
; _this$ = ecx

; 1150 : {

  00000	55		 push	 ebp
  00001	8b ec		 mov	 ebp, esp
  00003	6a ff		 push	 -1
  00005	68 00 00 00 00	 push	 __ehhandler$??0CPythonEventManager@@QAE@XZ
  0000a	64 a1 00 00 00
	00		 mov	 eax, DWORD PTR fs:0
  00010	50		 push	 eax
  00011	83 ec 20	 sub	 esp, 32			; 00000020H
  00014	a1 00 00 00 00	 mov	 eax, DWORD PTR ___security_cookie
  00019	33 c5		 xor	 eax, ebp
  0001b	89 45 f0	 mov	 DWORD PTR __$ArrayPad$[ebp], eax
  0001e	56		 push	 esi
  0001f	57		 push	 edi
  00020	50		 push	 eax
  00021	8d 45 f4	 lea	 eax, DWORD PTR __$EHRec$[ebp]
  00024	64 a3 00 00 00
	00		 mov	 DWORD PTR fs:0, eax
  0002a	8b f9		 mov	 edi, ecx
  0002c	89 7d d4	 mov	 DWORD PTR _this$GSCopy$[ebp], edi
; File d:\metin2\metin2\client_source_clean\client_source_clean\source\eterbase\singleton.h

; 15   : 		ms_singleton = (T*) ((int) this + offset);

  0002f	89 3d 00 00 00
	00		 mov	 DWORD PTR ?ms_singleton@?$CSingleton@VCPythonEventManager@@@@0PAVCPythonEventManager@@A, edi ; CSingleton<CPythonEventManager>::ms_singleton
; File d:\metin2\metin2\client_source_clean\client_source_clean\source\userinterface\pythoneventmanager.cpp

; 1150 : {

  00035	c7 45 fc 00 00
	00 00		 mov	 DWORD PTR __$EHRec$[ebp+8], 0
  0003c	c7 07 00 00 00
	00		 mov	 DWORD PTR [edi], OFFSET ??_7CPythonEventManager@@6B@
; File c:\program files (x86)\microsoft visual studio 12.0\vc\include\xtree

; 569  : 		this->_Myhead = 0;

  00042	c7 47 04 00 00
	00 00		 mov	 DWORD PTR [edi+4], 0

; 570  : 		this->_Mysize = 0;

  00049	c7 47 08 00 00
	00 00		 mov	 DWORD PTR [edi+8], 0

; 571  : 		}
; 572  : 
; 573  : 	enum _Redbl
; 574  : 		{	// colors for link to parent
; 575  : 		_Red, _Black};
; 576  : 
; 577  : 	static char& _Color(_Nodeptr _Pnode)
; 578  : 		{	// return reference to color in node
; 579  : 		return ((char&)_Pnode->_Color);
; 580  : 		}
; 581  : 
; 582  : 	static char& _Isnil(_Nodeptr _Pnode)
; 583  : 		{	// return reference to nil flag in node
; 584  : 		return ((char&)_Pnode->_Isnil);
; 585  : 		}
; 586  : 
; 587  : 	static _Nodepref _Left(_Nodeptr _Pnode)
; 588  : 		{	// return reference to left pointer in node
; 589  : 		return ((_Nodepref)_Pnode->_Left);
; 590  : 		}
; 591  : 
; 592  : 	static _Nodepref _Parent(_Nodeptr _Pnode)
; 593  : 		{	// return reference to parent pointer in node
; 594  : 		return ((_Nodepref)_Pnode->_Parent);
; 595  : 		}
; 596  : 
; 597  : 	static _Nodepref _Right(_Nodeptr _Pnode)
; 598  : 		{	// return reference to right pointer in node
; 599  : 		return ((_Nodepref)_Pnode->_Right);
; 600  : 		}
; 601  : 
; 602  : 	static reference _Myval(_Nodeptr _Pnode)
; 603  : 		{	// return reference to value in node
; 604  : 		return ((reference)_Pnode->_Myval);
; 605  : 		}
; 606  : 
; 607  : 	static _Nodeptr _Max(_Nodeptr _Pnode)
; 608  : 		{	// return rightmost node in subtree at _Pnode
; 609  : 		while (!_Isnil(_Right(_Pnode)))
; 610  : 			_Pnode = _Right(_Pnode);
; 611  : 		return (_Pnode);
; 612  : 		}
; 613  : 
; 614  : 	static _Nodeptr _Min(_Nodeptr _Pnode)
; 615  : 		{	// return leftmost node in subtree at _Pnode
; 616  : 		while (!_Isnil(_Left(_Pnode)))
; 617  : 			_Pnode = _Left(_Pnode);
; 618  : 		return (_Pnode);
; 619  : 		}
; 620  : 
; 621  : 	_Nodeptr _Myhead;	// pointer to head node
; 622  : 	size_type _Mysize;	// number of elements
; 623  : 	};
; 624  : 
; 625  : 		// TEMPLATE CLASS _Tree_alloc
; 626  : template<bool _Al_has_storage,
; 627  : 	class _Alloc_types>
; 628  : 	class _Tree_alloc
; 629  : 		: public _Tree_val<typename _Alloc_types::_Val_types>
; 630  : 	{	// base class for tree to hold allocator with storage
; 631  : public:
; 632  : 	typename _Alloc_types::_Alnod_type _Alnod;	// allocator object
; 633  : 
; 634  : 	typedef _Tree_alloc<_Al_has_storage, _Alloc_types> _Myt;
; 635  : 	typedef typename _Alloc_types::_Alloc _Alloc;
; 636  : 	typedef typename _Alloc_types::_Alnod_type _Alty;
; 637  : 	typedef typename _Alloc_types::_Node _Node;
; 638  : 	typedef typename _Alloc_types::_Nodeptr _Nodeptr;
; 639  : 
; 640  :  #if _ITERATOR_DEBUG_LEVEL == 0
; 641  : 	_Tree_alloc(const _Alloc& _Al = _Alloc())
; 642  : 		: _Alnod(_Al)
; 643  : 		{	// construct head node, allocator from _Al
; 644  : 		this->_Myhead = _Buyheadnode();
; 645  : 		}
; 646  : 
; 647  : 	~_Tree_alloc() _NOEXCEPT
; 648  : 		{	// destroy head node
; 649  : 		_Freeheadnode(this->_Myhead);
; 650  : 		}
; 651  : 
; 652  : 	void _Change_alloc(const _Alty& _Al)
; 653  : 		{	// replace old allocator
; 654  : 		this->_Alnod = _Al;
; 655  : 		}
; 656  : 
; 657  : 	void _Swap_alloc(_Myt& _Right)
; 658  : 		{	// swap allocators
; 659  : 		_Swap_adl(this->_Alnod, _Right._Alnod);
; 660  : 		}
; 661  : 
; 662  :  #else /* _ITERATOR_DEBUG_LEVEL == 0 */
; 663  : 	_Tree_alloc(const _Alloc& _Al = _Alloc())
; 664  : 		: _Alnod(_Al)
; 665  : 		{	// construct allocators from _Al
; 666  : 		this->_Myhead = _Buyheadnode();
; 667  : 		_TRY_BEGIN
; 668  : 		_Alloc_proxy();
; 669  : 		_CATCH_ALL
; 670  : 		_Freeheadnode(this->_Myhead);
; 671  : 		_RERAISE;
; 672  : 		_CATCH_END
; 673  : 		}
; 674  : 
; 675  : 	~_Tree_alloc() _NOEXCEPT
; 676  : 		{	// destroy proxy
; 677  : 		_Freeheadnode(this->_Myhead);
; 678  : 		_Free_proxy();
; 679  : 		}
; 680  : 
; 681  : 	void _Change_alloc(const _Alty& _Al)
; 682  : 		{	// replace old allocator
; 683  : 		_Free_proxy();
; 684  : 		this->_Alnod = _Al;
; 685  : 		_Alloc_proxy();
; 686  : 		}
; 687  : 
; 688  : 	void _Swap_alloc(_Myt& _Right)
; 689  : 		{	// swap allocators
; 690  : 		_Swap_adl(this->_Alnod, _Right._Alnod);
; 691  : 		_Swap_adl(this->_Myproxy, _Right._Myproxy);
; 692  : 		}
; 693  : 
; 694  : 	void _Alloc_proxy()
; 695  : 		{	// construct proxy from _Alnod
; 696  : 		typename _Alty::template rebind<_Container_proxy>::other
; 697  : 			_Alproxy(this->_Alnod);
; 698  : 		this->_Myproxy = _Alproxy.allocate(1);
; 699  : 		_Alproxy.construct(this->_Myproxy, _Container_proxy());
; 700  : 		this->_Myproxy->_Mycont = this;
; 701  : 		}
; 702  : 
; 703  : 	void _Free_proxy()
; 704  : 		{	// destroy proxy
; 705  : 		typename _Alty::template rebind<_Container_proxy>::other
; 706  : 			_Alproxy(this->_Alnod);
; 707  : 		this->_Orphan_all();
; 708  : 		_Alproxy.destroy(this->_Myproxy);
; 709  : 		_Alproxy.deallocate(this->_Myproxy, 1);
; 710  : 		this->_Myproxy = 0;
; 711  : 		}
; 712  :  #endif /* _ITERATOR_DEBUG_LEVEL == 0 */
; 713  : 
; 714  : 	_Nodeptr _Buyheadnode()
; 715  : 		{	// get head node using current allocator
; 716  : 		_Nodeptr _Pnode = this->_Alnod.allocate(1);
; 717  : 
; 718  : 		_TRY_BEGIN
; 719  : 		this->_Alnod.construct(
; 720  : 			_STD addressof(this->_Left(_Pnode)), _Pnode);
; 721  : 		this->_Alnod.construct(
; 722  : 			_STD addressof(this->_Parent(_Pnode)), _Pnode);
; 723  : 		this->_Alnod.construct(
; 724  : 			_STD addressof(this->_Right(_Pnode)), _Pnode);
; 725  : 		_CATCH_ALL
; 726  : 		this->_Alnod.deallocate(_Pnode, 1);
; 727  : 		_RERAISE;
; 728  : 		_CATCH_END
; 729  : 
; 730  : 		this->_Color(_Pnode) = this->_Black;
; 731  : 		this->_Isnil(_Pnode) = true;
; 732  : 		return (_Pnode);
; 733  : 		}
; 734  : 
; 735  : 	void _Freeheadnode(_Nodeptr _Pnode)
; 736  : 		{	// free head node using current allocator
; 737  : 		this->_Alnod.destroy(
; 738  : 			_STD addressof(this->_Left(_Pnode)));
; 739  : 		this->_Alnod.destroy(
; 740  : 			_STD addressof(this->_Parent(_Pnode)));
; 741  : 		this->_Alnod.destroy(
; 742  : 			_STD addressof(this->_Right(_Pnode)));
; 743  : 		this->_Alnod.deallocate(_Pnode, 1);
; 744  : 		}
; 745  : 
; 746  : 	_Alty& _Getal()
; 747  : 		{	// get reference to allocator
; 748  : 		return (this->_Alnod);
; 749  : 		}
; 750  : 
; 751  : 	const _Alty& _Getal() const
; 752  : 		{	// get reference to allocator
; 753  : 		return (this->_Alnod);
; 754  : 		}
; 755  : 	};
; 756  : 
; 757  : 		// TEMPLATE CLASS _Tree_alloc
; 758  : template<class _Alloc_types>
; 759  : 	class _Tree_alloc<false, _Alloc_types>
; 760  : 		: public _Tree_val<typename _Alloc_types::_Val_types>
; 761  : 	{	// base class for tree to hold allocator with no storage
; 762  : public:
; 763  : 	typedef _Tree_alloc<false, _Alloc_types> _Myt;
; 764  : 	typedef _Tree_val<typename _Alloc_types::_Val_types> _Mybase;
; 765  : 	typedef typename _Alloc_types::_Alloc _Alloc;
