; Listing generated by Microsoft (R) Optimizing Compiler Version 18.00.40629.0 

	TITLE	D:\Metin2\Metin2\client_source_clean\client_source_clean\source\UserInterface\PythonPlayerInputMouse.cpp
	.686P
	.XMM
	include listing.inc
	.model	flat

INCLUDELIB OLDNAMES

PUBLIC	?__IsRightButtonSkillMode@CPythonPlayer@@IAEHXZ	; CPythonPlayer::__IsRightButtonSkillMode
PUBLIC	?NEW_SetMouseMiddleButtonState@CPythonPlayer@@QAEXH@Z ; CPythonPlayer::NEW_SetMouseMiddleButtonState
PUBLIC	?NEW_SetMouseState@CPythonPlayer@@QAE_NHH@Z	; CPythonPlayer::NEW_SetMouseState
PUBLIC	?SetQuickCameraMode@CPythonPlayer@@QAEX_N@Z	; CPythonPlayer::SetQuickCameraMode
PUBLIC	?NEW_GetMouseFunc@CPythonPlayer@@QAEHH@Z	; CPythonPlayer::NEW_GetMouseFunc
PUBLIC	?NEW_SetMouseFunc@CPythonPlayer@@QAE_NHH@Z	; CPythonPlayer::NEW_SetMouseFunc
PUBLIC	?__OnClickSmart@CPythonPlayer@@IAEXAAVCInstanceBase@@_N@Z ; CPythonPlayer::__OnClickSmart
PUBLIC	?__OnPressSmart@CPythonPlayer@@IAEXAAVCInstanceBase@@_N@Z ; CPythonPlayer::__OnPressSmart
PUBLIC	?NEW_SetMouseSmartState@CPythonPlayer@@IAEXH_N@Z ; CPythonPlayer::NEW_SetMouseSmartState
PUBLIC	?NEW_SetMouseCameraState@CPythonPlayer@@IAEXH@Z	; CPythonPlayer::NEW_SetMouseCameraState
PUBLIC	?NEW_SetMouseMoveState@CPythonPlayer@@IAEXH@Z	; CPythonPlayer::NEW_SetMouseMoveState
PUBLIC	?__ShowPickedEffect@CPythonPlayer@@IAEXABUD3DXVECTOR3@@@Z ; CPythonPlayer::__ShowPickedEffect
PUBLIC	?NEW_MoveToMouseScreenDirection@CPythonPlayer@@QAE_NXZ ; CPythonPlayer::NEW_MoveToMouseScreenDirection
PUBLIC	?NEW_RefreshMouseWalkingDirection@CPythonPlayer@@IAEXXZ ; CPythonPlayer::NEW_RefreshMouseWalkingDirection
	ALIGN	4

_piecewise_construct DB 01H DUP (?)
_BSS	ENDS
; Function compile flags: /Ogtp
; File d:\metin2\metin2\client_source_clean\client_source_clean\source\userinterface\pythonplayerinputmouse.cpp
;	COMDAT ?NEW_RefreshMouseWalkingDirection@CPythonPlayer@@IAEXXZ
_TEXT	SEGMENT
_kPPosCur$1 = -32					; size = 12
tv345 = -20						; size = 4
_fDistance$1$ = -20					; size = 4
_kPPosPickedItem$2 = -16				; size = 12
__$ArrayPad$ = -4					; size = 4
?NEW_RefreshMouseWalkingDirection@CPythonPlayer@@IAEXXZ PROC ; CPythonPlayer::NEW_RefreshMouseWalkingDirection, COMDAT
; _this$ = ecx

; 284  : {

  00000	55		 push	 ebp
  00001	8b ec		 mov	 ebp, esp
  00003	83 ec 24	 sub	 esp, 36			; 00000024H
  00006	a1 00 00 00 00	 mov	 eax, DWORD PTR ___security_cookie
  0000b	33 c5		 xor	 eax, ebp
  0000d	89 45 fc	 mov	 DWORD PTR __$ArrayPad$[ebp], eax
  00010	53		 push	 ebx
  00011	56		 push	 esi
  00012	57		 push	 edi
  00013	8b f9		 mov	 edi, ecx

; 285  : 	CInstanceBase* pkInstMain = NEW_GetMainActorPtr();

  00015	8b 47 04	 mov	 eax, DWORD PTR [edi+4]
  00018	8d 4f 04	 lea	 ecx, DWORD PTR [edi+4]
  0001b	ff 90 88 00 00
	00		 call	 DWORD PTR [eax+136]
  00021	8b d8		 mov	 ebx, eax

; 286  : 	if (!pkInstMain) return;

  00023	85 db		 test	 ebx, ebx
  00025	0f 84 e9 00 00
	00		 je	 $LN24@NEW_Refres

; 287  : 
; 288  : 	switch (m_eReservedMode)

  0002b	8b 4f 54	 mov	 ecx, DWORD PTR [edi+84]
  0002e	49		 dec	 ecx
  0002f	83 f9 03	 cmp	 ecx, 3
  00032	0f 87 84 00 00
	00		 ja	 $LN5@NEW_Refres
  00038	ff 24 8d 00 00
	00 00		 jmp	 DWORD PTR $LN38@NEW_Refres[ecx*4]
$LN20@NEW_Refres:

; 289  : 	{
; 290  : 		case MODE_CLICK_ITEM:
; 291  : 		{
; 292  : 			CPythonItem& rkIT=CPythonItem::Instance();
; 293  : 
; 294  : 			TPixelPosition kPPosPickedItem;
; 295  : 			if (rkIT.GetGroundItemPosition(m_dwIIDReserved, &kPPosPickedItem))

  0003f	8b 0d 00 00 00
	00		 mov	 ecx, DWORD PTR ?ms_singleton@?$CSingleton@VCPythonItem@@@@0PAVCPythonItem@@A ; CSingleton<CPythonItem>::ms_singleton
  00045	8d 45 f0	 lea	 eax, DWORD PTR _kPPosPickedItem$2[ebp]
  00048	50		 push	 eax
  00049	ff b7 70 09 01
	00		 push	 DWORD PTR [edi+67952]
  0004f	e8 00 00 00 00	 call	 ?GetGroundItemPosition@CPythonItem@@QAEHKPAUD3DXVECTOR3@@@Z ; CPythonItem::GetGroundItemPosition
  00054	85 c0		 test	 eax, eax
  00056	74 5d		 je	 SHORT $LN10@NEW_Refres

; 296  : 			{
; 297  : 				if (pkInstMain->NEW_GetDistanceFromDestPixelPosition(kPPosPickedItem)<20.0f)

  00058	8d 45 f0	 lea	 eax, DWORD PTR _kPPosPickedItem$2[ebp]
  0005b	8b cb		 mov	 ecx, ebx
  0005d	50		 push	 eax
  0005e	e8 00 00 00 00	 call	 ?NEW_GetDistanceFromDestPixelPosition@CInstanceBase@@QAEMABUD3DXVECTOR3@@@Z ; CInstanceBase::NEW_GetDistanceFromDestPixelPosition
  00063	f3 0f 10 0d 00
	00 00 00	 movss	 xmm1, DWORD PTR __real@41a00000

; 298  : 				{
; 299  : 					CPythonNetworkStream& rkNetStream=CPythonNetworkStream::Instance();
; 300  : 
; 301  : 					TPixelPosition kPPosCur;
; 302  : 					pkInstMain->NEW_GetPixelPosition(&kPPosCur);

  0006b	8b cb		 mov	 ecx, ebx
  0006d	0f 2f c8	 comiss	 xmm1, xmm0
  00070	0f 86 af 00 00
	00		 jbe	 $LN18@NEW_Refres
  00076	8b 35 00 00 00
	00		 mov	 esi, DWORD PTR ?ms_singleton@?$CSingleton@VCPythonNetworkStream@@@@0PAVCPythonNetworkStream@@A ; CSingleton<CPythonNetworkStream>::ms_singleton
  0007c	8d 45 e0	 lea	 eax, DWORD PTR _kPPosCur$1[ebp]
  0007f	50		 push	 eax
  00080	e8 00 00 00 00	 call	 ?NEW_GetPixelPosition@CInstanceBase@@QAEXPAUD3DXVECTOR3@@@Z ; CInstanceBase::NEW_GetPixelPosition

; 303  : 
; 304  : 					float fCurRot=pkInstMain->GetRotation();

  00085	8b cb		 mov	 ecx, ebx
  00087	e8 00 00 00 00	 call	 ?GetRotation@CInstanceBase@@QAEMXZ ; CInstanceBase::GetRotation

; 305  : 					rkNetStream.SendCharacterStatePacket(kPPosCur,  fCurRot, CInstanceBase::FUNC_WAIT, 0);

  0008c	6a 00		 push	 0
  0008e	6a 00		 push	 0
  00090	51		 push	 ecx
  00091	8d 45 e0	 lea	 eax, DWORD PTR _kPPosCur$1[ebp]
  00094	f3 0f 11 04 24	 movss	 DWORD PTR [esp], xmm0
  00099	50		 push	 eax
  0009a	8b ce		 mov	 ecx, esi
  0009c	e8 00 00 00 00	 call	 ?SendCharacterStatePacket@CPythonNetworkStream@@QAE_NABUD3DXVECTOR3@@MII@Z ; CPythonNetworkStream::SendCharacterStatePacket

; 306  : 					SendClickItemPacket(m_dwIIDReserved);

  000a1	ff b7 70 09 01
	00		 push	 DWORD PTR [edi+67952]
  000a7	8b cf		 mov	 ecx, edi
  000a9	e8 00 00 00 00	 call	 ?SendClickItemPacket@CPythonPlayer@@QAEXK@Z ; CPythonPlayer::SendClickItemPacket

; 307  : 
; 308  : 					pkInstMain->NEW_Stop();

  000ae	8b cb		 mov	 ecx, ebx
  000b0	e8 00 00 00 00	 call	 ?NEW_Stop@CInstanceBase@@QAEXXZ ; CInstanceBase::NEW_Stop
$LN10@NEW_Refres:

; 369  : 			{
; 370  : 				__ClearReservedAction();

  000b5	8b cf		 mov	 ecx, edi
  000b7	e8 00 00 00 00	 call	 ?__ClearReservedAction@CPythonPlayer@@IAEXXZ ; CPythonPlayer::__ClearReservedAction
$LN5@NEW_Refres:

; 371  : 			}
; 372  : 			break;
; 373  : 		}
; 374  : 	}
; 375  : 
; 376  : 	if (m_isSmtMov)

  000bc	80 7f 67 00	 cmp	 BYTE PTR [edi+103], 0
  000c0	74 0a		 je	 SHORT $LN4@NEW_Refres

; 377  : 		__OnPressSmart(*pkInstMain, false);

  000c2	6a 00		 push	 0
  000c4	53		 push	 ebx
  000c5	8b cf		 mov	 ecx, edi
  000c7	e8 00 00 00 00	 call	 ?__OnPressSmart@CPythonPlayer@@IAEXAAVCInstanceBase@@_N@Z ; CPythonPlayer::__OnPressSmart
$LN4@NEW_Refres:

; 378  : 
; 379  : 	if (m_isDirMov)

  000cc	80 7f 68 00	 cmp	 BYTE PTR [edi+104], 0
  000d0	74 07		 je	 SHORT $LN3@NEW_Refres

; 380  : 		NEW_MoveToMouseScreenDirection();

  000d2	8b cf		 mov	 ecx, edi
  000d4	e8 00 00 00 00	 call	 ?NEW_MoveToMouseScreenDirection@CPythonPlayer@@QAE_NXZ ; CPythonPlayer::NEW_MoveToMouseScreenDirection
$LN3@NEW_Refres:

; 381  : 
; 382  : 	if (m_isDirKey)

  000d9	80 7f 65 00	 cmp	 BYTE PTR [edi+101], 0
  000dd	74 1b		 je	 SHORT $LN2@NEW_Refres

; 383  : 		NEW_SetMultiDirKeyState(m_isLeft, m_isRight, m_isUp, m_isDown);

  000df	0f b6 47 61	 movzx	 eax, BYTE PTR [edi+97]
  000e3	8b cf		 mov	 ecx, edi
  000e5	50		 push	 eax
  000e6	0f b6 47 60	 movzx	 eax, BYTE PTR [edi+96]
  000ea	50		 push	 eax
  000eb	0f b6 47 63	 movzx	 eax, BYTE PTR [edi+99]
  000ef	50		 push	 eax
  000f0	0f b6 47 62	 movzx	 eax, BYTE PTR [edi+98]
  000f4	50		 push	 eax
  000f5	e8 00 00 00 00	 call	 ?NEW_SetMultiDirKeyState@CPythonPlayer@@QAEX_N000@Z ; CPythonPlayer::NEW_SetMultiDirKeyState
$LN2@NEW_Refres:

; 384  : 
; 385  : 	if (m_isAtkKey)

  000fa	80 7f 64 00	 cmp	 BYTE PTR [edi+100], 0
  000fe	74 07		 je	 SHORT $LN1@NEW_Refres

; 386  : 		NEW_Attack();

  00100	8b cf		 mov	 ecx, edi
  00102	e8 00 00 00 00	 call	 ?NEW_Attack@CPythonPlayer@@QAEXXZ ; CPythonPlayer::NEW_Attack
$LN1@NEW_Refres:

; 387  : 
; 388  : 	m_iComboOld=pkInstMain->GetComboIndex();

  00107	8b cb		 mov	 ecx, ebx
  00109	e8 00 00 00 00	 call	 ?GetComboIndex@CInstanceBase@@QAEKXZ ; CInstanceBase::GetComboIndex
  0010e	89 87 68 09 01
	00		 mov	 DWORD PTR [edi+67944], eax
$LN24@NEW_Refres:

; 389  : }

  00114	8b 4d fc	 mov	 ecx, DWORD PTR __$ArrayPad$[ebp]
  00117	5f		 pop	 edi
  00118	5e		 pop	 esi
  00119	33 cd		 xor	 ecx, ebp
  0011b	5b		 pop	 ebx
  0011c	e8 00 00 00 00	 call	 @__security_check_cookie@4
  00121	8b e5		 mov	 esp, ebp
  00123	5d		 pop	 ebp
  00124	c3		 ret	 0
$LN18@NEW_Refres:

; 309  : 
; 310  : 					__ClearReservedAction();
; 311  : 				}
; 312  : 				else
; 313  : 				{
; 314  : 					pkInstMain->NEW_MoveToDestPixelPositionDirection(kPPosPickedItem);

  00125	8d 45 f0	 lea	 eax, DWORD PTR _kPPosPickedItem$2[ebp]
  00128	50		 push	 eax
  00129	e8 00 00 00 00	 call	 ?NEW_MoveToDestPixelPositionDirection@CInstanceBase@@QAE_NABUD3DXVECTOR3@@@Z ; CInstanceBase::NEW_MoveToDestPixelPositionDirection

; 315  : 				}
; 316  : 			}
; 317  : 			else
; 318  : 			{
; 319  : 				__ClearReservedAction();
; 320  : 			}
; 321  : 
; 322  : 			break;

  0012e	eb 8c		 jmp	 SHORT $LN5@NEW_Refres
$LN15@NEW_Refres:

; 323  : 		}
; 324  : 
; 325  : 		case MODE_CLICK_ACTOR:
; 326  : 		{
; 327  : 			__ReserveProcess_ClickActor();

  00130	8b cf		 mov	 ecx, edi
  00132	e8 00 00 00 00	 call	 ?__ReserveProcess_ClickActor@CPythonPlayer@@IAEXXZ ; CPythonPlayer::__ReserveProcess_ClickActor

; 328  : 			break;

  00137	eb 83		 jmp	 SHORT $LN5@NEW_Refres
$LN14@NEW_Refres:

; 329  : 		}
; 330  : 
; 331  : 		case MODE_CLICK_POSITION:
; 332  : 		{
; 333  : 			if (!pkInstMain->isLock())

  00139	8b cb		 mov	 ecx, ebx
  0013b	e8 00 00 00 00	 call	 ?isLock@CInstanceBase@@QAEHXZ ; CInstanceBase::isLock
  00140	85 c0		 test	 eax, eax
  00142	0f 85 74 ff ff
	ff		 jne	 $LN5@NEW_Refres

; 334  : 			if (NEW_IsEmptyReservedDelayTime(CPythonApplication::Instance().GetGlobalElapsedTime()))

  00148	8b 0d 00 00 00
	00		 mov	 ecx, DWORD PTR ?ms_pInstance@CPythonApplication@@1PAV1@A ; CPythonApplication::ms_pInstance
  0014e	83 c1 20	 add	 ecx, 32			; 00000020H
  00151	8b 01		 mov	 eax, DWORD PTR [ecx]
  00153	8b 40 0c	 mov	 eax, DWORD PTR [eax+12]
  00156	ff d0		 call	 eax
  00158	d9 5d ec	 fstp	 DWORD PTR tv345[ebp]
  0015b	f3 0f 10 4d ec	 movss	 xmm1, DWORD PTR tv345[ebp]
  00160	8b cf		 mov	 ecx, edi
  00162	e8 00 00 00 00	 call	 ?NEW_IsEmptyReservedDelayTime@CPythonPlayer@@QAE_NM@Z ; CPythonPlayer::NEW_IsEmptyReservedDelayTime
  00167	84 c0		 test	 al, al
  00169	0f 84 4d ff ff
	ff		 je	 $LN5@NEW_Refres

; 335  : 			{
; 336  : 				pkInstMain->NEW_MoveToDestPixelPositionDirection(m_kPPosReserved);

  0016f	8d 87 8c 09 01
	00		 lea	 eax, DWORD PTR [edi+67980]
  00175	8b cb		 mov	 ecx, ebx
  00177	50		 push	 eax
  00178	e8 00 00 00 00	 call	 ?NEW_MoveToDestPixelPositionDirection@CInstanceBase@@QAE_NABUD3DXVECTOR3@@@Z ; CInstanceBase::NEW_MoveToDestPixelPositionDirection

; 337  : 				__ClearReservedAction();
; 338  : 			}
; 339  : 			break;

  0017d	e9 33 ff ff ff	 jmp	 $LN10@NEW_Refres
$LN11@NEW_Refres:

; 340  : 		}
; 341  : 
; 342  : 		case MODE_USE_SKILL:
; 343  : 		{
; 344  : 			CInstanceBase* pkInstReserved=NEW_FindActorPtr(m_dwVIDReserved);

  00182	ff b7 6c 09 01
	00		 push	 DWORD PTR [edi+67948]
  00188	e8 00 00 00 00	 call	 ?NEW_FindActorPtr@CPythonPlayer@@QAEPAVCInstanceBase@@K@Z ; CPythonPlayer::NEW_FindActorPtr
  0018d	8b f0		 mov	 esi, eax

; 345  : 			if (pkInstReserved)

  0018f	85 f6		 test	 esi, esi
  00191	0f 84 1e ff ff
	ff		 je	 $LN10@NEW_Refres

; 346  : 			{
; 347  : 				float fDistance=pkInstMain->GetDistance(pkInstReserved);

  00197	56		 push	 esi
  00198	8b cb		 mov	 ecx, ebx
  0019a	e8 00 00 00 00	 call	 ?GetDistance@CInstanceBase@@QAEMPAV1@@Z ; CInstanceBase::GetDistance

; 348  : 
; 349  : 				// #0000806: [M2EU] 수룡에게 무사(나한군) 탄환격 스킬 사용 안됨
; 350  : 				extern bool IS_HUGE_RACE(unsigned int vnum);
; 351  : 				if (IS_HUGE_RACE(pkInstReserved->GetRace())) // 거대 종족은 근접을 못함

  0019f	8b ce		 mov	 ecx, esi
  001a1	f3 0f 11 45 ec	 movss	 DWORD PTR _fDistance$1$[ebp], xmm0
  001a6	e8 00 00 00 00	 call	 ?GetRace@CInstanceBase@@QAEKXZ ; CInstanceBase::GetRace
  001ab	50		 push	 eax
  001ac	e8 00 00 00 00	 call	 ?IS_HUGE_RACE@@YA_NI@Z	; IS_HUGE_RACE
  001b1	83 c4 04	 add	 esp, 4
  001b4	84 c0		 test	 al, al
  001b6	74 12		 je	 SHORT $LN9@NEW_Refres

; 352  : 				{
; 353  : 					fDistance -= 200.0f; // TEMP: 일단 하드 코딩 처리. 정석적으로는 바운드 스피어를 고려해야함

  001b8	f3 0f 10 45 ec	 movss	 xmm0, DWORD PTR _fDistance$1$[ebp]
  001bd	f3 0f 5c 05 00
	00 00 00	 subss	 xmm0, DWORD PTR __real@43480000
  001c5	f3 0f 11 45 ec	 movss	 DWORD PTR _fDistance$1$[ebp], xmm0
$LN9@NEW_Refres:

; 354  : 				}
; 355  : 
; 356  : 				if (fDistance < float(m_dwSkillRangeReserved))

  001ca	8b 87 7c 09 01
	00		 mov	 eax, DWORD PTR [edi+67964]
  001d0	66 0f 6e c0	 movd	 xmm0, eax
  001d4	f3 0f e6 c0	 cvtdq2pd xmm0, xmm0
  001d8	c1 e8 1f	 shr	 eax, 31			; 0000001fH
  001db	f2 0f 58 04 c5
	00 00 00 00	 addsd	 xmm0, QWORD PTR __xmm@41f00000000000000000000000000000[eax*8]
  001e4	66 0f 5a c0	 cvtpd2ps xmm0, xmm0
  001e8	0f 2f 45 ec	 comiss	 xmm0, DWORD PTR _fDistance$1$[ebp]
  001ec	76 2b		 jbe	 SHORT $LN8@NEW_Refres

; 357  : 				{
; 358  : 					// 접근 도중 Target 이 바뀌어 있을 수도 있다 - [levites]
; 359  : 					SetTarget(m_dwVIDReserved);

  001ee	8b 47 04	 mov	 eax, DWORD PTR [edi+4]
  001f1	8d 4f 04	 lea	 ecx, DWORD PTR [edi+4]
  001f4	6a 01		 push	 1
  001f6	ff b7 6c 09 01
	00		 push	 DWORD PTR [edi+67948]
  001fc	ff 50 60	 call	 DWORD PTR [eax+96]

; 360  : 					if (__UseSkill(m_dwSkillSlotIndexReserved))

  001ff	ff b7 78 09 01
	00		 push	 DWORD PTR [edi+67960]
  00205	8b cf		 mov	 ecx, edi
  00207	e8 00 00 00 00	 call	 ?__UseSkill@CPythonPlayer@@IAE_NK@Z ; CPythonPlayer::__UseSkill
  0020c	84 c0		 test	 al, al
  0020e	0f 84 a8 fe ff
	ff		 je	 $LN5@NEW_Refres

; 361  : 						__ClearReservedAction();
; 362  : 				}
; 363  : 				else

  00214	e9 9c fe ff ff	 jmp	 $LN10@NEW_Refres
$LN8@NEW_Refres:

; 364  : 				{
; 365  : 					pkInstMain->NEW_MoveToDestInstanceDirection(*pkInstReserved);

  00219	56		 push	 esi
  0021a	8b cb		 mov	 ecx, ebx
  0021c	e8 00 00 00 00	 call	 ?NEW_MoveToDestInstanceDirection@CInstanceBase@@QAEXAAV1@@Z ; CInstanceBase::NEW_MoveToDestInstanceDirection

; 366  : 				}
; 367  : 			}
; 368  : 			else

  00221	e9 96 fe ff ff	 jmp	 $LN5@NEW_Refres
  00226	8b ff		 npad	 2
$LN38@NEW_Refres:

; 389  : }

  00228	00 00 00 00	 DD	 $LN14@NEW_Refres
  0022c	00 00 00 00	 DD	 $LN20@NEW_Refres
  00230	00 00 00 00	 DD	 $LN15@NEW_Refres
  00234	00 00 00 00	 DD	 $LN11@NEW_Refres
?NEW_RefreshMouseWalkingDirection@CPythonPlayer@@IAEXXZ ENDP ; CPythonPlayer::NEW_RefreshMouseWalkingDirection
_TEXT	ENDS
; Function compile flags: /Ogtp
; File d:\metin2\metin2\client_source_clean\client_source_clean\source\userinterface\pythonplayerinputmouse.cpp
;	COMDAT ?NEW_MoveToMouseScreenDirection@CPythonPlayer@@QAE_NXZ
_TEXT	SEGMENT
_fDirRot$ = -12						; size = 4
_lMouseX$ = -8						; size = 4
_lMouseY$ = -4						; size = 4
?NEW_MoveToMouseScreenDirection@CPythonPlayer@@QAE_NXZ PROC ; CPythonPlayer::NEW_MoveToMouseScreenDirection, COMDAT
; _this$ = ecx

; 24   : {

  00000	55		 push	 ebp
  00001	8b ec		 mov	 ebp, esp
  00003	83 ec 10	 sub	 esp, 16			; 00000010H
  00006	56		 push	 esi

; 25   : 	UI::CWindowManager& rkWndMgr=UI::CWindowManager::Instance();

  00007	8b 35 00 00 00
	00		 mov	 esi, DWORD PTR ?ms_singleton@?$CSingleton@VCWindowManager@UI@@@@0PAVCWindowManager@UI@@A ; CSingleton<UI::CWindowManager>::ms_singleton

; 26   : 
; 27   : 	long lMouseX;
; 28   : 	long lMouseY;
; 29   : 	rkWndMgr.GetMousePosition(lMouseX, lMouseY);

  0000d	8d 45 fc	 lea	 eax, DWORD PTR _lMouseY$[ebp]
  00010	57		 push	 edi
  00011	50		 push	 eax
  00012	8d 45 f8	 lea	 eax, DWORD PTR _lMouseX$[ebp]
  00015	8b f9		 mov	 edi, ecx
  00017	50		 push	 eax
  00018	8b ce		 mov	 ecx, esi
  0001a	e8 00 00 00 00	 call	 ?GetMousePosition@CWindowManager@UI@@QAEXAAJ0@Z ; UI::CWindowManager::GetMousePosition
  0001f	66 0f 6e 55 fc	 movd	 xmm2, DWORD PTR _lMouseY$[ebp]

; 30   : 
; 31   : 	long lScrWidth = rkWndMgr.GetScreenWidth();
; 32   : 	long lScrHeight = rkWndMgr.GetScreenHeight();
; 33   : 	float fMouseX=lMouseX/float(lScrWidth);
; 34   : 	float fMouseY=lMouseY/float(lScrHeight);
; 35   : 
; 36   : 	float fDirRot;
; 37   : 	NEW_GetMouseDirRotation(fMouseX, fMouseY, &fDirRot);

  00024	8d 45 f4	 lea	 eax, DWORD PTR _fDirRot$[ebp]
  00027	66 0f 6e 46 08	 movd	 xmm0, DWORD PTR [esi+8]
  0002c	66 0f 6e 4d f8	 movd	 xmm1, DWORD PTR _lMouseX$[ebp]
  00031	0f 5b c0	 cvtdq2ps xmm0, xmm0
  00034	50		 push	 eax
  00035	0f 5b d2	 cvtdq2ps xmm2, xmm2
  00038	0f 5b c9	 cvtdq2ps xmm1, xmm1
  0003b	f3 0f 5e d0	 divss	 xmm2, xmm0
  0003f	66 0f 6e 46 04	 movd	 xmm0, DWORD PTR [esi+4]
  00044	0f 5b c0	 cvtdq2ps xmm0, xmm0
  00047	f3 0f 5e c8	 divss	 xmm1, xmm0
  0004b	e8 00 00 00 00	 call	 ?NEW_GetMouseDirRotation@CPythonPlayer@@IAEXMMPAM@Z ; CPythonPlayer::NEW_GetMouseDirRotation

; 38   : 
; 39   : 	return NEW_MoveToDirection(fDirRot);

  00050	f3 0f 10 4d f4	 movss	 xmm1, DWORD PTR _fDirRot$[ebp]
  00055	8b cf		 mov	 ecx, edi
  00057	e8 00 00 00 00	 call	 ?NEW_MoveToDirection@CPythonPlayer@@QAE_NM@Z ; CPythonPlayer::NEW_MoveToDirection

; 40   : }

  0005c	5f		 pop	 edi
  0005d	5e		 pop	 esi
  0005e	8b e5		 mov	 esp, ebp
  00060	5d		 pop	 ebp
  00061	c3		 ret	 0
?NEW_MoveToMouseScreenDirection@CPythonPlayer@@QAE_NXZ ENDP ; CPythonPlayer::NEW_MoveToMouseScreenDirection
_TEXT	ENDS
; Function compile flags: /Ogtp
; File d:\metin2\metin2\client_source_clean\client_source_clean\source\userinterface\pythonplayerinputmouse.cpp
;	COMDAT ?__ShowPickedEffect@CPythonPlayer@@IAEXABUD3DXVECTOR3@@@Z
_TEXT	SEGMENT
_c_rkPPosPickedGround$ = 8				; size = 4
?__ShowPickedEffect@CPythonPlayer@@IAEXABUD3DXVECTOR3@@@Z PROC ; CPythonPlayer::__ShowPickedEffect, COMDAT
; _this$ = ecx

; 186  : {

  00000	55		 push	 ebp
  00001	8b ec		 mov	 ebp, esp

; 187  : #ifdef __MOVIE_MODE__
; 188  : 	CInstanceBase* pkInstMain=NEW_GetMainActorPtr();
; 189  : 	if (!pkInstMain) return;
; 190  : 
; 191  : 	if (pkInstMain->IsMovieMode())
; 192  : 		return;
; 193  : #endif
; 194  : 	NEW_ShowEffect(EFFECT_PICK, c_rkPPosPickedGround);

  00003	8b 45 08	 mov	 eax, DWORD PTR _c_rkPPosPickedGround$[ebp]
  00006	83 ec 0c	 sub	 esp, 12			; 0000000cH
  00009	8b d4		 mov	 edx, esp
  0000b	f3 0f 7e 00	 movq	 xmm0, QWORD PTR [eax]
  0000f	8b 40 08	 mov	 eax, DWORD PTR [eax+8]
  00012	66 0f d6 02	 movq	 QWORD PTR [edx], xmm0
  00016	51		 push	 ecx
  00017	89 42 08	 mov	 DWORD PTR [edx+8], eax
  0001a	e8 00 00 00 00	 call	 ?NEW_ShowEffect@CPythonPlayer@@IAEXHUD3DXVECTOR3@@@Z ; CPythonPlayer::NEW_ShowEffect

; 195  : }

  0001f	5d		 pop	 ebp
  00020	c2 04 00	 ret	 4
?__ShowPickedEffect@CPythonPlayer@@IAEXABUD3DXVECTOR3@@@Z ENDP ; CPythonPlayer::__ShowPickedEffect
_TEXT	ENDS
; Function compile flags: /Ogtp
; File d:\metin2\metin2\client_source_clean\client_source_clean\source\userinterface\pythonplayerinputmouse.cpp
;	COMDAT ?NEW_SetMouseMoveState@CPythonPlayer@@IAEXH@Z
_TEXT	SEGMENT
_eMBS$ = 8						; size = 4
?NEW_SetMouseMoveState@CPythonPlayer@@IAEXH@Z PROC	; CPythonPlayer::NEW_SetMouseMoveState, COMDAT
; _this$ = ecx

; 8    : {

  00000	55		 push	 ebp
  00001	8b ec		 mov	 ebp, esp

; 9    : 	if (MBS_PRESS==eMBS)

  00003	8b 45 08	 mov	 eax, DWORD PTR _eMBS$[ebp]
  00006	56		 push	 esi
  00007	8b f1		 mov	 esi, ecx
  00009	83 f8 01	 cmp	 eax, 1
  0000c	75 0e		 jne	 SHORT $LN3@NEW_SetMou

; 10   : 	{
; 11   : 		NEW_MoveToMouseScreenDirection();

  0000e	e8 00 00 00 00	 call	 ?NEW_MoveToMouseScreenDirection@CPythonPlayer@@QAE_NXZ ; CPythonPlayer::NEW_MoveToMouseScreenDirection

; 12   : 
; 13   : 		m_isDirMov=true;

  00013	c6 46 68 01	 mov	 BYTE PTR [esi+104], 1
  00017	5e		 pop	 esi

; 20   : 	}
; 21   : }

  00018	5d		 pop	 ebp
  00019	c2 04 00	 ret	 4
$LN3@NEW_SetMou:

; 14   : 	}
; 15   : 	else if (MBS_CLICK==eMBS)

  0001c	85 c0		 test	 eax, eax
  0001e	75 09		 jne	 SHORT $LN1@NEW_SetMou

; 16   : 	{
; 17   : 		NEW_Stop();

  00020	e8 00 00 00 00	 call	 ?NEW_Stop@CPythonPlayer@@QAEXXZ ; CPythonPlayer::NEW_Stop

; 18   : 
; 19   : 		m_isDirMov=false;

  00025	c6 46 68 00	 mov	 BYTE PTR [esi+104], 0
$LN1@NEW_SetMou:
  00029	5e		 pop	 esi

; 20   : 	}
; 21   : }

  0002a	5d		 pop	 ebp
  0002b	c2 04 00	 ret	 4
?NEW_SetMouseMoveState@CPythonPlayer@@IAEXH@Z ENDP	; CPythonPlayer::NEW_SetMouseMoveState
_TEXT	ENDS
; Function compile flags: /Ogtp
; File d:\metin2\metin2\client_source_clean\client_source_clean\source\userinterface\pythonplayerinputmouse.cpp
;	COMDAT ?NEW_SetMouseCameraState@CPythonPlayer@@IAEXH@Z
_TEXT	SEGMENT
_lMouseX$1 = -8						; size = 4
_rkBG$1$ = -4						; size = 4
_pkInstPicked$2 = 8					; size = 4
_lMouseY$3 = 8						; size = 4
_eMBS$ = 8						; size = 4
?NEW_SetMouseCameraState@CPythonPlayer@@IAEXH@Z PROC	; CPythonPlayer::NEW_SetMouseCameraState, COMDAT
; _this$ = ecx

; 43   : {

  00000	55		 push	 ebp
  00001	8b ec		 mov	 ebp, esp
  00003	83 ec 08	 sub	 esp, 8

; 44   : 	CPythonApplication & rkApp = CPythonApplication::Instance();
; 45   : 	CPythonBackground & rkBG = CPythonBackground::Instance();

  00006	a1 00 00 00 00	 mov	 eax, DWORD PTR ?ms_singleton@?$CSingleton@VCPythonBackground@@@@0PAVCPythonBackground@@A ; CSingleton<CPythonBackground>::ms_singleton
  0000b	53		 push	 ebx
  0000c	56		 push	 esi
  0000d	8b 35 00 00 00
	00		 mov	 esi, DWORD PTR ?ms_pInstance@CPythonApplication@@1PAV1@A ; CPythonApplication::ms_pInstance
  00013	57		 push	 edi
  00014	8b f9		 mov	 edi, ecx
  00016	89 45 fc	 mov	 DWORD PTR _rkBG$1$[ebp], eax

; 46   : 	CCamera* pkCmrCur=CCameraManager::Instance().GetCurrentCamera();

  00019	8b 0d 00 00 00
	00		 mov	 ecx, DWORD PTR ?ms_singleton@?$CSingleton@VCCameraManager@@@@0PAVCCameraManager@@A ; CSingleton<CCameraManager>::ms_singleton
  0001f	e8 00 00 00 00	 call	 ?GetCurrentCamera@CCameraManager@@QAEPAVCCamera@@XZ ; CCameraManager::GetCurrentCamera
  00024	8b d8		 mov	 ebx, eax

; 47   : 
; 48   : 	if (pkCmrCur)

  00026	85 db		 test	 ebx, ebx
  00028	0f 84 ba 00 00
	00		 je	 $LN1@NEW_SetMou

; 49   : 	{
; 50   : 		if (MBS_PRESS==eMBS)

  0002e	8b 4d 08	 mov	 ecx, DWORD PTR _eMBS$[ebp]
  00031	83 f9 01	 cmp	 ecx, 1
  00034	75 55		 jne	 SHORT $LN9@NEW_SetMou

; 51   : 		{
; 52   : 			UI::CWindowManager& rkWndMgr=UI::CWindowManager::Instance();
; 53   : 
; 54   : 			long lMouseX;
; 55   : 			long lMouseY;
; 56   : 			rkWndMgr.GetMousePosition(lMouseX, lMouseY);

  00036	8b 0d 00 00 00
	00		 mov	 ecx, DWORD PTR ?ms_singleton@?$CSingleton@VCWindowManager@UI@@@@0PAVCWindowManager@UI@@A ; CSingleton<UI::CWindowManager>::ms_singleton
  0003c	8d 45 08	 lea	 eax, DWORD PTR _lMouseY$3[ebp]
  0003f	50		 push	 eax
  00040	8d 45 f8	 lea	 eax, DWORD PTR _lMouseX$1[ebp]
  00043	50		 push	 eax
  00044	e8 00 00 00 00	 call	 ?GetMousePosition@CWindowManager@UI@@QAEXAAJ0@Z ; UI::CWindowManager::GetMousePosition

; 57   : 
; 58   : 			pkCmrCur->BeginDrag(lMouseX, lMouseY);

  00049	ff 75 08	 push	 DWORD PTR _lMouseY$3[ebp]
  0004c	8b cb		 mov	 ecx, ebx
  0004e	ff 75 f8	 push	 DWORD PTR _lMouseX$1[ebp]
  00051	e8 00 00 00 00	 call	 ?BeginDrag@CCamera@@QAEXHH@Z ; CCamera::BeginDrag

; 59   : 
; 60   : 			if ( !rkBG.IsMapReady() )

  00056	8b 4d fc	 mov	 ecx, DWORD PTR _rkBG$1$[ebp]
  00059	e8 00 00 00 00	 call	 ?IsMapReady@CMapManager@@QAE_NXZ ; CMapManager::IsMapReady
  0005e	84 c0		 test	 al, al
  00060	0f 84 82 00 00
	00		 je	 $LN1@NEW_SetMou

; 61   : 				return;
; 62   : 
; 63   : 			rkApp.SetCursorNum(CPythonApplication::CAMERA_ROTATE);

  00066	6a 0b		 push	 11			; 0000000bH
  00068	8b ce		 mov	 ecx, esi
  0006a	e8 00 00 00 00	 call	 ?SetCursorNum@CPythonApplication@@QAEHH@Z ; CPythonApplication::SetCursorNum

; 64   : 			if ( CPythonApplication::CURSOR_MODE_HARDWARE == rkApp.GetCursorMode())

  0006f	8b ce		 mov	 ecx, esi
  00071	e8 00 00 00 00	 call	 ?GetCursorMode@CPythonApplication@@QAEHXZ ; CPythonApplication::GetCursorMode
  00076	85 c0		 test	 eax, eax
  00078	75 6e		 jne	 SHORT $LN1@NEW_SetMou

; 65   : 				rkApp.SetCursorVisible(FALSE, true);

  0007a	6a 01		 push	 1
  0007c	50		 push	 eax
  0007d	e8 00 00 00 00	 call	 ?SetCursorVisible@CPythonApplication@@QAEXH_N@Z ; CPythonApplication::SetCursorVisible
  00082	5f		 pop	 edi
  00083	5e		 pop	 esi
  00084	5b		 pop	 ebx

; 87   : 				}
; 88   : 			}
; 89   : 		}
; 90   : 	}
; 91   : }

  00085	8b e5		 mov	 esp, ebp
  00087	5d		 pop	 ebp
  00088	c2 04 00	 ret	 4
$LN9@NEW_SetMou:

; 66   : 
; 67   : 		}
; 68   : 		else if (MBS_CLICK==eMBS)

  0008b	85 c9		 test	 ecx, ecx
  0008d	75 59		 jne	 SHORT $LN1@NEW_SetMou

; 69   : 		{
; 70   : 			bool isCameraDrag=pkCmrCur->EndDrag();

  0008f	8b cb		 mov	 ecx, ebx
  00091	e8 00 00 00 00	 call	 ?EndDrag@CCamera@@QAE_NXZ ; CCamera::EndDrag

; 71   : 			
; 72   : 			if ( !rkBG.IsMapReady() )

  00096	8b 4d fc	 mov	 ecx, DWORD PTR _rkBG$1$[ebp]
  00099	8a d8		 mov	 bl, al
  0009b	e8 00 00 00 00	 call	 ?IsMapReady@CMapManager@@QAE_NXZ ; CMapManager::IsMapReady
  000a0	84 c0		 test	 al, al
  000a2	74 44		 je	 SHORT $LN1@NEW_SetMou

; 73   : 				return;
; 74   : 
; 75   : 			rkApp.SetCursorNum(CPythonApplication::NORMAL);

  000a4	6a 00		 push	 0
  000a6	8b ce		 mov	 ecx, esi
  000a8	e8 00 00 00 00	 call	 ?SetCursorNum@CPythonApplication@@QAEHH@Z ; CPythonApplication::SetCursorNum

; 76   : 			if ( CPythonApplication::CURSOR_MODE_HARDWARE == rkApp.GetCursorMode())

  000ad	8b ce		 mov	 ecx, esi
  000af	e8 00 00 00 00	 call	 ?GetCursorMode@CPythonApplication@@QAEHXZ ; CPythonApplication::GetCursorMode
  000b4	85 c0		 test	 eax, eax
  000b6	75 08		 jne	 SHORT $LN3@NEW_SetMou

; 77   : 				rkApp.SetCursorVisible(TRUE);

  000b8	50		 push	 eax
  000b9	6a 01		 push	 1
  000bb	e8 00 00 00 00	 call	 ?SetCursorVisible@CPythonApplication@@QAEXH_N@Z ; CPythonApplication::SetCursorVisible
$LN3@NEW_SetMou:

; 78   : 
; 79   : 			if (!isCameraDrag)

  000c0	84 db		 test	 bl, bl
  000c2	75 24		 jne	 SHORT $LN1@NEW_SetMou

; 80   : 			{
; 81   : 				__ChangeTargetToPickedInstance();

  000c4	8b cf		 mov	 ecx, edi
  000c6	e8 00 00 00 00	 call	 ?__ChangeTargetToPickedInstance@CPythonPlayer@@IAE_NXZ ; CPythonPlayer::__ChangeTargetToPickedInstance

; 82   : 
; 83   : 				CInstanceBase * pkInstPicked;
; 84   : 				if (__GetPickedActorPtr(&pkInstPicked))

  000cb	8d 45 08	 lea	 eax, DWORD PTR _pkInstPicked$2[ebp]
  000ce	50		 push	 eax
  000cf	e8 00 00 00 00	 call	 ?__GetPickedActorPtr@CPythonPlayer@@IAE_NPAPAVCInstanceBase@@@Z ; CPythonPlayer::__GetPickedActorPtr
  000d4	84 c0		 test	 al, al
  000d6	74 10		 je	 SHORT $LN1@NEW_SetMou

; 85   : 				{
; 86   : 					OpenCharacterMenu(pkInstPicked->GetVirtualID());

  000d8	8b 4d 08	 mov	 ecx, DWORD PTR _pkInstPicked$2[ebp]
  000db	e8 00 00 00 00	 call	 ?GetVirtualID@CInstanceBase@@QAEKXZ ; CInstanceBase::GetVirtualID
  000e0	50		 push	 eax
  000e1	8b cf		 mov	 ecx, edi
  000e3	e8 00 00 00 00	 call	 ?OpenCharacterMenu@CPythonPlayer@@QAEXK@Z ; CPythonPlayer::OpenCharacterMenu
$LN1@NEW_SetMou:
  000e8	5f		 pop	 edi
  000e9	5e		 pop	 esi
  000ea	5b		 pop	 ebx

; 87   : 				}
; 88   : 			}
; 89   : 		}
; 90   : 	}
; 91   : }

  000eb	8b e5		 mov	 esp, ebp
  000ed	5d		 pop	 ebp
  000ee	c2 04 00	 ret	 4
?NEW_SetMouseCameraState@CPythonPlayer@@IAEXH@Z ENDP	; CPythonPlayer::NEW_SetMouseCameraState
_TEXT	ENDS
; Function compile flags: /Ogtp
; File d:\metin2\metin2\client_source_clean\client_source_clean\source\userinterface\pythonplayerinputmouse.cpp
;	COMDAT ?NEW_SetMouseSmartState@CPythonPlayer@@IAEXH_N@Z
_TEXT	SEGMENT
_eMBS$ = 8						; size = 4
_isAuto$ = 12						; size = 1
?NEW_SetMouseSmartState@CPythonPlayer@@IAEXH_N@Z PROC	; CPythonPlayer::NEW_SetMouseSmartState, COMDAT
; _this$ = ecx

; 96   : {

  00000	55		 push	 ebp
  00001	8b ec		 mov	 ebp, esp
  00003	56		 push	 esi
  00004	8b f1		 mov	 esi, ecx

; 97   : 	CInstanceBase* pkInstMain=NEW_GetMainActorPtr();

  00006	8b 46 04	 mov	 eax, DWORD PTR [esi+4]
  00009	8d 4e 04	 lea	 ecx, DWORD PTR [esi+4]
  0000c	57		 push	 edi
  0000d	ff 90 88 00 00
	00		 call	 DWORD PTR [eax+136]
  00013	8b f8		 mov	 edi, eax

; 98   : 	if (!pkInstMain) return;

  00015	85 ff		 test	 edi, edi
  00017	74 55		 je	 SHORT $LN1@NEW_SetMou

; 99   : 
; 100  : 	// PrivateShop
; 101  : 	if (IsOpenPrivateShop())

  00019	8b ce		 mov	 ecx, esi
  0001b	e8 00 00 00 00	 call	 ?IsOpenPrivateShop@CPythonPlayer@@QAE_NXZ ; CPythonPlayer::IsOpenPrivateShop
  00020	84 c0		 test	 al, al
  00022	74 0a		 je	 SHORT $LN6@NEW_SetMou

; 102  : 	{
; 103  : 		// ShopPacket 이 오기전 잠깐 동안  
; 104  : 		m_isSmtMov=false;

  00024	5f		 pop	 edi
  00025	c6 46 67 00	 mov	 BYTE PTR [esi+103], 0
  00029	5e		 pop	 esi

; 131  : 	}
; 132  : }

  0002a	5d		 pop	 ebp
  0002b	c2 08 00	 ret	 8
$LN6@NEW_SetMou:

; 105  : 		return;
; 106  : 	}
; 107  : 
; 108  : 	// Emotion
; 109  : 	if (__IsProcessingEmotion())

  0002e	e8 00 00 00 00	 call	 ?__IsProcessingEmotion@CPythonPlayer@@IAEHXZ ; CPythonPlayer::__IsProcessingEmotion
  00033	85 c0		 test	 eax, eax
  00035	75 37		 jne	 SHORT $LN1@NEW_SetMou

; 110  : 	{
; 111  : 		return;
; 112  : 	}
; 113  : 
; 114  : 	// AFFECT_STUN 처리
; 115  : 	if (pkInstMain->IsSleep())

  00037	8b cf		 mov	 ecx, edi
  00039	e8 00 00 00 00	 call	 ?IsSleep@CInstanceBase@@QAEHXZ ; CInstanceBase::IsSleep
  0003e	85 c0		 test	 eax, eax
  00040	75 2c		 jne	 SHORT $LN1@NEW_SetMou

; 116  : 	{
; 117  : 		return;
; 118  : 	}
; 119  : 
; 120  : 	if (MBS_PRESS==eMBS)

  00042	8b 45 08	 mov	 eax, DWORD PTR _eMBS$[ebp]
  00045	83 f8 01	 cmp	 eax, 1
  00048	75 14		 jne	 SHORT $LN3@NEW_SetMou

; 121  : 	{
; 122  : 		m_isSmtMov=true;
; 123  : 
; 124  : 		__OnPressSmart(*pkInstMain, isAuto);

  0004a	ff 75 0c	 push	 DWORD PTR _isAuto$[ebp]
  0004d	8b ce		 mov	 ecx, esi
  0004f	88 46 67	 mov	 BYTE PTR [esi+103], al
  00052	57		 push	 edi
  00053	e8 00 00 00 00	 call	 ?__OnPressSmart@CPythonPlayer@@IAEXAAVCInstanceBase@@_N@Z ; CPythonPlayer::__OnPressSmart
  00058	5f		 pop	 edi
  00059	5e		 pop	 esi

; 131  : 	}
; 132  : }

  0005a	5d		 pop	 ebp
  0005b	c2 08 00	 ret	 8
$LN3@NEW_SetMou:

; 125  : 	}
; 126  : 	else if (MBS_CLICK==eMBS)

  0005e	85 c0		 test	 eax, eax
  00060	75 0c		 jne	 SHORT $LN1@NEW_SetMou

; 127  : 	{
; 128  : 		m_isSmtMov=false;
; 129  : 
; 130  : 		__OnClickSmart(*pkInstMain, isAuto);

  00062	51		 push	 ecx
  00063	57		 push	 edi
  00064	8b ce		 mov	 ecx, esi
  00066	88 46 67	 mov	 BYTE PTR [esi+103], al
  00069	e8 00 00 00 00	 call	 ?__OnClickSmart@CPythonPlayer@@IAEXAAVCInstanceBase@@_N@Z ; CPythonPlayer::__OnClickSmart
$LN1@NEW_SetMou:
  0006e	5f		 pop	 edi
  0006f	5e		 pop	 esi

; 131  : 	}
; 132  : }

  00070	5d		 pop	 ebp
  00071	c2 08 00	 ret	 8
?NEW_SetMouseSmartState@CPythonPlayer@@IAEXH_N@Z ENDP	; CPythonPlayer::NEW_SetMouseSmartState
_TEXT	ENDS
; Function compile flags: /Ogtp
; File d:\metin2\metin2\client_source_clean\client_source_clean\source\userinterface\pythonplayerinputmouse.cpp
;	COMDAT ?__OnPressSmart@CPythonPlayer@@IAEXAAVCInstanceBase@@_N@Z
_TEXT	SEGMENT
_dwPickedActorID$ = -28					; size = 4
_dwPickedItemID$ = -24					; size = 4
_isPickedGroundPos$1$ = -17				; size = 1
_kPPosPickedGround$ = -16				; size = 12
__$ArrayPad$ = -4					; size = 4
_rkInstMain$ = 8					; size = 4
_isAuto$ = 12						; size = 1
?__OnPressSmart@CPythonPlayer@@IAEXAAVCInstanceBase@@_N@Z PROC ; CPythonPlayer::__OnPressSmart, COMDAT
; _this$ = ecx

; 135  : {

  00000	55		 push	 ebp
  00001	8b ec		 mov	 ebp, esp
  00003	83 ec 1c	 sub	 esp, 28			; 0000001cH
  00006	a1 00 00 00 00	 mov	 eax, DWORD PTR ___security_cookie
  0000b	33 c5		 xor	 eax, ebp
  0000d	89 45 fc	 mov	 DWORD PTR __$ArrayPad$[ebp], eax
  00010	53		 push	 ebx
  00011	56		 push	 esi
  00012	57		 push	 edi
  00013	8b 7d 08	 mov	 edi, DWORD PTR _rkInstMain$[ebp]

; 136  : 	DWORD dwPickedItemID;
; 137  : 	DWORD dwPickedActorID;
; 138  : 	TPixelPosition kPPosPickedGround;
; 139  : 
; 140  : 	bool isPickedItemID=__GetPickedItemID(&dwPickedItemID);

  00016	8d 45 e8	 lea	 eax, DWORD PTR _dwPickedItemID$[ebp]
  00019	50		 push	 eax
  0001a	8b f1		 mov	 esi, ecx
  0001c	e8 00 00 00 00	 call	 ?__GetPickedItemID@CPythonPlayer@@IAE_NPAK@Z ; CPythonPlayer::__GetPickedItemID
  00021	8a d8		 mov	 bl, al

; 141  : 	bool isPickedActorID=__GetPickedActorID(&dwPickedActorID);

  00023	8d 45 e4	 lea	 eax, DWORD PTR _dwPickedActorID$[ebp]
  00026	50		 push	 eax
  00027	e8 00 00 00 00	 call	 ?__GetPickedActorID@CPythonPlayer@@IAE_NPAK@Z ; CPythonPlayer::__GetPickedActorID
  0002c	8a f8		 mov	 bh, al

; 142  : 	bool isPickedGroundPos=__GetPickedGroundPos(&kPPosPickedGround);

  0002e	8d 45 f0	 lea	 eax, DWORD PTR _kPPosPickedGround$[ebp]
  00031	50		 push	 eax
  00032	e8 00 00 00 00	 call	 ?__GetPickedGroundPos@CPythonPlayer@@IAE_NPAUD3DXVECTOR3@@@Z ; CPythonPlayer::__GetPickedGroundPos
  00037	88 45 ef	 mov	 BYTE PTR _isPickedGroundPos$1$[ebp], al

; 143  : 
; 144  : 	if (isPickedItemID)

  0003a	84 db		 test	 bl, bl
  0003c	74 1e		 je	 SHORT $LN6@OnPressSma

; 145  : 	{
; 146  : 		__OnPressItem(rkInstMain, dwPickedItemID);

  0003e	ff 75 e8	 push	 DWORD PTR _dwPickedItemID$[ebp]
  00041	8b ce		 mov	 ecx, esi
  00043	57		 push	 edi
  00044	e8 00 00 00 00	 call	 ?__OnPressItem@CPythonPlayer@@IAEXAAVCInstanceBase@@K@Z ; CPythonPlayer::__OnPressItem

; 159  : 	}
; 160  : }

  00049	5f		 pop	 edi
  0004a	5e		 pop	 esi
  0004b	5b		 pop	 ebx
  0004c	8b 4d fc	 mov	 ecx, DWORD PTR __$ArrayPad$[ebp]
  0004f	33 cd		 xor	 ecx, ebp
  00051	e8 00 00 00 00	 call	 @__security_check_cookie@4
  00056	8b e5		 mov	 esp, ebp
  00058	5d		 pop	 ebp
  00059	c2 08 00	 ret	 8
$LN6@OnPressSma:

; 147  : 	}
; 148  : 	else if (isPickedActorID && dwPickedActorID != GetMainCharacterIndex())

  0005c	84 ff		 test	 bh, bh
  0005e	74 32		 je	 SHORT $LN4@OnPressSma
  00060	8b 46 04	 mov	 eax, DWORD PTR [esi+4]
  00063	8d 4e 04	 lea	 ecx, DWORD PTR [esi+4]
  00066	ff 50 04	 call	 DWORD PTR [eax+4]
  00069	8b 4d e4	 mov	 ecx, DWORD PTR _dwPickedActorID$[ebp]
  0006c	3b c8		 cmp	 ecx, eax
  0006e	74 1f		 je	 SHORT $LN11@OnPressSma

; 149  : 	{
; 150  : 		__OnPressActor(rkInstMain, dwPickedActorID, isAuto);

  00070	ff 75 0c	 push	 DWORD PTR _isAuto$[ebp]
  00073	51		 push	 ecx
  00074	57		 push	 edi
  00075	8b ce		 mov	 ecx, esi
  00077	e8 00 00 00 00	 call	 ?__OnPressActor@CPythonPlayer@@IAEXAAVCInstanceBase@@K_N@Z ; CPythonPlayer::__OnPressActor

; 159  : 	}
; 160  : }

  0007c	5f		 pop	 edi
  0007d	5e		 pop	 esi
  0007e	5b		 pop	 ebx
  0007f	8b 4d fc	 mov	 ecx, DWORD PTR __$ArrayPad$[ebp]
  00082	33 cd		 xor	 ecx, ebp
  00084	e8 00 00 00 00	 call	 @__security_check_cookie@4
  00089	8b e5		 mov	 esp, ebp
  0008b	5d		 pop	 ebp
  0008c	c2 08 00	 ret	 8
$LN11@OnPressSma:
  0008f	8a 45 ef	 mov	 al, BYTE PTR _isPickedGroundPos$1$[ebp]
$LN4@OnPressSma:

; 151  : 	}
; 152  : 	else if (isPickedGroundPos)

  00092	84 c0		 test	 al, al
  00094	74 1f		 je	 SHORT $LN2@OnPressSma

; 153  : 	{
; 154  : 		__OnPressGround(rkInstMain, kPPosPickedGround);

  00096	8d 45 f0	 lea	 eax, DWORD PTR _kPPosPickedGround$[ebp]
  00099	8b ce		 mov	 ecx, esi
  0009b	50		 push	 eax
  0009c	57		 push	 edi
  0009d	e8 00 00 00 00	 call	 ?__OnPressGround@CPythonPlayer@@IAEXAAVCInstanceBase@@ABUD3DXVECTOR3@@@Z ; CPythonPlayer::__OnPressGround

; 159  : 	}
; 160  : }

  000a2	5f		 pop	 edi
  000a3	5e		 pop	 esi
  000a4	5b		 pop	 ebx
  000a5	8b 4d fc	 mov	 ecx, DWORD PTR __$ArrayPad$[ebp]
  000a8	33 cd		 xor	 ecx, ebp
  000aa	e8 00 00 00 00	 call	 @__security_check_cookie@4
  000af	8b e5		 mov	 esp, ebp
  000b1	5d		 pop	 ebp
  000b2	c2 08 00	 ret	 8
$LN2@OnPressSma:

; 155  : 	}
; 156  : 	else
; 157  : 	{
; 158  : 		__OnPressScreen(rkInstMain);

  000b5	51		 push	 ecx
  000b6	8b ce		 mov	 ecx, esi
  000b8	e8 00 00 00 00	 call	 ?__OnPressScreen@CPythonPlayer@@IAEXAAVCInstanceBase@@@Z ; CPythonPlayer::__OnPressScreen

; 159  : 	}
; 160  : }

  000bd	8b 4d fc	 mov	 ecx, DWORD PTR __$ArrayPad$[ebp]
  000c0	5f		 pop	 edi
  000c1	5e		 pop	 esi
  000c2	33 cd		 xor	 ecx, ebp
  000c4	5b		 pop	 ebx
  000c5	e8 00 00 00 00	 call	 @__security_check_cookie@4
  000ca	8b e5		 mov	 esp, ebp
  000cc	5d		 pop	 ebp
  000cd	c2 08 00	 ret	 8
?__OnPressSmart@CPythonPlayer@@IAEXAAVCInstanceBase@@_N@Z ENDP ; CPythonPlayer::__OnPressSmart
_TEXT	ENDS
; Function compile flags: /Ogtp
; File d:\metin2\metin2\client_source_clean\client_source_clean\source\userinterface\pythonplayerinputmouse.cpp
;	COMDAT ?__OnClickSmart@CPythonPlayer@@IAEXAAVCInstanceBase@@_N@Z
_TEXT	SEGMENT
_dwPickedActorID$ = -20					; size = 4
_dwPickedItemID$ = -20					; size = 4
_kPPosPickedGround$ = -16				; size = 12
__$ArrayPad$ = -4					; size = 4
_rkInstMain$ = 8					; size = 4
_isAuto$dead$ = 12					; size = 1
?__OnClickSmart@CPythonPlayer@@IAEXAAVCInstanceBase@@_N@Z PROC ; CPythonPlayer::__OnClickSmart, COMDAT
; _this$ = ecx

; 163  : {

  00000	55		 push	 ebp
  00001	8b ec		 mov	 ebp, esp
  00003	83 ec 14	 sub	 esp, 20			; 00000014H
  00006	a1 00 00 00 00	 mov	 eax, DWORD PTR ___security_cookie
  0000b	33 c5		 xor	 eax, ebp
  0000d	89 45 fc	 mov	 DWORD PTR __$ArrayPad$[ebp], eax
  00010	56		 push	 esi
  00011	8b 75 08	 mov	 esi, DWORD PTR _rkInstMain$[ebp]

; 164  : 	DWORD dwPickedItemID;
; 165  : 	DWORD dwPickedActorID;
; 166  : 	TPixelPosition kPPosPickedGround;
; 167  : 	if (__GetPickedItemID(&dwPickedItemID))

  00014	8d 45 ec	 lea	 eax, DWORD PTR _dwPickedItemID$[ebp]
  00017	57		 push	 edi
  00018	50		 push	 eax
  00019	8b f9		 mov	 edi, ecx
  0001b	e8 00 00 00 00	 call	 ?__GetPickedItemID@CPythonPlayer@@IAE_NPAK@Z ; CPythonPlayer::__GetPickedItemID
  00020	84 c0		 test	 al, al
  00022	75 5d		 jne	 SHORT $LN1@OnClickSma

; 168  : 	{
; 169  : 		__OnClickItem(rkInstMain, dwPickedItemID);
; 170  : 	}
; 171  : 	else if (__GetPickedActorID(&dwPickedActorID))

  00024	8d 45 ec	 lea	 eax, DWORD PTR _dwPickedActorID$[ebp]
  00027	50		 push	 eax
  00028	e8 00 00 00 00	 call	 ?__GetPickedActorID@CPythonPlayer@@IAE_NPAK@Z ; CPythonPlayer::__GetPickedActorID
  0002d	84 c0		 test	 al, al
  0002f	74 1e		 je	 SHORT $LN4@OnClickSma

; 172  : 	{
; 173  : 		__OnClickActor(rkInstMain, dwPickedActorID, isAuto);

  00031	51		 push	 ecx
  00032	ff 75 ec	 push	 DWORD PTR _dwPickedActorID$[ebp]
  00035	8b cf		 mov	 ecx, edi
  00037	56		 push	 esi
  00038	e8 00 00 00 00	 call	 ?__OnClickActor@CPythonPlayer@@IAEXAAVCInstanceBase@@K_N@Z ; CPythonPlayer::__OnClickActor
  0003d	5f		 pop	 edi
  0003e	5e		 pop	 esi

; 182  : 	}
; 183  : }

  0003f	8b 4d fc	 mov	 ecx, DWORD PTR __$ArrayPad$[ebp]
  00042	33 cd		 xor	 ecx, ebp
  00044	e8 00 00 00 00	 call	 @__security_check_cookie@4
  00049	8b e5		 mov	 esp, ebp
  0004b	5d		 pop	 ebp
  0004c	c2 08 00	 ret	 8
$LN4@OnClickSma:

; 174  : 	}
; 175  : 	else if (__GetPickedGroundPos(&kPPosPickedGround))

  0004f	8d 45 f0	 lea	 eax, DWORD PTR _kPPosPickedGround$[ebp]
  00052	50		 push	 eax
  00053	e8 00 00 00 00	 call	 ?__GetPickedGroundPos@CPythonPlayer@@IAE_NPAUD3DXVECTOR3@@@Z ; CPythonPlayer::__GetPickedGroundPos
  00058	84 c0		 test	 al, al
  0005a	74 1e		 je	 SHORT $LN2@OnClickSma

; 176  : 	{
; 177  : 		__OnClickGround(rkInstMain, kPPosPickedGround);

  0005c	8d 45 f0	 lea	 eax, DWORD PTR _kPPosPickedGround$[ebp]
  0005f	8b cf		 mov	 ecx, edi
  00061	50		 push	 eax
  00062	56		 push	 esi
  00063	e8 00 00 00 00	 call	 ?__OnClickGround@CPythonPlayer@@IAEXAAVCInstanceBase@@ABUD3DXVECTOR3@@@Z ; CPythonPlayer::__OnClickGround
  00068	5f		 pop	 edi
  00069	5e		 pop	 esi

; 182  : 	}
; 183  : }

  0006a	8b 4d fc	 mov	 ecx, DWORD PTR __$ArrayPad$[ebp]
  0006d	33 cd		 xor	 ecx, ebp
  0006f	e8 00 00 00 00	 call	 @__security_check_cookie@4
  00074	8b e5		 mov	 esp, ebp
  00076	5d		 pop	 ebp
  00077	c2 08 00	 ret	 8
$LN2@OnClickSma:

; 178  : 	}
; 179  : 	else
; 180  : 	{
; 181  : 		rkInstMain.NEW_Stop();

  0007a	8b ce		 mov	 ecx, esi
  0007c	e8 00 00 00 00	 call	 ?NEW_Stop@CInstanceBase@@QAEXXZ ; CInstanceBase::NEW_Stop
$LN1@OnClickSma:

; 182  : 	}
; 183  : }

  00081	8b 4d fc	 mov	 ecx, DWORD PTR __$ArrayPad$[ebp]
  00084	5f		 pop	 edi
  00085	33 cd		 xor	 ecx, ebp
  00087	5e		 pop	 esi
  00088	e8 00 00 00 00	 call	 @__security_check_cookie@4
  0008d	8b e5		 mov	 esp, ebp
  0008f	5d		 pop	 ebp
  00090	c2 08 00	 ret	 8
?__OnClickSmart@CPythonPlayer@@IAEXAAVCInstanceBase@@_N@Z ENDP ; CPythonPlayer::__OnClickSmart
_TEXT	ENDS
; Function compile flags: /Ogtp
; File d:\metin2\metin2\client_source_clean\client_source_clean\source\userinterface\pythonplayerinputmouse.cpp
;	COMDAT ?NEW_SetMouseFunc@CPythonPlayer@@QAE_NHH@Z
_TEXT	SEGMENT
_eMBT$ = 8						; size = 4
_eMBF$ = 12						; size = 4
?NEW_SetMouseFunc@CPythonPlayer@@QAE_NHH@Z PROC		; CPythonPlayer::NEW_SetMouseFunc, COMDAT
; _this$ = ecx

; 198  : {

  00000	55		 push	 ebp
  00001	8b ec		 mov	 ebp, esp

; 199  : 	if (eMBT>=MBT_NUM)

  00003	8b 55 08	 mov	 edx, DWORD PTR _eMBT$[ebp]
  00006	83 fa 03	 cmp	 edx, 3
  00009	7c 06		 jl	 SHORT $LN1@NEW_SetMou

; 200  : 		return false;

  0000b	32 c0		 xor	 al, al

; 205  : }

  0000d	5d		 pop	 ebp
  0000e	c2 08 00	 ret	 8
$LN1@NEW_SetMou:

; 201  : 
; 202  : 	m_aeMBFButton[eMBT]=eMBF;

  00011	8b 45 0c	 mov	 eax, DWORD PTR _eMBF$[ebp]
  00014	89 84 91 08 0a
	01 00		 mov	 DWORD PTR [ecx+edx*4+68104], eax

; 203  : 
; 204  : 	return true;

  0001b	b0 01		 mov	 al, 1

; 205  : }

  0001d	5d		 pop	 ebp
  0001e	c2 08 00	 ret	 8
?NEW_SetMouseFunc@CPythonPlayer@@QAE_NHH@Z ENDP		; CPythonPlayer::NEW_SetMouseFunc
_TEXT	ENDS
; Function compile flags: /Ogtp
; File d:\metin2\metin2\client_source_clean\client_source_clean\source\userinterface\pythonplayerinputmouse.cpp
;	COMDAT ?NEW_GetMouseFunc@CPythonPlayer@@QAEHH@Z
_TEXT	SEGMENT
_eMBT$ = 8						; size = 4
?NEW_GetMouseFunc@CPythonPlayer@@QAEHH@Z PROC		; CPythonPlayer::NEW_GetMouseFunc, COMDAT
; _this$ = ecx

; 208  : {

  00000	55		 push	 ebp
  00001	8b ec		 mov	 ebp, esp

; 209  : 	if (eMBT>=MBT_NUM)

  00003	8b 45 08	 mov	 eax, DWORD PTR _eMBT$[ebp]
  00006	83 f8 03	 cmp	 eax, 3
  00009	7c 06		 jl	 SHORT $LN1@NEW_GetMou

; 210  : 		return false;

  0000b	33 c0		 xor	 eax, eax

; 213  : }

  0000d	5d		 pop	 ebp
  0000e	c2 04 00	 ret	 4
$LN1@NEW_GetMou:

; 211  : 
; 212  : 	return m_aeMBFButton[eMBT];

  00011	8b 84 81 08 0a
	01 00		 mov	 eax, DWORD PTR [ecx+eax*4+68104]

; 213  : }

  00018	5d		 pop	 ebp
  00019	c2 04 00	 ret	 4
?NEW_GetMouseFunc@CPythonPlayer@@QAEHH@Z ENDP		; CPythonPlayer::NEW_GetMouseFunc
_TEXT	ENDS
; Function compile flags: /Ogtp
; File d:\metin2\metin2\client_source_clean\client_source_clean\source\userinterface\pythonplayerinputmouse.cpp
;	COMDAT ?SetQuickCameraMode@CPythonPlayer@@QAEX_N@Z
_TEXT	SEGMENT
_isEnable$ = 8						; size = 1
?SetQuickCameraMode@CPythonPlayer@@QAEX_N@Z PROC	; CPythonPlayer::SetQuickCameraMode, COMDAT
; _this$ = ecx

; 216  : {

  00000	55		 push	 ebp
  00001	8b ec		 mov	 ebp, esp

; 217  : 	if (isEnable)

  00003	80 7d 08 00	 cmp	 BYTE PTR _isEnable$[ebp], 0
  00007	75 0d		 jne	 SHORT $LN1@SetQuickCa

; 218  : 	{
; 219  : 	}
; 220  : 	else
; 221  : 	{
; 222  : 		NEW_SetMouseCameraState(MBS_CLICK);

  00009	c7 45 08 00 00
	00 00		 mov	 DWORD PTR _isEnable$[ebp], 0

; 223  : 	}
; 224  : }

  00010	5d		 pop	 ebp

; 218  : 	{
; 219  : 	}
; 220  : 	else
; 221  : 	{
; 222  : 		NEW_SetMouseCameraState(MBS_CLICK);

  00011	e9 00 00 00 00	 jmp	 ?NEW_SetMouseCameraState@CPythonPlayer@@IAEXH@Z ; CPythonPlayer::NEW_SetMouseCameraState
$LN1@SetQuickCa:

; 223  : 	}
; 224  : }

  00016	5d		 pop	 ebp
  00017	c2 04 00	 ret	 4
?SetQuickCameraMode@CPythonPlayer@@QAEX_N@Z ENDP	; CPythonPlayer::SetQuickCameraMode
_TEXT	ENDS
; Function compile flags: /Ogtp
; File d:\metin2\metin2\client_source_clean\client_source_clean\source\userinterface\pythonplayerinputmouse.cpp
;	COMDAT ?NEW_SetMouseState@CPythonPlayer@@QAE_NHH@Z
_TEXT	SEGMENT
_eMBT$ = 8						; size = 4
_eMBS$ = 12						; size = 4
?NEW_SetMouseState@CPythonPlayer@@QAE_NHH@Z PROC	; CPythonPlayer::NEW_SetMouseState, COMDAT
; _this$ = ecx

; 227  : {

  00000	55		 push	 ebp
  00001	8b ec		 mov	 ebp, esp

; 228  : 	if (eMBT>=MBT_NUM)

  00003	8b 45 08	 mov	 eax, DWORD PTR _eMBT$[ebp]
  00006	56		 push	 esi
  00007	8b f1		 mov	 esi, ecx
  00009	83 f8 03	 cmp	 eax, 3
  0000c	7c 07		 jl	 SHORT $LN16@NEW_SetMou

; 229  : 		return false;

  0000e	32 c0		 xor	 al, al
  00010	5e		 pop	 esi

; 274  : }

  00011	5d		 pop	 ebp
  00012	c2 08 00	 ret	 8
$LN16@NEW_SetMou:

; 230  : 
; 231  : 	int eMBF=m_aeMBFButton[eMBT];

  00015	8b 84 86 08 0a
	01 00		 mov	 eax, DWORD PTR [esi+eax*4+68104]

; 232  : 	switch (eMBF)

  0001c	83 f8 05	 cmp	 eax, 5
  0001f	0f 87 ca 00 00
	00		 ja	 $LN1@NEW_SetMou
  00025	ff 24 85 00 00
	00 00		 jmp	 DWORD PTR $LN26@NEW_SetMou[eax*4]
$LN13@NEW_SetMou:

; 233  : 	{
; 234  : 		case MBF_MOVE:
; 235  : 			if (__CanMove())

  0002c	e8 00 00 00 00	 call	 ?__CanMove@CPythonPlayer@@IAE_NXZ ; CPythonPlayer::__CanMove
  00031	84 c0		 test	 al, al
  00033	0f 84 b6 00 00
	00		 je	 $LN1@NEW_SetMou

; 236  : 				NEW_SetMouseMoveState(eMBS);

  00039	ff 75 0c	 push	 DWORD PTR _eMBS$[ebp]
  0003c	8b ce		 mov	 ecx, esi
  0003e	e8 00 00 00 00	 call	 ?NEW_SetMouseMoveState@CPythonPlayer@@IAEXH@Z ; CPythonPlayer::NEW_SetMouseMoveState

; 268  : 				}
; 269  : 			}
; 270  : 			break;
; 271  : 	}
; 272  : 
; 273  : 	return true;

  00043	b0 01		 mov	 al, 1
  00045	5e		 pop	 esi

; 274  : }

  00046	5d		 pop	 ebp
  00047	c2 08 00	 ret	 8
$LN11@NEW_SetMou:

; 237  : 			break;
; 238  : 		case MBF_SMART:
; 239  : 			if (CPythonApplication::Instance().IsPressed(DIK_LCONTROL) || CPythonApplication::Instance().IsPressed(DIK_RCONTROL))

  0004a	8b 0d 00 00 00
	00		 mov	 ecx, DWORD PTR ?ms_pInstance@CPythonApplication@@1PAV1@A ; CPythonApplication::ms_pInstance
  00050	6a 1d		 push	 29			; 0000001dH
  00052	8d 49 1c	 lea	 ecx, DWORD PTR [ecx+28]
  00055	e8 00 00 00 00	 call	 ?IsPressed@CInputKeyboard@@QAE_NH@Z ; CInputKeyboard::IsPressed
  0005a	84 c0		 test	 al, al
  0005c	75 2a		 jne	 SHORT $LN9@NEW_SetMou
  0005e	8b 0d 00 00 00
	00		 mov	 ecx, DWORD PTR ?ms_pInstance@CPythonApplication@@1PAV1@A ; CPythonApplication::ms_pInstance
  00064	68 9d 00 00 00	 push	 157			; 0000009dH
  00069	8d 49 1c	 lea	 ecx, DWORD PTR [ecx+28]
  0006c	e8 00 00 00 00	 call	 ?IsPressed@CInputKeyboard@@QAE_NH@Z ; CInputKeyboard::IsPressed
  00071	84 c0		 test	 al, al
  00073	75 13		 jne	 SHORT $LN9@NEW_SetMou

; 242  : 			}
; 243  : 			else
; 244  : 			{
; 245  : 				NEW_SetMouseSmartState(eMBS, false);

  00075	6a 00		 push	 0
  00077	ff 75 0c	 push	 DWORD PTR _eMBS$[ebp]
  0007a	8b ce		 mov	 ecx, esi
  0007c	e8 00 00 00 00	 call	 ?NEW_SetMouseSmartState@CPythonPlayer@@IAEXH_N@Z ; CPythonPlayer::NEW_SetMouseSmartState

; 268  : 				}
; 269  : 			}
; 270  : 			break;
; 271  : 	}
; 272  : 
; 273  : 	return true;

  00081	b0 01		 mov	 al, 1
  00083	5e		 pop	 esi

; 274  : }

  00084	5d		 pop	 ebp
  00085	c2 08 00	 ret	 8
$LN9@NEW_SetMou:

; 240  : 			{
; 241  : 				NEW_Attack();

  00088	8b ce		 mov	 ecx, esi
$LN5@NEW_SetMou:
  0008a	e8 00 00 00 00	 call	 ?NEW_Attack@CPythonPlayer@@QAEXXZ ; CPythonPlayer::NEW_Attack

; 268  : 				}
; 269  : 			}
; 270  : 			break;
; 271  : 	}
; 272  : 
; 273  : 	return true;

  0008f	b0 01		 mov	 al, 1
  00091	5e		 pop	 esi

; 274  : }

  00092	5d		 pop	 ebp
  00093	c2 08 00	 ret	 8
$LN7@NEW_SetMou:

; 246  : 			}
; 247  : 			break;
; 248  : 		case MBF_CAMERA:
; 249  : 			NEW_SetMouseCameraState(eMBS);

  00096	ff 75 0c	 push	 DWORD PTR _eMBS$[ebp]
  00099	e8 00 00 00 00	 call	 ?NEW_SetMouseCameraState@CPythonPlayer@@IAEXH@Z ; CPythonPlayer::NEW_SetMouseCameraState

; 268  : 				}
; 269  : 			}
; 270  : 			break;
; 271  : 	}
; 272  : 
; 273  : 	return true;

  0009e	b0 01		 mov	 al, 1
  000a0	5e		 pop	 esi

; 274  : }

  000a1	5d		 pop	 ebp
  000a2	c2 08 00	 ret	 8
$LN6@NEW_SetMou:

; 250  : 			break;
; 251  : 		case MBF_AUTO:
; 252  : 			NEW_SetMouseSmartState(eMBS, true);

  000a5	6a 01		 push	 1
  000a7	ff 75 0c	 push	 DWORD PTR _eMBS$[ebp]
  000aa	e8 00 00 00 00	 call	 ?NEW_SetMouseSmartState@CPythonPlayer@@IAEXH_N@Z ; CPythonPlayer::NEW_SetMouseSmartState

; 268  : 				}
; 269  : 			}
; 270  : 			break;
; 271  : 	}
; 272  : 
; 273  : 	return true;

  000af	b0 01		 mov	 al, 1
  000b1	5e		 pop	 esi

; 274  : }

  000b2	5d		 pop	 ebp
  000b3	c2 08 00	 ret	 8
$LN4@NEW_SetMou:

; 253  : 			break;
; 254  : 		case MBF_ATTACK:
; 255  : 			NEW_Attack();
; 256  : 			break;
; 257  : 		case MBF_SKILL:
; 258  : 			if (CPythonApplication::Instance().IsPressed(DIK_LCONTROL))

  000b6	8b 0d 00 00 00
	00		 mov	 ecx, DWORD PTR ?ms_pInstance@CPythonApplication@@1PAV1@A ; CPythonApplication::ms_pInstance
  000bc	6a 1d		 push	 29			; 0000001dH
  000be	8d 49 1c	 lea	 ecx, DWORD PTR [ecx+28]
  000c1	e8 00 00 00 00	 call	 ?IsPressed@CInputKeyboard@@QAE_NH@Z ; CInputKeyboard::IsPressed
  000c6	84 c0		 test	 al, al
  000c8	74 11		 je	 SHORT $LN3@NEW_SetMou

; 259  : 			{
; 260  : 				NEW_SetMouseCameraState(eMBS);

  000ca	ff 75 0c	 push	 DWORD PTR _eMBS$[ebp]
  000cd	8b ce		 mov	 ecx, esi
  000cf	e8 00 00 00 00	 call	 ?NEW_SetMouseCameraState@CPythonPlayer@@IAEXH@Z ; CPythonPlayer::NEW_SetMouseCameraState

; 268  : 				}
; 269  : 			}
; 270  : 			break;
; 271  : 	}
; 272  : 
; 273  : 	return true;

  000d4	b0 01		 mov	 al, 1
  000d6	5e		 pop	 esi

; 274  : }

  000d7	5d		 pop	 ebp
  000d8	c2 08 00	 ret	 8
$LN3@NEW_SetMou:

; 261  : 			}
; 262  : 			else
; 263  : 			{
; 264  : 				if (MBS_PRESS == eMBS)

  000db	83 7d 0c 01	 cmp	 DWORD PTR _eMBS$[ebp], 1
  000df	75 0e		 jne	 SHORT $LN1@NEW_SetMou

; 265  : 				{
; 266  :  					__ChangeTargetToPickedInstance();

  000e1	8b ce		 mov	 ecx, esi
  000e3	e8 00 00 00 00	 call	 ?__ChangeTargetToPickedInstance@CPythonPlayer@@IAE_NXZ ; CPythonPlayer::__ChangeTargetToPickedInstance

; 267  : 					__UseCurrentSkill();

  000e8	8b ce		 mov	 ecx, esi
  000ea	e8 00 00 00 00	 call	 ?__UseCurrentSkill@CPythonPlayer@@IAEXXZ ; CPythonPlayer::__UseCurrentSkill
$LN1@NEW_SetMou:

; 268  : 				}
; 269  : 			}
; 270  : 			break;
; 271  : 	}
; 272  : 
; 273  : 	return true;

  000ef	b0 01		 mov	 al, 1
  000f1	5e		 pop	 esi

; 274  : }

  000f2	5d		 pop	 ebp
  000f3	c2 08 00	 ret	 8
  000f6	8b ff		 npad	 2
$LN26@NEW_SetMou:
  000f8	00 00 00 00	 DD	 $LN11@NEW_SetMou
  000fc	00 00 00 00	 DD	 $LN13@NEW_SetMou
  00100	00 00 00 00	 DD	 $LN7@NEW_SetMou
  00104	00 00 00 00	 DD	 $LN5@NEW_SetMou
  00108	00 00 00 00	 DD	 $LN4@NEW_SetMou
  0010c	00 00 00 00	 DD	 $LN6@NEW_SetMou
?NEW_SetMouseState@CPythonPlayer@@QAE_NHH@Z ENDP	; CPythonPlayer::NEW_SetMouseState
_TEXT	ENDS
; Function compile flags: /Ogtp
; File d:\metin2\metin2\client_source_clean\client_source_clean\source\userinterface\pythonplayerinputmouse.cpp
;	COMDAT ?NEW_SetMouseMiddleButtonState@CPythonPlayer@@QAEXH@Z
_TEXT	SEGMENT
_eMBState$ = 8						; size = 4
?NEW_SetMouseMiddleButtonState@CPythonPlayer@@QAEXH@Z PROC ; CPythonPlayer::NEW_SetMouseMiddleButtonState, COMDAT
; _this$ = ecx

; 277  : {

  00000	55		 push	 ebp
  00001	8b ec		 mov	 ebp, esp

; 279  : }

  00003	5d		 pop	 ebp

; 278  : 	NEW_SetMouseCameraState(eMBState);

  00004	e9 00 00 00 00	 jmp	 ?NEW_SetMouseCameraState@CPythonPlayer@@IAEXH@Z ; CPythonPlayer::NEW_SetMouseCameraState
?NEW_SetMouseMiddleButtonState@CPythonPlayer@@QAEXH@Z ENDP ; CPythonPlayer::NEW_SetMouseMiddleButtonState
_TEXT	ENDS
; Function compile flags: /Ogtp
; File d:\metin2\metin2\client_source_clean\client_source_clean\source\userinterface\pythonplayerinputmouse.cpp
;	COMDAT ?__IsRightButtonSkillMode@CPythonPlayer@@IAEHXZ
_TEXT	SEGMENT
?__IsRightButtonSkillMode@CPythonPlayer@@IAEHXZ PROC	; CPythonPlayer::__IsRightButtonSkillMode, COMDAT
; _this$ = ecx

; 393  : 	return MBF_SKILL == m_aeMBFButton[MBT_RIGHT];

  00000	33 c0		 xor	 eax, eax
  00002	83 b9 0c 0a 01
	00 04		 cmp	 DWORD PTR [ecx+68108], 4
  00009	0f 94 c0	 sete	 al

; 394  : }

  0000c	c3		 ret	 0
?__IsRightButtonSkillMode@CPythonPlayer@@IAEHXZ ENDP	; CPythonPlayer::__IsRightButtonSkillMode
_TEXT	ENDS
END
