; Listing generated by Microsoft (R) Optimizing Compiler Version 18.00.40629.0 

	TITLE	D:\Metin2\Metin2\client_source_clean\client_source_clean\source\UserInterface\PythonNetworkStreamPhaseGameItem.cpp
	.686P
	.XMM
	include listing.inc
	.model	flat

INCLUDELIB OLDNAMES

PUBLIC	??_C@_0BC@GDFDGKCD@OpenSafeboxWindow?$AA@	; `string'
PUBLIC	??_C@_0P@BMBKKGBC@OnSafeBoxError?$AA@		; `string'
PUBLIC	??_C@_0P@OIFPJOPL@OpenMallWindow?$AA@		; `string'
PUBLIC	??_C@_0BE@OHCDIKPF@RefreshSafeboxMoney?$AA@	; `string'
PUBLIC	??_C@_0BG@ELBKFGDM@BINARY_Highlight_Item?$AA@	; `string'
PUBLIC	??_C@_0DB@JMGJIAKF@?5?$DO?$DO?5CPythonNetworkStream?3?3RecvMa@ ; `string'
PUBLIC	??_C@_0BJ@GJICJJME@SendShopBuyPacket?5Error?6?$AA@ ; `string'
PUBLIC	??_C@_0BJ@ENIABNOP@SendShopEndPacket?5Error?6?$AA@ ; `string'
PUBLIC	??_C@_0BN@PEGCCLIG@SendShopAddSellPacket?5Error?6?$AA@ ; `string'
PUBLIC	??_C@_0BK@NFAAJDME@SendShopSellPacket?5Error?6?$AA@ ; `string'
PUBLIC	??_C@_0BG@KBOLGOPL@CANNOT_EQUIP_EXCHANGE?$AA@	; `string'
PUBLIC	??_C@_0CP@FAIPFIGP@?5SendShopSellPacketNew?$CIbySlot?$DN?$CFd@ ; `string'
PUBLIC	??_C@_0BC@GKDHAPBC@CANNOT_EQUIP_SHOP?$AA@	; `string'
PUBLIC	??_C@_0BL@HGBMODPD@BINARY_AppendNotifyMessage?$AA@ ; `string'
PUBLIC	??_C@_0BO@FFKONCIG@SendItemUseToItemPacket?5Error?$AA@ ; `string'
PUBLIC	??_C@_0BI@ECNPLDED@SendItemUsePacket?5Error?$AA@ ; `string'
PUBLIC	??_C@_0BJ@LGMFALEM@SendItemMovePacket?5Error?$AA@ ; `string'
PUBLIC	??_C@_0BJ@OIBPCJHH@SendItemDropPacket?5Error?$AA@ ; `string'
PUBLIC	??_C@_0BN@ONNLHEKF@SendQuickSlotAddPacket?5Error?$AA@ ; `string'
PUBLIC	??_C@_0BL@DCHNPPOD@SendItemPickUpPacket?5Error?$AA@ ; `string'
PUBLIC	??_C@_0BO@MHEMOJBJ@SendQuickSlotSwapPacket?5Error?$AA@ ; `string'
PUBLIC	??_C@_0BN@BNCAGMGN@SendQuickSlotDelPacket?5Error?$AA@ ; `string'
PUBLIC	??_C@_0CD@JEDDBPLN@BINARY_DragonSoulRefineWindow_Op@ ; `string'
PUBLIC	??_C@_0DL@PLJBBCEI@?$CFd?5?$LE?B?5?$LO?x?$LE?B?5?$LN?$LK?F?d?$LM?H?5?$MA?L?F?e?F?$KO?5?$LJ?x?H?$KD?$MA?T?$LE@ ; `string'
PUBLIC	??_C@_0CM@IKKNFKOL@BINARY_DragonSoulRefineWindow_Re@ ; `string'
PUBLIC	??_C@_0CJ@JCBKPBPN@BINARY_DragonSoulRefineWindow_Re@ ; `string'
PUBLIC	?ms_singleton@?$CSingleton@VCPythonSafeBox@@@@0PAVCPythonSafeBox@@A ; CSingleton<CPythonSafeBox>::ms_singleton
;	COMDAT ?ms_singleton@?$CSingleton@VCPythonSafeBox@@@@0PAVCPythonSafeBox@@A
_BSS	SEGMENT
?ms_singleton@?$CSingleton@VCPythonSafeBox@@@@0PAVCPythonSafeBox@@A DD 01H DUP (?) ; CSingleton<CPythonSafeBox>::ms_singleton
_BSS	ENDS
;	COMDAT ??_C@_0CJ@JCBKPBPN@BINARY_DragonSoulRefineWindow_Re@
CONST	SEGMENT
??_C@_0CJ@JCBKPBPN@BINARY_DragonSoulRefineWindow_Re@ DB 'BINARY_DragonSou'
	DB	'lRefineWindow_RefineFail', 00H		; `string'
CONST	ENDS
;	COMDAT ??_C@_0CM@IKKNFKOL@BINARY_DragonSoulRefineWindow_Re@
CONST	SEGMENT
??_C@_0CM@IKKNFKOL@BINARY_DragonSoulRefineWindow_Re@ DB 'BINARY_DragonSou'
	DB	'lRefineWindow_RefineSucceed', 00H		; `string'
CONST	ENDS
;	COMDAT ??_C@_0DL@PLJBBCEI@?$CFd?5?$LE?B?5?$LO?x?$LE?B?5?$LN?$LK?F?d?$LM?H?5?$MA?L?F?e?F?$KO?5?$LJ?x?H?$KD?$MA?T?$LE@
CONST	SEGMENT
??_C@_0DL@PLJBBCEI@?$CFd?5?$LE?B?5?$LO?x?$LE?B?5?$LN?$LK?F?d?$LM?H?5?$MA?L?F?e?F?$KO?5?$LJ?x?H?$KD?$MA?T?$LE@ DB '%'
	DB	'd ', 0b4H, 0c2H, ' ', 0beH, 0f8H, 0b4H, 0c2H, ' ', 0bdH, 0baH
	DB	0c6H, 0e4H, 0bcH, 0c8H, ' ', 0c0H, 0ccH, 0c6H, 0e5H, 0c6H, 0aeH
	DB	' ', 0b9H, 0f8H, 0c8H, 0a3H, 0c0H, 0d4H, 0b4H, 0cfH, 0b4H, 0d9H
	DB	'.TPacketGCSpecialEffect', 00H		; `string'
CONST	ENDS
;	COMDAT ??_C@_0CD@JEDDBPLN@BINARY_DragonSoulRefineWindow_Op@
CONST	SEGMENT
??_C@_0CD@JEDDBPLN@BINARY_DragonSoulRefineWindow_Op@ DB 'BINARY_DragonSou'
	DB	'lRefineWindow_Open', 00H			; `string'
CONST	ENDS
;	COMDAT ??_C@_0BN@BNCAGMGN@SendQuickSlotDelPacket?5Error?$AA@
CONST	SEGMENT
??_C@_0BN@BNCAGMGN@SendQuickSlotDelPacket?5Error?$AA@ DB 'SendQuickSlotDe'
	DB	'lPacket Error', 00H				; `string'
CONST	ENDS
;	COMDAT ??_C@_0BO@MHEMOJBJ@SendQuickSlotSwapPacket?5Error?$AA@
CONST	SEGMENT
??_C@_0BO@MHEMOJBJ@SendQuickSlotSwapPacket?5Error?$AA@ DB 'SendQuickSlotS'
	DB	'wapPacket Error', 00H			; `string'
CONST	ENDS
;	COMDAT ??_C@_0BL@DCHNPPOD@SendItemPickUpPacket?5Error?$AA@
CONST	SEGMENT
??_C@_0BL@DCHNPPOD@SendItemPickUpPacket?5Error?$AA@ DB 'SendItemPickUpPac'
	DB	'ket Error', 00H				; `string'
CONST	ENDS
;	COMDAT ??_C@_0BN@ONNLHEKF@SendQuickSlotAddPacket?5Error?$AA@
CONST	SEGMENT
??_C@_0BN@ONNLHEKF@SendQuickSlotAddPacket?5Error?$AA@ DB 'SendQuickSlotAd'
	DB	'dPacket Error', 00H				; `string'
CONST	ENDS
;	COMDAT ??_C@_0BJ@OIBPCJHH@SendItemDropPacket?5Error?$AA@
CONST	SEGMENT
??_C@_0BJ@OIBPCJHH@SendItemDropPacket?5Error?$AA@ DB 'SendItemDropPacket '
	DB	'Error', 00H					; `string'
CONST	ENDS
;	COMDAT ??_C@_0BJ@LGMFALEM@SendItemMovePacket?5Error?$AA@
CONST	SEGMENT
??_C@_0BJ@LGMFALEM@SendItemMovePacket?5Error?$AA@ DB 'SendItemMovePacket '
	DB	'Error', 00H					; `string'
CONST	ENDS
;	COMDAT ??_C@_0BI@ECNPLDED@SendItemUsePacket?5Error?$AA@
CONST	SEGMENT
??_C@_0BI@ECNPLDED@SendItemUsePacket?5Error?$AA@ DB 'SendItemUsePacket Er'
	DB	'ror', 00H					; `string'
CONST	ENDS
;	COMDAT ??_C@_0BO@FFKONCIG@SendItemUseToItemPacket?5Error?$AA@
CONST	SEGMENT
??_C@_0BO@FFKONCIG@SendItemUseToItemPacket?5Error?$AA@ DB 'SendItemUseToI'
	DB	'temPacket Error', 00H			; `string'
CONST	ENDS
;	COMDAT ??_C@_0BL@HGBMODPD@BINARY_AppendNotifyMessage?$AA@
CONST	SEGMENT
??_C@_0BL@HGBMODPD@BINARY_AppendNotifyMessage?$AA@ DB 'BINARY_AppendNotif'
	DB	'yMessage', 00H				; `string'
CONST	ENDS
;	COMDAT ??_C@_0BC@GKDHAPBC@CANNOT_EQUIP_SHOP?$AA@
CONST	SEGMENT
??_C@_0BC@GKDHAPBC@CANNOT_EQUIP_SHOP?$AA@ DB 'CANNOT_EQUIP_SHOP', 00H ; `string'
CONST	ENDS
;	COMDAT ??_C@_0CP@FAIPFIGP@?5SendShopSellPacketNew?$CIbySlot?$DN?$CFd@
CONST	SEGMENT
??_C@_0CP@FAIPFIGP@?5SendShopSellPacketNew?$CIbySlot?$DN?$CFd@ DB ' SendS'
	DB	'hopSellPacketNew(bySlot=%d, byCount=%d)', 0aH, 00H ; `string'
CONST	ENDS
;	COMDAT ??_C@_0BG@KBOLGOPL@CANNOT_EQUIP_EXCHANGE?$AA@
CONST	SEGMENT
??_C@_0BG@KBOLGOPL@CANNOT_EQUIP_EXCHANGE?$AA@ DB 'CANNOT_EQUIP_EXCHANGE', 00H ; `string'
CONST	ENDS
;	COMDAT ??_C@_0BK@NFAAJDME@SendShopSellPacket?5Error?6?$AA@
CONST	SEGMENT
??_C@_0BK@NFAAJDME@SendShopSellPacket?5Error?6?$AA@ DB 'SendShopSellPacke'
	DB	't Error', 0aH, 00H				; `string'
CONST	ENDS
;	COMDAT ??_C@_0BN@PEGCCLIG@SendShopAddSellPacket?5Error?6?$AA@
CONST	SEGMENT
??_C@_0BN@PEGCCLIG@SendShopAddSellPacket?5Error?6?$AA@ DB 'SendShopAddSel'
	DB	'lPacket Error', 0aH, 00H			; `string'
CONST	ENDS
;	COMDAT ??_C@_0BJ@ENIABNOP@SendShopEndPacket?5Error?6?$AA@
CONST	SEGMENT
??_C@_0BJ@ENIABNOP@SendShopEndPacket?5Error?6?$AA@ DB 'SendShopEndPacket '
	DB	'Error', 0aH, 00H				; `string'
CONST	ENDS
;	COMDAT ??_C@_0BJ@GJICJJME@SendShopBuyPacket?5Error?6?$AA@
CONST	SEGMENT
??_C@_0BJ@GJICJJME@SendShopBuyPacket?5Error?6?$AA@ DB 'SendShopBuyPacket '
	DB	'Error', 0aH, 00H				; `string'
CONST	ENDS
;	COMDAT ??_C@_0DB@JMGJIAKF@?5?$DO?$DO?5CPythonNetworkStream?3?3RecvMa@
CONST	SEGMENT
??_C@_0DB@JMGJIAKF@?5?$DO?$DO?5CPythonNetworkStream?3?3RecvMa@ DB ' >> CP'
	DB	'ythonNetworkStream::RecvMallItemDelPacket', 0aH, 00H ; `string'
CONST	ENDS
;	COMDAT ??_C@_0BG@ELBKFGDM@BINARY_Highlight_Item?$AA@
CONST	SEGMENT
??_C@_0BG@ELBKFGDM@BINARY_Highlight_Item?$AA@ DB 'BINARY_Highlight_Item', 00H ; `string'
CONST	ENDS
;	COMDAT ??_C@_0BE@OHCDIKPF@RefreshSafeboxMoney?$AA@
CONST	SEGMENT
??_C@_0BE@OHCDIKPF@RefreshSafeboxMoney?$AA@ DB 'RefreshSafeboxMoney', 00H ; `string'
CONST	ENDS
;	COMDAT ??_C@_0P@OIFPJOPL@OpenMallWindow?$AA@
CONST	SEGMENT
??_C@_0P@OIFPJOPL@OpenMallWindow?$AA@ DB 'OpenMallWindow', 00H ; `string'
CONST	ENDS
;	COMDAT ??_C@_0P@BMBKKGBC@OnSafeBoxError?$AA@
CONST	SEGMENT
??_C@_0P@BMBKKGBC@OnSafeBoxError?$AA@ DB 'OnSafeBoxError', 00H ; `string'
CONST	ENDS
;	COMDAT ??_C@_0BC@GDFDGKCD@OpenSafeboxWindow?$AA@
CONST	SEGMENT
??_C@_0BC@GDFDGKCD@OpenSafeboxWindow?$AA@ DB 'OpenSafeboxWindow', 00H ; `string'
PUBLIC	?IsEquipCell@SItemPos@@QAE_NXZ			; SItemPos::IsEquipCell
PUBLIC	?Instance@?$CSingleton@VCPythonSafeBox@@@@SAAAVCPythonSafeBox@@XZ ; CSingleton<CPythonSafeBox>::Instance
PUBLIC	?SendQuickSlotMovePacket@CPythonNetworkStream@@QAE_NEE@Z ; CPythonNetworkStream::SendQuickSlotMovePacket
PUBLIC	?SendQuickSlotDelPacket@CPythonNetworkStream@@QAE_NE@Z ; CPythonNetworkStream::SendQuickSlotDelPacket
PUBLIC	?SendQuickSlotAddPacket@CPythonNetworkStream@@QAE_NEEE@Z ; CPythonNetworkStream::SendQuickSlotAddPacket
PUBLIC	?__PlayMallItemDropSound@CPythonNetworkStream@@IAEXI@Z ; CPythonNetworkStream::__PlayMallItemDropSound
PUBLIC	?__PlaySafeBoxItemDropSound@CPythonNetworkStream@@IAEXI@Z ; CPythonNetworkStream::__PlaySafeBoxItemDropSound
PUBLIC	?__PlayInventoryItemDropSound@CPythonNetworkStream@@IAEXUSItemPos@@@Z ; CPythonNetworkStream::__PlayInventoryItemDropSound
PUBLIC	?__PlayInventoryItemUseSound@CPythonNetworkStream@@IAEXUSItemPos@@@Z ; CPythonNetworkStream::__PlayInventoryItemUseSound
PUBLIC	?__IsEquipItemInSlot@CPythonNetworkStream@@IAE_NUSItemPos@@@Z ; CPythonNetworkStream::__IsEquipItemInSlot
PUBLIC	??0command_item_drop2@@QAE@XZ			; command_item_drop2::command_item_drop2
PUBLIC	??0command_item_drop@@QAE@XZ			; command_item_drop::command_item_drop
PUBLIC	??0command_item_use_to_item@@QAE@XZ		; command_item_use_to_item::command_item_use_to_item
PUBLIC	??0command_item_use@@QAE@XZ			; command_item_use::command_item_use
PUBLIC	??0packet_update_item@@QAE@XZ			; packet_update_item::packet_update_item
PUBLIC	??0packet_use_item@@QAE@XZ			; packet_use_item::packet_use_item
PUBLIC	??0packet_set_item@@QAE@XZ			; packet_set_item::packet_set_item
PUBLIC	??0command_mall_checkout@@QAE@XZ		; command_mall_checkout::command_mall_checkout
PUBLIC	??0packet_set_item2@@QAE@XZ			; packet_set_item2::packet_set_item2
PUBLIC	??0command_item_move@@QAE@XZ			; command_item_move::command_item_move
PUBLIC	??0command_safebox_checkout@@QAE@XZ		; command_safebox_checkout::command_safebox_checkout
PUBLIC	??0command_safebox_checkin@@QAE@XZ		; command_safebox_checkin::command_safebox_checkin
PUBLIC	??0SPacketGCDragonSoulRefine@@QAE@XZ		; SPacketGCDragonSoulRefine::SPacketGCDragonSoulRefine
PUBLIC	?RecvItemSetPacket@CPythonNetworkStream@@IAE_NXZ ; CPythonNetworkStream::RecvItemSetPacket
PUBLIC	?RecvItemSetPacket2@CPythonNetworkStream@@IAE_NXZ ; CPythonNetworkStream::RecvItemSetPacket2
PUBLIC	?RecvItemUsePacket@CPythonNetworkStream@@IAE_NXZ ; CPythonNetworkStream::RecvItemUsePacket
PUBLIC	?RecvItemUpdatePacket@CPythonNetworkStream@@IAE_NXZ ; CPythonNetworkStream::RecvItemUpdatePacket
PUBLIC	?RecvItemGroundAddPacket@CPythonNetworkStream@@IAE_NXZ ; CPythonNetworkStream::RecvItemGroundAddPacket
PUBLIC	?RecvItemGroundDelPacket@CPythonNetworkStream@@IAE_NXZ ; CPythonNetworkStream::RecvItemGroundDelPacket
PUBLIC	?RecvItemOwnership@CPythonNetworkStream@@IAE_NXZ ; CPythonNetworkStream::RecvItemOwnership
PUBLIC	?RecvQuickSlotAddPacket@CPythonNetworkStream@@IAE_NXZ ; CPythonNetworkStream::RecvQuickSlotAddPacket
PUBLIC	?RecvQuickSlotDelPacket@CPythonNetworkStream@@IAE_NXZ ; CPythonNetworkStream::RecvQuickSlotDelPacket
PUBLIC	?RecvQuickSlotMovePacket@CPythonNetworkStream@@IAE_NXZ ; CPythonNetworkStream::RecvQuickSlotMovePacket
PUBLIC	?RecvSafeBoxSetPacket@CPythonNetworkStream@@IAE_NXZ ; CPythonNetworkStream::RecvSafeBoxSetPacket
PUBLIC	?RecvSafeBoxDelPacket@CPythonNetworkStream@@IAE_NXZ ; CPythonNetworkStream::RecvSafeBoxDelPacket
PUBLIC	?RecvSafeBoxWrongPasswordPacket@CPythonNetworkStream@@IAE_NXZ ; CPythonNetworkStream::RecvSafeBoxWrongPasswordPacket
PUBLIC	?RecvSafeBoxSizePacket@CPythonNetworkStream@@IAE_NXZ ; CPythonNetworkStream::RecvSafeBoxSizePacket
PUBLIC	?RecvSafeBoxMoneyChangePacket@CPythonNetworkStream@@IAE_NXZ ; CPythonNetworkStream::RecvSafeBoxMoneyChangePacket
PUBLIC	?RecvSpecialEffect@CPythonNetworkStream@@IAE_NXZ ; CPythonNetworkStream::RecvSpecialEffect
PUBLIC	?RecvMallOpenPacket@CPythonNetworkStream@@QAE_NXZ ; CPythonNetworkStream::RecvMallOpenPacket
PUBLIC	?RecvMallItemSetPacket@CPythonNetworkStream@@QAE_NXZ ; CPythonNetworkStream::RecvMallItemSetPacket
PUBLIC	?RecvMallItemDelPacket@CPythonNetworkStream@@QAE_NXZ ; CPythonNetworkStream::RecvMallItemDelPacket
PUBLIC	?RecvSpecificEffect@CPythonNetworkStream@@IAE_NXZ ; CPythonNetworkStream::RecvSpecificEffect
PUBLIC	?RecvDragonSoulRefine@CPythonNetworkStream@@IAE_NXZ ; CPythonNetworkStream::RecvDragonSoulRefine
PUBLIC	?SendItemUsePacket@CPythonNetworkStream@@QAE_NUSItemPos@@@Z ; CPythonNetworkStream::SendItemUsePacket
PUBLIC	?SendItemUseToItemPacket@CPythonNetworkStream@@QAE_NUSItemPos@@0@Z ; CPythonNetworkStream::SendItemUseToItemPacket
PUBLIC	?SendItemDropPacket@CPythonNetworkStream@@QAE_NUSItemPos@@K@Z ; CPythonNetworkStream::SendItemDropPacket
PUBLIC	?SendItemDropPacketNew@CPythonNetworkStream@@QAE_NUSItemPos@@KK@Z ; CPythonNetworkStream::SendItemDropPacketNew
PUBLIC	?SendItemMovePacket@CPythonNetworkStream@@QAE_NUSItemPos@@0E@Z ; CPythonNetworkStream::SendItemMovePacket
PUBLIC	?SendItemPickUpPacket@CPythonNetworkStream@@QAE_NK@Z ; CPythonNetworkStream::SendItemPickUpPacket
PUBLIC	?SendShopEndPacket@CPythonNetworkStream@@QAE_NXZ ; CPythonNetworkStream::SendShopEndPacket
PUBLIC	?SendShopBuyPacket@CPythonNetworkStream@@QAE_NE@Z ; CPythonNetworkStream::SendShopBuyPacket
PUBLIC	?SendShopSellPacket@CPythonNetworkStream@@QAE_NE@Z ; CPythonNetworkStream::SendShopSellPacket
PUBLIC	?SendShopSellPacketNew@CPythonNetworkStream@@QAE_NEE@Z ; CPythonNetworkStream::SendShopSellPacketNew
PUBLIC	?SendSafeBoxMoneyPacket@CPythonNetworkStream@@QAE_NEK@Z ; CPythonNetworkStream::SendSafeBoxMoneyPacket
PUBLIC	?SendSafeBoxCheckinPacket@CPythonNetworkStream@@QAE_NUSItemPos@@E@Z ; CPythonNetworkStream::SendSafeBoxCheckinPacket
PUBLIC	?SendSafeBoxCheckoutPacket@CPythonNetworkStream@@QAE_NEUSItemPos@@@Z ; CPythonNetworkStream::SendSafeBoxCheckoutPacket
PUBLIC	?SendSafeBoxItemMovePacket@CPythonNetworkStream@@QAE_NEEE@Z ; CPythonNetworkStream::SendSafeBoxItemMovePacket
PUBLIC	?SendMallCheckoutPacket@CPythonNetworkStream@@QAE_NEUSItemPos@@@Z ; CPythonNetworkStream::SendMallCheckoutPacket
; Function compile flags: /Ogtp
; File d:\metin2\metin2\client_source_clean\client_source_clean\source\userinterface\pythonnetworkstreamphasegameitem.cpp
;	COMDAT ?SendMallCheckoutPacket@CPythonNetworkStream@@QAE_NEUSItemPos@@@Z
_TEXT	SEGMENT
_kMallCheckoutPacket$ = -8				; size = 5
_byMallPos$ = 8						; size = 1
_InventoryPos$ = 12					; size = 3
?SendMallCheckoutPacket@CPythonNetworkStream@@QAE_NEUSItemPos@@@Z PROC ; CPythonNetworkStream::SendMallCheckoutPacket, COMDAT
; _this$ = ecx

; 150  : {

  00000	55		 push	 ebp
  00001	8b ec		 mov	 ebp, esp
  00003	83 ec 08	 sub	 esp, 8
  00006	53		 push	 ebx

; 151  : 	__PlayMallItemDropSound(byMallPos);

  00007	8a 5d 08	 mov	 bl, BYTE PTR _byMallPos$[ebp]
  0000a	56		 push	 esi
  0000b	0f b6 c3	 movzx	 eax, bl
  0000e	8b f1		 mov	 esi, ecx
  00010	50		 push	 eax
  00011	e8 00 00 00 00	 call	 ?__PlayMallItemDropSound@CPythonNetworkStream@@IAEXI@Z ; CPythonNetworkStream::__PlayMallItemDropSound

; 152  : 
; 153  : 	TPacketCGMallCheckout kMallCheckoutPacket;
; 154  : 	kMallCheckoutPacket.bHeader = HEADER_CG_MALL_CHECKOUT;
; 155  : 	kMallCheckoutPacket.bMallPos = byMallPos;
; 156  : 	kMallCheckoutPacket.ItemPos = InventoryPos;

  00016	8b 45 0c	 mov	 eax, DWORD PTR _InventoryPos$[ebp]

; 157  : 	if (!Send(sizeof(kMallCheckoutPacket), &kMallCheckoutPacket))

  00019	8b ce		 mov	 ecx, esi
  0001b	66 89 45 fa	 mov	 WORD PTR _kMallCheckoutPacket$[ebp+2], ax
  0001f	8b 45 0e	 mov	 eax, DWORD PTR _InventoryPos$[ebp+2]
  00022	88 45 fc	 mov	 BYTE PTR _kMallCheckoutPacket$[ebp+4], al
  00025	8d 45 f8	 lea	 eax, DWORD PTR _kMallCheckoutPacket$[ebp]
  00028	50		 push	 eax
  00029	6a 05		 push	 5
  0002b	c6 45 f8 45	 mov	 BYTE PTR _kMallCheckoutPacket$[ebp], 69 ; 00000045H
  0002f	88 5d f9	 mov	 BYTE PTR _kMallCheckoutPacket$[ebp+1], bl
  00032	e8 00 00 00 00	 call	 ?Send@CNetworkStream@@QAE_NHPBX@Z ; CNetworkStream::Send
  00037	84 c0		 test	 al, al
  00039	75 08		 jne	 SHORT $LN1@SendMallCh
  0003b	5e		 pop	 esi
  0003c	5b		 pop	 ebx

; 161  : }

  0003d	8b e5		 mov	 esp, ebp
  0003f	5d		 pop	 ebp
  00040	c2 08 00	 ret	 8
$LN1@SendMallCh:

; 158  : 		return false;
; 159  : 
; 160  : 	return SendSequence();

  00043	8b ce		 mov	 ecx, esi
  00045	e8 00 00 00 00	 call	 ?SendSequence@CNetworkStream@@QAE_NXZ ; CNetworkStream::SendSequence
  0004a	5e		 pop	 esi
  0004b	5b		 pop	 ebx

; 161  : }

  0004c	8b e5		 mov	 esp, ebp
  0004e	5d		 pop	 ebp
  0004f	c2 08 00	 ret	 8
?SendMallCheckoutPacket@CPythonNetworkStream@@QAE_NEUSItemPos@@@Z ENDP ; CPythonNetworkStream::SendMallCheckoutPacket
_TEXT	ENDS
; Function compile flags: /Ogtp
; File d:\metin2\metin2\client_source_clean\client_source_clean\source\userinterface\pythonnetworkstreamphasegameitem.cpp
; File d:\metin2\metin2\client_source_clean\client_source_clean\source\userinterface\gametype.h
; File d:\metin2\metin2\client_source_clean\client_source_clean\source\userinterface\pythonnetworkstreamphasegameitem.cpp
; File d:\metin2\metin2\client_source_clean\client_source_clean\source\userinterface\gametype.h
; File d:\metin2\metin2\client_source_clean\client_source_clean\source\userinterface\pythonnetworkstreamphasegameitem.cpp
;	COMDAT ?SendSafeBoxItemMovePacket@CPythonNetworkStream@@QAE_NEEE@Z
_TEXT	SEGMENT
_kItemMove$ = -8					; size = 8
_bySourcePos$ = 8					; size = 1
$T1 = 9							; size = 3
$T2 = 9							; size = 3
_byTargetPos$ = 12					; size = 1
_byCount$ = 16						; size = 1
?SendSafeBoxItemMovePacket@CPythonNetworkStream@@QAE_NEEE@Z PROC ; CPythonNetworkStream::SendSafeBoxItemMovePacket, COMDAT
; _this$ = ecx

; 58   : {

  00000	55		 push	 ebp
  00001	8b ec		 mov	 ebp, esp
  00003	83 ec 08	 sub	 esp, 8

; 59   : 	__PlaySafeBoxItemDropSound(bySourcePos);

  00006	0f b6 45 08	 movzx	 eax, BYTE PTR _bySourcePos$[ebp]
  0000a	53		 push	 ebx
  0000b	56		 push	 esi
  0000c	50		 push	 eax
  0000d	8b f1		 mov	 esi, ecx
  0000f	e8 00 00 00 00	 call	 ?__PlaySafeBoxItemDropSound@CPythonNetworkStream@@IAEXI@Z ; CPythonNetworkStream::__PlaySafeBoxItemDropSound

; 63   : 	kItemMove.pos = TItemPos(INVENTORY, bySourcePos);

  00014	0f b6 45 08	 movzx	 eax, BYTE PTR _bySourcePos$[ebp]

; 66   : 	if (!Send(sizeof(kItemMove), &kItemMove))

  00018	8b ce		 mov	 ecx, esi
; File d:\metin2\metin2\client_source_clean\client_source_clean\source\userinterface\gametype.h

; 192  :         cell = _cell;

  0001a	66 89 45 0a	 mov	 WORD PTR $T2[ebp+1], ax
  0001e	c6 45 09 01	 mov	 BYTE PTR $T2[ebp], 1
; File d:\metin2\metin2\client_source_clean\client_source_clean\source\userinterface\pythonnetworkstreamphasegameitem.cpp

; 63   : 	kItemMove.pos = TItemPos(INVENTORY, bySourcePos);

  00022	0f b7 45 09	 movzx	 eax, WORD PTR $T2[ebp]
  00026	66 89 45 f9	 mov	 WORD PTR _kItemMove$[ebp+1], ax
  0002a	8a 45 0b	 mov	 al, BYTE PTR $T2[ebp+2]
  0002d	88 45 fb	 mov	 BYTE PTR _kItemMove$[ebp+3], al

; 64   : 	kItemMove.num = byCount;

  00030	8b 45 10	 mov	 eax, DWORD PTR _byCount$[ebp]
  00033	88 45 ff	 mov	 BYTE PTR _kItemMove$[ebp+7], al

; 65   : 	kItemMove.change_pos = TItemPos(INVENTORY, byTargetPos);

  00036	8b 45 0c	 mov	 eax, DWORD PTR _byTargetPos$[ebp]
  00039	0f b6 c0	 movzx	 eax, al
; File d:\metin2\metin2\client_source_clean\client_source_clean\source\userinterface\gametype.h

; 192  :         cell = _cell;

  0003c	66 89 45 0a	 mov	 WORD PTR $T1[ebp+1], ax
  00040	c6 45 09 01	 mov	 BYTE PTR $T1[ebp], 1
; File d:\metin2\metin2\client_source_clean\client_source_clean\source\userinterface\pythonnetworkstreamphasegameitem.cpp

; 65   : 	kItemMove.change_pos = TItemPos(INVENTORY, byTargetPos);

  00044	0f b7 45 09	 movzx	 eax, WORD PTR $T1[ebp]
  00048	66 89 45 fc	 mov	 WORD PTR _kItemMove$[ebp+4], ax
  0004c	8a 45 0b	 mov	 al, BYTE PTR $T1[ebp+2]
  0004f	88 45 fe	 mov	 BYTE PTR _kItemMove$[ebp+6], al

; 66   : 	if (!Send(sizeof(kItemMove), &kItemMove))

  00052	8d 45 f8	 lea	 eax, DWORD PTR _kItemMove$[ebp]
  00055	50		 push	 eax
  00056	6a 08		 push	 8
  00058	c6 45 f8 4d	 mov	 BYTE PTR _kItemMove$[ebp], 77 ; 0000004dH
  0005c	e8 00 00 00 00	 call	 ?Send@CNetworkStream@@QAE_NHPBX@Z ; CNetworkStream::Send
  00061	84 c0		 test	 al, al
  00063	75 08		 jne	 SHORT $LN1@SendSafeBo
  00065	5e		 pop	 esi
  00066	5b		 pop	 ebx

; 70   : }

  00067	8b e5		 mov	 esp, ebp
  00069	5d		 pop	 ebp
  0006a	c2 0c 00	 ret	 12			; 0000000cH
$LN1@SendSafeBo:

; 67   : 		return false;
; 68   : 
; 69   : 	return SendSequence();

  0006d	8b ce		 mov	 ecx, esi
  0006f	e8 00 00 00 00	 call	 ?SendSequence@CNetworkStream@@QAE_NXZ ; CNetworkStream::SendSequence
  00074	5e		 pop	 esi
  00075	5b		 pop	 ebx

; 70   : }

  00076	8b e5		 mov	 esp, ebp
  00078	5d		 pop	 ebp
  00079	c2 0c 00	 ret	 12			; 0000000cH
?SendSafeBoxItemMovePacket@CPythonNetworkStream@@QAE_NEEE@Z ENDP ; CPythonNetworkStream::SendSafeBoxItemMovePacket
_TEXT	ENDS
; Function compile flags: /Ogtp
; File d:\metin2\metin2\client_source_clean\client_source_clean\source\userinterface\pythonnetworkstreamphasegameitem.cpp
;	COMDAT ?SendSafeBoxCheckoutPacket@CPythonNetworkStream@@QAE_NEUSItemPos@@@Z
_TEXT	SEGMENT
_kSafeboxCheckout$ = -8					; size = 5
_bySafeBoxPos$ = 8					; size = 1
_InventoryPos$ = 12					; size = 3
?SendSafeBoxCheckoutPacket@CPythonNetworkStream@@QAE_NEUSItemPos@@@Z PROC ; CPythonNetworkStream::SendSafeBoxCheckoutPacket, COMDAT
; _this$ = ecx

; 44   : {

  00000	55		 push	 ebp
  00001	8b ec		 mov	 ebp, esp
  00003	83 ec 08	 sub	 esp, 8
  00006	53		 push	 ebx

; 45   : 	__PlaySafeBoxItemDropSound(bySafeBoxPos);

  00007	8a 5d 08	 mov	 bl, BYTE PTR _bySafeBoxPos$[ebp]
  0000a	56		 push	 esi
  0000b	0f b6 c3	 movzx	 eax, bl
  0000e	8b f1		 mov	 esi, ecx
  00010	50		 push	 eax
  00011	e8 00 00 00 00	 call	 ?__PlaySafeBoxItemDropSound@CPythonNetworkStream@@IAEXI@Z ; CPythonNetworkStream::__PlaySafeBoxItemDropSound

; 46   : 
; 47   : 	TPacketCGSafeboxCheckout kSafeboxCheckout;
; 48   : 	kSafeboxCheckout.bHeader = HEADER_CG_SAFEBOX_CHECKOUT;
; 49   : 	kSafeboxCheckout.bSafePos = bySafeBoxPos;
; 50   : 	kSafeboxCheckout.ItemPos = InventoryPos;

  00016	8b 45 0c	 mov	 eax, DWORD PTR _InventoryPos$[ebp]

; 51   : 	if (!Send(sizeof(kSafeboxCheckout), &kSafeboxCheckout))

  00019	8b ce		 mov	 ecx, esi
  0001b	66 89 45 fa	 mov	 WORD PTR _kSafeboxCheckout$[ebp+2], ax
  0001f	8b 45 0e	 mov	 eax, DWORD PTR _InventoryPos$[ebp+2]
  00022	88 45 fc	 mov	 BYTE PTR _kSafeboxCheckout$[ebp+4], al
  00025	8d 45 f8	 lea	 eax, DWORD PTR _kSafeboxCheckout$[ebp]
  00028	50		 push	 eax
  00029	6a 05		 push	 5
  0002b	c6 45 f8 47	 mov	 BYTE PTR _kSafeboxCheckout$[ebp], 71 ; 00000047H
  0002f	88 5d f9	 mov	 BYTE PTR _kSafeboxCheckout$[ebp+1], bl
  00032	e8 00 00 00 00	 call	 ?Send@CNetworkStream@@QAE_NHPBX@Z ; CNetworkStream::Send
  00037	84 c0		 test	 al, al
  00039	75 08		 jne	 SHORT $LN1@SendSafeBo
  0003b	5e		 pop	 esi
  0003c	5b		 pop	 ebx

; 55   : }

  0003d	8b e5		 mov	 esp, ebp
  0003f	5d		 pop	 ebp
  00040	c2 08 00	 ret	 8
$LN1@SendSafeBo:

; 52   : 		return false;
; 53   : 
; 54   : 	return SendSequence();

  00043	8b ce		 mov	 ecx, esi
  00045	e8 00 00 00 00	 call	 ?SendSequence@CNetworkStream@@QAE_NXZ ; CNetworkStream::SendSequence
  0004a	5e		 pop	 esi
  0004b	5b		 pop	 ebx

; 55   : }

  0004c	8b e5		 mov	 esp, ebp
  0004e	5d		 pop	 ebp
  0004f	c2 08 00	 ret	 8
?SendSafeBoxCheckoutPacket@CPythonNetworkStream@@QAE_NEUSItemPos@@@Z ENDP ; CPythonNetworkStream::SendSafeBoxCheckoutPacket
_TEXT	ENDS
; Function compile flags: /Ogtp
; File d:\metin2\metin2\client_source_clean\client_source_clean\source\userinterface\pythonnetworkstreamphasegameitem.cpp
;	COMDAT ?SendSafeBoxCheckinPacket@CPythonNetworkStream@@QAE_NUSItemPos@@E@Z
_TEXT	SEGMENT
_kSafeboxCheckin$ = -8					; size = 5
_InventoryPos$ = 8					; size = 3
_bySafeBoxPos$ = 12					; size = 1
?SendSafeBoxCheckinPacket@CPythonNetworkStream@@QAE_NUSItemPos@@E@Z PROC ; CPythonNetworkStream::SendSafeBoxCheckinPacket, COMDAT
; _this$ = ecx

; 30   : {

  00000	55		 push	 ebp
  00001	8b ec		 mov	 ebp, esp
  00003	83 ec 08	 sub	 esp, 8

; 31   : 	__PlayInventoryItemDropSound(InventoryPos);

  00006	8b 45 08	 mov	 eax, DWORD PTR _InventoryPos$[ebp]
  00009	56		 push	 esi
  0000a	51		 push	 ecx
  0000b	8b d4		 mov	 edx, esp
  0000d	8b f1		 mov	 esi, ecx
  0000f	66 89 02	 mov	 WORD PTR [edx], ax
  00012	8b 45 0a	 mov	 eax, DWORD PTR _InventoryPos$[ebp+2]
  00015	88 42 02	 mov	 BYTE PTR [edx+2], al
  00018	e8 00 00 00 00	 call	 ?__PlayInventoryItemDropSound@CPythonNetworkStream@@IAEXUSItemPos@@@Z ; CPythonNetworkStream::__PlayInventoryItemDropSound

; 32   : 
; 33   : 	TPacketCGSafeboxCheckin kSafeboxCheckin;
; 34   : 	kSafeboxCheckin.bHeader = HEADER_CG_SAFEBOX_CHECKIN;
; 35   : 	kSafeboxCheckin.ItemPos = InventoryPos;

  0001d	8b 45 08	 mov	 eax, DWORD PTR _InventoryPos$[ebp]

; 36   : 	kSafeboxCheckin.bSafePos = bySafeBoxPos;
; 37   : 	if (!Send(sizeof(kSafeboxCheckin), &kSafeboxCheckin))

  00020	8b ce		 mov	 ecx, esi
  00022	66 89 45 fa	 mov	 WORD PTR _kSafeboxCheckin$[ebp+2], ax
  00026	8b 45 0a	 mov	 eax, DWORD PTR _InventoryPos$[ebp+2]
  00029	88 45 fc	 mov	 BYTE PTR _kSafeboxCheckin$[ebp+4], al
  0002c	8b 45 0c	 mov	 eax, DWORD PTR _bySafeBoxPos$[ebp]
  0002f	88 45 f9	 mov	 BYTE PTR _kSafeboxCheckin$[ebp+1], al
  00032	8d 45 f8	 lea	 eax, DWORD PTR _kSafeboxCheckin$[ebp]
  00035	50		 push	 eax
  00036	6a 05		 push	 5
  00038	c6 45 f8 46	 mov	 BYTE PTR _kSafeboxCheckin$[ebp], 70 ; 00000046H
  0003c	e8 00 00 00 00	 call	 ?Send@CNetworkStream@@QAE_NHPBX@Z ; CNetworkStream::Send
  00041	84 c0		 test	 al, al
  00043	75 07		 jne	 SHORT $LN1@SendSafeBo

; 41   : }

  00045	5e		 pop	 esi
  00046	8b e5		 mov	 esp, ebp
  00048	5d		 pop	 ebp
  00049	c2 08 00	 ret	 8
$LN1@SendSafeBo:

; 38   : 		return false;
; 39   : 
; 40   : 	return SendSequence();

  0004c	8b ce		 mov	 ecx, esi
  0004e	e8 00 00 00 00	 call	 ?SendSequence@CNetworkStream@@QAE_NXZ ; CNetworkStream::SendSequence

; 41   : }

  00053	5e		 pop	 esi
  00054	8b e5		 mov	 esp, ebp
  00056	5d		 pop	 ebp
  00057	c2 08 00	 ret	 8
?SendSafeBoxCheckinPacket@CPythonNetworkStream@@QAE_NUSItemPos@@E@Z ENDP ; CPythonNetworkStream::SendSafeBoxCheckinPacket
_TEXT	ENDS
; Function compile flags: /Ogtp
; File d:\metin2\metin2\client_source_clean\client_source_clean\source\userinterface\pythonnetworkstreamphasegameitem.cpp
;	COMDAT ?SendSafeBoxMoneyPacket@CPythonNetworkStream@@QAE_NEK@Z
_TEXT	SEGMENT
_byState$dead$ = 8					; size = 1
_dwMoney$dead$ = 12					; size = 4
?SendSafeBoxMoneyPacket@CPythonNetworkStream@@QAE_NEK@Z PROC ; CPythonNetworkStream::SendSafeBoxMoneyPacket, COMDAT
; _this$dead$ = ecx

; 16   : 	assert(!"CPythonNetworkStream::SendSafeBoxMoneyPacket - 사용하지 않는 함수");
; 17   : 	return false;

  00000	32 c0		 xor	 al, al

; 18   : 
; 19   : //	TPacketCGSafeboxMoney kSafeboxMoney;
; 20   : //	kSafeboxMoney.bHeader = HEADER_CG_SAFEBOX_MONEY;
; 21   : //	kSafeboxMoney.bState = byState;
; 22   : //	kSafeboxMoney.dwMoney = dwMoney;
; 23   : //	if (!Send(sizeof(kSafeboxMoney), &kSafeboxMoney))
; 24   : //		return false;
; 25   : //
; 26   : //	return SendSequence();
; 27   : }

  00002	c2 08 00	 ret	 8
?SendSafeBoxMoneyPacket@CPythonNetworkStream@@QAE_NEK@Z ENDP ; CPythonNetworkStream::SendSafeBoxMoneyPacket
_TEXT	ENDS
; Function compile flags: /Ogtp
; File d:\metin2\metin2\client_source_clean\client_source_clean\source\userinterface\pythonnetworkstreamphasegameitem.cpp
;	COMDAT ?SendShopSellPacketNew@CPythonNetworkStream@@QAE_NEE@Z
_TEXT	SEGMENT
_PacketShop$ = -4					; size = 2
_bySlot$ = 8						; size = 1
_byCount$ = 12						; size = 1
?SendShopSellPacketNew@CPythonNetworkStream@@QAE_NEE@Z PROC ; CPythonNetworkStream::SendShopSellPacketNew, COMDAT
; _this$ = ecx

; 456  : {

  00000	55		 push	 ebp
  00001	8b ec		 mov	 ebp, esp
  00003	51		 push	 ecx
  00004	56		 push	 esi
  00005	8b f1		 mov	 esi, ecx

; 457  : 	if (!__CanActMainInstance())

  00007	e8 00 00 00 00	 call	 ?__CanActMainInstance@CPythonNetworkStream@@IAE_NXZ ; CPythonNetworkStream::__CanActMainInstance
  0000c	84 c0		 test	 al, al
  0000e	75 09		 jne	 SHORT $LN4@SendShopSe

; 458  : 		return true;

  00010	b0 01		 mov	 al, 1
  00012	5e		 pop	 esi

; 483  : }

  00013	8b e5		 mov	 esp, ebp
  00015	5d		 pop	 ebp
  00016	c2 08 00	 ret	 8
$LN4@SendShopSe:

; 459  : 
; 460  : 	TPacketCGShop PacketShop;
; 461  : 	PacketShop.header = HEADER_CG_SHOP;
; 462  : 	PacketShop.subheader = SHOP_SUBHEADER_CG_SELL2;
; 463  : 
; 464  : 	if (!Send(sizeof(TPacketCGShop), &PacketShop))

  00019	8d 45 fc	 lea	 eax, DWORD PTR _PacketShop$[ebp]
  0001c	66 c7 45 fc 32
	03		 mov	 WORD PTR _PacketShop$[ebp], 818 ; 00000332H
  00022	50		 push	 eax
  00023	6a 02		 push	 2
  00025	8b ce		 mov	 ecx, esi
  00027	e8 00 00 00 00	 call	 ?Send@CNetworkStream@@QAE_NHPBX@Z ; CNetworkStream::Send
  0002c	84 c0		 test	 al, al
  0002e	75 16		 jne	 SHORT $LN3@SendShopSe

; 465  : 	{
; 466  : 		Tracef("SendShopSellPacket Error\n");

  00030	68 00 00 00 00	 push	 OFFSET ??_C@_0BK@NFAAJDME@SendShopSellPacket?5Error?6?$AA@
  00035	e8 00 00 00 00	 call	 ?Tracef@@YAXPBDZZ	; Tracef
  0003a	83 c4 04	 add	 esp, 4

; 467  : 		return false;

  0003d	32 c0		 xor	 al, al
  0003f	5e		 pop	 esi

; 483  : }

  00040	8b e5		 mov	 esp, ebp
  00042	5d		 pop	 ebp
  00043	c2 08 00	 ret	 8
$LN3@SendShopSe:

; 468  : 	}
; 469  : 	if (!Send(sizeof(BYTE), &bySlot))

  00046	8d 45 08	 lea	 eax, DWORD PTR _bySlot$[ebp]
  00049	8b ce		 mov	 ecx, esi
  0004b	50		 push	 eax
  0004c	6a 01		 push	 1
  0004e	e8 00 00 00 00	 call	 ?Send@CNetworkStream@@QAE_NHPBX@Z ; CNetworkStream::Send
  00053	84 c0		 test	 al, al
  00055	75 16		 jne	 SHORT $LN2@SendShopSe
$LN7@SendShopSe:

; 470  : 	{
; 471  : 		Tracef("SendShopAddSellPacket Error\n");

  00057	68 00 00 00 00	 push	 OFFSET ??_C@_0BN@PEGCCLIG@SendShopAddSellPacket?5Error?6?$AA@
  0005c	e8 00 00 00 00	 call	 ?Tracef@@YAXPBDZZ	; Tracef
  00061	83 c4 04	 add	 esp, 4

; 472  : 		return false;

  00064	32 c0		 xor	 al, al
  00066	5e		 pop	 esi

; 483  : }

  00067	8b e5		 mov	 esp, ebp
  00069	5d		 pop	 ebp
  0006a	c2 08 00	 ret	 8
$LN2@SendShopSe:

; 473  : 	}
; 474  : 	if (!Send(sizeof(BYTE), &byCount))

  0006d	8d 45 0c	 lea	 eax, DWORD PTR _byCount$[ebp]
  00070	8b ce		 mov	 ecx, esi
  00072	50		 push	 eax
  00073	6a 01		 push	 1
  00075	e8 00 00 00 00	 call	 ?Send@CNetworkStream@@QAE_NHPBX@Z ; CNetworkStream::Send
  0007a	84 c0		 test	 al, al
  0007c	74 d9		 je	 SHORT $LN7@SendShopSe

; 475  : 	{
; 476  : 		Tracef("SendShopAddSellPacket Error\n");
; 477  : 		return false;
; 478  : 	}
; 479  : 
; 480  : 	Tracef(" SendShopSellPacketNew(bySlot=%d, byCount=%d)\n", bySlot, byCount);

  0007e	8b 45 0c	 mov	 eax, DWORD PTR _byCount$[ebp]
  00081	0f b6 c0	 movzx	 eax, al
  00084	50		 push	 eax
  00085	8b 45 08	 mov	 eax, DWORD PTR _bySlot$[ebp]
  00088	0f b6 c0	 movzx	 eax, al
  0008b	50		 push	 eax
  0008c	68 00 00 00 00	 push	 OFFSET ??_C@_0CP@FAIPFIGP@?5SendShopSellPacketNew?$CIbySlot?$DN?$CFd@
  00091	e8 00 00 00 00	 call	 ?Tracef@@YAXPBDZZ	; Tracef
  00096	83 c4 0c	 add	 esp, 12			; 0000000cH

; 481  : 
; 482  : 	return SendSequence();

  00099	8b ce		 mov	 ecx, esi
  0009b	e8 00 00 00 00	 call	 ?SendSequence@CNetworkStream@@QAE_NXZ ; CNetworkStream::SendSequence
  000a0	5e		 pop	 esi

; 483  : }

  000a1	8b e5		 mov	 esp, ebp
  000a3	5d		 pop	 ebp
  000a4	c2 08 00	 ret	 8
?SendShopSellPacketNew@CPythonNetworkStream@@QAE_NEE@Z ENDP ; CPythonNetworkStream::SendShopSellPacketNew
_TEXT	ENDS
; Function compile flags: /Ogtp
; File d:\metin2\metin2\client_source_clean\client_source_clean\source\userinterface\pythonnetworkstreamphasegameitem.cpp
;	COMDAT ?SendShopSellPacket@CPythonNetworkStream@@QAE_NE@Z
_TEXT	SEGMENT
_PacketShop$ = -4					; size = 2
_bySlot$ = 8						; size = 1
?SendShopSellPacket@CPythonNetworkStream@@QAE_NE@Z PROC	; CPythonNetworkStream::SendShopSellPacket, COMDAT
; _this$ = ecx

; 433  : {

  00000	55		 push	 ebp
  00001	8b ec		 mov	 ebp, esp
  00003	51		 push	 ecx
  00004	56		 push	 esi
  00005	8b f1		 mov	 esi, ecx

; 434  : 	if (!__CanActMainInstance())

  00007	e8 00 00 00 00	 call	 ?__CanActMainInstance@CPythonNetworkStream@@IAE_NXZ ; CPythonNetworkStream::__CanActMainInstance
  0000c	84 c0		 test	 al, al
  0000e	75 09		 jne	 SHORT $LN3@SendShopSe

; 435  : 		return true;

  00010	b0 01		 mov	 al, 1
  00012	5e		 pop	 esi

; 453  : }

  00013	8b e5		 mov	 esp, ebp
  00015	5d		 pop	 ebp
  00016	c2 04 00	 ret	 4
$LN3@SendShopSe:

; 436  : 
; 437  : 	TPacketCGShop PacketShop;
; 438  : 	PacketShop.header = HEADER_CG_SHOP;
; 439  : 	PacketShop.subheader = SHOP_SUBHEADER_CG_SELL;
; 440  : 
; 441  : 	if (!Send(sizeof(TPacketCGShop), &PacketShop))

  00019	8d 45 fc	 lea	 eax, DWORD PTR _PacketShop$[ebp]
  0001c	66 c7 45 fc 32
	02		 mov	 WORD PTR _PacketShop$[ebp], 562 ; 00000232H
  00022	50		 push	 eax
  00023	6a 02		 push	 2
  00025	8b ce		 mov	 ecx, esi
  00027	e8 00 00 00 00	 call	 ?Send@CNetworkStream@@QAE_NHPBX@Z ; CNetworkStream::Send
  0002c	84 c0		 test	 al, al
  0002e	75 16		 jne	 SHORT $LN2@SendShopSe

; 442  : 	{
; 443  : 		Tracef("SendShopSellPacket Error\n");

  00030	68 00 00 00 00	 push	 OFFSET ??_C@_0BK@NFAAJDME@SendShopSellPacket?5Error?6?$AA@
  00035	e8 00 00 00 00	 call	 ?Tracef@@YAXPBDZZ	; Tracef
  0003a	83 c4 04	 add	 esp, 4

; 444  : 		return false;

  0003d	32 c0		 xor	 al, al
  0003f	5e		 pop	 esi

; 453  : }

  00040	8b e5		 mov	 esp, ebp
  00042	5d		 pop	 ebp
  00043	c2 04 00	 ret	 4
$LN2@SendShopSe:

; 445  : 	}
; 446  : 	if (!Send(sizeof(BYTE), &bySlot))

  00046	8d 45 08	 lea	 eax, DWORD PTR _bySlot$[ebp]
  00049	8b ce		 mov	 ecx, esi
  0004b	50		 push	 eax
  0004c	6a 01		 push	 1
  0004e	e8 00 00 00 00	 call	 ?Send@CNetworkStream@@QAE_NHPBX@Z ; CNetworkStream::Send
  00053	84 c0		 test	 al, al
  00055	75 16		 jne	 SHORT $LN1@SendShopSe

; 447  : 	{
; 448  : 		Tracef("SendShopAddSellPacket Error\n");

  00057	68 00 00 00 00	 push	 OFFSET ??_C@_0BN@PEGCCLIG@SendShopAddSellPacket?5Error?6?$AA@
  0005c	e8 00 00 00 00	 call	 ?Tracef@@YAXPBDZZ	; Tracef
  00061	83 c4 04	 add	 esp, 4

; 449  : 		return false;

  00064	32 c0		 xor	 al, al
  00066	5e		 pop	 esi

; 453  : }

  00067	8b e5		 mov	 esp, ebp
  00069	5d		 pop	 ebp
  0006a	c2 04 00	 ret	 4
$LN1@SendShopSe:

; 450  : 	}
; 451  : 
; 452  : 	return SendSequence();

  0006d	8b ce		 mov	 ecx, esi
  0006f	e8 00 00 00 00	 call	 ?SendSequence@CNetworkStream@@QAE_NXZ ; CNetworkStream::SendSequence
  00074	5e		 pop	 esi

; 453  : }

  00075	8b e5		 mov	 esp, ebp
  00077	5d		 pop	 ebp
  00078	c2 04 00	 ret	 4
?SendShopSellPacket@CPythonNetworkStream@@QAE_NE@Z ENDP	; CPythonNetworkStream::SendShopSellPacket
_TEXT	ENDS
; Function compile flags: /Ogtp
; File d:\metin2\metin2\client_source_clean\client_source_clean\source\userinterface\pythonnetworkstreamphasegameitem.cpp
;	COMDAT ?SendShopBuyPacket@CPythonNetworkStream@@QAE_NE@Z
_TEXT	SEGMENT
_PacketShop$ = -8					; size = 2
_bCount$ = -1						; size = 1
_bPos$ = 8						; size = 1
?SendShopBuyPacket@CPythonNetworkStream@@QAE_NE@Z PROC	; CPythonNetworkStream::SendShopBuyPacket, COMDAT
; _this$ = ecx

; 402  : {

  00000	55		 push	 ebp
  00001	8b ec		 mov	 ebp, esp
  00003	83 ec 08	 sub	 esp, 8
  00006	56		 push	 esi
  00007	8b f1		 mov	 esi, ecx

; 403  : 	if (!__CanActMainInstance())

  00009	e8 00 00 00 00	 call	 ?__CanActMainInstance@CPythonNetworkStream@@IAE_NXZ ; CPythonNetworkStream::__CanActMainInstance
  0000e	84 c0		 test	 al, al
  00010	75 09		 jne	 SHORT $LN4@SendShopBu

; 404  : 		return true;

  00012	b0 01		 mov	 al, 1
  00014	5e		 pop	 esi

; 430  : }

  00015	8b e5		 mov	 esp, ebp
  00017	5d		 pop	 ebp
  00018	c2 04 00	 ret	 4
$LN4@SendShopBu:

; 405  : 	
; 406  : 	TPacketCGShop PacketShop;
; 407  : 	PacketShop.header = HEADER_CG_SHOP;
; 408  : 	PacketShop.subheader = SHOP_SUBHEADER_CG_BUY;
; 409  : 
; 410  : 	if (!Send(sizeof(TPacketCGShop), &PacketShop))

  0001b	8d 45 f8	 lea	 eax, DWORD PTR _PacketShop$[ebp]
  0001e	66 c7 45 f8 32
	01		 mov	 WORD PTR _PacketShop$[ebp], 306 ; 00000132H
  00024	50		 push	 eax
  00025	6a 02		 push	 2
  00027	8b ce		 mov	 ecx, esi
  00029	e8 00 00 00 00	 call	 ?Send@CNetworkStream@@QAE_NHPBX@Z ; CNetworkStream::Send
  0002e	84 c0		 test	 al, al
  00030	75 16		 jne	 SHORT $LN3@SendShopBu
$LN7@SendShopBu:

; 411  : 	{
; 412  : 		Tracef("SendShopBuyPacket Error\n");

  00032	68 00 00 00 00	 push	 OFFSET ??_C@_0BJ@GJICJJME@SendShopBuyPacket?5Error?6?$AA@
  00037	e8 00 00 00 00	 call	 ?Tracef@@YAXPBDZZ	; Tracef
  0003c	83 c4 04	 add	 esp, 4

; 413  : 		return false;

  0003f	32 c0		 xor	 al, al
  00041	5e		 pop	 esi

; 430  : }

  00042	8b e5		 mov	 esp, ebp
  00044	5d		 pop	 ebp
  00045	c2 04 00	 ret	 4
$LN3@SendShopBu:

; 414  : 	}
; 415  : 
; 416  : 	BYTE bCount=1;
; 417  : 	if (!Send(sizeof(BYTE), &bCount))

  00048	8d 45 ff	 lea	 eax, DWORD PTR _bCount$[ebp]
  0004b	c6 45 ff 01	 mov	 BYTE PTR _bCount$[ebp], 1
  0004f	50		 push	 eax
  00050	6a 01		 push	 1
  00052	8b ce		 mov	 ecx, esi
  00054	e8 00 00 00 00	 call	 ?Send@CNetworkStream@@QAE_NHPBX@Z ; CNetworkStream::Send
  00059	84 c0		 test	 al, al
  0005b	74 d5		 je	 SHORT $LN7@SendShopBu

; 418  : 	{
; 419  : 		Tracef("SendShopBuyPacket Error\n");
; 420  : 		return false;
; 421  : 	}
; 422  : 
; 423  : 	if (!Send(sizeof(BYTE), &bPos))

  0005d	8d 45 08	 lea	 eax, DWORD PTR _bPos$[ebp]
  00060	8b ce		 mov	 ecx, esi
  00062	50		 push	 eax
  00063	6a 01		 push	 1
  00065	e8 00 00 00 00	 call	 ?Send@CNetworkStream@@QAE_NHPBX@Z ; CNetworkStream::Send
  0006a	84 c0		 test	 al, al
  0006c	74 c4		 je	 SHORT $LN7@SendShopBu

; 424  : 	{
; 425  : 		Tracef("SendShopBuyPacket Error\n");
; 426  : 		return false;
; 427  : 	}
; 428  : 
; 429  : 	return SendSequence();

  0006e	8b ce		 mov	 ecx, esi
  00070	e8 00 00 00 00	 call	 ?SendSequence@CNetworkStream@@QAE_NXZ ; CNetworkStream::SendSequence
  00075	5e		 pop	 esi

; 430  : }

  00076	8b e5		 mov	 esp, ebp
  00078	5d		 pop	 ebp
  00079	c2 04 00	 ret	 4
?SendShopBuyPacket@CPythonNetworkStream@@QAE_NE@Z ENDP	; CPythonNetworkStream::SendShopBuyPacket
_TEXT	ENDS
; Function compile flags: /Ogtp
; File d:\metin2\metin2\client_source_clean\client_source_clean\source\userinterface\pythonnetworkstreamphasegameitem.cpp
;	COMDAT ?SendShopEndPacket@CPythonNetworkStream@@QAE_NXZ
_TEXT	SEGMENT
_packet_shop$ = -4					; size = 2
?SendShopEndPacket@CPythonNetworkStream@@QAE_NXZ PROC	; CPythonNetworkStream::SendShopEndPacket, COMDAT
; _this$ = ecx

; 384  : {

  00000	55		 push	 ebp
  00001	8b ec		 mov	 ebp, esp
  00003	51		 push	 ecx
  00004	56		 push	 esi
  00005	8b f1		 mov	 esi, ecx

; 385  : 	if (!__CanActMainInstance())

  00007	e8 00 00 00 00	 call	 ?__CanActMainInstance@CPythonNetworkStream@@IAE_NXZ ; CPythonNetworkStream::__CanActMainInstance
  0000c	84 c0		 test	 al, al
  0000e	75 07		 jne	 SHORT $LN2@SendShopEn

; 386  : 		return true;

  00010	b0 01		 mov	 al, 1
  00012	5e		 pop	 esi

; 399  : }

  00013	8b e5		 mov	 esp, ebp
  00015	5d		 pop	 ebp
  00016	c3		 ret	 0
$LN2@SendShopEn:

; 387  : 
; 388  : 	TPacketCGShop packet_shop;
; 389  : 	packet_shop.header = HEADER_CG_SHOP;
; 390  : 	packet_shop.subheader = SHOP_SUBHEADER_CG_END;
; 391  : 
; 392  : 	if (!Send(sizeof(packet_shop), &packet_shop))

  00017	8d 45 fc	 lea	 eax, DWORD PTR _packet_shop$[ebp]
  0001a	66 c7 45 fc 32
	00		 mov	 WORD PTR _packet_shop$[ebp], 50 ; 00000032H
  00020	50		 push	 eax
  00021	6a 02		 push	 2
  00023	8b ce		 mov	 ecx, esi
  00025	e8 00 00 00 00	 call	 ?Send@CNetworkStream@@QAE_NHPBX@Z ; CNetworkStream::Send
  0002a	84 c0		 test	 al, al
  0002c	75 14		 jne	 SHORT $LN1@SendShopEn

; 393  : 	{
; 394  : 		Tracef("SendShopEndPacket Error\n");

  0002e	68 00 00 00 00	 push	 OFFSET ??_C@_0BJ@ENIABNOP@SendShopEndPacket?5Error?6?$AA@
  00033	e8 00 00 00 00	 call	 ?Tracef@@YAXPBDZZ	; Tracef
  00038	83 c4 04	 add	 esp, 4

; 395  : 		return false;

  0003b	32 c0		 xor	 al, al
  0003d	5e		 pop	 esi

; 399  : }

  0003e	8b e5		 mov	 esp, ebp
  00040	5d		 pop	 ebp
  00041	c3		 ret	 0
$LN1@SendShopEn:

; 396  : 	}
; 397  : 
; 398  : 	return SendSequence();

  00042	8b ce		 mov	 ecx, esi
  00044	e8 00 00 00 00	 call	 ?SendSequence@CNetworkStream@@QAE_NXZ ; CNetworkStream::SendSequence
  00049	5e		 pop	 esi

; 399  : }

  0004a	8b e5		 mov	 esp, ebp
  0004c	5d		 pop	 ebp
  0004d	c3		 ret	 0
?SendShopEndPacket@CPythonNetworkStream@@QAE_NXZ ENDP	; CPythonNetworkStream::SendShopEndPacket
_TEXT	ENDS
; Function compile flags: /Ogtp
; File d:\metin2\metin2\client_source_clean\client_source_clean\source\userinterface\pythonnetworkstreamphasegameitem.cpp
;	COMDAT ?SendItemPickUpPacket@CPythonNetworkStream@@QAE_NK@Z
_TEXT	SEGMENT
_itemPickUpPacket$ = -8					; size = 5
_vid$ = 8						; size = 4
?SendItemPickUpPacket@CPythonNetworkStream@@QAE_NK@Z PROC ; CPythonNetworkStream::SendItemPickUpPacket, COMDAT
; _this$ = ecx

; 690  : {

  00000	55		 push	 ebp
  00001	8b ec		 mov	 ebp, esp
  00003	83 ec 08	 sub	 esp, 8
  00006	56		 push	 esi
  00007	8b f1		 mov	 esi, ecx

; 691  : 	if (!__CanActMainInstance())

  00009	e8 00 00 00 00	 call	 ?__CanActMainInstance@CPythonNetworkStream@@IAE_NXZ ; CPythonNetworkStream::__CanActMainInstance
  0000e	84 c0		 test	 al, al
  00010	75 09		 jne	 SHORT $LN2@SendItemPi

; 692  : 		return true;

  00012	b0 01		 mov	 al, 1
  00014	5e		 pop	 esi

; 705  : }

  00015	8b e5		 mov	 esp, ebp
  00017	5d		 pop	 ebp
  00018	c2 04 00	 ret	 4
$LN2@SendItemPi:

; 693  : 
; 694  : 	TPacketCGItemPickUp	itemPickUpPacket;
; 695  : 	itemPickUpPacket.header = HEADER_CG_ITEM_PICKUP;
; 696  : 	itemPickUpPacket.vid = vid;

  0001b	8b 45 08	 mov	 eax, DWORD PTR _vid$[ebp]

; 697  : 
; 698  : 	if (!Send(sizeof(TPacketCGItemPickUp), &itemPickUpPacket))

  0001e	8b ce		 mov	 ecx, esi
  00020	89 45 f9	 mov	 DWORD PTR _itemPickUpPacket$[ebp+1], eax
  00023	8d 45 f8	 lea	 eax, DWORD PTR _itemPickUpPacket$[ebp]
  00026	50		 push	 eax
  00027	6a 05		 push	 5
  00029	c6 45 f8 0f	 mov	 BYTE PTR _itemPickUpPacket$[ebp], 15 ; 0000000fH
  0002d	e8 00 00 00 00	 call	 ?Send@CNetworkStream@@QAE_NHPBX@Z ; CNetworkStream::Send
  00032	84 c0		 test	 al, al
  00034	75 16		 jne	 SHORT $LN1@SendItemPi

; 699  : 	{
; 700  : 		Tracen("SendItemPickUpPacket Error");

  00036	68 00 00 00 00	 push	 OFFSET ??_C@_0BL@DCHNPPOD@SendItemPickUpPacket?5Error?$AA@
  0003b	e8 00 00 00 00	 call	 ?Tracen@@YAXPBD@Z	; Tracen
  00040	83 c4 04	 add	 esp, 4

; 701  : 		return false;

  00043	32 c0		 xor	 al, al
  00045	5e		 pop	 esi

; 705  : }

  00046	8b e5		 mov	 esp, ebp
  00048	5d		 pop	 ebp
  00049	c2 04 00	 ret	 4
$LN1@SendItemPi:

; 702  : 	}
; 703  : 
; 704  : 	return SendSequence();

  0004c	8b ce		 mov	 ecx, esi
  0004e	e8 00 00 00 00	 call	 ?SendSequence@CNetworkStream@@QAE_NXZ ; CNetworkStream::SendSequence
  00053	5e		 pop	 esi

; 705  : }

  00054	8b e5		 mov	 esp, ebp
  00056	5d		 pop	 ebp
  00057	c2 04 00	 ret	 4
?SendItemPickUpPacket@CPythonNetworkStream@@QAE_NK@Z ENDP ; CPythonNetworkStream::SendItemPickUpPacket
_TEXT	ENDS
; Function compile flags: /Ogtp
; File d:\metin2\metin2\client_source_clean\client_source_clean\source\userinterface\pythonnetworkstreamphasegameitem.cpp
;	COMDAT ?SendItemMovePacket@CPythonNetworkStream@@QAE_NUSItemPos@@0E@Z
_TEXT	SEGMENT
_itemMovePacket$ = -8					; size = 8
_pos$ = 8						; size = 3
_change_pos$ = 12					; size = 3
_num$ = 16						; size = 1
?SendItemMovePacket@CPythonNetworkStream@@QAE_NUSItemPos@@0E@Z PROC ; CPythonNetworkStream::SendItemMovePacket, COMDAT
; _this$ = ecx

; 644  : {	

  00000	55		 push	 ebp
  00001	8b ec		 mov	 ebp, esp
  00003	83 ec 08	 sub	 esp, 8
  00006	53		 push	 ebx
  00007	56		 push	 esi
  00008	57		 push	 edi
  00009	8b f9		 mov	 edi, ecx

; 645  : 	if (!__CanActMainInstance())

  0000b	e8 00 00 00 00	 call	 ?__CanActMainInstance@CPythonNetworkStream@@IAE_NXZ ; CPythonNetworkStream::__CanActMainInstance
  00010	84 c0		 test	 al, al
  00012	74 67		 je	 SHORT $LN23@SendItemMo

; 646  : 		return true;
; 647  : 	
; 648  : 	if (__IsEquipItemInSlot(pos))

  00014	8b 45 08	 mov	 eax, DWORD PTR _pos$[ebp]
  00017	51		 push	 ecx
  00018	8b cc		 mov	 ecx, esp
  0001a	66 89 01	 mov	 WORD PTR [ecx], ax
  0001d	8b 45 0a	 mov	 eax, DWORD PTR _pos$[ebp+2]
  00020	88 41 02	 mov	 BYTE PTR [ecx+2], al
  00023	e8 00 00 00 00	 call	 ?__IsEquipItemInSlot@CPythonNetworkStream@@IAE_NUSItemPos@@@Z ; CPythonNetworkStream::__IsEquipItemInSlot
  00028	84 c0		 test	 al, al
  0002a	0f 84 8d 00 00
	00		 je	 $LN2@SendItemMo

; 649  : 	{
; 650  : 		if (CPythonExchange::Instance().isTrading())

  00030	8b 0d 00 00 00
	00		 mov	 ecx, DWORD PTR ?ms_singleton@?$CSingleton@VCPythonExchange@@@@0PAVCPythonExchange@@A ; CSingleton<CPythonExchange>::ms_singleton
  00036	e8 00 00 00 00	 call	 ?isTrading@CPythonExchange@@QAE_NXZ ; CPythonExchange::isTrading
  0003b	84 c0		 test	 al, al
  0003d	74 47		 je	 SHORT $LN7@SendItemMo

; 651  : 		{
; 652  : 			if (pos.IsEquipCell() || change_pos.IsEquipCell())

  0003f	8d 4d 08	 lea	 ecx, DWORD PTR _pos$[ebp]
  00042	e8 00 00 00 00	 call	 ?IsEquipCell@SItemPos@@QAE_NXZ ; SItemPos::IsEquipCell
  00047	84 c0		 test	 al, al
  00049	75 0c		 jne	 SHORT $LN6@SendItemMo
  0004b	8d 4d 0c	 lea	 ecx, DWORD PTR _change_pos$[ebp]
  0004e	e8 00 00 00 00	 call	 ?IsEquipCell@SItemPos@@QAE_NXZ ; SItemPos::IsEquipCell
  00053	84 c0		 test	 al, al
  00055	74 2f		 je	 SHORT $LN7@SendItemMo
$LN6@SendItemMo:

; 653  : 			{
; 654  : 				PyCallClassMemberFunc(m_apoPhaseWnd[PHASE_WINDOW_GAME], "BINARY_AppendNotifyMessage", Py_BuildValue("(s)", "CANNOT_EQUIP_EXCHANGE"));

  00057	68 00 00 00 00	 push	 OFFSET ??_C@_0BG@KBOLGOPL@CANNOT_EQUIP_EXCHANGE?$AA@
$LN24@SendItemMo:
  0005c	68 00 00 00 00	 push	 OFFSET ??_C@_03KJMMOONA@?$CIs?$CJ?$AA@
  00061	ff 15 00 00 00
	00		 call	 DWORD PTR __imp__Py_BuildValue
  00067	50		 push	 eax
  00068	68 00 00 00 00	 push	 OFFSET ??_C@_0BL@HGBMODPD@BINARY_AppendNotifyMessage?$AA@
  0006d	ff b7 90 01 00
	00		 push	 DWORD PTR [edi+400]
  00073	e8 00 00 00 00	 call	 ?PyCallClassMemberFunc@@YA_NPAU_object@@PBD0@Z ; PyCallClassMemberFunc
  00078	83 c4 14	 add	 esp, 20			; 00000014H
$LN23@SendItemMo:

; 655  : 				return true;

  0007b	b0 01		 mov	 al, 1

; 687  : }

  0007d	5f		 pop	 edi
  0007e	5e		 pop	 esi
  0007f	5b		 pop	 ebx
  00080	8b e5		 mov	 esp, ebp
  00082	5d		 pop	 ebp
  00083	c2 0c 00	 ret	 12			; 0000000cH
$LN7@SendItemMo:

; 656  : 			}
; 657  : 		}
; 658  : 
; 659  : 		if (CPythonShop::Instance().IsOpen())

  00086	8b 0d 00 00 00
	00		 mov	 ecx, DWORD PTR ?ms_singleton@?$CSingleton@VCPythonShop@@@@0PAVCPythonShop@@A ; CSingleton<CPythonShop>::ms_singleton
  0008c	e8 00 00 00 00	 call	 ?IsOpen@CPythonShop@@QAEHXZ ; CPythonShop::IsOpen
  00091	85 c0		 test	 eax, eax
  00093	74 1f		 je	 SHORT $LN4@SendItemMo

; 660  : 		{
; 661  : 			if (pos.IsEquipCell() || change_pos.IsEquipCell())

  00095	8d 4d 08	 lea	 ecx, DWORD PTR _pos$[ebp]
  00098	e8 00 00 00 00	 call	 ?IsEquipCell@SItemPos@@QAE_NXZ ; SItemPos::IsEquipCell
  0009d	84 c0		 test	 al, al
  0009f	75 0c		 jne	 SHORT $LN3@SendItemMo
  000a1	8d 4d 0c	 lea	 ecx, DWORD PTR _change_pos$[ebp]
  000a4	e8 00 00 00 00	 call	 ?IsEquipCell@SItemPos@@QAE_NXZ ; SItemPos::IsEquipCell
  000a9	84 c0		 test	 al, al
  000ab	74 07		 je	 SHORT $LN4@SendItemMo
$LN3@SendItemMo:

; 662  : 			{
; 663  : 				PyCallClassMemberFunc(m_apoPhaseWnd[PHASE_WINDOW_GAME], "BINARY_AppendNotifyMessage", Py_BuildValue("(s)", "CANNOT_EQUIP_SHOP"));

  000ad	68 00 00 00 00	 push	 OFFSET ??_C@_0BC@GKDHAPBC@CANNOT_EQUIP_SHOP?$AA@

; 664  : 				return true;

  000b2	eb a8		 jmp	 SHORT $LN24@SendItemMo
$LN4@SendItemMo:

; 665  : 			}
; 666  : 		}
; 667  : 
; 668  : 		if (__IsPlayerAttacking())

  000b4	e8 00 00 00 00	 call	 ?__IsPlayerAttacking@CPythonNetworkStream@@IAE_NXZ ; CPythonNetworkStream::__IsPlayerAttacking
  000b9	84 c0		 test	 al, al
  000bb	75 be		 jne	 SHORT $LN23@SendItemMo
$LN2@SendItemMo:

; 669  : 			return true;
; 670  : 	}
; 671  : 
; 672  : 	__PlayInventoryItemDropSound(pos);

  000bd	66 8b 75 08	 mov	 si, WORD PTR _pos$[ebp]
  000c1	8a 5d 0a	 mov	 bl, BYTE PTR _pos$[ebp+2]
  000c4	51		 push	 ecx
  000c5	8b c4		 mov	 eax, esp
  000c7	66 89 30	 mov	 WORD PTR [eax], si
  000ca	88 58 02	 mov	 BYTE PTR [eax+2], bl
  000cd	e8 00 00 00 00	 call	 ?__PlayInventoryItemDropSound@CPythonNetworkStream@@IAEXUSItemPos@@@Z ; CPythonNetworkStream::__PlayInventoryItemDropSound

; 673  : 
; 674  : 	TPacketCGItemMove	itemMovePacket;
; 675  : 	itemMovePacket.header = HEADER_CG_ITEM_MOVE;
; 676  : 	itemMovePacket.pos = pos;
; 677  : 	itemMovePacket.change_pos = change_pos;

  000d2	8b 45 0c	 mov	 eax, DWORD PTR _change_pos$[ebp]

; 678  : 	itemMovePacket.num = num;
; 679  : 
; 680  : 	if (!Send(sizeof(TPacketCGItemMove), &itemMovePacket))

  000d5	8b cf		 mov	 ecx, edi
  000d7	66 89 45 fc	 mov	 WORD PTR _itemMovePacket$[ebp+4], ax
  000db	8b 45 0e	 mov	 eax, DWORD PTR _change_pos$[ebp+2]
  000de	88 45 fe	 mov	 BYTE PTR _itemMovePacket$[ebp+6], al
  000e1	8b 45 10	 mov	 eax, DWORD PTR _num$[ebp]
  000e4	88 45 ff	 mov	 BYTE PTR _itemMovePacket$[ebp+7], al
  000e7	8d 45 f8	 lea	 eax, DWORD PTR _itemMovePacket$[ebp]
  000ea	50		 push	 eax
  000eb	6a 08		 push	 8
  000ed	c6 45 f8 0d	 mov	 BYTE PTR _itemMovePacket$[ebp], 13 ; 0000000dH
  000f1	66 89 75 f9	 mov	 WORD PTR _itemMovePacket$[ebp+1], si
  000f5	88 5d fb	 mov	 BYTE PTR _itemMovePacket$[ebp+3], bl
  000f8	e8 00 00 00 00	 call	 ?Send@CNetworkStream@@QAE_NHPBX@Z ; CNetworkStream::Send
  000fd	84 c0		 test	 al, al
  000ff	75 18		 jne	 SHORT $LN1@SendItemMo

; 681  : 	{
; 682  : 		Tracen("SendItemMovePacket Error");

  00101	68 00 00 00 00	 push	 OFFSET ??_C@_0BJ@LGMFALEM@SendItemMovePacket?5Error?$AA@
  00106	e8 00 00 00 00	 call	 ?Tracen@@YAXPBD@Z	; Tracen
  0010b	83 c4 04	 add	 esp, 4

; 683  : 		return false;

  0010e	32 c0		 xor	 al, al

; 687  : }

  00110	5f		 pop	 edi
  00111	5e		 pop	 esi
  00112	5b		 pop	 ebx
  00113	8b e5		 mov	 esp, ebp
  00115	5d		 pop	 ebp
  00116	c2 0c 00	 ret	 12			; 0000000cH
$LN1@SendItemMo:

; 684  : 	}
; 685  : 
; 686  : 	return SendSequence();

  00119	8b cf		 mov	 ecx, edi
  0011b	e8 00 00 00 00	 call	 ?SendSequence@CNetworkStream@@QAE_NXZ ; CNetworkStream::SendSequence

; 687  : }

  00120	5f		 pop	 edi
  00121	5e		 pop	 esi
  00122	5b		 pop	 ebx
  00123	8b e5		 mov	 esp, ebp
  00125	5d		 pop	 ebp
  00126	c2 0c 00	 ret	 12			; 0000000cH
?SendItemMovePacket@CPythonNetworkStream@@QAE_NUSItemPos@@0E@Z ENDP ; CPythonNetworkStream::SendItemMovePacket
_TEXT	ENDS
; Function compile flags: /Ogtp
; File d:\metin2\metin2\client_source_clean\client_source_clean\source\userinterface\pythonnetworkstreamphasegameitem.cpp
;	COMDAT ?SendItemDropPacketNew@CPythonNetworkStream@@QAE_NUSItemPos@@KK@Z
_TEXT	SEGMENT
_itemDropPacket$ = -12					; size = 9
_pos$ = 8						; size = 3
_elk$ = 12						; size = 4
_count$ = 16						; size = 4
?SendItemDropPacketNew@CPythonNetworkStream@@QAE_NUSItemPos@@KK@Z PROC ; CPythonNetworkStream::SendItemDropPacketNew, COMDAT
; _this$ = ecx

; 567  : {

  00000	55		 push	 ebp
  00001	8b ec		 mov	 ebp, esp
  00003	83 ec 0c	 sub	 esp, 12			; 0000000cH
  00006	56		 push	 esi
  00007	8b f1		 mov	 esi, ecx

; 568  : 	if (!__CanActMainInstance())

  00009	e8 00 00 00 00	 call	 ?__CanActMainInstance@CPythonNetworkStream@@IAE_NXZ ; CPythonNetworkStream::__CanActMainInstance
  0000e	84 c0		 test	 al, al
  00010	75 09		 jne	 SHORT $LN2@SendItemDr

; 569  : 		return true;

  00012	b0 01		 mov	 al, 1
  00014	5e		 pop	 esi

; 584  : }

  00015	8b e5		 mov	 esp, ebp
  00017	5d		 pop	 ebp
  00018	c2 0c 00	 ret	 12			; 0000000cH
$LN2@SendItemDr:

; 570  : 
; 571  : 	TPacketCGItemDrop2 itemDropPacket;
; 572  : 	itemDropPacket.header = HEADER_CG_ITEM_DROP2;
; 573  : 	itemDropPacket.pos = pos;

  0001b	8b 45 08	 mov	 eax, DWORD PTR _pos$[ebp]

; 574  : 	itemDropPacket.gold = elk;
; 575  : 	itemDropPacket.count = count;
; 576  : 
; 577  : 	if (!Send(sizeof(itemDropPacket), &itemDropPacket))

  0001e	8b ce		 mov	 ecx, esi
  00020	66 89 45 f5	 mov	 WORD PTR _itemDropPacket$[ebp+1], ax
  00024	8b 45 0a	 mov	 eax, DWORD PTR _pos$[ebp+2]
  00027	88 45 f7	 mov	 BYTE PTR _itemDropPacket$[ebp+3], al
  0002a	8b 45 0c	 mov	 eax, DWORD PTR _elk$[ebp]
  0002d	89 45 f8	 mov	 DWORD PTR _itemDropPacket$[ebp+4], eax
  00030	8b 45 10	 mov	 eax, DWORD PTR _count$[ebp]
  00033	88 45 fc	 mov	 BYTE PTR _itemDropPacket$[ebp+8], al
  00036	8d 45 f4	 lea	 eax, DWORD PTR _itemDropPacket$[ebp]
  00039	50		 push	 eax
  0003a	6a 09		 push	 9
  0003c	c6 45 f4 14	 mov	 BYTE PTR _itemDropPacket$[ebp], 20 ; 00000014H
  00040	e8 00 00 00 00	 call	 ?Send@CNetworkStream@@QAE_NHPBX@Z ; CNetworkStream::Send
  00045	84 c0		 test	 al, al
  00047	75 16		 jne	 SHORT $LN1@SendItemDr

; 578  : 	{
; 579  : 		Tracen("SendItemDropPacket Error");

  00049	68 00 00 00 00	 push	 OFFSET ??_C@_0BJ@OIBPCJHH@SendItemDropPacket?5Error?$AA@
  0004e	e8 00 00 00 00	 call	 ?Tracen@@YAXPBD@Z	; Tracen
  00053	83 c4 04	 add	 esp, 4

; 580  : 		return false;

  00056	32 c0		 xor	 al, al
  00058	5e		 pop	 esi

; 584  : }

  00059	8b e5		 mov	 esp, ebp
  0005b	5d		 pop	 ebp
  0005c	c2 0c 00	 ret	 12			; 0000000cH
$LN1@SendItemDr:

; 581  : 	}
; 582  : 
; 583  : 	return SendSequence();

  0005f	8b ce		 mov	 ecx, esi
  00061	e8 00 00 00 00	 call	 ?SendSequence@CNetworkStream@@QAE_NXZ ; CNetworkStream::SendSequence
  00066	5e		 pop	 esi

; 584  : }

  00067	8b e5		 mov	 esp, ebp
  00069	5d		 pop	 ebp
  0006a	c2 0c 00	 ret	 12			; 0000000cH
?SendItemDropPacketNew@CPythonNetworkStream@@QAE_NUSItemPos@@KK@Z ENDP ; CPythonNetworkStream::SendItemDropPacketNew
_TEXT	ENDS
; Function compile flags: /Ogtp
; File d:\metin2\metin2\client_source_clean\client_source_clean\source\userinterface\pythonnetworkstreamphasegameitem.cpp
;	COMDAT ?SendItemDropPacket@CPythonNetworkStream@@QAE_NUSItemPos@@K@Z
_TEXT	SEGMENT
_itemDropPacket$ = -8					; size = 8
_pos$ = 8						; size = 3
_elk$ = 12						; size = 4
?SendItemDropPacket@CPythonNetworkStream@@QAE_NUSItemPos@@K@Z PROC ; CPythonNetworkStream::SendItemDropPacket, COMDAT
; _this$ = ecx

; 548  : {

  00000	55		 push	 ebp
  00001	8b ec		 mov	 ebp, esp
  00003	83 ec 08	 sub	 esp, 8
  00006	56		 push	 esi
  00007	8b f1		 mov	 esi, ecx

; 549  : 	if (!__CanActMainInstance())

  00009	e8 00 00 00 00	 call	 ?__CanActMainInstance@CPythonNetworkStream@@IAE_NXZ ; CPythonNetworkStream::__CanActMainInstance
  0000e	84 c0		 test	 al, al
  00010	75 09		 jne	 SHORT $LN2@SendItemDr

; 550  : 		return true;

  00012	b0 01		 mov	 al, 1
  00014	5e		 pop	 esi

; 564  : }

  00015	8b e5		 mov	 esp, ebp
  00017	5d		 pop	 ebp
  00018	c2 08 00	 ret	 8
$LN2@SendItemDr:

; 551  : 
; 552  : 	TPacketCGItemDrop itemDropPacket;
; 553  : 	itemDropPacket.header = HEADER_CG_ITEM_DROP;
; 554  : 	itemDropPacket.pos = pos;

  0001b	8b 45 08	 mov	 eax, DWORD PTR _pos$[ebp]

; 555  : 	itemDropPacket.elk = elk;
; 556  : 
; 557  : 	if (!Send(sizeof(TPacketCGItemDrop), &itemDropPacket))

  0001e	8b ce		 mov	 ecx, esi
  00020	66 89 45 f9	 mov	 WORD PTR _itemDropPacket$[ebp+1], ax
  00024	8b 45 0a	 mov	 eax, DWORD PTR _pos$[ebp+2]
  00027	88 45 fb	 mov	 BYTE PTR _itemDropPacket$[ebp+3], al
  0002a	8b 45 0c	 mov	 eax, DWORD PTR _elk$[ebp]
  0002d	89 45 fc	 mov	 DWORD PTR _itemDropPacket$[ebp+4], eax
  00030	8d 45 f8	 lea	 eax, DWORD PTR _itemDropPacket$[ebp]
  00033	50		 push	 eax
  00034	6a 08		 push	 8
  00036	c6 45 f8 0c	 mov	 BYTE PTR _itemDropPacket$[ebp], 12 ; 0000000cH
  0003a	e8 00 00 00 00	 call	 ?Send@CNetworkStream@@QAE_NHPBX@Z ; CNetworkStream::Send
  0003f	84 c0		 test	 al, al
  00041	75 16		 jne	 SHORT $LN1@SendItemDr

; 558  : 	{
; 559  : 		Tracen("SendItemDropPacket Error");

  00043	68 00 00 00 00	 push	 OFFSET ??_C@_0BJ@OIBPCJHH@SendItemDropPacket?5Error?$AA@
  00048	e8 00 00 00 00	 call	 ?Tracen@@YAXPBD@Z	; Tracen
  0004d	83 c4 04	 add	 esp, 4

; 560  : 		return false;

  00050	32 c0		 xor	 al, al
  00052	5e		 pop	 esi

; 564  : }

  00053	8b e5		 mov	 esp, ebp
  00055	5d		 pop	 ebp
  00056	c2 08 00	 ret	 8
$LN1@SendItemDr:

; 561  : 	}
; 562  : 
; 563  : 	return SendSequence();

  00059	8b ce		 mov	 ecx, esi
  0005b	e8 00 00 00 00	 call	 ?SendSequence@CNetworkStream@@QAE_NXZ ; CNetworkStream::SendSequence
  00060	5e		 pop	 esi

; 564  : }

  00061	8b e5		 mov	 esp, ebp
  00063	5d		 pop	 ebp
  00064	c2 08 00	 ret	 8
?SendItemDropPacket@CPythonNetworkStream@@QAE_NUSItemPos@@K@Z ENDP ; CPythonNetworkStream::SendItemDropPacket
_TEXT	ENDS
; Function compile flags: /Ogtp
; File d:\metin2\metin2\client_source_clean\client_source_clean\source\userinterface\pythonnetworkstreamphasegameitem.cpp
;	COMDAT ?SendItemUseToItemPacket@CPythonNetworkStream@@QAE_NUSItemPos@@0@Z
_TEXT	SEGMENT
_itemUseToItemPacket$ = -8				; size = 7
_source_pos$ = 8					; size = 3
_target_pos$ = 12					; size = 3
?SendItemUseToItemPacket@CPythonNetworkStream@@QAE_NUSItemPos@@0@Z PROC ; CPythonNetworkStream::SendItemUseToItemPacket, COMDAT
; _this$ = ecx

; 525  : {

  00000	55		 push	 ebp
  00001	8b ec		 mov	 ebp, esp
  00003	83 ec 08	 sub	 esp, 8
  00006	56		 push	 esi
  00007	8b f1		 mov	 esi, ecx

; 526  : 	if (!__CanActMainInstance())

  00009	e8 00 00 00 00	 call	 ?__CanActMainInstance@CPythonNetworkStream@@IAE_NXZ ; CPythonNetworkStream::__CanActMainInstance
  0000e	84 c0		 test	 al, al
  00010	75 09		 jne	 SHORT $LN2@SendItemUs

; 527  : 		return true;	

  00012	b0 01		 mov	 al, 1
  00014	5e		 pop	 esi

; 545  : }

  00015	8b e5		 mov	 esp, ebp
  00017	5d		 pop	 ebp
  00018	c2 08 00	 ret	 8
$LN2@SendItemUs:

; 528  : 
; 529  : 	TPacketCGItemUseToItem itemUseToItemPacket;
; 530  : 	itemUseToItemPacket.header = HEADER_CG_ITEM_USE_TO_ITEM;
; 531  : 	itemUseToItemPacket.source_pos = source_pos;

  0001b	8b 45 08	 mov	 eax, DWORD PTR _source_pos$[ebp]

; 532  : 	itemUseToItemPacket.target_pos = target_pos;
; 533  : 
; 534  : 	if (!Send(sizeof(TPacketCGItemUseToItem), &itemUseToItemPacket))

  0001e	8b ce		 mov	 ecx, esi
  00020	66 89 45 f9	 mov	 WORD PTR _itemUseToItemPacket$[ebp+1], ax
  00024	8b 45 0a	 mov	 eax, DWORD PTR _source_pos$[ebp+2]
  00027	88 45 fb	 mov	 BYTE PTR _itemUseToItemPacket$[ebp+3], al
  0002a	8b 45 0c	 mov	 eax, DWORD PTR _target_pos$[ebp]
  0002d	66 89 45 fc	 mov	 WORD PTR _itemUseToItemPacket$[ebp+4], ax
  00031	8b 45 0e	 mov	 eax, DWORD PTR _target_pos$[ebp+2]
  00034	88 45 fe	 mov	 BYTE PTR _itemUseToItemPacket$[ebp+6], al
  00037	8d 45 f8	 lea	 eax, DWORD PTR _itemUseToItemPacket$[ebp]
  0003a	50		 push	 eax
  0003b	6a 07		 push	 7
  0003d	c6 45 f8 3c	 mov	 BYTE PTR _itemUseToItemPacket$[ebp], 60 ; 0000003cH
  00041	e8 00 00 00 00	 call	 ?Send@CNetworkStream@@QAE_NHPBX@Z ; CNetworkStream::Send
  00046	84 c0		 test	 al, al
  00048	75 16		 jne	 SHORT $LN1@SendItemUs

; 535  : 	{
; 536  : 		Tracen("SendItemUseToItemPacket Error");

  0004a	68 00 00 00 00	 push	 OFFSET ??_C@_0BO@FFKONCIG@SendItemUseToItemPacket?5Error?$AA@
  0004f	e8 00 00 00 00	 call	 ?Tracen@@YAXPBD@Z	; Tracen
  00054	83 c4 04	 add	 esp, 4

; 537  : 		return false;

  00057	32 c0		 xor	 al, al
  00059	5e		 pop	 esi

; 545  : }

  0005a	8b e5		 mov	 esp, ebp
  0005c	5d		 pop	 ebp
  0005d	c2 08 00	 ret	 8
$LN1@SendItemUs:

; 538  : 	}
; 539  : 
; 540  : #ifdef _DEBUG
; 541  : 	Tracef(" << SendItemUseToItemPacket(src=%d, dst=%d)\n", source_pos, target_pos);
; 542  : #endif
; 543  : 
; 544  : 	return SendSequence();

  00060	8b ce		 mov	 ecx, esi
  00062	e8 00 00 00 00	 call	 ?SendSequence@CNetworkStream@@QAE_NXZ ; CNetworkStream::SendSequence
  00067	5e		 pop	 esi

; 545  : }

  00068	8b e5		 mov	 esp, ebp
  0006a	5d		 pop	 ebp
  0006b	c2 08 00	 ret	 8
?SendItemUseToItemPacket@CPythonNetworkStream@@QAE_NUSItemPos@@0@Z ENDP ; CPythonNetworkStream::SendItemUseToItemPacket
_TEXT	ENDS
; Function compile flags: /Ogtp
; File d:\metin2\metin2\client_source_clean\client_source_clean\source\userinterface\pythonnetworkstreamphasegameitem.cpp
;	COMDAT ?SendItemUsePacket@CPythonNetworkStream@@QAE_NUSItemPos@@@Z
_TEXT	SEGMENT
_itemUsePacket$ = -4					; size = 4
_pos$ = 8						; size = 3
?SendItemUsePacket@CPythonNetworkStream@@QAE_NUSItemPos@@@Z PROC ; CPythonNetworkStream::SendItemUsePacket, COMDAT
; _this$ = ecx

; 487  : {

  00000	55		 push	 ebp
  00001	8b ec		 mov	 ebp, esp
  00003	51		 push	 ecx
  00004	53		 push	 ebx
  00005	56		 push	 esi
  00006	57		 push	 edi
  00007	8b f9		 mov	 edi, ecx

; 488  : 	if (!__CanActMainInstance())

  00009	e8 00 00 00 00	 call	 ?__CanActMainInstance@CPythonNetworkStream@@IAE_NXZ ; CPythonNetworkStream::__CanActMainInstance
  0000e	84 c0		 test	 al, al
  00010	74 4b		 je	 SHORT $LN17@SendItemUs

; 489  : 		return true;
; 490  : 
; 491  : 	if (__IsEquipItemInSlot(pos))

  00012	8b 45 08	 mov	 eax, DWORD PTR _pos$[ebp]
  00015	51		 push	 ecx
  00016	8b cc		 mov	 ecx, esp
  00018	66 89 01	 mov	 WORD PTR [ecx], ax
  0001b	8b 45 0a	 mov	 eax, DWORD PTR _pos$[ebp+2]
  0001e	88 41 02	 mov	 BYTE PTR [ecx+2], al
  00021	e8 00 00 00 00	 call	 ?__IsEquipItemInSlot@CPythonNetworkStream@@IAE_NUSItemPos@@@Z ; CPythonNetworkStream::__IsEquipItemInSlot
  00026	84 c0		 test	 al, al
  00028	74 5d		 je	 SHORT $LN2@SendItemUs

; 492  : 	{
; 493  : 		if (CPythonExchange::Instance().isTrading())

  0002a	8b 0d 00 00 00
	00		 mov	 ecx, DWORD PTR ?ms_singleton@?$CSingleton@VCPythonExchange@@@@0PAVCPythonExchange@@A ; CSingleton<CPythonExchange>::ms_singleton
  00030	e8 00 00 00 00	 call	 ?isTrading@CPythonExchange@@QAE_NXZ ; CPythonExchange::isTrading
  00035	84 c0		 test	 al, al
  00037	74 2f		 je	 SHORT $LN4@SendItemUs

; 494  : 		{
; 495  : 			PyCallClassMemberFunc(m_apoPhaseWnd[PHASE_WINDOW_GAME], "BINARY_AppendNotifyMessage", Py_BuildValue("(s)", "CANNOT_EQUIP_EXCHANGE"));

  00039	68 00 00 00 00	 push	 OFFSET ??_C@_0BG@KBOLGOPL@CANNOT_EQUIP_EXCHANGE?$AA@
$LN18@SendItemUs:
  0003e	68 00 00 00 00	 push	 OFFSET ??_C@_03KJMMOONA@?$CIs?$CJ?$AA@
  00043	ff 15 00 00 00
	00		 call	 DWORD PTR __imp__Py_BuildValue
  00049	50		 push	 eax
  0004a	68 00 00 00 00	 push	 OFFSET ??_C@_0BL@HGBMODPD@BINARY_AppendNotifyMessage?$AA@
  0004f	ff b7 90 01 00
	00		 push	 DWORD PTR [edi+400]
  00055	e8 00 00 00 00	 call	 ?PyCallClassMemberFunc@@YA_NPAU_object@@PBD0@Z ; PyCallClassMemberFunc
  0005a	83 c4 14	 add	 esp, 20			; 00000014H
$LN17@SendItemUs:

; 496  : 			return true;

  0005d	b0 01		 mov	 al, 1

; 522  : }

  0005f	5f		 pop	 edi
  00060	5e		 pop	 esi
  00061	5b		 pop	 ebx
  00062	8b e5		 mov	 esp, ebp
  00064	5d		 pop	 ebp
  00065	c2 04 00	 ret	 4
$LN4@SendItemUs:

; 497  : 		}
; 498  : 
; 499  : 		if (CPythonShop::Instance().IsOpen())

  00068	8b 0d 00 00 00
	00		 mov	 ecx, DWORD PTR ?ms_singleton@?$CSingleton@VCPythonShop@@@@0PAVCPythonShop@@A ; CSingleton<CPythonShop>::ms_singleton
  0006e	e8 00 00 00 00	 call	 ?IsOpen@CPythonShop@@QAEHXZ ; CPythonShop::IsOpen
  00073	85 c0		 test	 eax, eax
  00075	74 07		 je	 SHORT $LN3@SendItemUs

; 500  : 		{
; 501  : 			PyCallClassMemberFunc(m_apoPhaseWnd[PHASE_WINDOW_GAME], "BINARY_AppendNotifyMessage", Py_BuildValue("(s)", "CANNOT_EQUIP_SHOP"));

  00077	68 00 00 00 00	 push	 OFFSET ??_C@_0BC@GKDHAPBC@CANNOT_EQUIP_SHOP?$AA@

; 502  : 			return true;

  0007c	eb c0		 jmp	 SHORT $LN18@SendItemUs
$LN3@SendItemUs:

; 503  : 		}
; 504  : 
; 505  : 		if (__IsPlayerAttacking())

  0007e	e8 00 00 00 00	 call	 ?__IsPlayerAttacking@CPythonNetworkStream@@IAE_NXZ ; CPythonNetworkStream::__IsPlayerAttacking
  00083	84 c0		 test	 al, al
  00085	75 d6		 jne	 SHORT $LN17@SendItemUs
$LN2@SendItemUs:

; 506  : 			return true;
; 507  : 	}
; 508  : 
; 509  : 	__PlayInventoryItemUseSound(pos);

  00087	66 8b 75 08	 mov	 si, WORD PTR _pos$[ebp]
  0008b	8a 5d 0a	 mov	 bl, BYTE PTR _pos$[ebp+2]
  0008e	51		 push	 ecx
  0008f	8b c4		 mov	 eax, esp
  00091	66 89 30	 mov	 WORD PTR [eax], si
  00094	88 58 02	 mov	 BYTE PTR [eax+2], bl
  00097	e8 00 00 00 00	 call	 ?__PlayInventoryItemUseSound@CPythonNetworkStream@@IAEXUSItemPos@@@Z ; CPythonNetworkStream::__PlayInventoryItemUseSound

; 510  : 
; 511  : 	TPacketCGItemUse itemUsePacket;
; 512  : 	itemUsePacket.header = HEADER_CG_ITEM_USE;
; 513  : 	itemUsePacket.pos = pos;
; 514  : 
; 515  : 	if (!Send(sizeof(TPacketCGItemUse), &itemUsePacket))

  0009c	8d 45 fc	 lea	 eax, DWORD PTR _itemUsePacket$[ebp]
  0009f	c6 45 fc 0b	 mov	 BYTE PTR _itemUsePacket$[ebp], 11 ; 0000000bH
  000a3	50		 push	 eax
  000a4	6a 04		 push	 4
  000a6	8b cf		 mov	 ecx, edi
  000a8	66 89 75 fd	 mov	 WORD PTR _itemUsePacket$[ebp+1], si
  000ac	88 5d ff	 mov	 BYTE PTR _itemUsePacket$[ebp+3], bl
  000af	e8 00 00 00 00	 call	 ?Send@CNetworkStream@@QAE_NHPBX@Z ; CNetworkStream::Send
  000b4	84 c0		 test	 al, al
  000b6	75 18		 jne	 SHORT $LN1@SendItemUs

; 516  : 	{
; 517  : 		Tracen("SendItemUsePacket Error");

  000b8	68 00 00 00 00	 push	 OFFSET ??_C@_0BI@ECNPLDED@SendItemUsePacket?5Error?$AA@
  000bd	e8 00 00 00 00	 call	 ?Tracen@@YAXPBD@Z	; Tracen
  000c2	83 c4 04	 add	 esp, 4

; 518  : 		return false;

  000c5	32 c0		 xor	 al, al

; 522  : }

  000c7	5f		 pop	 edi
  000c8	5e		 pop	 esi
  000c9	5b		 pop	 ebx
  000ca	8b e5		 mov	 esp, ebp
  000cc	5d		 pop	 ebp
  000cd	c2 04 00	 ret	 4
$LN1@SendItemUs:

; 519  : 	}
; 520  : 
; 521  : 	return SendSequence();

  000d0	8b cf		 mov	 ecx, edi
  000d2	e8 00 00 00 00	 call	 ?SendSequence@CNetworkStream@@QAE_NXZ ; CNetworkStream::SendSequence

; 522  : }

  000d7	5f		 pop	 edi
  000d8	5e		 pop	 esi
  000d9	5b		 pop	 ebx
  000da	8b e5		 mov	 esp, ebp
  000dc	5d		 pop	 ebp
  000dd	c2 04 00	 ret	 4
?SendItemUsePacket@CPythonNetworkStream@@QAE_NUSItemPos@@@Z ENDP ; CPythonNetworkStream::SendItemUsePacket
_TEXT	ENDS
; Function compile flags: /Ogtp
; File d:\metin2\metin2\client_source_clean\client_source_clean\source\userinterface\pythonnetworkstreamphasegameitem.cpp
; File d:\metin2\metin2\client_source_clean\client_source_clean\source\userinterface\gametype.h
; File d:\metin2\metin2\client_source_clean\client_source_clean\source\userinterface\packet.h
; File d:\metin2\metin2\client_source_clean\client_source_clean\source\userinterface\gametype.h
; File d:\metin2\metin2\client_source_clean\client_source_clean\source\userinterface\pythonnetworkstreamphasegameitem.cpp
; File d:\metin2\metin2\client_source_clean\client_source_clean\source\userinterface\gametype.h
; File d:\metin2\metin2\client_source_clean\client_source_clean\source\userinterface\pythonnetworkstreamphasegameitem.cpp
;	COMDAT ?RecvDragonSoulRefine@CPythonNetworkStream@@IAE_NXZ
_TEXT	SEGMENT
_kDragonSoul$ = -8					; size = 5
?RecvDragonSoulRefine@CPythonNetworkStream@@IAE_NXZ PROC ; CPythonNetworkStream::RecvDragonSoulRefine, COMDAT
; _this$ = ecx

; 912  : {

  00000	55		 push	 ebp
  00001	8b ec		 mov	 ebp, esp
  00003	83 ec 08	 sub	 esp, 8
; File d:\metin2\metin2\client_source_clean\client_source_clean\source\userinterface\gametype.h

; 187  : 		cell = WORD_MAX;

  00006	b8 ff ff 00 00	 mov	 eax, 65535		; 0000ffffH
; File d:\metin2\metin2\client_source_clean\client_source_clean\source\userinterface\packet.h

; 2801 : 	{}

  0000b	c6 45 f8 d1	 mov	 BYTE PTR _kDragonSoul$[ebp], 209 ; 000000d1H
  0000f	56		 push	 esi
; File d:\metin2\metin2\client_source_clean\client_source_clean\source\userinterface\gametype.h

; 187  : 		cell = WORD_MAX;

  00010	66 89 45 fb	 mov	 WORD PTR _kDragonSoul$[ebp+3], ax
; File d:\metin2\metin2\client_source_clean\client_source_clean\source\userinterface\pythonnetworkstreamphasegameitem.cpp

; 912  : {

  00014	8b f1		 mov	 esi, ecx

; 915  : 	if (!Recv(sizeof(kDragonSoul), &kDragonSoul))

  00016	8d 45 f8	 lea	 eax, DWORD PTR _kDragonSoul$[ebp]
; File d:\metin2\metin2\client_source_clean\client_source_clean\source\userinterface\gametype.h

; 186  : 		window_type =     INVENTORY;

  00019	c6 45 fa 01	 mov	 BYTE PTR _kDragonSoul$[ebp+2], 1
; File d:\metin2\metin2\client_source_clean\client_source_clean\source\userinterface\pythonnetworkstreamphasegameitem.cpp

; 915  : 	if (!Recv(sizeof(kDragonSoul), &kDragonSoul))

  0001d	50		 push	 eax
  0001e	6a 05		 push	 5
  00020	e8 00 00 00 00	 call	 ?Recv@CNetworkStream@@QAE_NHPAX@Z ; CNetworkStream::Recv
  00025	84 c0		 test	 al, al
  00027	75 05		 jne	 SHORT $LN6@RecvDragon
  00029	5e		 pop	 esi

; 940  : }

  0002a	8b e5		 mov	 esp, ebp
  0002c	5d		 pop	 ebp
  0002d	c3		 ret	 0
$LN6@RecvDragon:

; 916  : 		return false;
; 917  : 	
; 918  : 	
; 919  : 	switch (kDragonSoul.bSubType)

  0002e	0f b6 4d f9	 movzx	 ecx, BYTE PTR _kDragonSoul$[ebp+1]
  00032	83 f9 0b	 cmp	 ecx, 11			; 0000000bH
  00035	0f 87 8e 00 00
	00		 ja	 $LN4@RecvDragon
  0003b	0f b6 81 00 00
	00 00		 movzx	 eax, BYTE PTR $LN13@RecvDragon[ecx]
  00042	ff 24 85 00 00
	00 00		 jmp	 DWORD PTR $LN15@RecvDragon[eax*4]
$LN3@RecvDragon:

; 920  : 	{
; 921  : 	case DS_SUB_HEADER_OPEN:
; 922  : 		PyCallClassMemberFunc(m_apoPhaseWnd[PHASE_WINDOW_GAME], "BINARY_DragonSoulRefineWindow_Open", Py_BuildValue("()"));

  00049	68 00 00 00 00	 push	 OFFSET ??_C@_02HCKGKOFO@?$CI?$CJ?$AA@
  0004e	ff 15 00 00 00
	00		 call	 DWORD PTR __imp__Py_BuildValue
  00054	50		 push	 eax
  00055	68 00 00 00 00	 push	 OFFSET ??_C@_0CD@JEDDBPLN@BINARY_DragonSoulRefineWindow_Op@
  0005a	ff b6 90 01 00
	00		 push	 DWORD PTR [esi+400]
  00060	e8 00 00 00 00	 call	 ?PyCallClassMemberFunc@@YA_NPAU_object@@PBD0@Z ; PyCallClassMemberFunc
  00065	83 c4 10	 add	 esp, 16			; 00000010H

; 936  : 		break;
; 937  : 	}
; 938  : 
; 939  : 	return true;

  00068	b0 01		 mov	 al, 1
  0006a	5e		 pop	 esi

; 940  : }

  0006b	8b e5		 mov	 esp, ebp
  0006d	5d		 pop	 ebp
  0006e	c3		 ret	 0
$LN2@RecvDragon:

; 923  : 		break;
; 924  : 	case DS_SUB_HEADER_REFINE_FAIL:
; 925  : 	case DS_SUB_HEADER_REFINE_FAIL_MAX_REFINE:
; 926  : 	case DS_SUB_HEADER_REFINE_FAIL_INVALID_MATERIAL:
; 927  : 	case DS_SUB_HEADER_REFINE_FAIL_NOT_ENOUGH_MONEY:
; 928  : 	case DS_SUB_HEADER_REFINE_FAIL_NOT_ENOUGH_MATERIAL:
; 929  : 	case DS_SUB_HEADER_REFINE_FAIL_TOO_MUCH_MATERIAL:
; 930  : 		PyCallClassMemberFunc(m_apoPhaseWnd[PHASE_WINDOW_GAME], "BINARY_DragonSoulRefineWindow_RefineFail", Py_BuildValue("(iii)", 
; 931  : 			kDragonSoul.bSubType, kDragonSoul.Pos.window_type, kDragonSoul.Pos.cell));

  0006f	0f b7 45 fb	 movzx	 eax, WORD PTR _kDragonSoul$[ebp+3]
  00073	50		 push	 eax
  00074	0f b6 45 fa	 movzx	 eax, BYTE PTR _kDragonSoul$[ebp+2]
  00078	50		 push	 eax
  00079	51		 push	 ecx
  0007a	68 00 00 00 00	 push	 OFFSET ??_C@_05HEIOBLPG@?$CIiii?$CJ?$AA@
  0007f	ff 15 00 00 00
	00		 call	 DWORD PTR __imp__Py_BuildValue
  00085	50		 push	 eax
  00086	68 00 00 00 00	 push	 OFFSET ??_C@_0CJ@JCBKPBPN@BINARY_DragonSoulRefineWindow_Re@
  0008b	ff b6 90 01 00
	00		 push	 DWORD PTR [esi+400]
  00091	e8 00 00 00 00	 call	 ?PyCallClassMemberFunc@@YA_NPAU_object@@PBD0@Z ; PyCallClassMemberFunc
  00096	83 c4 1c	 add	 esp, 28			; 0000001cH

; 936  : 		break;
; 937  : 	}
; 938  : 
; 939  : 	return true;

  00099	b0 01		 mov	 al, 1
  0009b	5e		 pop	 esi

; 940  : }

  0009c	8b e5		 mov	 esp, ebp
  0009e	5d		 pop	 ebp
  0009f	c3		 ret	 0
$LN1@RecvDragon:

; 932  : 		break;
; 933  : 	case DS_SUB_HEADER_REFINE_SUCCEED:
; 934  : 		PyCallClassMemberFunc(m_apoPhaseWnd[PHASE_WINDOW_GAME], "BINARY_DragonSoulRefineWindow_RefineSucceed", 
; 935  : 				Py_BuildValue("(ii)", kDragonSoul.Pos.window_type, kDragonSoul.Pos.cell));

  000a0	0f b7 45 fb	 movzx	 eax, WORD PTR _kDragonSoul$[ebp+3]
  000a4	50		 push	 eax
  000a5	0f b6 45 fa	 movzx	 eax, BYTE PTR _kDragonSoul$[ebp+2]
  000a9	50		 push	 eax
  000aa	68 00 00 00 00	 push	 OFFSET ??_C@_04INACLLOK@?$CIii?$CJ?$AA@
  000af	ff 15 00 00 00
	00		 call	 DWORD PTR __imp__Py_BuildValue
  000b5	50		 push	 eax
  000b6	68 00 00 00 00	 push	 OFFSET ??_C@_0CM@IKKNFKOL@BINARY_DragonSoulRefineWindow_Re@
  000bb	ff b6 90 01 00
	00		 push	 DWORD PTR [esi+400]
  000c1	e8 00 00 00 00	 call	 ?PyCallClassMemberFunc@@YA_NPAU_object@@PBD0@Z ; PyCallClassMemberFunc
  000c6	83 c4 18	 add	 esp, 24			; 00000018H
$LN4@RecvDragon:

; 936  : 		break;
; 937  : 	}
; 938  : 
; 939  : 	return true;

  000c9	b0 01		 mov	 al, 1
  000cb	5e		 pop	 esi

; 940  : }

  000cc	8b e5		 mov	 esp, ebp
  000ce	5d		 pop	 ebp
  000cf	c3		 ret	 0
$LN15@RecvDragon:
  000d0	00 00 00 00	 DD	 $LN3@RecvDragon
  000d4	00 00 00 00	 DD	 $LN2@RecvDragon
  000d8	00 00 00 00	 DD	 $LN1@RecvDragon
  000dc	00 00 00 00	 DD	 $LN4@RecvDragon
$LN13@RecvDragon:
  000e0	00		 DB	 0
  000e1	03		 DB	 3
  000e2	03		 DB	 3
  000e3	03		 DB	 3
  000e4	03		 DB	 3
  000e5	01		 DB	 1
  000e6	01		 DB	 1
  000e7	01		 DB	 1
  000e8	01		 DB	 1
  000e9	01		 DB	 1
  000ea	01		 DB	 1
  000eb	02		 DB	 2
?RecvDragonSoulRefine@CPythonNetworkStream@@IAE_NXZ ENDP ; CPythonNetworkStream::RecvDragonSoulRefine
_TEXT	ENDS
; Function compile flags: /Ogtp
; File d:\metin2\metin2\client_source_clean\client_source_clean\source\userinterface\pythonnetworkstreamphasegameitem.cpp
;	COMDAT ?RecvSpecificEffect@CPythonNetworkStream@@IAE_NXZ
_TEXT	SEGMENT
_kSpecificEffect$ = -140				; size = 133
__$ArrayPad$ = -4					; size = 4
?RecvSpecificEffect@CPythonNetworkStream@@IAE_NXZ PROC	; CPythonNetworkStream::RecvSpecificEffect, COMDAT
; _this$ = ecx

; 895  : {

  00000	55		 push	 ebp
  00001	8b ec		 mov	 ebp, esp
  00003	81 ec 8c 00 00
	00		 sub	 esp, 140		; 0000008cH
  00009	a1 00 00 00 00	 mov	 eax, DWORD PTR ___security_cookie
  0000e	33 c5		 xor	 eax, ebp
  00010	89 45 fc	 mov	 DWORD PTR __$ArrayPad$[ebp], eax

; 896  : 	TPacketGCSpecificEffect kSpecificEffect;
; 897  : 	if (!Recv(sizeof(kSpecificEffect), &kSpecificEffect))

  00013	8d 85 74 ff ff
	ff		 lea	 eax, DWORD PTR _kSpecificEffect$[ebp]
  00019	50		 push	 eax
  0001a	68 85 00 00 00	 push	 133			; 00000085H
  0001f	e8 00 00 00 00	 call	 ?Recv@CNetworkStream@@QAE_NHPAX@Z ; CNetworkStream::Recv
  00024	84 c0		 test	 al, al
  00026	75 0e		 jne	 SHORT $LN2@RecvSpecif

; 906  : 	}
; 907  : 
; 908  : 	return true;
; 909  : }

  00028	8b 4d fc	 mov	 ecx, DWORD PTR __$ArrayPad$[ebp]
  0002b	33 cd		 xor	 ecx, ebp
  0002d	e8 00 00 00 00	 call	 @__security_check_cookie@4
  00032	8b e5		 mov	 esp, ebp
  00034	5d		 pop	 ebp
  00035	c3		 ret	 0
$LN2@RecvSpecif:

; 898  : 		return false;
; 899  : 
; 900  : 	CInstanceBase * pInstance = CPythonCharacterManager::Instance().GetInstancePtr(kSpecificEffect.vid);

  00036	8b 0d 00 00 00
	00		 mov	 ecx, DWORD PTR ?ms_singleton@?$CSingleton@VCPythonCharacterManager@@@@0PAVCPythonCharacterManager@@A ; CSingleton<CPythonCharacterManager>::ms_singleton
  0003c	83 c1 04	 add	 ecx, 4
  0003f	56		 push	 esi
  00040	ff b5 75 ff ff
	ff		 push	 DWORD PTR _kSpecificEffect$[ebp+1]
  00046	8b 01		 mov	 eax, DWORD PTR [ecx]
  00048	ff 50 08	 call	 DWORD PTR [eax+8]
  0004b	8b f0		 mov	 esi, eax

; 901  : 	//EFFECT_TEMP
; 902  : 	if (pInstance)

  0004d	85 f6		 test	 esi, esi
  0004f	74 27		 je	 SHORT $LN1@RecvSpecif

; 903  : 	{
; 904  : 		CInstanceBase::RegisterEffect(CInstanceBase::EFFECT_TEMP, "", kSpecificEffect.effect_file, false);

  00051	8d 85 79 ff ff
	ff		 lea	 eax, DWORD PTR _kSpecificEffect$[ebp+5]
  00057	ba 00 00 00 00	 mov	 edx, OFFSET ??_C@_00CNPNBAHC@?$AA@
  0005c	6a 00		 push	 0
  0005e	50		 push	 eax
  0005f	b9 11 01 00 00	 mov	 ecx, 273		; 00000111H
  00064	e8 00 00 00 00	 call	 ?RegisterEffect@CInstanceBase@@SA_NIPBD0_N@Z ; CInstanceBase::RegisterEffect
  00069	83 c4 08	 add	 esp, 8

; 905  : 		pInstance->AttachSpecialEffect(CInstanceBase::EFFECT_TEMP);

  0006c	8b ce		 mov	 ecx, esi
  0006e	68 11 01 00 00	 push	 273			; 00000111H
  00073	e8 00 00 00 00	 call	 ?AttachSpecialEffect@CInstanceBase@@QAEXK@Z ; CInstanceBase::AttachSpecialEffect
$LN1@RecvSpecif:

; 906  : 	}
; 907  : 
; 908  : 	return true;
; 909  : }

  00078	8b 4d fc	 mov	 ecx, DWORD PTR __$ArrayPad$[ebp]
  0007b	b0 01		 mov	 al, 1
  0007d	33 cd		 xor	 ecx, ebp
  0007f	5e		 pop	 esi
  00080	e8 00 00 00 00	 call	 @__security_check_cookie@4
  00085	8b e5		 mov	 esp, ebp
  00087	5d		 pop	 ebp
  00088	c3		 ret	 0
?RecvSpecificEffect@CPythonNetworkStream@@IAE_NXZ ENDP	; CPythonNetworkStream::RecvSpecificEffect
_TEXT	ENDS
; Function compile flags: /Ogtp
; File d:\metin2\metin2\client_source_clean\client_source_clean\source\userinterface\pythonnetworkstreamphasegameitem.cpp
;	COMDAT ?RecvMallItemDelPacket@CPythonNetworkStream@@QAE_NXZ
_TEXT	SEGMENT
_kItemDel$ = -4						; size = 2
?RecvMallItemDelPacket@CPythonNetworkStream@@QAE_NXZ PROC ; CPythonNetworkStream::RecvMallItemDelPacket, COMDAT
; _this$ = ecx

; 197  : {

  00000	55		 push	 ebp
  00001	8b ec		 mov	 ebp, esp
  00003	51		 push	 ecx
  00004	56		 push	 esi

; 198  : 	TPacketGCItemDel kItemDel;
; 199  : 	if (!Recv(sizeof(kItemDel), &kItemDel))

  00005	8d 45 fc	 lea	 eax, DWORD PTR _kItemDel$[ebp]
  00008	8b f1		 mov	 esi, ecx
  0000a	50		 push	 eax
  0000b	6a 02		 push	 2
  0000d	e8 00 00 00 00	 call	 ?Recv@CNetworkStream@@QAE_NHPAX@Z ; CNetworkStream::Recv
  00012	84 c0		 test	 al, al
  00014	75 05		 jne	 SHORT $LN1@RecvMallIt
  00016	5e		 pop	 esi

; 208  : }

  00017	8b e5		 mov	 esp, ebp
  00019	5d		 pop	 ebp
  0001a	c3		 ret	 0
$LN1@RecvMallIt:

; 200  : 		return false;
; 201  : 
; 202  : 	CPythonSafeBox::Instance().DelMallItemData(kItemDel.pos);

  0001b	0f b6 45 fd	 movzx	 eax, BYTE PTR _kItemDel$[ebp+1]
  0001f	8b 0d 00 00 00
	00		 mov	 ecx, DWORD PTR ?ms_singleton@?$CSingleton@VCPythonSafeBox@@@@0PAVCPythonSafeBox@@A ; CSingleton<CPythonSafeBox>::ms_singleton
  00025	50		 push	 eax
  00026	e8 00 00 00 00	 call	 ?DelMallItemData@CPythonSafeBox@@QAEXK@Z ; CPythonSafeBox::DelMallItemData

; 203  : 
; 204  : 	__RefreshMallWindow();

  0002b	8b ce		 mov	 ecx, esi
  0002d	e8 00 00 00 00	 call	 ?__RefreshMallWindow@CPythonNetworkStream@@IAEXXZ ; CPythonNetworkStream::__RefreshMallWindow

; 205  : 	Tracef(" >> CPythonNetworkStream::RecvMallItemDelPacket\n");

  00032	68 00 00 00 00	 push	 OFFSET ??_C@_0DB@JMGJIAKF@?5?$DO?$DO?5CPythonNetworkStream?3?3RecvMa@
  00037	e8 00 00 00 00	 call	 ?Tracef@@YAXPBDZZ	; Tracef
  0003c	83 c4 04	 add	 esp, 4

; 206  : 
; 207  : 	return true;

  0003f	b0 01		 mov	 al, 1
  00041	5e		 pop	 esi

; 208  : }

  00042	8b e5		 mov	 esp, ebp
  00044	5d		 pop	 ebp
  00045	c3		 ret	 0
?RecvMallItemDelPacket@CPythonNetworkStream@@QAE_NXZ ENDP ; CPythonNetworkStream::RecvMallItemDelPacket
_TEXT	ENDS
; Function compile flags: /Ogtp
; File d:\metin2\metin2\client_source_clean\client_source_clean\source\userinterface\pythonnetworkstreamphasegameitem.cpp
; File d:\metin2\metin2\client_source_clean\client_source_clean\source\userinterface\gametype.h
; File d:\metin2\metin2\client_source_clean\client_source_clean\source\userinterface\pythonnetworkstreamphasegameitem.cpp
;	COMDAT ?RecvMallItemSetPacket@CPythonNetworkStream@@QAE_NXZ
_TEXT	SEGMENT
_kItemData$ = -104					; size = 46
_kItemSet$ = -56					; size = 51
__$ArrayPad$ = -4					; size = 4
?RecvMallItemSetPacket@CPythonNetworkStream@@QAE_NXZ PROC ; CPythonNetworkStream::RecvMallItemSetPacket, COMDAT
; _this$ = ecx

; 175  : {

  00000	55		 push	 ebp
  00001	8b ec		 mov	 ebp, esp
  00003	83 ec 68	 sub	 esp, 104		; 00000068H
  00006	a1 00 00 00 00	 mov	 eax, DWORD PTR ___security_cookie
  0000b	33 c5		 xor	 eax, ebp
  0000d	89 45 fc	 mov	 DWORD PTR __$ArrayPad$[ebp], eax
; File d:\metin2\metin2\client_source_clean\client_source_clean\source\userinterface\gametype.h

; 187  : 		cell = WORD_MAX;

  00010	b8 ff ff 00 00	 mov	 eax, 65535		; 0000ffffH
  00015	c6 45 c9 01	 mov	 BYTE PTR _kItemSet$[ebp+1], 1
  00019	56		 push	 esi
  0001a	66 89 45 ca	 mov	 WORD PTR _kItemSet$[ebp+2], ax
; File d:\metin2\metin2\client_source_clean\client_source_clean\source\userinterface\pythonnetworkstreamphasegameitem.cpp

; 175  : {

  0001e	8b f1		 mov	 esi, ecx

; 176  : 	TPacketGCItemSet2 kItemSet;
; 177  : 	if (!Recv(sizeof(kItemSet), &kItemSet))

  00020	8d 45 c8	 lea	 eax, DWORD PTR _kItemSet$[ebp]
  00023	50		 push	 eax
  00024	6a 33		 push	 51			; 00000033H
  00026	e8 00 00 00 00	 call	 ?Recv@CNetworkStream@@QAE_NHPAX@Z ; CNetworkStream::Recv
  0002b	84 c0		 test	 al, al
  0002d	75 0f		 jne	 SHORT $LN7@RecvMallIt
  0002f	5e		 pop	 esi

; 193  : 
; 194  : 	return true;
; 195  : }

  00030	8b 4d fc	 mov	 ecx, DWORD PTR __$ArrayPad$[ebp]
  00033	33 cd		 xor	 ecx, ebp
  00035	e8 00 00 00 00	 call	 @__security_check_cookie@4
  0003a	8b e5		 mov	 esp, ebp
  0003c	5d		 pop	 ebp
  0003d	c3		 ret	 0
$LN7@RecvMallIt:

; 178  : 		return false;
; 179  : 
; 180  : 	TItemData kItemData;
; 181  : 	kItemData.vnum = kItemSet.vnum;

  0003e	8b 45 cc	 mov	 eax, DWORD PTR _kItemSet$[ebp+4]
  00041	89 45 98	 mov	 DWORD PTR _kItemData$[ebp], eax

; 182  : 	kItemData.count = kItemSet.count;

  00044	8a 45 d0	 mov	 al, BYTE PTR _kItemSet$[ebp+8]
  00047	88 45 9c	 mov	 BYTE PTR _kItemData$[ebp+4], al

; 183  : 	kItemData.flags = kItemSet.flags;

  0004a	8b 45 d1	 mov	 eax, DWORD PTR _kItemSet$[ebp+9]
  0004d	89 45 9d	 mov	 DWORD PTR _kItemData$[ebp+5], eax

; 184  : 	kItemData.anti_flags = kItemSet.anti_flags;

  00050	8b 45 d5	 mov	 eax, DWORD PTR _kItemSet$[ebp+13]
  00053	89 45 a1	 mov	 DWORD PTR _kItemData$[ebp+9], eax

; 185  : 	for (int isocket=0; isocket<ITEM_SOCKET_SLOT_MAX_NUM; ++isocket)
; 186  : 		kItemData.alSockets[isocket] = kItemSet.alSockets[isocket];

  00056	8b 45 da	 mov	 eax, DWORD PTR _kItemSet$[ebp+18]
  00059	89 45 a5	 mov	 DWORD PTR _kItemData$[ebp+13], eax
  0005c	8b 45 de	 mov	 eax, DWORD PTR _kItemSet$[ebp+22]
  0005f	89 45 a9	 mov	 DWORD PTR _kItemData$[ebp+17], eax
  00062	8b 45 e2	 mov	 eax, DWORD PTR _kItemSet$[ebp+26]
  00065	89 45 ad	 mov	 DWORD PTR _kItemData$[ebp+21], eax

; 187  : 	for (int iattr=0; iattr<ITEM_ATTRIBUTE_SLOT_MAX_NUM; ++iattr)
; 188  : 		kItemData.aAttr[iattr] = kItemSet.aAttr[iattr];

  00068	0f b7 45 e6	 movzx	 eax, WORD PTR _kItemSet$[ebp+30]
  0006c	66 89 45 b1	 mov	 WORD PTR _kItemData$[ebp+25], ax
  00070	8a 45 e8	 mov	 al, BYTE PTR _kItemSet$[ebp+32]
  00073	88 45 b3	 mov	 BYTE PTR _kItemData$[ebp+27], al
  00076	0f b7 45 e9	 movzx	 eax, WORD PTR _kItemSet$[ebp+33]
  0007a	66 89 45 b4	 mov	 WORD PTR _kItemData$[ebp+28], ax
  0007e	8a 45 eb	 mov	 al, BYTE PTR _kItemSet$[ebp+35]
  00081	88 45 b6	 mov	 BYTE PTR _kItemData$[ebp+30], al
  00084	0f b7 45 ec	 movzx	 eax, WORD PTR _kItemSet$[ebp+36]
  00088	66 89 45 b7	 mov	 WORD PTR _kItemData$[ebp+31], ax
  0008c	8a 45 ee	 mov	 al, BYTE PTR _kItemSet$[ebp+38]
  0008f	88 45 b9	 mov	 BYTE PTR _kItemData$[ebp+33], al
  00092	0f b7 45 ef	 movzx	 eax, WORD PTR _kItemSet$[ebp+39]
  00096	66 89 45 ba	 mov	 WORD PTR _kItemData$[ebp+34], ax
  0009a	8a 45 f1	 mov	 al, BYTE PTR _kItemSet$[ebp+41]
  0009d	88 45 bc	 mov	 BYTE PTR _kItemData$[ebp+36], al
  000a0	0f b7 45 f2	 movzx	 eax, WORD PTR _kItemSet$[ebp+42]

; 189  : 
; 190  : 	CPythonSafeBox::Instance().SetMallItemData(kItemSet.Cell.cell, kItemData);

  000a4	8b 0d 00 00 00
	00		 mov	 ecx, DWORD PTR ?ms_singleton@?$CSingleton@VCPythonSafeBox@@@@0PAVCPythonSafeBox@@A ; CSingleton<CPythonSafeBox>::ms_singleton
  000aa	66 89 45 bd	 mov	 WORD PTR _kItemData$[ebp+37], ax
  000ae	8a 45 f4	 mov	 al, BYTE PTR _kItemSet$[ebp+44]
  000b1	88 45 bf	 mov	 BYTE PTR _kItemData$[ebp+39], al
  000b4	0f b7 45 f5	 movzx	 eax, WORD PTR _kItemSet$[ebp+45]
  000b8	66 89 45 c0	 mov	 WORD PTR _kItemData$[ebp+40], ax
  000bc	8a 45 f7	 mov	 al, BYTE PTR _kItemSet$[ebp+47]
  000bf	88 45 c2	 mov	 BYTE PTR _kItemData$[ebp+42], al
  000c2	0f b7 45 f8	 movzx	 eax, WORD PTR _kItemSet$[ebp+48]
  000c6	66 89 45 c3	 mov	 WORD PTR _kItemData$[ebp+43], ax
  000ca	8a 45 fa	 mov	 al, BYTE PTR _kItemSet$[ebp+50]
  000cd	88 45 c5	 mov	 BYTE PTR _kItemData$[ebp+45], al
  000d0	8d 45 98	 lea	 eax, DWORD PTR _kItemData$[ebp]
  000d3	50		 push	 eax
  000d4	0f b7 45 ca	 movzx	 eax, WORD PTR _kItemSet$[ebp+2]
  000d8	50		 push	 eax
  000d9	e8 00 00 00 00	 call	 ?SetMallItemData@CPythonSafeBox@@QAEXKABUpacket_item@@@Z ; CPythonSafeBox::SetMallItemData

; 191  : 
; 192  : 	__RefreshMallWindow();

  000de	8b ce		 mov	 ecx, esi
  000e0	e8 00 00 00 00	 call	 ?__RefreshMallWindow@CPythonNetworkStream@@IAEXXZ ; CPythonNetworkStream::__RefreshMallWindow

; 193  : 
; 194  : 	return true;
; 195  : }

  000e5	8b 4d fc	 mov	 ecx, DWORD PTR __$ArrayPad$[ebp]
  000e8	b0 01		 mov	 al, 1
  000ea	33 cd		 xor	 ecx, ebp
  000ec	5e		 pop	 esi
  000ed	e8 00 00 00 00	 call	 @__security_check_cookie@4
  000f2	8b e5		 mov	 esp, ebp
  000f4	5d		 pop	 ebp
  000f5	c3		 ret	 0
?RecvMallItemSetPacket@CPythonNetworkStream@@QAE_NXZ ENDP ; CPythonNetworkStream::RecvMallItemSetPacket
_TEXT	ENDS
; Function compile flags: /Ogtp
; File d:\metin2\metin2\client_source_clean\client_source_clean\source\userinterface\pythonnetworkstreamphasegameitem.cpp
;	COMDAT ?RecvMallOpenPacket@CPythonNetworkStream@@QAE_NXZ
_TEXT	SEGMENT
_kMallOpen$ = -4					; size = 2
?RecvMallOpenPacket@CPythonNetworkStream@@QAE_NXZ PROC	; CPythonNetworkStream::RecvMallOpenPacket, COMDAT
; _this$ = ecx

; 164  : {

  00000	55		 push	 ebp
  00001	8b ec		 mov	 ebp, esp
  00003	51		 push	 ecx
  00004	56		 push	 esi

; 165  : 	TPacketGCMallOpen kMallOpen;
; 166  : 	if (!Recv(sizeof(kMallOpen), &kMallOpen))

  00005	8d 45 fc	 lea	 eax, DWORD PTR _kMallOpen$[ebp]
  00008	8b f1		 mov	 esi, ecx
  0000a	50		 push	 eax
  0000b	6a 02		 push	 2
  0000d	e8 00 00 00 00	 call	 ?Recv@CNetworkStream@@QAE_NHPAX@Z ; CNetworkStream::Recv
  00012	84 c0		 test	 al, al
  00014	75 05		 jne	 SHORT $LN1@RecvMallOp
  00016	5e		 pop	 esi

; 173  : }

  00017	8b e5		 mov	 esp, ebp
  00019	5d		 pop	 ebp
  0001a	c3		 ret	 0
$LN1@RecvMallOp:

; 167  : 		return false;
; 168  : 
; 169  : 	CPythonSafeBox::Instance().OpenMall(kMallOpen.bSize);

  0001b	0f b6 45 fd	 movzx	 eax, BYTE PTR _kMallOpen$[ebp+1]
  0001f	8b 0d 00 00 00
	00		 mov	 ecx, DWORD PTR ?ms_singleton@?$CSingleton@VCPythonSafeBox@@@@0PAVCPythonSafeBox@@A ; CSingleton<CPythonSafeBox>::ms_singleton
  00025	50		 push	 eax
  00026	e8 00 00 00 00	 call	 ?OpenMall@CPythonSafeBox@@QAEXH@Z ; CPythonSafeBox::OpenMall

; 170  : 	PyCallClassMemberFunc(m_apoPhaseWnd[PHASE_WINDOW_GAME], "OpenMallWindow", Py_BuildValue("(i)", kMallOpen.bSize));

  0002b	0f b6 45 fd	 movzx	 eax, BYTE PTR _kMallOpen$[ebp+1]
  0002f	50		 push	 eax
  00030	68 00 00 00 00	 push	 OFFSET ??_C@_03LIHNMIHG@?$CIi?$CJ?$AA@
  00035	ff 15 00 00 00
	00		 call	 DWORD PTR __imp__Py_BuildValue
  0003b	50		 push	 eax
  0003c	68 00 00 00 00	 push	 OFFSET ??_C@_0P@OIFPJOPL@OpenMallWindow?$AA@
  00041	ff b6 90 01 00
	00		 push	 DWORD PTR [esi+400]
  00047	e8 00 00 00 00	 call	 ?PyCallClassMemberFunc@@YA_NPAU_object@@PBD0@Z ; PyCallClassMemberFunc
  0004c	83 c4 14	 add	 esp, 20			; 00000014H

; 171  : 
; 172  : 	return true;

  0004f	b0 01		 mov	 al, 1
  00051	5e		 pop	 esi

; 173  : }

  00052	8b e5		 mov	 esp, ebp
  00054	5d		 pop	 ebp
  00055	c3		 ret	 0
?RecvMallOpenPacket@CPythonNetworkStream@@QAE_NXZ ENDP	; CPythonNetworkStream::RecvMallOpenPacket
_TEXT	ENDS
; Function compile flags: /Ogtp
; File d:\metin2\metin2\client_source_clean\client_source_clean\source\userinterface\pythonnetworkstreamphasegameitem.cpp
;	COMDAT ?RecvSpecialEffect@CPythonNetworkStream@@IAE_NXZ
_TEXT	SEGMENT
_kSpecialEffect$ = -8					; size = 6
?RecvSpecialEffect@CPythonNetworkStream@@IAE_NXZ PROC	; CPythonNetworkStream::RecvSpecialEffect, COMDAT
; _this$ = ecx

; 769  : {

  00000	55		 push	 ebp
  00001	8b ec		 mov	 ebp, esp
  00003	83 ec 08	 sub	 esp, 8

; 770  : 	TPacketGCSpecialEffect kSpecialEffect;
; 771  : 	if (!Recv(sizeof(kSpecialEffect), &kSpecialEffect))

  00006	8d 45 f8	 lea	 eax, DWORD PTR _kSpecialEffect$[ebp]
  00009	50		 push	 eax
  0000a	6a 06		 push	 6
  0000c	e8 00 00 00 00	 call	 ?Recv@CNetworkStream@@QAE_NHPAX@Z ; CNetworkStream::Recv
  00011	84 c0		 test	 al, al
  00013	75 04		 jne	 SHORT $LN34@RecvSpecia

; 891  : }

  00015	8b e5		 mov	 esp, ebp
  00017	5d		 pop	 ebp
  00018	c3		 ret	 0
$LN34@RecvSpecia:

; 772  : 		return false;
; 773  : 
; 774  : 	DWORD effect = -1;
; 775  : 	bool bPlayPotionSound = false;	//포션을 먹을 경우는 포션 사운드를 출력하자.!!
; 776  : 	bool bAttachEffect = true;		//캐리터에 붙는 어태치 이펙트와 일반 이펙트 구분.!!
; 777  : 	switch (kSpecialEffect.type)

  00019	0f b6 45 f9	 movzx	 eax, BYTE PTR _kSpecialEffect$[ebp+1]
  0001d	53		 push	 ebx
  0001e	56		 push	 esi
  0001f	b3 01		 mov	 bl, 1
  00021	8d 48 ff	 lea	 ecx, DWORD PTR [eax-1]
  00024	83 f9 17	 cmp	 ecx, 23			; 00000017H
  00027	0f 87 23 01 00
	00		 ja	 $LN7@RecvSpecia
  0002d	ff 24 8d 00 00
	00 00		 jmp	 DWORD PTR $LN46@RecvSpecia[ecx*4]
$LN31@RecvSpecia:

; 778  : 	{
; 779  : 		case SE_HPUP_RED:
; 780  : 			effect = CInstanceBase::EFFECT_HPUP_RED;

  00034	be 0d 00 00 00	 mov	 esi, 13			; 0000000dH

; 781  : 			bPlayPotionSound = true;
; 782  : 			break;

  00039	eb 13		 jmp	 SHORT $LN43@RecvSpecia
$LN30@RecvSpecia:

; 783  : 		case SE_SPUP_BLUE:
; 784  : 			effect = CInstanceBase::EFFECT_SPUP_BLUE;

  0003b	be 0e 00 00 00	 mov	 esi, 14			; 0000000eH

; 785  : 			bPlayPotionSound = true;
; 786  : 			break;

  00040	eb 0c		 jmp	 SHORT $LN43@RecvSpecia
$LN29@RecvSpecia:

; 787  : 		case SE_SPEEDUP_GREEN:
; 788  : 			effect = CInstanceBase::EFFECT_SPEEDUP_GREEN;

  00042	be 0f 00 00 00	 mov	 esi, 15			; 0000000fH

; 789  : 			bPlayPotionSound = true;
; 790  : 			break;

  00047	eb 05		 jmp	 SHORT $LN43@RecvSpecia
$LN28@RecvSpecia:

; 791  : 		case SE_DXUP_PURPLE:
; 792  : 			effect = CInstanceBase::EFFECT_DXUP_PURPLE;

  00049	be 10 00 00 00	 mov	 esi, 16			; 00000010H
$LN43@RecvSpecia:

; 865  : 			break;
; 866  : 	}
; 867  : 
; 868  : 	if (bPlayPotionSound)
; 869  : 	{		
; 870  : 		IAbstractPlayer& rkPlayer=IAbstractPlayer::GetSingleton();

  0004e	8b 0d 00 00 00
	00		 mov	 ecx, DWORD PTR ?ms_singleton@?$TAbstractSingleton@VIAbstractPlayer@@@@0PAVIAbstractPlayer@@A ; TAbstractSingleton<IAbstractPlayer>::ms_singleton

; 871  : 		if(rkPlayer.IsMainCharacterIndex(kSpecialEffect.vid))

  00054	ff 75 fa	 push	 DWORD PTR _kSpecialEffect$[ebp+2]
  00057	8b 01		 mov	 eax, DWORD PTR [ecx]
  00059	8b 40 0c	 mov	 eax, DWORD PTR [eax+12]
  0005c	ff d0		 call	 eax
  0005e	84 c0		 test	 al, al
  00060	74 0b		 je	 SHORT $LN5@RecvSpecia

; 872  : 		{
; 873  : 			CPythonItem& rkItem=CPythonItem::Instance();
; 874  : 			rkItem.PlayUsePotionSound();

  00062	8b 0d 00 00 00
	00		 mov	 ecx, DWORD PTR ?ms_singleton@?$CSingleton@VCPythonItem@@@@0PAVCPythonItem@@A ; CSingleton<CPythonItem>::ms_singleton
  00068	e8 00 00 00 00	 call	 ?PlayUsePotionSound@CPythonItem@@QAEXXZ ; CPythonItem::PlayUsePotionSound
$LN5@RecvSpecia:

; 875  : 		}
; 876  : 	}
; 877  : 
; 878  : 	if (-1 != effect)

  0006d	83 fe ff	 cmp	 esi, -1
  00070	0f 84 e8 00 00
	00		 je	 $LN1@RecvSpecia
  00076	e9 9f 00 00 00	 jmp	 $LN44@RecvSpecia
$LN27@RecvSpecia:

; 793  : 			bPlayPotionSound = true;
; 794  : 			break;
; 795  : 		case SE_CRITICAL:
; 796  : 			effect = CInstanceBase::EFFECT_CRITICAL;

  0007b	be 11 00 00 00	 mov	 esi, 17			; 00000011H

; 797  : 			break;

  00080	e9 95 00 00 00	 jmp	 $LN44@RecvSpecia
$LN26@RecvSpecia:

; 798  : 		case SE_PENETRATE:
; 799  : 			effect = CInstanceBase::EFFECT_PENETRATE;

  00085	be 12 00 00 00	 mov	 esi, 18			; 00000012H

; 800  : 			break;

  0008a	e9 8b 00 00 00	 jmp	 $LN44@RecvSpecia
$LN25@RecvSpecia:

; 801  : 		case SE_BLOCK:
; 802  : 			effect = CInstanceBase::EFFECT_BLOCK;

  0008f	be 13 00 00 00	 mov	 esi, 19			; 00000013H

; 803  : 			break;

  00094	e9 81 00 00 00	 jmp	 $LN44@RecvSpecia
$LN24@RecvSpecia:

; 804  : 		case SE_DODGE:
; 805  : 			effect = CInstanceBase::EFFECT_DODGE;

  00099	be 14 00 00 00	 mov	 esi, 20			; 00000014H

; 806  : 			break;

  0009e	eb 7a		 jmp	 SHORT $LN44@RecvSpecia
$LN23@RecvSpecia:

; 807  : 		case SE_CHINA_FIREWORK:
; 808  : 			effect = CInstanceBase::EFFECT_FIRECRACKER;

  000a0	be 15 00 00 00	 mov	 esi, 21			; 00000015H

; 809  : 			bAttachEffect = false;

  000a5	32 db		 xor	 bl, bl

; 810  : 			break;

  000a7	eb 71		 jmp	 SHORT $LN44@RecvSpecia
$LN22@RecvSpecia:

; 811  : 		case SE_SPIN_TOP:
; 812  : 			effect = CInstanceBase::EFFECT_SPIN_TOP;

  000a9	be 16 00 00 00	 mov	 esi, 22			; 00000016H

; 813  : 			bAttachEffect = false;

  000ae	32 db		 xor	 bl, bl

; 814  : 			break;

  000b0	eb 68		 jmp	 SHORT $LN44@RecvSpecia
$LN21@RecvSpecia:

; 815  : 		case SE_SUCCESS :
; 816  : 			effect = CInstanceBase::EFFECT_SUCCESS ;

  000b2	be 03 01 00 00	 mov	 esi, 259		; 00000103H

; 817  : 			bAttachEffect = false ;

  000b7	32 db		 xor	 bl, bl

; 818  : 			break ;

  000b9	eb 5f		 jmp	 SHORT $LN44@RecvSpecia
$LN20@RecvSpecia:

; 819  : 		case SE_FAIL :
; 820  : 			effect = CInstanceBase::EFFECT_FAIL ;

  000bb	be 04 01 00 00	 mov	 esi, 260		; 00000104H

; 821  : 			break ;

  000c0	eb 58		 jmp	 SHORT $LN44@RecvSpecia
$LN19@RecvSpecia:

; 822  : 		case SE_FR_SUCCESS:
; 823  : 			effect = CInstanceBase::EFFECT_FR_SUCCESS;

  000c2	be 05 01 00 00	 mov	 esi, 261		; 00000105H

; 824  : 			bAttachEffect = false ;

  000c7	32 db		 xor	 bl, bl

; 825  : 			break;

  000c9	eb 4f		 jmp	 SHORT $LN44@RecvSpecia
$LN18@RecvSpecia:

; 826  : 		case SE_LEVELUP_ON_14_FOR_GERMANY:	//레벨업 14일때 ( 독일전용 )
; 827  : 			effect = CInstanceBase::EFFECT_LEVELUP_ON_14_FOR_GERMANY;

  000cb	be 06 01 00 00	 mov	 esi, 262		; 00000106H

; 828  : 			bAttachEffect = false ;

  000d0	32 db		 xor	 bl, bl

; 829  : 			break;

  000d2	eb 46		 jmp	 SHORT $LN44@RecvSpecia
$LN17@RecvSpecia:

; 830  : 		case SE_LEVELUP_UNDER_15_FOR_GERMANY: //레벨업 15일때 ( 독일전용 )
; 831  : 			effect = CInstanceBase::EFFECT_LEVELUP_UNDER_15_FOR_GERMANY;

  000d4	be 07 01 00 00	 mov	 esi, 263		; 00000107H

; 832  : 			bAttachEffect = false ;

  000d9	32 db		 xor	 bl, bl

; 833  : 			break;

  000db	eb 3d		 jmp	 SHORT $LN44@RecvSpecia
$LN16@RecvSpecia:

; 834  : 		case SE_PERCENT_DAMAGE1:
; 835  : 			effect = CInstanceBase::EFFECT_PERCENT_DAMAGE1;

  000dd	be 08 01 00 00	 mov	 esi, 264		; 00000108H

; 836  : 			break;

  000e2	eb 36		 jmp	 SHORT $LN44@RecvSpecia
$LN15@RecvSpecia:

; 837  : 		case SE_PERCENT_DAMAGE2:
; 838  : 			effect = CInstanceBase::EFFECT_PERCENT_DAMAGE2;

  000e4	be 09 01 00 00	 mov	 esi, 265		; 00000109H

; 839  : 			break;

  000e9	eb 2f		 jmp	 SHORT $LN44@RecvSpecia
$LN14@RecvSpecia:

; 840  : 		case SE_PERCENT_DAMAGE3:
; 841  : 			effect = CInstanceBase::EFFECT_PERCENT_DAMAGE3;

  000eb	be 0a 01 00 00	 mov	 esi, 266		; 0000010aH

; 842  : 			break;

  000f0	eb 28		 jmp	 SHORT $LN44@RecvSpecia
$LN13@RecvSpecia:

; 843  : 		case SE_AUTO_HPUP:
; 844  : 			effect = CInstanceBase::EFFECT_AUTO_HPUP;

  000f2	be 0b 01 00 00	 mov	 esi, 267		; 0000010bH

; 845  : 			break;

  000f7	eb 21		 jmp	 SHORT $LN44@RecvSpecia
$LN12@RecvSpecia:

; 846  : 		case SE_AUTO_SPUP:
; 847  : 			effect = CInstanceBase::EFFECT_AUTO_SPUP;

  000f9	be 0c 01 00 00	 mov	 esi, 268		; 0000010cH

; 848  : 			break;

  000fe	eb 1a		 jmp	 SHORT $LN44@RecvSpecia
$LN11@RecvSpecia:

; 849  : 		case SE_EQUIP_RAMADAN_RING:
; 850  : 			effect = CInstanceBase::EFFECT_RAMADAN_RING_EQUIP;

  00100	be 0d 01 00 00	 mov	 esi, 269		; 0000010dH

; 851  : 			break;

  00105	eb 13		 jmp	 SHORT $LN44@RecvSpecia
$LN10@RecvSpecia:

; 852  : 		case SE_EQUIP_HALLOWEEN_CANDY:
; 853  : 			effect = CInstanceBase::EFFECT_HALLOWEEN_CANDY_EQUIP;

  00107	be 0e 01 00 00	 mov	 esi, 270		; 0000010eH

; 854  : 			break;

  0010c	eb 0c		 jmp	 SHORT $LN44@RecvSpecia
$LN9@RecvSpecia:

; 855  : 		case SE_EQUIP_HAPPINESS_RING:
; 856  :  			effect = CInstanceBase::EFFECT_HAPPINESS_RING_EQUIP;

  0010e	be 0f 01 00 00	 mov	 esi, 271		; 0000010fH

; 857  : 			break;

  00113	eb 05		 jmp	 SHORT $LN44@RecvSpecia
$LN8@RecvSpecia:

; 858  : 		case SE_EQUIP_LOVE_PENDANT:
; 859  : 			effect = CInstanceBase::EFFECT_LOVE_PENDANT_EQUIP;

  00115	be 10 01 00 00	 mov	 esi, 272		; 00000110H
$LN44@RecvSpecia:

; 879  : 	{
; 880  : 		CInstanceBase * pInstance = CPythonCharacterManager::Instance().GetInstancePtr(kSpecialEffect.vid);

  0011a	8b 0d 00 00 00
	00		 mov	 ecx, DWORD PTR ?ms_singleton@?$CSingleton@VCPythonCharacterManager@@@@0PAVCPythonCharacterManager@@A ; CSingleton<CPythonCharacterManager>::ms_singleton
  00120	ff 75 fa	 push	 DWORD PTR _kSpecialEffect$[ebp+2]
  00123	83 c1 04	 add	 ecx, 4
  00126	8b 01		 mov	 eax, DWORD PTR [ecx]
  00128	ff 50 08	 call	 DWORD PTR [eax+8]

; 881  : 		if (pInstance)

  0012b	85 c0		 test	 eax, eax
  0012d	74 2f		 je	 SHORT $LN1@RecvSpecia

; 882  : 		{
; 883  : 			if(bAttachEffect)
; 884  : 				pInstance->AttachSpecialEffect(effect);

  0012f	8b c8		 mov	 ecx, eax
  00131	56		 push	 esi
  00132	84 db		 test	 bl, bl
  00134	74 0d		 je	 SHORT $LN2@RecvSpecia
  00136	e8 00 00 00 00	 call	 ?AttachSpecialEffect@CInstanceBase@@QAEXK@Z ; CInstanceBase::AttachSpecialEffect
  0013b	5e		 pop	 esi

; 887  : 		}
; 888  : 	}
; 889  : 
; 890  : 	return true;

  0013c	b0 01		 mov	 al, 1
  0013e	5b		 pop	 ebx

; 891  : }

  0013f	8b e5		 mov	 esp, ebp
  00141	5d		 pop	 ebp
  00142	c3		 ret	 0
$LN2@RecvSpecia:

; 885  : 			else
; 886  : 				pInstance->CreateSpecialEffect(effect);

  00143	e8 00 00 00 00	 call	 ?CreateSpecialEffect@CInstanceBase@@QAEXK@Z ; CInstanceBase::CreateSpecialEffect
  00148	5e		 pop	 esi

; 887  : 		}
; 888  : 	}
; 889  : 
; 890  : 	return true;

  00149	b0 01		 mov	 al, 1
  0014b	5b		 pop	 ebx

; 891  : }

  0014c	8b e5		 mov	 esp, ebp
  0014e	5d		 pop	 ebp
  0014f	c3		 ret	 0
$LN7@RecvSpecia:

; 860  : 			break;
; 861  : 
; 862  : 		
; 863  : 		default:
; 864  : 			TraceError("%d 는 없는 스페셜 이펙트 번호입니다.TPacketGCSpecialEffect",kSpecialEffect.type);

  00150	50		 push	 eax
  00151	68 00 00 00 00	 push	 OFFSET ??_C@_0DL@PLJBBCEI@?$CFd?5?$LE?B?5?$LO?x?$LE?B?5?$LN?$LK?F?d?$LM?H?5?$MA?L?F?e?F?$KO?5?$LJ?x?H?$KD?$MA?T?$LE@
  00156	e8 00 00 00 00	 call	 ?TraceError@@YAXPBDZZ	; TraceError
  0015b	83 c4 08	 add	 esp, 8
$LN1@RecvSpecia:

; 887  : 		}
; 888  : 	}
; 889  : 
; 890  : 	return true;

  0015e	5e		 pop	 esi
  0015f	b0 01		 mov	 al, 1
  00161	5b		 pop	 ebx

; 891  : }

  00162	8b e5		 mov	 esp, ebp
  00164	5d		 pop	 ebp
  00165	c3		 ret	 0
  00166	8b ff		 npad	 2
$LN46@RecvSpecia:
  00168	00 00 00 00	 DD	 $LN31@RecvSpecia
  0016c	00 00 00 00	 DD	 $LN30@RecvSpecia
  00170	00 00 00 00	 DD	 $LN29@RecvSpecia
  00174	00 00 00 00	 DD	 $LN28@RecvSpecia
  00178	00 00 00 00	 DD	 $LN27@RecvSpecia
  0017c	00 00 00 00	 DD	 $LN26@RecvSpecia
  00180	00 00 00 00	 DD	 $LN25@RecvSpecia
  00184	00 00 00 00	 DD	 $LN24@RecvSpecia
  00188	00 00 00 00	 DD	 $LN23@RecvSpecia
  0018c	00 00 00 00	 DD	 $LN22@RecvSpecia
  00190	00 00 00 00	 DD	 $LN21@RecvSpecia
  00194	00 00 00 00	 DD	 $LN20@RecvSpecia
  00198	00 00 00 00	 DD	 $LN19@RecvSpecia
  0019c	00 00 00 00	 DD	 $LN18@RecvSpecia
  001a0	00 00 00 00	 DD	 $LN17@RecvSpecia
  001a4	00 00 00 00	 DD	 $LN16@RecvSpecia
  001a8	00 00 00 00	 DD	 $LN15@RecvSpecia
  001ac	00 00 00 00	 DD	 $LN14@RecvSpecia
  001b0	00 00 00 00	 DD	 $LN13@RecvSpecia
  001b4	00 00 00 00	 DD	 $LN12@RecvSpecia
  001b8	00 00 00 00	 DD	 $LN11@RecvSpecia
  001bc	00 00 00 00	 DD	 $LN10@RecvSpecia
  001c0	00 00 00 00	 DD	 $LN9@RecvSpecia
  001c4	00 00 00 00	 DD	 $LN8@RecvSpecia
?RecvSpecialEffect@CPythonNetworkStream@@IAE_NXZ ENDP	; CPythonNetworkStream::RecvSpecialEffect
_TEXT	ENDS
; Function compile flags: /Ogtp
; File d:\metin2\metin2\client_source_clean\client_source_clean\source\userinterface\pythonnetworkstreamphasegameitem.cpp
;	COMDAT ?RecvSafeBoxMoneyChangePacket@CPythonNetworkStream@@IAE_NXZ
_TEXT	SEGMENT
_kMoneyChange$ = -8					; size = 5
?RecvSafeBoxMoneyChangePacket@CPythonNetworkStream@@IAE_NXZ PROC ; CPythonNetworkStream::RecvSafeBoxMoneyChangePacket, COMDAT
; _this$ = ecx

; 133  : {

  00000	55		 push	 ebp
  00001	8b ec		 mov	 ebp, esp
  00003	83 ec 08	 sub	 esp, 8

; 134  : 	TPacketGCSafeboxMoneyChange kMoneyChange;
; 135  : 	if (!Recv(sizeof(kMoneyChange), &kMoneyChange))

  00006	8d 45 f8	 lea	 eax, DWORD PTR _kMoneyChange$[ebp]
  00009	56		 push	 esi
  0000a	50		 push	 eax
  0000b	6a 05		 push	 5
  0000d	8b f1		 mov	 esi, ecx
  0000f	e8 00 00 00 00	 call	 ?Recv@CNetworkStream@@QAE_NHPAX@Z ; CNetworkStream::Recv
  00014	84 c0		 test	 al, al
  00016	75 05		 jne	 SHORT $LN1@RecvSafeBo
  00018	5e		 pop	 esi

; 142  : }

  00019	8b e5		 mov	 esp, ebp
  0001b	5d		 pop	 ebp
  0001c	c3		 ret	 0
$LN1@RecvSafeBo:

; 136  : 		return false;
; 137  : 
; 138  : 	CPythonSafeBox::Instance().SetMoney(kMoneyChange.dwMoney);

  0001d	ff 75 f9	 push	 DWORD PTR _kMoneyChange$[ebp+1]
  00020	8b 0d 00 00 00
	00		 mov	 ecx, DWORD PTR ?ms_singleton@?$CSingleton@VCPythonSafeBox@@@@0PAVCPythonSafeBox@@A ; CSingleton<CPythonSafeBox>::ms_singleton
  00026	e8 00 00 00 00	 call	 ?SetMoney@CPythonSafeBox@@QAEXK@Z ; CPythonSafeBox::SetMoney

; 139  : 	PyCallClassMemberFunc(m_apoPhaseWnd[PHASE_WINDOW_GAME], "RefreshSafeboxMoney", Py_BuildValue("()"));

  0002b	68 00 00 00 00	 push	 OFFSET ??_C@_02HCKGKOFO@?$CI?$CJ?$AA@
  00030	ff 15 00 00 00
	00		 call	 DWORD PTR __imp__Py_BuildValue
  00036	50		 push	 eax
  00037	68 00 00 00 00	 push	 OFFSET ??_C@_0BE@OHCDIKPF@RefreshSafeboxMoney?$AA@
  0003c	ff b6 90 01 00
	00		 push	 DWORD PTR [esi+400]
  00042	e8 00 00 00 00	 call	 ?PyCallClassMemberFunc@@YA_NPAU_object@@PBD0@Z ; PyCallClassMemberFunc
  00047	83 c4 10	 add	 esp, 16			; 00000010H

; 140  : 
; 141  : 	return true;

  0004a	b0 01		 mov	 al, 1
  0004c	5e		 pop	 esi

; 142  : }

  0004d	8b e5		 mov	 esp, ebp
  0004f	5d		 pop	 ebp
  00050	c3		 ret	 0
?RecvSafeBoxMoneyChangePacket@CPythonNetworkStream@@IAE_NXZ ENDP ; CPythonNetworkStream::RecvSafeBoxMoneyChangePacket
_TEXT	ENDS
; Function compile flags: /Ogtp
; File d:\metin2\metin2\client_source_clean\client_source_clean\source\userinterface\pythonnetworkstreamphasegameitem.cpp
;	COMDAT ?RecvSafeBoxSizePacket@CPythonNetworkStream@@IAE_NXZ
_TEXT	SEGMENT
_kSafeBoxSize$ = -4					; size = 2
?RecvSafeBoxSizePacket@CPythonNetworkStream@@IAE_NXZ PROC ; CPythonNetworkStream::RecvSafeBoxSizePacket, COMDAT
; _this$ = ecx

; 121  : {

  00000	55		 push	 ebp
  00001	8b ec		 mov	 ebp, esp
  00003	51		 push	 ecx
  00004	56		 push	 esi

; 122  : 	TPacketGCSafeboxSize kSafeBoxSize;
; 123  : 	if (!Recv(sizeof(kSafeBoxSize), &kSafeBoxSize))

  00005	8d 45 fc	 lea	 eax, DWORD PTR _kSafeBoxSize$[ebp]
  00008	8b f1		 mov	 esi, ecx
  0000a	50		 push	 eax
  0000b	6a 02		 push	 2
  0000d	e8 00 00 00 00	 call	 ?Recv@CNetworkStream@@QAE_NHPAX@Z ; CNetworkStream::Recv
  00012	84 c0		 test	 al, al
  00014	75 05		 jne	 SHORT $LN1@RecvSafeBo
  00016	5e		 pop	 esi

; 130  : }

  00017	8b e5		 mov	 esp, ebp
  00019	5d		 pop	 ebp
  0001a	c3		 ret	 0
$LN1@RecvSafeBo:

; 124  : 		return false;
; 125  : 
; 126  : 	CPythonSafeBox::Instance().OpenSafeBox(kSafeBoxSize.bSize);

  0001b	0f b6 45 fd	 movzx	 eax, BYTE PTR _kSafeBoxSize$[ebp+1]
  0001f	8b 0d 00 00 00
	00		 mov	 ecx, DWORD PTR ?ms_singleton@?$CSingleton@VCPythonSafeBox@@@@0PAVCPythonSafeBox@@A ; CSingleton<CPythonSafeBox>::ms_singleton
  00025	50		 push	 eax
  00026	e8 00 00 00 00	 call	 ?OpenSafeBox@CPythonSafeBox@@QAEXH@Z ; CPythonSafeBox::OpenSafeBox

; 127  : 	PyCallClassMemberFunc(m_apoPhaseWnd[PHASE_WINDOW_GAME], "OpenSafeboxWindow", Py_BuildValue("(i)", kSafeBoxSize.bSize));

  0002b	0f b6 45 fd	 movzx	 eax, BYTE PTR _kSafeBoxSize$[ebp+1]
  0002f	50		 push	 eax
  00030	68 00 00 00 00	 push	 OFFSET ??_C@_03LIHNMIHG@?$CIi?$CJ?$AA@
  00035	ff 15 00 00 00
	00		 call	 DWORD PTR __imp__Py_BuildValue
  0003b	50		 push	 eax
  0003c	68 00 00 00 00	 push	 OFFSET ??_C@_0BC@GDFDGKCD@OpenSafeboxWindow?$AA@
  00041	ff b6 90 01 00
	00		 push	 DWORD PTR [esi+400]
  00047	e8 00 00 00 00	 call	 ?PyCallClassMemberFunc@@YA_NPAU_object@@PBD0@Z ; PyCallClassMemberFunc
  0004c	83 c4 14	 add	 esp, 20			; 00000014H

; 128  : 
; 129  : 	return true;

  0004f	b0 01		 mov	 al, 1
  00051	5e		 pop	 esi

; 130  : }

  00052	8b e5		 mov	 esp, ebp
  00054	5d		 pop	 ebp
  00055	c3		 ret	 0
?RecvSafeBoxSizePacket@CPythonNetworkStream@@IAE_NXZ ENDP ; CPythonNetworkStream::RecvSafeBoxSizePacket
_TEXT	ENDS
; Function compile flags: /Ogtp
; File d:\metin2\metin2\client_source_clean\client_source_clean\source\userinterface\pythonnetworkstreamphasegameitem.cpp
;	COMDAT ?RecvSafeBoxWrongPasswordPacket@CPythonNetworkStream@@IAE_NXZ
_TEXT	SEGMENT
_kSafeboxWrongPassword$ = -1				; size = 1
?RecvSafeBoxWrongPasswordPacket@CPythonNetworkStream@@IAE_NXZ PROC ; CPythonNetworkStream::RecvSafeBoxWrongPasswordPacket, COMDAT
; _this$ = ecx

; 109  : {

  00000	55		 push	 ebp
  00001	8b ec		 mov	 ebp, esp
  00003	51		 push	 ecx
  00004	56		 push	 esi

; 110  : 	TPacketGCSafeboxWrongPassword kSafeboxWrongPassword;
; 111  : 
; 112  : 	if (!Recv(sizeof(kSafeboxWrongPassword), &kSafeboxWrongPassword))

  00005	8d 45 ff	 lea	 eax, DWORD PTR _kSafeboxWrongPassword$[ebp]
  00008	8b f1		 mov	 esi, ecx
  0000a	50		 push	 eax
  0000b	6a 01		 push	 1
  0000d	e8 00 00 00 00	 call	 ?Recv@CNetworkStream@@QAE_NHPAX@Z ; CNetworkStream::Recv
  00012	84 c0		 test	 al, al
  00014	75 05		 jne	 SHORT $LN1@RecvSafeBo
  00016	5e		 pop	 esi

; 118  : }

  00017	8b e5		 mov	 esp, ebp
  00019	5d		 pop	 ebp
  0001a	c3		 ret	 0
$LN1@RecvSafeBo:

; 113  : 		return false;
; 114  : 
; 115  : 	PyCallClassMemberFunc(m_apoPhaseWnd[PHASE_WINDOW_GAME], "OnSafeBoxError", Py_BuildValue("()"));

  0001b	68 00 00 00 00	 push	 OFFSET ??_C@_02HCKGKOFO@?$CI?$CJ?$AA@
  00020	ff 15 00 00 00
	00		 call	 DWORD PTR __imp__Py_BuildValue
  00026	50		 push	 eax
  00027	68 00 00 00 00	 push	 OFFSET ??_C@_0P@BMBKKGBC@OnSafeBoxError?$AA@
  0002c	ff b6 90 01 00
	00		 push	 DWORD PTR [esi+400]
  00032	e8 00 00 00 00	 call	 ?PyCallClassMemberFunc@@YA_NPAU_object@@PBD0@Z ; PyCallClassMemberFunc
  00037	83 c4 10	 add	 esp, 16			; 00000010H

; 116  : 
; 117  : 	return true;

  0003a	b0 01		 mov	 al, 1
  0003c	5e		 pop	 esi

; 118  : }

  0003d	8b e5		 mov	 esp, ebp
  0003f	5d		 pop	 ebp
  00040	c3		 ret	 0
?RecvSafeBoxWrongPasswordPacket@CPythonNetworkStream@@IAE_NXZ ENDP ; CPythonNetworkStream::RecvSafeBoxWrongPasswordPacket
_TEXT	ENDS
; Function compile flags: /Ogtp
; File d:\metin2\metin2\client_source_clean\client_source_clean\source\userinterface\pythonnetworkstreamphasegameitem.cpp
;	COMDAT ?RecvSafeBoxDelPacket@CPythonNetworkStream@@IAE_NXZ
_TEXT	SEGMENT
_kItemDel$ = -4						; size = 2
?RecvSafeBoxDelPacket@CPythonNetworkStream@@IAE_NXZ PROC ; CPythonNetworkStream::RecvSafeBoxDelPacket, COMDAT
; _this$ = ecx

; 96   : {

  00000	55		 push	 ebp
  00001	8b ec		 mov	 ebp, esp
  00003	51		 push	 ecx
  00004	56		 push	 esi

; 97   : 	TPacketGCItemDel kItemDel;
; 98   : 	if (!Recv(sizeof(kItemDel), &kItemDel))

  00005	8d 45 fc	 lea	 eax, DWORD PTR _kItemDel$[ebp]
  00008	8b f1		 mov	 esi, ecx
  0000a	50		 push	 eax
  0000b	6a 02		 push	 2
  0000d	e8 00 00 00 00	 call	 ?Recv@CNetworkStream@@QAE_NHPAX@Z ; CNetworkStream::Recv
  00012	84 c0		 test	 al, al
  00014	75 05		 jne	 SHORT $LN1@RecvSafeBo
  00016	5e		 pop	 esi

; 106  : }

  00017	8b e5		 mov	 esp, ebp
  00019	5d		 pop	 ebp
  0001a	c3		 ret	 0
$LN1@RecvSafeBo:

; 99   : 		return false;
; 100  : 
; 101  : 	CPythonSafeBox::Instance().DelItemData(kItemDel.pos);

  0001b	0f b6 45 fd	 movzx	 eax, BYTE PTR _kItemDel$[ebp+1]
  0001f	8b 0d 00 00 00
	00		 mov	 ecx, DWORD PTR ?ms_singleton@?$CSingleton@VCPythonSafeBox@@@@0PAVCPythonSafeBox@@A ; CSingleton<CPythonSafeBox>::ms_singleton
  00025	50		 push	 eax
  00026	e8 00 00 00 00	 call	 ?DelItemData@CPythonSafeBox@@QAEXK@Z ; CPythonSafeBox::DelItemData

; 102  : 
; 103  : 	__RefreshSafeboxWindow();

  0002b	8b ce		 mov	 ecx, esi
  0002d	e8 00 00 00 00	 call	 ?__RefreshSafeboxWindow@CPythonNetworkStream@@IAEXXZ ; CPythonNetworkStream::__RefreshSafeboxWindow

; 104  : 
; 105  : 	return true;

  00032	b0 01		 mov	 al, 1
  00034	5e		 pop	 esi

; 106  : }

  00035	8b e5		 mov	 esp, ebp
  00037	5d		 pop	 ebp
  00038	c3		 ret	 0
?RecvSafeBoxDelPacket@CPythonNetworkStream@@IAE_NXZ ENDP ; CPythonNetworkStream::RecvSafeBoxDelPacket
_TEXT	ENDS
; Function compile flags: /Ogtp
; File d:\metin2\metin2\client_source_clean\client_source_clean\source\userinterface\pythonnetworkstreamphasegameitem.cpp
; File d:\metin2\metin2\client_source_clean\client_source_clean\source\userinterface\gametype.h
; File d:\metin2\metin2\client_source_clean\client_source_clean\source\userinterface\pythonnetworkstreamphasegameitem.cpp
;	COMDAT ?RecvSafeBoxSetPacket@CPythonNetworkStream@@IAE_NXZ
_TEXT	SEGMENT
_kItemData$ = -104					; size = 46
_kItemSet$ = -56					; size = 51
__$ArrayPad$ = -4					; size = 4
?RecvSafeBoxSetPacket@CPythonNetworkStream@@IAE_NXZ PROC ; CPythonNetworkStream::RecvSafeBoxSetPacket, COMDAT
; _this$ = ecx

; 73   : {

  00000	55		 push	 ebp
  00001	8b ec		 mov	 ebp, esp
  00003	83 ec 68	 sub	 esp, 104		; 00000068H
  00006	a1 00 00 00 00	 mov	 eax, DWORD PTR ___security_cookie
  0000b	33 c5		 xor	 eax, ebp
  0000d	89 45 fc	 mov	 DWORD PTR __$ArrayPad$[ebp], eax
; File d:\metin2\metin2\client_source_clean\client_source_clean\source\userinterface\gametype.h

; 187  : 		cell = WORD_MAX;

  00010	b8 ff ff 00 00	 mov	 eax, 65535		; 0000ffffH
  00015	c6 45 c9 01	 mov	 BYTE PTR _kItemSet$[ebp+1], 1
  00019	56		 push	 esi
  0001a	66 89 45 ca	 mov	 WORD PTR _kItemSet$[ebp+2], ax
; File d:\metin2\metin2\client_source_clean\client_source_clean\source\userinterface\pythonnetworkstreamphasegameitem.cpp

; 73   : {

  0001e	8b f1		 mov	 esi, ecx

; 74   : 	TPacketGCItemSet2 kItemSet;
; 75   : 	if (!Recv(sizeof(kItemSet), &kItemSet))

  00020	8d 45 c8	 lea	 eax, DWORD PTR _kItemSet$[ebp]
  00023	50		 push	 eax
  00024	6a 33		 push	 51			; 00000033H
  00026	e8 00 00 00 00	 call	 ?Recv@CNetworkStream@@QAE_NHPAX@Z ; CNetworkStream::Recv
  0002b	84 c0		 test	 al, al
  0002d	75 0f		 jne	 SHORT $LN7@RecvSafeBo
  0002f	5e		 pop	 esi

; 91   : 
; 92   : 	return true;
; 93   : }

  00030	8b 4d fc	 mov	 ecx, DWORD PTR __$ArrayPad$[ebp]
  00033	33 cd		 xor	 ecx, ebp
  00035	e8 00 00 00 00	 call	 @__security_check_cookie@4
  0003a	8b e5		 mov	 esp, ebp
  0003c	5d		 pop	 ebp
  0003d	c3		 ret	 0
$LN7@RecvSafeBo:

; 76   : 		return false;
; 77   : 
; 78   : 	TItemData kItemData;
; 79   : 	kItemData.vnum	= kItemSet.vnum;

  0003e	8b 45 cc	 mov	 eax, DWORD PTR _kItemSet$[ebp+4]
  00041	89 45 98	 mov	 DWORD PTR _kItemData$[ebp], eax

; 80   : 	kItemData.count = kItemSet.count;

  00044	8a 45 d0	 mov	 al, BYTE PTR _kItemSet$[ebp+8]
  00047	88 45 9c	 mov	 BYTE PTR _kItemData$[ebp+4], al

; 81   : 	kItemData.flags = kItemSet.flags;

  0004a	8b 45 d1	 mov	 eax, DWORD PTR _kItemSet$[ebp+9]
  0004d	89 45 9d	 mov	 DWORD PTR _kItemData$[ebp+5], eax

; 82   : 	kItemData.anti_flags = kItemSet.anti_flags;

  00050	8b 45 d5	 mov	 eax, DWORD PTR _kItemSet$[ebp+13]
  00053	89 45 a1	 mov	 DWORD PTR _kItemData$[ebp+9], eax

; 83   : 	for (int isocket=0; isocket<ITEM_SOCKET_SLOT_MAX_NUM; ++isocket)
; 84   : 		kItemData.alSockets[isocket] = kItemSet.alSockets[isocket];

  00056	8b 45 da	 mov	 eax, DWORD PTR _kItemSet$[ebp+18]
  00059	89 45 a5	 mov	 DWORD PTR _kItemData$[ebp+13], eax
  0005c	8b 45 de	 mov	 eax, DWORD PTR _kItemSet$[ebp+22]
  0005f	89 45 a9	 mov	 DWORD PTR _kItemData$[ebp+17], eax
  00062	8b 45 e2	 mov	 eax, DWORD PTR _kItemSet$[ebp+26]
  00065	89 45 ad	 mov	 DWORD PTR _kItemData$[ebp+21], eax

; 85   : 	for (int iattr=0; iattr<ITEM_ATTRIBUTE_SLOT_MAX_NUM; ++iattr)
; 86   : 		kItemData.aAttr[iattr] = kItemSet.aAttr[iattr];

  00068	0f b7 45 e6	 movzx	 eax, WORD PTR _kItemSet$[ebp+30]
  0006c	66 89 45 b1	 mov	 WORD PTR _kItemData$[ebp+25], ax
  00070	8a 45 e8	 mov	 al, BYTE PTR _kItemSet$[ebp+32]
  00073	88 45 b3	 mov	 BYTE PTR _kItemData$[ebp+27], al
  00076	0f b7 45 e9	 movzx	 eax, WORD PTR _kItemSet$[ebp+33]
  0007a	66 89 45 b4	 mov	 WORD PTR _kItemData$[ebp+28], ax
  0007e	8a 45 eb	 mov	 al, BYTE PTR _kItemSet$[ebp+35]
  00081	88 45 b6	 mov	 BYTE PTR _kItemData$[ebp+30], al
  00084	0f b7 45 ec	 movzx	 eax, WORD PTR _kItemSet$[ebp+36]
  00088	66 89 45 b7	 mov	 WORD PTR _kItemData$[ebp+31], ax
  0008c	8a 45 ee	 mov	 al, BYTE PTR _kItemSet$[ebp+38]
  0008f	88 45 b9	 mov	 BYTE PTR _kItemData$[ebp+33], al
  00092	0f b7 45 ef	 movzx	 eax, WORD PTR _kItemSet$[ebp+39]
  00096	66 89 45 ba	 mov	 WORD PTR _kItemData$[ebp+34], ax
  0009a	8a 45 f1	 mov	 al, BYTE PTR _kItemSet$[ebp+41]
  0009d	88 45 bc	 mov	 BYTE PTR _kItemData$[ebp+36], al
  000a0	0f b7 45 f2	 movzx	 eax, WORD PTR _kItemSet$[ebp+42]

; 87   : 
; 88   : 	CPythonSafeBox::Instance().SetItemData(kItemSet.Cell.cell, kItemData);

  000a4	8b 0d 00 00 00
	00		 mov	 ecx, DWORD PTR ?ms_singleton@?$CSingleton@VCPythonSafeBox@@@@0PAVCPythonSafeBox@@A ; CSingleton<CPythonSafeBox>::ms_singleton
  000aa	66 89 45 bd	 mov	 WORD PTR _kItemData$[ebp+37], ax
  000ae	8a 45 f4	 mov	 al, BYTE PTR _kItemSet$[ebp+44]
  000b1	88 45 bf	 mov	 BYTE PTR _kItemData$[ebp+39], al
  000b4	0f b7 45 f5	 movzx	 eax, WORD PTR _kItemSet$[ebp+45]
  000b8	66 89 45 c0	 mov	 WORD PTR _kItemData$[ebp+40], ax
  000bc	8a 45 f7	 mov	 al, BYTE PTR _kItemSet$[ebp+47]
  000bf	88 45 c2	 mov	 BYTE PTR _kItemData$[ebp+42], al
  000c2	0f b7 45 f8	 movzx	 eax, WORD PTR _kItemSet$[ebp+48]
  000c6	66 89 45 c3	 mov	 WORD PTR _kItemData$[ebp+43], ax
  000ca	8a 45 fa	 mov	 al, BYTE PTR _kItemSet$[ebp+50]
  000cd	88 45 c5	 mov	 BYTE PTR _kItemData$[ebp+45], al
  000d0	8d 45 98	 lea	 eax, DWORD PTR _kItemData$[ebp]
  000d3	50		 push	 eax
  000d4	0f b7 45 ca	 movzx	 eax, WORD PTR _kItemSet$[ebp+2]
  000d8	50		 push	 eax
  000d9	e8 00 00 00 00	 call	 ?SetItemData@CPythonSafeBox@@QAEXKABUpacket_item@@@Z ; CPythonSafeBox::SetItemData

; 89   : 
; 90   : 	__RefreshSafeboxWindow();

  000de	8b ce		 mov	 ecx, esi
  000e0	e8 00 00 00 00	 call	 ?__RefreshSafeboxWindow@CPythonNetworkStream@@IAEXXZ ; CPythonNetworkStream::__RefreshSafeboxWindow

; 91   : 
; 92   : 	return true;
; 93   : }

  000e5	8b 4d fc	 mov	 ecx, DWORD PTR __$ArrayPad$[ebp]
  000e8	b0 01		 mov	 al, 1
  000ea	33 cd		 xor	 ecx, ebp
  000ec	5e		 pop	 esi
  000ed	e8 00 00 00 00	 call	 @__security_check_cookie@4
  000f2	8b e5		 mov	 esp, ebp
  000f4	5d		 pop	 ebp
  000f5	c3		 ret	 0
?RecvSafeBoxSetPacket@CPythonNetworkStream@@IAE_NXZ ENDP ; CPythonNetworkStream::RecvSafeBoxSetPacket
_TEXT	ENDS
; Function compile flags: /Ogtp
; File d:\metin2\metin2\client_source_clean\client_source_clean\source\userinterface\pythonnetworkstreamphasegameitem.cpp
;	COMDAT ?RecvQuickSlotMovePacket@CPythonNetworkStream@@IAE_NXZ
_TEXT	SEGMENT
_packet_quick_slot_swap$ = -4				; size = 3
?RecvQuickSlotMovePacket@CPythonNetworkStream@@IAE_NXZ PROC ; CPythonNetworkStream::RecvQuickSlotMovePacket, COMDAT
; _this$ = ecx

; 367  : {

  00000	55		 push	 ebp
  00001	8b ec		 mov	 ebp, esp
  00003	51		 push	 ecx
  00004	56		 push	 esi

; 368  : 	TPacketGCQuickSlotSwap packet_quick_slot_swap;
; 369  : 
; 370  : 	if (!Recv(sizeof(TPacketGCQuickSlotSwap), &packet_quick_slot_swap))

  00005	8d 45 fc	 lea	 eax, DWORD PTR _packet_quick_slot_swap$[ebp]
  00008	8b f1		 mov	 esi, ecx
  0000a	50		 push	 eax
  0000b	6a 03		 push	 3
  0000d	e8 00 00 00 00	 call	 ?Recv@CNetworkStream@@QAE_NHPAX@Z ; CNetworkStream::Recv
  00012	84 c0		 test	 al, al
  00014	75 05		 jne	 SHORT $LN1@RecvQuickS
  00016	5e		 pop	 esi

; 379  : }

  00017	8b e5		 mov	 esp, ebp
  00019	5d		 pop	 ebp
  0001a	c3		 ret	 0
$LN1@RecvQuickS:

; 371  : 		return false;
; 372  : 
; 373  : 	IAbstractPlayer& rkPlayer=IAbstractPlayer::GetSingleton();

  0001b	8b 0d 00 00 00
	00		 mov	 ecx, DWORD PTR ?ms_singleton@?$TAbstractSingleton@VIAbstractPlayer@@@@0PAVIAbstractPlayer@@A ; TAbstractSingleton<IAbstractPlayer>::ms_singleton

; 374  : 	rkPlayer.MoveQuickSlot(packet_quick_slot_swap.pos, packet_quick_slot_swap.change_pos);

  00021	0f b6 45 fe	 movzx	 eax, BYTE PTR _packet_quick_slot_swap$[ebp+2]
  00025	50		 push	 eax
  00026	0f b6 45 fd	 movzx	 eax, BYTE PTR _packet_quick_slot_swap$[ebp+1]
  0002a	8b 11		 mov	 edx, DWORD PTR [ecx]
  0002c	50		 push	 eax
  0002d	ff 52 58	 call	 DWORD PTR [edx+88]

; 375  : 
; 376  : 	__RefreshInventoryWindow();

  00030	8b ce		 mov	 ecx, esi
  00032	e8 00 00 00 00	 call	 ?__RefreshInventoryWindow@CPythonNetworkStream@@IAEXXZ ; CPythonNetworkStream::__RefreshInventoryWindow

; 377  : 
; 378  : 	return true;

  00037	b0 01		 mov	 al, 1
  00039	5e		 pop	 esi

; 379  : }

  0003a	8b e5		 mov	 esp, ebp
  0003c	5d		 pop	 ebp
  0003d	c3		 ret	 0
?RecvQuickSlotMovePacket@CPythonNetworkStream@@IAE_NXZ ENDP ; CPythonNetworkStream::RecvQuickSlotMovePacket
_TEXT	ENDS
; Function compile flags: /Ogtp
; File d:\metin2\metin2\client_source_clean\client_source_clean\source\userinterface\pythonnetworkstreamphasegameitem.cpp
;	COMDAT ?RecvQuickSlotDelPacket@CPythonNetworkStream@@IAE_NXZ
_TEXT	SEGMENT
_packet_quick_slot_del$ = -4				; size = 2
?RecvQuickSlotDelPacket@CPythonNetworkStream@@IAE_NXZ PROC ; CPythonNetworkStream::RecvQuickSlotDelPacket, COMDAT
; _this$ = ecx

; 352  : {

  00000	55		 push	 ebp
  00001	8b ec		 mov	 ebp, esp
  00003	51		 push	 ecx
  00004	56		 push	 esi

; 353  : 	TPacketGCQuickSlotDel packet_quick_slot_del;
; 354  : 
; 355  : 	if (!Recv(sizeof(TPacketGCQuickSlotDel), &packet_quick_slot_del))

  00005	8d 45 fc	 lea	 eax, DWORD PTR _packet_quick_slot_del$[ebp]
  00008	8b f1		 mov	 esi, ecx
  0000a	50		 push	 eax
  0000b	6a 02		 push	 2
  0000d	e8 00 00 00 00	 call	 ?Recv@CNetworkStream@@QAE_NHPAX@Z ; CNetworkStream::Recv
  00012	84 c0		 test	 al, al
  00014	75 05		 jne	 SHORT $LN1@RecvQuickS
  00016	5e		 pop	 esi

; 364  : }

  00017	8b e5		 mov	 esp, ebp
  00019	5d		 pop	 ebp
  0001a	c3		 ret	 0
$LN1@RecvQuickS:

; 356  : 		return false;
; 357  : 
; 358  : 	IAbstractPlayer& rkPlayer=IAbstractPlayer::GetSingleton();

  0001b	8b 0d 00 00 00
	00		 mov	 ecx, DWORD PTR ?ms_singleton@?$TAbstractSingleton@VIAbstractPlayer@@@@0PAVIAbstractPlayer@@A ; TAbstractSingleton<IAbstractPlayer>::ms_singleton

; 359  : 	rkPlayer.DeleteQuickSlot(packet_quick_slot_del.pos);

  00021	0f b6 45 fd	 movzx	 eax, BYTE PTR _packet_quick_slot_del$[ebp+1]
  00025	50		 push	 eax
  00026	8b 11		 mov	 edx, DWORD PTR [ecx]
  00028	ff 52 54	 call	 DWORD PTR [edx+84]

; 360  : 
; 361  : 	__RefreshInventoryWindow();

  0002b	8b ce		 mov	 ecx, esi
  0002d	e8 00 00 00 00	 call	 ?__RefreshInventoryWindow@CPythonNetworkStream@@IAEXXZ ; CPythonNetworkStream::__RefreshInventoryWindow

; 362  : 
; 363  : 	return true;

  00032	b0 01		 mov	 al, 1
  00034	5e		 pop	 esi

; 364  : }

  00035	8b e5		 mov	 esp, ebp
  00037	5d		 pop	 ebp
  00038	c3		 ret	 0
?RecvQuickSlotDelPacket@CPythonNetworkStream@@IAE_NXZ ENDP ; CPythonNetworkStream::RecvQuickSlotDelPacket
_TEXT	ENDS
; Function compile flags: /Ogtp
; File d:\metin2\metin2\client_source_clean\client_source_clean\source\userinterface\pythonnetworkstreamphasegameitem.cpp
;	COMDAT ?RecvQuickSlotAddPacket@CPythonNetworkStream@@IAE_NXZ
_TEXT	SEGMENT
_packet_quick_slot_add$ = -8				; size = 4
?RecvQuickSlotAddPacket@CPythonNetworkStream@@IAE_NXZ PROC ; CPythonNetworkStream::RecvQuickSlotAddPacket, COMDAT
; _this$ = ecx

; 337  : {

  00000	55		 push	 ebp
  00001	8b ec		 mov	 ebp, esp
  00003	83 ec 08	 sub	 esp, 8

; 338  : 	TPacketGCQuickSlotAdd packet_quick_slot_add;
; 339  : 
; 340  : 	if (!Recv(sizeof(TPacketGCQuickSlotAdd), &packet_quick_slot_add))

  00006	8d 45 f8	 lea	 eax, DWORD PTR _packet_quick_slot_add$[ebp]
  00009	56		 push	 esi
  0000a	50		 push	 eax
  0000b	6a 04		 push	 4
  0000d	8b f1		 mov	 esi, ecx
  0000f	e8 00 00 00 00	 call	 ?Recv@CNetworkStream@@QAE_NHPAX@Z ; CNetworkStream::Recv
  00014	84 c0		 test	 al, al
  00016	75 05		 jne	 SHORT $LN1@RecvQuickS
  00018	5e		 pop	 esi

; 349  : }

  00019	8b e5		 mov	 esp, ebp
  0001b	5d		 pop	 ebp
  0001c	c3		 ret	 0
$LN1@RecvQuickS:

; 341  : 		return false;
; 342  : 
; 343  : 	IAbstractPlayer& rkPlayer=IAbstractPlayer::GetSingleton();

  0001d	8b 0d 00 00 00
	00		 mov	 ecx, DWORD PTR ?ms_singleton@?$TAbstractSingleton@VIAbstractPlayer@@@@0PAVIAbstractPlayer@@A ; TAbstractSingleton<IAbstractPlayer>::ms_singleton

; 344  : 	rkPlayer.AddQuickSlot(packet_quick_slot_add.pos, packet_quick_slot_add.slot.Type, packet_quick_slot_add.slot.Position);

  00023	ff 75 fb	 push	 DWORD PTR _packet_quick_slot_add$[ebp+3]
  00026	0f b6 45 f9	 movzx	 eax, BYTE PTR _packet_quick_slot_add$[ebp+1]
  0002a	ff 75 fa	 push	 DWORD PTR _packet_quick_slot_add$[ebp+2]
  0002d	8b 11		 mov	 edx, DWORD PTR [ecx]
  0002f	50		 push	 eax
  00030	ff 52 50	 call	 DWORD PTR [edx+80]

; 345  : 
; 346  : 	__RefreshInventoryWindow();

  00033	8b ce		 mov	 ecx, esi
  00035	e8 00 00 00 00	 call	 ?__RefreshInventoryWindow@CPythonNetworkStream@@IAEXXZ ; CPythonNetworkStream::__RefreshInventoryWindow

; 347  : 
; 348  : 	return true;

  0003a	b0 01		 mov	 al, 1
  0003c	5e		 pop	 esi

; 349  : }

  0003d	8b e5		 mov	 esp, ebp
  0003f	5d		 pop	 ebp
  00040	c3		 ret	 0
?RecvQuickSlotAddPacket@CPythonNetworkStream@@IAE_NXZ ENDP ; CPythonNetworkStream::RecvQuickSlotAddPacket
_TEXT	ENDS
; Function compile flags: /Ogtp
; File d:\metin2\metin2\client_source_clean\client_source_clean\source\userinterface\pythonnetworkstreamphasegameitem.cpp
;	COMDAT ?RecvItemOwnership@CPythonNetworkStream@@IAE_NXZ
_TEXT	SEGMENT
_p$ = -36						; size = 30
__$ArrayPad$ = -4					; size = 4
?RecvItemOwnership@CPythonNetworkStream@@IAE_NXZ PROC	; CPythonNetworkStream::RecvItemOwnership, COMDAT
; _this$ = ecx

; 315  : {

  00000	55		 push	 ebp
  00001	8b ec		 mov	 ebp, esp
  00003	83 ec 28	 sub	 esp, 40			; 00000028H
  00006	a1 00 00 00 00	 mov	 eax, DWORD PTR ___security_cookie
  0000b	33 c5		 xor	 eax, ebp
  0000d	89 45 fc	 mov	 DWORD PTR __$ArrayPad$[ebp], eax

; 316  : 	TPacketGCItemOwnership p;
; 317  : 
; 318  : 	if (!Recv(sizeof(TPacketGCItemOwnership), &p))

  00010	8d 45 dc	 lea	 eax, DWORD PTR _p$[ebp]
  00013	50		 push	 eax
  00014	6a 1e		 push	 30			; 0000001eH
  00016	e8 00 00 00 00	 call	 ?Recv@CNetworkStream@@QAE_NHPAX@Z ; CNetworkStream::Recv
  0001b	84 c0		 test	 al, al
  0001d	75 0e		 jne	 SHORT $LN1@RecvItemOw

; 322  : 	return true;
; 323  : }

  0001f	8b 4d fc	 mov	 ecx, DWORD PTR __$ArrayPad$[ebp]
  00022	33 cd		 xor	 ecx, ebp
  00024	e8 00 00 00 00	 call	 @__security_check_cookie@4
  00029	8b e5		 mov	 esp, ebp
  0002b	5d		 pop	 ebp
  0002c	c3		 ret	 0
$LN1@RecvItemOw:

; 319  : 		return false;
; 320  : 
; 321  : 	CPythonItem::Instance().SetOwnership(p.dwVID, p.szName);

  0002d	8b 0d 00 00 00
	00		 mov	 ecx, DWORD PTR ?ms_singleton@?$CSingleton@VCPythonItem@@@@0PAVCPythonItem@@A ; CSingleton<CPythonItem>::ms_singleton
  00033	8d 45 e1	 lea	 eax, DWORD PTR _p$[ebp+5]
  00036	50		 push	 eax
  00037	ff 75 dd	 push	 DWORD PTR _p$[ebp+1]
  0003a	e8 00 00 00 00	 call	 ?SetOwnership@CPythonItem@@QAEXKPBD@Z ; CPythonItem::SetOwnership

; 322  : 	return true;
; 323  : }

  0003f	8b 4d fc	 mov	 ecx, DWORD PTR __$ArrayPad$[ebp]
  00042	b0 01		 mov	 al, 1
  00044	33 cd		 xor	 ecx, ebp
  00046	e8 00 00 00 00	 call	 @__security_check_cookie@4
  0004b	8b e5		 mov	 esp, ebp
  0004d	5d		 pop	 ebp
  0004e	c3		 ret	 0
?RecvItemOwnership@CPythonNetworkStream@@IAE_NXZ ENDP	; CPythonNetworkStream::RecvItemOwnership
_TEXT	ENDS
; Function compile flags: /Ogtp
; File d:\metin2\metin2\client_source_clean\client_source_clean\source\userinterface\pythonnetworkstreamphasegameitem.cpp
;	COMDAT ?RecvItemGroundDelPacket@CPythonNetworkStream@@IAE_NXZ
_TEXT	SEGMENT
_packet_item_ground_del$ = -8				; size = 5
?RecvItemGroundDelPacket@CPythonNetworkStream@@IAE_NXZ PROC ; CPythonNetworkStream::RecvItemGroundDelPacket, COMDAT
; _this$ = ecx

; 326  : {

  00000	55		 push	 ebp
  00001	8b ec		 mov	 ebp, esp
  00003	83 ec 08	 sub	 esp, 8

; 327  : 	TPacketGCItemGroundDel	packet_item_ground_del;
; 328  : 
; 329  : 	if (!Recv(sizeof(TPacketGCItemGroundDel), &packet_item_ground_del))

  00006	8d 45 f8	 lea	 eax, DWORD PTR _packet_item_ground_del$[ebp]
  00009	50		 push	 eax
  0000a	6a 05		 push	 5
  0000c	e8 00 00 00 00	 call	 ?Recv@CNetworkStream@@QAE_NHPAX@Z ; CNetworkStream::Recv
  00011	84 c0		 test	 al, al
  00013	75 04		 jne	 SHORT $LN1@RecvItemGr

; 334  : }

  00015	8b e5		 mov	 esp, ebp
  00017	5d		 pop	 ebp
  00018	c3		 ret	 0
$LN1@RecvItemGr:

; 330  : 		return false;
; 331  : 
; 332  : 	CPythonItem::Instance().DeleteItem(packet_item_ground_del.vid);

  00019	ff 75 f9	 push	 DWORD PTR _packet_item_ground_del$[ebp+1]
  0001c	8b 0d 00 00 00
	00		 mov	 ecx, DWORD PTR ?ms_singleton@?$CSingleton@VCPythonItem@@@@0PAVCPythonItem@@A ; CSingleton<CPythonItem>::ms_singleton
  00022	e8 00 00 00 00	 call	 ?DeleteItem@CPythonItem@@QAEXK@Z ; CPythonItem::DeleteItem

; 333  : 	return true;

  00027	b0 01		 mov	 al, 1

; 334  : }

  00029	8b e5		 mov	 esp, ebp
  0002b	5d		 pop	 ebp
  0002c	c3		 ret	 0
?RecvItemGroundDelPacket@CPythonNetworkStream@@IAE_NXZ ENDP ; CPythonNetworkStream::RecvItemGroundDelPacket
_TEXT	ENDS
; Function compile flags: /Ogtp
; File d:\metin2\metin2\client_source_clean\client_source_clean\source\userinterface\pythonnetworkstreamphasegameitem.cpp
;	COMDAT ?RecvItemGroundAddPacket@CPythonNetworkStream@@IAE_NXZ
_TEXT	SEGMENT
_packet_item_ground_add$ = -28				; size = 21
__$ArrayPad$ = -4					; size = 4
?RecvItemGroundAddPacket@CPythonNetworkStream@@IAE_NXZ PROC ; CPythonNetworkStream::RecvItemGroundAddPacket, COMDAT
; _this$ = ecx

; 297  : {

  00000	55		 push	 ebp
  00001	8b ec		 mov	 ebp, esp
  00003	83 ec 1c	 sub	 esp, 28			; 0000001cH
  00006	a1 00 00 00 00	 mov	 eax, DWORD PTR ___security_cookie
  0000b	33 c5		 xor	 eax, ebp
  0000d	89 45 fc	 mov	 DWORD PTR __$ArrayPad$[ebp], eax

; 298  : 	TPacketGCItemGroundAdd packet_item_ground_add;
; 299  : 
; 300  : 	if (!Recv(sizeof(TPacketGCItemGroundAdd), &packet_item_ground_add))

  00010	8d 45 e4	 lea	 eax, DWORD PTR _packet_item_ground_add$[ebp]
  00013	50		 push	 eax
  00014	6a 15		 push	 21			; 00000015H
  00016	e8 00 00 00 00	 call	 ?Recv@CNetworkStream@@QAE_NHPAX@Z ; CNetworkStream::Recv
  0001b	84 c0		 test	 al, al
  0001d	75 0e		 jne	 SHORT $LN1@RecvItemGr

; 310  : 	return true;
; 311  : }

  0001f	8b 4d fc	 mov	 ecx, DWORD PTR __$ArrayPad$[ebp]
  00022	33 cd		 xor	 ecx, ebp
  00024	e8 00 00 00 00	 call	 @__security_check_cookie@4
  00029	8b e5		 mov	 esp, ebp
  0002b	5d		 pop	 ebp
  0002c	c3		 ret	 0
$LN1@RecvItemGr:

; 301  : 		return false;
; 302  : 
; 303  : 	__GlobalPositionToLocalPosition(packet_item_ground_add.lX, packet_item_ground_add.lY);

  0002d	8d 45 e9	 lea	 eax, DWORD PTR _packet_item_ground_add$[ebp+5]
  00030	50		 push	 eax
  00031	8d 45 e5	 lea	 eax, DWORD PTR _packet_item_ground_add$[ebp+1]
  00034	50		 push	 eax
  00035	e8 00 00 00 00	 call	 ?__GlobalPositionToLocalPosition@CPythonNetworkStream@@IAEXAAJ0@Z ; CPythonNetworkStream::__GlobalPositionToLocalPosition
  0003a	66 0f 6e 45 ed	 movd	 xmm0, DWORD PTR _packet_item_ground_add$[ebp+9]
  0003f	66 0f 6e 5d e5	 movd	 xmm3, DWORD PTR _packet_item_ground_add$[ebp+1]

; 304  : 
; 305  : 	CPythonItem::Instance().CreateItem(packet_item_ground_add.dwVID, 
; 306  : 									   packet_item_ground_add.dwVnum,
; 307  : 									   packet_item_ground_add.lX,
; 308  : 									   packet_item_ground_add.lY,
; 309  : 									   packet_item_ground_add.lZ);

  00044	8b 0d 00 00 00
	00		 mov	 ecx, DWORD PTR ?ms_singleton@?$CSingleton@VCPythonItem@@@@0PAVCPythonItem@@A ; CSingleton<CPythonItem>::ms_singleton
  0004a	6a 01		 push	 1
  0004c	0f 5b c0	 cvtdq2ps xmm0, xmm0
  0004f	83 ec 08	 sub	 esp, 8
  00052	0f 5b db	 cvtdq2ps xmm3, xmm3
  00055	f3 0f 11 44 24
	04		 movss	 DWORD PTR [esp+4], xmm0
  0005b	66 0f 6e 45 e9	 movd	 xmm0, DWORD PTR _packet_item_ground_add$[ebp+5]
  00060	0f 5b c0	 cvtdq2ps xmm0, xmm0
  00063	f3 0f 11 04 24	 movss	 DWORD PTR [esp], xmm0
  00068	ff 75 f5	 push	 DWORD PTR _packet_item_ground_add$[ebp+17]
  0006b	ff 75 f1	 push	 DWORD PTR _packet_item_ground_add$[ebp+13]
  0006e	e8 00 00 00 00	 call	 ?CreateItem@CPythonItem@@QAEXKKMMM_N@Z ; CPythonItem::CreateItem

; 310  : 	return true;
; 311  : }

  00073	8b 4d fc	 mov	 ecx, DWORD PTR __$ArrayPad$[ebp]
  00076	b0 01		 mov	 al, 1
  00078	33 cd		 xor	 ecx, ebp
  0007a	e8 00 00 00 00	 call	 @__security_check_cookie@4
  0007f	8b e5		 mov	 esp, ebp
  00081	5d		 pop	 ebp
  00082	c3		 ret	 0
?RecvItemGroundAddPacket@CPythonNetworkStream@@IAE_NXZ ENDP ; CPythonNetworkStream::RecvItemGroundAddPacket
_TEXT	ENDS
; Function compile flags: /Ogtp
; File d:\metin2\metin2\client_source_clean\client_source_clean\source\userinterface\pythonnetworkstreamphasegameitem.cpp
; File d:\metin2\metin2\client_source_clean\client_source_clean\source\userinterface\gametype.h
; File d:\metin2\metin2\client_source_clean\client_source_clean\source\userinterface\pythonnetworkstreamphasegameitem.cpp
; File d:\metin2\metin2\client_source_clean\client_source_clean\source\userinterface\gametype.h
; File d:\metin2\metin2\client_source_clean\client_source_clean\source\userinterface\pythonnetworkstreamphasegameitem.cpp
;	COMDAT ?RecvItemUpdatePacket@CPythonNetworkStream@@IAE_NXZ
_TEXT	SEGMENT
_this$GSCopy$1$ = -48					; size = 4
_packet_item_update$ = -44				; size = 38
__$ArrayPad$ = -4					; size = 4
?RecvItemUpdatePacket@CPythonNetworkStream@@IAE_NXZ PROC ; CPythonNetworkStream::RecvItemUpdatePacket, COMDAT
; _this$ = ecx

; 279  : {

  00000	55		 push	 ebp
  00001	8b ec		 mov	 ebp, esp
  00003	83 ec 30	 sub	 esp, 48			; 00000030H
  00006	a1 00 00 00 00	 mov	 eax, DWORD PTR ___security_cookie
  0000b	33 c5		 xor	 eax, ebp
  0000d	89 45 fc	 mov	 DWORD PTR __$ArrayPad$[ebp], eax
  00010	53		 push	 ebx
  00011	8b c1		 mov	 eax, ecx
; File d:\metin2\metin2\client_source_clean\client_source_clean\source\userinterface\gametype.h

; 186  : 		window_type =     INVENTORY;

  00013	c6 45 d5 01	 mov	 BYTE PTR _packet_item_update$[ebp+1], 1
  00017	56		 push	 esi

; 187  : 		cell = WORD_MAX;

  00018	b9 ff ff 00 00	 mov	 ecx, 65535		; 0000ffffH
; File d:\metin2\metin2\client_source_clean\client_source_clean\source\userinterface\pythonnetworkstreamphasegameitem.cpp

; 279  : {

  0001d	89 45 d0	 mov	 DWORD PTR _this$GSCopy$1$[ebp], eax
; File d:\metin2\metin2\client_source_clean\client_source_clean\source\userinterface\gametype.h

; 187  : 		cell = WORD_MAX;

  00020	66 89 4d d6	 mov	 WORD PTR _packet_item_update$[ebp+2], cx
; File d:\metin2\metin2\client_source_clean\client_source_clean\source\userinterface\pythonnetworkstreamphasegameitem.cpp

; 282  : 	if (!Recv(sizeof(TPacketGCItemUpdate), &packet_item_update))

  00024	8d 4d d4	 lea	 ecx, DWORD PTR _packet_item_update$[ebp]
  00027	57		 push	 edi
  00028	51		 push	 ecx
  00029	6a 26		 push	 38			; 00000026H
  0002b	8b c8		 mov	 ecx, eax
  0002d	e8 00 00 00 00	 call	 ?Recv@CNetworkStream@@QAE_NHPAX@Z ; CNetworkStream::Recv
  00032	84 c0		 test	 al, al
  00034	75 11		 jne	 SHORT $LN7@RecvItemUp

; 293  : 	return true;
; 294  : }

  00036	5f		 pop	 edi
  00037	5e		 pop	 esi
  00038	5b		 pop	 ebx
  00039	8b 4d fc	 mov	 ecx, DWORD PTR __$ArrayPad$[ebp]
  0003c	33 cd		 xor	 ecx, ebp
  0003e	e8 00 00 00 00	 call	 @__security_check_cookie@4
  00043	8b e5		 mov	 esp, ebp
  00045	5d		 pop	 ebp
  00046	c3		 ret	 0
$LN7@RecvItemUp:

; 283  : 		return false;
; 284  : 
; 285  : 	IAbstractPlayer& rkPlayer=IAbstractPlayer::GetSingleton();
; 286  : 	rkPlayer.SetItemCount(packet_item_update.Cell, packet_item_update.count);

  00047	ff 75 d8	 push	 DWORD PTR _packet_item_update$[ebp+4]
  0004a	8b 3d 00 00 00
	00		 mov	 edi, DWORD PTR ?ms_singleton@?$TAbstractSingleton@VIAbstractPlayer@@@@0PAVIAbstractPlayer@@A ; TAbstractSingleton<IAbstractPlayer>::ms_singleton
  00050	66 8b 45 d5	 mov	 ax, WORD PTR _packet_item_update$[ebp+1]
  00054	51		 push	 ecx
  00055	8b cc		 mov	 ecx, esp
  00057	8b 17		 mov	 edx, DWORD PTR [edi]
  00059	66 89 01	 mov	 WORD PTR [ecx], ax
  0005c	8a 45 d7	 mov	 al, BYTE PTR _packet_item_update$[ebp+3]
  0005f	88 41 02	 mov	 BYTE PTR [ecx+2], al
  00062	8b cf		 mov	 ecx, edi
  00064	ff 52 34	 call	 DWORD PTR [edx+52]

; 287  : 	for (int i = 0; i < ITEM_SOCKET_SLOT_MAX_NUM; ++i)

  00067	33 f6		 xor	 esi, esi
  00069	8d a4 24 00 00
	00 00		 npad	 7
$LL6@RecvItemUp:

; 288  : 		rkPlayer.SetItemMetinSocket(packet_item_update.Cell, i, packet_item_update.alSockets[i]);

  00070	ff 74 b5 d9	 push	 DWORD PTR _packet_item_update$[ebp+esi*4+5]
  00074	66 8b 45 d5	 mov	 ax, WORD PTR _packet_item_update$[ebp+1]
  00078	8b 17		 mov	 edx, DWORD PTR [edi]
  0007a	56		 push	 esi
  0007b	51		 push	 ecx
  0007c	8b cc		 mov	 ecx, esp
  0007e	66 89 01	 mov	 WORD PTR [ecx], ax
  00081	8a 45 d7	 mov	 al, BYTE PTR _packet_item_update$[ebp+3]
  00084	88 41 02	 mov	 BYTE PTR [ecx+2], al
  00087	8b cf		 mov	 ecx, edi
  00089	ff 52 38	 call	 DWORD PTR [edx+56]
  0008c	46		 inc	 esi
  0008d	83 fe 03	 cmp	 esi, 3
  00090	7c de		 jl	 SHORT $LL6@RecvItemUp

; 289  : 	for (int j = 0; j < ITEM_ATTRIBUTE_SLOT_MAX_NUM; ++j)

  00092	33 f6		 xor	 esi, esi
  00094	8d 5d e5	 lea	 ebx, DWORD PTR _packet_item_update$[ebp+17]
$LL3@RecvItemUp:

; 290  : 		rkPlayer.SetItemAttribute(packet_item_update.Cell, j, packet_item_update.aAttr[j].bType, packet_item_update.aAttr[j].sValue);

  00097	0f b7 43 01	 movzx	 eax, WORD PTR [ebx+1]
  0009b	8b 17		 mov	 edx, DWORD PTR [edi]
  0009d	50		 push	 eax
  0009e	0f b6 03	 movzx	 eax, BYTE PTR [ebx]
  000a1	50		 push	 eax
  000a2	66 8b 45 d5	 mov	 ax, WORD PTR _packet_item_update$[ebp+1]
  000a6	56		 push	 esi
  000a7	51		 push	 ecx
  000a8	8b cc		 mov	 ecx, esp
  000aa	66 89 01	 mov	 WORD PTR [ecx], ax
  000ad	8a 45 d7	 mov	 al, BYTE PTR _packet_item_update$[ebp+3]
  000b0	88 41 02	 mov	 BYTE PTR [ecx+2], al
  000b3	8b cf		 mov	 ecx, edi
  000b5	ff 52 3c	 call	 DWORD PTR [edx+60]
  000b8	46		 inc	 esi
  000b9	8d 5b 03	 lea	 ebx, DWORD PTR [ebx+3]
  000bc	83 fe 07	 cmp	 esi, 7
  000bf	7c d6		 jl	 SHORT $LL3@RecvItemUp

; 291  : 
; 292  : 	__RefreshInventoryWindow();

  000c1	8b 4d d0	 mov	 ecx, DWORD PTR _this$GSCopy$1$[ebp]
  000c4	e8 00 00 00 00	 call	 ?__RefreshInventoryWindow@CPythonNetworkStream@@IAEXXZ ; CPythonNetworkStream::__RefreshInventoryWindow

; 293  : 	return true;
; 294  : }

  000c9	8b 4d fc	 mov	 ecx, DWORD PTR __$ArrayPad$[ebp]
  000cc	b0 01		 mov	 al, 1
  000ce	5f		 pop	 edi
  000cf	5e		 pop	 esi
  000d0	33 cd		 xor	 ecx, ebp
  000d2	5b		 pop	 ebx
  000d3	e8 00 00 00 00	 call	 @__security_check_cookie@4
  000d8	8b e5		 mov	 esp, ebp
  000da	5d		 pop	 ebp
  000db	c3		 ret	 0
?RecvItemUpdatePacket@CPythonNetworkStream@@IAE_NXZ ENDP ; CPythonNetworkStream::RecvItemUpdatePacket
_TEXT	ENDS
; Function compile flags: /Ogtp
; File d:\metin2\metin2\client_source_clean\client_source_clean\source\userinterface\pythonnetworkstreamphasegameitem.cpp
; File d:\metin2\metin2\client_source_clean\client_source_clean\source\userinterface\gametype.h
; File d:\metin2\metin2\client_source_clean\client_source_clean\source\userinterface\pythonnetworkstreamphasegameitem.cpp
; File d:\metin2\metin2\client_source_clean\client_source_clean\source\userinterface\gametype.h
; File d:\metin2\metin2\client_source_clean\client_source_clean\source\userinterface\pythonnetworkstreamphasegameitem.cpp
;	COMDAT ?RecvItemUsePacket@CPythonNetworkStream@@IAE_NXZ
_TEXT	SEGMENT
_packet_item_use$ = -16					; size = 16
?RecvItemUsePacket@CPythonNetworkStream@@IAE_NXZ PROC	; CPythonNetworkStream::RecvItemUsePacket, COMDAT
; _this$ = ecx

; 268  : {

  00000	55		 push	 ebp
  00001	8b ec		 mov	 ebp, esp
  00003	83 ec 14	 sub	 esp, 20			; 00000014H
; File d:\metin2\metin2\client_source_clean\client_source_clean\source\userinterface\gametype.h

; 187  : 		cell = WORD_MAX;

  00006	b8 ff ff 00 00	 mov	 eax, 65535		; 0000ffffH
  0000b	c6 45 f1 01	 mov	 BYTE PTR _packet_item_use$[ebp+1], 1
; File d:\metin2\metin2\client_source_clean\client_source_clean\source\userinterface\pythonnetworkstreamphasegameitem.cpp

; 268  : {

  0000f	56		 push	 esi
; File d:\metin2\metin2\client_source_clean\client_source_clean\source\userinterface\gametype.h

; 187  : 		cell = WORD_MAX;

  00010	66 89 45 f2	 mov	 WORD PTR _packet_item_use$[ebp+2], ax
; File d:\metin2\metin2\client_source_clean\client_source_clean\source\userinterface\pythonnetworkstreamphasegameitem.cpp

; 268  : {

  00014	8b f1		 mov	 esi, ecx

; 269  : 	TPacketGCItemUse packet_item_use;
; 270  : 
; 271  : 	if (!Recv(sizeof(TPacketGCItemUse), &packet_item_use))

  00016	8d 45 f0	 lea	 eax, DWORD PTR _packet_item_use$[ebp]
  00019	50		 push	 eax
  0001a	6a 10		 push	 16			; 00000010H
  0001c	e8 00 00 00 00	 call	 ?Recv@CNetworkStream@@QAE_NHPAX@Z ; CNetworkStream::Recv
  00021	84 c0		 test	 al, al
  00023	75 05		 jne	 SHORT $LN1@RecvItemUs

; 276  : }

  00025	5e		 pop	 esi
  00026	8b e5		 mov	 esp, ebp
  00028	5d		 pop	 ebp
  00029	c3		 ret	 0
$LN1@RecvItemUs:

; 272  : 		return false;
; 273  : 
; 274  : 	__RefreshInventoryWindow();

  0002a	8b ce		 mov	 ecx, esi
  0002c	e8 00 00 00 00	 call	 ?__RefreshInventoryWindow@CPythonNetworkStream@@IAEXXZ ; CPythonNetworkStream::__RefreshInventoryWindow

; 275  : 	return true;

  00031	b0 01		 mov	 al, 1

; 276  : }

  00033	5e		 pop	 esi
  00034	8b e5		 mov	 esp, ebp
  00036	5d		 pop	 ebp
  00037	c3		 ret	 0
?RecvItemUsePacket@CPythonNetworkStream@@IAE_NXZ ENDP	; CPythonNetworkStream::RecvItemUsePacket
_TEXT	ENDS
; Function compile flags: /Ogtp
; File d:\metin2\metin2\client_source_clean\client_source_clean\source\userinterface\pythonnetworkstreamphasegameitem.cpp
; File d:\metin2\metin2\client_source_clean\client_source_clean\source\userinterface\gametype.h
; File d:\metin2\metin2\client_source_clean\client_source_clean\source\userinterface\pythonnetworkstreamphasegameitem.cpp
;	COMDAT ?RecvItemSetPacket2@CPythonNetworkStream@@IAE_NXZ
_TEXT	SEGMENT
_packet_item_set$ = -104				; size = 51
_kItemData$ = -52					; size = 46
__$ArrayPad$ = -4					; size = 4
?RecvItemSetPacket2@CPythonNetworkStream@@IAE_NXZ PROC	; CPythonNetworkStream::RecvItemSetPacket2, COMDAT
; _this$ = ecx

; 239  : {

  00000	55		 push	 ebp
  00001	8b ec		 mov	 ebp, esp
  00003	83 ec 68	 sub	 esp, 104		; 00000068H
  00006	a1 00 00 00 00	 mov	 eax, DWORD PTR ___security_cookie
  0000b	33 c5		 xor	 eax, ebp
  0000d	89 45 fc	 mov	 DWORD PTR __$ArrayPad$[ebp], eax
  00010	56		 push	 esi
; File d:\metin2\metin2\client_source_clean\client_source_clean\source\userinterface\gametype.h

; 187  : 		cell = WORD_MAX;

  00011	b8 ff ff 00 00	 mov	 eax, 65535		; 0000ffffH
  00016	c6 45 99 01	 mov	 BYTE PTR _packet_item_set$[ebp+1], 1
  0001a	57		 push	 edi
  0001b	66 89 45 9a	 mov	 WORD PTR _packet_item_set$[ebp+2], ax
; File d:\metin2\metin2\client_source_clean\client_source_clean\source\userinterface\pythonnetworkstreamphasegameitem.cpp

; 239  : {

  0001f	8b f9		 mov	 edi, ecx

; 240  : 	TPacketGCItemSet2 packet_item_set;
; 241  : 
; 242  : 	if (!Recv(sizeof(TPacketGCItemSet2), &packet_item_set))

  00021	8d 45 98	 lea	 eax, DWORD PTR _packet_item_set$[ebp]
  00024	50		 push	 eax
  00025	6a 33		 push	 51			; 00000033H
  00027	e8 00 00 00 00	 call	 ?Recv@CNetworkStream@@QAE_NHPAX@Z ; CNetworkStream::Recv
  0002c	84 c0		 test	 al, al
  0002e	75 10		 jne	 SHORT $LN8@RecvItemSe

; 263  : 	return true;
; 264  : }

  00030	5f		 pop	 edi
  00031	5e		 pop	 esi
  00032	8b 4d fc	 mov	 ecx, DWORD PTR __$ArrayPad$[ebp]
  00035	33 cd		 xor	 ecx, ebp
  00037	e8 00 00 00 00	 call	 @__security_check_cookie@4
  0003c	8b e5		 mov	 esp, ebp
  0003e	5d		 pop	 ebp
  0003f	c3		 ret	 0
$LN8@RecvItemSe:

; 243  : 		return false;
; 244  : 
; 245  : 	TItemData kItemData;
; 246  : 	kItemData.vnum	= packet_item_set.vnum;

  00040	8b 45 9c	 mov	 eax, DWORD PTR _packet_item_set$[ebp+4]
  00043	89 45 cc	 mov	 DWORD PTR _kItemData$[ebp], eax

; 247  : 	kItemData.count	= packet_item_set.count;

  00046	8a 45 a0	 mov	 al, BYTE PTR _packet_item_set$[ebp+8]
  00049	88 45 d0	 mov	 BYTE PTR _kItemData$[ebp+4], al

; 248  : 	kItemData.flags = packet_item_set.flags;

  0004c	8b 45 a1	 mov	 eax, DWORD PTR _packet_item_set$[ebp+9]
  0004f	89 45 d1	 mov	 DWORD PTR _kItemData$[ebp+5], eax

; 249  : 	kItemData.anti_flags = packet_item_set.anti_flags;

  00052	8b 45 a5	 mov	 eax, DWORD PTR _packet_item_set$[ebp+13]
  00055	89 45 d5	 mov	 DWORD PTR _kItemData$[ebp+9], eax

; 250  : 
; 251  : 	for (int i=0; i<ITEM_SOCKET_SLOT_MAX_NUM; ++i)
; 252  : 		kItemData.alSockets[i]=packet_item_set.alSockets[i];

  00058	8b 45 aa	 mov	 eax, DWORD PTR _packet_item_set$[ebp+18]
  0005b	89 45 d9	 mov	 DWORD PTR _kItemData$[ebp+13], eax
  0005e	8b 45 ae	 mov	 eax, DWORD PTR _packet_item_set$[ebp+22]
  00061	89 45 dd	 mov	 DWORD PTR _kItemData$[ebp+17], eax
  00064	8b 45 b2	 mov	 eax, DWORD PTR _packet_item_set$[ebp+26]
  00067	89 45 e1	 mov	 DWORD PTR _kItemData$[ebp+21], eax

; 253  : 	for (int j=0; j<ITEM_ATTRIBUTE_SLOT_MAX_NUM; ++j)
; 254  : 		kItemData.aAttr[j]=packet_item_set.aAttr[j];

  0006a	0f b7 45 b6	 movzx	 eax, WORD PTR _packet_item_set$[ebp+30]
  0006e	66 89 45 e5	 mov	 WORD PTR _kItemData$[ebp+25], ax
  00072	8a 45 b8	 mov	 al, BYTE PTR _packet_item_set$[ebp+32]
  00075	88 45 e7	 mov	 BYTE PTR _kItemData$[ebp+27], al
  00078	0f b7 45 b9	 movzx	 eax, WORD PTR _packet_item_set$[ebp+33]
  0007c	66 89 45 e8	 mov	 WORD PTR _kItemData$[ebp+28], ax
  00080	8a 45 bb	 mov	 al, BYTE PTR _packet_item_set$[ebp+35]
  00083	88 45 ea	 mov	 BYTE PTR _kItemData$[ebp+30], al
  00086	0f b7 45 bc	 movzx	 eax, WORD PTR _packet_item_set$[ebp+36]
  0008a	66 89 45 eb	 mov	 WORD PTR _kItemData$[ebp+31], ax
  0008e	8a 45 be	 mov	 al, BYTE PTR _packet_item_set$[ebp+38]
  00091	88 45 ed	 mov	 BYTE PTR _kItemData$[ebp+33], al
  00094	0f b7 45 bf	 movzx	 eax, WORD PTR _packet_item_set$[ebp+39]
  00098	66 89 45 ee	 mov	 WORD PTR _kItemData$[ebp+34], ax
  0009c	8a 45 c1	 mov	 al, BYTE PTR _packet_item_set$[ebp+41]
  0009f	88 45 f0	 mov	 BYTE PTR _kItemData$[ebp+36], al
  000a2	0f b7 45 c2	 movzx	 eax, WORD PTR _packet_item_set$[ebp+42]

; 255  : 
; 256  : 	IAbstractPlayer& rkPlayer=IAbstractPlayer::GetSingleton();

  000a6	8b 15 00 00 00
	00		 mov	 edx, DWORD PTR ?ms_singleton@?$TAbstractSingleton@VIAbstractPlayer@@@@0PAVIAbstractPlayer@@A ; TAbstractSingleton<IAbstractPlayer>::ms_singleton
  000ac	66 89 45 f1	 mov	 WORD PTR _kItemData$[ebp+37], ax
  000b0	8a 45 c4	 mov	 al, BYTE PTR _packet_item_set$[ebp+44]
  000b3	88 45 f3	 mov	 BYTE PTR _kItemData$[ebp+39], al
  000b6	0f b7 45 c5	 movzx	 eax, WORD PTR _packet_item_set$[ebp+45]
  000ba	66 89 45 f4	 mov	 WORD PTR _kItemData$[ebp+40], ax
  000be	8a 45 c7	 mov	 al, BYTE PTR _packet_item_set$[ebp+47]
  000c1	88 45 f6	 mov	 BYTE PTR _kItemData$[ebp+42], al
  000c4	0f b7 45 c8	 movzx	 eax, WORD PTR _packet_item_set$[ebp+48]
  000c8	66 89 45 f7	 mov	 WORD PTR _kItemData$[ebp+43], ax
  000cc	8a 45 ca	 mov	 al, BYTE PTR _packet_item_set$[ebp+50]
  000cf	88 45 f9	 mov	 BYTE PTR _kItemData$[ebp+45], al

; 257  : 	rkPlayer.SetItemData(packet_item_set.Cell, kItemData);

  000d2	8d 45 cc	 lea	 eax, DWORD PTR _kItemData$[ebp]
  000d5	8b 32		 mov	 esi, DWORD PTR [edx]
  000d7	50		 push	 eax
  000d8	0f b7 45 99	 movzx	 eax, WORD PTR _packet_item_set$[ebp+1]
  000dc	51		 push	 ecx
  000dd	8b cc		 mov	 ecx, esp
  000df	66 89 01	 mov	 WORD PTR [ecx], ax
  000e2	8a 45 9b	 mov	 al, BYTE PTR _packet_item_set$[ebp+3]
  000e5	88 41 02	 mov	 BYTE PTR [ecx+2], al
  000e8	8b ca		 mov	 ecx, edx
  000ea	ff 56 30	 call	 DWORD PTR [esi+48]

; 258  : 
; 259  : 	if (packet_item_set.highlight)

  000ed	80 7d a9 00	 cmp	 BYTE PTR _packet_item_set$[ebp+17], 0
  000f1	74 29		 je	 SHORT $LN1@RecvItemSe

; 260  : 		PyCallClassMemberFunc(m_apoPhaseWnd[PHASE_WINDOW_GAME], "BINARY_Highlight_Item", Py_BuildValue("(ii)", packet_item_set.Cell.window_type, packet_item_set.Cell.cell));

  000f3	0f b7 45 9a	 movzx	 eax, WORD PTR _packet_item_set$[ebp+2]
  000f7	50		 push	 eax
  000f8	0f b6 45 99	 movzx	 eax, BYTE PTR _packet_item_set$[ebp+1]
  000fc	50		 push	 eax
  000fd	68 00 00 00 00	 push	 OFFSET ??_C@_04INACLLOK@?$CIii?$CJ?$AA@
  00102	ff 15 00 00 00
	00		 call	 DWORD PTR __imp__Py_BuildValue
  00108	50		 push	 eax
  00109	68 00 00 00 00	 push	 OFFSET ??_C@_0BG@ELBKFGDM@BINARY_Highlight_Item?$AA@
  0010e	ff b7 90 01 00
	00		 push	 DWORD PTR [edi+400]
  00114	e8 00 00 00 00	 call	 ?PyCallClassMemberFunc@@YA_NPAU_object@@PBD0@Z ; PyCallClassMemberFunc
  00119	83 c4 18	 add	 esp, 24			; 00000018H
$LN1@RecvItemSe:

; 261  : 
; 262  : 	__RefreshInventoryWindow();

  0011c	8b cf		 mov	 ecx, edi
  0011e	e8 00 00 00 00	 call	 ?__RefreshInventoryWindow@CPythonNetworkStream@@IAEXXZ ; CPythonNetworkStream::__RefreshInventoryWindow

; 263  : 	return true;
; 264  : }

  00123	8b 4d fc	 mov	 ecx, DWORD PTR __$ArrayPad$[ebp]
  00126	b0 01		 mov	 al, 1
  00128	5f		 pop	 edi
  00129	33 cd		 xor	 ecx, ebp
  0012b	5e		 pop	 esi
  0012c	e8 00 00 00 00	 call	 @__security_check_cookie@4
  00131	8b e5		 mov	 esp, ebp
  00133	5d		 pop	 ebp
  00134	c3		 ret	 0
?RecvItemSetPacket2@CPythonNetworkStream@@IAE_NXZ ENDP	; CPythonNetworkStream::RecvItemSetPacket2
_TEXT	ENDS
; Function compile flags: /Ogtp
; File d:\metin2\metin2\client_source_clean\client_source_clean\source\userinterface\pythonnetworkstreamphasegameitem.cpp
; File d:\metin2\metin2\client_source_clean\client_source_clean\source\userinterface\gametype.h
; File d:\metin2\metin2\client_source_clean\client_source_clean\source\userinterface\pythonnetworkstreamphasegameitem.cpp
;	COMDAT ?RecvItemSetPacket@CPythonNetworkStream@@IAE_NXZ
_TEXT	SEGMENT
_kItemData$ = -96					; size = 46
_packet_item_set$ = -48					; size = 42
__$ArrayPad$ = -4					; size = 4
?RecvItemSetPacket@CPythonNetworkStream@@IAE_NXZ PROC	; CPythonNetworkStream::RecvItemSetPacket, COMDAT
; _this$ = ecx

; 215  : {

  00000	55		 push	 ebp
  00001	8b ec		 mov	 ebp, esp
  00003	83 ec 60	 sub	 esp, 96			; 00000060H
  00006	a1 00 00 00 00	 mov	 eax, DWORD PTR ___security_cookie
  0000b	33 c5		 xor	 eax, ebp
  0000d	89 45 fc	 mov	 DWORD PTR __$ArrayPad$[ebp], eax
  00010	56		 push	 esi
; File d:\metin2\metin2\client_source_clean\client_source_clean\source\userinterface\gametype.h

; 187  : 		cell = WORD_MAX;

  00011	b8 ff ff 00 00	 mov	 eax, 65535		; 0000ffffH
  00016	c6 45 d1 01	 mov	 BYTE PTR _packet_item_set$[ebp+1], 1
  0001a	57		 push	 edi
  0001b	66 89 45 d2	 mov	 WORD PTR _packet_item_set$[ebp+2], ax
; File d:\metin2\metin2\client_source_clean\client_source_clean\source\userinterface\pythonnetworkstreamphasegameitem.cpp

; 215  : {

  0001f	8b f9		 mov	 edi, ecx

; 216  : 	TPacketGCItemSet packet_item_set;
; 217  : 
; 218  : 	if (!Recv(sizeof(TPacketGCItemSet), &packet_item_set))

  00021	8d 45 d0	 lea	 eax, DWORD PTR _packet_item_set$[ebp]
  00024	50		 push	 eax
  00025	6a 2a		 push	 42			; 0000002aH
  00027	e8 00 00 00 00	 call	 ?Recv@CNetworkStream@@QAE_NHPAX@Z ; CNetworkStream::Recv
  0002c	84 c0		 test	 al, al
  0002e	75 10		 jne	 SHORT $LN7@RecvItemSe

; 235  : 	return true;
; 236  : }

  00030	5f		 pop	 edi
  00031	5e		 pop	 esi
  00032	8b 4d fc	 mov	 ecx, DWORD PTR __$ArrayPad$[ebp]
  00035	33 cd		 xor	 ecx, ebp
  00037	e8 00 00 00 00	 call	 @__security_check_cookie@4
  0003c	8b e5		 mov	 esp, ebp
  0003e	5d		 pop	 ebp
  0003f	c3		 ret	 0
$LN7@RecvItemSe:

; 219  : 		return false;
; 220  : 
; 221  : 	TItemData kItemData;
; 222  : 	kItemData.vnum	= packet_item_set.vnum;

  00040	8b 45 d4	 mov	 eax, DWORD PTR _packet_item_set$[ebp+4]
  00043	89 45 a0	 mov	 DWORD PTR _kItemData$[ebp], eax

; 223  : 	kItemData.count	= packet_item_set.count;

  00046	8a 45 d8	 mov	 al, BYTE PTR _packet_item_set$[ebp+8]
  00049	88 45 a4	 mov	 BYTE PTR _kItemData$[ebp+4], al

; 224  : 	kItemData.flags = 0;
; 225  : 	for (int i=0; i<ITEM_SOCKET_SLOT_MAX_NUM; ++i)
; 226  : 		kItemData.alSockets[i]=packet_item_set.alSockets[i];

  0004c	8b 45 d9	 mov	 eax, DWORD PTR _packet_item_set$[ebp+9]
  0004f	89 45 ad	 mov	 DWORD PTR _kItemData$[ebp+13], eax
  00052	8b 45 dd	 mov	 eax, DWORD PTR _packet_item_set$[ebp+13]
  00055	89 45 b1	 mov	 DWORD PTR _kItemData$[ebp+17], eax
  00058	8b 45 e1	 mov	 eax, DWORD PTR _packet_item_set$[ebp+17]
  0005b	89 45 b5	 mov	 DWORD PTR _kItemData$[ebp+21], eax

; 227  : 	for (int j=0; j<ITEM_ATTRIBUTE_SLOT_MAX_NUM; ++j)
; 228  : 		kItemData.aAttr[j]=packet_item_set.aAttr[j];

  0005e	0f b7 45 e5	 movzx	 eax, WORD PTR _packet_item_set$[ebp+21]
  00062	66 89 45 b9	 mov	 WORD PTR _kItemData$[ebp+25], ax
  00066	8a 45 e7	 mov	 al, BYTE PTR _packet_item_set$[ebp+23]
  00069	88 45 bb	 mov	 BYTE PTR _kItemData$[ebp+27], al
  0006c	0f b7 45 e8	 movzx	 eax, WORD PTR _packet_item_set$[ebp+24]
  00070	66 89 45 bc	 mov	 WORD PTR _kItemData$[ebp+28], ax
  00074	8a 45 ea	 mov	 al, BYTE PTR _packet_item_set$[ebp+26]
  00077	88 45 be	 mov	 BYTE PTR _kItemData$[ebp+30], al
  0007a	0f b7 45 eb	 movzx	 eax, WORD PTR _packet_item_set$[ebp+27]
  0007e	66 89 45 bf	 mov	 WORD PTR _kItemData$[ebp+31], ax
  00082	8a 45 ed	 mov	 al, BYTE PTR _packet_item_set$[ebp+29]
  00085	88 45 c1	 mov	 BYTE PTR _kItemData$[ebp+33], al
  00088	0f b7 45 ee	 movzx	 eax, WORD PTR _packet_item_set$[ebp+30]
  0008c	66 89 45 c2	 mov	 WORD PTR _kItemData$[ebp+34], ax
  00090	8a 45 f0	 mov	 al, BYTE PTR _packet_item_set$[ebp+32]

; 229  : 
; 230  : 	IAbstractPlayer& rkPlayer=IAbstractPlayer::GetSingleton();

  00093	8b 0d 00 00 00
	00		 mov	 ecx, DWORD PTR ?ms_singleton@?$TAbstractSingleton@VIAbstractPlayer@@@@0PAVIAbstractPlayer@@A ; TAbstractSingleton<IAbstractPlayer>::ms_singleton
  00099	88 45 c4	 mov	 BYTE PTR _kItemData$[ebp+36], al
  0009c	0f b7 45 f1	 movzx	 eax, WORD PTR _packet_item_set$[ebp+33]
  000a0	66 89 45 c5	 mov	 WORD PTR _kItemData$[ebp+37], ax
  000a4	8a 45 f3	 mov	 al, BYTE PTR _packet_item_set$[ebp+35]
  000a7	88 45 c7	 mov	 BYTE PTR _kItemData$[ebp+39], al
  000aa	0f b7 45 f4	 movzx	 eax, WORD PTR _packet_item_set$[ebp+36]
  000ae	66 89 45 c8	 mov	 WORD PTR _kItemData$[ebp+40], ax
  000b2	8a 45 f6	 mov	 al, BYTE PTR _packet_item_set$[ebp+38]
  000b5	88 45 ca	 mov	 BYTE PTR _kItemData$[ebp+42], al
  000b8	0f b7 45 f7	 movzx	 eax, WORD PTR _packet_item_set$[ebp+39]
  000bc	66 89 45 cb	 mov	 WORD PTR _kItemData$[ebp+43], ax
  000c0	8a 45 f9	 mov	 al, BYTE PTR _packet_item_set$[ebp+41]
  000c3	88 45 cd	 mov	 BYTE PTR _kItemData$[ebp+45], al

; 231  : 	
; 232  : 	rkPlayer.SetItemData(packet_item_set.Cell, kItemData);

  000c6	8d 45 a0	 lea	 eax, DWORD PTR _kItemData$[ebp]
  000c9	50		 push	 eax
  000ca	0f b7 45 d1	 movzx	 eax, WORD PTR _packet_item_set$[ebp+1]
  000ce	51		 push	 ecx
  000cf	8b d4		 mov	 edx, esp
  000d1	c7 45 a5 00 00
	00 00		 mov	 DWORD PTR _kItemData$[ebp+5], 0
  000d8	8b 31		 mov	 esi, DWORD PTR [ecx]
  000da	66 89 02	 mov	 WORD PTR [edx], ax
  000dd	8a 45 d3	 mov	 al, BYTE PTR _packet_item_set$[ebp+3]
  000e0	88 42 02	 mov	 BYTE PTR [edx+2], al
  000e3	ff 56 30	 call	 DWORD PTR [esi+48]

; 233  : 	
; 234  : 	__RefreshInventoryWindow();

  000e6	8b cf		 mov	 ecx, edi
  000e8	e8 00 00 00 00	 call	 ?__RefreshInventoryWindow@CPythonNetworkStream@@IAEXXZ ; CPythonNetworkStream::__RefreshInventoryWindow

; 235  : 	return true;
; 236  : }

  000ed	8b 4d fc	 mov	 ecx, DWORD PTR __$ArrayPad$[ebp]
  000f0	b0 01		 mov	 al, 1
  000f2	5f		 pop	 edi
  000f3	33 cd		 xor	 ecx, ebp
  000f5	5e		 pop	 esi
  000f6	e8 00 00 00 00	 call	 @__security_check_cookie@4
  000fb	8b e5		 mov	 esp, ebp
  000fd	5d		 pop	 ebp
  000fe	c3		 ret	 0
?RecvItemSetPacket@CPythonNetworkStream@@IAE_NXZ ENDP	; CPythonNetworkStream::RecvItemSetPacket
_TEXT	ENDS
; Function compile flags: /Ogtp
; File d:\metin2\metin2\client_source_clean\client_source_clean\source\userinterface\packet.h
; File d:\metin2\metin2\client_source_clean\client_source_clean\source\userinterface\gametype.h
; File d:\metin2\metin2\client_source_clean\client_source_clean\source\userinterface\packet.h
; File d:\metin2\metin2\client_source_clean\client_source_clean\source\userinterface\gametype.h
; File d:\metin2\metin2\client_source_clean\client_source_clean\source\userinterface\packet.h
; File d:\metin2\metin2\client_source_clean\client_source_clean\source\userinterface\gametype.h
; File d:\metin2\metin2\client_source_clean\client_source_clean\source\userinterface\packet.h
;	COMDAT ??0SPacketGCDragonSoulRefine@@QAE@XZ
_TEXT	SEGMENT
??0SPacketGCDragonSoulRefine@@QAE@XZ PROC		; SPacketGCDragonSoulRefine::SPacketGCDragonSoulRefine, COMDAT
; _this$ = ecx
; File d:\metin2\metin2\client_source_clean\client_source_clean\source\userinterface\gametype.h

; 187  : 		cell = WORD_MAX;

  00000	b8 ff ff 00 00	 mov	 eax, 65535		; 0000ffffH
; File d:\metin2\metin2\client_source_clean\client_source_clean\source\userinterface\packet.h

; 2801 : 	{}

  00005	c6 01 d1	 mov	 BYTE PTR [ecx], 209	; 000000d1H
; File d:\metin2\metin2\client_source_clean\client_source_clean\source\userinterface\gametype.h

; 187  : 		cell = WORD_MAX;

  00008	66 89 41 03	 mov	 WORD PTR [ecx+3], ax
; File d:\metin2\metin2\client_source_clean\client_source_clean\source\userinterface\packet.h

; 2801 : 	{}

  0000c	8b c1		 mov	 eax, ecx
; File d:\metin2\metin2\client_source_clean\client_source_clean\source\userinterface\gametype.h

; 186  : 		window_type =     INVENTORY;

  0000e	c6 41 02 01	 mov	 BYTE PTR [ecx+2], 1
; File d:\metin2\metin2\client_source_clean\client_source_clean\source\userinterface\packet.h

; 2801 : 	{}

  00012	c3		 ret	 0
??0SPacketGCDragonSoulRefine@@QAE@XZ ENDP		; SPacketGCDragonSoulRefine::SPacketGCDragonSoulRefine
_TEXT	ENDS
; Function compile flags: /Ogtp
; File d:\metin2\metin2\client_source_clean\client_source_clean\source\userinterface\gametype.h
;	COMDAT ??0command_safebox_checkin@@QAE@XZ
_TEXT	SEGMENT
??0command_safebox_checkin@@QAE@XZ PROC			; command_safebox_checkin::command_safebox_checkin, COMDAT
; _this$ = ecx

; 187  : 		cell = WORD_MAX;

  00000	b8 ff ff 00 00	 mov	 eax, 65535		; 0000ffffH
  00005	c6 41 02 01	 mov	 BYTE PTR [ecx+2], 1
  00009	66 89 41 03	 mov	 WORD PTR [ecx+3], ax
  0000d	8b c1		 mov	 eax, ecx
  0000f	c3		 ret	 0
??0command_safebox_checkin@@QAE@XZ ENDP			; command_safebox_checkin::command_safebox_checkin
_TEXT	ENDS
; Function compile flags: /Ogtp
; File d:\metin2\metin2\client_source_clean\client_source_clean\source\userinterface\gametype.h
;	COMDAT ??0command_safebox_checkout@@QAE@XZ
_TEXT	SEGMENT
??0command_safebox_checkout@@QAE@XZ PROC		; command_safebox_checkout::command_safebox_checkout, COMDAT
; _this$ = ecx

; 187  : 		cell = WORD_MAX;

  00000	b8 ff ff 00 00	 mov	 eax, 65535		; 0000ffffH
  00005	c6 41 02 01	 mov	 BYTE PTR [ecx+2], 1
  00009	66 89 41 03	 mov	 WORD PTR [ecx+3], ax
  0000d	8b c1		 mov	 eax, ecx
  0000f	c3		 ret	 0
??0command_safebox_checkout@@QAE@XZ ENDP		; command_safebox_checkout::command_safebox_checkout
_TEXT	ENDS
; Function compile flags: /Ogtp
; File d:\metin2\metin2\client_source_clean\client_source_clean\source\userinterface\gametype.h
;	COMDAT ??0command_item_move@@QAE@XZ
_TEXT	SEGMENT
??0command_item_move@@QAE@XZ PROC			; command_item_move::command_item_move, COMDAT
; _this$ = ecx

; 187  : 		cell = WORD_MAX;

  00000	b8 ff ff 00 00	 mov	 eax, 65535		; 0000ffffH
  00005	c6 41 01 01	 mov	 BYTE PTR [ecx+1], 1
  00009	66 89 41 02	 mov	 WORD PTR [ecx+2], ax
  0000d	66 89 41 05	 mov	 WORD PTR [ecx+5], ax
  00011	8b c1		 mov	 eax, ecx

; 186  : 		window_type =     INVENTORY;

  00013	c6 41 04 01	 mov	 BYTE PTR [ecx+4], 1
  00017	c3		 ret	 0
??0command_item_move@@QAE@XZ ENDP			; command_item_move::command_item_move
_TEXT	ENDS
; Function compile flags: /Ogtp
; File d:\metin2\metin2\client_source_clean\client_source_clean\source\userinterface\gametype.h
;	COMDAT ??0packet_set_item2@@QAE@XZ
_TEXT	SEGMENT
??0packet_set_item2@@QAE@XZ PROC			; packet_set_item2::packet_set_item2, COMDAT
; _this$ = ecx

; 187  : 		cell = WORD_MAX;

  00000	b8 ff ff 00 00	 mov	 eax, 65535		; 0000ffffH
  00005	c6 41 01 01	 mov	 BYTE PTR [ecx+1], 1
  00009	66 89 41 02	 mov	 WORD PTR [ecx+2], ax
  0000d	8b c1		 mov	 eax, ecx
  0000f	c3		 ret	 0
??0packet_set_item2@@QAE@XZ ENDP			; packet_set_item2::packet_set_item2
_TEXT	ENDS
; Function compile flags: /Ogtp
; File d:\metin2\metin2\client_source_clean\client_source_clean\source\userinterface\gametype.h
;	COMDAT ??0command_mall_checkout@@QAE@XZ
_TEXT	SEGMENT
??0command_mall_checkout@@QAE@XZ PROC			; command_mall_checkout::command_mall_checkout, COMDAT
; _this$ = ecx

; 187  : 		cell = WORD_MAX;

  00000	b8 ff ff 00 00	 mov	 eax, 65535		; 0000ffffH
  00005	c6 41 02 01	 mov	 BYTE PTR [ecx+2], 1
  00009	66 89 41 03	 mov	 WORD PTR [ecx+3], ax
  0000d	8b c1		 mov	 eax, ecx
  0000f	c3		 ret	 0
??0command_mall_checkout@@QAE@XZ ENDP			; command_mall_checkout::command_mall_checkout
_TEXT	ENDS
; Function compile flags: /Ogtp
; File d:\metin2\metin2\client_source_clean\client_source_clean\source\userinterface\gametype.h
;	COMDAT ??0packet_set_item@@QAE@XZ
_TEXT	SEGMENT
??0packet_set_item@@QAE@XZ PROC				; packet_set_item::packet_set_item, COMDAT
; _this$ = ecx

; 187  : 		cell = WORD_MAX;

  00000	b8 ff ff 00 00	 mov	 eax, 65535		; 0000ffffH
  00005	c6 41 01 01	 mov	 BYTE PTR [ecx+1], 1
  00009	66 89 41 02	 mov	 WORD PTR [ecx+2], ax
  0000d	8b c1		 mov	 eax, ecx
  0000f	c3		 ret	 0
??0packet_set_item@@QAE@XZ ENDP				; packet_set_item::packet_set_item
_TEXT	ENDS
; Function compile flags: /Ogtp
; File d:\metin2\metin2\client_source_clean\client_source_clean\source\userinterface\gametype.h
;	COMDAT ??0packet_use_item@@QAE@XZ
_TEXT	SEGMENT
??0packet_use_item@@QAE@XZ PROC				; packet_use_item::packet_use_item, COMDAT
; _this$ = ecx

; 187  : 		cell = WORD_MAX;

  00000	b8 ff ff 00 00	 mov	 eax, 65535		; 0000ffffH
  00005	c6 41 01 01	 mov	 BYTE PTR [ecx+1], 1
  00009	66 89 41 02	 mov	 WORD PTR [ecx+2], ax
  0000d	8b c1		 mov	 eax, ecx
  0000f	c3		 ret	 0
??0packet_use_item@@QAE@XZ ENDP				; packet_use_item::packet_use_item
_TEXT	ENDS
; Function compile flags: /Ogtp
; File d:\metin2\metin2\client_source_clean\client_source_clean\source\userinterface\gametype.h
;	COMDAT ??0packet_update_item@@QAE@XZ
_TEXT	SEGMENT
??0packet_update_item@@QAE@XZ PROC			; packet_update_item::packet_update_item, COMDAT
; _this$ = ecx

; 187  : 		cell = WORD_MAX;

  00000	b8 ff ff 00 00	 mov	 eax, 65535		; 0000ffffH
  00005	c6 41 01 01	 mov	 BYTE PTR [ecx+1], 1
  00009	66 89 41 02	 mov	 WORD PTR [ecx+2], ax
  0000d	8b c1		 mov	 eax, ecx
  0000f	c3		 ret	 0
??0packet_update_item@@QAE@XZ ENDP			; packet_update_item::packet_update_item
_TEXT	ENDS
; Function compile flags: /Ogtp
; File d:\metin2\metin2\client_source_clean\client_source_clean\source\userinterface\gametype.h
;	COMDAT ??0command_item_use@@QAE@XZ
_TEXT	SEGMENT
??0command_item_use@@QAE@XZ PROC			; command_item_use::command_item_use, COMDAT
; _this$ = ecx

; 187  : 		cell = WORD_MAX;

  00000	b8 ff ff 00 00	 mov	 eax, 65535		; 0000ffffH
  00005	c6 41 01 01	 mov	 BYTE PTR [ecx+1], 1
  00009	66 89 41 02	 mov	 WORD PTR [ecx+2], ax
  0000d	8b c1		 mov	 eax, ecx
  0000f	c3		 ret	 0
??0command_item_use@@QAE@XZ ENDP			; command_item_use::command_item_use
_TEXT	ENDS
; Function compile flags: /Ogtp
; File d:\metin2\metin2\client_source_clean\client_source_clean\source\userinterface\gametype.h
;	COMDAT ??0command_item_use_to_item@@QAE@XZ
_TEXT	SEGMENT
??0command_item_use_to_item@@QAE@XZ PROC		; command_item_use_to_item::command_item_use_to_item, COMDAT
; _this$ = ecx

; 187  : 		cell = WORD_MAX;

  00000	b8 ff ff 00 00	 mov	 eax, 65535		; 0000ffffH
  00005	c6 41 01 01	 mov	 BYTE PTR [ecx+1], 1
  00009	66 89 41 02	 mov	 WORD PTR [ecx+2], ax
  0000d	66 89 41 05	 mov	 WORD PTR [ecx+5], ax
  00011	8b c1		 mov	 eax, ecx

; 186  : 		window_type =     INVENTORY;

  00013	c6 41 04 01	 mov	 BYTE PTR [ecx+4], 1
  00017	c3		 ret	 0
??0command_item_use_to_item@@QAE@XZ ENDP		; command_item_use_to_item::command_item_use_to_item
_TEXT	ENDS
; Function compile flags: /Ogtp
; File d:\metin2\metin2\client_source_clean\client_source_clean\source\userinterface\gametype.h
;	COMDAT ??0command_item_drop@@QAE@XZ
_TEXT	SEGMENT
??0command_item_drop@@QAE@XZ PROC			; command_item_drop::command_item_drop, COMDAT
; _this$ = ecx

; 187  : 		cell = WORD_MAX;

  00000	b8 ff ff 00 00	 mov	 eax, 65535		; 0000ffffH
  00005	c6 41 01 01	 mov	 BYTE PTR [ecx+1], 1
  00009	66 89 41 02	 mov	 WORD PTR [ecx+2], ax
  0000d	8b c1		 mov	 eax, ecx
  0000f	c3		 ret	 0
??0command_item_drop@@QAE@XZ ENDP			; command_item_drop::command_item_drop
_TEXT	ENDS
; Function compile flags: /Ogtp
; File d:\metin2\metin2\client_source_clean\client_source_clean\source\userinterface\gametype.h
;	COMDAT ??0command_item_drop2@@QAE@XZ
_TEXT	SEGMENT
??0command_item_drop2@@QAE@XZ PROC			; command_item_drop2::command_item_drop2, COMDAT
; _this$ = ecx

; 187  : 		cell = WORD_MAX;

  00000	b8 ff ff 00 00	 mov	 eax, 65535		; 0000ffffH
  00005	c6 41 01 01	 mov	 BYTE PTR [ecx+1], 1
  00009	66 89 41 02	 mov	 WORD PTR [ecx+2], ax
  0000d	8b c1		 mov	 eax, ecx
  0000f	c3		 ret	 0
??0command_item_drop2@@QAE@XZ ENDP			; command_item_drop2::command_item_drop2
_TEXT	ENDS
; Function compile flags: /Ogtp
; File d:\metin2\metin2\client_source_clean\client_source_clean\source\userinterface\pythonnetworkstreamphasegameitem.cpp
;	COMDAT ?__IsEquipItemInSlot@CPythonNetworkStream@@IAE_NUSItemPos@@@Z
_TEXT	SEGMENT
_uSlotPos$ = 8						; size = 3
?__IsEquipItemInSlot@CPythonNetworkStream@@IAE_NUSItemPos@@@Z PROC ; CPythonNetworkStream::__IsEquipItemInSlot, COMDAT
; _this$dead$ = ecx

; 587  : {

  00000	55		 push	 ebp
  00001	8b ec		 mov	 ebp, esp

; 588  : 	IAbstractPlayer& rkPlayer=IAbstractPlayer::GetSingleton();

  00003	8b 0d 00 00 00
	00		 mov	 ecx, DWORD PTR ?ms_singleton@?$TAbstractSingleton@VIAbstractPlayer@@@@0PAVIAbstractPlayer@@A ; TAbstractSingleton<IAbstractPlayer>::ms_singleton

; 589  : 	return rkPlayer.IsEquipItemInSlot(uSlotPos);

  00009	8b 45 08	 mov	 eax, DWORD PTR _uSlotPos$[ebp]
  0000c	56		 push	 esi
  0000d	51		 push	 ecx
  0000e	8b 31		 mov	 esi, DWORD PTR [ecx]
  00010	8b d4		 mov	 edx, esp
  00012	66 89 02	 mov	 WORD PTR [edx], ax
  00015	8b 45 0a	 mov	 eax, DWORD PTR _uSlotPos$[ebp+2]
  00018	88 42 02	 mov	 BYTE PTR [edx+2], al
  0001b	8b 46 4c	 mov	 eax, DWORD PTR [esi+76]
  0001e	ff d0		 call	 eax

; 590  : }

  00020	5e		 pop	 esi
  00021	5d		 pop	 ebp
  00022	c2 04 00	 ret	 4
?__IsEquipItemInSlot@CPythonNetworkStream@@IAE_NUSItemPos@@@Z ENDP ; CPythonNetworkStream::__IsEquipItemInSlot
_TEXT	ENDS
; Function compile flags: /Ogtp
; File d:\metin2\metin2\client_source_clean\client_source_clean\source\userinterface\pythonnetworkstreamphasegameitem.cpp
;	COMDAT ?__PlayInventoryItemUseSound@CPythonNetworkStream@@IAEXUSItemPos@@@Z
_TEXT	SEGMENT
_uSlotPos$ = 8						; size = 3
?__PlayInventoryItemUseSound@CPythonNetworkStream@@IAEXUSItemPos@@@Z PROC ; CPythonNetworkStream::__PlayInventoryItemUseSound, COMDAT
; _this$dead$ = ecx

; 593  : {

  00000	55		 push	 ebp
  00001	8b ec		 mov	 ebp, esp

; 594  : 	IAbstractPlayer& rkPlayer=IAbstractPlayer::GetSingleton();

  00003	8b 0d 00 00 00
	00		 mov	 ecx, DWORD PTR ?ms_singleton@?$TAbstractSingleton@VIAbstractPlayer@@@@0PAVIAbstractPlayer@@A ; TAbstractSingleton<IAbstractPlayer>::ms_singleton

; 595  : 	DWORD dwItemID=rkPlayer.GetItemIndex(uSlotPos);

  00009	8b 45 08	 mov	 eax, DWORD PTR _uSlotPos$[ebp]
  0000c	56		 push	 esi
  0000d	51		 push	 ecx
  0000e	8b 31		 mov	 esi, DWORD PTR [ecx]
  00010	8b d4		 mov	 edx, esp
  00012	66 89 02	 mov	 WORD PTR [edx], ax
  00015	8b 45 0a	 mov	 eax, DWORD PTR _uSlotPos$[ebp+2]
  00018	88 42 02	 mov	 BYTE PTR [edx+2], al
  0001b	ff 56 40	 call	 DWORD PTR [esi+64]

; 596  : 
; 597  : 	CPythonItem& rkItem=CPythonItem::Instance();
; 598  : 	rkItem.PlayUseSound(dwItemID);

  0001e	8b 0d 00 00 00
	00		 mov	 ecx, DWORD PTR ?ms_singleton@?$CSingleton@VCPythonItem@@@@0PAVCPythonItem@@A ; CSingleton<CPythonItem>::ms_singleton
  00024	50		 push	 eax
  00025	e8 00 00 00 00	 call	 ?PlayUseSound@CPythonItem@@QAEXK@Z ; CPythonItem::PlayUseSound

; 599  : }

  0002a	5e		 pop	 esi
  0002b	5d		 pop	 ebp
  0002c	c2 04 00	 ret	 4
?__PlayInventoryItemUseSound@CPythonNetworkStream@@IAEXUSItemPos@@@Z ENDP ; CPythonNetworkStream::__PlayInventoryItemUseSound
_TEXT	ENDS
; Function compile flags: /Ogtp
; File d:\metin2\metin2\client_source_clean\client_source_clean\source\userinterface\pythonnetworkstreamphasegameitem.cpp
;	COMDAT ?__PlayInventoryItemDropSound@CPythonNetworkStream@@IAEXUSItemPos@@@Z
_TEXT	SEGMENT
_uSlotPos$ = 8						; size = 3
?__PlayInventoryItemDropSound@CPythonNetworkStream@@IAEXUSItemPos@@@Z PROC ; CPythonNetworkStream::__PlayInventoryItemDropSound, COMDAT
; _this$dead$ = ecx

; 602  : {

  00000	55		 push	 ebp
  00001	8b ec		 mov	 ebp, esp

; 603  : 	IAbstractPlayer& rkPlayer=IAbstractPlayer::GetSingleton();

  00003	8b 0d 00 00 00
	00		 mov	 ecx, DWORD PTR ?ms_singleton@?$TAbstractSingleton@VIAbstractPlayer@@@@0PAVIAbstractPlayer@@A ; TAbstractSingleton<IAbstractPlayer>::ms_singleton

; 604  : 	DWORD dwItemID=rkPlayer.GetItemIndex(uSlotPos);

  00009	8b 45 08	 mov	 eax, DWORD PTR _uSlotPos$[ebp]
  0000c	56		 push	 esi
  0000d	51		 push	 ecx
  0000e	8b 31		 mov	 esi, DWORD PTR [ecx]
  00010	8b d4		 mov	 edx, esp
  00012	66 89 02	 mov	 WORD PTR [edx], ax
  00015	8b 45 0a	 mov	 eax, DWORD PTR _uSlotPos$[ebp+2]
  00018	88 42 02	 mov	 BYTE PTR [edx+2], al
  0001b	ff 56 40	 call	 DWORD PTR [esi+64]

; 605  : 
; 606  : 	CPythonItem& rkItem=CPythonItem::Instance();
; 607  : 	rkItem.PlayDropSound(dwItemID);

  0001e	50		 push	 eax
  0001f	e8 00 00 00 00	 call	 ?PlayDropSound@CPythonItem@@QAEXK@Z ; CPythonItem::PlayDropSound

; 608  : }

  00024	5e		 pop	 esi
  00025	5d		 pop	 ebp
  00026	c2 04 00	 ret	 4
?__PlayInventoryItemDropSound@CPythonNetworkStream@@IAEXUSItemPos@@@Z ENDP ; CPythonNetworkStream::__PlayInventoryItemDropSound
_TEXT	ENDS
; Function compile flags: /Ogtp
; File d:\metin2\metin2\client_source_clean\client_source_clean\source\userinterface\pythonnetworkstreamphasegameitem.cpp
;	COMDAT ?__PlaySafeBoxItemDropSound@CPythonNetworkStream@@IAEXI@Z
_TEXT	SEGMENT
_dwItemID$ = -4						; size = 4
_uSlotPos$ = 8						; size = 4
?__PlaySafeBoxItemDropSound@CPythonNetworkStream@@IAEXI@Z PROC ; CPythonNetworkStream::__PlaySafeBoxItemDropSound, COMDAT
; _this$dead$ = ecx

; 622  : {

  00000	55		 push	 ebp
  00001	8b ec		 mov	 ebp, esp
  00003	51		 push	 ecx

; 623  : 	DWORD dwItemID;
; 624  : 	CPythonSafeBox& rkSafeBox=CPythonSafeBox::Instance();
; 625  : 	if (!rkSafeBox.GetSlotItemID(uSlotPos, &dwItemID))

  00004	8b 0d 00 00 00
	00		 mov	 ecx, DWORD PTR ?ms_singleton@?$CSingleton@VCPythonSafeBox@@@@0PAVCPythonSafeBox@@A ; CSingleton<CPythonSafeBox>::ms_singleton
  0000a	8d 45 fc	 lea	 eax, DWORD PTR _dwItemID$[ebp]
  0000d	50		 push	 eax
  0000e	ff 75 08	 push	 DWORD PTR _uSlotPos$[ebp]
  00011	e8 00 00 00 00	 call	 ?GetSlotItemID@CPythonSafeBox@@QAEHKPAK@Z ; CPythonSafeBox::GetSlotItemID
  00016	85 c0		 test	 eax, eax
  00018	74 08		 je	 SHORT $LN2@PlaySafeBo

; 626  : 		return;
; 627  : 
; 628  : 	CPythonItem& rkItem=CPythonItem::Instance();
; 629  : 	rkItem.PlayDropSound(dwItemID);

  0001a	ff 75 fc	 push	 DWORD PTR _dwItemID$[ebp]
  0001d	e8 00 00 00 00	 call	 ?PlayDropSound@CPythonItem@@QAEXK@Z ; CPythonItem::PlayDropSound
$LN2@PlaySafeBo:

; 630  : }

  00022	8b e5		 mov	 esp, ebp
  00024	5d		 pop	 ebp
  00025	c2 04 00	 ret	 4
?__PlaySafeBoxItemDropSound@CPythonNetworkStream@@IAEXI@Z ENDP ; CPythonNetworkStream::__PlaySafeBoxItemDropSound
_TEXT	ENDS
; Function compile flags: /Ogtp
; File d:\metin2\metin2\client_source_clean\client_source_clean\source\userinterface\pythonnetworkstreamphasegameitem.cpp
;	COMDAT ?__PlayMallItemDropSound@CPythonNetworkStream@@IAEXI@Z
_TEXT	SEGMENT
_dwItemID$ = -4						; size = 4
_uSlotPos$ = 8						; size = 4
?__PlayMallItemDropSound@CPythonNetworkStream@@IAEXI@Z PROC ; CPythonNetworkStream::__PlayMallItemDropSound, COMDAT
; _this$dead$ = ecx

; 633  : {

  00000	55		 push	 ebp
  00001	8b ec		 mov	 ebp, esp
  00003	51		 push	 ecx

; 634  : 	DWORD dwItemID;
; 635  : 	CPythonSafeBox& rkSafeBox=CPythonSafeBox::Instance();
; 636  : 	if (!rkSafeBox.GetSlotMallItemID(uSlotPos, &dwItemID))

  00004	8b 0d 00 00 00
	00		 mov	 ecx, DWORD PTR ?ms_singleton@?$CSingleton@VCPythonSafeBox@@@@0PAVCPythonSafeBox@@A ; CSingleton<CPythonSafeBox>::ms_singleton
  0000a	8d 45 fc	 lea	 eax, DWORD PTR _dwItemID$[ebp]
  0000d	50		 push	 eax
  0000e	ff 75 08	 push	 DWORD PTR _uSlotPos$[ebp]
  00011	e8 00 00 00 00	 call	 ?GetSlotMallItemID@CPythonSafeBox@@QAEHKPAK@Z ; CPythonSafeBox::GetSlotMallItemID
  00016	85 c0		 test	 eax, eax
  00018	74 08		 je	 SHORT $LN2@PlayMallIt

; 637  : 		return;
; 638  : 
; 639  : 	CPythonItem& rkItem=CPythonItem::Instance();
; 640  : 	rkItem.PlayDropSound(dwItemID);

  0001a	ff 75 fc	 push	 DWORD PTR _dwItemID$[ebp]
  0001d	e8 00 00 00 00	 call	 ?PlayDropSound@CPythonItem@@QAEXK@Z ; CPythonItem::PlayDropSound
$LN2@PlayMallIt:

; 641  : }

  00022	8b e5		 mov	 esp, ebp
  00024	5d		 pop	 ebp
  00025	c2 04 00	 ret	 4
?__PlayMallItemDropSound@CPythonNetworkStream@@IAEXI@Z ENDP ; CPythonNetworkStream::__PlayMallItemDropSound
_TEXT	ENDS
; Function compile flags: /Ogtp
; File d:\metin2\metin2\client_source_clean\client_source_clean\source\userinterface\pythonnetworkstreamphasegameitem.cpp
;	COMDAT ?SendQuickSlotAddPacket@CPythonNetworkStream@@QAE_NEEE@Z
_TEXT	SEGMENT
_quickSlotAddPacket$ = -4				; size = 4
_wpos$ = 8						; size = 1
_type$ = 12						; size = 1
_pos$ = 16						; size = 1
?SendQuickSlotAddPacket@CPythonNetworkStream@@QAE_NEEE@Z PROC ; CPythonNetworkStream::SendQuickSlotAddPacket, COMDAT
; _this$ = ecx

; 709  : {

  00000	55		 push	 ebp
  00001	8b ec		 mov	 ebp, esp
  00003	51		 push	 ecx
  00004	56		 push	 esi
  00005	8b f1		 mov	 esi, ecx

; 710  : 	if (!__CanActMainInstance())

  00007	e8 00 00 00 00	 call	 ?__CanActMainInstance@CPythonNetworkStream@@IAE_NXZ ; CPythonNetworkStream::__CanActMainInstance
  0000c	84 c0		 test	 al, al
  0000e	75 09		 jne	 SHORT $LN2@SendQuickS

; 711  : 		return true;

  00010	b0 01		 mov	 al, 1
  00012	5e		 pop	 esi

; 727  : }

  00013	8b e5		 mov	 esp, ebp
  00015	5d		 pop	 ebp
  00016	c2 0c 00	 ret	 12			; 0000000cH
$LN2@SendQuickS:

; 712  : 
; 713  : 	TPacketCGQuickSlotAdd quickSlotAddPacket;
; 714  : 
; 715  : 	quickSlotAddPacket.header		= HEADER_CG_QUICKSLOT_ADD;
; 716  : 	quickSlotAddPacket.pos			= wpos;

  00019	8b 45 08	 mov	 eax, DWORD PTR _wpos$[ebp]

; 717  : 	quickSlotAddPacket.slot.Type	= type;
; 718  : 	quickSlotAddPacket.slot.Position = pos;
; 719  : 
; 720  : 	if (!Send(sizeof(TPacketCGQuickSlotAdd), &quickSlotAddPacket))

  0001c	8b ce		 mov	 ecx, esi
  0001e	88 45 fd	 mov	 BYTE PTR _quickSlotAddPacket$[ebp+1], al
  00021	8b 45 0c	 mov	 eax, DWORD PTR _type$[ebp]
  00024	88 45 fe	 mov	 BYTE PTR _quickSlotAddPacket$[ebp+2], al
  00027	8b 45 10	 mov	 eax, DWORD PTR _pos$[ebp]
  0002a	88 45 ff	 mov	 BYTE PTR _quickSlotAddPacket$[ebp+3], al
  0002d	8d 45 fc	 lea	 eax, DWORD PTR _quickSlotAddPacket$[ebp]
  00030	50		 push	 eax
  00031	6a 04		 push	 4
  00033	c6 45 fc 10	 mov	 BYTE PTR _quickSlotAddPacket$[ebp], 16 ; 00000010H
  00037	e8 00 00 00 00	 call	 ?Send@CNetworkStream@@QAE_NHPBX@Z ; CNetworkStream::Send
  0003c	84 c0		 test	 al, al
  0003e	75 16		 jne	 SHORT $LN1@SendQuickS

; 721  : 	{
; 722  : 		Tracen("SendQuickSlotAddPacket Error");

  00040	68 00 00 00 00	 push	 OFFSET ??_C@_0BN@ONNLHEKF@SendQuickSlotAddPacket?5Error?$AA@
  00045	e8 00 00 00 00	 call	 ?Tracen@@YAXPBD@Z	; Tracen
  0004a	83 c4 04	 add	 esp, 4

; 723  : 		return false;

  0004d	32 c0		 xor	 al, al
  0004f	5e		 pop	 esi

; 727  : }

  00050	8b e5		 mov	 esp, ebp
  00052	5d		 pop	 ebp
  00053	c2 0c 00	 ret	 12			; 0000000cH
$LN1@SendQuickS:

; 724  : 	}
; 725  : 
; 726  : 	return SendSequence();

  00056	8b ce		 mov	 ecx, esi
  00058	e8 00 00 00 00	 call	 ?SendSequence@CNetworkStream@@QAE_NXZ ; CNetworkStream::SendSequence
  0005d	5e		 pop	 esi

; 727  : }

  0005e	8b e5		 mov	 esp, ebp
  00060	5d		 pop	 ebp
  00061	c2 0c 00	 ret	 12			; 0000000cH
?SendQuickSlotAddPacket@CPythonNetworkStream@@QAE_NEEE@Z ENDP ; CPythonNetworkStream::SendQuickSlotAddPacket
_TEXT	ENDS
; Function compile flags: /Ogtp
; File d:\metin2\metin2\client_source_clean\client_source_clean\source\userinterface\pythonnetworkstreamphasegameitem.cpp
;	COMDAT ?SendQuickSlotDelPacket@CPythonNetworkStream@@QAE_NE@Z
_TEXT	SEGMENT
_quickSlotDelPacket$ = -4				; size = 2
_pos$ = 8						; size = 1
?SendQuickSlotDelPacket@CPythonNetworkStream@@QAE_NE@Z PROC ; CPythonNetworkStream::SendQuickSlotDelPacket, COMDAT
; _this$ = ecx

; 730  : {

  00000	55		 push	 ebp
  00001	8b ec		 mov	 ebp, esp
  00003	51		 push	 ecx
  00004	56		 push	 esi
  00005	8b f1		 mov	 esi, ecx

; 731  : 	if (!__CanActMainInstance())

  00007	e8 00 00 00 00	 call	 ?__CanActMainInstance@CPythonNetworkStream@@IAE_NXZ ; CPythonNetworkStream::__CanActMainInstance
  0000c	84 c0		 test	 al, al
  0000e	75 09		 jne	 SHORT $LN2@SendQuickS

; 732  : 		return true;

  00010	b0 01		 mov	 al, 1
  00012	5e		 pop	 esi

; 746  : }

  00013	8b e5		 mov	 esp, ebp
  00015	5d		 pop	 ebp
  00016	c2 04 00	 ret	 4
$LN2@SendQuickS:

; 733  : 
; 734  : 	TPacketCGQuickSlotDel quickSlotDelPacket;
; 735  : 
; 736  : 	quickSlotDelPacket.header = HEADER_CG_QUICKSLOT_DEL;
; 737  : 	quickSlotDelPacket.pos = pos;

  00019	8b 45 08	 mov	 eax, DWORD PTR _pos$[ebp]

; 738  : 
; 739  : 	if (!Send(sizeof(TPacketCGQuickSlotDel), &quickSlotDelPacket))

  0001c	8b ce		 mov	 ecx, esi
  0001e	88 45 fd	 mov	 BYTE PTR _quickSlotDelPacket$[ebp+1], al
  00021	8d 45 fc	 lea	 eax, DWORD PTR _quickSlotDelPacket$[ebp]
  00024	50		 push	 eax
  00025	6a 02		 push	 2
  00027	c6 45 fc 11	 mov	 BYTE PTR _quickSlotDelPacket$[ebp], 17 ; 00000011H
  0002b	e8 00 00 00 00	 call	 ?Send@CNetworkStream@@QAE_NHPBX@Z ; CNetworkStream::Send
  00030	84 c0		 test	 al, al
  00032	75 16		 jne	 SHORT $LN1@SendQuickS

; 740  : 	{
; 741  : 		Tracen("SendQuickSlotDelPacket Error");

  00034	68 00 00 00 00	 push	 OFFSET ??_C@_0BN@BNCAGMGN@SendQuickSlotDelPacket?5Error?$AA@
  00039	e8 00 00 00 00	 call	 ?Tracen@@YAXPBD@Z	; Tracen
  0003e	83 c4 04	 add	 esp, 4

; 742  : 		return false;

  00041	32 c0		 xor	 al, al
  00043	5e		 pop	 esi

; 746  : }

  00044	8b e5		 mov	 esp, ebp
  00046	5d		 pop	 ebp
  00047	c2 04 00	 ret	 4
$LN1@SendQuickS:

; 743  : 	}
; 744  : 
; 745  : 	return SendSequence();

  0004a	8b ce		 mov	 ecx, esi
  0004c	e8 00 00 00 00	 call	 ?SendSequence@CNetworkStream@@QAE_NXZ ; CNetworkStream::SendSequence
  00051	5e		 pop	 esi

; 746  : }

  00052	8b e5		 mov	 esp, ebp
  00054	5d		 pop	 ebp
  00055	c2 04 00	 ret	 4
?SendQuickSlotDelPacket@CPythonNetworkStream@@QAE_NE@Z ENDP ; CPythonNetworkStream::SendQuickSlotDelPacket
_TEXT	ENDS
; Function compile flags: /Ogtp
; File d:\metin2\metin2\client_source_clean\client_source_clean\source\userinterface\pythonnetworkstreamphasegameitem.cpp
;	COMDAT ?SendQuickSlotMovePacket@CPythonNetworkStream@@QAE_NEE@Z
_TEXT	SEGMENT
_quickSlotSwapPacket$ = -4				; size = 3
_pos$ = 8						; size = 1
_change_pos$ = 12					; size = 1
?SendQuickSlotMovePacket@CPythonNetworkStream@@QAE_NEE@Z PROC ; CPythonNetworkStream::SendQuickSlotMovePacket, COMDAT
; _this$ = ecx

; 749  : {

  00000	55		 push	 ebp
  00001	8b ec		 mov	 ebp, esp
  00003	51		 push	 ecx
  00004	56		 push	 esi
  00005	8b f1		 mov	 esi, ecx

; 750  : 	if (!__CanActMainInstance())

  00007	e8 00 00 00 00	 call	 ?__CanActMainInstance@CPythonNetworkStream@@IAE_NXZ ; CPythonNetworkStream::__CanActMainInstance
  0000c	84 c0		 test	 al, al
  0000e	75 09		 jne	 SHORT $LN2@SendQuickS

; 751  : 		return true;

  00010	b0 01		 mov	 al, 1
  00012	5e		 pop	 esi

; 766  : }

  00013	8b e5		 mov	 esp, ebp
  00015	5d		 pop	 ebp
  00016	c2 08 00	 ret	 8
$LN2@SendQuickS:

; 752  : 
; 753  : 	TPacketCGQuickSlotSwap quickSlotSwapPacket;
; 754  : 
; 755  : 	quickSlotSwapPacket.header = HEADER_CG_QUICKSLOT_SWAP;
; 756  : 	quickSlotSwapPacket.pos = pos;

  00019	8b 45 08	 mov	 eax, DWORD PTR _pos$[ebp]

; 757  : 	quickSlotSwapPacket.change_pos = change_pos;
; 758  : 
; 759  : 	if (!Send(sizeof(TPacketCGQuickSlotSwap), &quickSlotSwapPacket))

  0001c	8b ce		 mov	 ecx, esi
  0001e	88 45 fd	 mov	 BYTE PTR _quickSlotSwapPacket$[ebp+1], al
  00021	8b 45 0c	 mov	 eax, DWORD PTR _change_pos$[ebp]
  00024	88 45 fe	 mov	 BYTE PTR _quickSlotSwapPacket$[ebp+2], al
  00027	8d 45 fc	 lea	 eax, DWORD PTR _quickSlotSwapPacket$[ebp]
  0002a	50		 push	 eax
  0002b	6a 03		 push	 3
  0002d	c6 45 fc 12	 mov	 BYTE PTR _quickSlotSwapPacket$[ebp], 18 ; 00000012H
  00031	e8 00 00 00 00	 call	 ?Send@CNetworkStream@@QAE_NHPBX@Z ; CNetworkStream::Send
  00036	84 c0		 test	 al, al
  00038	75 16		 jne	 SHORT $LN1@SendQuickS

; 760  : 	{
; 761  : 		Tracen("SendQuickSlotSwapPacket Error");

  0003a	68 00 00 00 00	 push	 OFFSET ??_C@_0BO@MHEMOJBJ@SendQuickSlotSwapPacket?5Error?$AA@
  0003f	e8 00 00 00 00	 call	 ?Tracen@@YAXPBD@Z	; Tracen
  00044	83 c4 04	 add	 esp, 4

; 762  : 		return false;

  00047	32 c0		 xor	 al, al
  00049	5e		 pop	 esi

; 766  : }

  0004a	8b e5		 mov	 esp, ebp
  0004c	5d		 pop	 ebp
  0004d	c2 08 00	 ret	 8
$LN1@SendQuickS:

; 763  : 	}
; 764  : 
; 765  : 	return SendSequence();

  00050	8b ce		 mov	 ecx, esi
  00052	e8 00 00 00 00	 call	 ?SendSequence@CNetworkStream@@QAE_NXZ ; CNetworkStream::SendSequence
  00057	5e		 pop	 esi

; 766  : }

  00058	8b e5		 mov	 esp, ebp
  0005a	5d		 pop	 ebp
  0005b	c2 08 00	 ret	 8
?SendQuickSlotMovePacket@CPythonNetworkStream@@QAE_NEE@Z ENDP ; CPythonNetworkStream::SendQuickSlotMovePacket
_TEXT	ENDS
; Function compile flags: /Ogtp
; File d:\metin2\metin2\client_source_clean\client_source_clean\source\eterbase\singleton.h
;	COMDAT ?Instance@?$CSingleton@VCPythonSafeBox@@@@SAAAVCPythonSafeBox@@XZ
_TEXT	SEGMENT
?Instance@?$CSingleton@VCPythonSafeBox@@@@SAAAVCPythonSafeBox@@XZ PROC ; CSingleton<CPythonSafeBox>::Instance, COMDAT

; 26   : 		assert(ms_singleton);
; 27   : 		return (*ms_singleton);

  00000	a1 00 00 00 00	 mov	 eax, DWORD PTR ?ms_singleton@?$CSingleton@VCPythonSafeBox@@@@0PAVCPythonSafeBox@@A ; CSingleton<CPythonSafeBox>::ms_singleton

; 28   : 	}

  00005	c3		 ret	 0
?Instance@?$CSingleton@VCPythonSafeBox@@@@SAAAVCPythonSafeBox@@XZ ENDP ; CSingleton<CPythonSafeBox>::Instance
_TEXT	ENDS
; Function compile flags: /Ogtp
; File d:\metin2\metin2\client_source_clean\client_source_clean\source\userinterface\gametype.h
;	COMDAT ?IsEquipCell@SItemPos@@QAE_NXZ
_TEXT	SEGMENT
?IsEquipCell@SItemPos@@QAE_NXZ PROC			; SItemPos::IsEquipCell, COMDAT
; _this$ = ecx

; 223  : 		switch (window_type)

  00000	0f b6 01	 movzx	 eax, BYTE PTR [ecx]
  00003	48		 dec	 eax
  00004	83 f8 06	 cmp	 eax, 6
  00007	77 2f		 ja	 SHORT $LN1@IsEquipCel
  00009	0f b6 80 00 00
	00 00		 movzx	 eax, BYTE PTR $LN10@IsEquipCel[eax]
  00010	ff 24 85 00 00
	00 00		 jmp	 DWORD PTR $LN12@IsEquipCel[eax*4]
$LN3@IsEquipCel:

; 224  : 		{
; 225  : 		case INVENTORY:
; 226  : 		case EQUIPMENT:
; 227  : 			return (c_Equipment_Start + c_Wear_Max > cell) && (c_Equipment_Start <= cell);

  00017	0f b7 41 01	 movzx	 eax, WORD PTR [ecx+1]
  0001b	b9 01 01 00 00	 mov	 ecx, 257		; 00000101H
  00020	66 3b c8	 cmp	 cx, ax
  00023	76 10		 jbe	 SHORT $LN8@IsEquipCel
  00025	b9 e1 00 00 00	 mov	 ecx, 225		; 000000e1H
  0002a	66 3b c8	 cmp	 cx, ax
  0002d	77 06		 ja	 SHORT $LN8@IsEquipCel
  0002f	b8 01 00 00 00	 mov	 eax, 1

; 237  : 		}
; 238  : 	}

  00034	c3		 ret	 0
$LN8@IsEquipCel:

; 224  : 		{
; 225  : 		case INVENTORY:
; 226  : 		case EQUIPMENT:
; 227  : 			return (c_Equipment_Start + c_Wear_Max > cell) && (c_Equipment_Start <= cell);

  00035	33 c0		 xor	 eax, eax

; 237  : 		}
; 238  : 	}

  00037	c3		 ret	 0
$LN1@IsEquipCel:

; 228  : 			break;
; 229  : 
; 230  : 		case BELT_INVENTORY:
; 231  : 		case DRAGON_SOUL_INVENTORY:
; 232  : 			return false;
; 233  : 			break;
; 234  : 
; 235  : 		default:
; 236  : 			return false;

  00038	32 c0		 xor	 al, al

; 237  : 		}
; 238  : 	}

  0003a	c3		 ret	 0
  0003b	90		 npad	 1
$LN12@IsEquipCel:
  0003c	00 00 00 00	 DD	 $LN3@IsEquipCel
  00040	00 00 00 00	 DD	 $LN1@IsEquipCel
  00044	00 00 00 00	 DD	 $LN1@IsEquipCel
$LN10@IsEquipCel:
  00048	00		 DB	 0
  00049	00		 DB	 0
  0004a	02		 DB	 2
  0004b	02		 DB	 2
  0004c	01		 DB	 1
  0004d	02		 DB	 2
  0004e	01		 DB	 1
?IsEquipCell@SItemPos@@QAE_NXZ ENDP			; SItemPos::IsEquipCell
_TEXT	ENDS
END
