; Listing generated by Microsoft (R) Optimizing Compiler Version 18.00.40629.0 

	TITLE	D:\Metin2\Metin2\client_source_clean\client_source_clean\source\UserInterface\PythonQuest.cpp
	.686P
	.XMM
	include listing.inc
	.model	flat

INCLUDELIB OLDNAMES

PUBLIC	??_C@_0CG@FJJGJNND@d?3?1ymir?5work?1ui?1game?1quest?1quest@ ; `string'
PUBLIC	??_C@_0CB@KNIDBLNN@Failed?5to?5find?5quest?5by?5index?5?$CFd@ ; `string'
PUBLIC	??_C@_04CDAJCMJD@sisi?$AA@			; `string'
PUBLIC	??_C@_0BN@GHGBHNOC@season1?1icon?1scroll_open?4tga?$AA@ ; `string'
PUBLIC	??_C@_0N@PGFCKADA@GetQuestData?$AA@		; `string'
PUBLIC	??_C@_0O@HMKJHAHP@GetQuestCount?$AA@		; `string'
PUBLIC	??_C@_0BB@LFMNEJD@GetQuestLastTime?$AA@		; `string'
PUBLIC	??_C@_0O@KIBHOKLO@GetQuestIndex?$AA@		; `string'
PUBLIC	??_C@_0O@IKHMHCIN@QUEST_MAX_NUM?$AA@		; `string'
PUBLIC	??_C@_05KOGNICEN@quest?$AA@			; `string'
PUBLIC	??_R2CPythonQuest@@8				; CPythonQuest::`RTTI Base Class Array'
PUBLIC	??_R1A@?0A@EA@CPythonQuest@@8			; CPythonQuest::`RTTI Base Class Descriptor at (0,-1,0,64)'
PUBLIC	??_R2?$CSingleton@VCPythonQuest@@@@8		; CSingleton<CPythonQuest>::`RTTI Base Class Array'
PUBLIC	??_R3?$CSingleton@VCPythonQuest@@@@8		; CSingleton<CPythonQuest>::`RTTI Class Hierarchy Descriptor'
PUBLIC	??_R1A@?0A@EA@?$CSingleton@VCPythonQuest@@@@8	; CSingleton<CPythonQuest>::`RTTI Base Class Descriptor at (0,-1,0,64)'
PUBLIC	??_R3CPythonQuest@@8				; CPythonQuest::`RTTI Class Hierarchy Descriptor'
PUBLIC	??_R0?AV?$CSingleton@VCPythonQuest@@@@@8	; CSingleton<CPythonQuest> `RTTI Type Descriptor'
PUBLIC	??_R4?$CSingleton@VCPythonQuest@@@@6B@		; CSingleton<CPythonQuest>::`RTTI Complete Object Locator'
PUBLIC	??_R0?AVCPythonQuest@@@8			; CPythonQuest `RTTI Type Descriptor'
PUBLIC	??_R4CPythonQuest@@6B@				; CPythonQuest::`RTTI Complete Object Locator'
PUBLIC	??_7?$CSingleton@VCPythonQuest@@@@6B@		; CSingleton<CPythonQuest>::`vftable'
PUBLIC	??_7CPythonQuest@@6B@				; CPythonQuest::`vftable'
;	COMDAT ??_7CPythonQuest@@6B@
CONST	SEGMENT
??_7CPythonQuest@@6B@ DD FLAT:??_R4CPythonQuest@@6B@	; CPythonQuest::`vftable'
	DD	FLAT:??_ECPythonQuest@@UAEPAXI@Z
CONST	ENDS
;	COMDAT ??_7?$CSingleton@VCPythonQuest@@@@6B@
CONST	SEGMENT
??_7?$CSingleton@VCPythonQuest@@@@6B@ DD FLAT:??_R4?$CSingleton@VCPythonQuest@@@@6B@ ; CSingleton<CPythonQuest>::`vftable'
	DD	FLAT:??_E?$CSingleton@VCPythonQuest@@@@UAEPAXI@Z
CONST	ENDS
;	COMDAT ?s_methods@?1??initquest@@YAXXZ@4PAUPyMethodDef@@A
_DATA	SEGMENT
?s_methods@?1??initquest@@YAXXZ@4PAUPyMethodDef@@A DD FLAT:??_C@_0O@HMKJHAHP@GetQuestCount?$AA@ ; `initquest'::`2'::s_methods
	DD	FLAT:?questGetQuestCount@@YAPAU_object@@PAU1@0@Z
	DD	01H
	ORG $+4
	DD	FLAT:??_C@_0N@PGFCKADA@GetQuestData?$AA@
	DD	FLAT:?questGetQuestData@@YAPAU_object@@PAU1@0@Z
	DD	01H
	ORG $+4
	DD	FLAT:??_C@_0O@KIBHOKLO@GetQuestIndex?$AA@
	DD	FLAT:?questGetQuestIndex@@YAPAU_object@@PAU1@0@Z
	DD	01H
	ORG $+4
	DD	FLAT:??_C@_0BB@LFMNEJD@GetQuestLastTime?$AA@
	DD	FLAT:?questGetQuestLastTime@@YAPAU_object@@PAU1@0@Z
	DD	01H
	ORG $+4
	DD	FLAT:??_C@_05MDNHABIA@Clear?$AA@
	DD	FLAT:?questClear@@YAPAU_object@@PAU1@0@Z
	DD	01H
	ORG $+4
	DD	00H
	DD	00H
	DD	00H
	ORG $+4
_DATA	ENDS
;	COMDAT ??_R4CPythonQuest@@6B@
rdata$r	SEGMENT
??_R4CPythonQuest@@6B@ DD 00H				; CPythonQuest::`RTTI Complete Object Locator'
	DD	00H
	DD	00H
	DD	FLAT:??_R0?AVCPythonQuest@@@8
	DD	FLAT:??_R3CPythonQuest@@8
rdata$r	ENDS
;	COMDAT ??_R0?AVCPythonQuest@@@8
data$r	SEGMENT
??_R0?AVCPythonQuest@@@8 DD FLAT:??_7type_info@@6B@	; CPythonQuest `RTTI Type Descriptor'
	DD	00H
	DB	'.?AVCPythonQuest@@', 00H
data$r	ENDS
;	COMDAT ??_R4?$CSingleton@VCPythonQuest@@@@6B@
rdata$r	SEGMENT
??_R4?$CSingleton@VCPythonQuest@@@@6B@ DD 00H		; CSingleton<CPythonQuest>::`RTTI Complete Object Locator'
	DD	00H
	DD	00H
	DD	FLAT:??_R0?AV?$CSingleton@VCPythonQuest@@@@@8
	DD	FLAT:??_R3?$CSingleton@VCPythonQuest@@@@8
rdata$r	ENDS
;	COMDAT ??_R0?AV?$CSingleton@VCPythonQuest@@@@@8
data$r	SEGMENT
??_R0?AV?$CSingleton@VCPythonQuest@@@@@8 DD FLAT:??_7type_info@@6B@ ; CSingleton<CPythonQuest> `RTTI Type Descriptor'
	DD	00H
	DB	'.?AV?$CSingleton@VCPythonQuest@@@@', 00H
data$r	ENDS
;	COMDAT ??_R3CPythonQuest@@8
rdata$r	SEGMENT
??_R3CPythonQuest@@8 DD 00H				; CPythonQuest::`RTTI Class Hierarchy Descriptor'
	DD	00H
	DD	02H
	DD	FLAT:??_R2CPythonQuest@@8
rdata$r	ENDS
;	COMDAT ??_R1A@?0A@EA@?$CSingleton@VCPythonQuest@@@@8
rdata$r	SEGMENT
??_R1A@?0A@EA@?$CSingleton@VCPythonQuest@@@@8 DD FLAT:??_R0?AV?$CSingleton@VCPythonQuest@@@@@8 ; CSingleton<CPythonQuest>::`RTTI Base Class Descriptor at (0,-1,0,64)'
	DD	00H
	DD	00H
	DD	0ffffffffH
	DD	00H
	DD	040H
	DD	FLAT:??_R3?$CSingleton@VCPythonQuest@@@@8
rdata$r	ENDS
;	COMDAT ??_R3?$CSingleton@VCPythonQuest@@@@8
rdata$r	SEGMENT
??_R3?$CSingleton@VCPythonQuest@@@@8 DD 00H		; CSingleton<CPythonQuest>::`RTTI Class Hierarchy Descriptor'
	DD	00H
	DD	01H
	DD	FLAT:??_R2?$CSingleton@VCPythonQuest@@@@8
rdata$r	ENDS
;	COMDAT ??_R2?$CSingleton@VCPythonQuest@@@@8
rdata$r	SEGMENT
??_R2?$CSingleton@VCPythonQuest@@@@8 DD FLAT:??_R1A@?0A@EA@?$CSingleton@VCPythonQuest@@@@8 ; CSingleton<CPythonQuest>::`RTTI Base Class Array'
rdata$r	ENDS
;	COMDAT ??_R1A@?0A@EA@CPythonQuest@@8
rdata$r	SEGMENT
??_R1A@?0A@EA@CPythonQuest@@8 DD FLAT:??_R0?AVCPythonQuest@@@8 ; CPythonQuest::`RTTI Base Class Descriptor at (0,-1,0,64)'
	DD	01H
	DD	00H
	DD	0ffffffffH
	DD	00H
	DD	040H
	DD	FLAT:??_R3CPythonQuest@@8
rdata$r	ENDS
;	COMDAT ??_R2CPythonQuest@@8
rdata$r	SEGMENT
??_R2CPythonQuest@@8 DD FLAT:??_R1A@?0A@EA@CPythonQuest@@8 ; CPythonQuest::`RTTI Base Class Array'
	DD	FLAT:??_R1A@?0A@EA@?$CSingleton@VCPythonQuest@@@@8
rdata$r	ENDS
;	COMDAT ??_C@_05KOGNICEN@quest?$AA@
CONST	SEGMENT
??_C@_05KOGNICEN@quest?$AA@ DB 'quest', 00H		; `string'
CONST	ENDS
;	COMDAT ??_C@_0O@IKHMHCIN@QUEST_MAX_NUM?$AA@
CONST	SEGMENT
??_C@_0O@IKHMHCIN@QUEST_MAX_NUM?$AA@ DB 'QUEST_MAX_NUM', 00H ; `string'
CONST	ENDS
;	COMDAT ??_C@_0O@KIBHOKLO@GetQuestIndex?$AA@
CONST	SEGMENT
??_C@_0O@KIBHOKLO@GetQuestIndex?$AA@ DB 'GetQuestIndex', 00H ; `string'
CONST	ENDS
;	COMDAT ??_C@_0BB@LFMNEJD@GetQuestLastTime?$AA@
CONST	SEGMENT
??_C@_0BB@LFMNEJD@GetQuestLastTime?$AA@ DB 'GetQuestLastTime', 00H ; `string'
CONST	ENDS
;	COMDAT ??_C@_0O@HMKJHAHP@GetQuestCount?$AA@
CONST	SEGMENT
??_C@_0O@HMKJHAHP@GetQuestCount?$AA@ DB 'GetQuestCount', 00H ; `string'
CONST	ENDS
;	COMDAT ??_C@_0N@PGFCKADA@GetQuestData?$AA@
CONST	SEGMENT
??_C@_0N@PGFCKADA@GetQuestData?$AA@ DB 'GetQuestData', 00H ; `string'
CONST	ENDS
;	COMDAT ??_C@_0BN@GHGBHNOC@season1?1icon?1scroll_open?4tga?$AA@
CONST	SEGMENT
??_C@_0BN@GHGBHNOC@season1?1icon?1scroll_open?4tga?$AA@ DB 'season1/icon/'
	DB	'scroll_open.tga', 00H			; `string'
CONST	ENDS
;	COMDAT ??_C@_04CDAJCMJD@sisi?$AA@
CONST	SEGMENT
??_C@_04CDAJCMJD@sisi?$AA@ DB 'sisi', 00H		; `string'
CONST	ENDS
;	COMDAT ??_C@_0CB@KNIDBLNN@Failed?5to?5find?5quest?5by?5index?5?$CFd@
CONST	SEGMENT
??_C@_0CB@KNIDBLNN@Failed?5to?5find?5quest?5by?5index?5?$CFd@ DB 'Failed '
	DB	'to find quest by index %d', 00H		; `string'
CONST	ENDS
;	COMDAT ??_C@_0CG@FJJGJNND@d?3?1ymir?5work?1ui?1game?1quest?1quest@
CONST	SEGMENT
??_C@_0CG@FJJGJNND@d?3?1ymir?5work?1ui?1game?1quest?1quest@ DB 'd:/ymir w'
	DB	'ork/ui/game/quest/questicon/', 00H		; `string'
PUBLIC	??_GSQuestInstance@CPythonQuest@@QAEPAXI@Z	; CPythonQuest::SQuestInstance::`scalar deleting destructor'
PUBLIC	??$destroy@USQuestInstance@CPythonQuest@@@?$allocator@USQuestInstance@CPythonQuest@@@std@@QAEXPAUSQuestInstance@CPythonQuest@@@Z ; std::allocator<CPythonQuest::SQuestInstance>::destroy<CPythonQuest::SQuestInstance>
PUBLIC	??$_Uninit_move@PAUSQuestInstance@CPythonQuest@@PAU12@V?$allocator@USQuestInstance@CPythonQuest@@@std@@U12@@std@@YAPAUSQuestInstance@CPythonQuest@@PAU12@00AAU?$_Wrap_alloc@V?$allocator@USQuestInstance@CPythonQuest@@@std@@@0@0U_Nonscalar_ptr_iterator_tag@0@@Z ; std::_Uninit_move<CPythonQuest::SQuestInstance *,CPythonQuest::SQuestInstance *,std::allocator<CPythonQuest::SQuestInstance>,CPythonQuest::SQuestInstance>
PUBLIC	??$_Val_type@PAUSQuestInstance@CPythonQuest@@@std@@YAPAUSQuestInstance@CPythonQuest@@PAU12@@Z ; std::_Val_type<CPythonQuest::SQuestInstance *>
PUBLIC	??$destroy@USQuestInstance@CPythonQuest@@@?$allocator_traits@V?$allocator@USQuestInstance@CPythonQuest@@@std@@@std@@SAXAAV?$allocator@USQuestInstance@CPythonQuest@@@1@PAUSQuestInstance@CPythonQuest@@@Z ; std::allocator_traits<std::allocator<CPythonQuest::SQuestInstance> >::destroy<CPythonQuest::SQuestInstance>
PUBLIC	??$_Rechecked@PAUSQuestInstance@CPythonQuest@@PAU12@@std@@YAAAPAUSQuestInstance@CPythonQuest@@AAPAU12@PAU12@@Z ; std::_Rechecked<CPythonQuest::SQuestInstance *,CPythonQuest::SQuestInstance *>
PUBLIC	??$_Uninit_move@PAUSQuestInstance@CPythonQuest@@PAU12@U?$_Wrap_alloc@V?$allocator@USQuestInstance@CPythonQuest@@@std@@@std@@@std@@YAPAUSQuestInstance@CPythonQuest@@PAU12@00AAU?$_Wrap_alloc@V?$allocator@USQuestInstance@CPythonQuest@@@std@@@0@@Z ; std::_Uninit_move<CPythonQuest::SQuestInstance *,CPythonQuest::SQuestInstance *,std::_Wrap_alloc<std::allocator<CPythonQuest::SQuestInstance> > >
PUBLIC	??$_Unchecked@PAUSQuestInstance@CPythonQuest@@@std@@YAPAUSQuestInstance@CPythonQuest@@PAU12@@Z ; std::_Unchecked<CPythonQuest::SQuestInstance *>
PUBLIC	??$destroy@USQuestInstance@CPythonQuest@@@?$_Wrap_alloc@V?$allocator@USQuestInstance@CPythonQuest@@@std@@@std@@QAEXPAUSQuestInstance@CPythonQuest@@@Z ; std::_Wrap_alloc<std::allocator<CPythonQuest::SQuestInstance> >::destroy<CPythonQuest::SQuestInstance>
PUBLIC	??$move@AAUSQuestInstance@CPythonQuest@@@std@@YA$$QAUSQuestInstance@CPythonQuest@@AAU12@@Z ; std::move<CPythonQuest::SQuestInstance &>
PUBLIC	??$construct@USQuestInstance@CPythonQuest@@AAU12@@?$allocator@USQuestInstance@CPythonQuest@@@std@@QAEXPAUSQuestInstance@CPythonQuest@@AAU23@@Z ; std::allocator<CPythonQuest::SQuestInstance>::construct<CPythonQuest::SQuestInstance,CPythonQuest::SQuestInstance &>
PUBLIC	??$construct@USQuestInstance@CPythonQuest@@U12@@?$allocator@USQuestInstance@CPythonQuest@@@std@@QAEXPAUSQuestInstance@CPythonQuest@@$$QAU23@@Z ; std::allocator<CPythonQuest::SQuestInstance>::construct<CPythonQuest::SQuestInstance,CPythonQuest::SQuestInstance>
PUBLIC	??0SQuestInstance@CPythonQuest@@QAE@ABU01@@Z	; CPythonQuest::SQuestInstance::SQuestInstance
PUBLIC	?_Unchecked@?$_Vector_iterator@V?$_Vector_val@U?$_Simple_types@USQuestInstance@CPythonQuest@@@std@@@std@@@std@@QBEPAUSQuestInstance@CPythonQuest@@XZ ; std::_Vector_iterator<std::_Vector_val<std::_Simple_types<CPythonQuest::SQuestInstance> > >::_Unchecked
PUBLIC	?_Rechecked@?$_Vector_iterator@V?$_Vector_val@U?$_Simple_types@USQuestInstance@CPythonQuest@@@std@@@std@@@std@@QAEAAV12@PAUSQuestInstance@CPythonQuest@@@Z ; std::_Vector_iterator<std::_Vector_val<std::_Simple_types<CPythonQuest::SQuestInstance> > >::_Rechecked
PUBLIC	?construct@?$allocator@USQuestInstance@CPythonQuest@@@std@@QAEXPAUSQuestInstance@CPythonQuest@@ABU34@@Z ; std::allocator<CPythonQuest::SQuestInstance>::construct
PUBLIC	??4SQuestInstance@CPythonQuest@@QAEAAU01@ABU01@@Z ; CPythonQuest::SQuestInstance::operator=
PUBLIC	??$_Uninitialized_move@PAUSQuestInstance@CPythonQuest@@PAU12@U?$_Wrap_alloc@V?$allocator@USQuestInstance@CPythonQuest@@@std@@@std@@@std@@YAPAUSQuestInstance@CPythonQuest@@PAU12@00AAU?$_Wrap_alloc@V?$allocator@USQuestInstance@CPythonQuest@@@std@@@0@@Z ; std::_Uninitialized_move<CPythonQuest::SQuestInstance *,CPythonQuest::SQuestInstance *,std::_Wrap_alloc<std::allocator<CPythonQuest::SQuestInstance> > >
PUBLIC	??$_Destroy_range@U?$_Wrap_alloc@V?$allocator@USQuestInstance@CPythonQuest@@@std@@@std@@@std@@YAXPAUSQuestInstance@CPythonQuest@@0AAU?$_Wrap_alloc@V?$allocator@USQuestInstance@CPythonQuest@@@std@@@0@U_Nonscalar_ptr_iterator_tag@0@@Z ; std::_Destroy_range<std::_Wrap_alloc<std::allocator<CPythonQuest::SQuestInstance> > >
PUBLIC	??$_Move@PAUSQuestInstance@CPythonQuest@@PAU12@@std@@YAPAUSQuestInstance@CPythonQuest@@PAU12@00U_Nonscalar_ptr_iterator_tag@0@@Z ; std::_Move<CPythonQuest::SQuestInstance *,CPythonQuest::SQuestInstance *>
PUBLIC	??$_Ptr_cat@USQuestInstance@CPythonQuest@@U12@@std@@YA?AU_Nonscalar_ptr_iterator_tag@0@PAUSQuestInstance@CPythonQuest@@0@Z ; std::_Ptr_cat<CPythonQuest::SQuestInstance,CPythonQuest::SQuestInstance>
PUBLIC	??$construct@USQuestInstance@CPythonQuest@@ABU12@@?$allocator_traits@V?$allocator@USQuestInstance@CPythonQuest@@@std@@@std@@SAXAAV?$allocator@USQuestInstance@CPythonQuest@@@1@PAUSQuestInstance@CPythonQuest@@ABU34@@Z ; std::allocator_traits<std::allocator<CPythonQuest::SQuestInstance> >::construct<CPythonQuest::SQuestInstance,CPythonQuest::SQuestInstance const &>
PUBLIC	??$forward@ABUSQuestInstance@CPythonQuest@@@std@@YAABUSQuestInstance@CPythonQuest@@ABU12@@Z ; std::forward<CPythonQuest::SQuestInstance const &>
PUBLIC	??$construct@USQuestInstance@CPythonQuest@@AAU12@@?$allocator_traits@V?$allocator@USQuestInstance@CPythonQuest@@@std@@@std@@SAXAAV?$allocator@USQuestInstance@CPythonQuest@@@1@PAUSQuestInstance@CPythonQuest@@AAU34@@Z ; std::allocator_traits<std::allocator<CPythonQuest::SQuestInstance> >::construct<CPythonQuest::SQuestInstance,CPythonQuest::SQuestInstance &>
PUBLIC	??$forward@AAUSQuestInstance@CPythonQuest@@@std@@YAAAUSQuestInstance@CPythonQuest@@AAU12@@Z ; std::forward<CPythonQuest::SQuestInstance &>
PUBLIC	??$construct@USQuestInstance@CPythonQuest@@U12@@?$allocator_traits@V?$allocator@USQuestInstance@CPythonQuest@@@std@@@std@@SAXAAV?$allocator@USQuestInstance@CPythonQuest@@@1@PAUSQuestInstance@CPythonQuest@@$$QAU34@@Z ; std::allocator_traits<std::allocator<CPythonQuest::SQuestInstance> >::construct<CPythonQuest::SQuestInstance,CPythonQuest::SQuestInstance>
PUBLIC	??$_Rechecked@V?$_Vector_val@U?$_Simple_types@USQuestInstance@CPythonQuest@@@std@@@std@@@std@@YAAAV?$_Vector_iterator@V?$_Vector_val@U?$_Simple_types@USQuestInstance@CPythonQuest@@@std@@@std@@@0@AAV10@PAUSQuestInstance@CPythonQuest@@@Z ; std::_Rechecked<std::_Vector_val<std::_Simple_types<CPythonQuest::SQuestInstance> > >
PUBLIC	??$_Find_if@PAUSQuestInstance@CPythonQuest@@UFQuestInstanceCompare@@@std@@YAPAUSQuestInstance@CPythonQuest@@PAU12@0UFQuestInstanceCompare@@@Z ; std::_Find_if<CPythonQuest::SQuestInstance *,FQuestInstanceCompare>
PUBLIC	??$_Unchecked@V?$_Vector_val@U?$_Simple_types@USQuestInstance@CPythonQuest@@@std@@@std@@@std@@YAPAUSQuestInstance@CPythonQuest@@V?$_Vector_iterator@V?$_Vector_val@U?$_Simple_types@USQuestInstance@CPythonQuest@@@std@@@std@@@0@@Z ; std::_Unchecked<std::_Vector_val<std::_Simple_types<CPythonQuest::SQuestInstance> > >
PUBLIC	??$_Allocate@USQuestInstance@CPythonQuest@@@std@@YAPAUSQuestInstance@CPythonQuest@@IPAU12@@Z ; std::_Allocate<CPythonQuest::SQuestInstance>
PUBLIC	??$_Umove@PAUSQuestInstance@CPythonQuest@@@?$vector@USQuestInstance@CPythonQuest@@V?$allocator@USQuestInstance@CPythonQuest@@@std@@@std@@IAEPAUSQuestInstance@CPythonQuest@@PAU23@00@Z ; std::vector<CPythonQuest::SQuestInstance,std::allocator<CPythonQuest::SQuestInstance> >::_Umove<CPythonQuest::SQuestInstance *>
PUBLIC	??$_Destroy_range@U?$_Wrap_alloc@V?$allocator@USQuestInstance@CPythonQuest@@@std@@@std@@@std@@YAXPAUSQuestInstance@CPythonQuest@@0AAU?$_Wrap_alloc@V?$allocator@USQuestInstance@CPythonQuest@@@std@@@0@@Z ; std::_Destroy_range<std::_Wrap_alloc<std::allocator<CPythonQuest::SQuestInstance> > >
PUBLIC	??$_Move@PAUSQuestInstance@CPythonQuest@@PAU12@@std@@YAPAUSQuestInstance@CPythonQuest@@PAU12@00@Z ; std::_Move<CPythonQuest::SQuestInstance *,CPythonQuest::SQuestInstance *>
PUBLIC	??$construct@USQuestInstance@CPythonQuest@@ABU12@@?$_Wrap_alloc@V?$allocator@USQuestInstance@CPythonQuest@@@std@@@std@@QAEXPAUSQuestInstance@CPythonQuest@@ABU23@@Z ; std::_Wrap_alloc<std::allocator<CPythonQuest::SQuestInstance> >::construct<CPythonQuest::SQuestInstance,CPythonQuest::SQuestInstance const &>
PUBLIC	??$construct@USQuestInstance@CPythonQuest@@AAU12@@?$_Wrap_alloc@V?$allocator@USQuestInstance@CPythonQuest@@@std@@@std@@QAEXPAUSQuestInstance@CPythonQuest@@AAU23@@Z ; std::_Wrap_alloc<std::allocator<CPythonQuest::SQuestInstance> >::construct<CPythonQuest::SQuestInstance,CPythonQuest::SQuestInstance &>
PUBLIC	??$addressof@$$CBUSQuestInstance@CPythonQuest@@@std@@YAPBUSQuestInstance@CPythonQuest@@ABU12@@Z ; std::addressof<CPythonQuest::SQuestInstance const >
PUBLIC	??$construct@USQuestInstance@CPythonQuest@@U12@@?$_Wrap_alloc@V?$allocator@USQuestInstance@CPythonQuest@@@std@@@std@@QAEXPAUSQuestInstance@CPythonQuest@@$$QAU23@@Z ; std::_Wrap_alloc<std::allocator<CPythonQuest::SQuestInstance> >::construct<CPythonQuest::SQuestInstance,CPythonQuest::SQuestInstance>
PUBLIC	??$forward@USQuestInstance@CPythonQuest@@@std@@YA$$QAUSQuestInstance@CPythonQuest@@AAU12@@Z ; std::forward<CPythonQuest::SQuestInstance>
PUBLIC	??$addressof@USQuestInstance@CPythonQuest@@@std@@YAPAUSQuestInstance@CPythonQuest@@AAU12@@Z ; std::addressof<CPythonQuest::SQuestInstance>
PUBLIC	??$find_if@V?$_Vector_iterator@V?$_Vector_val@U?$_Simple_types@USQuestInstance@CPythonQuest@@@std@@@std@@@std@@UFQuestInstanceCompare@@@std@@YA?AV?$_Vector_iterator@V?$_Vector_val@U?$_Simple_types@USQuestInstance@CPythonQuest@@@std@@@std@@@0@V10@0UFQuestInstanceCompare@@@Z ; std::find_if<std::_Vector_iterator<std::_Vector_val<std::_Simple_types<CPythonQuest::SQuestInstance> > >,FQuestInstanceCompare>
PUBLIC	?max_size@?$allocator@USQuestInstance@CPythonQuest@@@std@@QBEIXZ ; std::allocator<CPythonQuest::SQuestInstance>::max_size
PUBLIC	?max_size@?$allocator_traits@V?$allocator@USQuestInstance@CPythonQuest@@@std@@@std@@SAIABV?$allocator@USQuestInstance@CPythonQuest@@@2@@Z ; std::allocator_traits<std::allocator<CPythonQuest::SQuestInstance> >::max_size
PUBLIC	?allocate@?$allocator@USQuestInstance@CPythonQuest@@@std@@QAEPAUSQuestInstance@CPythonQuest@@I@Z ; std::allocator<CPythonQuest::SQuestInstance>::allocate
PUBLIC	?max_size@?$_Wrap_alloc@V?$allocator@USQuestInstance@CPythonQuest@@@std@@@std@@QBEIXZ ; std::_Wrap_alloc<std::allocator<CPythonQuest::SQuestInstance> >::max_size
PUBLIC	?allocate@?$_Wrap_alloc@V?$allocator@USQuestInstance@CPythonQuest@@@std@@@std@@QAEPAUSQuestInstance@CPythonQuest@@I@Z ; std::_Wrap_alloc<std::allocator<CPythonQuest::SQuestInstance> >::allocate
PUBLIC	?deallocate@?$allocator@USQuestInstance@CPythonQuest@@@std@@QAEXPAUSQuestInstance@CPythonQuest@@I@Z ; std::allocator<CPythonQuest::SQuestInstance>::deallocate
PUBLIC	?capacity@?$vector@USQuestInstance@CPythonQuest@@V?$allocator@USQuestInstance@CPythonQuest@@@std@@@std@@QBEIXZ ; std::vector<CPythonQuest::SQuestInstance,std::allocator<CPythonQuest::SQuestInstance> >::capacity
PUBLIC	??0?$_Revranit@V?$_Vector_iterator@V?$_Vector_val@U?$_Simple_types@USQuestInstance@CPythonQuest@@@std@@@std@@@std@@U?$iterator@Urandom_access_iterator_tag@std@@USQuestInstance@CPythonQuest@@HPAU34@AAU34@@2@@std@@QAE@V?$_Vector_iterator@V?$_Vector_val@U?$_Simple_types@USQuestInstance@CPythonQuest@@@std@@@std@@@1@@Z ; std::_Revranit<std::_Vector_iterator<std::_Vector_val<std::_Simple_types<CPythonQuest::SQuestInstance> > >,std::iterator<std::random_access_iterator_tag,CPythonQuest::SQuestInstance,int,CPythonQuest::SQuestInstance *,CPythonQuest::SQuestInstance &> >::_Revranit<std::_Vector_iterator<std::_Vector_val<std::_Simple_types<CPythonQuest::SQuestInstance> > >,std::iterator<std::random_access_iterator_tag,CPythonQuest::SQuestInstance,int,CPythonQuest::SQuestInstance *,CPythonQuest::SQuestInstance &> >
PUBLIC	??F?$_Vector_const_iterator@V?$_Vector_val@U?$_Simple_types@USQuestInstance@CPythonQuest@@@std@@@std@@@std@@QAEAAV01@XZ ; std::_Vector_const_iterator<std::_Vector_val<std::_Simple_types<CPythonQuest::SQuestInstance> > >::operator--
PUBLIC	??0?$_Vector_const_iterator@V?$_Vector_val@U?$_Simple_types@USQuestInstance@CPythonQuest@@@std@@@std@@@std@@QAE@PAUSQuestInstance@CPythonQuest@@PBU_Container_base0@1@@Z ; std::_Vector_const_iterator<std::_Vector_val<std::_Simple_types<CPythonQuest::SQuestInstance> > >::_Vector_const_iterator<std::_Vector_val<std::_Simple_types<CPythonQuest::SQuestInstance> > >
PUBLIC	??0?$_Vector_val@U?$_Simple_types@USQuestInstance@CPythonQuest@@@std@@@std@@QAE@XZ ; std::_Vector_val<std::_Simple_types<CPythonQuest::SQuestInstance> >::_Vector_val<std::_Simple_types<CPythonQuest::SQuestInstance> >
PUBLIC	?deallocate@?$_Wrap_alloc@V?$allocator@USQuestInstance@CPythonQuest@@@std@@@std@@QAEXPAUSQuestInstance@CPythonQuest@@I@Z ; std::_Wrap_alloc<std::allocator<CPythonQuest::SQuestInstance> >::deallocate
PUBLIC	??0?$_Wrap_alloc@V?$allocator@USQuestInstance@CPythonQuest@@@std@@@std@@QAE@XZ ; std::_Wrap_alloc<std::allocator<CPythonQuest::SQuestInstance> >::_Wrap_alloc<std::allocator<CPythonQuest::SQuestInstance> >
PUBLIC	?_Xlen@?$vector@USQuestInstance@CPythonQuest@@V?$allocator@USQuestInstance@CPythonQuest@@@std@@@std@@IBEXXZ ; std::vector<CPythonQuest::SQuestInstance,std::allocator<CPythonQuest::SQuestInstance> >::_Xlen
PUBLIC	?_Reallocate@?$vector@USQuestInstance@CPythonQuest@@V?$allocator@USQuestInstance@CPythonQuest@@@std@@@std@@IAEXI@Z ; std::vector<CPythonQuest::SQuestInstance,std::allocator<CPythonQuest::SQuestInstance> >::_Reallocate
PUBLIC	?_Grow_to@?$vector@USQuestInstance@CPythonQuest@@V?$allocator@USQuestInstance@CPythonQuest@@@std@@@std@@IBEII@Z ; std::vector<CPythonQuest::SQuestInstance,std::allocator<CPythonQuest::SQuestInstance> >::_Grow_to
PUBLIC	?max_size@?$vector@USQuestInstance@CPythonQuest@@V?$allocator@USQuestInstance@CPythonQuest@@@std@@@std@@QBEIXZ ; std::vector<CPythonQuest::SQuestInstance,std::allocator<CPythonQuest::SQuestInstance> >::max_size
PUBLIC	?_Unused_capacity@?$vector@USQuestInstance@CPythonQuest@@V?$allocator@USQuestInstance@CPythonQuest@@@std@@@std@@QBEIXZ ; std::vector<CPythonQuest::SQuestInstance,std::allocator<CPythonQuest::SQuestInstance> >::_Unused_capacity
PUBLIC	?_Compat@?$_Vector_const_iterator@V?$_Vector_val@U?$_Simple_types@USQuestInstance@CPythonQuest@@@std@@@std@@@std@@QBEXABV12@@Z ; std::_Vector_const_iterator<std::_Vector_val<std::_Simple_types<CPythonQuest::SQuestInstance> > >::_Compat
PUBLIC	??D?$_Vector_const_iterator@V?$_Vector_val@U?$_Simple_types@USQuestInstance@CPythonQuest@@@std@@@std@@@std@@QBEABUSQuestInstance@CPythonQuest@@XZ ; std::_Vector_const_iterator<std::_Vector_val<std::_Simple_types<CPythonQuest::SQuestInstance> > >::operator*
PUBLIC	??F?$_Vector_iterator@V?$_Vector_val@U?$_Simple_types@USQuestInstance@CPythonQuest@@@std@@@std@@@std@@QAEAAV01@XZ ; std::_Vector_iterator<std::_Vector_val<std::_Simple_types<CPythonQuest::SQuestInstance> > >::operator--
PUBLIC	??0?$_Vector_iterator@V?$_Vector_val@U?$_Simple_types@USQuestInstance@CPythonQuest@@@std@@@std@@@std@@QAE@PAUSQuestInstance@CPythonQuest@@PBU_Container_base0@1@@Z ; std::_Vector_iterator<std::_Vector_val<std::_Simple_types<CPythonQuest::SQuestInstance> > >::_Vector_iterator<std::_Vector_val<std::_Simple_types<CPythonQuest::SQuestInstance> > >
PUBLIC	??0?$reverse_iterator@V?$_Vector_iterator@V?$_Vector_val@U?$_Simple_types@USQuestInstance@CPythonQuest@@@std@@@std@@@std@@@std@@QAE@V?$_Vector_iterator@V?$_Vector_val@U?$_Simple_types@USQuestInstance@CPythonQuest@@@std@@@std@@@1@@Z ; std::reverse_iterator<std::_Vector_iterator<std::_Vector_val<std::_Simple_types<CPythonQuest::SQuestInstance> > > >::reverse_iterator<std::_Vector_iterator<std::_Vector_val<std::_Simple_types<CPythonQuest::SQuestInstance> > > >
PUBLIC	?_Getal@?$_Vector_alloc@$0A@U?$_Vec_base_types@USQuestInstance@CPythonQuest@@V?$allocator@USQuestInstance@CPythonQuest@@@std@@@std@@@std@@QBE?AU?$_Wrap_alloc@V?$allocator@USQuestInstance@CPythonQuest@@@std@@@2@XZ ; std::_Vector_alloc<0,std::_Vec_base_types<CPythonQuest::SQuestInstance,std::allocator<CPythonQuest::SQuestInstance> > >::_Getal
PUBLIC	??0?$_Vector_alloc@$0A@U?$_Vec_base_types@USQuestInstance@CPythonQuest@@V?$allocator@USQuestInstance@CPythonQuest@@@std@@@std@@@std@@QAE@ABV?$allocator@USQuestInstance@CPythonQuest@@@1@@Z ; std::_Vector_alloc<0,std::_Vec_base_types<CPythonQuest::SQuestInstance,std::allocator<CPythonQuest::SQuestInstance> > >::_Vector_alloc<0,std::_Vec_base_types<CPythonQuest::SQuestInstance,std::allocator<CPythonQuest::SQuestInstance> > >
PUBLIC	??0?$allocator@USQuestInstance@CPythonQuest@@@std@@QAE@XZ ; std::allocator<CPythonQuest::SQuestInstance>::allocator<CPythonQuest::SQuestInstance>
PUBLIC	?_Orphan_range@?$vector@USQuestInstance@CPythonQuest@@V?$allocator@USQuestInstance@CPythonQuest@@@std@@@std@@IBEXPAUSQuestInstance@CPythonQuest@@0@Z ; std::vector<CPythonQuest::SQuestInstance,std::allocator<CPythonQuest::SQuestInstance> >::_Orphan_range
PUBLIC	?_Tidy@?$vector@USQuestInstance@CPythonQuest@@V?$allocator@USQuestInstance@CPythonQuest@@@std@@@std@@IAEXXZ ; std::vector<CPythonQuest::SQuestInstance,std::allocator<CPythonQuest::SQuestInstance> >::_Tidy
PUBLIC	?_Reserve@?$vector@USQuestInstance@CPythonQuest@@V?$allocator@USQuestInstance@CPythonQuest@@@std@@@std@@IAEXI@Z ; std::vector<CPythonQuest::SQuestInstance,std::allocator<CPythonQuest::SQuestInstance> >::_Reserve
PUBLIC	?_Inside@?$vector@USQuestInstance@CPythonQuest@@V?$allocator@USQuestInstance@CPythonQuest@@@std@@@std@@IBE_NPBUSQuestInstance@CPythonQuest@@@Z ; std::vector<CPythonQuest::SQuestInstance,std::allocator<CPythonQuest::SQuestInstance> >::_Inside
PUBLIC	?_Destroy@?$vector@USQuestInstance@CPythonQuest@@V?$allocator@USQuestInstance@CPythonQuest@@@std@@@std@@IAEXPAUSQuestInstance@CPythonQuest@@0@Z ; std::vector<CPythonQuest::SQuestInstance,std::allocator<CPythonQuest::SQuestInstance> >::_Destroy
PUBLIC	?_Make_iter@?$vector@USQuestInstance@CPythonQuest@@V?$allocator@USQuestInstance@CPythonQuest@@@std@@@std@@QBE?AV?$_Vector_iterator@V?$_Vector_val@U?$_Simple_types@USQuestInstance@CPythonQuest@@@std@@@std@@@2@V?$_Vector_const_iterator@V?$_Vector_val@U?$_Simple_types@USQuestInstance@CPythonQuest@@@std@@@std@@@2@@Z ; std::vector<CPythonQuest::SQuestInstance,std::allocator<CPythonQuest::SQuestInstance> >::_Make_iter
PUBLIC	??_G?$CSingleton@VCPythonQuest@@@@UAEPAXI@Z	; CSingleton<CPythonQuest>::`scalar deleting destructor'
PUBLIC	??D?$_Revranit@V?$_Vector_iterator@V?$_Vector_val@U?$_Simple_types@USQuestInstance@CPythonQuest@@@std@@@std@@@std@@U?$iterator@Urandom_access_iterator_tag@std@@USQuestInstance@CPythonQuest@@HPAU34@AAU34@@2@@std@@QBEAAUSQuestInstance@CPythonQuest@@XZ ; std::_Revranit<std::_Vector_iterator<std::_Vector_val<std::_Simple_types<CPythonQuest::SQuestInstance> > >,std::iterator<std::random_access_iterator_tag,CPythonQuest::SQuestInstance,int,CPythonQuest::SQuestInstance *,CPythonQuest::SQuestInstance &> >::operator*
PUBLIC	??9?$_Vector_const_iterator@V?$_Vector_val@U?$_Simple_types@USQuestInstance@CPythonQuest@@@std@@@std@@@std@@QBE_NABV01@@Z ; std::_Vector_const_iterator<std::_Vector_val<std::_Simple_types<CPythonQuest::SQuestInstance> > >::operator!=
PUBLIC	??8?$_Vector_const_iterator@V?$_Vector_val@U?$_Simple_types@USQuestInstance@CPythonQuest@@@std@@@std@@@std@@QBE_NABV01@@Z ; std::_Vector_const_iterator<std::_Vector_val<std::_Simple_types<CPythonQuest::SQuestInstance> > >::operator==
PUBLIC	??D?$_Vector_iterator@V?$_Vector_val@U?$_Simple_types@USQuestInstance@CPythonQuest@@@std@@@std@@@std@@QBEAAUSQuestInstance@CPythonQuest@@XZ ; std::_Vector_iterator<std::_Vector_val<std::_Simple_types<CPythonQuest::SQuestInstance> > >::operator*
PUBLIC	?clear@?$vector@USQuestInstance@CPythonQuest@@V?$allocator@USQuestInstance@CPythonQuest@@@std@@@std@@QAEXXZ ; std::vector<CPythonQuest::SQuestInstance,std::allocator<CPythonQuest::SQuestInstance> >::clear
PUBLIC	?erase@?$vector@USQuestInstance@CPythonQuest@@V?$allocator@USQuestInstance@CPythonQuest@@@std@@@std@@QAE?AV?$_Vector_iterator@V?$_Vector_val@U?$_Simple_types@USQuestInstance@CPythonQuest@@@std@@@std@@@2@V?$_Vector_const_iterator@V?$_Vector_val@U?$_Simple_types@USQuestInstance@CPythonQuest@@@std@@@std@@@2@@Z ; std::vector<CPythonQuest::SQuestInstance,std::allocator<CPythonQuest::SQuestInstance> >::erase
PUBLIC	?push_back@?$vector@USQuestInstance@CPythonQuest@@V?$allocator@USQuestInstance@CPythonQuest@@@std@@@std@@QAEXABUSQuestInstance@CPythonQuest@@@Z ; std::vector<CPythonQuest::SQuestInstance,std::allocator<CPythonQuest::SQuestInstance> >::push_back
PUBLIC	??A?$vector@USQuestInstance@CPythonQuest@@V?$allocator@USQuestInstance@CPythonQuest@@@std@@@std@@QAEAAUSQuestInstance@CPythonQuest@@I@Z ; std::vector<CPythonQuest::SQuestInstance,std::allocator<CPythonQuest::SQuestInstance> >::operator[]
PUBLIC	?size@?$vector@USQuestInstance@CPythonQuest@@V?$allocator@USQuestInstance@CPythonQuest@@@std@@@std@@QBEIXZ ; std::vector<CPythonQuest::SQuestInstance,std::allocator<CPythonQuest::SQuestInstance> >::size
PUBLIC	?rbegin@?$vector@USQuestInstance@CPythonQuest@@V?$allocator@USQuestInstance@CPythonQuest@@@std@@@std@@QAE?AV?$reverse_iterator@V?$_Vector_iterator@V?$_Vector_val@U?$_Simple_types@USQuestInstance@CPythonQuest@@@std@@@std@@@std@@@2@XZ ; std::vector<CPythonQuest::SQuestInstance,std::allocator<CPythonQuest::SQuestInstance> >::rbegin
PUBLIC	?end@?$vector@USQuestInstance@CPythonQuest@@V?$allocator@USQuestInstance@CPythonQuest@@@std@@@std@@QAE?AV?$_Vector_iterator@V?$_Vector_val@U?$_Simple_types@USQuestInstance@CPythonQuest@@@std@@@std@@@2@XZ ; std::vector<CPythonQuest::SQuestInstance,std::allocator<CPythonQuest::SQuestInstance> >::end
PUBLIC	?begin@?$vector@USQuestInstance@CPythonQuest@@V?$allocator@USQuestInstance@CPythonQuest@@@std@@@std@@QAE?AV?$_Vector_iterator@V?$_Vector_val@U?$_Simple_types@USQuestInstance@CPythonQuest@@@std@@@std@@@2@XZ ; std::vector<CPythonQuest::SQuestInstance,std::allocator<CPythonQuest::SQuestInstance> >::begin
PUBLIC	??1?$vector@USQuestInstance@CPythonQuest@@V?$allocator@USQuestInstance@CPythonQuest@@@std@@@std@@QAE@XZ ; std::vector<CPythonQuest::SQuestInstance,std::allocator<CPythonQuest::SQuestInstance> >::~vector<CPythonQuest::SQuestInstance,std::allocator<CPythonQuest::SQuestInstance> >
PUBLIC	?push_back@?$vector@USQuestInstance@CPythonQuest@@V?$allocator@USQuestInstance@CPythonQuest@@@std@@@std@@QAEX$$QAUSQuestInstance@CPythonQuest@@@Z ; std::vector<CPythonQuest::SQuestInstance,std::allocator<CPythonQuest::SQuestInstance> >::push_back
PUBLIC	??0?$vector@USQuestInstance@CPythonQuest@@V?$allocator@USQuestInstance@CPythonQuest@@@std@@@std@@QAE@XZ ; std::vector<CPythonQuest::SQuestInstance,std::allocator<CPythonQuest::SQuestInstance> >::vector<CPythonQuest::SQuestInstance,std::allocator<CPythonQuest::SQuestInstance> >
PUBLIC	??1?$CSingleton@VCPythonQuest@@@@UAE@XZ		; CSingleton<CPythonQuest>::~CSingleton<CPythonQuest>
PUBLIC	??0?$CSingleton@VCPythonQuest@@@@QAE@XZ		; CSingleton<CPythonQuest>::CSingleton<CPythonQuest>
PUBLIC	?initquest@@YAXXZ				; initquest
PUBLIC	?questClear@@YAPAU_object@@PAU1@0@Z		; questClear
PUBLIC	?questGetQuestLastTime@@YAPAU_object@@PAU1@0@Z	; questGetQuestLastTime
PUBLIC	?questGetQuestIndex@@YAPAU_object@@PAU1@0@Z	; questGetQuestIndex
PUBLIC	?questGetQuestData@@YAPAU_object@@PAU1@0@Z	; questGetQuestData
PUBLIC	?questGetQuestCount@@YAPAU_object@@PAU1@0@Z	; questGetQuestCount
PUBLIC	??_GCPythonQuest@@UAEPAXI@Z			; CPythonQuest::`scalar deleting destructor'
PUBLIC	?Clear@CPythonQuest@@QAEXXZ			; CPythonQuest::Clear
PUBLIC	?__Initialize@CPythonQuest@@IAEXXZ		; CPythonQuest::__Initialize
PUBLIC	?__GetQuestInstancePtr@CPythonQuest@@IAE_NKPAPAUSQuestInstance@1@@Z ; CPythonQuest::__GetQuestInstancePtr
PUBLIC	?GetQuestInstancePtr@CPythonQuest@@QAE_NKPAPAUSQuestInstance@1@@Z ; CPythonQuest::GetQuestInstancePtr
PUBLIC	?GetQuestCount@CPythonQuest@@QAEHXZ		; CPythonQuest::GetQuestCount
PUBLIC	??RFQuestInstanceCompare@@QAE_NABUSQuestInstance@CPythonQuest@@@Z ; FQuestInstanceCompare::operator()
PUBLIC	??0FQuestInstanceCompare@@QAE@K@Z		; FQuestInstanceCompare::FQuestInstanceCompare
PUBLIC	?DeleteQuestInstance@CPythonQuest@@QAEXK@Z	; CPythonQuest::DeleteQuestInstance
PUBLIC	?IsQuest@CPythonQuest@@QAE_NK@Z			; CPythonQuest::IsQuest
PUBLIC	?MakeQuest@CPythonQuest@@QAEXK@Z		; CPythonQuest::MakeQuest
PUBLIC	?SetQuestTitle@CPythonQuest@@QAEXKPBD@Z		; CPythonQuest::SetQuestTitle
PUBLIC	?SetQuestClockName@CPythonQuest@@QAEXKPBD@Z	; CPythonQuest::SetQuestClockName
PUBLIC	?SetQuestCounterName@CPythonQuest@@QAEXKPBD@Z	; CPythonQuest::SetQuestCounterName
PUBLIC	?SetQuestIconFileName@CPythonQuest@@QAEXKPBD@Z	; CPythonQuest::SetQuestIconFileName
PUBLIC	?SetQuestClockValue@CPythonQuest@@QAEXKH@Z	; CPythonQuest::SetQuestClockValue
PUBLIC	?SetQuestCounterValue@CPythonQuest@@QAEXKH@Z	; CPythonQuest::SetQuestCounterValue
PUBLIC	?RegisterQuestInstance@CPythonQuest@@QAEXABUSQuestInstance@1@@Z ; CPythonQuest::RegisterQuestInstance
PUBLIC	??0CPythonQuest@@QAE@XZ				; CPythonQuest::CPythonQuest
PUBLIC	??1CPythonQuest@@UAE@XZ				; CPythonQuest::~CPythonQuest
EXTRN	??_ECPythonQuest@@UAEPAXI@Z:PROC		; CPythonQuest::`vector deleting destructor'
EXTRN	??_E?$CSingleton@VCPythonQuest@@@@UAEPAXI@Z:PROC ; CSingleton<CPythonQuest>::`vector deleting destructor'
;	COMDAT xdata$x
xdata$x	SEGMENT
__ehfuncinfo$?MakeQuest@CPythonQuest@@QAEXK@Z DD 019930522H
	DD	01H
	DD	FLAT:__unwindtable$?MakeQuest@CPythonQuest@@QAEXK@Z
	DD	2 DUP(00H)
	DD	2 DUP(00H)
	DD	00H
	DD	01H
__unwindtable$?MakeQuest@CPythonQuest@@QAEXK@Z DD 0ffffffffH
	DD	FLAT:__unwindfunclet$?MakeQuest@CPythonQuest@@QAEXK@Z$0
xdata$x	ENDS
;	COMDAT xdata$x
xdata$x	SEGMENT
__ehfuncinfo$?questGetQuestData@@YAPAU_object@@PAU1@0@Z DD 019930522H
	DD	02H
	DD	FLAT:__unwindtable$?questGetQuestData@@YAPAU_object@@PAU1@0@Z
	DD	2 DUP(00H)
	DD	2 DUP(00H)
	DD	00H
	DD	01H
__unwindtable$?questGetQuestData@@YAPAU_object@@PAU1@0@Z DD 0ffffffffH
	DD	FLAT:__unwindfunclet$?questGetQuestData@@YAPAU_object@@PAU1@0@Z$0
	DD	0ffffffffH
	DD	FLAT:__unwindfunclet$?questGetQuestData@@YAPAU_object@@PAU1@0@Z$1
xdata$x	ENDS
;	COMDAT xdata$x
xdata$x	SEGMENT
__ehfuncinfo$?push_back@?$vector@USQuestInstance@CPythonQuest@@V?$allocator@USQuestInstance@CPythonQuest@@@std@@@std@@QAEX$$QAUSQuestInstance@CPythonQuest@@@Z DD 019930522H
	DD	02H
	DD	FLAT:__unwindtable$?push_back@?$vector@USQuestInstance@CPythonQuest@@V?$allocator@USQuestInstance@CPythonQuest@@@std@@@std@@QAEX$$QAUSQuestInstance@CPythonQuest@@@Z
	DD	2 DUP(00H)
	DD	2 DUP(00H)
	DD	00H
	DD	01H
__unwindtable$?push_back@?$vector@USQuestInstance@CPythonQuest@@V?$allocator@USQuestInstance@CPythonQuest@@@std@@@std@@QAEX$$QAUSQuestInstance@CPythonQuest@@@Z DD 0ffffffffH
	DD	FLAT:__unwindfunclet$?push_back@?$vector@USQuestInstance@CPythonQuest@@V?$allocator@USQuestInstance@CPythonQuest@@@std@@@std@@QAEX$$QAUSQuestInstance@CPythonQuest@@@Z$0
	DD	0ffffffffH
	DD	FLAT:__unwindfunclet$?push_back@?$vector@USQuestInstance@CPythonQuest@@V?$allocator@USQuestInstance@CPythonQuest@@@std@@@std@@QAEX$$QAUSQuestInstance@CPythonQuest@@@Z$1
xdata$x	ENDS
;	COMDAT xdata$x
xdata$x	SEGMENT
__ehfuncinfo$?push_back@?$vector@USQuestInstance@CPythonQuest@@V?$allocator@USQuestInstance@CPythonQuest@@@std@@@std@@QAEXABUSQuestInstance@CPythonQuest@@@Z DD 019930522H
	DD	02H
	DD	FLAT:__unwindtable$?push_back@?$vector@USQuestInstance@CPythonQuest@@V?$allocator@USQuestInstance@CPythonQuest@@@std@@@std@@QAEXABUSQuestInstance@CPythonQuest@@@Z
	DD	2 DUP(00H)
	DD	2 DUP(00H)
	DD	00H
	DD	01H
__unwindtable$?push_back@?$vector@USQuestInstance@CPythonQuest@@V?$allocator@USQuestInstance@CPythonQuest@@@std@@@std@@QAEXABUSQuestInstance@CPythonQuest@@@Z DD 0ffffffffH
	DD	FLAT:__unwindfunclet$?push_back@?$vector@USQuestInstance@CPythonQuest@@V?$allocator@USQuestInstance@CPythonQuest@@@std@@@std@@QAEXABUSQuestInstance@CPythonQuest@@@Z$0
	DD	0ffffffffH
	DD	FLAT:__unwindfunclet$?push_back@?$vector@USQuestInstance@CPythonQuest@@V?$allocator@USQuestInstance@CPythonQuest@@@std@@@std@@QAEXABUSQuestInstance@CPythonQuest@@@Z$1
xdata$x	ENDS
;	COMDAT xdata$x
xdata$x	SEGMENT
__ehfuncinfo$?_Reallocate@?$vector@USQuestInstance@CPythonQuest@@V?$allocator@USQuestInstance@CPythonQuest@@@std@@@std@@IAEXI@Z DD 019930522H
	DD	02H
	DD	FLAT:__unwindtable$?_Reallocate@?$vector@USQuestInstance@CPythonQuest@@V?$allocator@USQuestInstance@CPythonQuest@@@std@@@std@@IAEXI@Z
	DD	01H
	DD	FLAT:__tryblocktable$?_Reallocate@?$vector@USQuestInstance@CPythonQuest@@V?$allocator@USQuestInstance@CPythonQuest@@@std@@@std@@IAEXI@Z
	DD	2 DUP(00H)
	DD	00H
	DD	01H
__unwindtable$?_Reallocate@?$vector@USQuestInstance@CPythonQuest@@V?$allocator@USQuestInstance@CPythonQuest@@@std@@@std@@IAEXI@Z DD 0ffffffffH
	DD	00H
	DD	0ffffffffH
	DD	00H
__tryblocktable$?_Reallocate@?$vector@USQuestInstance@CPythonQuest@@V?$allocator@USQuestInstance@CPythonQuest@@@std@@@std@@IAEXI@Z DD 00H
	DD	00H
	DD	01H
	DD	01H
	DD	FLAT:__catchsym$?_Reallocate@?$vector@USQuestInstance@CPythonQuest@@V?$allocator@USQuestInstance@CPythonQuest@@@std@@@std@@IAEXI@Z$2
__catchsym$?_Reallocate@?$vector@USQuestInstance@CPythonQuest@@V?$allocator@USQuestInstance@CPythonQuest@@@std@@@std@@IAEXI@Z$2 DD 040H
	DD	00H
	DD	00H
	DD	FLAT:__catch$?_Reallocate@?$vector@USQuestInstance@CPythonQuest@@V?$allocator@USQuestInstance@CPythonQuest@@@std@@@std@@IAEXI@Z$0
xdata$x	ENDS
;	COMDAT xdata$x
xdata$x	SEGMENT
__ehfuncinfo$??$construct@USQuestInstance@CPythonQuest@@U12@@?$_Wrap_alloc@V?$allocator@USQuestInstance@CPythonQuest@@@std@@@std@@QAEXPAUSQuestInstance@CPythonQuest@@$$QAU23@@Z DD 019930522H
	DD	01H
	DD	FLAT:__unwindtable$??$construct@USQuestInstance@CPythonQuest@@U12@@?$_Wrap_alloc@V?$allocator@USQuestInstance@CPythonQuest@@@std@@@std@@QAEXPAUSQuestInstance@CPythonQuest@@$$QAU23@@Z
	DD	2 DUP(00H)
	DD	2 DUP(00H)
	DD	00H
	DD	01H
__unwindtable$??$construct@USQuestInstance@CPythonQuest@@U12@@?$_Wrap_alloc@V?$allocator@USQuestInstance@CPythonQuest@@@std@@@std@@QAEXPAUSQuestInstance@CPythonQuest@@$$QAU23@@Z DD 0ffffffffH
	DD	FLAT:__unwindfunclet$??$construct@USQuestInstance@CPythonQuest@@U12@@?$_Wrap_alloc@V?$allocator@USQuestInstance@CPythonQuest@@@std@@@std@@QAEXPAUSQuestInstance@CPythonQuest@@$$QAU23@@Z$0
xdata$x	ENDS
;	COMDAT xdata$x
xdata$x	SEGMENT
__ehfuncinfo$??$construct@USQuestInstance@CPythonQuest@@AAU12@@?$_Wrap_alloc@V?$allocator@USQuestInstance@CPythonQuest@@@std@@@std@@QAEXPAUSQuestInstance@CPythonQuest@@AAU23@@Z DD 019930522H
	DD	01H
	DD	FLAT:__unwindtable$??$construct@USQuestInstance@CPythonQuest@@AAU12@@?$_Wrap_alloc@V?$allocator@USQuestInstance@CPythonQuest@@@std@@@std@@QAEXPAUSQuestInstance@CPythonQuest@@AAU23@@Z
	DD	2 DUP(00H)
	DD	2 DUP(00H)
	DD	00H
	DD	01H
__unwindtable$??$construct@USQuestInstance@CPythonQuest@@AAU12@@?$_Wrap_alloc@V?$allocator@USQuestInstance@CPythonQuest@@@std@@@std@@QAEXPAUSQuestInstance@CPythonQuest@@AAU23@@Z DD 0ffffffffH
	DD	FLAT:__unwindfunclet$??$construct@USQuestInstance@CPythonQuest@@AAU12@@?$_Wrap_alloc@V?$allocator@USQuestInstance@CPythonQuest@@@std@@@std@@QAEXPAUSQuestInstance@CPythonQuest@@AAU23@@Z$0
xdata$x	ENDS
;	COMDAT xdata$x
xdata$x	SEGMENT
__ehfuncinfo$??$construct@USQuestInstance@CPythonQuest@@ABU12@@?$_Wrap_alloc@V?$allocator@USQuestInstance@CPythonQuest@@@std@@@std@@QAEXPAUSQuestInstance@CPythonQuest@@ABU23@@Z DD 019930522H
	DD	01H
	DD	FLAT:__unwindtable$??$construct@USQuestInstance@CPythonQuest@@ABU12@@?$_Wrap_alloc@V?$allocator@USQuestInstance@CPythonQuest@@@std@@@std@@QAEXPAUSQuestInstance@CPythonQuest@@ABU23@@Z
	DD	2 DUP(00H)
	DD	2 DUP(00H)
	DD	00H
	DD	01H
__unwindtable$??$construct@USQuestInstance@CPythonQuest@@ABU12@@?$_Wrap_alloc@V?$allocator@USQuestInstance@CPythonQuest@@@std@@@std@@QAEXPAUSQuestInstance@CPythonQuest@@ABU23@@Z DD 0ffffffffH
	DD	FLAT:__unwindfunclet$??$construct@USQuestInstance@CPythonQuest@@ABU12@@?$_Wrap_alloc@V?$allocator@USQuestInstance@CPythonQuest@@@std@@@std@@QAEXPAUSQuestInstance@CPythonQuest@@ABU23@@Z$0
xdata$x	ENDS
;	COMDAT xdata$x
xdata$x	SEGMENT
__ehfuncinfo$??$construct@USQuestInstance@CPythonQuest@@U12@@?$allocator_traits@V?$allocator@USQuestInstance@CPythonQuest@@@std@@@std@@SAXAAV?$allocator@USQuestInstance@CPythonQuest@@@1@PAUSQuestInstance@CPythonQuest@@$$QAU34@@Z DD 019930522H
	DD	01H
	DD	FLAT:__unwindtable$??$construct@USQuestInstance@CPythonQuest@@U12@@?$allocator_traits@V?$allocator@USQuestInstance@CPythonQuest@@@std@@@std@@SAXAAV?$allocator@USQuestInstance@CPythonQuest@@@1@PAUSQuestInstance@CPythonQuest@@$$QAU34@@Z
	DD	2 DUP(00H)
	DD	2 DUP(00H)
	DD	00H
	DD	01H
__unwindtable$??$construct@USQuestInstance@CPythonQuest@@U12@@?$allocator_traits@V?$allocator@USQuestInstance@CPythonQuest@@@std@@@std@@SAXAAV?$allocator@USQuestInstance@CPythonQuest@@@1@PAUSQuestInstance@CPythonQuest@@$$QAU34@@Z DD 0ffffffffH
	DD	FLAT:__unwindfunclet$??$construct@USQuestInstance@CPythonQuest@@U12@@?$allocator_traits@V?$allocator@USQuestInstance@CPythonQuest@@@std@@@std@@SAXAAV?$allocator@USQuestInstance@CPythonQuest@@@1@PAUSQuestInstance@CPythonQuest@@$$QAU34@@Z$0
xdata$x	ENDS
;	COMDAT xdata$x
xdata$x	SEGMENT
__ehfuncinfo$??$construct@USQuestInstance@CPythonQuest@@AAU12@@?$allocator_traits@V?$allocator@USQuestInstance@CPythonQuest@@@std@@@std@@SAXAAV?$allocator@USQuestInstance@CPythonQuest@@@1@PAUSQuestInstance@CPythonQuest@@AAU34@@Z DD 019930522H
	DD	01H
	DD	FLAT:__unwindtable$??$construct@USQuestInstance@CPythonQuest@@AAU12@@?$allocator_traits@V?$allocator@USQuestInstance@CPythonQuest@@@std@@@std@@SAXAAV?$allocator@USQuestInstance@CPythonQuest@@@1@PAUSQuestInstance@CPythonQuest@@AAU34@@Z
	DD	2 DUP(00H)
	DD	2 DUP(00H)
	DD	00H
	DD	01H
__unwindtable$??$construct@USQuestInstance@CPythonQuest@@AAU12@@?$allocator_traits@V?$allocator@USQuestInstance@CPythonQuest@@@std@@@std@@SAXAAV?$allocator@USQuestInstance@CPythonQuest@@@1@PAUSQuestInstance@CPythonQuest@@AAU34@@Z DD 0ffffffffH
	DD	FLAT:__unwindfunclet$??$construct@USQuestInstance@CPythonQuest@@AAU12@@?$allocator_traits@V?$allocator@USQuestInstance@CPythonQuest@@@std@@@std@@SAXAAV?$allocator@USQuestInstance@CPythonQuest@@@1@PAUSQuestInstance@CPythonQuest@@AAU34@@Z$0
xdata$x	ENDS
;	COMDAT xdata$x
xdata$x	SEGMENT
__ehfuncinfo$??$construct@USQuestInstance@CPythonQuest@@ABU12@@?$allocator_traits@V?$allocator@USQuestInstance@CPythonQuest@@@std@@@std@@SAXAAV?$allocator@USQuestInstance@CPythonQuest@@@1@PAUSQuestInstance@CPythonQuest@@ABU34@@Z DD 019930522H
	DD	01H
	DD	FLAT:__unwindtable$??$construct@USQuestInstance@CPythonQuest@@ABU12@@?$allocator_traits@V?$allocator@USQuestInstance@CPythonQuest@@@std@@@std@@SAXAAV?$allocator@USQuestInstance@CPythonQuest@@@1@PAUSQuestInstance@CPythonQuest@@ABU34@@Z
	DD	2 DUP(00H)
	DD	2 DUP(00H)
	DD	00H
	DD	01H
__unwindtable$??$construct@USQuestInstance@CPythonQuest@@ABU12@@?$allocator_traits@V?$allocator@USQuestInstance@CPythonQuest@@@std@@@std@@SAXAAV?$allocator@USQuestInstance@CPythonQuest@@@1@PAUSQuestInstance@CPythonQuest@@ABU34@@Z DD 0ffffffffH
	DD	FLAT:__unwindfunclet$??$construct@USQuestInstance@CPythonQuest@@ABU12@@?$allocator_traits@V?$allocator@USQuestInstance@CPythonQuest@@@std@@@std@@SAXAAV?$allocator@USQuestInstance@CPythonQuest@@@1@PAUSQuestInstance@CPythonQuest@@ABU34@@Z$0
xdata$x	ENDS
;	COMDAT xdata$x
xdata$x	SEGMENT
__ehfuncinfo$?construct@?$allocator@USQuestInstance@CPythonQuest@@@std@@QAEXPAUSQuestInstance@CPythonQuest@@ABU34@@Z DD 019930522H
	DD	01H
	DD	FLAT:__unwindtable$?construct@?$allocator@USQuestInstance@CPythonQuest@@@std@@QAEXPAUSQuestInstance@CPythonQuest@@ABU34@@Z
	DD	2 DUP(00H)
	DD	2 DUP(00H)
	DD	00H
	DD	01H
__unwindtable$?construct@?$allocator@USQuestInstance@CPythonQuest@@@std@@QAEXPAUSQuestInstance@CPythonQuest@@ABU34@@Z DD 0ffffffffH
	DD	FLAT:__unwindfunclet$?construct@?$allocator@USQuestInstance@CPythonQuest@@@std@@QAEXPAUSQuestInstance@CPythonQuest@@ABU34@@Z$0
xdata$x	ENDS
;	COMDAT xdata$x
xdata$x	SEGMENT
__ehfuncinfo$??0SQuestInstance@CPythonQuest@@QAE@ABU01@@Z DD 019930522H
	DD	03H
	DD	FLAT:__unwindtable$??0SQuestInstance@CPythonQuest@@QAE@ABU01@@Z
	DD	2 DUP(00H)
	DD	2 DUP(00H)
	DD	00H
	DD	01H
__unwindtable$??0SQuestInstance@CPythonQuest@@QAE@ABU01@@Z DD 0ffffffffH
	DD	FLAT:__unwindfunclet$??0SQuestInstance@CPythonQuest@@QAE@ABU01@@Z$0
	DD	00H
	DD	FLAT:__unwindfunclet$??0SQuestInstance@CPythonQuest@@QAE@ABU01@@Z$1
	DD	01H
	DD	FLAT:__unwindfunclet$??0SQuestInstance@CPythonQuest@@QAE@ABU01@@Z$2
xdata$x	ENDS
;	COMDAT xdata$x
xdata$x	SEGMENT
__ehfuncinfo$??$construct@USQuestInstance@CPythonQuest@@U12@@?$allocator@USQuestInstance@CPythonQuest@@@std@@QAEXPAUSQuestInstance@CPythonQuest@@$$QAU23@@Z DD 019930522H
	DD	01H
	DD	FLAT:__unwindtable$??$construct@USQuestInstance@CPythonQuest@@U12@@?$allocator@USQuestInstance@CPythonQuest@@@std@@QAEXPAUSQuestInstance@CPythonQuest@@$$QAU23@@Z
	DD	2 DUP(00H)
	DD	2 DUP(00H)
	DD	00H
	DD	01H
__unwindtable$??$construct@USQuestInstance@CPythonQuest@@U12@@?$allocator@USQuestInstance@CPythonQuest@@@std@@QAEXPAUSQuestInstance@CPythonQuest@@$$QAU23@@Z DD 0ffffffffH
	DD	FLAT:__unwindfunclet$??$construct@USQuestInstance@CPythonQuest@@U12@@?$allocator@USQuestInstance@CPythonQuest@@@std@@QAEXPAUSQuestInstance@CPythonQuest@@$$QAU23@@Z$0
xdata$x	ENDS
;	COMDAT xdata$x
xdata$x	SEGMENT
__ehfuncinfo$??$construct@USQuestInstance@CPythonQuest@@AAU12@@?$allocator@USQuestInstance@CPythonQuest@@@std@@QAEXPAUSQuestInstance@CPythonQuest@@AAU23@@Z DD 019930522H
	DD	01H
	DD	FLAT:__unwindtable$??$construct@USQuestInstance@CPythonQuest@@AAU12@@?$allocator@USQuestInstance@CPythonQuest@@@std@@QAEXPAUSQuestInstance@CPythonQuest@@AAU23@@Z
	DD	2 DUP(00H)
	DD	2 DUP(00H)
	DD	00H
	DD	01H
__unwindtable$??$construct@USQuestInstance@CPythonQuest@@AAU12@@?$allocator@USQuestInstance@CPythonQuest@@@std@@QAEXPAUSQuestInstance@CPythonQuest@@AAU23@@Z DD 0ffffffffH
	DD	FLAT:__unwindfunclet$??$construct@USQuestInstance@CPythonQuest@@AAU12@@?$allocator@USQuestInstance@CPythonQuest@@@std@@QAEXPAUSQuestInstance@CPythonQuest@@AAU23@@Z$0
xdata$x	ENDS
;	COMDAT xdata$x
xdata$x	SEGMENT
__ehfuncinfo$??$_Uninit_move@PAUSQuestInstance@CPythonQuest@@PAU12@V?$allocator@USQuestInstance@CPythonQuest@@@std@@U12@@std@@YAPAUSQuestInstance@CPythonQuest@@PAU12@00AAU?$_Wrap_alloc@V?$allocator@USQuestInstance@CPythonQuest@@@std@@@0@0U_Nonscalar_ptr_iterator_tag@0@@Z DD 019930522H
	DD	03H
	DD	FLAT:__unwindtable$??$_Uninit_move@PAUSQuestInstance@CPythonQuest@@PAU12@V?$allocator@USQuestInstance@CPythonQuest@@@std@@U12@@std@@YAPAUSQuestInstance@CPythonQuest@@PAU12@00AAU?$_Wrap_alloc@V?$allocator@USQuestInstance@CPythonQuest@@@std@@@0@0U_Nonscalar_ptr_iterator_tag@0@@Z
	DD	01H
	DD	FLAT:__tryblocktable$??$_Uninit_move@PAUSQuestInstance@CPythonQuest@@PAU12@V?$allocator@USQuestInstance@CPythonQuest@@@std@@U12@@std@@YAPAUSQuestInstance@CPythonQuest@@PAU12@00AAU?$_Wrap_alloc@V?$allocator@USQuestInstance@CPythonQuest@@@std@@@0@0U_Nonscalar_ptr_iterator_tag@0@@Z
	DD	2 DUP(00H)
	DD	00H
	DD	01H
__unwindtable$??$_Uninit_move@PAUSQuestInstance@CPythonQuest@@PAU12@V?$allocator@USQuestInstance@CPythonQuest@@@std@@U12@@std@@YAPAUSQuestInstance@CPythonQuest@@PAU12@00AAU?$_Wrap_alloc@V?$allocator@USQuestInstance@CPythonQuest@@@std@@@0@0U_Nonscalar_ptr_iterator_tag@0@@Z DD 0ffffffffH
	DD	00H
	DD	00H
	DD	FLAT:__unwindfunclet$??$_Uninit_move@PAUSQuestInstance@CPythonQuest@@PAU12@V?$allocator@USQuestInstance@CPythonQuest@@@std@@U12@@std@@YAPAUSQuestInstance@CPythonQuest@@PAU12@00AAU?$_Wrap_alloc@V?$allocator@USQuestInstance@CPythonQuest@@@std@@@0@0U_Nonscalar_ptr_iterator_tag@0@@Z$2
	DD	0ffffffffH
	DD	00H
__tryblocktable$??$_Uninit_move@PAUSQuestInstance@CPythonQuest@@PAU12@V?$allocator@USQuestInstance@CPythonQuest@@@std@@U12@@std@@YAPAUSQuestInstance@CPythonQuest@@PAU12@00AAU?$_Wrap_alloc@V?$allocator@USQuestInstance@CPythonQuest@@@std@@@0@0U_Nonscalar_ptr_iterator_tag@0@@Z DD 00H
	DD	01H
	DD	02H
	DD	01H
	DD	FLAT:__catchsym$??$_Uninit_move@PAUSQuestInstance@CPythonQuest@@PAU12@V?$allocator@USQuestInstance@CPythonQuest@@@std@@U12@@std@@YAPAUSQuestInstance@CPythonQuest@@PAU12@00AAU?$_Wrap_alloc@V?$allocator@USQuestInstance@CPythonQuest@@@std@@@0@0U_Nonscalar_ptr_iterator_tag@0@@Z$3
__catchsym$??$_Uninit_move@PAUSQuestInstance@CPythonQuest@@PAU12@V?$allocator@USQuestInstance@CPythonQuest@@@std@@U12@@std@@YAPAUSQuestInstance@CPythonQuest@@PAU12@00AAU?$_Wrap_alloc@V?$allocator@USQuestInstance@CPythonQuest@@@std@@@0@0U_Nonscalar_ptr_iterator_tag@0@@Z$3 DD 040H
	DD	00H
	DD	00H
	DD	FLAT:__catch$??$_Uninit_move@PAUSQuestInstance@CPythonQuest@@PAU12@V?$allocator@USQuestInstance@CPythonQuest@@@std@@U12@@std@@YAPAUSQuestInstance@CPythonQuest@@PAU12@00AAU?$_Wrap_alloc@V?$allocator@USQuestInstance@CPythonQuest@@@std@@@0@0U_Nonscalar_ptr_iterator_tag@0@@Z$0
; Function compile flags: /Ogtp
; File d:\metin2\metin2\client_source_clean\client_source_clean\source\userinterface\pythonquest.cpp
; File c:\program files (x86)\microsoft visual studio 12.0\vc\include\vector
; File c:\program files (x86)\microsoft visual studio 12.0\vc\include\xmemory0
; File c:\program files (x86)\microsoft visual studio 12.0\vc\include\vector
; File d:\metin2\metin2\client_source_clean\client_source_clean\source\eterbase\singleton.h
; File d:\metin2\metin2\client_source_clean\client_source_clean\source\userinterface\pythonquest.cpp
;	COMDAT ??1CPythonQuest@@UAE@XZ
_TEXT	SEGMENT
??1CPythonQuest@@UAE@XZ PROC				; CPythonQuest::~CPythonQuest, COMDAT
; _this$ = ecx

; 165  : {

  00000	56		 push	 esi
  00001	57		 push	 edi
  00002	8b f9		 mov	 edi, ecx
  00004	c7 07 00 00 00
	00		 mov	 DWORD PTR [edi], OFFSET ??_7CPythonQuest@@6B@

; 166  : 	Clear();

  0000a	e8 00 00 00 00	 call	 ?Clear@CPythonQuest@@QAEXXZ ; CPythonQuest::Clear
; File c:\program files (x86)\microsoft visual studio 12.0\vc\include\vector

; 1623 : 		if (this->_Myfirst != pointer())

  0000f	8b 77 04	 mov	 esi, DWORD PTR [edi+4]
  00012	85 f6		 test	 esi, esi
  00014	74 39		 je	 SHORT $LN42@CPythonQue
  00016	53		 push	 ebx

; 1624 : 			{	// something to free, destroy and deallocate it
; 1625 : 			this->_Orphan_all();
; 1626 : 			_Destroy(this->_Myfirst, this->_Mylast);

  00017	8b 5f 08	 mov	 ebx, DWORD PTR [edi+8]
; File c:\program files (x86)\microsoft visual studio 12.0\vc\include\xmemory0

; 81   : 	for (; _First != _Last; ++_First)

  0001a	3b f3		 cmp	 esi, ebx
  0001c	74 10		 je	 SHORT $LN16@CPythonQue
  0001e	8b ff		 npad	 2
$LL18@CPythonQue:
  00020	8b ce		 mov	 ecx, esi
  00022	e8 00 00 00 00	 call	 ??1SQuestInstance@CPythonQuest@@QAE@XZ
  00027	83 c6 70	 add	 esi, 112		; 00000070H
  0002a	3b f3		 cmp	 esi, ebx
  0002c	75 f2		 jne	 SHORT $LL18@CPythonQue
$LN16@CPythonQue:

; 82   : 		_Al.destroy(_First);
; 83   : 	}
; 84   : 
; 85   : template<class _Alloc> inline
; 86   : 	void _Destroy_range(typename _Alloc::pointer _First,
; 87   : 		typename _Alloc::pointer _Last, _Alloc& _Al,
; 88   : 		_Scalar_ptr_iterator_tag)
; 89   : 	{	// destroy [_First, _Last), scalar type (do nothing)
; 90   : 	}
; 91   : 
; 92   : template<class _Alloc> inline
; 93   : 	void _Destroy_range(typename _Alloc::pointer _First,
; 94   : 		typename _Alloc::pointer _Last, _Alloc& _Al)
; 95   : 	{	// destroy [_First, _Last)
; 96   : 	_Destroy_range(_First, _Last, _Al, _Ptr_cat(_First, _Last));
; 97   : 	}
; 98   : 
; 99   : 		// TEMPLATE CLASS _Is_simple_alloc
; 100  : template<class _Alty>
; 101  : 	struct _Is_simple_alloc
; 102  : 		: _Cat_base<is_same<typename _Alty::size_type, size_t>::value
; 103  : 		&& is_same<typename _Alty::difference_type, ptrdiff_t>::value
; 104  : 		&& is_same<typename _Alty::pointer,
; 105  : 			typename _Alty::value_type *>::value
; 106  : 		&& is_same<typename _Alty::const_pointer,
; 107  : 			const typename _Alty::value_type *>::value
; 108  : 		&& is_same<typename _Alty::reference,
; 109  : 			typename _Alty::value_type&>::value
; 110  : 		&& is_same<typename _Alty::const_reference,
; 111  : 			const typename _Alty::value_type&>::value>
; 112  : 	{	// tests if allocator has simple addressing
; 113  : 	};
; 114  : 
; 115  : 		// TEMPLATE CLASS _Simple_types
; 116  : template<class _Value_type>
; 117  : 	struct _Simple_types
; 118  : 	{	// wraps types needed by iterators
; 119  : 	typedef _Value_type value_type;
; 120  : 	typedef size_t size_type;
; 121  : 	typedef ptrdiff_t difference_type;
; 122  : 	typedef value_type *pointer;
; 123  : 	typedef const value_type *const_pointer;
; 124  : 	typedef value_type& reference;
; 125  : 	typedef const value_type& const_reference;
; 126  : 	};
; 127  : 
; 128  : 		// TEMPLATE CLASS _Get_voidptr
; 129  : template<class _Alty,
; 130  : 	class _Pointer>
; 131  : 	struct _Get_voidptr
; 132  : 	{	// get void pointer for allocator
; 133  : 	typedef typename _Alty::template rebind<void>::other _Alvoid;
; 134  : 	typedef typename _Alvoid::pointer type;
; 135  : 	};
; 136  : 
; 137  : template<class _Alty,
; 138  : 	class _Ty>
; 139  : 	struct _Get_voidptr<_Alty, _Ty *>
; 140  : 	{	// get raw void pointer for allocator
; 141  : 	typedef void *type;
; 142  : 	};
; 143  : 
; 144  : 		// TEMPLATE CLASS _Is_iterator
; 145  : template<class _Iter>
; 146  : 	struct _Is_iterator
; 147  : 	: public integral_constant<bool, !is_integral<_Iter>::value>
; 148  : 	{	// tests for reasonable iterator candidate
; 149  : 	};
; 150  : 
; 151  : 		// TEMPLATE STRUCT _Get_first_parameter
; 152  : template<class _Ty>
; 153  : 	struct _Get_first_parameter;
; 154  : 
; 155  : template<template<class, class...> class _Ty,
; 156  : 	class _First,
; 157  : 	class... _Rest>
; 158  : 	struct _Get_first_parameter<_Ty<_First, _Rest...> >
; 159  : 	{	// given _Ty<_First, _Rest...>, extract _First
; 160  : 	typedef _First type;
; 161  : 	};
; 162  : 
; 163  : 		// TEMPLATE STRUCT _Replace_first_parameter
; 164  : template<class _Newfirst,
; 165  : 	class _Ty>
; 166  : 	struct _Replace_first_parameter;
; 167  : 
; 168  : template<class _Newfirst,
; 169  : 	template<class, class...> class _Ty,
; 170  : 	class _First,
; 171  : 	class... _Rest>
; 172  : 	struct _Replace_first_parameter<_Newfirst, _Ty<_First, _Rest...> >
; 173  : 	{	// given _Ty<_First, _Rest...>, replace _First
; 174  : 	typedef _Ty<_Newfirst, _Rest...> type;
; 175  : 	};
; 176  : 
; 177  : 		// TEMPLATE STRUCT _Get_element_type
; 178  : template<class _Ty>
; 179  : 	struct _Get_element_type
; 180  : 	_GET_TYPE_OR_DEFAULT(element_type,
; 181  : 		typename _Get_first_parameter<_Uty>::type);
; 182  : 
; 183  : 		// TEMPLATE STRUCT _Get_ptr_difference_type
; 184  : template<class _Ty>
; 185  : 	struct _Get_ptr_difference_type
; 186  : 	_GET_TYPE_OR_DEFAULT(difference_type,
; 187  : 		ptrdiff_t);
; 188  : 
; 189  : 		// TEMPLATE STRUCT _Get_rebind_type
; 190  : template<class _Ty,
; 191  : 	class _Other>
; 192  : 	struct _Get_rebind_type
; 193  : 	_GET_TYPE_OR_DEFAULT(template rebind<_Other>::other,
; 194  : 		typename _Replace_first_parameter<_Other _COMMA _Uty>::type);
; 195  : 
; 196  : 		// TEMPLATE CLASS pointer_traits
; 197  : template<class _Ty>
; 198  : 	struct pointer_traits
; 199  : 	{	// defines traits for arbitrary pointers
; 200  : 	typedef typename _Get_element_type<_Ty>::type element_type;
; 201  : 	typedef _Ty pointer;
; 202  : 	typedef typename _Get_ptr_difference_type<_Ty>::type difference_type;
; 203  : 
; 204  : 	template<class _Other>
; 205  : 		using rebind = typename _Get_rebind_type<_Ty, _Other>::type;
; 206  : 
; 207  : 	typedef typename _If<is_void<element_type>::value,
; 208  : 		char&,
; 209  : 		typename add_reference<element_type>::type>::type _Reftype;
; 210  : 
; 211  : 	static pointer pointer_to(_Reftype _Val)
; 212  : 		{	// convert raw reference to pointer
; 213  : 		return (_Ty::pointer_to(_Val));
; 214  : 		}
; 215  : 	};
; 216  : 
; 217  : 		// TEMPLATE CLASS pointer_traits<_Ty *>
; 218  : template<class _Ty>
; 219  : 	struct pointer_traits<_Ty *>
; 220  : 	{	// defines traits for raw pointers
; 221  : 	typedef _Ty element_type;
; 222  : 	typedef _Ty *pointer;
; 223  : 	typedef ptrdiff_t difference_type;
; 224  : 
; 225  : 	template<class _Other>
; 226  : 		using rebind = _Other *;
; 227  : 
; 228  : 	typedef typename _If<is_void<_Ty>::value,
; 229  : 		char&,
; 230  : 		typename add_reference<_Ty>::type>::type _Reftype;
; 231  : 
; 232  : 	static pointer pointer_to(_Reftype _Val)
; 233  : 		{	// convert raw reference to pointer
; 234  : 		return (_STD addressof(_Val));
; 235  : 		}
; 236  : 	};
; 237  : 
; 238  : 		// TEMPLATE STRUCT _Get_pointer_type
; 239  : template<class _Ty>
; 240  : 	struct _Get_pointer_type
; 241  : 	_GET_TYPE_OR_DEFAULT(pointer,
; 242  : 		typename _Ty::value_type *);
; 243  : 
; 244  : 		// TEMPLATE STRUCT _Get_const_pointer_type
; 245  : template<class _Ty>
; 246  : 	struct _Get_const_pointer_type
; 247  : 	_GET_TYPE_OR_DEFAULT(const_pointer,
; 248  : 		typename pointer_traits<typename _Get_pointer_type<_Ty>::type>
; 249  : 			::template rebind<const typename _Ty::value_type>);
; 250  : 
; 251  : 		// TEMPLATE STRUCT _Get_void_pointer_type
; 252  : template<class _Ty>
; 253  : 	struct _Get_void_pointer_type
; 254  : 	_GET_TYPE_OR_DEFAULT(void_pointer,
; 255  : 		typename pointer_traits<typename _Get_pointer_type<_Ty>::type>
; 256  : 			::template rebind<void>);
; 257  : 
; 258  : 		// TEMPLATE STRUCT _Get_const_void_pointer_type
; 259  : template<class _Ty>
; 260  : 	struct _Get_const_void_pointer_type
; 261  : 	_GET_TYPE_OR_DEFAULT(const_void_pointer,
; 262  : 		typename pointer_traits<typename _Get_pointer_type<_Ty>::type>
; 263  : 			::template rebind<const void>);
; 264  : 
; 265  : 		// TEMPLATE STRUCT _Get_difference_type
; 266  : template<class _Ty>
; 267  : 	struct _Get_difference_type
; 268  : 	_GET_TYPE_OR_DEFAULT(difference_type,
; 269  : 		typename _Get_ptr_difference_type<
; 270  : 			typename _Get_pointer_type<_Ty>::type>::type);
; 271  : 
; 272  : 		// TEMPLATE STRUCT _Get_size_type
; 273  : template<class _Ty>
; 274  : 	struct _Get_size_type
; 275  : 	_GET_TYPE_OR_DEFAULT(size_type,
; 276  : 		typename make_unsigned<
; 277  : 			typename _Get_difference_type<_Ty>::type>::type);
; 278  : 
; 279  : 		// TEMPLATE STRUCT _Get_propagate_on_container_copy
; 280  : template<class _Ty>
; 281  : 	struct _Get_propagate_on_container_copy
; 282  : 	_GET_TYPE_OR_DEFAULT(propagate_on_container_copy_assignment,
; 283  : 		false_type);
; 284  : 
; 285  : 		// TEMPLATE STRUCT _Get_propagate_on_container_move
; 286  : template<class _Ty>
; 287  : 	struct _Get_propagate_on_container_move
; 288  : 	_GET_TYPE_OR_DEFAULT(propagate_on_container_move_assignment,
; 289  : 		false_type);
; 290  : 
; 291  : 		// TEMPLATE STRUCT _Get_propagate_on_container_swap
; 292  : template<class _Ty>
; 293  : 	struct _Get_propagate_on_container_swap
; 294  : 	_GET_TYPE_OR_DEFAULT(propagate_on_container_swap,
; 295  : 		false_type);
; 296  : 
; 297  : 		// STRUCT _Alloc_allocate
; 298  : struct _Alloc_allocate
; 299  : 	{	// determines allocator_traits<_Alloc>
; 300  : 		// ::allocate(size_type, const_void_pointer)
; 301  : 
; 302  : 	template<class _Alloc,
; 303  : 		class _Size_type,
; 304  : 		class _Const_void_pointer>
; 305  : 		static auto _Fn(int, _Alloc& _Al,
; 306  : 			_Size_type _Count,
; 307  : 			_Const_void_pointer _Hint)
; 308  : 			-> decltype(_Al.allocate(_Count, _Hint))
; 309  : 		{	// call allocator supplied version
; 310  : 		return (_Al.allocate(_Count, _Hint));
; 311  : 		}
; 312  : 
; 313  : 	template<class _Alloc,
; 314  : 		class _Size_type,
; 315  : 		class _Const_void_pointer>
; 316  : 		static auto _Fn(_Wrap_int, _Alloc& _Al,
; 317  : 			_Size_type _Count,
; 318  : 			_Const_void_pointer)
; 319  : 			-> decltype(_Al.allocate(_Count))
; 320  : 		{	// call default version
; 321  : 		return (_Al.allocate(_Count));
; 322  : 		}
; 323  : 	};
; 324  : 
; 325  : 		// STRUCT _Alloc_construct
; 326  : struct _Alloc_construct
; 327  : 	{	// determines allocator_traits<_Ty>
; 328  : 		// ::construct(_Ty&, _Objty *, _Types...)
; 329  : 
; 330  : 	template<class _Ty,
; 331  : 		class _Objty,
; 332  : 		class... _Types>
; 333  : 		static auto _Fn(int, _Ty& _Al, _Objty *_Ptr,
; 334  : 			_Types&&... _Args)
; 335  : 			-> decltype(
; 336  : 				_Al.construct(_Ptr, _STD forward<_Types>(_Args)...))
; 337  : 		{	// call allocator supplied version
; 338  : 		_Al.construct(_Ptr, _STD forward<_Types>(_Args)...);
; 339  : 		}
; 340  : 
; 341  : 	template<class _Ty,
; 342  : 		class _Objty,
; 343  : 		class... _Types>
; 344  : 		static auto _Fn(_Wrap_int, _Ty&, _Objty *_Ptr,
; 345  : 			_Types&&... _Args)
; 346  : 			-> void
; 347  : 		{	// call default version
; 348  : 		::new (static_cast<void *>(_Ptr))
; 349  : 			_Objty(_STD forward<_Types>(_Args)...);
; 350  : 		}
; 351  : 
; 352  : 	};
; 353  : 
; 354  : 		// STRUCT _Alloc_destroy
; 355  : struct _Alloc_destroy
; 356  : 	{	// determines allocator_traits<_Ty>::destroy(_Ty&, _Objty *)
; 357  : 	template<class _Ty,
; 358  : 		class _Objty>
; 359  : 		static auto _Fn(int, _Ty& _Al, _Objty *_Ptr)
; 360  : 			-> decltype(_Al.destroy(_Ptr))
; 361  : 		{	// call allocator supplied version
; 362  : 		_Al.destroy(_Ptr);
; 363  : 		}
; 364  : 
; 365  : 	template<class _Ty,
; 366  : 		class _Objty>
; 367  : 		static auto _Fn(_Wrap_int, _Ty&, _Objty *_Ptr)
; 368  : 			-> void
; 369  : 		{	// call default version
; 370  : 		_Ptr->~_Objty();
; 371  : 		}
; 372  : 	};
; 373  : 
; 374  : 		// STRUCT _Alloc_max_size
; 375  : struct _Alloc_max_size
; 376  : 	{	// determines allocator_traits<_Ty>::max_size(const _Ty&)
; 377  : 	template<class _Ty>
; 378  : 		static auto _Fn(int, const _Ty& _Al)
; 379  : 			-> decltype(_Al.max_size())
; 380  : 		{	// call allocator supplied version
; 381  : 		return (_Al.max_size());
; 382  : 		}
; 383  : 
; 384  : 	template<class _Ty>
; 385  : 		static auto _Fn(_Wrap_int, const _Ty&)
; 386  : 			-> typename _Get_size_type<_Ty>::type
; 387  : 		{	// call default version
; 388  : 		return ((numeric_limits<typename _Get_size_type<_Ty>::type>::max)());
; 389  : 		}
; 390  : 	};
; 391  : 
; 392  : 		// STRUCT _Alloc_select
; 393  : struct _Alloc_select
; 394  : 	{	// determines allocator_traits<_Ty>
; 395  : 		// ::select_on_container_copy_construction(const _Alloc&)
; 396  : 
; 397  : 	template<class _Ty>
; 398  : 		static auto _Fn(int, const _Ty& _Al)
; 399  : 			-> decltype((_Ty)_Al.select_on_container_copy_construction())
; 400  : 		{	// call allocator supplied version
; 401  : 		return (_Al.select_on_container_copy_construction());
; 402  : 		}
; 403  : 
; 404  : 	template<class _Ty>
; 405  : 		static auto _Fn(_Wrap_int, const _Ty& _Al)
; 406  : 			-> _Ty
; 407  : 		{	// call default version
; 408  : 		return (_Al);
; 409  : 		}
; 410  : 	};
; 411  : 
; 412  : 		// TEMPLATE CLASS allocator_traits
; 413  : template<class _Alloc>
; 414  : 	struct allocator_traits
; 415  : 	{	// defines traits for allocators
; 416  : 	typedef allocator_traits<_Alloc> other;
; 417  : 
; 418  : 	typedef _Alloc allocator_type;
; 419  : 	typedef typename _Alloc::value_type value_type;
; 420  : 
; 421  : 	typedef typename _Get_pointer_type<_Alloc>::type
; 422  : 		pointer;
; 423  : 	typedef typename _Get_const_pointer_type<_Alloc>::type
; 424  : 		const_pointer;
; 425  : 	typedef typename _Get_void_pointer_type<_Alloc>::type
; 426  : 		void_pointer;
; 427  : 	typedef typename _Get_const_void_pointer_type<_Alloc>::type
; 428  : 		const_void_pointer;
; 429  : 
; 430  : 	typedef typename _Get_size_type<_Alloc>::type size_type;
; 431  : 	typedef typename _Get_difference_type<_Alloc>::type difference_type;
; 432  : 
; 433  : 	typedef typename _Get_propagate_on_container_copy<_Alloc>::type
; 434  : 		propagate_on_container_copy_assignment;
; 435  : 	typedef typename _Get_propagate_on_container_move<_Alloc>::type
; 436  : 		propagate_on_container_move_assignment;
; 437  : 	typedef typename _Get_propagate_on_container_swap<_Alloc>::type
; 438  : 		propagate_on_container_swap;
; 439  : 
; 440  : 	template<class _Other>
; 441  : 		using rebind_alloc = typename _Get_rebind_type<_Alloc, _Other>::type;
; 442  : 
; 443  : 	template<class _Other>
; 444  : 		using rebind_traits = allocator_traits<rebind_alloc<_Other> >;
; 445  : 
; 446  : 	static pointer allocate(_Alloc& _Al, size_type _Count)
; 447  : 		{	// allocate array of _Count elements
; 448  : 		return (_Al.allocate(_Count));
; 449  : 		}
; 450  : 
; 451  : 	static pointer allocate(_Alloc& _Al, size_type _Count,
; 452  : 		const_void_pointer _Hint)
; 453  : 		{	// allocate array of _Count elements, with hint
; 454  : 		return (_Alloc_allocate::_Fn(0, _Al, _Count, _Hint));
; 455  : 		}
; 456  : 
; 457  : 	static void deallocate(_Alloc& _Al,
; 458  : 		pointer _Ptr, size_type _Count)
; 459  : 		{	// deallocate _Count elements at _Ptr
; 460  : 		_Al.deallocate(_Ptr, _Count);
; 461  : 		}
; 462  : 
; 463  : 	template<class _Ty,
; 464  : 		class... _Types>
; 465  : 		static void construct(_Alloc& _Al, _Ty *_Ptr,
; 466  : 			_Types&&... _Args)
; 467  : 		{	// construct _Ty(_Types...) at _Ptr
; 468  : 		_Alloc_construct::_Fn(0, _Al, _Ptr,
; 469  : 			_STD forward<_Types>(_Args)...);
; 470  : 		}
; 471  : 
; 472  : 
; 473  : 	template<class _Ty>
; 474  : 		static void destroy(_Alloc& _Al, _Ty *_Ptr)
; 475  : 		{	// destroy object at _Ptr
; 476  : 		_Alloc_destroy::_Fn(0, _Al, _Ptr);
; 477  : 		}
; 478  : 
; 479  : 	static size_type max_size(const _Alloc& _Al)
; 480  : 		{	// get maximum size
; 481  : 		return (_Alloc_max_size::_Fn(0, _Al));
; 482  : 		}
; 483  : 
; 484  : 	static _Alloc select_on_container_copy_construction(
; 485  : 		const _Alloc& _Al)
; 486  : 		{	// get allocator to use
; 487  : 		return (_Alloc_select::_Fn(0, _Al));
; 488  : 		}
; 489  : 	};
; 490  : 
; 491  : 		// TEMPLATE CLASS _Allocator_base
; 492  : template<class _Ty>
; 493  : 	struct _Allocator_base
; 494  : 	{	// base class for generic allocators
; 495  : 	typedef _Ty value_type;
; 496  : 	};
; 497  : 
; 498  : 		// TEMPLATE CLASS _Allocator_base<const _Ty>
; 499  : template<class _Ty>
; 500  : 	struct _Allocator_base<const _Ty>
; 501  : 	{	// base class for generic allocators for const _Ty
; 502  : 	typedef _Ty value_type;
; 503  : 	};
; 504  : 
; 505  : 		// TEMPLATE CLASS allocator
; 506  : template<class _Ty>
; 507  : 	class allocator
; 508  : 		: public _Allocator_base<_Ty>
; 509  : 	{	// generic allocator for objects of class _Ty
; 510  : public:
; 511  : 	typedef allocator<_Ty> other;
; 512  : 
; 513  : 	typedef _Allocator_base<_Ty> _Mybase;
; 514  : 	typedef typename _Mybase::value_type value_type;
; 515  : 
; 516  : 	typedef value_type *pointer;
; 517  : 	typedef const value_type *const_pointer;
; 518  : 	typedef void *void_pointer;
; 519  : 	typedef const void *const_void_pointer;
; 520  : 
; 521  : 	typedef value_type& reference;
; 522  : 	typedef const value_type& const_reference;
; 523  : 
; 524  : 	typedef size_t size_type;
; 525  : 	typedef ptrdiff_t difference_type;
; 526  : 
; 527  : 	typedef false_type propagate_on_container_copy_assignment;
; 528  : 	typedef false_type propagate_on_container_move_assignment;
; 529  : 	typedef false_type propagate_on_container_swap;
; 530  : 
; 531  : 	allocator<_Ty> select_on_container_copy_construction() const
; 532  : 		{	// return this allocator
; 533  : 		return (*this);
; 534  : 		}
; 535  : 
; 536  : 	template<class _Other>
; 537  : 		struct rebind
; 538  : 		{	// convert this type to allocator<_Other>
; 539  : 		typedef allocator<_Other> other;
; 540  : 		};
; 541  : 
; 542  : 	pointer address(reference _Val) const _NOEXCEPT
; 543  : 		{	// return address of mutable _Val
; 544  : 		return (_STD addressof(_Val));
; 545  : 		}
; 546  : 
; 547  : 	const_pointer address(const_reference _Val) const _NOEXCEPT
; 548  : 		{	// return address of nonmutable _Val
; 549  : 		return (_STD addressof(_Val));
; 550  : 		}
; 551  : 
; 552  : 	allocator() _THROW0()
; 553  : 		{	// construct default allocator (do nothing)
; 554  : 		}
; 555  : 
; 556  : 	allocator(const allocator<_Ty>&) _THROW0()
; 557  : 		{	// construct by copying (do nothing)
; 558  : 		}
; 559  : 
; 560  : 	template<class _Other>
; 561  : 		allocator(const allocator<_Other>&) _THROW0()
; 562  : 		{	// construct from a related allocator (do nothing)
; 563  : 		}
; 564  : 
; 565  : 	template<class _Other>
; 566  : 		allocator<_Ty>& operator=(const allocator<_Other>&)
; 567  : 		{	// assign from a related allocator (do nothing)
; 568  : 		return (*this);
; 569  : 		}
; 570  : 
; 571  : 	void deallocate(pointer _Ptr, size_type)
; 572  : 		{	// deallocate object at _Ptr, ignore size
; 573  : 		::operator delete(_Ptr);

  0002e	ff 77 04	 push	 DWORD PTR [edi+4]
  00031	e8 00 00 00 00	 call	 ??3@YAXPAX@Z		; operator delete
  00036	83 c4 04	 add	 esp, 4
; File c:\program files (x86)\microsoft visual studio 12.0\vc\include\vector

; 1629 : 			this->_Myfirst = pointer();

  00039	c7 47 04 00 00
	00 00		 mov	 DWORD PTR [edi+4], 0

; 1630 : 			this->_Mylast = pointer();

  00040	c7 47 08 00 00
	00 00		 mov	 DWORD PTR [edi+8], 0

; 1631 : 			this->_Myend = pointer();

  00047	c7 47 0c 00 00
	00 00		 mov	 DWORD PTR [edi+12], 0
  0004e	5b		 pop	 ebx
$LN42@CPythonQue:
; File d:\metin2\metin2\client_source_clean\client_source_clean\source\eterbase\singleton.h

; 19   : 	{ 

  0004f	c7 07 00 00 00
	00		 mov	 DWORD PTR [edi], OFFSET ??_7?$CSingleton@VCPythonQuest@@@@6B@
  00055	5f		 pop	 edi

; 20   : 		assert(ms_singleton);
; 21   : 		ms_singleton = 0; 

  00056	c7 05 00 00 00
	00 00 00 00 00	 mov	 DWORD PTR ?ms_singleton@?$CSingleton@VCPythonQuest@@@@0PAVCPythonQuest@@A, 0 ; CSingleton<CPythonQuest>::ms_singleton
  00060	5e		 pop	 esi
; File d:\metin2\metin2\client_source_clean\client_source_clean\source\userinterface\pythonquest.cpp

; 167  : }

  00061	c3		 ret	 0
??1CPythonQuest@@UAE@XZ ENDP				; CPythonQuest::~CPythonQuest
_TEXT	ENDS
; Function compile flags: /Ogtp
; File d:\metin2\metin2\client_source_clean\client_source_clean\source\userinterface\pythonquest.cpp
; File d:\metin2\metin2\client_source_clean\client_source_clean\source\eterbase\singleton.h
; File c:\program files (x86)\microsoft visual studio 12.0\vc\include\vector
; File d:\metin2\metin2\client_source_clean\client_source_clean\source\userinterface\pythonquest.cpp
;	COMDAT ??0CPythonQuest@@QAE@XZ
_TEXT	SEGMENT
??0CPythonQuest@@QAE@XZ PROC				; CPythonQuest::CPythonQuest, COMDAT
; _this$ = ecx

; 160  : {

  00000	c7 01 00 00 00
	00		 mov	 DWORD PTR [ecx], OFFSET ??_7CPythonQuest@@6B@

; 162  : }

  00006	8b c1		 mov	 eax, ecx
; File d:\metin2\metin2\client_source_clean\client_source_clean\source\eterbase\singleton.h

; 15   : 		ms_singleton = (T*) ((int) this + offset);

  00008	89 0d 00 00 00
	00		 mov	 DWORD PTR ?ms_singleton@?$CSingleton@VCPythonQuest@@@@0PAVCPythonQuest@@A, ecx ; CSingleton<CPythonQuest>::ms_singleton
; File c:\program files (x86)\microsoft visual studio 12.0\vc\include\vector

; 482  : 		_Myfirst = pointer();

  0000e	c7 41 04 00 00
	00 00		 mov	 DWORD PTR [ecx+4], 0

; 483  : 		_Mylast = pointer();

  00015	c7 41 08 00 00
	00 00		 mov	 DWORD PTR [ecx+8], 0

; 484  : 		_Myend = pointer();

  0001c	c7 41 0c 00 00
	00 00		 mov	 DWORD PTR [ecx+12], 0
; File d:\metin2\metin2\client_source_clean\client_source_clean\source\userinterface\pythonquest.cpp

; 162  : }

  00023	c3		 ret	 0
??0CPythonQuest@@QAE@XZ ENDP				; CPythonQuest::CPythonQuest
_TEXT	ENDS
; Function compile flags: /Ogtp
; File d:\metin2\metin2\client_source_clean\client_source_clean\source\userinterface\pythonquest.cpp
; File c:\program files (x86)\microsoft visual studio 12.0\vc\include\xutility
; File d:\metin2\metin2\client_source_clean\client_source_clean\source\userinterface\pythonquest.cpp
;	COMDAT ?RegisterQuestInstance@CPythonQuest@@QAEXABUSQuestInstance@1@@Z
_TEXT	SEGMENT
_c_rQuestInstance$ = 8					; size = 4
?RegisterQuestInstance@CPythonQuest@@QAEXABUSQuestInstance@1@@Z PROC ; CPythonQuest::RegisterQuestInstance, COMDAT
; _this$ = ecx

; 5    : {

  00000	55		 push	 ebp
  00001	8b ec		 mov	 ebp, esp
  00003	56		 push	 esi

; 6    : 	DeleteQuestInstance(c_rQuestInstance.dwIndex);

  00004	8b 75 08	 mov	 esi, DWORD PTR _c_rQuestInstance$[ebp]
  00007	57		 push	 edi
  00008	8b f9		 mov	 edi, ecx
  0000a	ff 36		 push	 DWORD PTR [esi]
  0000c	e8 00 00 00 00	 call	 ?DeleteQuestInstance@CPythonQuest@@QAEXK@Z ; CPythonQuest::DeleteQuestInstance

; 7    : 	m_QuestInstanceContainer.push_back(c_rQuestInstance);

  00011	56		 push	 esi
  00012	8d 4f 04	 lea	 ecx, DWORD PTR [edi+4]
  00015	e8 00 00 00 00	 call	 ?push_back@?$vector@USQuestInstance@CPythonQuest@@V?$allocator@USQuestInstance@CPythonQuest@@@std@@@std@@QAEXABUSQuestInstance@CPythonQuest@@@Z ; std::vector<CPythonQuest::SQuestInstance,std::allocator<CPythonQuest::SQuestInstance> >::push_back

; 12   : 	rQuestInstance.iStartTime = int(CTimer::Instance().GetCurrentSecond());

  0001a	8b 0d 00 00 00
	00		 mov	 ecx, DWORD PTR ?ms_singleton@?$CSingleton@VCTimer@@@@0PAVCTimer@@A ; CSingleton<CTimer>::ms_singleton
; File c:\program files (x86)\microsoft visual studio 12.0\vc\include\xutility

; 835  : 		_RanIt _Tmp = current;

  00020	8b 77 08	 mov	 esi, DWORD PTR [edi+8]
; File d:\metin2\metin2\client_source_clean\client_source_clean\source\userinterface\pythonquest.cpp

; 12   : 	rQuestInstance.iStartTime = int(CTimer::Instance().GetCurrentSecond());

  00023	e8 00 00 00 00	 call	 ?GetCurrentSecond@CTimer@@QAEMXZ ; CTimer::GetCurrentSecond
  00028	e8 00 00 00 00	 call	 __ftol2_sse
  0002d	5f		 pop	 edi
  0002e	89 46 fc	 mov	 DWORD PTR [esi-4], eax
  00031	5e		 pop	 esi

; 13   : }

  00032	5d		 pop	 ebp
  00033	c2 04 00	 ret	 4
?RegisterQuestInstance@CPythonQuest@@QAEXABUSQuestInstance@1@@Z ENDP ; CPythonQuest::RegisterQuestInstance
_TEXT	ENDS
; Function compile flags: /Ogtp
; File d:\metin2\metin2\client_source_clean\client_source_clean\source\userinterface\pythonquest.cpp
;	COMDAT ?SetQuestCounterValue@CPythonQuest@@QAEXKH@Z
_TEXT	SEGMENT
_pQuestInstance$ = -4					; size = 4
_dwIndex$ = 8						; size = 4
_iCounterValue$ = 12					; size = 4
?SetQuestCounterValue@CPythonQuest@@QAEXKH@Z PROC	; CPythonQuest::SetQuestCounterValue, COMDAT
; _this$ = ecx

; 90   : {

  00000	55		 push	 ebp
  00001	8b ec		 mov	 ebp, esp
  00003	51		 push	 ecx

; 91   : 	SQuestInstance * pQuestInstance;
; 92   : 	if (!__GetQuestInstancePtr(dwIndex, &pQuestInstance))

  00004	8d 45 fc	 lea	 eax, DWORD PTR _pQuestInstance$[ebp]
  00007	50		 push	 eax
  00008	ff 75 08	 push	 DWORD PTR _dwIndex$[ebp]
  0000b	e8 00 00 00 00	 call	 ?__GetQuestInstancePtr@CPythonQuest@@IAE_NKPAPAUSQuestInstance@1@@Z ; CPythonQuest::__GetQuestInstancePtr
  00010	84 c0		 test	 al, al
  00012	74 09		 je	 SHORT $LN2@SetQuestCo

; 93   : 		return;
; 94   : 
; 95   : 	pQuestInstance->iCounterValue = iCounterValue;

  00014	8b 45 fc	 mov	 eax, DWORD PTR _pQuestInstance$[ebp]
  00017	8b 4d 0c	 mov	 ecx, DWORD PTR _iCounterValue$[ebp]
  0001a	89 48 68	 mov	 DWORD PTR [eax+104], ecx
$LN2@SetQuestCo:

; 96   : }

  0001d	8b e5		 mov	 esp, ebp
  0001f	5d		 pop	 ebp
  00020	c2 08 00	 ret	 8
?SetQuestCounterValue@CPythonQuest@@QAEXKH@Z ENDP	; CPythonQuest::SetQuestCounterValue
_TEXT	ENDS
; Function compile flags: /Ogtp
; File d:\metin2\metin2\client_source_clean\client_source_clean\source\userinterface\pythonquest.cpp
;	COMDAT ?SetQuestClockValue@CPythonQuest@@QAEXKH@Z
_TEXT	SEGMENT
_pQuestInstance$ = -4					; size = 4
_dwIndex$ = 8						; size = 4
_iClockValue$ = 12					; size = 4
?SetQuestClockValue@CPythonQuest@@QAEXKH@Z PROC		; CPythonQuest::SetQuestClockValue, COMDAT
; _this$ = ecx

; 80   : {

  00000	55		 push	 ebp
  00001	8b ec		 mov	 ebp, esp
  00003	51		 push	 ecx

; 81   : 	SQuestInstance * pQuestInstance;
; 82   : 	if (!__GetQuestInstancePtr(dwIndex, &pQuestInstance))

  00004	8d 45 fc	 lea	 eax, DWORD PTR _pQuestInstance$[ebp]
  00007	50		 push	 eax
  00008	ff 75 08	 push	 DWORD PTR _dwIndex$[ebp]
  0000b	e8 00 00 00 00	 call	 ?__GetQuestInstancePtr@CPythonQuest@@IAE_NKPAPAUSQuestInstance@1@@Z ; CPythonQuest::__GetQuestInstancePtr
  00010	84 c0		 test	 al, al
  00012	74 1e		 je	 SHORT $LN2@SetQuestCl

; 83   : 		return;
; 84   : 
; 85   : 	pQuestInstance->iClockValue = iClockValue;

  00014	8b 45 0c	 mov	 eax, DWORD PTR _iClockValue$[ebp]
  00017	56		 push	 esi
  00018	8b 75 fc	 mov	 esi, DWORD PTR _pQuestInstance$[ebp]
  0001b	89 46 64	 mov	 DWORD PTR [esi+100], eax

; 86   : 	pQuestInstance->iStartTime = int(CTimer::Instance().GetCurrentSecond());

  0001e	8b 0d 00 00 00
	00		 mov	 ecx, DWORD PTR ?ms_singleton@?$CSingleton@VCTimer@@@@0PAVCTimer@@A ; CSingleton<CTimer>::ms_singleton
  00024	e8 00 00 00 00	 call	 ?GetCurrentSecond@CTimer@@QAEMXZ ; CTimer::GetCurrentSecond
  00029	e8 00 00 00 00	 call	 __ftol2_sse
  0002e	89 46 6c	 mov	 DWORD PTR [esi+108], eax
  00031	5e		 pop	 esi
$LN2@SetQuestCl:

; 87   : }

  00032	8b e5		 mov	 esp, ebp
  00034	5d		 pop	 ebp
  00035	c2 08 00	 ret	 8
?SetQuestClockValue@CPythonQuest@@QAEXKH@Z ENDP		; CPythonQuest::SetQuestClockValue
_TEXT	ENDS
; Function compile flags: /Ogtp
; File d:\metin2\metin2\client_source_clean\client_source_clean\source\userinterface\pythonquest.cpp
; File c:\program files (x86)\microsoft visual studio 12.0\vc\include\iosfwd
; File d:\metin2\metin2\client_source_clean\client_source_clean\source\userinterface\pythonquest.cpp
; File c:\program files (x86)\microsoft visual studio 12.0\vc\include\iosfwd
; File c:\program files (x86)\microsoft visual studio 12.0\vc\include\xstring
; File d:\metin2\metin2\client_source_clean\client_source_clean\source\userinterface\pythonquest.cpp
; File c:\program files (x86)\microsoft visual studio 12.0\vc\include\iosfwd
; File c:\program files (x86)\microsoft visual studio 12.0\vc\include\xstring
; File d:\metin2\metin2\client_source_clean\client_source_clean\source\userinterface\pythonquest.cpp
;	COMDAT ?SetQuestIconFileName@CPythonQuest@@QAEXKPBD@Z
_TEXT	SEGMENT
_pQuestInstance$ = -4					; size = 4
_dwIndex$ = 8						; size = 4
_c_szIconFileName$ = 12					; size = 4
?SetQuestIconFileName@CPythonQuest@@QAEXKPBD@Z PROC	; CPythonQuest::SetQuestIconFileName, COMDAT
; _this$ = ecx

; 99   : {

  00000	55		 push	 ebp
  00001	8b ec		 mov	 ebp, esp
  00003	51		 push	 ecx

; 100  : 	SQuestInstance * pQuestInstance;
; 101  : 	if (!__GetQuestInstancePtr(dwIndex, &pQuestInstance))

  00004	8d 45 fc	 lea	 eax, DWORD PTR _pQuestInstance$[ebp]
  00007	50		 push	 eax
  00008	ff 75 08	 push	 DWORD PTR _dwIndex$[ebp]
  0000b	e8 00 00 00 00	 call	 ?__GetQuestInstancePtr@CPythonQuest@@IAE_NKPAPAUSQuestInstance@1@@Z ; CPythonQuest::__GetQuestInstancePtr
  00010	84 c0		 test	 al, al
  00012	74 41		 je	 SHORT $LN4@SetQuestIc
; File c:\program files (x86)\microsoft visual studio 12.0\vc\include\iosfwd

; 523  : 			: _CSTD strlen(_First));

  00014	8b 55 0c	 mov	 edx, DWORD PTR _c_szIconFileName$[ebp]
  00017	56		 push	 esi
; File d:\metin2\metin2\client_source_clean\client_source_clean\source\userinterface\pythonquest.cpp

; 104  : 	pQuestInstance->strIconFileName = c_szIconFileName;

  00018	8b 75 fc	 mov	 esi, DWORD PTR _pQuestInstance$[ebp]
; File c:\program files (x86)\microsoft visual studio 12.0\vc\include\iosfwd

; 523  : 			: _CSTD strlen(_First));

  0001b	80 3a 00	 cmp	 BYTE PTR [edx], 0
  0001e	75 13		 jne	 SHORT $LN10@SetQuestIc
  00020	33 c9		 xor	 ecx, ecx
; File c:\program files (x86)\microsoft visual studio 12.0\vc\include\xstring

; 1169 : 		return (assign(_Ptr, _Traits::length(_Ptr)));

  00022	51		 push	 ecx
  00023	52		 push	 edx
  00024	8d 4e 04	 lea	 ecx, DWORD PTR [esi+4]
  00027	e8 00 00 00 00	 call	 ?assign@?$basic_string@DU?$char_traits@D@std@@V?$allocator@D@2@@std@@QAEAAV12@PBDI@Z ; std::basic_string<char,std::char_traits<char>,std::allocator<char> >::assign
  0002c	5e		 pop	 esi
; File d:\metin2\metin2\client_source_clean\client_source_clean\source\userinterface\pythonquest.cpp

; 105  : }

  0002d	8b e5		 mov	 esp, ebp
  0002f	5d		 pop	 ebp
  00030	c2 08 00	 ret	 8
$LN10@SetQuestIc:
; File c:\program files (x86)\microsoft visual studio 12.0\vc\include\iosfwd

; 523  : 			: _CSTD strlen(_First));

  00033	8b ca		 mov	 ecx, edx
  00035	57		 push	 edi
  00036	8d 79 01	 lea	 edi, DWORD PTR [ecx+1]
  00039	8d a4 24 00 00
	00 00		 npad	 7
$LL12@SetQuestIc:
  00040	8a 01		 mov	 al, BYTE PTR [ecx]
  00042	41		 inc	 ecx
  00043	84 c0		 test	 al, al
  00045	75 f9		 jne	 SHORT $LL12@SetQuestIc
  00047	2b cf		 sub	 ecx, edi
  00049	5f		 pop	 edi
; File c:\program files (x86)\microsoft visual studio 12.0\vc\include\xstring

; 1169 : 		return (assign(_Ptr, _Traits::length(_Ptr)));

  0004a	51		 push	 ecx
  0004b	52		 push	 edx
  0004c	8d 4e 04	 lea	 ecx, DWORD PTR [esi+4]
  0004f	e8 00 00 00 00	 call	 ?assign@?$basic_string@DU?$char_traits@D@std@@V?$allocator@D@2@@std@@QAEAAV12@PBDI@Z ; std::basic_string<char,std::char_traits<char>,std::allocator<char> >::assign
  00054	5e		 pop	 esi
$LN4@SetQuestIc:
; File d:\metin2\metin2\client_source_clean\client_source_clean\source\userinterface\pythonquest.cpp

; 105  : }

  00055	8b e5		 mov	 esp, ebp
  00057	5d		 pop	 ebp
  00058	c2 08 00	 ret	 8
?SetQuestIconFileName@CPythonQuest@@QAEXKPBD@Z ENDP	; CPythonQuest::SetQuestIconFileName
_TEXT	ENDS
; Function compile flags: /Ogtp
; File d:\metin2\metin2\client_source_clean\client_source_clean\source\userinterface\pythonquest.cpp
; File c:\program files (x86)\microsoft visual studio 12.0\vc\include\iosfwd
; File d:\metin2\metin2\client_source_clean\client_source_clean\source\userinterface\pythonquest.cpp
; File c:\program files (x86)\microsoft visual studio 12.0\vc\include\iosfwd
; File c:\program files (x86)\microsoft visual studio 12.0\vc\include\xstring
; File d:\metin2\metin2\client_source_clean\client_source_clean\source\userinterface\pythonquest.cpp
; File c:\program files (x86)\microsoft visual studio 12.0\vc\include\iosfwd
; File c:\program files (x86)\microsoft visual studio 12.0\vc\include\xstring
; File d:\metin2\metin2\client_source_clean\client_source_clean\source\userinterface\pythonquest.cpp
;	COMDAT ?SetQuestCounterName@CPythonQuest@@QAEXKPBD@Z
_TEXT	SEGMENT
_pQuestInstance$ = -4					; size = 4
_dwIndex$ = 8						; size = 4
_c_szCounterName$ = 12					; size = 4
?SetQuestCounterName@CPythonQuest@@QAEXKPBD@Z PROC	; CPythonQuest::SetQuestCounterName, COMDAT
; _this$ = ecx

; 71   : {

  00000	55		 push	 ebp
  00001	8b ec		 mov	 ebp, esp
  00003	51		 push	 ecx

; 72   : 	SQuestInstance * pQuestInstance;
; 73   : 	if (!__GetQuestInstancePtr(dwIndex, &pQuestInstance))

  00004	8d 45 fc	 lea	 eax, DWORD PTR _pQuestInstance$[ebp]
  00007	50		 push	 eax
  00008	ff 75 08	 push	 DWORD PTR _dwIndex$[ebp]
  0000b	e8 00 00 00 00	 call	 ?__GetQuestInstancePtr@CPythonQuest@@IAE_NKPAPAUSQuestInstance@1@@Z ; CPythonQuest::__GetQuestInstancePtr
  00010	84 c0		 test	 al, al
  00012	74 41		 je	 SHORT $LN4@SetQuestCo
; File c:\program files (x86)\microsoft visual studio 12.0\vc\include\iosfwd

; 523  : 			: _CSTD strlen(_First));

  00014	8b 55 0c	 mov	 edx, DWORD PTR _c_szCounterName$[ebp]
  00017	56		 push	 esi
; File d:\metin2\metin2\client_source_clean\client_source_clean\source\userinterface\pythonquest.cpp

; 76   : 	pQuestInstance->strCounterName = c_szCounterName;

  00018	8b 75 fc	 mov	 esi, DWORD PTR _pQuestInstance$[ebp]
; File c:\program files (x86)\microsoft visual studio 12.0\vc\include\iosfwd

; 523  : 			: _CSTD strlen(_First));

  0001b	80 3a 00	 cmp	 BYTE PTR [edx], 0
  0001e	75 13		 jne	 SHORT $LN10@SetQuestCo
  00020	33 c9		 xor	 ecx, ecx
; File c:\program files (x86)\microsoft visual studio 12.0\vc\include\xstring

; 1169 : 		return (assign(_Ptr, _Traits::length(_Ptr)));

  00022	51		 push	 ecx
  00023	52		 push	 edx
  00024	8d 4e 4c	 lea	 ecx, DWORD PTR [esi+76]
  00027	e8 00 00 00 00	 call	 ?assign@?$basic_string@DU?$char_traits@D@std@@V?$allocator@D@2@@std@@QAEAAV12@PBDI@Z ; std::basic_string<char,std::char_traits<char>,std::allocator<char> >::assign
  0002c	5e		 pop	 esi
; File d:\metin2\metin2\client_source_clean\client_source_clean\source\userinterface\pythonquest.cpp

; 77   : }

  0002d	8b e5		 mov	 esp, ebp
  0002f	5d		 pop	 ebp
  00030	c2 08 00	 ret	 8
$LN10@SetQuestCo:
; File c:\program files (x86)\microsoft visual studio 12.0\vc\include\iosfwd

; 523  : 			: _CSTD strlen(_First));

  00033	8b ca		 mov	 ecx, edx
  00035	57		 push	 edi
  00036	8d 79 01	 lea	 edi, DWORD PTR [ecx+1]
  00039	8d a4 24 00 00
	00 00		 npad	 7
$LL12@SetQuestCo:
  00040	8a 01		 mov	 al, BYTE PTR [ecx]
  00042	41		 inc	 ecx
  00043	84 c0		 test	 al, al
  00045	75 f9		 jne	 SHORT $LL12@SetQuestCo
  00047	2b cf		 sub	 ecx, edi
  00049	5f		 pop	 edi
; File c:\program files (x86)\microsoft visual studio 12.0\vc\include\xstring

; 1169 : 		return (assign(_Ptr, _Traits::length(_Ptr)));

  0004a	51		 push	 ecx
  0004b	52		 push	 edx
  0004c	8d 4e 4c	 lea	 ecx, DWORD PTR [esi+76]
  0004f	e8 00 00 00 00	 call	 ?assign@?$basic_string@DU?$char_traits@D@std@@V?$allocator@D@2@@std@@QAEAAV12@PBDI@Z ; std::basic_string<char,std::char_traits<char>,std::allocator<char> >::assign
  00054	5e		 pop	 esi
$LN4@SetQuestCo:
; File d:\metin2\metin2\client_source_clean\client_source_clean\source\userinterface\pythonquest.cpp

; 77   : }

  00055	8b e5		 mov	 esp, ebp
  00057	5d		 pop	 ebp
  00058	c2 08 00	 ret	 8
?SetQuestCounterName@CPythonQuest@@QAEXKPBD@Z ENDP	; CPythonQuest::SetQuestCounterName
_TEXT	ENDS
; Function compile flags: /Ogtp
; File d:\metin2\metin2\client_source_clean\client_source_clean\source\userinterface\pythonquest.cpp
; File c:\program files (x86)\microsoft visual studio 12.0\vc\include\iosfwd
; File d:\metin2\metin2\client_source_clean\client_source_clean\source\userinterface\pythonquest.cpp
; File c:\program files (x86)\microsoft visual studio 12.0\vc\include\iosfwd
; File c:\program files (x86)\microsoft visual studio 12.0\vc\include\xstring
; File d:\metin2\metin2\client_source_clean\client_source_clean\source\userinterface\pythonquest.cpp
; File c:\program files (x86)\microsoft visual studio 12.0\vc\include\iosfwd
; File c:\program files (x86)\microsoft visual studio 12.0\vc\include\xstring
; File d:\metin2\metin2\client_source_clean\client_source_clean\source\userinterface\pythonquest.cpp
;	COMDAT ?SetQuestClockName@CPythonQuest@@QAEXKPBD@Z
_TEXT	SEGMENT
_pQuestInstance$ = -4					; size = 4
_dwIndex$ = 8						; size = 4
_c_szClockName$ = 12					; size = 4
?SetQuestClockName@CPythonQuest@@QAEXKPBD@Z PROC	; CPythonQuest::SetQuestClockName, COMDAT
; _this$ = ecx

; 62   : {

  00000	55		 push	 ebp
  00001	8b ec		 mov	 ebp, esp
  00003	51		 push	 ecx

; 63   : 	SQuestInstance * pQuestInstance;
; 64   : 	if (!__GetQuestInstancePtr(dwIndex, &pQuestInstance))

  00004	8d 45 fc	 lea	 eax, DWORD PTR _pQuestInstance$[ebp]
  00007	50		 push	 eax
  00008	ff 75 08	 push	 DWORD PTR _dwIndex$[ebp]
  0000b	e8 00 00 00 00	 call	 ?__GetQuestInstancePtr@CPythonQuest@@IAE_NKPAPAUSQuestInstance@1@@Z ; CPythonQuest::__GetQuestInstancePtr
  00010	84 c0		 test	 al, al
  00012	74 41		 je	 SHORT $LN4@SetQuestCl
; File c:\program files (x86)\microsoft visual studio 12.0\vc\include\iosfwd

; 523  : 			: _CSTD strlen(_First));

  00014	8b 55 0c	 mov	 edx, DWORD PTR _c_szClockName$[ebp]
  00017	56		 push	 esi
; File d:\metin2\metin2\client_source_clean\client_source_clean\source\userinterface\pythonquest.cpp

; 67   : 	pQuestInstance->strClockName = c_szClockName;

  00018	8b 75 fc	 mov	 esi, DWORD PTR _pQuestInstance$[ebp]
; File c:\program files (x86)\microsoft visual studio 12.0\vc\include\iosfwd

; 523  : 			: _CSTD strlen(_First));

  0001b	80 3a 00	 cmp	 BYTE PTR [edx], 0
  0001e	75 13		 jne	 SHORT $LN10@SetQuestCl
  00020	33 c9		 xor	 ecx, ecx
; File c:\program files (x86)\microsoft visual studio 12.0\vc\include\xstring

; 1169 : 		return (assign(_Ptr, _Traits::length(_Ptr)));

  00022	51		 push	 ecx
  00023	52		 push	 edx
  00024	8d 4e 34	 lea	 ecx, DWORD PTR [esi+52]
  00027	e8 00 00 00 00	 call	 ?assign@?$basic_string@DU?$char_traits@D@std@@V?$allocator@D@2@@std@@QAEAAV12@PBDI@Z ; std::basic_string<char,std::char_traits<char>,std::allocator<char> >::assign
  0002c	5e		 pop	 esi
; File d:\metin2\metin2\client_source_clean\client_source_clean\source\userinterface\pythonquest.cpp

; 68   : }

  0002d	8b e5		 mov	 esp, ebp
  0002f	5d		 pop	 ebp
  00030	c2 08 00	 ret	 8
$LN10@SetQuestCl:
; File c:\program files (x86)\microsoft visual studio 12.0\vc\include\iosfwd

; 523  : 			: _CSTD strlen(_First));

  00033	8b ca		 mov	 ecx, edx
  00035	57		 push	 edi
  00036	8d 79 01	 lea	 edi, DWORD PTR [ecx+1]
  00039	8d a4 24 00 00
	00 00		 npad	 7
$LL12@SetQuestCl:
  00040	8a 01		 mov	 al, BYTE PTR [ecx]
  00042	41		 inc	 ecx
  00043	84 c0		 test	 al, al
  00045	75 f9		 jne	 SHORT $LL12@SetQuestCl
  00047	2b cf		 sub	 ecx, edi
  00049	5f		 pop	 edi
; File c:\program files (x86)\microsoft visual studio 12.0\vc\include\xstring

; 1169 : 		return (assign(_Ptr, _Traits::length(_Ptr)));

  0004a	51		 push	 ecx
  0004b	52		 push	 edx
  0004c	8d 4e 34	 lea	 ecx, DWORD PTR [esi+52]
  0004f	e8 00 00 00 00	 call	 ?assign@?$basic_string@DU?$char_traits@D@std@@V?$allocator@D@2@@std@@QAEAAV12@PBDI@Z ; std::basic_string<char,std::char_traits<char>,std::allocator<char> >::assign
  00054	5e		 pop	 esi
$LN4@SetQuestCl:
; File d:\metin2\metin2\client_source_clean\client_source_clean\source\userinterface\pythonquest.cpp

; 68   : }

  00055	8b e5		 mov	 esp, ebp
  00057	5d		 pop	 ebp
  00058	c2 08 00	 ret	 8
?SetQuestClockName@CPythonQuest@@QAEXKPBD@Z ENDP	; CPythonQuest::SetQuestClockName
_TEXT	ENDS
; Function compile flags: /Ogtp
; File d:\metin2\metin2\client_source_clean\client_source_clean\source\userinterface\pythonquest.cpp
; File c:\program files (x86)\microsoft visual studio 12.0\vc\include\iosfwd
; File d:\metin2\metin2\client_source_clean\client_source_clean\source\userinterface\pythonquest.cpp
; File c:\program files (x86)\microsoft visual studio 12.0\vc\include\iosfwd
; File c:\program files (x86)\microsoft visual studio 12.0\vc\include\xstring
; File d:\metin2\metin2\client_source_clean\client_source_clean\source\userinterface\pythonquest.cpp
; File c:\program files (x86)\microsoft visual studio 12.0\vc\include\iosfwd
; File c:\program files (x86)\microsoft visual studio 12.0\vc\include\xstring
; File d:\metin2\metin2\client_source_clean\client_source_clean\source\userinterface\pythonquest.cpp
;	COMDAT ?SetQuestTitle@CPythonQuest@@QAEXKPBD@Z
_TEXT	SEGMENT
_pQuestInstance$ = -4					; size = 4
_dwIndex$ = 8						; size = 4
_c_szTitle$ = 12					; size = 4
?SetQuestTitle@CPythonQuest@@QAEXKPBD@Z PROC		; CPythonQuest::SetQuestTitle, COMDAT
; _this$ = ecx

; 53   : {

  00000	55		 push	 ebp
  00001	8b ec		 mov	 ebp, esp
  00003	51		 push	 ecx

; 54   : 	SQuestInstance * pQuestInstance;
; 55   : 	if (!__GetQuestInstancePtr(dwIndex, &pQuestInstance))

  00004	8d 45 fc	 lea	 eax, DWORD PTR _pQuestInstance$[ebp]
  00007	50		 push	 eax
  00008	ff 75 08	 push	 DWORD PTR _dwIndex$[ebp]
  0000b	e8 00 00 00 00	 call	 ?__GetQuestInstancePtr@CPythonQuest@@IAE_NKPAPAUSQuestInstance@1@@Z ; CPythonQuest::__GetQuestInstancePtr
  00010	84 c0		 test	 al, al
  00012	74 41		 je	 SHORT $LN4@SetQuestTi
; File c:\program files (x86)\microsoft visual studio 12.0\vc\include\iosfwd

; 523  : 			: _CSTD strlen(_First));

  00014	8b 55 0c	 mov	 edx, DWORD PTR _c_szTitle$[ebp]
  00017	56		 push	 esi
; File d:\metin2\metin2\client_source_clean\client_source_clean\source\userinterface\pythonquest.cpp

; 58   : 	pQuestInstance->strTitle = c_szTitle;

  00018	8b 75 fc	 mov	 esi, DWORD PTR _pQuestInstance$[ebp]
; File c:\program files (x86)\microsoft visual studio 12.0\vc\include\iosfwd

; 523  : 			: _CSTD strlen(_First));

  0001b	80 3a 00	 cmp	 BYTE PTR [edx], 0
  0001e	75 13		 jne	 SHORT $LN10@SetQuestTi
  00020	33 c9		 xor	 ecx, ecx
; File c:\program files (x86)\microsoft visual studio 12.0\vc\include\xstring

; 1169 : 		return (assign(_Ptr, _Traits::length(_Ptr)));

  00022	51		 push	 ecx
  00023	52		 push	 edx
  00024	8d 4e 1c	 lea	 ecx, DWORD PTR [esi+28]
  00027	e8 00 00 00 00	 call	 ?assign@?$basic_string@DU?$char_traits@D@std@@V?$allocator@D@2@@std@@QAEAAV12@PBDI@Z ; std::basic_string<char,std::char_traits<char>,std::allocator<char> >::assign
  0002c	5e		 pop	 esi
; File d:\metin2\metin2\client_source_clean\client_source_clean\source\userinterface\pythonquest.cpp

; 59   : }

  0002d	8b e5		 mov	 esp, ebp
  0002f	5d		 pop	 ebp
  00030	c2 08 00	 ret	 8
$LN10@SetQuestTi:
; File c:\program files (x86)\microsoft visual studio 12.0\vc\include\iosfwd

; 523  : 			: _CSTD strlen(_First));

  00033	8b ca		 mov	 ecx, edx
  00035	57		 push	 edi
  00036	8d 79 01	 lea	 edi, DWORD PTR [ecx+1]
  00039	8d a4 24 00 00
	00 00		 npad	 7
$LL12@SetQuestTi:
  00040	8a 01		 mov	 al, BYTE PTR [ecx]
  00042	41		 inc	 ecx
  00043	84 c0		 test	 al, al
  00045	75 f9		 jne	 SHORT $LL12@SetQuestTi
  00047	2b cf		 sub	 ecx, edi
  00049	5f		 pop	 edi
; File c:\program files (x86)\microsoft visual studio 12.0\vc\include\xstring

; 1169 : 		return (assign(_Ptr, _Traits::length(_Ptr)));

  0004a	51		 push	 ecx
  0004b	52		 push	 edx
  0004c	8d 4e 1c	 lea	 ecx, DWORD PTR [esi+28]
  0004f	e8 00 00 00 00	 call	 ?assign@?$basic_string@DU?$char_traits@D@std@@V?$allocator@D@2@@std@@QAEAAV12@PBDI@Z ; std::basic_string<char,std::char_traits<char>,std::allocator<char> >::assign
  00054	5e		 pop	 esi
$LN4@SetQuestTi:
; File d:\metin2\metin2\client_source_clean\client_source_clean\source\userinterface\pythonquest.cpp

; 59   : }

  00055	8b e5		 mov	 esp, ebp
  00057	5d		 pop	 ebp
  00058	c2 08 00	 ret	 8
?SetQuestTitle@CPythonQuest@@QAEXKPBD@Z ENDP		; CPythonQuest::SetQuestTitle
_TEXT	ENDS
; Function compile flags: /Ogtp
; File d:\metin2\metin2\client_source_clean\client_source_clean\source\userinterface\pythonquest.cpp
; File c:\program files (x86)\microsoft visual studio 12.0\vc\include\vector
; File d:\metin2\metin2\client_source_clean\client_source_clean\source\userinterface\pythonquest.cpp
;	COMDAT ?MakeQuest@CPythonQuest@@QAEXK@Z
_TEXT	SEGMENT
$T2 = -132						; size = 112
__$ArrayPad$ = -20					; size = 4
__$EHRec$ = -12						; size = 12
_dwIndex$ = 8						; size = 4
?MakeQuest@CPythonQuest@@QAEXK@Z PROC			; CPythonQuest::MakeQuest, COMDAT
; _this$ = ecx

; 41   : {

  00000	55		 push	 ebp
  00001	8b ec		 mov	 ebp, esp
  00003	6a ff		 push	 -1
  00005	68 00 00 00 00	 push	 __ehhandler$?MakeQuest@CPythonQuest@@QAEXK@Z
  0000a	64 a1 00 00 00
	00		 mov	 eax, DWORD PTR fs:0
  00010	50		 push	 eax
  00011	83 ec 7c	 sub	 esp, 124		; 0000007cH
  00014	a1 00 00 00 00	 mov	 eax, DWORD PTR ___security_cookie
  00019	33 c5		 xor	 eax, ebp
  0001b	89 45 ec	 mov	 DWORD PTR __$ArrayPad$[ebp], eax
  0001e	56		 push	 esi
  0001f	57		 push	 edi
  00020	50		 push	 eax
  00021	8d 45 f4	 lea	 eax, DWORD PTR __$EHRec$[ebp]
  00024	64 a3 00 00 00
	00		 mov	 DWORD PTR fs:0, eax
  0002a	8b f1		 mov	 esi, ecx

; 42   : 	DeleteQuestInstance(dwIndex);

  0002c	8b 7d 08	 mov	 edi, DWORD PTR _dwIndex$[ebp]
  0002f	57		 push	 edi
  00030	e8 00 00 00 00	 call	 ?DeleteQuestInstance@CPythonQuest@@QAEXK@Z ; CPythonQuest::DeleteQuestInstance

; 43   : 	m_QuestInstanceContainer.push_back(SQuestInstance());

  00035	8d 8d 7c ff ff
	ff		 lea	 ecx, DWORD PTR $T2[ebp]
  0003b	e8 00 00 00 00	 call	 ??0SQuestInstance@CPythonQuest@@QAE@XZ ; CPythonQuest::SQuestInstance::SQuestInstance
  00040	50		 push	 eax
  00041	8d 4e 04	 lea	 ecx, DWORD PTR [esi+4]
  00044	c7 45 fc 00 00
	00 00		 mov	 DWORD PTR __$EHRec$[ebp+8], 0
  0004b	e8 00 00 00 00	 call	 ?push_back@?$vector@USQuestInstance@CPythonQuest@@V?$allocator@USQuestInstance@CPythonQuest@@@std@@@std@@QAEX$$QAUSQuestInstance@CPythonQuest@@@Z ; std::vector<CPythonQuest::SQuestInstance,std::allocator<CPythonQuest::SQuestInstance> >::push_back
  00050	8d 8d 7c ff ff
	ff		 lea	 ecx, DWORD PTR $T2[ebp]
  00056	c7 45 fc ff ff
	ff ff		 mov	 DWORD PTR __$EHRec$[ebp+8], -1
  0005d	e8 00 00 00 00	 call	 ??1SQuestInstance@CPythonQuest@@QAE@XZ
; File c:\program files (x86)\microsoft visual studio 12.0\vc\include\vector

; 141  : 		--this->_Ptr;

  00062	8b 76 08	 mov	 esi, DWORD PTR [esi+8]
; File d:\metin2\metin2\client_source_clean\client_source_clean\source\userinterface\pythonquest.cpp

; 48   : 	rQuestInstance.dwIndex = dwIndex;

  00065	89 7e 90	 mov	 DWORD PTR [esi-112], edi

; 49   : 	rQuestInstance.iStartTime = int(CTimer::Instance().GetCurrentSecond());

  00068	8b 0d 00 00 00
	00		 mov	 ecx, DWORD PTR ?ms_singleton@?$CSingleton@VCTimer@@@@0PAVCTimer@@A ; CSingleton<CTimer>::ms_singleton
  0006e	e8 00 00 00 00	 call	 ?GetCurrentSecond@CTimer@@QAEMXZ ; CTimer::GetCurrentSecond
  00073	e8 00 00 00 00	 call	 __ftol2_sse
  00078	89 46 fc	 mov	 DWORD PTR [esi-4], eax

; 50   : }

  0007b	8b 4d f4	 mov	 ecx, DWORD PTR __$EHRec$[ebp]
  0007e	64 89 0d 00 00
	00 00		 mov	 DWORD PTR fs:0, ecx
  00085	59		 pop	 ecx
  00086	5f		 pop	 edi
  00087	5e		 pop	 esi
  00088	8b 4d ec	 mov	 ecx, DWORD PTR __$ArrayPad$[ebp]
  0008b	33 cd		 xor	 ecx, ebp
  0008d	e8 00 00 00 00	 call	 @__security_check_cookie@4
  00092	8b e5		 mov	 esp, ebp
  00094	5d		 pop	 ebp
  00095	c2 04 00	 ret	 4
_TEXT	ENDS
;	COMDAT text$x
text$x	SEGMENT
__unwindfunclet$?MakeQuest@CPythonQuest@@QAEXK@Z$0:
  00000	8d 8d 7c ff ff
	ff		 lea	 ecx, DWORD PTR $T2[ebp]
  00006	e9 00 00 00 00	 jmp	 ??1SQuestInstance@CPythonQuest@@QAE@XZ
__ehhandler$?MakeQuest@CPythonQuest@@QAEXK@Z:
  0000b	8b 54 24 08	 mov	 edx, DWORD PTR [esp+8]
  0000f	8d 42 0c	 lea	 eax, DWORD PTR [edx+12]
  00012	8b 8a 78 ff ff
	ff		 mov	 ecx, DWORD PTR [edx-136]
  00018	33 c8		 xor	 ecx, eax
  0001a	e8 00 00 00 00	 call	 @__security_check_cookie@4
  0001f	8b 4a f8	 mov	 ecx, DWORD PTR [edx-8]
  00022	33 c8		 xor	 ecx, eax
  00024	e8 00 00 00 00	 call	 @__security_check_cookie@4
  00029	b8 00 00 00 00	 mov	 eax, OFFSET __ehfuncinfo$?MakeQuest@CPythonQuest@@QAEXK@Z
  0002e	e9 00 00 00 00	 jmp	 ___CxxFrameHandler3
text$x	ENDS
?MakeQuest@CPythonQuest@@QAEXK@Z ENDP			; CPythonQuest::MakeQuest
; Function compile flags: /Ogtp
; File d:\metin2\metin2\client_source_clean\client_source_clean\source\userinterface\pythonquest.cpp
; File c:\program files (x86)\microsoft visual studio 12.0\vc\include\vector
; File c:\program files (x86)\microsoft visual studio 12.0\vc\include\algorithm
; File d:\metin2\metin2\client_source_clean\client_source_clean\source\userinterface\pythonquest.cpp
; File c:\program files (x86)\microsoft visual studio 12.0\vc\include\algorithm
; File c:\program files (x86)\microsoft visual studio 12.0\vc\include\vector
; File d:\metin2\metin2\client_source_clean\client_source_clean\source\userinterface\pythonquest.cpp
;	COMDAT ?IsQuest@CPythonQuest@@QAE_NK@Z
_TEXT	SEGMENT
_dwIndex$ = 8						; size = 4
?IsQuest@CPythonQuest@@QAE_NK@Z PROC			; CPythonQuest::IsQuest, COMDAT
; _this$ = ecx

; 35   : {

  00000	55		 push	 ebp
  00001	8b ec		 mov	 ebp, esp
; File c:\program files (x86)\microsoft visual studio 12.0\vc\include\vector

; 396  : 	return (_Iter._Unchecked());

  00003	8b 51 08	 mov	 edx, DWORD PTR [ecx+8]
; File c:\program files (x86)\microsoft visual studio 12.0\vc\include\algorithm

; 56   : 		_Find_if(_Unchecked(_First), _Unchecked(_Last), _Pred)));

  00006	8b 49 04	 mov	 ecx, DWORD PTR [ecx+4]

; 43   : 	for (; _First != _Last; ++_First)

  00009	3b ca		 cmp	 ecx, edx
  0000b	74 0e		 je	 SHORT $LN58@IsQuest
  0000d	8b 45 08	 mov	 eax, DWORD PTR _dwIndex$[ebp]
$LL34@IsQuest:
; File d:\metin2\metin2\client_source_clean\client_source_clean\source\userinterface\pythonquest.cpp

; 21   : 		return dwSearchIndex == rQuestInstance.dwIndex;

  00010	3b 01		 cmp	 eax, DWORD PTR [ecx]
; File c:\program files (x86)\microsoft visual studio 12.0\vc\include\algorithm

; 44   : 		if (_Pred(*_First))

  00012	74 07		 je	 SHORT $LN58@IsQuest

; 43   : 	for (; _First != _Last; ++_First)

  00014	83 c1 70	 add	 ecx, 112		; 00000070H
  00017	3b ca		 cmp	 ecx, edx
  00019	75 f5		 jne	 SHORT $LL34@IsQuest
$LN58@IsQuest:
; File c:\program files (x86)\microsoft visual studio 12.0\vc\include\vector

; 210  : 		return (!(*this == _Right));

  0001b	33 c0		 xor	 eax, eax

; 205  : 		return (this->_Ptr == _Right._Ptr);

  0001d	3b ca		 cmp	 ecx, edx

; 210  : 		return (!(*this == _Right));

  0001f	0f 95 c0	 setne	 al
; File d:\metin2\metin2\client_source_clean\client_source_clean\source\userinterface\pythonquest.cpp

; 38   : }

  00022	5d		 pop	 ebp
  00023	c2 04 00	 ret	 4
?IsQuest@CPythonQuest@@QAE_NK@Z ENDP			; CPythonQuest::IsQuest
_TEXT	ENDS
; Function compile flags: /Ogtp
; File d:\metin2\metin2\client_source_clean\client_source_clean\source\userinterface\pythonquest.cpp
; File c:\program files (x86)\microsoft visual studio 12.0\vc\include\vector
; File c:\program files (x86)\microsoft visual studio 12.0\vc\include\algorithm
; File d:\metin2\metin2\client_source_clean\client_source_clean\source\userinterface\pythonquest.cpp
; File c:\program files (x86)\microsoft visual studio 12.0\vc\include\algorithm
; File c:\program files (x86)\microsoft visual studio 12.0\vc\include\vector
; File d:\metin2\metin2\client_source_clean\client_source_clean\source\userinterface\pythonquest.cpp
; File c:\program files (x86)\microsoft visual studio 12.0\vc\include\xutility
; File c:\program files (x86)\microsoft visual studio 12.0\vc\include\vector
; File c:\program files (x86)\microsoft visual studio 12.0\vc\include\xutility
; File c:\program files (x86)\microsoft visual studio 12.0\vc\include\vector
; File c:\program files (x86)\microsoft visual studio 12.0\vc\include\xutility
; File c:\program files (x86)\microsoft visual studio 12.0\vc\include\vector
; File c:\program files (x86)\microsoft visual studio 12.0\vc\include\xmemory0
; File c:\program files (x86)\microsoft visual studio 12.0\vc\include\vector
; File d:\metin2\metin2\client_source_clean\client_source_clean\source\userinterface\pythonquest.cpp
;	COMDAT ?DeleteQuestInstance@CPythonQuest@@QAEXK@Z
_TEXT	SEGMENT
__Cat$1 = 8						; size = 1
_dwIndex$ = 8						; size = 4
?DeleteQuestInstance@CPythonQuest@@QAEXK@Z PROC		; CPythonQuest::DeleteQuestInstance, COMDAT
; _this$ = ecx

; 26   : {

  00000	55		 push	 ebp
  00001	8b ec		 mov	 ebp, esp
  00003	53		 push	 ebx
  00004	8b d9		 mov	 ebx, ecx
; File c:\program files (x86)\microsoft visual studio 12.0\vc\include\vector

; 396  : 	return (_Iter._Unchecked());

  00006	8b 53 08	 mov	 edx, DWORD PTR [ebx+8]
; File c:\program files (x86)\microsoft visual studio 12.0\vc\include\algorithm

; 56   : 		_Find_if(_Unchecked(_First), _Unchecked(_Last), _Pred)));

  00009	8b 43 04	 mov	 eax, DWORD PTR [ebx+4]

; 43   : 	for (; _First != _Last; ++_First)

  0000c	3b c2		 cmp	 eax, edx
  0000e	74 44		 je	 SHORT $LN88@DeleteQues
  00010	8b 4d 08	 mov	 ecx, DWORD PTR _dwIndex$[ebp]
$LL35@DeleteQues:
; File d:\metin2\metin2\client_source_clean\client_source_clean\source\userinterface\pythonquest.cpp

; 21   : 		return dwSearchIndex == rQuestInstance.dwIndex;

  00013	3b 08		 cmp	 ecx, DWORD PTR [eax]
; File c:\program files (x86)\microsoft visual studio 12.0\vc\include\algorithm

; 44   : 		if (_Pred(*_First))

  00015	74 07		 je	 SHORT $LN99@DeleteQues

; 43   : 	for (; _First != _Last; ++_First)

  00017	83 c0 70	 add	 eax, 112		; 00000070H
  0001a	3b c2		 cmp	 eax, edx
  0001c	75 f5		 jne	 SHORT $LL35@DeleteQues
$LN99@DeleteQues:
; File c:\program files (x86)\microsoft visual studio 12.0\vc\include\vector

; 205  : 		return (this->_Ptr == _Right._Ptr);

  0001e	3b c2		 cmp	 eax, edx
; File d:\metin2\metin2\client_source_clean\client_source_clean\source\userinterface\pythonquest.cpp

; 28   : 	if (itor == m_QuestInstanceContainer.end())

  00020	74 32		 je	 SHORT $LN88@DeleteQues
  00022	56		 push	 esi
  00023	57		 push	 edi
; File c:\program files (x86)\microsoft visual studio 12.0\vc\include\xutility

; 2441 : 		_Dest, _Ptr_cat(_First, _Dest)));

  00024	ff 75 08	 push	 DWORD PTR __Cat$1[ebp]
; File c:\program files (x86)\microsoft visual studio 12.0\vc\include\vector

; 1454 : 			_VIPTR(_Where));

  00027	8d 48 70	 lea	 ecx, DWORD PTR [eax+112]
; File c:\program files (x86)\microsoft visual studio 12.0\vc\include\xutility

; 2441 : 		_Dest, _Ptr_cat(_First, _Dest)));

  0002a	50		 push	 eax
  0002b	e8 00 00 00 00	 call	 ??$_Move@PAUSQuestInstance@CPythonQuest@@PAU12@@std@@YAPAUSQuestInstance@CPythonQuest@@PAU12@00U_Nonscalar_ptr_iterator_tag@0@@Z ; std::_Move<CPythonQuest::SQuestInstance *,CPythonQuest::SQuestInstance *>
; File c:\program files (x86)\microsoft visual studio 12.0\vc\include\vector

; 1455 : 		_Destroy(this->_Mylast - 1, this->_Mylast);

  00030	8b 7b 08	 mov	 edi, DWORD PTR [ebx+8]
; File c:\program files (x86)\microsoft visual studio 12.0\vc\include\xutility

; 2441 : 		_Dest, _Ptr_cat(_First, _Dest)));

  00033	83 c4 08	 add	 esp, 8
; File c:\program files (x86)\microsoft visual studio 12.0\vc\include\vector

; 1455 : 		_Destroy(this->_Mylast - 1, this->_Mylast);

  00036	8d 77 90	 lea	 esi, DWORD PTR [edi-112]
; File c:\program files (x86)\microsoft visual studio 12.0\vc\include\xmemory0

; 81   : 	for (; _First != _Last; ++_First)

  00039	3b f7		 cmp	 esi, edi
  0003b	74 11		 je	 SHORT $LN68@DeleteQues
  0003d	8d 49 00	 npad	 3
$LL70@DeleteQues:
  00040	8b ce		 mov	 ecx, esi
  00042	e8 00 00 00 00	 call	 ??1SQuestInstance@CPythonQuest@@QAE@XZ
  00047	83 c6 70	 add	 esi, 112		; 00000070H
  0004a	3b f7		 cmp	 esi, edi
  0004c	75 f2		 jne	 SHORT $LL70@DeleteQues
$LN68@DeleteQues:
; File c:\program files (x86)\microsoft visual studio 12.0\vc\include\vector

; 1456 : 		--this->_Mylast;

  0004e	83 43 08 90	 add	 DWORD PTR [ebx+8], -112	; ffffff90H
  00052	5f		 pop	 edi
  00053	5e		 pop	 esi
$LN88@DeleteQues:
  00054	5b		 pop	 ebx
; File d:\metin2\metin2\client_source_clean\client_source_clean\source\userinterface\pythonquest.cpp

; 32   : }

  00055	5d		 pop	 ebp
  00056	c2 04 00	 ret	 4
?DeleteQuestInstance@CPythonQuest@@QAEXK@Z ENDP		; CPythonQuest::DeleteQuestInstance
_TEXT	ENDS
; Function compile flags: /Ogtp
; File d:\metin2\metin2\client_source_clean\client_source_clean\source\userinterface\pythonquest.cpp
;	COMDAT ??0FQuestInstanceCompare@@QAE@K@Z
_TEXT	SEGMENT
_dwIndex$ = 8						; size = 4
??0FQuestInstanceCompare@@QAE@K@Z PROC			; FQuestInstanceCompare::FQuestInstanceCompare, COMDAT
; _this$ = ecx

; 18   : 	FQuestInstanceCompare(DWORD dwIndex) : dwSearchIndex(dwIndex) {}

  00000	55		 push	 ebp
  00001	8b ec		 mov	 ebp, esp
  00003	8b 45 08	 mov	 eax, DWORD PTR _dwIndex$[ebp]
  00006	89 01		 mov	 DWORD PTR [ecx], eax
  00008	8b c1		 mov	 eax, ecx
  0000a	5d		 pop	 ebp
  0000b	c2 04 00	 ret	 4
??0FQuestInstanceCompare@@QAE@K@Z ENDP			; FQuestInstanceCompare::FQuestInstanceCompare
_TEXT	ENDS
; Function compile flags: /Ogtp
; File d:\metin2\metin2\client_source_clean\client_source_clean\source\userinterface\pythonquest.cpp
;	COMDAT ??RFQuestInstanceCompare@@QAE_NABUSQuestInstance@CPythonQuest@@@Z
_TEXT	SEGMENT
_rQuestInstance$ = 8					; size = 4
??RFQuestInstanceCompare@@QAE_NABUSQuestInstance@CPythonQuest@@@Z PROC ; FQuestInstanceCompare::operator(), COMDAT
; _this$ = ecx

; 20   : 	{

  00000	55		 push	 ebp
  00001	8b ec		 mov	 ebp, esp

; 21   : 		return dwSearchIndex == rQuestInstance.dwIndex;

  00003	8b 11		 mov	 edx, DWORD PTR [ecx]
  00005	33 c0		 xor	 eax, eax
  00007	8b 4d 08	 mov	 ecx, DWORD PTR _rQuestInstance$[ebp]
  0000a	3b 11		 cmp	 edx, DWORD PTR [ecx]
  0000c	0f 94 c0	 sete	 al

; 22   : 	}

  0000f	5d		 pop	 ebp
  00010	c2 04 00	 ret	 4
??RFQuestInstanceCompare@@QAE_NABUSQuestInstance@CPythonQuest@@@Z ENDP ; FQuestInstanceCompare::operator()
_TEXT	ENDS
; Function compile flags: /Ogtp
; File d:\metin2\metin2\client_source_clean\client_source_clean\source\userinterface\pythonquest.cpp
; File c:\program files (x86)\microsoft visual studio 12.0\vc\include\vector
; File d:\metin2\metin2\client_source_clean\client_source_clean\source\userinterface\pythonquest.cpp
;	COMDAT ?GetQuestCount@CPythonQuest@@QAEHXZ
_TEXT	SEGMENT
?GetQuestCount@CPythonQuest@@QAEHXZ PROC		; CPythonQuest::GetQuestCount, COMDAT
; _this$ = ecx

; 108  : {

  00000	56		 push	 esi
; File c:\program files (x86)\microsoft visual studio 12.0\vc\include\vector

; 1148 : 		return (this->_Mylast - this->_Myfirst);

  00001	8b 71 08	 mov	 esi, DWORD PTR [ecx+8]
  00004	b8 93 24 49 92	 mov	 eax, -1840700269	; 92492493H
  00009	2b 71 04	 sub	 esi, DWORD PTR [ecx+4]
  0000c	f7 ee		 imul	 esi
  0000e	03 d6		 add	 edx, esi
  00010	c1 fa 06	 sar	 edx, 6
  00013	8b c2		 mov	 eax, edx
  00015	c1 e8 1f	 shr	 eax, 31			; 0000001fH
  00018	03 c2		 add	 eax, edx
  0001a	5e		 pop	 esi
; File d:\metin2\metin2\client_source_clean\client_source_clean\source\userinterface\pythonquest.cpp

; 110  : }

  0001b	c3		 ret	 0
?GetQuestCount@CPythonQuest@@QAEHXZ ENDP		; CPythonQuest::GetQuestCount
_TEXT	ENDS
; Function compile flags: /Ogtp
; File d:\metin2\metin2\client_source_clean\client_source_clean\source\userinterface\pythonquest.cpp
; File c:\program files (x86)\microsoft visual studio 12.0\vc\include\vector
; File d:\metin2\metin2\client_source_clean\client_source_clean\source\userinterface\pythonquest.cpp
; File c:\program files (x86)\microsoft visual studio 12.0\vc\include\vector
; File d:\metin2\metin2\client_source_clean\client_source_clean\source\userinterface\pythonquest.cpp
; File c:\program files (x86)\microsoft visual studio 12.0\vc\include\vector
; File d:\metin2\metin2\client_source_clean\client_source_clean\source\userinterface\pythonquest.cpp
;	COMDAT ?GetQuestInstancePtr@CPythonQuest@@QAE_NKPAPAUSQuestInstance@1@@Z
_TEXT	SEGMENT
_dwArrayIndex$ = 8					; size = 4
_ppQuestInstance$ = 12					; size = 4
?GetQuestInstancePtr@CPythonQuest@@QAE_NKPAPAUSQuestInstance@1@@Z PROC ; CPythonQuest::GetQuestInstancePtr, COMDAT
; _this$ = ecx

; 113  : {

  00000	55		 push	 ebp
  00001	8b ec		 mov	 ebp, esp
  00003	56		 push	 esi
  00004	57		 push	 edi
  00005	8b f9		 mov	 edi, ecx
; File c:\program files (x86)\microsoft visual studio 12.0\vc\include\vector

; 1148 : 		return (this->_Mylast - this->_Myfirst);

  00007	b8 93 24 49 92	 mov	 eax, -1840700269	; 92492493H
; File d:\metin2\metin2\client_source_clean\client_source_clean\source\userinterface\pythonquest.cpp

; 114  : 	if (dwArrayIndex >= m_QuestInstanceContainer.size())

  0000c	8b 4d 08	 mov	 ecx, DWORD PTR _dwArrayIndex$[ebp]
; File c:\program files (x86)\microsoft visual studio 12.0\vc\include\vector

; 1148 : 		return (this->_Mylast - this->_Myfirst);

  0000f	8b 77 08	 mov	 esi, DWORD PTR [edi+8]
  00012	2b 77 04	 sub	 esi, DWORD PTR [edi+4]
  00015	f7 ee		 imul	 esi
  00017	03 d6		 add	 edx, esi
  00019	c1 fa 06	 sar	 edx, 6
  0001c	8b c2		 mov	 eax, edx
  0001e	c1 e8 1f	 shr	 eax, 31			; 0000001fH
  00021	03 c2		 add	 eax, edx
; File d:\metin2\metin2\client_source_clean\client_source_clean\source\userinterface\pythonquest.cpp

; 114  : 	if (dwArrayIndex >= m_QuestInstanceContainer.size())

  00023	3b c8		 cmp	 ecx, eax
  00025	72 08		 jb	 SHORT $LN1@GetQuestIn

; 115  : 		return false;

  00027	5f		 pop	 edi
  00028	32 c0		 xor	 al, al
  0002a	5e		 pop	 esi

; 120  : }

  0002b	5d		 pop	 ebp
  0002c	c2 08 00	 ret	 8
$LN1@GetQuestIn:

; 117  : 	*ppQuestInstance = &m_QuestInstanceContainer[dwArrayIndex];

  0002f	8b 45 0c	 mov	 eax, DWORD PTR _ppQuestInstance$[ebp]
; File c:\program files (x86)\microsoft visual studio 12.0\vc\include\vector

; 1209 : 		return (*(this->_Myfirst + _Pos));

  00032	6b c9 70	 imul	 ecx, ecx, 112
  00035	03 4f 04	 add	 ecx, DWORD PTR [edi+4]
  00038	5f		 pop	 edi
; File d:\metin2\metin2\client_source_clean\client_source_clean\source\userinterface\pythonquest.cpp

; 117  : 	*ppQuestInstance = &m_QuestInstanceContainer[dwArrayIndex];

  00039	89 08		 mov	 DWORD PTR [eax], ecx

; 118  : 
; 119  : 	return true;

  0003b	b0 01		 mov	 al, 1
  0003d	5e		 pop	 esi

; 120  : }

  0003e	5d		 pop	 ebp
  0003f	c2 08 00	 ret	 8
?GetQuestInstancePtr@CPythonQuest@@QAE_NKPAPAUSQuestInstance@1@@Z ENDP ; CPythonQuest::GetQuestInstancePtr
_TEXT	ENDS
; Function compile flags: /Ogtp
; File d:\metin2\metin2\client_source_clean\client_source_clean\source\userinterface\pythonquest.cpp
; File c:\program files (x86)\microsoft visual studio 12.0\vc\include\vector
; File c:\program files (x86)\microsoft visual studio 12.0\vc\include\algorithm
; File d:\metin2\metin2\client_source_clean\client_source_clean\source\userinterface\pythonquest.cpp
; File c:\program files (x86)\microsoft visual studio 12.0\vc\include\algorithm
; File c:\program files (x86)\microsoft visual studio 12.0\vc\include\vector
; File d:\metin2\metin2\client_source_clean\client_source_clean\source\userinterface\pythonquest.cpp
;	COMDAT ?__GetQuestInstancePtr@CPythonQuest@@IAE_NKPAPAUSQuestInstance@1@@Z
_TEXT	SEGMENT
_dwQuestIndex$ = 8					; size = 4
_ppQuestInstance$ = 12					; size = 4
?__GetQuestInstancePtr@CPythonQuest@@IAE_NKPAPAUSQuestInstance@1@@Z PROC ; CPythonQuest::__GetQuestInstancePtr, COMDAT
; _this$ = ecx

; 123  : {

  00000	55		 push	 ebp
  00001	8b ec		 mov	 ebp, esp
; File c:\program files (x86)\microsoft visual studio 12.0\vc\include\vector

; 396  : 	return (_Iter._Unchecked());

  00003	8b 51 08	 mov	 edx, DWORD PTR [ecx+8]
; File c:\program files (x86)\microsoft visual studio 12.0\vc\include\algorithm

; 56   : 		_Find_if(_Unchecked(_First), _Unchecked(_Last), _Pred)));

  00006	8b 41 04	 mov	 eax, DWORD PTR [ecx+4]

; 43   : 	for (; _First != _Last; ++_First)

  00009	3b c2		 cmp	 eax, edx
  0000b	74 12		 je	 SHORT $LN67@GetQuestIn
  0000d	8b 4d 08	 mov	 ecx, DWORD PTR _dwQuestIndex$[ebp]
$LL35@GetQuestIn:
; File d:\metin2\metin2\client_source_clean\client_source_clean\source\userinterface\pythonquest.cpp

; 21   : 		return dwSearchIndex == rQuestInstance.dwIndex;

  00010	3b 08		 cmp	 ecx, DWORD PTR [eax]
; File c:\program files (x86)\microsoft visual studio 12.0\vc\include\algorithm

; 44   : 		if (_Pred(*_First))

  00012	74 07		 je	 SHORT $LN61@GetQuestIn

; 43   : 	for (; _First != _Last; ++_First)

  00014	83 c0 70	 add	 eax, 112		; 00000070H
  00017	3b c2		 cmp	 eax, edx
  00019	75 f5		 jne	 SHORT $LL35@GetQuestIn
$LN61@GetQuestIn:
; File c:\program files (x86)\microsoft visual studio 12.0\vc\include\vector

; 205  : 		return (this->_Ptr == _Right._Ptr);

  0001b	3b c2		 cmp	 eax, edx
; File d:\metin2\metin2\client_source_clean\client_source_clean\source\userinterface\pythonquest.cpp

; 125  : 	if (itor == m_QuestInstanceContainer.end())

  0001d	75 06		 jne	 SHORT $LN1@GetQuestIn
$LN67@GetQuestIn:

; 126  : 		return false;

  0001f	32 c0		 xor	 al, al

; 131  : }

  00021	5d		 pop	 ebp
  00022	c2 08 00	 ret	 8
$LN1@GetQuestIn:

; 127  : 
; 128  : 	*ppQuestInstance = &(*itor);

  00025	8b 4d 0c	 mov	 ecx, DWORD PTR _ppQuestInstance$[ebp]
  00028	89 01		 mov	 DWORD PTR [ecx], eax

; 129  : 
; 130  : 	return true;

  0002a	b0 01		 mov	 al, 1

; 131  : }

  0002c	5d		 pop	 ebp
  0002d	c2 08 00	 ret	 8
?__GetQuestInstancePtr@CPythonQuest@@IAE_NKPAPAUSQuestInstance@1@@Z ENDP ; CPythonQuest::__GetQuestInstancePtr
_TEXT	ENDS
; Function compile flags: /Ogtp
; File d:\metin2\metin2\client_source_clean\client_source_clean\source\userinterface\pythonquest.cpp
;	COMDAT ?__Initialize@CPythonQuest@@IAEXXZ
_TEXT	SEGMENT
?__Initialize@CPythonQuest@@IAEXXZ PROC			; CPythonQuest::__Initialize, COMDAT
; _this$dead$ = ecx

; 135  : /*
; 136  : #ifdef _DEBUG
; 137  : 	for (int i = 0; i < 7; ++i)
; 138  : 	{
; 139  : 		SQuestInstance test;
; 140  : 		test.dwIndex = i;
; 141  : 		test.strIconFileName = "";
; 142  : 		test.strTitle = _getf("test%d", i);
; 143  : 		test.strClockName = " ";
; 144  : 		test.strCounterName = " ";
; 145  : 		test.iClockValue = 1000;
; 146  : 		test.iCounterValue = 1000;
; 147  : 		test.iStartTime = 0;
; 148  : 		RegisterQuestInstance(test);
; 149  : 	}
; 150  : #endif
; 151  : */
; 152  : }

  00000	c3		 ret	 0
?__Initialize@CPythonQuest@@IAEXXZ ENDP			; CPythonQuest::__Initialize
_TEXT	ENDS
; Function compile flags: /Ogtp
; File d:\metin2\metin2\client_source_clean\client_source_clean\source\userinterface\pythonquest.cpp
; File c:\program files (x86)\microsoft visual studio 12.0\vc\include\vector
; File c:\program files (x86)\microsoft visual studio 12.0\vc\include\xmemory0
; File c:\program files (x86)\microsoft visual studio 12.0\vc\include\vector
; File d:\metin2\metin2\client_source_clean\client_source_clean\source\userinterface\pythonquest.cpp
; File c:\program files (x86)\microsoft visual studio 12.0\vc\include\vector
; File d:\metin2\metin2\client_source_clean\client_source_clean\source\userinterface\pythonquest.cpp
;	COMDAT ?Clear@CPythonQuest@@QAEXXZ
_TEXT	SEGMENT
?Clear@CPythonQuest@@QAEXXZ PROC			; CPythonQuest::Clear, COMDAT
; _this$ = ecx

; 155  : {

  00000	53		 push	 ebx
  00001	56		 push	 esi
  00002	57		 push	 edi
  00003	8b f9		 mov	 edi, ecx
; File c:\program files (x86)\microsoft visual studio 12.0\vc\include\vector

; 1509 : 		_Destroy(this->_Myfirst, this->_Mylast);

  00005	8b 5f 08	 mov	 ebx, DWORD PTR [edi+8]
; File c:\program files (x86)\microsoft visual studio 12.0\vc\include\xmemory0

; 81   : 	for (; _First != _Last; ++_First)

  00008	8b 77 04	 mov	 esi, DWORD PTR [edi+4]
  0000b	3b f3		 cmp	 esi, ebx
  0000d	74 19		 je	 SHORT $LN31@Clear
  0000f	90		 npad	 1
$LL15@Clear:
  00010	8b ce		 mov	 ecx, esi
  00012	e8 00 00 00 00	 call	 ??1SQuestInstance@CPythonQuest@@QAE@XZ
  00017	83 c6 70	 add	 esi, 112		; 00000070H
  0001a	3b f3		 cmp	 esi, ebx
  0001c	75 f2		 jne	 SHORT $LL15@Clear
; File c:\program files (x86)\microsoft visual studio 12.0\vc\include\vector

; 1510 : 		this->_Mylast = this->_Myfirst;

  0001e	8b 47 04	 mov	 eax, DWORD PTR [edi+4]
  00021	89 47 08	 mov	 DWORD PTR [edi+8], eax
  00024	5f		 pop	 edi
  00025	5e		 pop	 esi
  00026	5b		 pop	 ebx
; File d:\metin2\metin2\client_source_clean\client_source_clean\source\userinterface\pythonquest.cpp

; 157  : }

  00027	c3		 ret	 0
$LN31@Clear:
; File c:\program files (x86)\microsoft visual studio 12.0\vc\include\vector

; 1510 : 		this->_Mylast = this->_Myfirst;

  00028	8b c6		 mov	 eax, esi
  0002a	89 47 08	 mov	 DWORD PTR [edi+8], eax
  0002d	5f		 pop	 edi
  0002e	5e		 pop	 esi
  0002f	5b		 pop	 ebx
; File d:\metin2\metin2\client_source_clean\client_source_clean\source\userinterface\pythonquest.cpp

; 157  : }

  00030	c3		 ret	 0
?Clear@CPythonQuest@@QAEXXZ ENDP			; CPythonQuest::Clear
_TEXT	ENDS
; Function compile flags: /Ogtp
;	COMDAT ??_GCPythonQuest@@UAEPAXI@Z
_TEXT	SEGMENT
___flags$ = 8						; size = 4
??_GCPythonQuest@@UAEPAXI@Z PROC			; CPythonQuest::`scalar deleting destructor', COMDAT
; _this$ = ecx
  00000	55		 push	 ebp
  00001	8b ec		 mov	 ebp, esp
  00003	56		 push	 esi
  00004	8b f1		 mov	 esi, ecx
  00006	e8 00 00 00 00	 call	 ??1CPythonQuest@@UAE@XZ	; CPythonQuest::~CPythonQuest
  0000b	f6 45 08 01	 test	 BYTE PTR ___flags$[ebp], 1
  0000f	74 09		 je	 SHORT $LN4@scalar
  00011	56		 push	 esi
  00012	e8 00 00 00 00	 call	 ??3@YAXPAX@Z		; operator delete
  00017	83 c4 04	 add	 esp, 4
$LN4@scalar:
  0001a	8b c6		 mov	 eax, esi
  0001c	5e		 pop	 esi
  0001d	5d		 pop	 ebp
  0001e	c2 04 00	 ret	 4
??_GCPythonQuest@@UAEPAXI@Z ENDP			; CPythonQuest::`scalar deleting destructor'
_TEXT	ENDS
; Function compile flags: /Ogtp
; File d:\metin2\metin2\client_source_clean\client_source_clean\source\userinterface\pythonquest.cpp
;	COMDAT ?questGetQuestCount@@YAPAU_object@@PAU1@0@Z
_TEXT	SEGMENT
_poSelf$ = 8						; size = 4
_poArgs$ = 12						; size = 4
?questGetQuestCount@@YAPAU_object@@PAU1@0@Z PROC	; questGetQuestCount, COMDAT

; 175  : 	return Py_BuildValue("i", CPythonQuest::Instance().GetQuestCount());

  00000	8b 0d 00 00 00
	00		 mov	 ecx, DWORD PTR ?ms_singleton@?$CSingleton@VCPythonQuest@@@@0PAVCPythonQuest@@A ; CSingleton<CPythonQuest>::ms_singleton
  00006	e8 00 00 00 00	 call	 ?GetQuestCount@CPythonQuest@@QAEHXZ ; CPythonQuest::GetQuestCount
  0000b	50		 push	 eax
  0000c	68 00 00 00 00	 push	 OFFSET ??_C@_01KBJDNOO@i?$AA@
  00011	ff 15 00 00 00
	00		 call	 DWORD PTR __imp__Py_BuildValue
  00017	83 c4 08	 add	 esp, 8

; 176  : }

  0001a	c3		 ret	 0
?questGetQuestCount@@YAPAU_object@@PAU1@0@Z ENDP	; questGetQuestCount
_TEXT	ENDS
; Function compile flags: /Ogtp
; File d:\metin2\metin2\client_source_clean\client_source_clean\source\userinterface\pythonquest.cpp
; File c:\program files (x86)\microsoft visual studio 12.0\vc\include\xstring
; File d:\metin2\metin2\client_source_clean\client_source_clean\source\userinterface\pythonquest.cpp
; File c:\program files (x86)\microsoft visual studio 12.0\vc\include\xstring
; File c:\program files (x86)\microsoft visual studio 12.0\vc\include\iosfwd
; File c:\program files (x86)\microsoft visual studio 12.0\vc\include\xstring
; File d:\metin2\metin2\client_source_clean\client_source_clean\source\userinterface\pythonquest.cpp
; File c:\program files (x86)\microsoft visual studio 12.0\vc\include\xstring
; File d:\metin2\metin2\client_source_clean\client_source_clean\source\userinterface\pythonquest.cpp
; File c:\program files (x86)\microsoft visual studio 12.0\vc\include\xstring
; File c:\program files (x86)\microsoft visual studio 12.0\vc\include\xstddef
; File c:\program files (x86)\microsoft visual studio 12.0\vc\include\iosfwd
; File c:\program files (x86)\microsoft visual studio 12.0\vc\include\xstring
; File d:\metin2\metin2\client_source_clean\client_source_clean\source\userinterface\pythonquest.cpp
; File c:\program files (x86)\microsoft visual studio 12.0\vc\include\xstring
; File d:\metin2\metin2\client_source_clean\client_source_clean\source\userinterface\pythonquest.cpp
; File c:\program files (x86)\microsoft visual studio 12.0\vc\include\xstring
; File d:\metin2\metin2\client_source_clean\client_source_clean\source\userinterface\pythonquest.cpp
; File c:\program files (x86)\microsoft visual studio 12.0\vc\include\xstring
; File c:\program files (x86)\microsoft visual studio 12.0\vc\include\xmemory0
; File c:\program files (x86)\microsoft visual studio 12.0\vc\include\xstring
; File c:\program files (x86)\microsoft visual studio 12.0\vc\include\iosfwd
; File d:\metin2\metin2\client_source_clean\client_source_clean\source\userinterface\pythonquest.cpp
; File c:\program files (x86)\microsoft visual studio 12.0\vc\include\xstring
; File d:\metin2\metin2\client_source_clean\client_source_clean\source\userinterface\pythonquest.cpp
; File c:\program files (x86)\microsoft visual studio 12.0\vc\include\xstring
; File d:\metin2\metin2\client_source_clean\client_source_clean\source\userinterface\pythonquest.cpp
; File c:\program files (x86)\microsoft visual studio 12.0\vc\include\xstring
; File d:\metin2\metin2\client_source_clean\client_source_clean\source\userinterface\pythonquest.cpp
; File c:\program files (x86)\microsoft visual studio 12.0\vc\include\xstring
; File c:\program files (x86)\microsoft visual studio 12.0\vc\include\xmemory0
; File c:\program files (x86)\microsoft visual studio 12.0\vc\include\xstring
; File c:\program files (x86)\microsoft visual studio 12.0\vc\include\iosfwd
; File c:\program files (x86)\microsoft visual studio 12.0\vc\include\xstring
; File d:\metin2\metin2\client_source_clean\client_source_clean\source\userinterface\pythonquest.cpp
; File c:\program files (x86)\microsoft visual studio 12.0\vc\include\xstring
; File c:\program files (x86)\microsoft visual studio 12.0\vc\include\xstddef
; File c:\program files (x86)\microsoft visual studio 12.0\vc\include\xstring
; File d:\metin2\metin2\client_source_clean\client_source_clean\source\userinterface\pythonquest.cpp
; File c:\program files (x86)\microsoft visual studio 12.0\vc\include\xstring
; File c:\program files (x86)\microsoft visual studio 12.0\vc\include\xstddef
; File d:\metin2\metin2\client_source_clean\client_source_clean\source\userinterface\pythonquest.cpp
;	COMDAT ?questGetQuestData@@YAPAU_object@@PAU1@0@Z
_TEXT	SEGMENT
_iIndex$ = -76						; size = 4
_pQuestInstance$ = -72					; size = 4
_strIconFileName$2 = -68				; size = 24
_strIconFileName$3 = -44				; size = 24
__$ArrayPad$ = -20					; size = 4
__$EHRec$ = -12						; size = 12
_poSelf$ = 8						; size = 4
_poArgs$ = 12						; size = 4
?questGetQuestData@@YAPAU_object@@PAU1@0@Z PROC		; questGetQuestData, COMDAT

; 179  : {

  00000	55		 push	 ebp
  00001	8b ec		 mov	 ebp, esp
  00003	83 e4 f8	 and	 esp, -8			; fffffff8H
  00006	6a ff		 push	 -1
  00008	68 00 00 00 00	 push	 __ehhandler$?questGetQuestData@@YAPAU_object@@PAU1@0@Z
  0000d	64 a1 00 00 00
	00		 mov	 eax, DWORD PTR fs:0
  00013	50		 push	 eax
  00014	83 ec 44	 sub	 esp, 68			; 00000044H
  00017	a1 00 00 00 00	 mov	 eax, DWORD PTR ___security_cookie
  0001c	33 c4		 xor	 eax, esp
  0001e	89 44 24 3c	 mov	 DWORD PTR __$ArrayPad$[esp+80], eax
  00022	56		 push	 esi
  00023	57		 push	 edi
  00024	a1 00 00 00 00	 mov	 eax, DWORD PTR ___security_cookie
  00029	33 c4		 xor	 eax, esp
  0002b	50		 push	 eax
  0002c	8d 44 24 50	 lea	 eax, DWORD PTR __$EHRec$[esp+92]
  00030	64 a3 00 00 00
	00		 mov	 DWORD PTR fs:0, eax
  00036	8b 45 0c	 mov	 eax, DWORD PTR _poArgs$[ebp]

; 180  : 	int iIndex;
; 181  : 	if (!PyTuple_GetInteger(poArgs, 0, &iIndex))

  00039	8d 4c 24 10	 lea	 ecx, DWORD PTR _iIndex$[esp+92]
  0003d	51		 push	 ecx
  0003e	6a 00		 push	 0
  00040	50		 push	 eax
  00041	e8 00 00 00 00	 call	 ?PyTuple_GetInteger@@YA_NPAU_object@@HPAH@Z ; PyTuple_GetInteger
  00046	83 c4 0c	 add	 esp, 12			; 0000000cH
  00049	84 c0		 test	 al, al
  0004b	75 0a		 jne	 SHORT $LN4@questGetQu

; 182  : 		return Py_BadArgument();

  0004d	e8 00 00 00 00	 call	 ?Py_BadArgument@@YAPAU_object@@XZ ; Py_BadArgument
  00052	e9 67 01 00 00	 jmp	 $LN5@questGetQu
$LN4@questGetQu:

; 183  : 
; 184  : 	CPythonQuest::SQuestInstance * pQuestInstance;
; 185  : 	if (!CPythonQuest::Instance().GetQuestInstancePtr(iIndex, &pQuestInstance))

  00057	8b 0d 00 00 00
	00		 mov	 ecx, DWORD PTR ?ms_singleton@?$CSingleton@VCPythonQuest@@@@0PAVCPythonQuest@@A ; CSingleton<CPythonQuest>::ms_singleton
  0005d	8d 44 24 14	 lea	 eax, DWORD PTR _pQuestInstance$[esp+92]
  00061	50		 push	 eax
  00062	ff 74 24 14	 push	 DWORD PTR _iIndex$[esp+96]
  00066	e8 00 00 00 00	 call	 ?GetQuestInstancePtr@CPythonQuest@@QAE_NKPAPAUSQuestInstance@1@@Z ; CPythonQuest::GetQuestInstancePtr
  0006b	84 c0		 test	 al, al
  0006d	75 16		 jne	 SHORT $LN3@questGetQu

; 186  : 		return Py_BuildException("Failed to find quest by index %d", iIndex);

  0006f	ff 74 24 10	 push	 DWORD PTR _iIndex$[esp+92]
  00073	68 00 00 00 00	 push	 OFFSET ??_C@_0CB@KNIDBLNN@Failed?5to?5find?5quest?5by?5index?5?$CFd@
  00078	e8 00 00 00 00	 call	 ?Py_BuildException@@YAPAU_object@@PBDZZ ; Py_BuildException
  0007d	83 c4 08	 add	 esp, 8
  00080	e9 39 01 00 00	 jmp	 $LN5@questGetQu
$LN3@questGetQu:
; File c:\program files (x86)\microsoft visual studio 12.0\vc\include\xstring

; 1793 : 		return (this->_Mysize == 0);

  00085	8b 74 24 14	 mov	 esi, DWORD PTR _pQuestInstance$[esp+92]
  00089	83 7e 14 00	 cmp	 DWORD PTR [esi+20], 0
; File d:\metin2\metin2\client_source_clean\client_source_clean\source\userinterface\pythonquest.cpp

; 189  : 	if (!pQuestInstance->strIconFileName.empty())

  0008d	0f 84 a7 00 00
	00		 je	 $LN2@questGetQu
; File c:\program files (x86)\microsoft visual studio 12.0\vc\include\xstring

; 2284 : 		this->_Myres = this->_BUF_SIZE - 1;

  00093	c7 44 24 2c 0f
	00 00 00	 mov	 DWORD PTR _strIconFileName$2[esp+112], 15 ; 0000000fH

; 1794 : 		}
; 1795 : 
; 1796 : 	_SCL_INSECURE_DEPRECATE
; 1797 : 
; 1798 : 	size_type copy(_Elem *_Ptr,
; 1799 : 		size_type _Count, size_type _Off = 0) const
; 1800 : 		{	// copy [_Off, _Off + _Count) to [_Ptr, _Ptr + _Count)
; 1801 :  #if _ITERATOR_DEBUG_LEVEL == 2
; 1802 : 		if (_Count != 0)
; 1803 : 			_DEBUG_POINTER(_Ptr);
; 1804 :  #endif /* _ITERATOR_DEBUG_LEVEL == 2 */
; 1805 : 
; 1806 : 		if (this->_Mysize < _Off)
; 1807 : 			_Xran();	// _Off off end
; 1808 : 		if (this->_Mysize - _Off < _Count)
; 1809 : 			_Count = this->_Mysize - _Off;
; 1810 : 		_Traits::copy(_Ptr, this->_Myptr() + _Off, _Count);
; 1811 : 		return (_Count);
; 1812 : 		}
; 1813 : 
; 1814 : 	size_type _Copy_s(_Elem *_Dest, size_type _Dest_size,
; 1815 : 		size_type _Count, size_type _Off = 0) const
; 1816 : 		{	// copy [_Off, _Off + _Count) to [_Dest, _Dest + _Count)
; 1817 :  #if _ITERATOR_DEBUG_LEVEL == 2
; 1818 : 		if (_Count != 0)
; 1819 : 			_DEBUG_POINTER(_Dest);
; 1820 :  #endif /* _ITERATOR_DEBUG_LEVEL == 2 */
; 1821 : 
; 1822 : 		if (this->_Mysize < _Off)
; 1823 : 			_Xran();	// _Off off end
; 1824 : 		if (this->_Mysize - _Off < _Count)
; 1825 : 			_Count = this->_Mysize - _Off;
; 1826 : 		_Traits::_Copy_s(_Dest, _Dest_size, this->_Myptr() + _Off, _Count);
; 1827 : 		return (_Count);
; 1828 : 		}
; 1829 : 
; 1830 : 	void _Swap_bx(_Myt& _Right)
; 1831 : 		{	// exchange _Bx with _Right._Bx
; 1832 : 		if (this->_BUF_SIZE <= this->_Myres)
; 1833 : 			if (this->_BUF_SIZE <= _Right._Myres)
; 1834 : 				_Swap_adl(this->_Bx._Ptr, _Right._Bx._Ptr);
; 1835 : 			else
; 1836 : 				{	// swap large with small
; 1837 : 				pointer _Ptr = this->_Bx._Ptr;
; 1838 : 				this->_Getal().destroy(&this->_Bx._Ptr);
; 1839 : 				_Traits::copy(this->_Bx._Buf,
; 1840 : 					_Right._Bx._Buf, _Right._Mysize + 1);
; 1841 : 				this->_Getal().construct(&_Right._Bx._Ptr, _Ptr);
; 1842 : 				}
; 1843 : 		else
; 1844 : 			if (_Right._Myres < this->_BUF_SIZE)
; 1845 : 				_STD swap(this->_Bx._Buf, _Right._Bx._Buf);
; 1846 : 			else
; 1847 : 				{	// swap small with large
; 1848 : 				pointer _Ptr = _Right._Bx._Ptr;
; 1849 : 				this->_Getal().destroy(&_Right._Bx._Ptr);
; 1850 : 				_Traits::copy(_Right._Bx._Buf,
; 1851 : 					this->_Bx._Buf, this->_Mysize + 1);
; 1852 : 				this->_Getal().construct(&this->_Bx._Ptr, _Ptr);
; 1853 : 				}
; 1854 : 		}
; 1855 : 
; 1856 : 	void swap(_Myt& _Right)
; 1857 : 		{	// exchange contents with _Right
; 1858 : 		if (this == &_Right)
; 1859 : 			;	// same object, do nothing
; 1860 : 		else if (this->_Getal() == _Right._Getal())
; 1861 : 			{	// same allocator, swap control information
; 1862 : 			this->_Swap_all(_Right);
; 1863 : 			_Swap_bx(_Right);
; 1864 : 			_STD swap(this->_Mysize, _Right._Mysize);
; 1865 : 			_STD swap(this->_Myres, _Right._Myres);
; 1866 : 			}
; 1867 : 
; 1868 : 		else if (_Alty::propagate_on_container_swap::value)
; 1869 : 			{	// swap allocators and control information
; 1870 : 			this->_Swap_alloc(_Right);
; 1871 : 			_Swap_bx(_Right);
; 1872 : 			_STD swap(this->_Bx, _Right._Bx);	// pointer bitwise copyable?
; 1873 : 			_STD swap(this->_Mysize, _Right._Mysize);
; 1874 : 			_STD swap(this->_Myres, _Right._Myres);
; 1875 : 			}
; 1876 : 
; 1877 : 		else
; 1878 : 			{	// different allocator, do multiple assigns
; 1879 : 			_Myt _Tmp = *this;
; 1880 : 
; 1881 : 			*this = _Right;
; 1882 : 			_Right = _Tmp;
; 1883 : 			}
; 1884 : 		}
; 1885 : 
; 1886 : 	size_type find(const _Myt& _Right, size_type _Off = 0) const _NOEXCEPT
; 1887 : 		{	// look for _Right beginning at or after _Off
; 1888 : 		return (find(_Right._Myptr(), _Off, _Right.size()));
; 1889 : 		}
; 1890 : 
; 1891 : 	size_type find(const _Elem *_Ptr,
; 1892 : 		size_type _Off, size_type _Count) const
; 1893 : 		{	// look for [_Ptr, _Ptr + _Count) beginning at or after _Off
; 1894 :  #if _ITERATOR_DEBUG_LEVEL == 2
; 1895 : 		if (_Count != 0)
; 1896 : 			_DEBUG_POINTER(_Ptr);
; 1897 :  #endif /* _ITERATOR_DEBUG_LEVEL == 2 */
; 1898 : 
; 1899 : 		if (_Count == 0 && _Off <= this->_Mysize)
; 1900 : 			return (_Off);	// null string always matches (if inside string)
; 1901 : 
; 1902 : 		size_type _Nm;
; 1903 : 		if (_Off < this->_Mysize && _Count <= (_Nm = this->_Mysize - _Off))
; 1904 : 			{	// room for match, look for it
; 1905 : 			const _Elem *_Uptr, *_Vptr;
; 1906 : 			for (_Nm -= _Count - 1, _Vptr = this->_Myptr() + _Off;
; 1907 : 				(_Uptr = _Traits::find(_Vptr, _Nm, *_Ptr)) != 0;
; 1908 : 				_Nm -= _Uptr - _Vptr + 1, _Vptr = _Uptr + 1)
; 1909 : 				if (_Traits::compare(_Uptr, _Ptr, _Count) == 0)
; 1910 : 					return (_Uptr - this->_Myptr());	// found a match
; 1911 : 			}
; 1912 : 
; 1913 : 		return (npos);	// no match
; 1914 : 		}
; 1915 : 
; 1916 : 	size_type find(const _Elem *_Ptr, size_type _Off = 0) const
; 1917 : 		{	// look for [_Ptr, <null>) beginning at or after _Off
; 1918 : 		_DEBUG_POINTER(_Ptr);
; 1919 : 		return (find(_Ptr, _Off, _Traits::length(_Ptr)));
; 1920 : 		}
; 1921 : 
; 1922 : 	size_type find(_Elem _Ch, size_type _Off = 0) const
; 1923 : 		{	// look for _Ch at or after _Off
; 1924 : 		return (find((const _Elem *)&_Ch, _Off, 1));
; 1925 : 		}
; 1926 : 
; 1927 : 	size_type rfind(const _Myt& _Right, size_type _Off = npos) const _NOEXCEPT
; 1928 : 		{	// look for _Right beginning before _Off
; 1929 : 		return (rfind(_Right._Myptr(), _Off, _Right.size()));
; 1930 : 		}
; 1931 : 
; 1932 : 	size_type rfind(const _Elem *_Ptr,
; 1933 : 		size_type _Off, size_type _Count) const
; 1934 : 		{	// look for [_Ptr, _Ptr + _Count) beginning before _Off
; 1935 :  #if _ITERATOR_DEBUG_LEVEL == 2
; 1936 : 		if (_Count != 0)
; 1937 : 			_DEBUG_POINTER(_Ptr);
; 1938 :  #endif /* _ITERATOR_DEBUG_LEVEL == 2 */
; 1939 : 
; 1940 : 		if (_Count == 0)
; 1941 : 			return (_Off < this->_Mysize ? _Off
; 1942 : 				: this->_Mysize);	// null always matches
; 1943 : 		if (_Count <= this->_Mysize)
; 1944 : 			{	// room for match, look for it
; 1945 : 			const _Elem *_Uptr = this->_Myptr() +
; 1946 : 				(_Off < this->_Mysize - _Count ? _Off
; 1947 : 					: this->_Mysize - _Count);
; 1948 : 			for (; ; --_Uptr)
; 1949 : 				if (_Traits::eq(*_Uptr, *_Ptr)
; 1950 : 					&& _Traits::compare(_Uptr, _Ptr, _Count) == 0)
; 1951 : 					return (_Uptr - this->_Myptr());	// found a match
; 1952 : 				else if (_Uptr == this->_Myptr())
; 1953 : 					break;	// at beginning, no more chance for match
; 1954 : 			}
; 1955 : 
; 1956 : 		return (npos);	// no match
; 1957 : 		}
; 1958 : 
; 1959 : 	size_type rfind(const _Elem *_Ptr, size_type _Off = npos) const
; 1960 : 		{	// look for [_Ptr, <null>) beginning before _Off
; 1961 : 		_DEBUG_POINTER(_Ptr);
; 1962 : 		return (rfind(_Ptr, _Off, _Traits::length(_Ptr)));
; 1963 : 		}
; 1964 : 
; 1965 : 	size_type rfind(_Elem _Ch, size_type _Off = npos) const
; 1966 : 		{	// look for _Ch before _Off
; 1967 : 		return (rfind((const _Elem *)&_Ch, _Off, 1));
; 1968 : 		}
; 1969 : 
; 1970 : 	size_type find_first_of(const _Myt& _Right,
; 1971 : 		size_type _Off = 0) const _NOEXCEPT
; 1972 : 		{	// look for one of _Right at or after _Off
; 1973 : 		return (find_first_of(_Right._Myptr(), _Off, _Right.size()));
; 1974 : 		}
; 1975 : 
; 1976 : 	size_type find_first_of(const _Elem *_Ptr,
; 1977 : 		size_type _Off, size_type _Count) const
; 1978 : 		{	// look for one of [_Ptr, _Ptr + _Count) at or after _Off
; 1979 :  #if _ITERATOR_DEBUG_LEVEL == 2
; 1980 : 		if (_Count != 0)
; 1981 : 			_DEBUG_POINTER(_Ptr);
; 1982 :  #endif /* _ITERATOR_DEBUG_LEVEL == 2 */
; 1983 : 
; 1984 : 		if (0 < _Count && _Off < this->_Mysize)
; 1985 : 			{	// room for match, look for it
; 1986 : 			const _Elem *const _Vptr = this->_Myptr() + this->_Mysize;
; 1987 : 			for (const _Elem *_Uptr = this->_Myptr() + _Off;
; 1988 : 				_Uptr < _Vptr; ++_Uptr)
; 1989 : 				if (_Traits::find(_Ptr, _Count, *_Uptr) != 0)
; 1990 : 					return (_Uptr - this->_Myptr());	// found a match
; 1991 : 			}
; 1992 : 
; 1993 : 		return (npos);	// no match
; 1994 : 		}
; 1995 : 
; 1996 : 	size_type find_first_of(const _Elem *_Ptr,
; 1997 : 		size_type _Off = 0) const
; 1998 : 		{	// look for one of [_Ptr, <null>) at or after _Off
; 1999 : 		_DEBUG_POINTER(_Ptr);
; 2000 : 		return (find_first_of(_Ptr, _Off, _Traits::length(_Ptr)));
; 2001 : 		}
; 2002 : 
; 2003 : 	size_type find_first_of(_Elem _Ch,
; 2004 : 		size_type _Off = 0) const
; 2005 : 		{	// look for _Ch at or after _Off
; 2006 : 		return (find((const _Elem *)&_Ch, _Off, 1));
; 2007 : 		}
; 2008 : 
; 2009 : 	size_type find_last_of(const _Myt& _Right,
; 2010 : 		size_type _Off = npos) const _NOEXCEPT
; 2011 : 		{	// look for one of _Right before _Off
; 2012 : 		return (find_last_of(_Right._Myptr(), _Off, _Right.size()));
; 2013 : 		}
; 2014 : 
; 2015 : 	size_type find_last_of(const _Elem *_Ptr,
; 2016 : 		size_type _Off, size_type _Count) const
; 2017 : 		{	// look for one of [_Ptr, _Ptr + _Count) before _Off
; 2018 :  #if _ITERATOR_DEBUG_LEVEL == 2
; 2019 : 		if (_Count != 0)
; 2020 : 			_DEBUG_POINTER(_Ptr);
; 2021 :  #endif /* _ITERATOR_DEBUG_LEVEL == 2 */
; 2022 : 
; 2023 : 		if (0 < _Count && 0 < this->_Mysize)
; 2024 : 			{	// worth searching, do it
; 2025 : 			const _Elem *_Uptr = this->_Myptr()
; 2026 : 				+ (_Off < this->_Mysize ? _Off : this->_Mysize - 1);
; 2027 : 			for (; ; --_Uptr)
; 2028 : 				if (_Traits::find(_Ptr, _Count, *_Uptr) != 0)
; 2029 : 					return (_Uptr - this->_Myptr());	// found a match
; 2030 : 				else if (_Uptr == this->_Myptr())
; 2031 : 					break;	// at beginning, no more chance for match
; 2032 : 			}
; 2033 : 
; 2034 : 		return (npos);	// no match
; 2035 : 		}
; 2036 : 
; 2037 : 	size_type find_last_of(const _Elem *_Ptr,
; 2038 : 		size_type _Off = npos) const
; 2039 : 		{	// look for one of [_Ptr, <null>) before _Off
; 2040 : 		_DEBUG_POINTER(_Ptr);
; 2041 : 		return (find_last_of(_Ptr, _Off, _Traits::length(_Ptr)));
; 2042 : 		}
; 2043 : 
; 2044 : 	size_type find_last_of(_Elem _Ch,
; 2045 : 		size_type _Off = npos) const
; 2046 : 		{	// look for _Ch before _Off
; 2047 : 		return (rfind((const _Elem *)&_Ch, _Off, 1));
; 2048 : 		}
; 2049 : 
; 2050 : 	size_type find_first_not_of(const _Myt& _Right,
; 2051 : 		size_type _Off = 0) const _NOEXCEPT
; 2052 : 		{	// look for none of _Right at or after _Off
; 2053 : 		return (find_first_not_of(_Right._Myptr(), _Off,
; 2054 : 			_Right.size()));
; 2055 : 		}
; 2056 : 
; 2057 : 	size_type find_first_not_of(const _Elem *_Ptr,
; 2058 : 		size_type _Off, size_type _Count) const
; 2059 : 		{	// look for none of [_Ptr, _Ptr + _Count) at or after _Off
; 2060 :  #if _ITERATOR_DEBUG_LEVEL == 2
; 2061 : 		if (_Count != 0)
; 2062 : 			_DEBUG_POINTER(_Ptr);
; 2063 :  #endif /* _ITERATOR_DEBUG_LEVEL == 2 */
; 2064 : 
; 2065 : 		if (_Off < this->_Mysize)
; 2066 : 			{	// room for match, look for it
; 2067 : 			const _Elem *const _Vptr = this->_Myptr() + this->_Mysize;
; 2068 : 			for (const _Elem *_Uptr = this->_Myptr() + _Off;
; 2069 : 				_Uptr < _Vptr; ++_Uptr)
; 2070 : 				if (_Traits::find(_Ptr, _Count, *_Uptr) == 0)
; 2071 : 					return (_Uptr - this->_Myptr());
; 2072 : 			}
; 2073 : 		return (npos);
; 2074 : 		}
; 2075 : 
; 2076 : 	size_type find_first_not_of(const _Elem *_Ptr,
; 2077 : 		size_type _Off = 0) const
; 2078 : 		{	// look for one of [_Ptr, <null>) at or after _Off
; 2079 : 		_DEBUG_POINTER(_Ptr);
; 2080 : 		return (find_first_not_of(_Ptr, _Off, _Traits::length(_Ptr)));
; 2081 : 		}
; 2082 : 
; 2083 : 	size_type find_first_not_of(_Elem _Ch,
; 2084 : 		size_type _Off = 0) const
; 2085 : 		{	// look for non _Ch at or after _Off
; 2086 : 		return (find_first_not_of((const _Elem *)&_Ch, _Off, 1));
; 2087 : 		}
; 2088 : 
; 2089 : 	size_type find_last_not_of(const _Myt& _Right,
; 2090 : 		size_type _Off = npos) const _NOEXCEPT
; 2091 : 		{	// look for none of _Right before _Off
; 2092 : 		return (find_last_not_of(_Right._Myptr(), _Off, _Right.size()));
; 2093 : 		}
; 2094 : 
; 2095 : 	size_type find_last_not_of(const _Elem *_Ptr,
; 2096 : 		size_type _Off, size_type _Count) const
; 2097 : 		{	// look for none of [_Ptr, _Ptr + _Count) before _Off
; 2098 :  #if _ITERATOR_DEBUG_LEVEL == 2
; 2099 : 		if (_Count != 0)
; 2100 : 			_DEBUG_POINTER(_Ptr);
; 2101 :  #endif /* _ITERATOR_DEBUG_LEVEL == 2 */
; 2102 : 
; 2103 : 		if (0 < this->_Mysize)
; 2104 : 			{	// worth searching, do it
; 2105 : 			const _Elem *_Uptr = this->_Myptr()
; 2106 : 				+ (_Off < this->_Mysize ? _Off : this->_Mysize - 1);
; 2107 : 			for (; ; --_Uptr)
; 2108 : 				if (_Traits::find(_Ptr, _Count, *_Uptr) == 0)
; 2109 : 					return (_Uptr - this->_Myptr());
; 2110 : 				else if (_Uptr == this->_Myptr())
; 2111 : 					break;
; 2112 : 			}
; 2113 : 		return (npos);
; 2114 : 		}
; 2115 : 
; 2116 : 	size_type find_last_not_of(const _Elem *_Ptr,
; 2117 : 		size_type _Off = npos) const
; 2118 : 		{	// look for none of [_Ptr, <null>) before _Off
; 2119 : 		_DEBUG_POINTER(_Ptr);
; 2120 : 		return (find_last_not_of(_Ptr, _Off, _Traits::length(_Ptr)));
; 2121 : 		}
; 2122 : 
; 2123 : 	size_type find_last_not_of(_Elem _Ch,
; 2124 : 		size_type _Off = npos) const
; 2125 : 		{	// look for non _Ch before _Off
; 2126 : 		return (find_last_not_of((const _Elem *)&_Ch, _Off, 1));
; 2127 : 		}
; 2128 : 
; 2129 : 	_Myt substr(size_type _Off = 0, size_type _Count = npos) const
; 2130 : 		{	// return [_Off, _Off + _Count) as new string
; 2131 : 		return (_Myt(*this, _Off, _Count, get_allocator()));
; 2132 : 		}
; 2133 : 
; 2134 : 	int compare(const _Myt& _Right) const _NOEXCEPT
; 2135 : 		{	// compare [0, _Mysize) with _Right
; 2136 : 		return (compare(0, this->_Mysize, _Right._Myptr(), _Right.size()));
; 2137 : 		}
; 2138 : 
; 2139 : 	int compare(size_type _Off, size_type _N0,
; 2140 : 		const _Myt& _Right) const
; 2141 : 		{	// compare [_Off, _Off + _N0) with _Right
; 2142 : 		return (compare(_Off, _N0, _Right, 0, npos));
; 2143 : 		}
; 2144 : 
; 2145 : 	int compare(size_type _Off,
; 2146 : 		size_type _N0, const _Myt& _Right,
; 2147 : 		size_type _Roff, size_type _Count) const
; 2148 : 		{	// compare [_Off, _Off + _N0) with _Right [_Roff, _Roff + _Count)
; 2149 : 		if (_Right.size() < _Roff)
; 2150 : 			_Xran();	// _Off off end
; 2151 : 		if (_Right._Mysize - _Roff < _Count)
; 2152 : 			_Count = _Right._Mysize - _Roff;	// trim _Count to size
; 2153 : 		return (compare(_Off, _N0, _Right._Myptr() + _Roff, _Count));
; 2154 : 		}
; 2155 : 
; 2156 : 	int compare(const _Elem *_Ptr) const
; 2157 : 		{	// compare [0, _Mysize) with [_Ptr, <null>)
; 2158 : 		_DEBUG_POINTER(_Ptr);
; 2159 : 		return (compare(0, this->_Mysize, _Ptr, _Traits::length(_Ptr)));
; 2160 : 		}
; 2161 : 
; 2162 : 	int compare(size_type _Off, size_type _N0, const _Elem *_Ptr) const
; 2163 : 		{	// compare [_Off, _Off + _N0) with [_Ptr, <null>)
; 2164 : 		_DEBUG_POINTER(_Ptr);
; 2165 : 		return (compare(_Off, _N0, _Ptr, _Traits::length(_Ptr)));
; 2166 : 		}
; 2167 : 
; 2168 : 	int compare(size_type _Off,
; 2169 : 		size_type _N0, const _Elem *_Ptr, size_type _Count) const
; 2170 : 		{	// compare [_Off, _Off + _N0) with [_Ptr, _Ptr + _Count)
; 2171 :  #if _ITERATOR_DEBUG_LEVEL == 2
; 2172 : 		if (_Count != 0)
; 2173 : 			_DEBUG_POINTER(_Ptr);
; 2174 :  #endif /* _ITERATOR_DEBUG_LEVEL == 2 */
; 2175 : 
; 2176 : 		if (this->_Mysize < _Off)
; 2177 : 			_Xran();	// _Off off end
; 2178 : 		if (this->_Mysize - _Off < _N0)
; 2179 : 			_N0 = this->_Mysize - _Off;	// trim _N0 to size
; 2180 : 
; 2181 : 		size_type _Ans = _Traits::compare(this->_Myptr() + _Off, _Ptr,
; 2182 : 			_N0 < _Count ? _N0 : _Count);
; 2183 : 		return (_Ans != 0 ? (int)_Ans : _N0 < _Count ? -1
; 2184 : 			: _N0 == _Count ? 0 : +1);
; 2185 : 		}
; 2186 : 
; 2187 : 	allocator_type get_allocator() const _NOEXCEPT
; 2188 : 		{	// return allocator object for values
; 2189 : 		return (this->_Getal());
; 2190 : 		}
; 2191 : 
; 2192 : 	void _Chassign(size_type _Off, size_type _Count, _Elem _Ch)
; 2193 : 		{	// assign _Count copies of _Ch beginning at _Off
; 2194 : 		if (_Count == 1)
; 2195 : 			_Traits::assign(*(this->_Myptr() + _Off), _Ch);
; 2196 : 		else
; 2197 : 			_Traits::assign(this->_Myptr() + _Off, _Count, _Ch);
; 2198 : 		}
; 2199 : 
; 2200 : 	void _Copy(size_type _Newsize, size_type _Oldlen)
; 2201 : 		{	// copy _Oldlen elements to newly allocated buffer
; 2202 : 		size_type _Newres = _Newsize | this->_ALLOC_MASK;
; 2203 : 		if (max_size() < _Newres)
; 2204 : 			_Newres = _Newsize;	// undo roundup if too big
; 2205 : 		else if (this->_Myres / 2 <= _Newres / 3)
; 2206 : 			;
; 2207 : 		else if (this->_Myres <= max_size() - this->_Myres / 2)
; 2208 : 			_Newres = this->_Myres
; 2209 : 				+ this->_Myres / 2;	// grow exponentially if possible
; 2210 : 		else
; 2211 : 			_Newres = max_size();	// settle for max_size()
; 2212 : 
; 2213 : 		_Elem *_Ptr;
; 2214 : 		_TRY_BEGIN
; 2215 : 			_Ptr = this->_Getal().allocate(_Newres + 1);
; 2216 : 		_CATCH_ALL
; 2217 : 			_Newres = _Newsize;	// allocation failed, undo roundup and retry
; 2218 : 			_TRY_BEGIN
; 2219 : 				_Ptr = this->_Getal().allocate(_Newres + 1);
; 2220 : 			_CATCH_ALL
; 2221 : 			_Tidy(true);	// failed again, discard storage and reraise
; 2222 : 			_RERAISE;
; 2223 : 			_CATCH_END
; 2224 : 		_CATCH_END
; 2225 : 
; 2226 : 		if (0 < _Oldlen)
; 2227 : 			_Traits::copy(_Ptr, this->_Myptr(),
; 2228 : 				_Oldlen);	// copy existing elements
; 2229 : 		_Tidy(true);
; 2230 : 		this->_Getal().construct(&this->_Bx._Ptr, _Ptr);
; 2231 : 		this->_Myres = _Newres;
; 2232 : 		_Eos(_Oldlen);
; 2233 : 		}
; 2234 : 
; 2235 : 	void _Eos(size_type _Newsize)
; 2236 : 		{	// set new length and null terminator
; 2237 : 		_Traits::assign(this->_Myptr()[this->_Mysize = _Newsize], _Elem());

  0009b	c7 44 24 28 00
	00 00 00	 mov	 DWORD PTR _strIconFileName$2[esp+108], 0
; File c:\program files (x86)\microsoft visual studio 12.0\vc\include\iosfwd

; 564  : 		_Left = _Right;

  000a3	c6 44 24 18 00	 mov	 BYTE PTR _strIconFileName$2[esp+92], 0
; File c:\program files (x86)\microsoft visual studio 12.0\vc\include\xstring

; 1169 : 		return (assign(_Ptr, _Traits::length(_Ptr)));

  000a8	6a 25		 push	 37			; 00000025H
  000aa	68 00 00 00 00	 push	 OFFSET ??_C@_0CG@FJJGJNND@d?3?1ymir?5work?1ui?1game?1quest?1quest@
  000af	8d 4c 24 20	 lea	 ecx, DWORD PTR _strIconFileName$2[esp+100]
; File d:\metin2\metin2\client_source_clean\client_source_clean\source\userinterface\pythonquest.cpp

; 191  : 		std::string strIconFileName;

  000b3	c7 44 24 60 00
	00 00 00	 mov	 DWORD PTR __$EHRec$[esp+108], 0
; File c:\program files (x86)\microsoft visual studio 12.0\vc\include\xstring

; 1169 : 		return (assign(_Ptr, _Traits::length(_Ptr)));

  000bb	e8 00 00 00 00	 call	 ?assign@?$basic_string@DU?$char_traits@D@std@@V?$allocator@D@2@@std@@QAEAAV12@PBDI@Z ; std::basic_string<char,std::char_traits<char>,std::allocator<char> >::assign

; 520  : 			: this->_Bx._Buf);

  000c0	83 7e 18 10	 cmp	 DWORD PTR [esi+24], 16	; 00000010H
; File d:\metin2\metin2\client_source_clean\client_source_clean\source\userinterface\pythonquest.cpp

; 193  : 		strIconFileName += pQuestInstance->strIconFileName.c_str();

  000c4	8d 56 04	 lea	 edx, DWORD PTR [esi+4]
; File c:\program files (x86)\microsoft visual studio 12.0\vc\include\xstring

; 520  : 			: this->_Bx._Buf);

  000c7	72 02		 jb	 SHORT $LN64@questGetQu
; File c:\program files (x86)\microsoft visual studio 12.0\vc\include\xstddef

; 95   : 		reinterpret_cast<const volatile char&>(_Val)))));

  000c9	8b 12		 mov	 edx, DWORD PTR [edx]
$LN64@questGetQu:
; File c:\program files (x86)\microsoft visual studio 12.0\vc\include\iosfwd

; 523  : 			: _CSTD strlen(_First));

  000cb	80 3a 00	 cmp	 BYTE PTR [edx], 0
  000ce	75 04		 jne	 SHORT $LN73@questGetQu
  000d0	33 c9		 xor	 ecx, ecx
  000d2	eb 15		 jmp	 SHORT $LN74@questGetQu
$LN73@questGetQu:
  000d4	8b ca		 mov	 ecx, edx
  000d6	8d 79 01	 lea	 edi, DWORD PTR [ecx+1]
  000d9	8d a4 24 00 00
	00 00		 npad	 7
$LL175@questGetQu:
  000e0	8a 01		 mov	 al, BYTE PTR [ecx]
  000e2	41		 inc	 ecx
  000e3	84 c0		 test	 al, al
  000e5	75 f9		 jne	 SHORT $LL175@questGetQu
  000e7	2b cf		 sub	 ecx, edi
$LN74@questGetQu:
; File c:\program files (x86)\microsoft visual studio 12.0\vc\include\xstring

; 1087 : 		return (append(_Ptr, _Traits::length(_Ptr)));

  000e9	51		 push	 ecx
  000ea	52		 push	 edx
  000eb	8d 4c 24 20	 lea	 ecx, DWORD PTR _strIconFileName$2[esp+100]
  000ef	e8 00 00 00 00	 call	 ?append@?$basic_string@DU?$char_traits@D@std@@V?$allocator@D@2@@std@@QAEAAV12@PBDI@Z ; std::basic_string<char,std::char_traits<char>,std::allocator<char> >::append

; 520  : 			: this->_Bx._Buf);

  000f4	83 7c 24 2c 10	 cmp	 DWORD PTR _strIconFileName$2[esp+112], 16 ; 00000010H
  000f9	8d 44 24 18	 lea	 eax, DWORD PTR _strIconFileName$2[esp+92]
; File d:\metin2\metin2\client_source_clean\client_source_clean\source\userinterface\pythonquest.cpp

; 194  : 		pImage = (CGraphicImage *)CResourceManager::Instance().GetResourcePointer(strIconFileName.c_str());

  000fd	8b 0d 00 00 00
	00		 mov	 ecx, DWORD PTR ?ms_singleton@?$CSingleton@VCResourceManager@@@@0PAVCResourceManager@@A ; CSingleton<CResourceManager>::ms_singleton
; File c:\program files (x86)\microsoft visual studio 12.0\vc\include\xstring

; 520  : 			: this->_Bx._Buf);

  00103	0f 43 44 24 18	 cmovae	 eax, DWORD PTR _strIconFileName$2[esp+92]
; File d:\metin2\metin2\client_source_clean\client_source_clean\source\userinterface\pythonquest.cpp

; 194  : 		pImage = (CGraphicImage *)CResourceManager::Instance().GetResourcePointer(strIconFileName.c_str());

  00108	50		 push	 eax
  00109	e8 00 00 00 00	 call	 ?GetResourcePointer@CResourceManager@@QAEPAVCResource@@PBD@Z ; CResourceManager::GetResourcePointer
; File c:\program files (x86)\microsoft visual studio 12.0\vc\include\xstring

; 2275 : 		else if (this->_BUF_SIZE <= this->_Myres)

  0010e	83 7c 24 2c 10	 cmp	 DWORD PTR _strIconFileName$2[esp+112], 16 ; 00000010H
; File d:\metin2\metin2\client_source_clean\client_source_clean\source\userinterface\pythonquest.cpp

; 194  : 		pImage = (CGraphicImage *)CResourceManager::Instance().GetResourcePointer(strIconFileName.c_str());

  00113	8b f8		 mov	 edi, eax
; File c:\program files (x86)\microsoft visual studio 12.0\vc\include\xstring

; 2275 : 		else if (this->_BUF_SIZE <= this->_Myres)

  00115	72 0c		 jb	 SHORT $LN105@questGetQu
; File c:\program files (x86)\microsoft visual studio 12.0\vc\include\xmemory0

; 573  : 		::operator delete(_Ptr);

  00117	ff 74 24 18	 push	 DWORD PTR _strIconFileName$2[esp+92]
  0011b	e8 00 00 00 00	 call	 ??3@YAXPAX@Z		; operator delete
  00120	83 c4 04	 add	 esp, 4
$LN105@questGetQu:
; File c:\program files (x86)\microsoft visual studio 12.0\vc\include\xstring

; 2284 : 		this->_Myres = this->_BUF_SIZE - 1;

  00123	c7 44 24 2c 0f
	00 00 00	 mov	 DWORD PTR _strIconFileName$2[esp+112], 15 ; 0000000fH

; 1794 : 		}
; 1795 : 
; 1796 : 	_SCL_INSECURE_DEPRECATE
; 1797 : 
; 1798 : 	size_type copy(_Elem *_Ptr,
; 1799 : 		size_type _Count, size_type _Off = 0) const
; 1800 : 		{	// copy [_Off, _Off + _Count) to [_Ptr, _Ptr + _Count)
; 1801 :  #if _ITERATOR_DEBUG_LEVEL == 2
; 1802 : 		if (_Count != 0)
; 1803 : 			_DEBUG_POINTER(_Ptr);
; 1804 :  #endif /* _ITERATOR_DEBUG_LEVEL == 2 */
; 1805 : 
; 1806 : 		if (this->_Mysize < _Off)
; 1807 : 			_Xran();	// _Off off end
; 1808 : 		if (this->_Mysize - _Off < _Count)
; 1809 : 			_Count = this->_Mysize - _Off;
; 1810 : 		_Traits::copy(_Ptr, this->_Myptr() + _Off, _Count);
; 1811 : 		return (_Count);
; 1812 : 		}
; 1813 : 
; 1814 : 	size_type _Copy_s(_Elem *_Dest, size_type _Dest_size,
; 1815 : 		size_type _Count, size_type _Off = 0) const
; 1816 : 		{	// copy [_Off, _Off + _Count) to [_Dest, _Dest + _Count)
; 1817 :  #if _ITERATOR_DEBUG_LEVEL == 2
; 1818 : 		if (_Count != 0)
; 1819 : 			_DEBUG_POINTER(_Dest);
; 1820 :  #endif /* _ITERATOR_DEBUG_LEVEL == 2 */
; 1821 : 
; 1822 : 		if (this->_Mysize < _Off)
; 1823 : 			_Xran();	// _Off off end
; 1824 : 		if (this->_Mysize - _Off < _Count)
; 1825 : 			_Count = this->_Mysize - _Off;
; 1826 : 		_Traits::_Copy_s(_Dest, _Dest_size, this->_Myptr() + _Off, _Count);
; 1827 : 		return (_Count);
; 1828 : 		}
; 1829 : 
; 1830 : 	void _Swap_bx(_Myt& _Right)
; 1831 : 		{	// exchange _Bx with _Right._Bx
; 1832 : 		if (this->_BUF_SIZE <= this->_Myres)
; 1833 : 			if (this->_BUF_SIZE <= _Right._Myres)
; 1834 : 				_Swap_adl(this->_Bx._Ptr, _Right._Bx._Ptr);
; 1835 : 			else
; 1836 : 				{	// swap large with small
; 1837 : 				pointer _Ptr = this->_Bx._Ptr;
; 1838 : 				this->_Getal().destroy(&this->_Bx._Ptr);
; 1839 : 				_Traits::copy(this->_Bx._Buf,
; 1840 : 					_Right._Bx._Buf, _Right._Mysize + 1);
; 1841 : 				this->_Getal().construct(&_Right._Bx._Ptr, _Ptr);
; 1842 : 				}
; 1843 : 		else
; 1844 : 			if (_Right._Myres < this->_BUF_SIZE)
; 1845 : 				_STD swap(this->_Bx._Buf, _Right._Bx._Buf);
; 1846 : 			else
; 1847 : 				{	// swap small with large
; 1848 : 				pointer _Ptr = _Right._Bx._Ptr;
; 1849 : 				this->_Getal().destroy(&_Right._Bx._Ptr);
; 1850 : 				_Traits::copy(_Right._Bx._Buf,
; 1851 : 					this->_Bx._Buf, this->_Mysize + 1);
; 1852 : 				this->_Getal().construct(&this->_Bx._Ptr, _Ptr);
; 1853 : 				}
; 1854 : 		}
; 1855 : 
; 1856 : 	void swap(_Myt& _Right)
; 1857 : 		{	// exchange contents with _Right
; 1858 : 		if (this == &_Right)
; 1859 : 			;	// same object, do nothing
; 1860 : 		else if (this->_Getal() == _Right._Getal())
; 1861 : 			{	// same allocator, swap control information
; 1862 : 			this->_Swap_all(_Right);
; 1863 : 			_Swap_bx(_Right);
; 1864 : 			_STD swap(this->_Mysize, _Right._Mysize);
; 1865 : 			_STD swap(this->_Myres, _Right._Myres);
; 1866 : 			}
; 1867 : 
; 1868 : 		else if (_Alty::propagate_on_container_swap::value)
; 1869 : 			{	// swap allocators and control information
; 1870 : 			this->_Swap_alloc(_Right);
; 1871 : 			_Swap_bx(_Right);
; 1872 : 			_STD swap(this->_Bx, _Right._Bx);	// pointer bitwise copyable?
; 1873 : 			_STD swap(this->_Mysize, _Right._Mysize);
; 1874 : 			_STD swap(this->_Myres, _Right._Myres);
; 1875 : 			}
; 1876 : 
; 1877 : 		else
; 1878 : 			{	// different allocator, do multiple assigns
; 1879 : 			_Myt _Tmp = *this;
; 1880 : 
; 1881 : 			*this = _Right;
; 1882 : 			_Right = _Tmp;
; 1883 : 			}
; 1884 : 		}
; 1885 : 
; 1886 : 	size_type find(const _Myt& _Right, size_type _Off = 0) const _NOEXCEPT
; 1887 : 		{	// look for _Right beginning at or after _Off
; 1888 : 		return (find(_Right._Myptr(), _Off, _Right.size()));
; 1889 : 		}
; 1890 : 
; 1891 : 	size_type find(const _Elem *_Ptr,
; 1892 : 		size_type _Off, size_type _Count) const
; 1893 : 		{	// look for [_Ptr, _Ptr + _Count) beginning at or after _Off
; 1894 :  #if _ITERATOR_DEBUG_LEVEL == 2
; 1895 : 		if (_Count != 0)
; 1896 : 			_DEBUG_POINTER(_Ptr);
; 1897 :  #endif /* _ITERATOR_DEBUG_LEVEL == 2 */
; 1898 : 
; 1899 : 		if (_Count == 0 && _Off <= this->_Mysize)
; 1900 : 			return (_Off);	// null string always matches (if inside string)
; 1901 : 
; 1902 : 		size_type _Nm;
; 1903 : 		if (_Off < this->_Mysize && _Count <= (_Nm = this->_Mysize - _Off))
; 1904 : 			{	// room for match, look for it
; 1905 : 			const _Elem *_Uptr, *_Vptr;
; 1906 : 			for (_Nm -= _Count - 1, _Vptr = this->_Myptr() + _Off;
; 1907 : 				(_Uptr = _Traits::find(_Vptr, _Nm, *_Ptr)) != 0;
; 1908 : 				_Nm -= _Uptr - _Vptr + 1, _Vptr = _Uptr + 1)
; 1909 : 				if (_Traits::compare(_Uptr, _Ptr, _Count) == 0)
; 1910 : 					return (_Uptr - this->_Myptr());	// found a match
; 1911 : 			}
; 1912 : 
; 1913 : 		return (npos);	// no match
; 1914 : 		}
; 1915 : 
; 1916 : 	size_type find(const _Elem *_Ptr, size_type _Off = 0) const
; 1917 : 		{	// look for [_Ptr, <null>) beginning at or after _Off
; 1918 : 		_DEBUG_POINTER(_Ptr);
; 1919 : 		return (find(_Ptr, _Off, _Traits::length(_Ptr)));
; 1920 : 		}
; 1921 : 
; 1922 : 	size_type find(_Elem _Ch, size_type _Off = 0) const
; 1923 : 		{	// look for _Ch at or after _Off
; 1924 : 		return (find((const _Elem *)&_Ch, _Off, 1));
; 1925 : 		}
; 1926 : 
; 1927 : 	size_type rfind(const _Myt& _Right, size_type _Off = npos) const _NOEXCEPT
; 1928 : 		{	// look for _Right beginning before _Off
; 1929 : 		return (rfind(_Right._Myptr(), _Off, _Right.size()));
; 1930 : 		}
; 1931 : 
; 1932 : 	size_type rfind(const _Elem *_Ptr,
; 1933 : 		size_type _Off, size_type _Count) const
; 1934 : 		{	// look for [_Ptr, _Ptr + _Count) beginning before _Off
; 1935 :  #if _ITERATOR_DEBUG_LEVEL == 2
; 1936 : 		if (_Count != 0)
; 1937 : 			_DEBUG_POINTER(_Ptr);
; 1938 :  #endif /* _ITERATOR_DEBUG_LEVEL == 2 */
; 1939 : 
; 1940 : 		if (_Count == 0)
; 1941 : 			return (_Off < this->_Mysize ? _Off
; 1942 : 				: this->_Mysize);	// null always matches
; 1943 : 		if (_Count <= this->_Mysize)
; 1944 : 			{	// room for match, look for it
; 1945 : 			const _Elem *_Uptr = this->_Myptr() +
; 1946 : 				(_Off < this->_Mysize - _Count ? _Off
; 1947 : 					: this->_Mysize - _Count);
; 1948 : 			for (; ; --_Uptr)
; 1949 : 				if (_Traits::eq(*_Uptr, *_Ptr)
; 1950 : 					&& _Traits::compare(_Uptr, _Ptr, _Count) == 0)
; 1951 : 					return (_Uptr - this->_Myptr());	// found a match
; 1952 : 				else if (_Uptr == this->_Myptr())
; 1953 : 					break;	// at beginning, no more chance for match
; 1954 : 			}
; 1955 : 
; 1956 : 		return (npos);	// no match
; 1957 : 		}
; 1958 : 
; 1959 : 	size_type rfind(const _Elem *_Ptr, size_type _Off = npos) const
; 1960 : 		{	// look for [_Ptr, <null>) beginning before _Off
; 1961 : 		_DEBUG_POINTER(_Ptr);
; 1962 : 		return (rfind(_Ptr, _Off, _Traits::length(_Ptr)));
; 1963 : 		}
; 1964 : 
; 1965 : 	size_type rfind(_Elem _Ch, size_type _Off = npos) const
; 1966 : 		{	// look for _Ch before _Off
; 1967 : 		return (rfind((const _Elem *)&_Ch, _Off, 1));
; 1968 : 		}
; 1969 : 
; 1970 : 	size_type find_first_of(const _Myt& _Right,
; 1971 : 		size_type _Off = 0) const _NOEXCEPT
; 1972 : 		{	// look for one of _Right at or after _Off
; 1973 : 		return (find_first_of(_Right._Myptr(), _Off, _Right.size()));
; 1974 : 		}
; 1975 : 
; 1976 : 	size_type find_first_of(const _Elem *_Ptr,
; 1977 : 		size_type _Off, size_type _Count) const
; 1978 : 		{	// look for one of [_Ptr, _Ptr + _Count) at or after _Off
; 1979 :  #if _ITERATOR_DEBUG_LEVEL == 2
; 1980 : 		if (_Count != 0)
; 1981 : 			_DEBUG_POINTER(_Ptr);
; 1982 :  #endif /* _ITERATOR_DEBUG_LEVEL == 2 */
; 1983 : 
; 1984 : 		if (0 < _Count && _Off < this->_Mysize)
; 1985 : 			{	// room for match, look for it
; 1986 : 			const _Elem *const _Vptr = this->_Myptr() + this->_Mysize;
; 1987 : 			for (const _Elem *_Uptr = this->_Myptr() + _Off;
; 1988 : 				_Uptr < _Vptr; ++_Uptr)
; 1989 : 				if (_Traits::find(_Ptr, _Count, *_Uptr) != 0)
; 1990 : 					return (_Uptr - this->_Myptr());	// found a match
; 1991 : 			}
; 1992 : 
; 1993 : 		return (npos);	// no match
; 1994 : 		}
; 1995 : 
; 1996 : 	size_type find_first_of(const _Elem *_Ptr,
; 1997 : 		size_type _Off = 0) const
; 1998 : 		{	// look for one of [_Ptr, <null>) at or after _Off
; 1999 : 		_DEBUG_POINTER(_Ptr);
; 2000 : 		return (find_first_of(_Ptr, _Off, _Traits::length(_Ptr)));
; 2001 : 		}
; 2002 : 
; 2003 : 	size_type find_first_of(_Elem _Ch,
; 2004 : 		size_type _Off = 0) const
; 2005 : 		{	// look for _Ch at or after _Off
; 2006 : 		return (find((const _Elem *)&_Ch, _Off, 1));
; 2007 : 		}
; 2008 : 
; 2009 : 	size_type find_last_of(const _Myt& _Right,
; 2010 : 		size_type _Off = npos) const _NOEXCEPT
; 2011 : 		{	// look for one of _Right before _Off
; 2012 : 		return (find_last_of(_Right._Myptr(), _Off, _Right.size()));
; 2013 : 		}
; 2014 : 
; 2015 : 	size_type find_last_of(const _Elem *_Ptr,
; 2016 : 		size_type _Off, size_type _Count) const
; 2017 : 		{	// look for one of [_Ptr, _Ptr + _Count) before _Off
; 2018 :  #if _ITERATOR_DEBUG_LEVEL == 2
; 2019 : 		if (_Count != 0)
; 2020 : 			_DEBUG_POINTER(_Ptr);
; 2021 :  #endif /* _ITERATOR_DEBUG_LEVEL == 2 */
; 2022 : 
; 2023 : 		if (0 < _Count && 0 < this->_Mysize)
; 2024 : 			{	// worth searching, do it
; 2025 : 			const _Elem *_Uptr = this->_Myptr()
; 2026 : 				+ (_Off < this->_Mysize ? _Off : this->_Mysize - 1);
; 2027 : 			for (; ; --_Uptr)
; 2028 : 				if (_Traits::find(_Ptr, _Count, *_Uptr) != 0)
; 2029 : 					return (_Uptr - this->_Myptr());	// found a match
; 2030 : 				else if (_Uptr == this->_Myptr())
; 2031 : 					break;	// at beginning, no more chance for match
; 2032 : 			}
; 2033 : 
; 2034 : 		return (npos);	// no match
; 2035 : 		}
; 2036 : 
; 2037 : 	size_type find_last_of(const _Elem *_Ptr,
; 2038 : 		size_type _Off = npos) const
; 2039 : 		{	// look for one of [_Ptr, <null>) before _Off
; 2040 : 		_DEBUG_POINTER(_Ptr);
; 2041 : 		return (find_last_of(_Ptr, _Off, _Traits::length(_Ptr)));
; 2042 : 		}
; 2043 : 
; 2044 : 	size_type find_last_of(_Elem _Ch,
; 2045 : 		size_type _Off = npos) const
; 2046 : 		{	// look for _Ch before _Off
; 2047 : 		return (rfind((const _Elem *)&_Ch, _Off, 1));
; 2048 : 		}
; 2049 : 
; 2050 : 	size_type find_first_not_of(const _Myt& _Right,
; 2051 : 		size_type _Off = 0) const _NOEXCEPT
; 2052 : 		{	// look for none of _Right at or after _Off
; 2053 : 		return (find_first_not_of(_Right._Myptr(), _Off,
; 2054 : 			_Right.size()));
; 2055 : 		}
; 2056 : 
; 2057 : 	size_type find_first_not_of(const _Elem *_Ptr,
; 2058 : 		size_type _Off, size_type _Count) const
; 2059 : 		{	// look for none of [_Ptr, _Ptr + _Count) at or after _Off
; 2060 :  #if _ITERATOR_DEBUG_LEVEL == 2
; 2061 : 		if (_Count != 0)
; 2062 : 			_DEBUG_POINTER(_Ptr);
; 2063 :  #endif /* _ITERATOR_DEBUG_LEVEL == 2 */
; 2064 : 
; 2065 : 		if (_Off < this->_Mysize)
; 2066 : 			{	// room for match, look for it
; 2067 : 			const _Elem *const _Vptr = this->_Myptr() + this->_Mysize;
; 2068 : 			for (const _Elem *_Uptr = this->_Myptr() + _Off;
; 2069 : 				_Uptr < _Vptr; ++_Uptr)
; 2070 : 				if (_Traits::find(_Ptr, _Count, *_Uptr) == 0)
; 2071 : 					return (_Uptr - this->_Myptr());
; 2072 : 			}
; 2073 : 		return (npos);
; 2074 : 		}
; 2075 : 
; 2076 : 	size_type find_first_not_of(const _Elem *_Ptr,
; 2077 : 		size_type _Off = 0) const
; 2078 : 		{	// look for one of [_Ptr, <null>) at or after _Off
; 2079 : 		_DEBUG_POINTER(_Ptr);
; 2080 : 		return (find_first_not_of(_Ptr, _Off, _Traits::length(_Ptr)));
; 2081 : 		}
; 2082 : 
; 2083 : 	size_type find_first_not_of(_Elem _Ch,
; 2084 : 		size_type _Off = 0) const
; 2085 : 		{	// look for non _Ch at or after _Off
; 2086 : 		return (find_first_not_of((const _Elem *)&_Ch, _Off, 1));
; 2087 : 		}
; 2088 : 
; 2089 : 	size_type find_last_not_of(const _Myt& _Right,
; 2090 : 		size_type _Off = npos) const _NOEXCEPT
; 2091 : 		{	// look for none of _Right before _Off
; 2092 : 		return (find_last_not_of(_Right._Myptr(), _Off, _Right.size()));
; 2093 : 		}
; 2094 : 
; 2095 : 	size_type find_last_not_of(const _Elem *_Ptr,
; 2096 : 		size_type _Off, size_type _Count) const
; 2097 : 		{	// look for none of [_Ptr, _Ptr + _Count) before _Off
; 2098 :  #if _ITERATOR_DEBUG_LEVEL == 2
; 2099 : 		if (_Count != 0)
; 2100 : 			_DEBUG_POINTER(_Ptr);
; 2101 :  #endif /* _ITERATOR_DEBUG_LEVEL == 2 */
; 2102 : 
; 2103 : 		if (0 < this->_Mysize)
; 2104 : 			{	// worth searching, do it
; 2105 : 			const _Elem *_Uptr = this->_Myptr()
; 2106 : 				+ (_Off < this->_Mysize ? _Off : this->_Mysize - 1);
; 2107 : 			for (; ; --_Uptr)
; 2108 : 				if (_Traits::find(_Ptr, _Count, *_Uptr) == 0)
; 2109 : 					return (_Uptr - this->_Myptr());
; 2110 : 				else if (_Uptr == this->_Myptr())
; 2111 : 					break;
; 2112 : 			}
; 2113 : 		return (npos);
; 2114 : 		}
; 2115 : 
; 2116 : 	size_type find_last_not_of(const _Elem *_Ptr,
; 2117 : 		size_type _Off = npos) const
; 2118 : 		{	// look for none of [_Ptr, <null>) before _Off
; 2119 : 		_DEBUG_POINTER(_Ptr);
; 2120 : 		return (find_last_not_of(_Ptr, _Off, _Traits::length(_Ptr)));
; 2121 : 		}
; 2122 : 
; 2123 : 	size_type find_last_not_of(_Elem _Ch,
; 2124 : 		size_type _Off = npos) const
; 2125 : 		{	// look for non _Ch before _Off
; 2126 : 		return (find_last_not_of((const _Elem *)&_Ch, _Off, 1));
; 2127 : 		}
; 2128 : 
; 2129 : 	_Myt substr(size_type _Off = 0, size_type _Count = npos) const
; 2130 : 		{	// return [_Off, _Off + _Count) as new string
; 2131 : 		return (_Myt(*this, _Off, _Count, get_allocator()));
; 2132 : 		}
; 2133 : 
; 2134 : 	int compare(const _Myt& _Right) const _NOEXCEPT
; 2135 : 		{	// compare [0, _Mysize) with _Right
; 2136 : 		return (compare(0, this->_Mysize, _Right._Myptr(), _Right.size()));
; 2137 : 		}
; 2138 : 
; 2139 : 	int compare(size_type _Off, size_type _N0,
; 2140 : 		const _Myt& _Right) const
; 2141 : 		{	// compare [_Off, _Off + _N0) with _Right
; 2142 : 		return (compare(_Off, _N0, _Right, 0, npos));
; 2143 : 		}
; 2144 : 
; 2145 : 	int compare(size_type _Off,
; 2146 : 		size_type _N0, const _Myt& _Right,
; 2147 : 		size_type _Roff, size_type _Count) const
; 2148 : 		{	// compare [_Off, _Off + _N0) with _Right [_Roff, _Roff + _Count)
; 2149 : 		if (_Right.size() < _Roff)
; 2150 : 			_Xran();	// _Off off end
; 2151 : 		if (_Right._Mysize - _Roff < _Count)
; 2152 : 			_Count = _Right._Mysize - _Roff;	// trim _Count to size
; 2153 : 		return (compare(_Off, _N0, _Right._Myptr() + _Roff, _Count));
; 2154 : 		}
; 2155 : 
; 2156 : 	int compare(const _Elem *_Ptr) const
; 2157 : 		{	// compare [0, _Mysize) with [_Ptr, <null>)
; 2158 : 		_DEBUG_POINTER(_Ptr);
; 2159 : 		return (compare(0, this->_Mysize, _Ptr, _Traits::length(_Ptr)));
; 2160 : 		}
; 2161 : 
; 2162 : 	int compare(size_type _Off, size_type _N0, const _Elem *_Ptr) const
; 2163 : 		{	// compare [_Off, _Off + _N0) with [_Ptr, <null>)
; 2164 : 		_DEBUG_POINTER(_Ptr);
; 2165 : 		return (compare(_Off, _N0, _Ptr, _Traits::length(_Ptr)));
; 2166 : 		}
; 2167 : 
; 2168 : 	int compare(size_type _Off,
; 2169 : 		size_type _N0, const _Elem *_Ptr, size_type _Count) const
; 2170 : 		{	// compare [_Off, _Off + _N0) with [_Ptr, _Ptr + _Count)
; 2171 :  #if _ITERATOR_DEBUG_LEVEL == 2
; 2172 : 		if (_Count != 0)
; 2173 : 			_DEBUG_POINTER(_Ptr);
; 2174 :  #endif /* _ITERATOR_DEBUG_LEVEL == 2 */
; 2175 : 
; 2176 : 		if (this->_Mysize < _Off)
; 2177 : 			_Xran();	// _Off off end
; 2178 : 		if (this->_Mysize - _Off < _N0)
; 2179 : 			_N0 = this->_Mysize - _Off;	// trim _N0 to size
; 2180 : 
; 2181 : 		size_type _Ans = _Traits::compare(this->_Myptr() + _Off, _Ptr,
; 2182 : 			_N0 < _Count ? _N0 : _Count);
; 2183 : 		return (_Ans != 0 ? (int)_Ans : _N0 < _Count ? -1
; 2184 : 			: _N0 == _Count ? 0 : +1);
; 2185 : 		}
; 2186 : 
; 2187 : 	allocator_type get_allocator() const _NOEXCEPT
; 2188 : 		{	// return allocator object for values
; 2189 : 		return (this->_Getal());
; 2190 : 		}
; 2191 : 
; 2192 : 	void _Chassign(size_type _Off, size_type _Count, _Elem _Ch)
; 2193 : 		{	// assign _Count copies of _Ch beginning at _Off
; 2194 : 		if (_Count == 1)
; 2195 : 			_Traits::assign(*(this->_Myptr() + _Off), _Ch);
; 2196 : 		else
; 2197 : 			_Traits::assign(this->_Myptr() + _Off, _Count, _Ch);
; 2198 : 		}
; 2199 : 
; 2200 : 	void _Copy(size_type _Newsize, size_type _Oldlen)
; 2201 : 		{	// copy _Oldlen elements to newly allocated buffer
; 2202 : 		size_type _Newres = _Newsize | this->_ALLOC_MASK;
; 2203 : 		if (max_size() < _Newres)
; 2204 : 			_Newres = _Newsize;	// undo roundup if too big
; 2205 : 		else if (this->_Myres / 2 <= _Newres / 3)
; 2206 : 			;
; 2207 : 		else if (this->_Myres <= max_size() - this->_Myres / 2)
; 2208 : 			_Newres = this->_Myres
; 2209 : 				+ this->_Myres / 2;	// grow exponentially if possible
; 2210 : 		else
; 2211 : 			_Newres = max_size();	// settle for max_size()
; 2212 : 
; 2213 : 		_Elem *_Ptr;
; 2214 : 		_TRY_BEGIN
; 2215 : 			_Ptr = this->_Getal().allocate(_Newres + 1);
; 2216 : 		_CATCH_ALL
; 2217 : 			_Newres = _Newsize;	// allocation failed, undo roundup and retry
; 2218 : 			_TRY_BEGIN
; 2219 : 				_Ptr = this->_Getal().allocate(_Newres + 1);
; 2220 : 			_CATCH_ALL
; 2221 : 			_Tidy(true);	// failed again, discard storage and reraise
; 2222 : 			_RERAISE;
; 2223 : 			_CATCH_END
; 2224 : 		_CATCH_END
; 2225 : 
; 2226 : 		if (0 < _Oldlen)
; 2227 : 			_Traits::copy(_Ptr, this->_Myptr(),
; 2228 : 				_Oldlen);	// copy existing elements
; 2229 : 		_Tidy(true);
; 2230 : 		this->_Getal().construct(&this->_Bx._Ptr, _Ptr);
; 2231 : 		this->_Myres = _Newres;
; 2232 : 		_Eos(_Oldlen);
; 2233 : 		}
; 2234 : 
; 2235 : 	void _Eos(size_type _Newsize)
; 2236 : 		{	// set new length and null terminator
; 2237 : 		_Traits::assign(this->_Myptr()[this->_Mysize = _Newsize], _Elem());

  0012b	c7 44 24 28 00
	00 00 00	 mov	 DWORD PTR _strIconFileName$2[esp+108], 0
; File c:\program files (x86)\microsoft visual studio 12.0\vc\include\iosfwd

; 564  : 		_Left = _Right;

  00133	c6 44 24 18 00	 mov	 BYTE PTR _strIconFileName$2[esp+92], 0
; File d:\metin2\metin2\client_source_clean\client_source_clean\source\userinterface\pythonquest.cpp

; 196  : 	else

  00138	eb 5a		 jmp	 SHORT $LN157@questGetQu
$LN2@questGetQu:

; 197  : 	{
; 198  : 		{
; 199  : 			//     .
; 200  : 			std::string strIconFileName = "season1/icon/scroll_open.tga";

  0013a	68 00 00 00 00	 push	 OFFSET ??_C@_0BN@GHGBHNOC@season1?1icon?1scroll_open?4tga?$AA@
  0013f	8d 4c 24 34	 lea	 ecx, DWORD PTR _strIconFileName$3[esp+96]
  00143	e8 00 00 00 00	 call	 ??0?$basic_string@DU?$char_traits@D@std@@V?$allocator@D@2@@std@@QAE@PBD@Z ; std::basic_string<char,std::char_traits<char>,std::allocator<char> >::basic_string<char,std::char_traits<char>,std::allocator<char> >
  00148	c7 44 24 58 01
	00 00 00	 mov	 DWORD PTR __$EHRec$[esp+100], 1
; File c:\program files (x86)\microsoft visual studio 12.0\vc\include\xstring

; 520  : 			: this->_Bx._Buf);

  00150	8d 44 24 30	 lea	 eax, DWORD PTR _strIconFileName$3[esp+92]
  00154	83 7c 24 44 10	 cmp	 DWORD PTR _strIconFileName$3[esp+112], 16 ; 00000010H
; File d:\metin2\metin2\client_source_clean\client_source_clean\source\userinterface\pythonquest.cpp

; 201  : 			pImage = (CGraphicImage *)CResourceManager::Instance().GetResourcePointer(strIconFileName.c_str());

  00159	8b 0d 00 00 00
	00		 mov	 ecx, DWORD PTR ?ms_singleton@?$CSingleton@VCResourceManager@@@@0PAVCResourceManager@@A ; CSingleton<CResourceManager>::ms_singleton
; File c:\program files (x86)\microsoft visual studio 12.0\vc\include\xstring

; 520  : 			: this->_Bx._Buf);

  0015f	0f 43 44 24 30	 cmovae	 eax, DWORD PTR _strIconFileName$3[esp+92]
; File d:\metin2\metin2\client_source_clean\client_source_clean\source\userinterface\pythonquest.cpp

; 201  : 			pImage = (CGraphicImage *)CResourceManager::Instance().GetResourcePointer(strIconFileName.c_str());

  00164	50		 push	 eax
  00165	e8 00 00 00 00	 call	 ?GetResourcePointer@CResourceManager@@QAEPAVCResource@@PBD@Z ; CResourceManager::GetResourcePointer
; File c:\program files (x86)\microsoft visual studio 12.0\vc\include\xstring

; 2275 : 		else if (this->_BUF_SIZE <= this->_Myres)

  0016a	83 7c 24 44 10	 cmp	 DWORD PTR _strIconFileName$3[esp+112], 16 ; 00000010H
; File d:\metin2\metin2\client_source_clean\client_source_clean\source\userinterface\pythonquest.cpp

; 201  : 			pImage = (CGraphicImage *)CResourceManager::Instance().GetResourcePointer(strIconFileName.c_str());

  0016f	8b f8		 mov	 edi, eax
; File c:\program files (x86)\microsoft visual studio 12.0\vc\include\xstring

; 2275 : 		else if (this->_BUF_SIZE <= this->_Myres)

  00171	72 0c		 jb	 SHORT $LN147@questGetQu
; File c:\program files (x86)\microsoft visual studio 12.0\vc\include\xmemory0

; 573  : 		::operator delete(_Ptr);

  00173	ff 74 24 30	 push	 DWORD PTR _strIconFileName$3[esp+92]
  00177	e8 00 00 00 00	 call	 ??3@YAXPAX@Z		; operator delete
  0017c	83 c4 04	 add	 esp, 4
$LN147@questGetQu:
; File c:\program files (x86)\microsoft visual studio 12.0\vc\include\xstring

; 2284 : 		this->_Myres = this->_BUF_SIZE - 1;

  0017f	c7 44 24 44 0f
	00 00 00	 mov	 DWORD PTR _strIconFileName$3[esp+112], 15 ; 0000000fH

; 1794 : 		}
; 1795 : 
; 1796 : 	_SCL_INSECURE_DEPRECATE
; 1797 : 
; 1798 : 	size_type copy(_Elem *_Ptr,
; 1799 : 		size_type _Count, size_type _Off = 0) const
; 1800 : 		{	// copy [_Off, _Off + _Count) to [_Ptr, _Ptr + _Count)
; 1801 :  #if _ITERATOR_DEBUG_LEVEL == 2
; 1802 : 		if (_Count != 0)
; 1803 : 			_DEBUG_POINTER(_Ptr);
; 1804 :  #endif /* _ITERATOR_DEBUG_LEVEL == 2 */
; 1805 : 
; 1806 : 		if (this->_Mysize < _Off)
; 1807 : 			_Xran();	// _Off off end
; 1808 : 		if (this->_Mysize - _Off < _Count)
; 1809 : 			_Count = this->_Mysize - _Off;
; 1810 : 		_Traits::copy(_Ptr, this->_Myptr() + _Off, _Count);
; 1811 : 		return (_Count);
; 1812 : 		}
; 1813 : 
; 1814 : 	size_type _Copy_s(_Elem *_Dest, size_type _Dest_size,
; 1815 : 		size_type _Count, size_type _Off = 0) const
; 1816 : 		{	// copy [_Off, _Off + _Count) to [_Dest, _Dest + _Count)
; 1817 :  #if _ITERATOR_DEBUG_LEVEL == 2
; 1818 : 		if (_Count != 0)
; 1819 : 			_DEBUG_POINTER(_Dest);
; 1820 :  #endif /* _ITERATOR_DEBUG_LEVEL == 2 */
; 1821 : 
; 1822 : 		if (this->_Mysize < _Off)
; 1823 : 			_Xran();	// _Off off end
; 1824 : 		if (this->_Mysize - _Off < _Count)
; 1825 : 			_Count = this->_Mysize - _Off;
; 1826 : 		_Traits::_Copy_s(_Dest, _Dest_size, this->_Myptr() + _Off, _Count);
; 1827 : 		return (_Count);
; 1828 : 		}
; 1829 : 
; 1830 : 	void _Swap_bx(_Myt& _Right)
; 1831 : 		{	// exchange _Bx with _Right._Bx
; 1832 : 		if (this->_BUF_SIZE <= this->_Myres)
; 1833 : 			if (this->_BUF_SIZE <= _Right._Myres)
; 1834 : 				_Swap_adl(this->_Bx._Ptr, _Right._Bx._Ptr);
; 1835 : 			else
; 1836 : 				{	// swap large with small
; 1837 : 				pointer _Ptr = this->_Bx._Ptr;
; 1838 : 				this->_Getal().destroy(&this->_Bx._Ptr);
; 1839 : 				_Traits::copy(this->_Bx._Buf,
; 1840 : 					_Right._Bx._Buf, _Right._Mysize + 1);
; 1841 : 				this->_Getal().construct(&_Right._Bx._Ptr, _Ptr);
; 1842 : 				}
; 1843 : 		else
; 1844 : 			if (_Right._Myres < this->_BUF_SIZE)
; 1845 : 				_STD swap(this->_Bx._Buf, _Right._Bx._Buf);
; 1846 : 			else
; 1847 : 				{	// swap small with large
; 1848 : 				pointer _Ptr = _Right._Bx._Ptr;
; 1849 : 				this->_Getal().destroy(&_Right._Bx._Ptr);
; 1850 : 				_Traits::copy(_Right._Bx._Buf,
; 1851 : 					this->_Bx._Buf, this->_Mysize + 1);
; 1852 : 				this->_Getal().construct(&this->_Bx._Ptr, _Ptr);
; 1853 : 				}
; 1854 : 		}
; 1855 : 
; 1856 : 	void swap(_Myt& _Right)
; 1857 : 		{	// exchange contents with _Right
; 1858 : 		if (this == &_Right)
; 1859 : 			;	// same object, do nothing
; 1860 : 		else if (this->_Getal() == _Right._Getal())
; 1861 : 			{	// same allocator, swap control information
; 1862 : 			this->_Swap_all(_Right);
; 1863 : 			_Swap_bx(_Right);
; 1864 : 			_STD swap(this->_Mysize, _Right._Mysize);
; 1865 : 			_STD swap(this->_Myres, _Right._Myres);
; 1866 : 			}
; 1867 : 
; 1868 : 		else if (_Alty::propagate_on_container_swap::value)
; 1869 : 			{	// swap allocators and control information
; 1870 : 			this->_Swap_alloc(_Right);
; 1871 : 			_Swap_bx(_Right);
; 1872 : 			_STD swap(this->_Bx, _Right._Bx);	// pointer bitwise copyable?
; 1873 : 			_STD swap(this->_Mysize, _Right._Mysize);
; 1874 : 			_STD swap(this->_Myres, _Right._Myres);
; 1875 : 			}
; 1876 : 
; 1877 : 		else
; 1878 : 			{	// different allocator, do multiple assigns
; 1879 : 			_Myt _Tmp = *this;
; 1880 : 
; 1881 : 			*this = _Right;
; 1882 : 			_Right = _Tmp;
; 1883 : 			}
; 1884 : 		}
; 1885 : 
; 1886 : 	size_type find(const _Myt& _Right, size_type _Off = 0) const _NOEXCEPT
; 1887 : 		{	// look for _Right beginning at or after _Off
; 1888 : 		return (find(_Right._Myptr(), _Off, _Right.size()));
; 1889 : 		}
; 1890 : 
; 1891 : 	size_type find(const _Elem *_Ptr,
; 1892 : 		size_type _Off, size_type _Count) const
; 1893 : 		{	// look for [_Ptr, _Ptr + _Count) beginning at or after _Off
; 1894 :  #if _ITERATOR_DEBUG_LEVEL == 2
; 1895 : 		if (_Count != 0)
; 1896 : 			_DEBUG_POINTER(_Ptr);
; 1897 :  #endif /* _ITERATOR_DEBUG_LEVEL == 2 */
; 1898 : 
; 1899 : 		if (_Count == 0 && _Off <= this->_Mysize)
; 1900 : 			return (_Off);	// null string always matches (if inside string)
; 1901 : 
; 1902 : 		size_type _Nm;
; 1903 : 		if (_Off < this->_Mysize && _Count <= (_Nm = this->_Mysize - _Off))
; 1904 : 			{	// room for match, look for it
; 1905 : 			const _Elem *_Uptr, *_Vptr;
; 1906 : 			for (_Nm -= _Count - 1, _Vptr = this->_Myptr() + _Off;
; 1907 : 				(_Uptr = _Traits::find(_Vptr, _Nm, *_Ptr)) != 0;
; 1908 : 				_Nm -= _Uptr - _Vptr + 1, _Vptr = _Uptr + 1)
; 1909 : 				if (_Traits::compare(_Uptr, _Ptr, _Count) == 0)
; 1910 : 					return (_Uptr - this->_Myptr());	// found a match
; 1911 : 			}
; 1912 : 
; 1913 : 		return (npos);	// no match
; 1914 : 		}
; 1915 : 
; 1916 : 	size_type find(const _Elem *_Ptr, size_type _Off = 0) const
; 1917 : 		{	// look for [_Ptr, <null>) beginning at or after _Off
; 1918 : 		_DEBUG_POINTER(_Ptr);
; 1919 : 		return (find(_Ptr, _Off, _Traits::length(_Ptr)));
; 1920 : 		}
; 1921 : 
; 1922 : 	size_type find(_Elem _Ch, size_type _Off = 0) const
; 1923 : 		{	// look for _Ch at or after _Off
; 1924 : 		return (find((const _Elem *)&_Ch, _Off, 1));
; 1925 : 		}
; 1926 : 
; 1927 : 	size_type rfind(const _Myt& _Right, size_type _Off = npos) const _NOEXCEPT
; 1928 : 		{	// look for _Right beginning before _Off
; 1929 : 		return (rfind(_Right._Myptr(), _Off, _Right.size()));
; 1930 : 		}
; 1931 : 
; 1932 : 	size_type rfind(const _Elem *_Ptr,
; 1933 : 		size_type _Off, size_type _Count) const
; 1934 : 		{	// look for [_Ptr, _Ptr + _Count) beginning before _Off
; 1935 :  #if _ITERATOR_DEBUG_LEVEL == 2
; 1936 : 		if (_Count != 0)
; 1937 : 			_DEBUG_POINTER(_Ptr);
; 1938 :  #endif /* _ITERATOR_DEBUG_LEVEL == 2 */
; 1939 : 
; 1940 : 		if (_Count == 0)
; 1941 : 			return (_Off < this->_Mysize ? _Off
; 1942 : 				: this->_Mysize);	// null always matches
; 1943 : 		if (_Count <= this->_Mysize)
; 1944 : 			{	// room for match, look for it
; 1945 : 			const _Elem *_Uptr = this->_Myptr() +
; 1946 : 				(_Off < this->_Mysize - _Count ? _Off
; 1947 : 					: this->_Mysize - _Count);
; 1948 : 			for (; ; --_Uptr)
; 1949 : 				if (_Traits::eq(*_Uptr, *_Ptr)
; 1950 : 					&& _Traits::compare(_Uptr, _Ptr, _Count) == 0)
; 1951 : 					return (_Uptr - this->_Myptr());	// found a match
; 1952 : 				else if (_Uptr == this->_Myptr())
; 1953 : 					break;	// at beginning, no more chance for match
; 1954 : 			}
; 1955 : 
; 1956 : 		return (npos);	// no match
; 1957 : 		}
; 1958 : 
; 1959 : 	size_type rfind(const _Elem *_Ptr, size_type _Off = npos) const
; 1960 : 		{	// look for [_Ptr, <null>) beginning before _Off
; 1961 : 		_DEBUG_POINTER(_Ptr);
; 1962 : 		return (rfind(_Ptr, _Off, _Traits::length(_Ptr)));
; 1963 : 		}
; 1964 : 
; 1965 : 	size_type rfind(_Elem _Ch, size_type _Off = npos) const
; 1966 : 		{	// look for _Ch before _Off
; 1967 : 		return (rfind((const _Elem *)&_Ch, _Off, 1));
; 1968 : 		}
; 1969 : 
; 1970 : 	size_type find_first_of(const _Myt& _Right,
; 1971 : 		size_type _Off = 0) const _NOEXCEPT
; 1972 : 		{	// look for one of _Right at or after _Off
; 1973 : 		return (find_first_of(_Right._Myptr(), _Off, _Right.size()));
; 1974 : 		}
; 1975 : 
; 1976 : 	size_type find_first_of(const _Elem *_Ptr,
; 1977 : 		size_type _Off, size_type _Count) const
; 1978 : 		{	// look for one of [_Ptr, _Ptr + _Count) at or after _Off
; 1979 :  #if _ITERATOR_DEBUG_LEVEL == 2
; 1980 : 		if (_Count != 0)
; 1981 : 			_DEBUG_POINTER(_Ptr);
; 1982 :  #endif /* _ITERATOR_DEBUG_LEVEL == 2 */
; 1983 : 
; 1984 : 		if (0 < _Count && _Off < this->_Mysize)
; 1985 : 			{	// room for match, look for it
; 1986 : 			const _Elem *const _Vptr = this->_Myptr() + this->_Mysize;
; 1987 : 			for (const _Elem *_Uptr = this->_Myptr() + _Off;
; 1988 : 				_Uptr < _Vptr; ++_Uptr)
; 1989 : 				if (_Traits::find(_Ptr, _Count, *_Uptr) != 0)
; 1990 : 					return (_Uptr - this->_Myptr());	// found a match
; 1991 : 			}
; 1992 : 
; 1993 : 		return (npos);	// no match
; 1994 : 		}
; 1995 : 
; 1996 : 	size_type find_first_of(const _Elem *_Ptr,
; 1997 : 		size_type _Off = 0) const
; 1998 : 		{	// look for one of [_Ptr, <null>) at or after _Off
; 1999 : 		_DEBUG_POINTER(_Ptr);
; 2000 : 		return (find_first_of(_Ptr, _Off, _Traits::length(_Ptr)));
; 2001 : 		}
; 2002 : 
; 2003 : 	size_type find_first_of(_Elem _Ch,
; 2004 : 		size_type _Off = 0) const
; 2005 : 		{	// look for _Ch at or after _Off
; 2006 : 		return (find((const _Elem *)&_Ch, _Off, 1));
; 2007 : 		}
; 2008 : 
; 2009 : 	size_type find_last_of(const _Myt& _Right,
; 2010 : 		size_type _Off = npos) const _NOEXCEPT
; 2011 : 		{	// look for one of _Right before _Off
; 2012 : 		return (find_last_of(_Right._Myptr(), _Off, _Right.size()));
; 2013 : 		}
; 2014 : 
; 2015 : 	size_type find_last_of(const _Elem *_Ptr,
; 2016 : 		size_type _Off, size_type _Count) const
; 2017 : 		{	// look for one of [_Ptr, _Ptr + _Count) before _Off
; 2018 :  #if _ITERATOR_DEBUG_LEVEL == 2
; 2019 : 		if (_Count != 0)
; 2020 : 			_DEBUG_POINTER(_Ptr);
; 2021 :  #endif /* _ITERATOR_DEBUG_LEVEL == 2 */
; 2022 : 
; 2023 : 		if (0 < _Count && 0 < this->_Mysize)
; 2024 : 			{	// worth searching, do it
; 2025 : 			const _Elem *_Uptr = this->_Myptr()
; 2026 : 				+ (_Off < this->_Mysize ? _Off : this->_Mysize - 1);
; 2027 : 			for (; ; --_Uptr)
; 2028 : 				if (_Traits::find(_Ptr, _Count, *_Uptr) != 0)
; 2029 : 					return (_Uptr - this->_Myptr());	// found a match
; 2030 : 				else if (_Uptr == this->_Myptr())
; 2031 : 					break;	// at beginning, no more chance for match
; 2032 : 			}
; 2033 : 
; 2034 : 		return (npos);	// no match
; 2035 : 		}
; 2036 : 
; 2037 : 	size_type find_last_of(const _Elem *_Ptr,
; 2038 : 		size_type _Off = npos) const
; 2039 : 		{	// look for one of [_Ptr, <null>) before _Off
; 2040 : 		_DEBUG_POINTER(_Ptr);
; 2041 : 		return (find_last_of(_Ptr, _Off, _Traits::length(_Ptr)));
; 2042 : 		}
; 2043 : 
; 2044 : 	size_type find_last_of(_Elem _Ch,
; 2045 : 		size_type _Off = npos) const
; 2046 : 		{	// look for _Ch before _Off
; 2047 : 		return (rfind((const _Elem *)&_Ch, _Off, 1));
; 2048 : 		}
; 2049 : 
; 2050 : 	size_type find_first_not_of(const _Myt& _Right,
; 2051 : 		size_type _Off = 0) const _NOEXCEPT
; 2052 : 		{	// look for none of _Right at or after _Off
; 2053 : 		return (find_first_not_of(_Right._Myptr(), _Off,
; 2054 : 			_Right.size()));
; 2055 : 		}
; 2056 : 
; 2057 : 	size_type find_first_not_of(const _Elem *_Ptr,
; 2058 : 		size_type _Off, size_type _Count) const
; 2059 : 		{	// look for none of [_Ptr, _Ptr + _Count) at or after _Off
; 2060 :  #if _ITERATOR_DEBUG_LEVEL == 2
; 2061 : 		if (_Count != 0)
; 2062 : 			_DEBUG_POINTER(_Ptr);
; 2063 :  #endif /* _ITERATOR_DEBUG_LEVEL == 2 */
; 2064 : 
; 2065 : 		if (_Off < this->_Mysize)
; 2066 : 			{	// room for match, look for it
; 2067 : 			const _Elem *const _Vptr = this->_Myptr() + this->_Mysize;
; 2068 : 			for (const _Elem *_Uptr = this->_Myptr() + _Off;
; 2069 : 				_Uptr < _Vptr; ++_Uptr)
; 2070 : 				if (_Traits::find(_Ptr, _Count, *_Uptr) == 0)
; 2071 : 					return (_Uptr - this->_Myptr());
; 2072 : 			}
; 2073 : 		return (npos);
; 2074 : 		}
; 2075 : 
; 2076 : 	size_type find_first_not_of(const _Elem *_Ptr,
; 2077 : 		size_type _Off = 0) const
; 2078 : 		{	// look for one of [_Ptr, <null>) at or after _Off
; 2079 : 		_DEBUG_POINTER(_Ptr);
; 2080 : 		return (find_first_not_of(_Ptr, _Off, _Traits::length(_Ptr)));
; 2081 : 		}
; 2082 : 
; 2083 : 	size_type find_first_not_of(_Elem _Ch,
; 2084 : 		size_type _Off = 0) const
; 2085 : 		{	// look for non _Ch at or after _Off
; 2086 : 		return (find_first_not_of((const _Elem *)&_Ch, _Off, 1));
; 2087 : 		}
; 2088 : 
; 2089 : 	size_type find_last_not_of(const _Myt& _Right,
; 2090 : 		size_type _Off = npos) const _NOEXCEPT
; 2091 : 		{	// look for none of _Right before _Off
; 2092 : 		return (find_last_not_of(_Right._Myptr(), _Off, _Right.size()));
; 2093 : 		}
; 2094 : 
; 2095 : 	size_type find_last_not_of(const _Elem *_Ptr,
; 2096 : 		size_type _Off, size_type _Count) const
; 2097 : 		{	// look for none of [_Ptr, _Ptr + _Count) before _Off
; 2098 :  #if _ITERATOR_DEBUG_LEVEL == 2
; 2099 : 		if (_Count != 0)
; 2100 : 			_DEBUG_POINTER(_Ptr);
; 2101 :  #endif /* _ITERATOR_DEBUG_LEVEL == 2 */
; 2102 : 
; 2103 : 		if (0 < this->_Mysize)
; 2104 : 			{	// worth searching, do it
; 2105 : 			const _Elem *_Uptr = this->_Myptr()
; 2106 : 				+ (_Off < this->_Mysize ? _Off : this->_Mysize - 1);
; 2107 : 			for (; ; --_Uptr)
; 2108 : 				if (_Traits::find(_Ptr, _Count, *_Uptr) == 0)
; 2109 : 					return (_Uptr - this->_Myptr());
; 2110 : 				else if (_Uptr == this->_Myptr())
; 2111 : 					break;
; 2112 : 			}
; 2113 : 		return (npos);
; 2114 : 		}
; 2115 : 
; 2116 : 	size_type find_last_not_of(const _Elem *_Ptr,
; 2117 : 		size_type _Off = npos) const
; 2118 : 		{	// look for none of [_Ptr, <null>) before _Off
; 2119 : 		_DEBUG_POINTER(_Ptr);
; 2120 : 		return (find_last_not_of(_Ptr, _Off, _Traits::length(_Ptr)));
; 2121 : 		}
; 2122 : 
; 2123 : 	size_type find_last_not_of(_Elem _Ch,
; 2124 : 		size_type _Off = npos) const
; 2125 : 		{	// look for non _Ch before _Off
; 2126 : 		return (find_last_not_of((const _Elem *)&_Ch, _Off, 1));
; 2127 : 		}
; 2128 : 
; 2129 : 	_Myt substr(size_type _Off = 0, size_type _Count = npos) const
; 2130 : 		{	// return [_Off, _Off + _Count) as new string
; 2131 : 		return (_Myt(*this, _Off, _Count, get_allocator()));
; 2132 : 		}
; 2133 : 
; 2134 : 	int compare(const _Myt& _Right) const _NOEXCEPT
; 2135 : 		{	// compare [0, _Mysize) with _Right
; 2136 : 		return (compare(0, this->_Mysize, _Right._Myptr(), _Right.size()));
; 2137 : 		}
; 2138 : 
; 2139 : 	int compare(size_type _Off, size_type _N0,
; 2140 : 		const _Myt& _Right) const
; 2141 : 		{	// compare [_Off, _Off + _N0) with _Right
; 2142 : 		return (compare(_Off, _N0, _Right, 0, npos));
; 2143 : 		}
; 2144 : 
; 2145 : 	int compare(size_type _Off,
; 2146 : 		size_type _N0, const _Myt& _Right,
; 2147 : 		size_type _Roff, size_type _Count) const
; 2148 : 		{	// compare [_Off, _Off + _N0) with _Right [_Roff, _Roff + _Count)
; 2149 : 		if (_Right.size() < _Roff)
; 2150 : 			_Xran();	// _Off off end
; 2151 : 		if (_Right._Mysize - _Roff < _Count)
; 2152 : 			_Count = _Right._Mysize - _Roff;	// trim _Count to size
; 2153 : 		return (compare(_Off, _N0, _Right._Myptr() + _Roff, _Count));
; 2154 : 		}
; 2155 : 
; 2156 : 	int compare(const _Elem *_Ptr) const
; 2157 : 		{	// compare [0, _Mysize) with [_Ptr, <null>)
; 2158 : 		_DEBUG_POINTER(_Ptr);
; 2159 : 		return (compare(0, this->_Mysize, _Ptr, _Traits::length(_Ptr)));
; 2160 : 		}
; 2161 : 
; 2162 : 	int compare(size_type _Off, size_type _N0, const _Elem *_Ptr) const
; 2163 : 		{	// compare [_Off, _Off + _N0) with [_Ptr, <null>)
; 2164 : 		_DEBUG_POINTER(_Ptr);
; 2165 : 		return (compare(_Off, _N0, _Ptr, _Traits::length(_Ptr)));
; 2166 : 		}
; 2167 : 
; 2168 : 	int compare(size_type _Off,
; 2169 : 		size_type _N0, const _Elem *_Ptr, size_type _Count) const
; 2170 : 		{	// compare [_Off, _Off + _N0) with [_Ptr, _Ptr + _Count)
; 2171 :  #if _ITERATOR_DEBUG_LEVEL == 2
; 2172 : 		if (_Count != 0)
; 2173 : 			_DEBUG_POINTER(_Ptr);
; 2174 :  #endif /* _ITERATOR_DEBUG_LEVEL == 2 */
; 2175 : 
; 2176 : 		if (this->_Mysize < _Off)
; 2177 : 			_Xran();	// _Off off end
; 2178 : 		if (this->_Mysize - _Off < _N0)
; 2179 : 			_N0 = this->_Mysize - _Off;	// trim _N0 to size
; 2180 : 
; 2181 : 		size_type _Ans = _Traits::compare(this->_Myptr() + _Off, _Ptr,
; 2182 : 			_N0 < _Count ? _N0 : _Count);
; 2183 : 		return (_Ans != 0 ? (int)_Ans : _N0 < _Count ? -1
; 2184 : 			: _N0 == _Count ? 0 : +1);
; 2185 : 		}
; 2186 : 
; 2187 : 	allocator_type get_allocator() const _NOEXCEPT
; 2188 : 		{	// return allocator object for values
; 2189 : 		return (this->_Getal());
; 2190 : 		}
; 2191 : 
; 2192 : 	void _Chassign(size_type _Off, size_type _Count, _Elem _Ch)
; 2193 : 		{	// assign _Count copies of _Ch beginning at _Off
; 2194 : 		if (_Count == 1)
; 2195 : 			_Traits::assign(*(this->_Myptr() + _Off), _Ch);
; 2196 : 		else
; 2197 : 			_Traits::assign(this->_Myptr() + _Off, _Count, _Ch);
; 2198 : 		}
; 2199 : 
; 2200 : 	void _Copy(size_type _Newsize, size_type _Oldlen)
; 2201 : 		{	// copy _Oldlen elements to newly allocated buffer
; 2202 : 		size_type _Newres = _Newsize | this->_ALLOC_MASK;
; 2203 : 		if (max_size() < _Newres)
; 2204 : 			_Newres = _Newsize;	// undo roundup if too big
; 2205 : 		else if (this->_Myres / 2 <= _Newres / 3)
; 2206 : 			;
; 2207 : 		else if (this->_Myres <= max_size() - this->_Myres / 2)
; 2208 : 			_Newres = this->_Myres
; 2209 : 				+ this->_Myres / 2;	// grow exponentially if possible
; 2210 : 		else
; 2211 : 			_Newres = max_size();	// settle for max_size()
; 2212 : 
; 2213 : 		_Elem *_Ptr;
; 2214 : 		_TRY_BEGIN
; 2215 : 			_Ptr = this->_Getal().allocate(_Newres + 1);
; 2216 : 		_CATCH_ALL
; 2217 : 			_Newres = _Newsize;	// allocation failed, undo roundup and retry
; 2218 : 			_TRY_BEGIN
; 2219 : 				_Ptr = this->_Getal().allocate(_Newres + 1);
; 2220 : 			_CATCH_ALL
; 2221 : 			_Tidy(true);	// failed again, discard storage and reraise
; 2222 : 			_RERAISE;
; 2223 : 			_CATCH_END
; 2224 : 		_CATCH_END
; 2225 : 
; 2226 : 		if (0 < _Oldlen)
; 2227 : 			_Traits::copy(_Ptr, this->_Myptr(),
; 2228 : 				_Oldlen);	// copy existing elements
; 2229 : 		_Tidy(true);
; 2230 : 		this->_Getal().construct(&this->_Bx._Ptr, _Ptr);
; 2231 : 		this->_Myres = _Newres;
; 2232 : 		_Eos(_Oldlen);
; 2233 : 		}
; 2234 : 
; 2235 : 	void _Eos(size_type _Newsize)
; 2236 : 		{	// set new length and null terminator
; 2237 : 		_Traits::assign(this->_Myptr()[this->_Mysize = _Newsize], _Elem());

  00187	c7 44 24 40 00
	00 00 00	 mov	 DWORD PTR _strIconFileName$3[esp+108], 0
; File c:\program files (x86)\microsoft visual studio 12.0\vc\include\iosfwd

; 564  : 		_Left = _Right;

  0018f	c6 44 24 30 00	 mov	 BYTE PTR _strIconFileName$3[esp+92], 0
$LN157@questGetQu:
; File c:\program files (x86)\microsoft visual studio 12.0\vc\include\xstring

; 520  : 			: this->_Bx._Buf);

  00194	83 7e 60 10	 cmp	 DWORD PTR [esi+96], 16	; 00000010H
; File d:\metin2\metin2\client_source_clean\client_source_clean\source\userinterface\pythonquest.cpp

; 208  : 									pQuestInstance->iCounterValue);

  00198	8d 46 4c	 lea	 eax, DWORD PTR [esi+76]
; File c:\program files (x86)\microsoft visual studio 12.0\vc\include\xstring

; 520  : 			: this->_Bx._Buf);

  0019b	72 02		 jb	 SHORT $LN164@questGetQu
; File c:\program files (x86)\microsoft visual studio 12.0\vc\include\xstddef

; 95   : 		reinterpret_cast<const volatile char&>(_Val)))));

  0019d	8b 00		 mov	 eax, DWORD PTR [eax]
$LN164@questGetQu:
; File c:\program files (x86)\microsoft visual studio 12.0\vc\include\xstring

; 520  : 			: this->_Bx._Buf);

  0019f	83 7e 30 10	 cmp	 DWORD PTR [esi+48], 16	; 00000010H
; File d:\metin2\metin2\client_source_clean\client_source_clean\source\userinterface\pythonquest.cpp

; 208  : 									pQuestInstance->iCounterValue);

  001a3	8d 4e 1c	 lea	 ecx, DWORD PTR [esi+28]
; File c:\program files (x86)\microsoft visual studio 12.0\vc\include\xstring

; 520  : 			: this->_Bx._Buf);

  001a6	72 02		 jb	 SHORT $LN172@questGetQu
; File c:\program files (x86)\microsoft visual studio 12.0\vc\include\xstddef

; 95   : 		reinterpret_cast<const volatile char&>(_Val)))));

  001a8	8b 09		 mov	 ecx, DWORD PTR [ecx]
$LN172@questGetQu:
; File d:\metin2\metin2\client_source_clean\client_source_clean\source\userinterface\pythonquest.cpp

; 208  : 									pQuestInstance->iCounterValue);

  001aa	ff 76 68	 push	 DWORD PTR [esi+104]
  001ad	50		 push	 eax
  001ae	57		 push	 edi
  001af	51		 push	 ecx
  001b0	68 00 00 00 00	 push	 OFFSET ??_C@_04CDAJCMJD@sisi?$AA@
  001b5	ff 15 00 00 00
	00		 call	 DWORD PTR __imp__Py_BuildValue
  001bb	83 c4 14	 add	 esp, 20			; 00000014H
$LN5@questGetQu:

; 209  : }

  001be	8b 4c 24 50	 mov	 ecx, DWORD PTR __$EHRec$[esp+92]
  001c2	64 89 0d 00 00
	00 00		 mov	 DWORD PTR fs:0, ecx
  001c9	59		 pop	 ecx
  001ca	5f		 pop	 edi
  001cb	5e		 pop	 esi
  001cc	8b 4c 24 3c	 mov	 ecx, DWORD PTR __$ArrayPad$[esp+80]
  001d0	33 cc		 xor	 ecx, esp
  001d2	e8 00 00 00 00	 call	 @__security_check_cookie@4
  001d7	8b e5		 mov	 esp, ebp
  001d9	5d		 pop	 ebp
  001da	c3		 ret	 0
_TEXT	ENDS
;	COMDAT text$x
text$x	SEGMENT
__unwindfunclet$?questGetQuestData@@YAPAU_object@@PAU1@0@Z$0:
  00000	8d 4d bc	 lea	 ecx, DWORD PTR _strIconFileName$2[ebp]
  00003	e9 00 00 00 00	 jmp	 ??1?$basic_string@DU?$char_traits@D@std@@V?$allocator@D@2@@std@@QAE@XZ ; std::basic_string<char,std::char_traits<char>,std::allocator<char> >::~basic_string<char,std::char_traits<char>,std::allocator<char> >
__unwindfunclet$?questGetQuestData@@YAPAU_object@@PAU1@0@Z$1:
  00008	8d 4d d4	 lea	 ecx, DWORD PTR _strIconFileName$3[ebp]
  0000b	e9 00 00 00 00	 jmp	 ??1?$basic_string@DU?$char_traits@D@std@@V?$allocator@D@2@@std@@QAE@XZ ; std::basic_string<char,std::char_traits<char>,std::allocator<char> >::~basic_string<char,std::char_traits<char>,std::allocator<char> >
__ehhandler$?questGetQuestData@@YAPAU_object@@PAU1@0@Z:
  00010	8b 54 24 08	 mov	 edx, DWORD PTR [esp+8]
  00014	8d 42 b4	 lea	 eax, DWORD PTR [edx-76]
  00017	8b 4a b0	 mov	 ecx, DWORD PTR [edx-80]
  0001a	33 c8		 xor	 ecx, eax
  0001c	e8 00 00 00 00	 call	 @__security_check_cookie@4
  00021	83 c0 08	 add	 eax, 8
  00024	8b 4a f8	 mov	 ecx, DWORD PTR [edx-8]
  00027	33 c8		 xor	 ecx, eax
  00029	e8 00 00 00 00	 call	 @__security_check_cookie@4
  0002e	b8 00 00 00 00	 mov	 eax, OFFSET __ehfuncinfo$?questGetQuestData@@YAPAU_object@@PAU1@0@Z
  00033	e9 00 00 00 00	 jmp	 ___CxxFrameHandler3
text$x	ENDS
?questGetQuestData@@YAPAU_object@@PAU1@0@Z ENDP		; questGetQuestData
; Function compile flags: /Ogtp
; File d:\metin2\metin2\client_source_clean\client_source_clean\source\userinterface\pythonquest.cpp
;	COMDAT ?questGetQuestIndex@@YAPAU_object@@PAU1@0@Z
_TEXT	SEGMENT
_pQuestInstance$ = -8					; size = 4
_iIndex$ = -4						; size = 4
_poSelf$ = 8						; size = 4
_poArgs$ = 12						; size = 4
?questGetQuestIndex@@YAPAU_object@@PAU1@0@Z PROC	; questGetQuestIndex, COMDAT

; 212  : {

  00000	55		 push	 ebp
  00001	8b ec		 mov	 ebp, esp
  00003	83 ec 08	 sub	 esp, 8

; 213  : 	int iIndex;
; 214  : 	if (!PyTuple_GetInteger(poArgs, 0, &iIndex))

  00006	8d 45 fc	 lea	 eax, DWORD PTR _iIndex$[ebp]
  00009	50		 push	 eax
  0000a	6a 00		 push	 0
  0000c	ff 75 0c	 push	 DWORD PTR _poArgs$[ebp]
  0000f	e8 00 00 00 00	 call	 ?PyTuple_GetInteger@@YA_NPAU_object@@HPAH@Z ; PyTuple_GetInteger
  00014	83 c4 0c	 add	 esp, 12			; 0000000cH
  00017	84 c0		 test	 al, al
  00019	75 09		 jne	 SHORT $LN2@questGetQu

; 215  : 		return Py_BadArgument();

  0001b	e8 00 00 00 00	 call	 ?Py_BadArgument@@YAPAU_object@@XZ ; Py_BadArgument

; 222  : }

  00020	8b e5		 mov	 esp, ebp
  00022	5d		 pop	 ebp
  00023	c3		 ret	 0
$LN2@questGetQu:

; 216  : 
; 217  : 	CPythonQuest::SQuestInstance * pQuestInstance;
; 218  : 	if (!CPythonQuest::Instance().GetQuestInstancePtr(iIndex, &pQuestInstance))

  00024	8b 0d 00 00 00
	00		 mov	 ecx, DWORD PTR ?ms_singleton@?$CSingleton@VCPythonQuest@@@@0PAVCPythonQuest@@A ; CSingleton<CPythonQuest>::ms_singleton
  0002a	8d 45 f8	 lea	 eax, DWORD PTR _pQuestInstance$[ebp]
  0002d	50		 push	 eax
  0002e	ff 75 fc	 push	 DWORD PTR _iIndex$[ebp]
  00031	e8 00 00 00 00	 call	 ?GetQuestInstancePtr@CPythonQuest@@QAE_NKPAPAUSQuestInstance@1@@Z ; CPythonQuest::GetQuestInstancePtr
  00036	84 c0		 test	 al, al
  00038	75 14		 jne	 SHORT $LN1@questGetQu

; 219  : 		return Py_BuildException("Failed to find quest by index %d", iIndex);

  0003a	ff 75 fc	 push	 DWORD PTR _iIndex$[ebp]
  0003d	68 00 00 00 00	 push	 OFFSET ??_C@_0CB@KNIDBLNN@Failed?5to?5find?5quest?5by?5index?5?$CFd@
  00042	e8 00 00 00 00	 call	 ?Py_BuildException@@YAPAU_object@@PBDZZ ; Py_BuildException

; 220  : 
; 221  : 	return Py_BuildValue("i", pQuestInstance->dwIndex);

  00047	83 c4 08	 add	 esp, 8

; 222  : }

  0004a	8b e5		 mov	 esp, ebp
  0004c	5d		 pop	 ebp
  0004d	c3		 ret	 0
$LN1@questGetQu:

; 220  : 
; 221  : 	return Py_BuildValue("i", pQuestInstance->dwIndex);

  0004e	8b 45 f8	 mov	 eax, DWORD PTR _pQuestInstance$[ebp]
  00051	ff 30		 push	 DWORD PTR [eax]
  00053	68 00 00 00 00	 push	 OFFSET ??_C@_01KBJDNOO@i?$AA@
  00058	ff 15 00 00 00
	00		 call	 DWORD PTR __imp__Py_BuildValue
  0005e	83 c4 08	 add	 esp, 8

; 222  : }

  00061	8b e5		 mov	 esp, ebp
  00063	5d		 pop	 ebp
  00064	c3		 ret	 0
?questGetQuestIndex@@YAPAU_object@@PAU1@0@Z ENDP	; questGetQuestIndex
_TEXT	ENDS
; Function compile flags: /Ogtp
; File d:\metin2\metin2\client_source_clean\client_source_clean\source\userinterface\pythonquest.cpp
; File c:\program files (x86)\microsoft visual studio 12.0\vc\include\xstring
; File d:\metin2\metin2\client_source_clean\client_source_clean\source\userinterface\pythonquest.cpp
; File c:\program files (x86)\microsoft visual studio 12.0\vc\include\xstring
; File c:\program files (x86)\microsoft visual studio 12.0\vc\include\xstddef
; File d:\metin2\metin2\client_source_clean\client_source_clean\source\userinterface\pythonquest.cpp
;	COMDAT ?questGetQuestLastTime@@YAPAU_object@@PAU1@0@Z
_TEXT	SEGMENT
tv178 = -8						; size = 4
_pQuestInstance$ = -8					; size = 4
_iIndex$ = -4						; size = 4
_poSelf$ = 8						; size = 4
_poArgs$ = 12						; size = 4
?questGetQuestLastTime@@YAPAU_object@@PAU1@0@Z PROC	; questGetQuestLastTime, COMDAT

; 225  : {

  00000	55		 push	 ebp
  00001	8b ec		 mov	 ebp, esp
  00003	83 ec 08	 sub	 esp, 8

; 226  : 	int iIndex;
; 227  : 	if (!PyTuple_GetInteger(poArgs, 0, &iIndex))

  00006	8d 45 fc	 lea	 eax, DWORD PTR _iIndex$[ebp]
  00009	50		 push	 eax
  0000a	6a 00		 push	 0
  0000c	ff 75 0c	 push	 DWORD PTR _poArgs$[ebp]
  0000f	e8 00 00 00 00	 call	 ?PyTuple_GetInteger@@YA_NPAU_object@@HPAH@Z ; PyTuple_GetInteger
  00014	83 c4 0c	 add	 esp, 12			; 0000000cH
  00017	84 c0		 test	 al, al
  00019	75 09		 jne	 SHORT $LN3@questGetQu

; 228  : 		return Py_BadArgument();

  0001b	e8 00 00 00 00	 call	 ?Py_BadArgument@@YAPAU_object@@XZ ; Py_BadArgument

; 248  : }

  00020	8b e5		 mov	 esp, ebp
  00022	5d		 pop	 ebp
  00023	c3		 ret	 0
$LN3@questGetQu:

; 229  : 
; 230  : 	CPythonQuest::SQuestInstance * pQuestInstance;
; 231  : 	if (!CPythonQuest::Instance().GetQuestInstancePtr(iIndex, &pQuestInstance))

  00024	8b 0d 00 00 00
	00		 mov	 ecx, DWORD PTR ?ms_singleton@?$CSingleton@VCPythonQuest@@@@0PAVCPythonQuest@@A ; CSingleton<CPythonQuest>::ms_singleton
  0002a	8d 45 f8	 lea	 eax, DWORD PTR _pQuestInstance$[ebp]
  0002d	50		 push	 eax
  0002e	ff 75 fc	 push	 DWORD PTR _iIndex$[ebp]
  00031	e8 00 00 00 00	 call	 ?GetQuestInstancePtr@CPythonQuest@@QAE_NKPAPAUSQuestInstance@1@@Z ; CPythonQuest::GetQuestInstancePtr
  00036	84 c0		 test	 al, al
  00038	75 14		 jne	 SHORT $LN2@questGetQu

; 232  : 		return Py_BuildException("Failed to find quest by index %d", iIndex);

  0003a	ff 75 fc	 push	 DWORD PTR _iIndex$[ebp]
  0003d	68 00 00 00 00	 push	 OFFSET ??_C@_0CB@KNIDBLNN@Failed?5to?5find?5quest?5by?5index?5?$CFd@
  00042	e8 00 00 00 00	 call	 ?Py_BuildException@@YAPAU_object@@PBDZZ ; Py_BuildException
  00047	83 c4 08	 add	 esp, 8

; 248  : }

  0004a	8b e5		 mov	 esp, ebp
  0004c	5d		 pop	 ebp
  0004d	c3		 ret	 0
$LN2@questGetQu:
  0004e	56		 push	 esi

; 233  : 
; 234  : 	int iLastTime = 0;
; 235  : 
; 236  : 	if (pQuestInstance->iClockValue >= 0)

  0004f	8b 75 f8	 mov	 esi, DWORD PTR _pQuestInstance$[ebp]
  00052	33 c9		 xor	 ecx, ecx
  00054	39 4e 64	 cmp	 DWORD PTR [esi+100], ecx
  00057	7c 1b		 jl	 SHORT $LN1@questGetQu

; 237  : 	{
; 238  : 		iLastTime = (pQuestInstance->iStartTime + pQuestInstance->iClockValue) - int(CTimer::Instance().GetCurrentSecond());

  00059	8b 0d 00 00 00
	00		 mov	 ecx, DWORD PTR ?ms_singleton@?$CSingleton@VCTimer@@@@0PAVCTimer@@A ; CSingleton<CTimer>::ms_singleton
  0005f	e8 00 00 00 00	 call	 ?GetCurrentSecond@CTimer@@QAEMXZ ; CTimer::GetCurrentSecond
  00064	8b 4e 6c	 mov	 ecx, DWORD PTR [esi+108]
  00067	d9 5d f8	 fstp	 DWORD PTR tv178[ebp]
  0006a	f3 0f 2c 45 f8	 cvttss2si eax, DWORD PTR tv178[ebp]
  0006f	2b c8		 sub	 ecx, eax
  00071	03 4e 64	 add	 ecx, DWORD PTR [esi+100]
$LN1@questGetQu:
; File c:\program files (x86)\microsoft visual studio 12.0\vc\include\xstring

; 520  : 			: this->_Bx._Buf);

  00074	83 7e 48 10	 cmp	 DWORD PTR [esi+72], 16	; 00000010H
; File d:\metin2\metin2\client_source_clean\client_source_clean\source\userinterface\pythonquest.cpp

; 247  : 	return Py_BuildValue("si", pQuestInstance->strClockName.c_str(), iLastTime);

  00078	8d 46 34	 lea	 eax, DWORD PTR [esi+52]
  0007b	5e		 pop	 esi
; File c:\program files (x86)\microsoft visual studio 12.0\vc\include\xstring

; 520  : 			: this->_Bx._Buf);

  0007c	72 02		 jb	 SHORT $LN14@questGetQu
; File c:\program files (x86)\microsoft visual studio 12.0\vc\include\xstddef

; 95   : 		reinterpret_cast<const volatile char&>(_Val)))));

  0007e	8b 00		 mov	 eax, DWORD PTR [eax]
$LN14@questGetQu:
; File d:\metin2\metin2\client_source_clean\client_source_clean\source\userinterface\pythonquest.cpp

; 247  : 	return Py_BuildValue("si", pQuestInstance->strClockName.c_str(), iLastTime);

  00080	51		 push	 ecx
  00081	50		 push	 eax
  00082	68 00 00 00 00	 push	 OFFSET ??_C@_02OCDGCAAK@si?$AA@
  00087	ff 15 00 00 00
	00		 call	 DWORD PTR __imp__Py_BuildValue
  0008d	83 c4 0c	 add	 esp, 12			; 0000000cH

; 248  : }

  00090	8b e5		 mov	 esp, ebp
  00092	5d		 pop	 ebp
  00093	c3		 ret	 0
?questGetQuestLastTime@@YAPAU_object@@PAU1@0@Z ENDP	; questGetQuestLastTime
_TEXT	ENDS
; Function compile flags: /Ogtp
; File d:\metin2\metin2\client_source_clean\client_source_clean\source\userinterface\pythonquest.cpp
;	COMDAT ?questClear@@YAPAU_object@@PAU1@0@Z
_TEXT	SEGMENT
_poSelf$ = 8						; size = 4
_poArgs$ = 12						; size = 4
?questClear@@YAPAU_object@@PAU1@0@Z PROC		; questClear, COMDAT

; 252  : 	CPythonQuest::Instance().Clear();

  00000	8b 0d 00 00 00
	00		 mov	 ecx, DWORD PTR ?ms_singleton@?$CSingleton@VCPythonQuest@@@@0PAVCPythonQuest@@A ; CSingleton<CPythonQuest>::ms_singleton
  00006	e8 00 00 00 00	 call	 ?Clear@CPythonQuest@@QAEXXZ ; CPythonQuest::Clear

; 253  : 	return Py_BuildNone();

  0000b	e9 00 00 00 00	 jmp	 ?Py_BuildNone@@YAPAU_object@@XZ ; Py_BuildNone
?questClear@@YAPAU_object@@PAU1@0@Z ENDP		; questClear
_TEXT	ENDS
; Function compile flags: /Ogtp
; File d:\metin2\metin2\client_source_clean\client_source_clean\source\userinterface\pythonquest.cpp
;	COMDAT ?initquest@@YAXXZ
_TEXT	SEGMENT
?initquest@@YAXXZ PROC					; initquest, COMDAT

; 258  : 	static PyMethodDef s_methods[] =
; 259  : 	{
; 260  : 		{ "GetQuestCount",				questGetQuestCount,				METH_VARARGS },
; 261  : 		{ "GetQuestData",				questGetQuestData,				METH_VARARGS },
; 262  : 		{ "GetQuestIndex",				questGetQuestIndex,				METH_VARARGS },
; 263  : 		{ "GetQuestLastTime",			questGetQuestLastTime,			METH_VARARGS },
; 264  : 		{ "Clear",						questClear,						METH_VARARGS },
; 265  : 		{ NULL,							NULL,							NULL },
; 266  : 	};
; 267  : 
; 268  : 	PyObject * poModule = Py_InitModule("quest", s_methods);

  00000	68 f5 03 00 00	 push	 1013			; 000003f5H
  00005	6a 00		 push	 0
  00007	6a 00		 push	 0
  00009	68 00 00 00 00	 push	 OFFSET ?s_methods@?1??initquest@@YAXXZ@4PAUPyMethodDef@@A
  0000e	68 00 00 00 00	 push	 OFFSET ??_C@_05KOGNICEN@quest?$AA@
  00013	ff 15 00 00 00
	00		 call	 DWORD PTR __imp__Py_InitModule4

; 269  : 	PyModule_AddIntConstant(poModule, "QUEST_MAX_NUM", 5);

  00019	6a 05		 push	 5
  0001b	68 00 00 00 00	 push	 OFFSET ??_C@_0O@IKHMHCIN@QUEST_MAX_NUM?$AA@
  00020	50		 push	 eax
  00021	ff 15 00 00 00
	00		 call	 DWORD PTR __imp__PyModule_AddIntConstant
  00027	83 c4 20	 add	 esp, 32			; 00000020H

; 270  : }

  0002a	c3		 ret	 0
?initquest@@YAXXZ ENDP					; initquest
_TEXT	ENDS
; Function compile flags: /Ogtp
; File d:\metin2\metin2\client_source_clean\client_source_clean\source\eterbase\singleton.h
;	COMDAT ??0?$CSingleton@VCPythonQuest@@@@QAE@XZ
_TEXT	SEGMENT
??0?$CSingleton@VCPythonQuest@@@@QAE@XZ PROC		; CSingleton<CPythonQuest>::CSingleton<CPythonQuest>, COMDAT
; _this$ = ecx

; 11   : 	CSingleton()

  00000	c7 01 00 00 00
	00		 mov	 DWORD PTR [ecx], OFFSET ??_7?$CSingleton@VCPythonQuest@@@@6B@

; 12   : 	{ 
; 13   : 		assert(!ms_singleton);
; 14   : 		int offset = (int) (T*) 1 - (int) (CSingleton <T>*) (T*) 1; 
; 15   : 		ms_singleton = (T*) ((int) this + offset);
; 16   : 	} 

  00006	8b c1		 mov	 eax, ecx
  00008	89 0d 00 00 00
	00		 mov	 DWORD PTR ?ms_singleton@?$CSingleton@VCPythonQuest@@@@0PAVCPythonQuest@@A, ecx ; CSingleton<CPythonQuest>::ms_singleton
  0000e	c3		 ret	 0
??0?$CSingleton@VCPythonQuest@@@@QAE@XZ ENDP		; CSingleton<CPythonQuest>::CSingleton<CPythonQuest>
_TEXT	ENDS
; Function compile flags: /Ogtp
; File d:\metin2\metin2\client_source_clean\client_source_clean\source\eterbase\singleton.h
;	COMDAT ??1?$CSingleton@VCPythonQuest@@@@UAE@XZ
_TEXT	SEGMENT
??1?$CSingleton@VCPythonQuest@@@@UAE@XZ PROC		; CSingleton<CPythonQuest>::~CSingleton<CPythonQuest>, COMDAT
; _this$ = ecx

; 19   : 	{ 

  00000	c7 01 00 00 00
	00		 mov	 DWORD PTR [ecx], OFFSET ??_7?$CSingleton@VCPythonQuest@@@@6B@

; 20   : 		assert(ms_singleton);
; 21   : 		ms_singleton = 0; 

  00006	c7 05 00 00 00
	00 00 00 00 00	 mov	 DWORD PTR ?ms_singleton@?$CSingleton@VCPythonQuest@@@@0PAVCPythonQuest@@A, 0 ; CSingleton<CPythonQuest>::ms_singleton

; 22   : 	}

  00010	c3		 ret	 0
??1?$CSingleton@VCPythonQuest@@@@UAE@XZ ENDP		; CSingleton<CPythonQuest>::~CSingleton<CPythonQuest>
_TEXT	ENDS
; Function compile flags: /Ogtp
; File c:\program files (x86)\microsoft visual studio 12.0\vc\include\vector
;	COMDAT ??0?$vector@USQuestInstance@CPythonQuest@@V?$allocator@USQuestInstance@CPythonQuest@@@std@@@std@@QAE@XZ
_TEXT	SEGMENT
??0?$vector@USQuestInstance@CPythonQuest@@V?$allocator@USQuestInstance@CPythonQuest@@@std@@@std@@QAE@XZ PROC ; std::vector<CPythonQuest::SQuestInstance,std::allocator<CPythonQuest::SQuestInstance> >::vector<CPythonQuest::SQuestInstance,std::allocator<CPythonQuest::SQuestInstance> >, COMDAT
; _this$ = ecx

; 482  : 		_Myfirst = pointer();

  00000	c7 01 00 00 00
	00		 mov	 DWORD PTR [ecx], 0

; 681  : 		}

  00006	8b c1		 mov	 eax, ecx

; 483  : 		_Mylast = pointer();

  00008	c7 41 04 00 00
	00 00		 mov	 DWORD PTR [ecx+4], 0

; 484  : 		_Myend = pointer();

  0000f	c7 41 08 00 00
	00 00		 mov	 DWORD PTR [ecx+8], 0

; 681  : 		}

  00016	c3		 ret	 0
??0?$vector@USQuestInstance@CPythonQuest@@V?$allocator@USQuestInstance@CPythonQuest@@@std@@@std@@QAE@XZ ENDP ; std::vector<CPythonQuest::SQuestInstance,std::allocator<CPythonQuest::SQuestInstance> >::vector<CPythonQuest::SQuestInstance,std::allocator<CPythonQuest::SQuestInstance> >
_TEXT	ENDS
; Function compile flags: /Ogtp
; File c:\program files (x86)\microsoft visual studio 12.0\vc\include\vector
; File c:\program files (x86)\microsoft visual studio 12.0\vc\include\xmemory0
; File c:\program files (x86)\microsoft visual studio 12.0\vc\include\vector
; File c:\program files (x86)\microsoft visual studio 12.0\vc\include\xmemory0
; File c:\program files (x86)\microsoft visual studio 12.0\vc\include\vector
; File c:\program files (x86)\microsoft visual studio 12.0\vc\include\xmemory0
; File c:\program files (x86)\microsoft visual studio 12.0\vc\include\vector
;	COMDAT ?push_back@?$vector@USQuestInstance@CPythonQuest@@V?$allocator@USQuestInstance@CPythonQuest@@@std@@@std@@QAEX$$QAUSQuestInstance@CPythonQuest@@@Z
_TEXT	SEGMENT
$T2 = -16						; size = 4
$T3 = -16						; size = 4
__$EHRec$ = -12						; size = 12
__Ptr$ = 8						; size = 4
__Ptr$ = 8						; size = 4
__Val$ = 8						; size = 4
?push_back@?$vector@USQuestInstance@CPythonQuest@@V?$allocator@USQuestInstance@CPythonQuest@@@std@@@std@@QAEX$$QAUSQuestInstance@CPythonQuest@@@Z PROC ; std::vector<CPythonQuest::SQuestInstance,std::allocator<CPythonQuest::SQuestInstance> >::push_back, COMDAT
; _this$ = ecx

; 865  : 		{	// insert by moving into element at end

  00000	55		 push	 ebp
  00001	8b ec		 mov	 ebp, esp
  00003	6a ff		 push	 -1
  00005	68 00 00 00 00	 push	 __ehhandler$?push_back@?$vector@USQuestInstance@CPythonQuest@@V?$allocator@USQuestInstance@CPythonQuest@@@std@@@std@@QAEX$$QAUSQuestInstance@CPythonQuest@@@Z
  0000a	64 a1 00 00 00
	00		 mov	 eax, DWORD PTR fs:0
  00010	50		 push	 eax
  00011	51		 push	 ecx
  00012	56		 push	 esi
  00013	57		 push	 edi
  00014	a1 00 00 00 00	 mov	 eax, DWORD PTR ___security_cookie
  00019	33 c5		 xor	 eax, ebp
  0001b	50		 push	 eax
  0001c	8d 45 f4	 lea	 eax, DWORD PTR __$EHRec$[ebp]
  0001f	64 a3 00 00 00
	00		 mov	 DWORD PTR fs:0, eax
  00025	8b f1		 mov	 esi, ecx

; 886  : 
; 887  : 	iterator insert(const_iterator _Where, _Ty&& _Val)
; 888  : 		{	// insert by moving _Val at _Where
; 889  : 		return (emplace(_Where, _STD move(_Val)));
; 890  : 		}
; 891  : 
; 892  : 	template<class... _Valty>
; 893  : 		void emplace_back(_Valty&&... _Val)
; 894  : 		{	// insert by moving into element at end
; 895  : 		if (this->_Mylast == this->_Myend)
; 896  : 			_Reserve(1);
; 897  : 		_Orphan_range(this->_Mylast, this->_Mylast);
; 898  : 		this->_Getal().construct(this->_Mylast,
; 899  : 			_STD forward<_Valty>(_Val)...);
; 900  : 		++this->_Mylast;
; 901  : 		}
; 902  : 
; 903  : 	template<class... _Valty>
; 904  : 		iterator emplace(const_iterator _Where, _Valty&&... _Val)
; 905  : 		{	// insert by moving _Val at _Where
; 906  : 		size_type _Off = _VIPTR(_Where) - this->_Myfirst;
; 907  : 
; 908  :  #if _ITERATOR_DEBUG_LEVEL == 2
; 909  : 		if (size() < _Off)
; 910  : 			_DEBUG_ERROR("vector emplace iterator outside range");
; 911  :  #endif /* _ITERATOR_DEBUG_LEVEL == 2 */
; 912  : 
; 913  : 		emplace_back(_STD forward<_Valty>(_Val)...);
; 914  : 		_STD rotate(begin() + _Off, end() - 1, end());
; 915  : 		return (begin() + _Off);
; 916  : 		}
; 917  : 
; 918  : 
; 919  : 	vector(_XSTD initializer_list<value_type> _Ilist,
; 920  : 		const _Alloc& _Al = allocator_type())
; 921  : 		: _Mybase(_Al)
; 922  : 		{	// construct from initializer_list
; 923  : 		insert(begin(), _Ilist.begin(), _Ilist.end());
; 924  : 		}
; 925  : 
; 926  : 	_Myt& operator=(_XSTD initializer_list<value_type> _Ilist)
; 927  : 		{	// assign initializer_list
; 928  : 		assign(_Ilist.begin(), _Ilist.end());
; 929  : 		return (*this);
; 930  : 		}
; 931  : 
; 932  : 	void assign(_XSTD initializer_list<value_type> _Ilist)
; 933  : 		{	// assign initializer_list
; 934  : 		assign(_Ilist.begin(), _Ilist.end());
; 935  : 		}
; 936  : 
; 937  : 	iterator insert(const_iterator _Where,
; 938  : 		_XSTD initializer_list<value_type> _Ilist)
; 939  : 		{	// insert initializer_list
; 940  : 		return (insert(_Where, _Ilist.begin(), _Ilist.end()));
; 941  : 		}
; 942  : 
; 943  : 	~vector() _NOEXCEPT
; 944  : 		{	// destroy the object
; 945  : 		_Tidy();
; 946  : 		}
; 947  : 
; 948  : 	_Myt& operator=(const _Myt& _Right)
; 949  : 		{	// assign _Right
; 950  : 		if (this != &_Right)
; 951  : 			{	// different, assign it
; 952  : 			if (this->_Getal() != _Right._Getal()
; 953  : 				&& _Alty::propagate_on_container_copy_assignment::value)
; 954  : 				{	// change allocator before copying
; 955  : 				_Tidy();
; 956  : 				this->_Change_alloc(_Right._Getal());
; 957  : 				}
; 958  : 
; 959  : 			this->_Orphan_all();
; 960  : 
; 961  : 			if (_Right.empty())
; 962  : 				clear();	// new sequence empty, erase existing sequence
; 963  : 			else if (_Right.size() <= size())
; 964  : 				{	// enough elements, copy new and destroy old
; 965  : 				pointer _Ptr = _Copy_impl(_Right._Myfirst,
; 966  : 					_Right._Mylast, this->_Myfirst);	// copy new
; 967  : 				_Destroy(_Ptr, this->_Mylast);	// destroy old
; 968  : 				this->_Mylast = this->_Myfirst + _Right.size();
; 969  : 				}
; 970  : 			else if (_Right.size() <= capacity())
; 971  : 				{	// enough room, copy and construct new
; 972  : 				pointer _Ptr = _Right._Myfirst + size();
; 973  : 				_Copy_impl(_Right._Myfirst,
; 974  : 					_Ptr, this->_Myfirst);
; 975  : 				this->_Mylast = _Ucopy(_Ptr, _Right._Mylast, this->_Mylast);
; 976  : 				}
; 977  : 			else
; 978  : 				{	// not enough room, allocate new array and construct new
; 979  : 				if (this->_Myfirst != pointer())
; 980  : 					{	// discard old array
; 981  : 					_Destroy(this->_Myfirst, this->_Mylast);
; 982  : 					this->_Getal().deallocate(this->_Myfirst,
; 983  : 						this->_Myend - this->_Myfirst);
; 984  : 					}
; 985  : 				if (_Buy(_Right.size()))
; 986  : 					_TRY_BEGIN
; 987  : 					this->_Mylast = _Ucopy(_Right._Myfirst, _Right._Mylast,
; 988  : 						this->_Myfirst);
; 989  : 					_CATCH_ALL
; 990  : 					_Tidy();
; 991  : 					_RERAISE;
; 992  : 					_CATCH_END
; 993  : 				}
; 994  : 			}
; 995  : 		return (*this);
; 996  : 		}
; 997  : 
; 998  : 	void reserve(size_type _Count)
; 999  : 		{	// determine new minimum length of allocated storage
; 1000 : 		if (capacity() < _Count)
; 1001 : 			{	// something to do, check and reallocate
; 1002 : 			if (max_size() < _Count)
; 1003 : 				_Xlen();
; 1004 : 			_Reallocate(_Count);
; 1005 : 			}
; 1006 : 		}
; 1007 : 
; 1008 : 	size_type capacity() const _NOEXCEPT
; 1009 : 		{	// return current length of allocated storage
; 1010 : 		return (this->_Myend - this->_Myfirst);
; 1011 : 		}
; 1012 : 
; 1013 : 	size_type _Unused_capacity() const _NOEXCEPT
; 1014 : 		{	// micro-optimization for capacity() - size()
; 1015 : 		return (this->_Myend - this->_Mylast);
; 1016 : 		}
; 1017 : 
; 1018 : 	size_type _Has_unused_capacity() const _NOEXCEPT
; 1019 : 		{	// micro-optimization for capacity() != size()
; 1020 : 		return (this->_Myend != this->_Mylast);
; 1021 : 		}
; 1022 : 
; 1023 : 	iterator begin() _NOEXCEPT
; 1024 : 		{	// return iterator for beginning of mutable sequence
; 1025 : 		return (iterator(this->_Myfirst, this));
; 1026 : 		}
; 1027 : 
; 1028 : 	const_iterator begin() const _NOEXCEPT
; 1029 : 		{	// return iterator for beginning of nonmutable sequence
; 1030 : 		return (const_iterator(this->_Myfirst, this));
; 1031 : 		}
; 1032 : 
; 1033 : 	iterator end() _NOEXCEPT
; 1034 : 		{	// return iterator for end of mutable sequence
; 1035 : 		return (iterator(this->_Mylast, this));
; 1036 : 		}
; 1037 : 
; 1038 : 	const_iterator end() const _NOEXCEPT
; 1039 : 		{	// return iterator for end of nonmutable sequence
; 1040 : 		return (const_iterator(this->_Mylast, this));
; 1041 : 		}
; 1042 : 
; 1043 : 	iterator _Make_iter(const_iterator _Where) const
; 1044 : 		{	// make iterator from const_iterator
; 1045 : 		return (iterator(_Where._Ptr, this));
; 1046 : 		}
; 1047 : 
; 1048 : 	reverse_iterator rbegin() _NOEXCEPT
; 1049 : 		{	// return iterator for beginning of reversed mutable sequence
; 1050 : 		return (reverse_iterator(end()));
; 1051 : 		}
; 1052 : 
; 1053 : 	const_reverse_iterator rbegin() const _NOEXCEPT
; 1054 : 		{	// return iterator for beginning of reversed nonmutable sequence
; 1055 : 		return (const_reverse_iterator(end()));
; 1056 : 		}
; 1057 : 
; 1058 : 	reverse_iterator rend() _NOEXCEPT
; 1059 : 		{	// return iterator for end of reversed mutable sequence
; 1060 : 		return (reverse_iterator(begin()));
; 1061 : 		}
; 1062 : 
; 1063 : 	const_reverse_iterator rend() const _NOEXCEPT
; 1064 : 		{	// return iterator for end of reversed nonmutable sequence
; 1065 : 		return (const_reverse_iterator(begin()));
; 1066 : 		}
; 1067 : 
; 1068 : 	const_iterator cbegin() const _NOEXCEPT
; 1069 : 		{	// return iterator for beginning of nonmutable sequence
; 1070 : 		return (((const _Myt *)this)->begin());
; 1071 : 		}
; 1072 : 
; 1073 : 	const_iterator cend() const _NOEXCEPT
; 1074 : 		{	// return iterator for end of nonmutable sequence
; 1075 : 		return (((const _Myt *)this)->end());
; 1076 : 		}
; 1077 : 
; 1078 : 	const_reverse_iterator crbegin() const _NOEXCEPT
; 1079 : 		{	// return iterator for beginning of reversed nonmutable sequence
; 1080 : 		return (((const _Myt *)this)->rbegin());
; 1081 : 		}
; 1082 : 
; 1083 : 	const_reverse_iterator crend() const _NOEXCEPT
; 1084 : 		{	// return iterator for end of reversed nonmutable sequence
; 1085 : 		return (((const _Myt *)this)->rend());
; 1086 : 		}
; 1087 : 
; 1088 : 	void shrink_to_fit()
; 1089 : 		{	// reduce capacity
; 1090 : 		if (_Has_unused_capacity())
; 1091 : 			{	// worth shrinking, do it
; 1092 : 			if (empty())
; 1093 : 				_Tidy();
; 1094 : 			else
; 1095 : 				_Reallocate(size());
; 1096 : 			}
; 1097 : 		}
; 1098 : 
; 1099 : 	void resize(size_type _Newsize)
; 1100 : 		{	// determine new length, padding as needed
; 1101 : 		if (_Newsize < size())
; 1102 : 			_Pop_back_n(size() - _Newsize);
; 1103 : 		else if (size() < _Newsize)
; 1104 : 			{	// pad as needed
; 1105 : 			_Alty _Alval(this->_Getal());
; 1106 : 			_Reserve(_Newsize - size());
; 1107 : 			_TRY_BEGIN
; 1108 : 			_Uninitialized_default_fill_n(this->_Mylast, _Newsize - size(),
; 1109 : 				_Alval);
; 1110 : 			_CATCH_ALL
; 1111 : 			_Tidy();
; 1112 : 			_RERAISE;
; 1113 : 			_CATCH_END
; 1114 : 			this->_Mylast += _Newsize - size();
; 1115 : 			}
; 1116 : 		}
; 1117 : 
; 1118 : 	void resize(size_type _Newsize, const value_type& _Val)
; 1119 : 		{	// determine new length, padding with _Val elements as needed
; 1120 : 		if (_Newsize < size())
; 1121 : 			_Pop_back_n(size() - _Newsize);
; 1122 : 		else if (size() < _Newsize)
; 1123 : 			{	// pad as needed
; 1124 : 			const value_type *_Ptr = _STD addressof(_Val);
; 1125 : 
; 1126 : 			if (_Inside(_Ptr))
; 1127 : 				{	// padding is inside vector, recompute _Ptr after reserve
; 1128 : 				const difference_type _Idx = _Ptr
; 1129 : 					- _STD addressof(*this->_Myfirst);
; 1130 : 				_Reserve(_Newsize - size());
; 1131 : 				_Ptr = _STD addressof(*this->_Myfirst) + _Idx;
; 1132 : 				}
; 1133 : 			else
; 1134 : 				_Reserve(_Newsize - size());
; 1135 : 
; 1136 : 			_TRY_BEGIN
; 1137 : 			_Ufill(this->_Mylast, _Newsize - size(), _Ptr);
; 1138 : 			_CATCH_ALL
; 1139 : 			_Tidy();
; 1140 : 			_RERAISE;
; 1141 : 			_CATCH_END
; 1142 : 			this->_Mylast += _Newsize - size();
; 1143 : 			}
; 1144 : 		}
; 1145 : 
; 1146 : 	size_type size() const _NOEXCEPT
; 1147 : 		{	// return length of sequence
; 1148 : 		return (this->_Mylast - this->_Myfirst);
; 1149 : 		}
; 1150 : 
; 1151 : 	size_type max_size() const _NOEXCEPT
; 1152 : 		{	// return maximum possible length of sequence
; 1153 : 		return (this->_Getal().max_size());
; 1154 : 		}
; 1155 : 
; 1156 : 	bool empty() const _NOEXCEPT
; 1157 : 		{	// test if sequence is empty
; 1158 : 		return (this->_Myfirst == this->_Mylast);
; 1159 : 		}
; 1160 : 
; 1161 : 	_Alloc get_allocator() const _NOEXCEPT
; 1162 : 		{	// return allocator object for values
; 1163 : 		return (this->_Getal());
; 1164 : 		}
; 1165 : 
; 1166 : 	const_reference at(size_type _Pos) const
; 1167 : 		{	// subscript nonmutable sequence with checking
; 1168 : 		if (size() <= _Pos)
; 1169 : 			_Xran();
; 1170 : 		return (*(this->_Myfirst + _Pos));
; 1171 : 		}
; 1172 : 
; 1173 : 	reference at(size_type _Pos)
; 1174 : 		{	// subscript mutable sequence with checking
; 1175 : 		if (size() <= _Pos)
; 1176 : 			_Xran();
; 1177 : 		return (*(this->_Myfirst + _Pos));
; 1178 : 		}
; 1179 : 
; 1180 : 	const_reference operator[](size_type _Pos) const
; 1181 : 		{	// subscript nonmutable sequence
; 1182 :  #if _ITERATOR_DEBUG_LEVEL == 2
; 1183 : 		if (size() <= _Pos)
; 1184 : 			{	// report error
; 1185 : 			_DEBUG_ERROR("vector subscript out of range");
; 1186 : 			_SCL_SECURE_OUT_OF_RANGE;
; 1187 : 			}
; 1188 : 
; 1189 :  #elif _ITERATOR_DEBUG_LEVEL == 1
; 1190 : 		_SCL_SECURE_VALIDATE_RANGE(_Pos < size());
; 1191 :  #endif /* _ITERATOR_DEBUG_LEVEL */
; 1192 : 
; 1193 : 		return (*(this->_Myfirst + _Pos));
; 1194 : 		}
; 1195 : 
; 1196 : 	reference operator[](size_type _Pos)
; 1197 : 		{	// subscript mutable sequence
; 1198 :  #if _ITERATOR_DEBUG_LEVEL == 2
; 1199 : 		if (size() <= _Pos)
; 1200 : 			{	// report error
; 1201 : 			_DEBUG_ERROR("vector subscript out of range");
; 1202 : 			_SCL_SECURE_OUT_OF_RANGE;
; 1203 : 			}
; 1204 : 
; 1205 :  #elif _ITERATOR_DEBUG_LEVEL == 1
; 1206 : 		_SCL_SECURE_VALIDATE_RANGE(_Pos < size());
; 1207 :  #endif /* _ITERATOR_DEBUG_LEVEL */
; 1208 : 
; 1209 : 		return (*(this->_Myfirst + _Pos));
; 1210 : 		}
; 1211 : 
; 1212 : 	pointer data() _NOEXCEPT
; 1213 : 		{	// return address of first element
; 1214 : 		return (this->_Myfirst);
; 1215 : 		}
; 1216 : 
; 1217 : 	const_pointer data() const _NOEXCEPT
; 1218 : 		{	// return address of first element
; 1219 : 		return (this->_Myfirst);
; 1220 : 		}
; 1221 : 
; 1222 : 	reference front()
; 1223 : 		{	// return first element of mutable sequence
; 1224 : 		return (*begin());
; 1225 : 		}
; 1226 : 
; 1227 : 	const_reference front() const
; 1228 : 		{	// return first element of nonmutable sequence
; 1229 : 		return (*begin());
; 1230 : 		}
; 1231 : 
; 1232 : 	reference back()
; 1233 : 		{	// return last element of mutable sequence
; 1234 : 		return (*(end() - 1));
; 1235 : 		}
; 1236 : 
; 1237 : 	const_reference back() const
; 1238 : 		{	// return last element of nonmutable sequence
; 1239 : 		return (*(end() - 1));
; 1240 : 		}
; 1241 : 
; 1242 : 	void push_back(const value_type& _Val)
; 1243 : 		{	// insert element at end
; 1244 : 		if (_Inside(_STD addressof(_Val)))
; 1245 : 			{	// push back an element
; 1246 : 			size_type _Idx = _STD addressof(_Val) - this->_Myfirst;
; 1247 : 			if (this->_Mylast == this->_Myend)
; 1248 : 				_Reserve(1);
; 1249 : 			_Orphan_range(this->_Mylast, this->_Mylast);
; 1250 : 			this->_Getal().construct(this->_Mylast,
; 1251 : 				this->_Myfirst[_Idx]);
; 1252 : 			++this->_Mylast;
; 1253 : 			}
; 1254 : 		else
; 1255 : 			{	// push back a non-element
; 1256 : 			if (this->_Mylast == this->_Myend)
; 1257 : 				_Reserve(1);
; 1258 : 			_Orphan_range(this->_Mylast, this->_Mylast);
; 1259 : 			this->_Getal().construct(this->_Mylast,
; 1260 : 				_Val);
; 1261 : 			++this->_Mylast;
; 1262 : 			}
; 1263 : 		}
; 1264 : 
; 1265 :  #if _ITERATOR_DEBUG_LEVEL == 2
; 1266 : 	void pop_back()
; 1267 : 		{	// erase element at end
; 1268 : 		if (empty())
; 1269 : 			_DEBUG_ERROR("vector empty before pop");
; 1270 : 		else
; 1271 : 			{	// erase last element
; 1272 : 			_Orphan_range(this->_Mylast - 1, this->_Mylast);
; 1273 : 			this->_Getal().destroy(this->_Mylast - 1);
; 1274 : 			--this->_Mylast;
; 1275 : 			}
; 1276 : 		}
; 1277 : 
; 1278 :  #else /* _ITERATOR_DEBUG_LEVEL == 2 */
; 1279 : 	void pop_back()
; 1280 : 		{	// erase element at end
; 1281 : 		this->_Getal().destroy(this->_Mylast - 1);
; 1282 : 		--this->_Mylast;
; 1283 : 		}
; 1284 :  #endif /* _ITERATOR_DEBUG_LEVEL == 2 */
; 1285 : 
; 1286 : 	template<class _Iter>
; 1287 : 		typename enable_if<_Is_iterator<_Iter>::value,
; 1288 : 			void>::type
; 1289 : 		assign(_Iter _First, _Iter _Last)
; 1290 : 		{	// assign [_First, _Last)
; 1291 : 		clear();
; 1292 : 		_Assign(_First, _Last, _Iter_cat(_First));
; 1293 : 		}
; 1294 : 
; 1295 : 	template<class _Iter>
; 1296 : 		void _Assign(_Iter _First, _Iter _Last, input_iterator_tag)
; 1297 : 		{	// assign [_First, _Last), input iterators
; 1298 : 		for (; _First != _Last; ++_First)
; 1299 : 			emplace_back(*_First);
; 1300 : 		}
; 1301 : 
; 1302 : 	template<class _Iter>
; 1303 : 		void _Assign(_Iter _First, _Iter _Last, forward_iterator_tag)
; 1304 : 		{	// assign [_First, _Last), forward iterators
; 1305 : 		if (_First == _Last)
; 1306 : 			return;	// nothing to do
; 1307 : 
; 1308 : 		size_type _Newsize = _STD distance(_First, _Last);
; 1309 : 
; 1310 : 		if (capacity() < _Newsize)
; 1311 : 			{	// need more room, try to get it
; 1312 : 			size_type _Newcapacity = _Grow_to(_Newsize);
; 1313 : 			_Tidy();
; 1314 : 			_Buy(_Newcapacity);
; 1315 : 			}
; 1316 : 
; 1317 : 		this->_Mylast = _Ucopy(_First, _Last, this->_Myfirst);
; 1318 : 		}
; 1319 : 
; 1320 : 	void assign(size_type _Count, const value_type& _Val)
; 1321 : 		{	// assign _Count * _Val
; 1322 : 		clear();
; 1323 : 		insert(begin(), _Count, _Val);
; 1324 : 		}
; 1325 : 
; 1326 : 	iterator insert(const_iterator _Where, const _Ty& _Val)
; 1327 : 		{	// insert _Val at _Where
; 1328 : 		return (_Insert_n(_Where, (size_type)1, _Val));
; 1329 : 		}
; 1330 : 
; 1331 : 	iterator insert(const_iterator _Where, size_type _Count,
; 1332 : 		const _Ty& _Val)
; 1333 : 		{	// insert _Count * _Val at _Where
; 1334 : 		return (_Insert_n(_Where, _Count, _Val));
; 1335 : 		}
; 1336 : 
; 1337 : 	template<class _Iter>
; 1338 : 		typename enable_if<_Is_iterator<_Iter>::value,
; 1339 : 			iterator>::type
; 1340 : 		insert(const_iterator _Where, _Iter _First, _Iter _Last)
; 1341 : 		{	// insert [_First, _Last) at _Where
; 1342 : 		size_type _Off = _VIPTR(_Where) - this->_Myfirst;
; 1343 : 		_Insert(_Where, _First, _Last, _Iter_cat(_First));
; 1344 : 		return (begin() + _Off);
; 1345 : 		}
; 1346 : 
; 1347 : 	template<class _Iter>
; 1348 : 		void _Insert(const_iterator _Where, _Iter _First, _Iter _Last,
; 1349 : 			input_iterator_tag)
; 1350 : 		{	// insert [_First, _Last) at _Where, input iterators
; 1351 : 		size_type _Off = _VIPTR(_Where) - this->_Myfirst;
; 1352 : 
; 1353 :  #if _ITERATOR_DEBUG_LEVEL == 2
; 1354 : 		if (size() < _Off)
; 1355 : 			_DEBUG_ERROR("vector insert iterator outside range");
; 1356 :  #endif /* _ITERATOR_DEBUG_LEVEL == 2 */
; 1357 : 
; 1358 : 		if (_First != _Last)
; 1359 : 			{	// worth doing, gather at end and rotate into place
; 1360 : 			size_type _Oldsize = size();
; 1361 : 
; 1362 : 			_TRY_BEGIN
; 1363 : 			for (; _First != _Last; ++_First)
; 1364 : 				push_back(*_First);	// append
; 1365 : 
; 1366 : 			_CATCH_ALL
; 1367 : 			erase(begin() + _Oldsize, end());
; 1368 : 			_RERAISE;
; 1369 : 			_CATCH_END
; 1370 : 
; 1371 : 			_STD rotate(begin() + _Off, begin() + _Oldsize, end());
; 1372 : 			}
; 1373 : 		}
; 1374 : 
; 1375 : 	template<class _Iter>
; 1376 : 		void _Insert(const_iterator _Where, _Iter _First, _Iter _Last,
; 1377 : 			forward_iterator_tag)
; 1378 : 		{	// insert [_First, _Last) at _Where, forward iterators
; 1379 :  #if _ITERATOR_DEBUG_LEVEL == 2
; 1380 : 		if (_VICONT(_Where) != this
; 1381 : 			|| _VIPTR(_Where) < this->_Myfirst
; 1382 : 			|| this->_Mylast < _VIPTR(_Where))
; 1383 : 			_DEBUG_ERROR("vector insert iterator outside range");
; 1384 : 		_DEBUG_RANGE(_First, _Last);
; 1385 :  #endif /* _ITERATOR_DEBUG_LEVEL == 2 */
; 1386 : 
; 1387 : 		size_type _Count = 0;
; 1388 : 		_Distance(_First, _Last, _Count);
; 1389 : 
; 1390 : 		if (_Count == 0)
; 1391 : 			;
; 1392 : 		else if (_Unused_capacity() < _Count)
; 1393 : 			{	// not enough room, reallocate
; 1394 : 			if (max_size() - size() < _Count)
; 1395 : 				_Xlen();	// result too long
; 1396 : 
; 1397 : 			size_type _Capacity = _Grow_to(size() + _Count);
; 1398 : 			pointer _Newvec = this->_Getal().allocate(_Capacity);
; 1399 : 			pointer _Ptr = _Newvec;
; 1400 : 
; 1401 : 			_TRY_BEGIN
; 1402 : 			_Ptr = _Umove(this->_Myfirst, _VIPTR(_Where),
; 1403 : 				_Newvec);	// copy prefix
; 1404 : 			_Ptr = _Ucopy(_First, _Last, _Ptr);	// add new stuff
; 1405 : 			_Umove(_VIPTR(_Where), this->_Mylast,
; 1406 : 				_Ptr);	// copy suffix
; 1407 : 			_CATCH_ALL
; 1408 : 			_Destroy(_Newvec, _Ptr);
; 1409 : 			this->_Getal().deallocate(_Newvec, _Capacity);
; 1410 : 			_RERAISE;
; 1411 : 			_CATCH_END
; 1412 : 
; 1413 : 			_Count += size();
; 1414 : 			if (this->_Myfirst != pointer())
; 1415 : 				{	// destroy and deallocate old array
; 1416 : 				_Destroy(this->_Myfirst, this->_Mylast);
; 1417 : 				this->_Getal().deallocate(this->_Myfirst,
; 1418 : 					this->_Myend - this->_Myfirst);
; 1419 : 				}
; 1420 : 
; 1421 : 			this->_Orphan_all();
; 1422 : 			this->_Myend = _Newvec + _Capacity;
; 1423 : 			this->_Mylast = _Newvec + _Count;
; 1424 : 			this->_Myfirst = _Newvec;
; 1425 : 			}
; 1426 : 		else
; 1427 : 			{	// new stuff fits, append and rotate into place
; 1428 : 			_Ucopy(_First, _Last, this->_Mylast);
; 1429 : 			_STD rotate(_VIPTR(_Where), this->_Mylast,
; 1430 : 				this->_Mylast + _Count);
; 1431 : 			this->_Mylast += _Count;
; 1432 : 			_Orphan_range(_VIPTR(_Where), this->_Mylast);
; 1433 : 			}
; 1434 : 		}
; 1435 : 
; 1436 :  #if _ITERATOR_DEBUG_LEVEL == 2
; 1437 : 	iterator erase(const_iterator _Where)
; 1438 : 		{	// erase element at where
; 1439 : 		if (_VICONT(_Where) != this
; 1440 : 			|| _VIPTR(_Where) < this->_Myfirst
; 1441 : 			|| this->_Mylast <= _VIPTR(_Where))
; 1442 : 			_DEBUG_ERROR("vector erase iterator outside range");
; 1443 : 		_Move(_VIPTR(_Where) + 1, this->_Mylast, _VIPTR(_Where));
; 1444 : 		_Destroy(this->_Mylast - 1, this->_Mylast);
; 1445 : 		_Orphan_range(_VIPTR(_Where), this->_Mylast);
; 1446 : 		--this->_Mylast;
; 1447 : 		return (_Make_iter(_Where));
; 1448 : 		}
; 1449 : 
; 1450 :  #else /* _ITERATOR_DEBUG_LEVEL == 2 */
; 1451 : 	iterator erase(const_iterator _Where)
; 1452 : 		{	// erase element at where
; 1453 : 		_Move(_VIPTR(_Where) + 1, this->_Mylast,
; 1454 : 			_VIPTR(_Where));
; 1455 : 		_Destroy(this->_Mylast - 1, this->_Mylast);
; 1456 : 		--this->_Mylast;
; 1457 : 		return (_Make_iter(_Where));
; 1458 : 		}
; 1459 :  #endif /* _ITERATOR_DEBUG_LEVEL == 2 */
; 1460 : 
; 1461 : 	iterator erase(const_iterator _First_arg,
; 1462 : 		const_iterator _Last_arg)
; 1463 : 		{	// erase [_First, _Last)
; 1464 : 		if (_First_arg == begin() && _Last_arg == end())
; 1465 : 			clear();
; 1466 : 		else if (_First_arg != _Last_arg)
; 1467 : 			{	// clear partial
; 1468 : 			iterator _First = _Make_iter(_First_arg);
; 1469 : 			iterator _Last = _Make_iter(_Last_arg);
; 1470 : 
; 1471 : 			if (_First != _Last)
; 1472 : 				{	// worth doing, copy down over hole
; 1473 :  #if _ITERATOR_DEBUG_LEVEL == 2
; 1474 : 				if (_Last < _First || _VICONT(_First) != this
; 1475 : 					|| _VIPTR(_First) < this->_Myfirst
; 1476 : 					|| this->_Mylast < _VIPTR(_Last))
; 1477 : 					_DEBUG_ERROR("vector erase iterator outside range");
; 1478 : 				pointer _Ptr = _Move(_VIPTR(_Last), this->_Mylast,
; 1479 : 					_VIPTR(_First));
; 1480 : 				_Orphan_range(_VIPTR(_First), this->_Mylast);
; 1481 : 
; 1482 :  #else /* _ITERATOR_DEBUG_LEVEL == 2 */
; 1483 : 				pointer _Ptr = _Move(_VIPTR(_Last), this->_Mylast,
; 1484 : 					_VIPTR(_First));
; 1485 :  #endif /* _ITERATOR_DEBUG_LEVEL == 2 */
; 1486 : 
; 1487 : 				_Destroy(_Ptr, this->_Mylast);
; 1488 : 				this->_Mylast = _Ptr;
; 1489 : 				}
; 1490 : 			}
; 1491 : 		return (_Make_iter(_First_arg));
; 1492 : 		}
; 1493 : 
; 1494 : 	void _Pop_back_n(size_type _Count)
; 1495 : 		{	// erase _Count elements at end
; 1496 : 		pointer _Ptr = this->_Mylast - _Count;
; 1497 : 
; 1498 :  #if _ITERATOR_DEBUG_LEVEL == 2
; 1499 : 		_Orphan_range(_Ptr, this->_Mylast);
; 1500 :  #endif /* _ITERATOR_DEBUG_LEVEL == 2 */
; 1501 : 
; 1502 : 		_Destroy(_Ptr, this->_Mylast);
; 1503 : 		this->_Mylast = _Ptr;
; 1504 : 		}
; 1505 : 
; 1506 : 	void clear() _NOEXCEPT
; 1507 : 		{	// erase all
; 1508 : 		this->_Orphan_all();
; 1509 : 		_Destroy(this->_Myfirst, this->_Mylast);
; 1510 : 		this->_Mylast = this->_Myfirst;
; 1511 : 		}
; 1512 : 
; 1513 : 	void swap(_Myt& _Right)
; 1514 : 		{	// exchange contents with _Right
; 1515 : 		if (this == &_Right)
; 1516 : 			;	// same object, do nothing
; 1517 : 		else if (this->_Getal() == _Right._Getal())
; 1518 : 			{	// same allocator, swap control information
; 1519 : 			this->_Swap_all(_Right);
; 1520 : 			_Swap_adl(this->_Myfirst, _Right._Myfirst);
; 1521 : 			_Swap_adl(this->_Mylast, _Right._Mylast);
; 1522 : 			_Swap_adl(this->_Myend, _Right._Myend);
; 1523 : 			}
; 1524 : 
; 1525 : 		else if (_Alty::propagate_on_container_swap::value)
; 1526 : 			{	// swap allocators and control information
; 1527 : 			this->_Swap_alloc(_Right);
; 1528 : 			_Swap_adl(this->_Myfirst, _Right._Myfirst);
; 1529 : 			_Swap_adl(this->_Mylast, _Right._Mylast);
; 1530 : 			_Swap_adl(this->_Myend, _Right._Myend);
; 1531 : 			}
; 1532 : 
; 1533 : 		else
; 1534 : 			{	// containers are incompatible
; 1535 :  #if _ITERATOR_DEBUG_LEVEL == 2
; 1536 : 			_DEBUG_ERROR("vector containers incompatible for swap");
; 1537 : 
; 1538 :  #else /* ITERATOR_DEBUG_LEVEL == 2 */
; 1539 : 			_XSTD terminate();
; 1540 :  #endif /* ITERATOR_DEBUG_LEVEL == 2 */
; 1541 : 			}
; 1542 : 		}
; 1543 : 
; 1544 : protected:
; 1545 : 	bool _Buy(size_type _Capacity)
; 1546 : 		{	// allocate array with _Capacity elements
; 1547 : 		this->_Myfirst = pointer();
; 1548 : 		this->_Mylast = pointer();
; 1549 : 		this->_Myend = pointer();
; 1550 : 
; 1551 : 		if (_Capacity == 0)
; 1552 : 			return (false);
; 1553 : 		else if (max_size() < _Capacity)
; 1554 : 			_Xlen();	// result too long
; 1555 : 		else
; 1556 : 			{	// nonempty array, allocate storage
; 1557 : 			this->_Myfirst = this->_Getal().allocate(_Capacity);
; 1558 : 			this->_Mylast = this->_Myfirst;
; 1559 : 			this->_Myend = this->_Myfirst + _Capacity;
; 1560 : 			}
; 1561 : 		return (true);
; 1562 : 		}
; 1563 : 
; 1564 : 	void _Destroy(pointer _First, pointer _Last)
; 1565 : 		{	// destroy [_First, _Last) using allocator
; 1566 : 		_Alty _Alval(this->_Getal());
; 1567 : 		_Destroy_range(_First, _Last, _Alval);
; 1568 : 		}
; 1569 : 
; 1570 : 	size_type _Grow_to(size_type _Count) const
; 1571 : 		{	// grow by 50% or at least to _Count
; 1572 : 		size_type _Capacity = capacity();
; 1573 : 
; 1574 : 		_Capacity = max_size() - _Capacity / 2 < _Capacity
; 1575 : 			? 0 : _Capacity + _Capacity / 2;	// try to grow by 50%
; 1576 : 		if (_Capacity < _Count)
; 1577 : 			_Capacity = _Count;
; 1578 : 		return (_Capacity);
; 1579 : 		}
; 1580 : 
; 1581 : 	bool _Inside(const value_type *_Ptr) const
; 1582 : 		{	// test if _Ptr points inside vector
; 1583 : 		return (_Ptr < this->_Mylast && this->_Myfirst <= _Ptr);

  00027	8b 4e 04	 mov	 ecx, DWORD PTR [esi+4]
  0002a	8b 7d 08	 mov	 edi, DWORD PTR __Val$[ebp]
  0002d	3b f9		 cmp	 edi, ecx
  0002f	73 44		 jae	 SHORT $LN4@push_back
  00031	8b 06		 mov	 eax, DWORD PTR [esi]
  00033	3b c7		 cmp	 eax, edi
  00035	77 3e		 ja	 SHORT $LN4@push_back

; 866  : 		if (_Inside(_STD addressof(_Val)))
; 867  : 			{	// push back an element
; 868  : 			size_type _Idx = _STD addressof(_Val) - this->_Myfirst;

  00037	2b f8		 sub	 edi, eax
  00039	b8 93 24 49 92	 mov	 eax, -1840700269	; 92492493H
  0003e	f7 ef		 imul	 edi
  00040	03 d7		 add	 edx, edi
  00042	c1 fa 06	 sar	 edx, 6
  00045	8b fa		 mov	 edi, edx
  00047	c1 ef 1f	 shr	 edi, 31			; 0000001fH
  0004a	03 fa		 add	 edi, edx

; 869  : 			if (this->_Mylast == this->_Myend)

  0004c	3b 4e 08	 cmp	 ecx, DWORD PTR [esi+8]
  0004f	75 08		 jne	 SHORT $LN3@push_back

; 870  : 				_Reserve(1);

  00051	51		 push	 ecx
  00052	8b ce		 mov	 ecx, esi
  00054	e8 00 00 00 00	 call	 ?_Reserve@?$vector@USQuestInstance@CPythonQuest@@V?$allocator@USQuestInstance@CPythonQuest@@@std@@@std@@IAEXI@Z ; std::vector<CPythonQuest::SQuestInstance,std::allocator<CPythonQuest::SQuestInstance> >::_Reserve
$LN3@push_back:

; 873  : 				_STD forward<value_type>(this->_Myfirst[_Idx]));

  00059	8b 4e 04	 mov	 ecx, DWORD PTR [esi+4]
  0005c	6b c7 70	 imul	 eax, edi, 112
  0005f	89 4d 08	 mov	 DWORD PTR __Ptr$[ebp], ecx
; File c:\program files (x86)\microsoft visual studio 12.0\vc\include\xmemory0

; 600  : 		::new ((void *)_Ptr) _Objty(_STD forward<_Types>(_Args)...);

  00062	89 4d f0	 mov	 DWORD PTR $T3[ebp], ecx
; File c:\program files (x86)\microsoft visual studio 12.0\vc\include\vector

; 873  : 				_STD forward<value_type>(this->_Myfirst[_Idx]));

  00065	03 06		 add	 eax, DWORD PTR [esi]
; File c:\program files (x86)\microsoft visual studio 12.0\vc\include\xmemory0

; 600  : 		::new ((void *)_Ptr) _Objty(_STD forward<_Types>(_Args)...);

  00067	c7 45 fc 00 00
	00 00		 mov	 DWORD PTR __$EHRec$[ebp+8], 0
  0006e	85 c9		 test	 ecx, ecx
  00070	74 2a		 je	 SHORT $LN54@push_back
  00072	50		 push	 eax
; File c:\program files (x86)\microsoft visual studio 12.0\vc\include\vector

; 876  : 		else

  00073	eb 22		 jmp	 SHORT $LN63@push_back
$LN4@push_back:

; 877  : 			{	// push back a non-element
; 878  : 			if (this->_Mylast == this->_Myend)

  00075	3b 4e 08	 cmp	 ecx, DWORD PTR [esi+8]
  00078	75 08		 jne	 SHORT $LN1@push_back

; 879  : 				_Reserve(1);

  0007a	51		 push	 ecx
  0007b	8b ce		 mov	 ecx, esi
  0007d	e8 00 00 00 00	 call	 ?_Reserve@?$vector@USQuestInstance@CPythonQuest@@V?$allocator@USQuestInstance@CPythonQuest@@@std@@@std@@IAEXI@Z ; std::vector<CPythonQuest::SQuestInstance,std::allocator<CPythonQuest::SQuestInstance> >::_Reserve
$LN1@push_back:

; 880  : 			_Orphan_range(this->_Mylast, this->_Mylast);
; 881  : 			this->_Getal().construct(this->_Mylast,
; 882  : 				_STD forward<value_type>(_Val));

  00082	8b 4e 04	 mov	 ecx, DWORD PTR [esi+4]
  00085	89 4d 08	 mov	 DWORD PTR __Ptr$[ebp], ecx
; File c:\program files (x86)\microsoft visual studio 12.0\vc\include\xmemory0

; 600  : 		::new ((void *)_Ptr) _Objty(_STD forward<_Types>(_Args)...);

  00088	89 4d f0	 mov	 DWORD PTR $T2[ebp], ecx
  0008b	c7 45 fc 01 00
	00 00		 mov	 DWORD PTR __$EHRec$[ebp+8], 1
  00092	85 c9		 test	 ecx, ecx
  00094	74 06		 je	 SHORT $LN54@push_back
  00096	57		 push	 edi
$LN63@push_back:
  00097	e8 00 00 00 00	 call	 ??0SQuestInstance@CPythonQuest@@QAE@ABU01@@Z
$LN54@push_back:
; File c:\program files (x86)\microsoft visual studio 12.0\vc\include\vector

; 883  : 			++this->_Mylast;

  0009c	83 46 04 70	 add	 DWORD PTR [esi+4], 112	; 00000070H

; 884  : 			}
; 885  : 		}

  000a0	8b 4d f4	 mov	 ecx, DWORD PTR __$EHRec$[ebp]
  000a3	64 89 0d 00 00
	00 00		 mov	 DWORD PTR fs:0, ecx
  000aa	59		 pop	 ecx
  000ab	5f		 pop	 edi
  000ac	5e		 pop	 esi
  000ad	8b e5		 mov	 esp, ebp
  000af	5d		 pop	 ebp
  000b0	c2 04 00	 ret	 4
_TEXT	ENDS
;	COMDAT text$x
text$x	SEGMENT
__unwindfunclet$?push_back@?$vector@USQuestInstance@CPythonQuest@@V?$allocator@USQuestInstance@CPythonQuest@@@std@@@std@@QAEX$$QAUSQuestInstance@CPythonQuest@@@Z$0:
  00000	8b 45 08	 mov	 eax, DWORD PTR __Ptr$[ebp]
  00003	50		 push	 eax
  00004	8b 45 f0	 mov	 eax, DWORD PTR $T3[ebp]
  00007	50		 push	 eax
  00008	e8 00 00 00 00	 call	 ??3@YAXPAX0@Z		; operator delete
  0000d	83 c4 08	 add	 esp, 8
  00010	c3		 ret	 0
__unwindfunclet$?push_back@?$vector@USQuestInstance@CPythonQuest@@V?$allocator@USQuestInstance@CPythonQuest@@@std@@@std@@QAEX$$QAUSQuestInstance@CPythonQuest@@@Z$1:
  00011	8b 45 08	 mov	 eax, DWORD PTR __Ptr$[ebp]
  00014	50		 push	 eax
  00015	8b 45 f0	 mov	 eax, DWORD PTR $T2[ebp]
  00018	50		 push	 eax
  00019	e8 00 00 00 00	 call	 ??3@YAXPAX0@Z		; operator delete
  0001e	83 c4 08	 add	 esp, 8
  00021	c3		 ret	 0
__ehhandler$?push_back@?$vector@USQuestInstance@CPythonQuest@@V?$allocator@USQuestInstance@CPythonQuest@@@std@@@std@@QAEX$$QAUSQuestInstance@CPythonQuest@@@Z:
  00022	8b 54 24 08	 mov	 edx, DWORD PTR [esp+8]
  00026	8d 42 0c	 lea	 eax, DWORD PTR [edx+12]
  00029	8b 4a f0	 mov	 ecx, DWORD PTR [edx-16]
  0002c	33 c8		 xor	 ecx, eax
  0002e	e8 00 00 00 00	 call	 @__security_check_cookie@4
  00033	b8 00 00 00 00	 mov	 eax, OFFSET __ehfuncinfo$?push_back@?$vector@USQuestInstance@CPythonQuest@@V?$allocator@USQuestInstance@CPythonQuest@@@std@@@std@@QAEX$$QAUSQuestInstance@CPythonQuest@@@Z
  00038	e9 00 00 00 00	 jmp	 ___CxxFrameHandler3
text$x	ENDS
?push_back@?$vector@USQuestInstance@CPythonQuest@@V?$allocator@USQuestInstance@CPythonQuest@@@std@@@std@@QAEX$$QAUSQuestInstance@CPythonQuest@@@Z ENDP ; std::vector<CPythonQuest::SQuestInstance,std::allocator<CPythonQuest::SQuestInstance> >::push_back
; Function compile flags: /Ogtp
; File c:\program files (x86)\microsoft visual studio 12.0\vc\include\vector
; File c:\program files (x86)\microsoft visual studio 12.0\vc\include\xmemory0
; File c:\program files (x86)\microsoft visual studio 12.0\vc\include\vector
;	COMDAT ??1?$vector@USQuestInstance@CPythonQuest@@V?$allocator@USQuestInstance@CPythonQuest@@@std@@@std@@QAE@XZ
_TEXT	SEGMENT
??1?$vector@USQuestInstance@CPythonQuest@@V?$allocator@USQuestInstance@CPythonQuest@@@std@@@std@@QAE@XZ PROC ; std::vector<CPythonQuest::SQuestInstance,std::allocator<CPythonQuest::SQuestInstance> >::~vector<CPythonQuest::SQuestInstance,std::allocator<CPythonQuest::SQuestInstance> >, COMDAT
; _this$ = ecx

; 944  : 		{	// destroy the object

  00000	56		 push	 esi
  00001	57		 push	 edi
  00002	8b f9		 mov	 edi, ecx

; 947  : 
; 948  : 	_Myt& operator=(const _Myt& _Right)
; 949  : 		{	// assign _Right
; 950  : 		if (this != &_Right)
; 951  : 			{	// different, assign it
; 952  : 			if (this->_Getal() != _Right._Getal()
; 953  : 				&& _Alty::propagate_on_container_copy_assignment::value)
; 954  : 				{	// change allocator before copying
; 955  : 				_Tidy();
; 956  : 				this->_Change_alloc(_Right._Getal());
; 957  : 				}
; 958  : 
; 959  : 			this->_Orphan_all();
; 960  : 
; 961  : 			if (_Right.empty())
; 962  : 				clear();	// new sequence empty, erase existing sequence
; 963  : 			else if (_Right.size() <= size())
; 964  : 				{	// enough elements, copy new and destroy old
; 965  : 				pointer _Ptr = _Copy_impl(_Right._Myfirst,
; 966  : 					_Right._Mylast, this->_Myfirst);	// copy new
; 967  : 				_Destroy(_Ptr, this->_Mylast);	// destroy old
; 968  : 				this->_Mylast = this->_Myfirst + _Right.size();
; 969  : 				}
; 970  : 			else if (_Right.size() <= capacity())
; 971  : 				{	// enough room, copy and construct new
; 972  : 				pointer _Ptr = _Right._Myfirst + size();
; 973  : 				_Copy_impl(_Right._Myfirst,
; 974  : 					_Ptr, this->_Myfirst);
; 975  : 				this->_Mylast = _Ucopy(_Ptr, _Right._Mylast, this->_Mylast);
; 976  : 				}
; 977  : 			else
; 978  : 				{	// not enough room, allocate new array and construct new
; 979  : 				if (this->_Myfirst != pointer())
; 980  : 					{	// discard old array
; 981  : 					_Destroy(this->_Myfirst, this->_Mylast);
; 982  : 					this->_Getal().deallocate(this->_Myfirst,
; 983  : 						this->_Myend - this->_Myfirst);
; 984  : 					}
; 985  : 				if (_Buy(_Right.size()))
; 986  : 					_TRY_BEGIN
; 987  : 					this->_Mylast = _Ucopy(_Right._Myfirst, _Right._Mylast,
; 988  : 						this->_Myfirst);
; 989  : 					_CATCH_ALL
; 990  : 					_Tidy();
; 991  : 					_RERAISE;
; 992  : 					_CATCH_END
; 993  : 				}
; 994  : 			}
; 995  : 		return (*this);
; 996  : 		}
; 997  : 
; 998  : 	void reserve(size_type _Count)
; 999  : 		{	// determine new minimum length of allocated storage
; 1000 : 		if (capacity() < _Count)
; 1001 : 			{	// something to do, check and reallocate
; 1002 : 			if (max_size() < _Count)
; 1003 : 				_Xlen();
; 1004 : 			_Reallocate(_Count);
; 1005 : 			}
; 1006 : 		}
; 1007 : 
; 1008 : 	size_type capacity() const _NOEXCEPT
; 1009 : 		{	// return current length of allocated storage
; 1010 : 		return (this->_Myend - this->_Myfirst);
; 1011 : 		}
; 1012 : 
; 1013 : 	size_type _Unused_capacity() const _NOEXCEPT
; 1014 : 		{	// micro-optimization for capacity() - size()
; 1015 : 		return (this->_Myend - this->_Mylast);
; 1016 : 		}
; 1017 : 
; 1018 : 	size_type _Has_unused_capacity() const _NOEXCEPT
; 1019 : 		{	// micro-optimization for capacity() != size()
; 1020 : 		return (this->_Myend != this->_Mylast);
; 1021 : 		}
; 1022 : 
; 1023 : 	iterator begin() _NOEXCEPT
; 1024 : 		{	// return iterator for beginning of mutable sequence
; 1025 : 		return (iterator(this->_Myfirst, this));
; 1026 : 		}
; 1027 : 
; 1028 : 	const_iterator begin() const _NOEXCEPT
; 1029 : 		{	// return iterator for beginning of nonmutable sequence
; 1030 : 		return (const_iterator(this->_Myfirst, this));
; 1031 : 		}
; 1032 : 
; 1033 : 	iterator end() _NOEXCEPT
; 1034 : 		{	// return iterator for end of mutable sequence
; 1035 : 		return (iterator(this->_Mylast, this));
; 1036 : 		}
; 1037 : 
; 1038 : 	const_iterator end() const _NOEXCEPT
; 1039 : 		{	// return iterator for end of nonmutable sequence
; 1040 : 		return (const_iterator(this->_Mylast, this));
; 1041 : 		}
; 1042 : 
; 1043 : 	iterator _Make_iter(const_iterator _Where) const
; 1044 : 		{	// make iterator from const_iterator
; 1045 : 		return (iterator(_Where._Ptr, this));
; 1046 : 		}
; 1047 : 
; 1048 : 	reverse_iterator rbegin() _NOEXCEPT
; 1049 : 		{	// return iterator for beginning of reversed mutable sequence
; 1050 : 		return (reverse_iterator(end()));
; 1051 : 		}
; 1052 : 
; 1053 : 	const_reverse_iterator rbegin() const _NOEXCEPT
; 1054 : 		{	// return iterator for beginning of reversed nonmutable sequence
; 1055 : 		return (const_reverse_iterator(end()));
; 1056 : 		}
; 1057 : 
; 1058 : 	reverse_iterator rend() _NOEXCEPT
; 1059 : 		{	// return iterator for end of reversed mutable sequence
; 1060 : 		return (reverse_iterator(begin()));
; 1061 : 		}
; 1062 : 
; 1063 : 	const_reverse_iterator rend() const _NOEXCEPT
; 1064 : 		{	// return iterator for end of reversed nonmutable sequence
; 1065 : 		return (const_reverse_iterator(begin()));
; 1066 : 		}
; 1067 : 
; 1068 : 	const_iterator cbegin() const _NOEXCEPT
; 1069 : 		{	// return iterator for beginning of nonmutable sequence
; 1070 : 		return (((const _Myt *)this)->begin());
; 1071 : 		}
; 1072 : 
; 1073 : 	const_iterator cend() const _NOEXCEPT
; 1074 : 		{	// return iterator for end of nonmutable sequence
; 1075 : 		return (((const _Myt *)this)->end());
; 1076 : 		}
; 1077 : 
; 1078 : 	const_reverse_iterator crbegin() const _NOEXCEPT
; 1079 : 		{	// return iterator for beginning of reversed nonmutable sequence
; 1080 : 		return (((const _Myt *)this)->rbegin());
; 1081 : 		}
; 1082 : 
; 1083 : 	const_reverse_iterator crend() const _NOEXCEPT
; 1084 : 		{	// return iterator for end of reversed nonmutable sequence
; 1085 : 		return (((const _Myt *)this)->rend());
; 1086 : 		}
; 1087 : 
; 1088 : 	void shrink_to_fit()
; 1089 : 		{	// reduce capacity
; 1090 : 		if (_Has_unused_capacity())
; 1091 : 			{	// worth shrinking, do it
; 1092 : 			if (empty())
; 1093 : 				_Tidy();
; 1094 : 			else
; 1095 : 				_Reallocate(size());
; 1096 : 			}
; 1097 : 		}
; 1098 : 
; 1099 : 	void resize(size_type _Newsize)
; 1100 : 		{	// determine new length, padding as needed
; 1101 : 		if (_Newsize < size())
; 1102 : 			_Pop_back_n(size() - _Newsize);
; 1103 : 		else if (size() < _Newsize)
; 1104 : 			{	// pad as needed
; 1105 : 			_Alty _Alval(this->_Getal());
; 1106 : 			_Reserve(_Newsize - size());
; 1107 : 			_TRY_BEGIN
; 1108 : 			_Uninitialized_default_fill_n(this->_Mylast, _Newsize - size(),
; 1109 : 				_Alval);
; 1110 : 			_CATCH_ALL
; 1111 : 			_Tidy();
; 1112 : 			_RERAISE;
; 1113 : 			_CATCH_END
; 1114 : 			this->_Mylast += _Newsize - size();
; 1115 : 			}
; 1116 : 		}
; 1117 : 
; 1118 : 	void resize(size_type _Newsize, const value_type& _Val)
; 1119 : 		{	// determine new length, padding with _Val elements as needed
; 1120 : 		if (_Newsize < size())
; 1121 : 			_Pop_back_n(size() - _Newsize);
; 1122 : 		else if (size() < _Newsize)
; 1123 : 			{	// pad as needed
; 1124 : 			const value_type *_Ptr = _STD addressof(_Val);
; 1125 : 
; 1126 : 			if (_Inside(_Ptr))
; 1127 : 				{	// padding is inside vector, recompute _Ptr after reserve
; 1128 : 				const difference_type _Idx = _Ptr
; 1129 : 					- _STD addressof(*this->_Myfirst);
; 1130 : 				_Reserve(_Newsize - size());
; 1131 : 				_Ptr = _STD addressof(*this->_Myfirst) + _Idx;
; 1132 : 				}
; 1133 : 			else
; 1134 : 				_Reserve(_Newsize - size());
; 1135 : 
; 1136 : 			_TRY_BEGIN
; 1137 : 			_Ufill(this->_Mylast, _Newsize - size(), _Ptr);
; 1138 : 			_CATCH_ALL
; 1139 : 			_Tidy();
; 1140 : 			_RERAISE;
; 1141 : 			_CATCH_END
; 1142 : 			this->_Mylast += _Newsize - size();
; 1143 : 			}
; 1144 : 		}
; 1145 : 
; 1146 : 	size_type size() const _NOEXCEPT
; 1147 : 		{	// return length of sequence
; 1148 : 		return (this->_Mylast - this->_Myfirst);
; 1149 : 		}
; 1150 : 
; 1151 : 	size_type max_size() const _NOEXCEPT
; 1152 : 		{	// return maximum possible length of sequence
; 1153 : 		return (this->_Getal().max_size());
; 1154 : 		}
; 1155 : 
; 1156 : 	bool empty() const _NOEXCEPT
; 1157 : 		{	// test if sequence is empty
; 1158 : 		return (this->_Myfirst == this->_Mylast);
; 1159 : 		}
; 1160 : 
; 1161 : 	_Alloc get_allocator() const _NOEXCEPT
; 1162 : 		{	// return allocator object for values
; 1163 : 		return (this->_Getal());
; 1164 : 		}
; 1165 : 
; 1166 : 	const_reference at(size_type _Pos) const
; 1167 : 		{	// subscript nonmutable sequence with checking
; 1168 : 		if (size() <= _Pos)
; 1169 : 			_Xran();
; 1170 : 		return (*(this->_Myfirst + _Pos));
; 1171 : 		}
; 1172 : 
; 1173 : 	reference at(size_type _Pos)
; 1174 : 		{	// subscript mutable sequence with checking
; 1175 : 		if (size() <= _Pos)
; 1176 : 			_Xran();
; 1177 : 		return (*(this->_Myfirst + _Pos));
; 1178 : 		}
; 1179 : 
; 1180 : 	const_reference operator[](size_type _Pos) const
; 1181 : 		{	// subscript nonmutable sequence
; 1182 :  #if _ITERATOR_DEBUG_LEVEL == 2
; 1183 : 		if (size() <= _Pos)
; 1184 : 			{	// report error
; 1185 : 			_DEBUG_ERROR("vector subscript out of range");
; 1186 : 			_SCL_SECURE_OUT_OF_RANGE;
; 1187 : 			}
; 1188 : 
; 1189 :  #elif _ITERATOR_DEBUG_LEVEL == 1
; 1190 : 		_SCL_SECURE_VALIDATE_RANGE(_Pos < size());
; 1191 :  #endif /* _ITERATOR_DEBUG_LEVEL */
; 1192 : 
; 1193 : 		return (*(this->_Myfirst + _Pos));
; 1194 : 		}
; 1195 : 
; 1196 : 	reference operator[](size_type _Pos)
; 1197 : 		{	// subscript mutable sequence
; 1198 :  #if _ITERATOR_DEBUG_LEVEL == 2
; 1199 : 		if (size() <= _Pos)
; 1200 : 			{	// report error
; 1201 : 			_DEBUG_ERROR("vector subscript out of range");
; 1202 : 			_SCL_SECURE_OUT_OF_RANGE;
; 1203 : 			}
; 1204 : 
; 1205 :  #elif _ITERATOR_DEBUG_LEVEL == 1
; 1206 : 		_SCL_SECURE_VALIDATE_RANGE(_Pos < size());
; 1207 :  #endif /* _ITERATOR_DEBUG_LEVEL */
; 1208 : 
; 1209 : 		return (*(this->_Myfirst + _Pos));
; 1210 : 		}
; 1211 : 
; 1212 : 	pointer data() _NOEXCEPT
; 1213 : 		{	// return address of first element
; 1214 : 		return (this->_Myfirst);
; 1215 : 		}
; 1216 : 
; 1217 : 	const_pointer data() const _NOEXCEPT
; 1218 : 		{	// return address of first element
; 1219 : 		return (this->_Myfirst);
; 1220 : 		}
; 1221 : 
; 1222 : 	reference front()
; 1223 : 		{	// return first element of mutable sequence
; 1224 : 		return (*begin());
; 1225 : 		}
; 1226 : 
; 1227 : 	const_reference front() const
; 1228 : 		{	// return first element of nonmutable sequence
; 1229 : 		return (*begin());
; 1230 : 		}
; 1231 : 
; 1232 : 	reference back()
; 1233 : 		{	// return last element of mutable sequence
; 1234 : 		return (*(end() - 1));
; 1235 : 		}
; 1236 : 
; 1237 : 	const_reference back() const
; 1238 : 		{	// return last element of nonmutable sequence
; 1239 : 		return (*(end() - 1));
; 1240 : 		}
; 1241 : 
; 1242 : 	void push_back(const value_type& _Val)
; 1243 : 		{	// insert element at end
; 1244 : 		if (_Inside(_STD addressof(_Val)))
; 1245 : 			{	// push back an element
; 1246 : 			size_type _Idx = _STD addressof(_Val) - this->_Myfirst;
; 1247 : 			if (this->_Mylast == this->_Myend)
; 1248 : 				_Reserve(1);
; 1249 : 			_Orphan_range(this->_Mylast, this->_Mylast);
; 1250 : 			this->_Getal().construct(this->_Mylast,
; 1251 : 				this->_Myfirst[_Idx]);
; 1252 : 			++this->_Mylast;
; 1253 : 			}
; 1254 : 		else
; 1255 : 			{	// push back a non-element
; 1256 : 			if (this->_Mylast == this->_Myend)
; 1257 : 				_Reserve(1);
; 1258 : 			_Orphan_range(this->_Mylast, this->_Mylast);
; 1259 : 			this->_Getal().construct(this->_Mylast,
; 1260 : 				_Val);
; 1261 : 			++this->_Mylast;
; 1262 : 			}
; 1263 : 		}
; 1264 : 
; 1265 :  #if _ITERATOR_DEBUG_LEVEL == 2
; 1266 : 	void pop_back()
; 1267 : 		{	// erase element at end
; 1268 : 		if (empty())
; 1269 : 			_DEBUG_ERROR("vector empty before pop");
; 1270 : 		else
; 1271 : 			{	// erase last element
; 1272 : 			_Orphan_range(this->_Mylast - 1, this->_Mylast);
; 1273 : 			this->_Getal().destroy(this->_Mylast - 1);
; 1274 : 			--this->_Mylast;
; 1275 : 			}
; 1276 : 		}
; 1277 : 
; 1278 :  #else /* _ITERATOR_DEBUG_LEVEL == 2 */
; 1279 : 	void pop_back()
; 1280 : 		{	// erase element at end
; 1281 : 		this->_Getal().destroy(this->_Mylast - 1);
; 1282 : 		--this->_Mylast;
; 1283 : 		}
; 1284 :  #endif /* _ITERATOR_DEBUG_LEVEL == 2 */
; 1285 : 
; 1286 : 	template<class _Iter>
; 1287 : 		typename enable_if<_Is_iterator<_Iter>::value,
; 1288 : 			void>::type
; 1289 : 		assign(_Iter _First, _Iter _Last)
; 1290 : 		{	// assign [_First, _Last)
