; Listing generated by Microsoft (R) Optimizing Compiler Version 18.00.40629.0 

	TITLE	D:\Metin2\Metin2\client_source_clean\client_source_clean\source\UserInterface\PythonIME.cpp
	.686P
	.XMM
	include listing.inc
	.model	flat

INCLUDELIB OLDNAMES

PUBLIC	??_C@_0BA@DKDMKINE@PythonIME?5Clear?$AA@	; `string'
PUBLIC	??_R2CPythonIME@@8				; CPythonIME::`RTTI Base Class Array'
PUBLIC	??_R2CIME@@8					; CIME::`RTTI Base Class Array'
PUBLIC	??_R2?$CSingleton@VCPythonIME@@@@8		; CSingleton<CPythonIME>::`RTTI Base Class Array'
PUBLIC	??_R2IIMEEventSink@@8				; IIMEEventSink::`RTTI Base Class Array'
PUBLIC	??_R13?0A@EA@CIME@@8				; CIME::`RTTI Base Class Descriptor at (4,-1,0,64)'
PUBLIC	??_R1ICI@?0A@EA@?$CSingleton@VCPythonIME@@@@8	; CSingleton<CPythonIME>::`RTTI Base Class Descriptor at (2088,-1,0,64)'
PUBLIC	??_R1A@?0A@EA@?$CSingleton@VCPythonIME@@@@8	; CSingleton<CPythonIME>::`RTTI Base Class Descriptor at (0,-1,0,64)'
PUBLIC	??_R1A@?0A@EA@CPythonIME@@8			; CPythonIME::`RTTI Base Class Descriptor at (0,-1,0,64)'
PUBLIC	??_R1A@?0A@EA@IIMEEventSink@@8			; IIMEEventSink::`RTTI Base Class Descriptor at (0,-1,0,64)'
PUBLIC	??_R1A@?0A@EA@CIME@@8				; CIME::`RTTI Base Class Descriptor at (0,-1,0,64)'
PUBLIC	??_R0?AV?$CSingleton@VCPythonIME@@@@@8		; CSingleton<CPythonIME> `RTTI Type Descriptor'
PUBLIC	??_R3?$CSingleton@VCPythonIME@@@@8		; CSingleton<CPythonIME>::`RTTI Class Hierarchy Descriptor'
PUBLIC	??_R0?AVCIME@@@8				; CIME `RTTI Type Descriptor'
PUBLIC	??_R3CIME@@8					; CIME::`RTTI Class Hierarchy Descriptor'
PUBLIC	??_R0?AVCPythonIME@@@8				; CPythonIME `RTTI Type Descriptor'
PUBLIC	??_R3CPythonIME@@8				; CPythonIME::`RTTI Class Hierarchy Descriptor'
PUBLIC	??_R0?AVIIMEEventSink@@@8			; IIMEEventSink `RTTI Type Descriptor'
PUBLIC	??_R3IIMEEventSink@@8				; IIMEEventSink::`RTTI Class Hierarchy Descriptor'
PUBLIC	??_R4CPythonIME@@6B?$CSingleton@VCPythonIME@@@@@ ; CPythonIME::`RTTI Complete Object Locator'
PUBLIC	??_R4?$CSingleton@VCPythonIME@@@@6B@		; CSingleton<CPythonIME>::`RTTI Complete Object Locator'
PUBLIC	??_R4CPythonIME@@6BIIMEEventSink@@@		; CPythonIME::`RTTI Complete Object Locator'
PUBLIC	??_R4CPythonIME@@6BCIME@@@			; CPythonIME::`RTTI Complete Object Locator'
PUBLIC	??_R4IIMEEventSink@@6B@				; IIMEEventSink::`RTTI Complete Object Locator'
PUBLIC	??_7?$CSingleton@VCPythonIME@@@@6B@		; CSingleton<CPythonIME>::`vftable'
PUBLIC	??_7IIMEEventSink@@6B@				; IIMEEventSink::`vftable'
PUBLIC	??_7CPythonIME@@6BCIME@@@			; CPythonIME::`vftable'
PUBLIC	??_7CPythonIME@@6B?$CSingleton@VCPythonIME@@@@@	; CPythonIME::`vftable'
PUBLIC	??_7CPythonIME@@6BIIMEEventSink@@@		; CPythonIME::`vftable'
EXTRN	?ms_bCaptureInput@CIME@@2_NA:BYTE		; CIME::ms_bCaptureInput
EXTRN	?DelCurPos@CIME@@IAEXXZ:PROC			; CIME::DelCurPos
EXTRN	?SetCurPos@CIME@@IAEXH@Z:PROC			; CIME::SetCurPos
EXTRN	?IncCurPos@CIME@@IAEXXZ:PROC			; CIME::IncCurPos
EXTRN	?DecCurPos@CIME@@IAEXXZ:PROC			; CIME::DecCurPos
EXTRN	?ms_lastpos@CIME@@2HA:DWORD			; CIME::ms_lastpos
EXTRN	?ms_curpos@CIME@@2HA:DWORD			; CIME::ms_curpos
EXTRN	?ms_pEvent@CIME@@2PAVIIMEEventSink@@A:DWORD	; CIME::ms_pEvent
EXTRN	?Initialize@CIME@@QAE_NPAUHWND__@@@Z:PROC	; CIME::Initialize
EXTRN	??1CIME@@UAE@XZ:PROC				; CIME::~CIME
EXTRN	??0CIME@@QAE@XZ:PROC				; CIME::CIME
;	COMDAT ??_7CPythonIME@@6BIIMEEventSink@@@
CONST	SEGMENT
??_7CPythonIME@@6BIIMEEventSink@@@ DD FLAT:??_R4CPythonIME@@6BIIMEEventSink@@@ ; CPythonIME::`vftable'
	DD	FLAT:?OnWM_CHAR@CPythonIME@@MAE_NIJ@Z
	DD	FLAT:?OnUpdate@CPythonIME@@MAEXXZ
	DD	FLAT:?OnChangeCodePage@CPythonIME@@MAEXXZ
	DD	FLAT:?OnOpenCandidateList@CPythonIME@@MAEXXZ
	DD	FLAT:?OnCloseCandidateList@CPythonIME@@MAEXXZ
	DD	FLAT:?OnOpenReadingWnd@CPythonIME@@MAEXXZ
	DD	FLAT:?OnCloseReadingWnd@CPythonIME@@MAEXXZ
	DD	FLAT:?OnTab@CPythonIME@@MAEXXZ
	DD	FLAT:?OnReturn@CPythonIME@@MAEXXZ
	DD	FLAT:?OnEscape@CPythonIME@@MAEXXZ
CONST	ENDS
;	COMDAT ??_7CPythonIME@@6B?$CSingleton@VCPythonIME@@@@@
CONST	SEGMENT
??_7CPythonIME@@6B?$CSingleton@VCPythonIME@@@@@ DD FLAT:??_R4CPythonIME@@6B?$CSingleton@VCPythonIME@@@@@ ; CPythonIME::`vftable'
	DD	FLAT:??_ECPythonIME@@WICI@AEPAXI@Z
CONST	ENDS
;	COMDAT ??_7CPythonIME@@6BCIME@@@
CONST	SEGMENT
??_7CPythonIME@@6BCIME@@@ DD FLAT:??_R4CPythonIME@@6BCIME@@@ ; CPythonIME::`vftable'
	DD	FLAT:??_ECPythonIME@@W3AEPAXI@Z
CONST	ENDS
;	COMDAT ??_7IIMEEventSink@@6B@
CONST	SEGMENT
??_7IIMEEventSink@@6B@ DD FLAT:??_R4IIMEEventSink@@6B@	; IIMEEventSink::`vftable'
	DD	FLAT:__purecall
	DD	FLAT:__purecall
	DD	FLAT:__purecall
	DD	FLAT:__purecall
	DD	FLAT:__purecall
	DD	FLAT:__purecall
	DD	FLAT:__purecall
CONST	ENDS
;	COMDAT ??_7?$CSingleton@VCPythonIME@@@@6B@
CONST	SEGMENT
??_7?$CSingleton@VCPythonIME@@@@6B@ DD FLAT:??_R4?$CSingleton@VCPythonIME@@@@6B@ ; CSingleton<CPythonIME>::`vftable'
	DD	FLAT:??_E?$CSingleton@VCPythonIME@@@@UAEPAXI@Z
CONST	ENDS
;	COMDAT ??_R4IIMEEventSink@@6B@
rdata$r	SEGMENT
??_R4IIMEEventSink@@6B@ DD 00H				; IIMEEventSink::`RTTI Complete Object Locator'
	DD	00H
	DD	00H
	DD	FLAT:??_R0?AVIIMEEventSink@@@8
	DD	FLAT:??_R3IIMEEventSink@@8
rdata$r	ENDS
;	COMDAT ??_R4CPythonIME@@6BCIME@@@
rdata$r	SEGMENT
??_R4CPythonIME@@6BCIME@@@ DD 00H			; CPythonIME::`RTTI Complete Object Locator'
	DD	04H
	DD	00H
	DD	FLAT:??_R0?AVCPythonIME@@@8
	DD	FLAT:??_R3CPythonIME@@8
rdata$r	ENDS
;	COMDAT ??_R4CPythonIME@@6BIIMEEventSink@@@
rdata$r	SEGMENT
??_R4CPythonIME@@6BIIMEEventSink@@@ DD 00H		; CPythonIME::`RTTI Complete Object Locator'
	DD	00H
	DD	00H
	DD	FLAT:??_R0?AVCPythonIME@@@8
	DD	FLAT:??_R3CPythonIME@@8
rdata$r	ENDS
;	COMDAT ??_R4?$CSingleton@VCPythonIME@@@@6B@
rdata$r	SEGMENT
??_R4?$CSingleton@VCPythonIME@@@@6B@ DD 00H		; CSingleton<CPythonIME>::`RTTI Complete Object Locator'
	DD	00H
	DD	00H
	DD	FLAT:??_R0?AV?$CSingleton@VCPythonIME@@@@@8
	DD	FLAT:??_R3?$CSingleton@VCPythonIME@@@@8
rdata$r	ENDS
;	COMDAT ??_R4CPythonIME@@6B?$CSingleton@VCPythonIME@@@@@
rdata$r	SEGMENT
??_R4CPythonIME@@6B?$CSingleton@VCPythonIME@@@@@ DD 00H	; CPythonIME::`RTTI Complete Object Locator'
	DD	0828H
	DD	00H
	DD	FLAT:??_R0?AVCPythonIME@@@8
	DD	FLAT:??_R3CPythonIME@@8
rdata$r	ENDS
;	COMDAT ??_R3IIMEEventSink@@8
rdata$r	SEGMENT
??_R3IIMEEventSink@@8 DD 00H				; IIMEEventSink::`RTTI Class Hierarchy Descriptor'
	DD	00H
	DD	01H
	DD	FLAT:??_R2IIMEEventSink@@8
rdata$r	ENDS
;	COMDAT ??_R0?AVIIMEEventSink@@@8
data$r	SEGMENT
??_R0?AVIIMEEventSink@@@8 DD FLAT:??_7type_info@@6B@	; IIMEEventSink `RTTI Type Descriptor'
	DD	00H
	DB	'.?AVIIMEEventSink@@', 00H
data$r	ENDS
;	COMDAT ??_R3CPythonIME@@8
rdata$r	SEGMENT
??_R3CPythonIME@@8 DD 00H				; CPythonIME::`RTTI Class Hierarchy Descriptor'
	DD	01H
	DD	04H
	DD	FLAT:??_R2CPythonIME@@8
rdata$r	ENDS
;	COMDAT ??_R0?AVCPythonIME@@@8
data$r	SEGMENT
??_R0?AVCPythonIME@@@8 DD FLAT:??_7type_info@@6B@	; CPythonIME `RTTI Type Descriptor'
	DD	00H
	DB	'.?AVCPythonIME@@', 00H
data$r	ENDS
;	COMDAT ??_R3CIME@@8
rdata$r	SEGMENT
??_R3CIME@@8 DD	00H					; CIME::`RTTI Class Hierarchy Descriptor'
	DD	00H
	DD	01H
	DD	FLAT:??_R2CIME@@8
rdata$r	ENDS
;	COMDAT ??_R0?AVCIME@@@8
data$r	SEGMENT
??_R0?AVCIME@@@8 DD FLAT:??_7type_info@@6B@		; CIME `RTTI Type Descriptor'
	DD	00H
	DB	'.?AVCIME@@', 00H
data$r	ENDS
;	COMDAT ??_R3?$CSingleton@VCPythonIME@@@@8
rdata$r	SEGMENT
??_R3?$CSingleton@VCPythonIME@@@@8 DD 00H		; CSingleton<CPythonIME>::`RTTI Class Hierarchy Descriptor'
	DD	00H
	DD	01H
	DD	FLAT:??_R2?$CSingleton@VCPythonIME@@@@8
rdata$r	ENDS
;	COMDAT ??_R0?AV?$CSingleton@VCPythonIME@@@@@8
data$r	SEGMENT
??_R0?AV?$CSingleton@VCPythonIME@@@@@8 DD FLAT:??_7type_info@@6B@ ; CSingleton<CPythonIME> `RTTI Type Descriptor'
	DD	00H
	DB	'.?AV?$CSingleton@VCPythonIME@@@@', 00H
data$r	ENDS
;	COMDAT ??_R1A@?0A@EA@CIME@@8
rdata$r	SEGMENT
??_R1A@?0A@EA@CIME@@8 DD FLAT:??_R0?AVCIME@@@8		; CIME::`RTTI Base Class Descriptor at (0,-1,0,64)'
	DD	00H
	DD	00H
	DD	0ffffffffH
	DD	00H
	DD	040H
	DD	FLAT:??_R3CIME@@8
rdata$r	ENDS
;	COMDAT ??_R1A@?0A@EA@IIMEEventSink@@8
rdata$r	SEGMENT
??_R1A@?0A@EA@IIMEEventSink@@8 DD FLAT:??_R0?AVIIMEEventSink@@@8 ; IIMEEventSink::`RTTI Base Class Descriptor at (0,-1,0,64)'
	DD	00H
	DD	00H
	DD	0ffffffffH
	DD	00H
	DD	040H
	DD	FLAT:??_R3IIMEEventSink@@8
rdata$r	ENDS
;	COMDAT ??_R1A@?0A@EA@CPythonIME@@8
rdata$r	SEGMENT
??_R1A@?0A@EA@CPythonIME@@8 DD FLAT:??_R0?AVCPythonIME@@@8 ; CPythonIME::`RTTI Base Class Descriptor at (0,-1,0,64)'
	DD	03H
	DD	00H
	DD	0ffffffffH
	DD	00H
	DD	040H
	DD	FLAT:??_R3CPythonIME@@8
rdata$r	ENDS
;	COMDAT ??_R1A@?0A@EA@?$CSingleton@VCPythonIME@@@@8
rdata$r	SEGMENT
??_R1A@?0A@EA@?$CSingleton@VCPythonIME@@@@8 DD FLAT:??_R0?AV?$CSingleton@VCPythonIME@@@@@8 ; CSingleton<CPythonIME>::`RTTI Base Class Descriptor at (0,-1,0,64)'
	DD	00H
	DD	00H
	DD	0ffffffffH
	DD	00H
	DD	040H
	DD	FLAT:??_R3?$CSingleton@VCPythonIME@@@@8
rdata$r	ENDS
;	COMDAT ??_R1ICI@?0A@EA@?$CSingleton@VCPythonIME@@@@8
rdata$r	SEGMENT
??_R1ICI@?0A@EA@?$CSingleton@VCPythonIME@@@@8 DD FLAT:??_R0?AV?$CSingleton@VCPythonIME@@@@@8 ; CSingleton<CPythonIME>::`RTTI Base Class Descriptor at (2088,-1,0,64)'
	DD	00H
	DD	0828H
	DD	0ffffffffH
	DD	00H
	DD	040H
	DD	FLAT:??_R3?$CSingleton@VCPythonIME@@@@8
rdata$r	ENDS
;	COMDAT ??_R13?0A@EA@CIME@@8
rdata$r	SEGMENT
??_R13?0A@EA@CIME@@8 DD FLAT:??_R0?AVCIME@@@8		; CIME::`RTTI Base Class Descriptor at (4,-1,0,64)'
	DD	00H
	DD	04H
	DD	0ffffffffH
	DD	00H
	DD	040H
	DD	FLAT:??_R3CIME@@8
rdata$r	ENDS
;	COMDAT ??_R2IIMEEventSink@@8
rdata$r	SEGMENT
??_R2IIMEEventSink@@8 DD FLAT:??_R1A@?0A@EA@IIMEEventSink@@8 ; IIMEEventSink::`RTTI Base Class Array'
rdata$r	ENDS
;	COMDAT ??_R2?$CSingleton@VCPythonIME@@@@8
rdata$r	SEGMENT
??_R2?$CSingleton@VCPythonIME@@@@8 DD FLAT:??_R1A@?0A@EA@?$CSingleton@VCPythonIME@@@@8 ; CSingleton<CPythonIME>::`RTTI Base Class Array'
rdata$r	ENDS
;	COMDAT ??_R2CIME@@8
rdata$r	SEGMENT
??_R2CIME@@8 DD	FLAT:??_R1A@?0A@EA@CIME@@8		; CIME::`RTTI Base Class Array'
rdata$r	ENDS
;	COMDAT ??_R2CPythonIME@@8
rdata$r	SEGMENT
??_R2CPythonIME@@8 DD FLAT:??_R1A@?0A@EA@CPythonIME@@8	; CPythonIME::`RTTI Base Class Array'
	DD	FLAT:??_R1A@?0A@EA@IIMEEventSink@@8
	DD	FLAT:??_R13?0A@EA@CIME@@8
	DD	FLAT:??_R1ICI@?0A@EA@?$CSingleton@VCPythonIME@@@@8
rdata$r	ENDS
;	COMDAT ??_C@_0BA@DKDMKINE@PythonIME?5Clear?$AA@
CONST	SEGMENT
??_C@_0BA@DKDMKINE@PythonIME?5Clear?$AA@ DB 'PythonIME Clear', 00H ; `string'
PUBLIC	??_ECPythonIME@@WICI@AEPAXI@Z			; [thunk]:CPythonIME::`vector deleting destructor'
PUBLIC	??_ECPythonIME@@W3AEPAXI@Z			; [thunk]:CPythonIME::`vector deleting destructor'
PUBLIC	??_G?$CSingleton@VCPythonIME@@@@UAEPAXI@Z	; CSingleton<CPythonIME>::`scalar deleting destructor'
PUBLIC	??1?$CSingleton@VCPythonIME@@@@UAE@XZ		; CSingleton<CPythonIME>::~CSingleton<CPythonIME>
PUBLIC	??0?$CSingleton@VCPythonIME@@@@QAE@XZ		; CSingleton<CPythonIME>::CSingleton<CPythonIME>
PUBLIC	?OnCloseReadingWnd@CPythonIME@@MAEXXZ		; CPythonIME::OnCloseReadingWnd
PUBLIC	?OnOpenReadingWnd@CPythonIME@@MAEXXZ		; CPythonIME::OnOpenReadingWnd
PUBLIC	?OnCloseCandidateList@CPythonIME@@MAEXXZ	; CPythonIME::OnCloseCandidateList
PUBLIC	?OnOpenCandidateList@CPythonIME@@MAEXXZ		; CPythonIME::OnOpenCandidateList
PUBLIC	?OnChangeCodePage@CPythonIME@@MAEXXZ		; CPythonIME::OnChangeCodePage
PUBLIC	?OnWM_CHAR@CPythonIME@@MAE_NIJ@Z		; CPythonIME::OnWM_CHAR
PUBLIC	?OnEscape@CPythonIME@@MAEXXZ			; CPythonIME::OnEscape
PUBLIC	?OnReturn@CPythonIME@@MAEXXZ			; CPythonIME::OnReturn
PUBLIC	?OnTab@CPythonIME@@MAEXXZ			; CPythonIME::OnTab
PUBLIC	?OnUpdate@CPythonIME@@MAEXXZ			; CPythonIME::OnUpdate
PUBLIC	?Delete@CPythonIME@@QAEXXZ			; CPythonIME::Delete
PUBLIC	?SetCursorPosition@CPythonIME@@QAEXH@Z		; CPythonIME::SetCursorPosition
PUBLIC	?MoveEnd@CPythonIME@@QAEXXZ			; CPythonIME::MoveEnd
PUBLIC	?MoveHome@CPythonIME@@QAEXXZ			; CPythonIME::MoveHome
PUBLIC	?MoveRight@CPythonIME@@QAEXXZ			; CPythonIME::MoveRight
PUBLIC	?MoveLeft@CPythonIME@@QAEXXZ			; CPythonIME::MoveLeft
PUBLIC	??0IIMEEventSink@@QAE@XZ			; IIMEEventSink::IIMEEventSink
PUBLIC	??_GCPythonIME@@UAEPAXI@Z			; CPythonIME::`scalar deleting destructor'
PUBLIC	??0CPythonIME@@QAE@XZ				; CPythonIME::CPythonIME
PUBLIC	??1CPythonIME@@UAE@XZ				; CPythonIME::~CPythonIME
PUBLIC	?Create@CPythonIME@@QAEXPAUHWND__@@@Z		; CPythonIME::Create
EXTRN	??_E?$CSingleton@VCPythonIME@@@@UAEPAXI@Z:PROC	; CSingleton<CPythonIME>::`vector deleting destructor'
EXTRN	??_ECPythonIME@@UAEPAXI@Z:PROC			; CPythonIME::`vector deleting destructor'
;	COMDAT xdata$x
xdata$x	SEGMENT
__ehfuncinfo$??1CPythonIME@@UAE@XZ DD 019930522H
	DD	02H
	DD	FLAT:__unwindtable$??1CPythonIME@@UAE@XZ
	DD	2 DUP(00H)
	DD	2 DUP(00H)
	DD	00H
	DD	01H
__unwindtable$??1CPythonIME@@UAE@XZ DD 0ffffffffH
	DD	FLAT:__unwindfunclet$??1CPythonIME@@UAE@XZ$0
	DD	00H
	DD	FLAT:__unwindfunclet$??1CPythonIME@@UAE@XZ$1
; Function compile flags: /Ogtp
; File d:\metin2\metin2\client_source_clean\client_source_clean\source\userinterface\pythonime.cpp
;	COMDAT ?Create@CPythonIME@@QAEXPAUHWND__@@@Z
_TEXT	SEGMENT
_hWnd$ = 8						; size = 4
?Create@CPythonIME@@QAEXPAUHWND__@@@Z PROC		; CPythonIME::Create, COMDAT
; _this$ = ecx

; 17   : {

  00000	55		 push	 ebp
  00001	8b ec		 mov	 ebp, esp

; 18   : 	Initialize(hWnd);

  00003	83 c1 04	 add	 ecx, 4

; 19   : }

  00006	5d		 pop	 ebp

; 18   : 	Initialize(hWnd);

  00007	e9 00 00 00 00	 jmp	 ?Initialize@CIME@@QAE_NPAUHWND__@@@Z ; CIME::Initialize
?Create@CPythonIME@@QAEXPAUHWND__@@@Z ENDP		; CPythonIME::Create
_TEXT	ENDS
; Function compile flags: /Ogtp
; File d:\metin2\metin2\client_source_clean\client_source_clean\source\userinterface\pythonime.cpp
; File d:\metin2\metin2\client_source_clean\client_source_clean\source\eterbase\singleton.h
; File d:\metin2\metin2\client_source_clean\client_source_clean\source\userinterface\pythonime.cpp
; File d:\metin2\metin2\client_source_clean\client_source_clean\source\eterbase\singleton.h
; File d:\metin2\metin2\client_source_clean\client_source_clean\source\userinterface\pythonime.cpp
;	COMDAT ??1CPythonIME@@UAE@XZ
_TEXT	SEGMENT
_this$ = -16						; size = 4
__$EHRec$ = -12						; size = 12
??1CPythonIME@@UAE@XZ PROC				; CPythonIME::~CPythonIME, COMDAT
; _this$ = ecx

; 12   : {

  00000	55		 push	 ebp
  00001	8b ec		 mov	 ebp, esp
  00003	6a ff		 push	 -1
  00005	68 00 00 00 00	 push	 __ehhandler$??1CPythonIME@@UAE@XZ
  0000a	64 a1 00 00 00
	00		 mov	 eax, DWORD PTR fs:0
  00010	50		 push	 eax
  00011	51		 push	 ecx
  00012	56		 push	 esi
  00013	57		 push	 edi
  00014	a1 00 00 00 00	 mov	 eax, DWORD PTR ___security_cookie
  00019	33 c5		 xor	 eax, ebp
  0001b	50		 push	 eax
  0001c	8d 45 f4	 lea	 eax, DWORD PTR __$EHRec$[ebp]
  0001f	64 a3 00 00 00
	00		 mov	 DWORD PTR fs:0, eax
  00025	8b f9		 mov	 edi, ecx
  00027	89 7d f0	 mov	 DWORD PTR _this$[ebp], edi
  0002a	c7 07 00 00 00
	00		 mov	 DWORD PTR [edi], OFFSET ??_7CPythonIME@@6BIIMEEventSink@@@
  00030	c7 47 04 00 00
	00 00		 mov	 DWORD PTR [edi+4], OFFSET ??_7CPythonIME@@6BCIME@@@
  00037	c7 87 28 08 00
	00 00 00 00 00	 mov	 DWORD PTR [edi+2088], OFFSET ??_7CPythonIME@@6B?$CSingleton@VCPythonIME@@@@@

; 13   : 	Tracen("PythonIME Clear");

  00041	68 00 00 00 00	 push	 OFFSET ??_C@_0BA@DKDMKINE@PythonIME?5Clear?$AA@
  00046	c7 45 fc 01 00
	00 00		 mov	 DWORD PTR __$EHRec$[ebp+8], 1
  0004d	e8 00 00 00 00	 call	 ?Tracen@@YAXPBD@Z	; Tracen
  00052	83 c4 04	 add	 esp, 4
; File d:\metin2\metin2\client_source_clean\client_source_clean\source\eterbase\singleton.h

; 19   : 	{ 

  00055	c7 87 28 08 00
	00 00 00 00 00	 mov	 DWORD PTR [edi+2088], OFFSET ??_7?$CSingleton@VCPythonIME@@@@6B@
; File d:\metin2\metin2\client_source_clean\client_source_clean\source\userinterface\pythonime.cpp

; 14   : }

  0005f	8d 4f 04	 lea	 ecx, DWORD PTR [edi+4]
; File d:\metin2\metin2\client_source_clean\client_source_clean\source\eterbase\singleton.h

; 21   : 		ms_singleton = 0; 

  00062	c7 05 00 00 00
	00 00 00 00 00	 mov	 DWORD PTR ?ms_singleton@?$CSingleton@VCPythonIME@@@@0PAVCPythonIME@@A, 0 ; CSingleton<CPythonIME>::ms_singleton
; File d:\metin2\metin2\client_source_clean\client_source_clean\source\userinterface\pythonime.cpp

; 14   : }

  0006c	c7 45 fc ff ff
	ff ff		 mov	 DWORD PTR __$EHRec$[ebp+8], -1
  00073	e8 00 00 00 00	 call	 ??1CIME@@UAE@XZ		; CIME::~CIME
  00078	8b 4d f4	 mov	 ecx, DWORD PTR __$EHRec$[ebp]
  0007b	64 89 0d 00 00
	00 00		 mov	 DWORD PTR fs:0, ecx
  00082	59		 pop	 ecx
  00083	5f		 pop	 edi
  00084	5e		 pop	 esi
  00085	8b e5		 mov	 esp, ebp
  00087	5d		 pop	 ebp
  00088	c3		 ret	 0
_TEXT	ENDS
;	COMDAT text$x
text$x	SEGMENT
__unwindfunclet$??1CPythonIME@@UAE@XZ$0:
  00000	8b 4d f0	 mov	 ecx, DWORD PTR _this$[ebp]
  00003	83 c1 04	 add	 ecx, 4
  00006	e9 00 00 00 00	 jmp	 ??1CIME@@UAE@XZ		; CIME::~CIME
__unwindfunclet$??1CPythonIME@@UAE@XZ$1:
  0000b	8b 4d f0	 mov	 ecx, DWORD PTR _this$[ebp]
  0000e	81 c1 28 08 00
	00		 add	 ecx, 2088		; 00000828H
  00014	e9 00 00 00 00	 jmp	 ??1?$CSingleton@VCPythonIME@@@@UAE@XZ ; CSingleton<CPythonIME>::~CSingleton<CPythonIME>
__ehhandler$??1CPythonIME@@UAE@XZ:
  00019	8b 54 24 08	 mov	 edx, DWORD PTR [esp+8]
  0001d	8d 42 0c	 lea	 eax, DWORD PTR [edx+12]
  00020	8b 4a f0	 mov	 ecx, DWORD PTR [edx-16]
  00023	33 c8		 xor	 ecx, eax
  00025	e8 00 00 00 00	 call	 @__security_check_cookie@4
  0002a	b8 00 00 00 00	 mov	 eax, OFFSET __ehfuncinfo$??1CPythonIME@@UAE@XZ
  0002f	e9 00 00 00 00	 jmp	 ___CxxFrameHandler3
text$x	ENDS
??1CPythonIME@@UAE@XZ ENDP				; CPythonIME::~CPythonIME
; Function compile flags: /Ogtp
; File d:\metin2\metin2\client_source_clean\client_source_clean\source\userinterface\pythonime.cpp
; File d:\metin2\metin2\client_source_clean\client_source_clean\source\eterbase\singleton.h
; File d:\metin2\metin2\client_source_clean\client_source_clean\source\userinterface\pythonime.cpp
; File d:\metin2\metin2\client_source_clean\client_source_clean\source\eterbase\singleton.h
; File d:\metin2\metin2\client_source_clean\client_source_clean\source\userinterface\pythonime.cpp
;	COMDAT ??0CPythonIME@@QAE@XZ
_TEXT	SEGMENT
??0CPythonIME@@QAE@XZ PROC				; CPythonIME::CPythonIME, COMDAT
; _this$ = ecx

; 7    : {

  00000	56		 push	 esi
  00001	57		 push	 edi
  00002	8b f9		 mov	 edi, ecx
  00004	8d 4f 04	 lea	 ecx, DWORD PTR [edi+4]
  00007	c7 07 00 00 00
	00		 mov	 DWORD PTR [edi], OFFSET ??_7IIMEEventSink@@6B@
  0000d	e8 00 00 00 00	 call	 ??0CIME@@QAE@XZ		; CIME::CIME
; File d:\metin2\metin2\client_source_clean\client_source_clean\source\eterbase\singleton.h

; 11   : 	CSingleton()

  00012	c7 87 28 08 00
	00 00 00 00 00	 mov	 DWORD PTR [edi+2088], OFFSET ??_7?$CSingleton@VCPythonIME@@@@6B@

; 15   : 		ms_singleton = (T*) ((int) this + offset);

  0001c	8b c7		 mov	 eax, edi
; File d:\metin2\metin2\client_source_clean\client_source_clean\source\userinterface\pythonime.cpp

; 7    : {

  0001e	c7 07 00 00 00
	00		 mov	 DWORD PTR [edi], OFFSET ??_7CPythonIME@@6BIIMEEventSink@@@
  00024	c7 47 04 00 00
	00 00		 mov	 DWORD PTR [edi+4], OFFSET ??_7CPythonIME@@6BCIME@@@
  0002b	c7 87 28 08 00
	00 00 00 00 00	 mov	 DWORD PTR [edi+2088], OFFSET ??_7CPythonIME@@6B?$CSingleton@VCPythonIME@@@@@

; 8    : 	ms_pEvent = this;

  00035	89 3d 00 00 00
	00		 mov	 DWORD PTR ?ms_pEvent@CIME@@2PAVIIMEEventSink@@A, edi ; CIME::ms_pEvent
  0003b	5f		 pop	 edi
; File d:\metin2\metin2\client_source_clean\client_source_clean\source\eterbase\singleton.h

; 15   : 		ms_singleton = (T*) ((int) this + offset);

  0003c	a3 00 00 00 00	 mov	 DWORD PTR ?ms_singleton@?$CSingleton@VCPythonIME@@@@0PAVCPythonIME@@A, eax ; CSingleton<CPythonIME>::ms_singleton
  00041	5e		 pop	 esi
; File d:\metin2\metin2\client_source_clean\client_source_clean\source\userinterface\pythonime.cpp

; 9    : }

  00042	c3		 ret	 0
??0CPythonIME@@QAE@XZ ENDP				; CPythonIME::CPythonIME
_TEXT	ENDS
; Function compile flags: /Ogtp
;	COMDAT ??_GCPythonIME@@UAEPAXI@Z
_TEXT	SEGMENT
___flags$ = 8						; size = 4
??_GCPythonIME@@UAEPAXI@Z PROC				; CPythonIME::`scalar deleting destructor', COMDAT
; _this$ = ecx
  00000	55		 push	 ebp
  00001	8b ec		 mov	 ebp, esp
  00003	56		 push	 esi
  00004	8b f1		 mov	 esi, ecx
  00006	e8 00 00 00 00	 call	 ??1CPythonIME@@UAE@XZ	; CPythonIME::~CPythonIME
  0000b	f6 45 08 01	 test	 BYTE PTR ___flags$[ebp], 1
  0000f	74 09		 je	 SHORT $LN4@scalar
  00011	56		 push	 esi
  00012	e8 00 00 00 00	 call	 ??3@YAXPAX@Z		; operator delete
  00017	83 c4 04	 add	 esp, 4
$LN4@scalar:
  0001a	8b c6		 mov	 eax, esi
  0001c	5e		 pop	 esi
  0001d	5d		 pop	 ebp
  0001e	c2 04 00	 ret	 4
??_GCPythonIME@@UAEPAXI@Z ENDP				; CPythonIME::`scalar deleting destructor'
_TEXT	ENDS
; Function compile flags: /Ogtp
;	COMDAT ??0IIMEEventSink@@QAE@XZ
_TEXT	SEGMENT
??0IIMEEventSink@@QAE@XZ PROC				; IIMEEventSink::IIMEEventSink, COMDAT
; _this$ = ecx
  00000	c7 01 00 00 00
	00		 mov	 DWORD PTR [ecx], OFFSET ??_7IIMEEventSink@@6B@
  00006	8b c1		 mov	 eax, ecx
  00008	c3		 ret	 0
??0IIMEEventSink@@QAE@XZ ENDP				; IIMEEventSink::IIMEEventSink
_TEXT	ENDS
; Function compile flags: /Ogtp
; File d:\metin2\metin2\client_source_clean\client_source_clean\source\userinterface\pythonime.cpp
;	COMDAT ?MoveLeft@CPythonIME@@QAEXXZ
_TEXT	SEGMENT
?MoveLeft@CPythonIME@@QAEXXZ PROC			; CPythonIME::MoveLeft, COMDAT
; _this$ = ecx

; 23   : 	DecCurPos();

  00000	83 c1 04	 add	 ecx, 4
  00003	e9 00 00 00 00	 jmp	 ?DecCurPos@CIME@@IAEXXZ	; CIME::DecCurPos
?MoveLeft@CPythonIME@@QAEXXZ ENDP			; CPythonIME::MoveLeft
_TEXT	ENDS
; Function compile flags: /Ogtp
; File d:\metin2\metin2\client_source_clean\client_source_clean\source\userinterface\pythonime.cpp
;	COMDAT ?MoveRight@CPythonIME@@QAEXXZ
_TEXT	SEGMENT
?MoveRight@CPythonIME@@QAEXXZ PROC			; CPythonIME::MoveRight, COMDAT
; _this$ = ecx

; 28   : 	IncCurPos();

  00000	83 c1 04	 add	 ecx, 4
  00003	e9 00 00 00 00	 jmp	 ?IncCurPos@CIME@@IAEXXZ	; CIME::IncCurPos
?MoveRight@CPythonIME@@QAEXXZ ENDP			; CPythonIME::MoveRight
_TEXT	ENDS
; Function compile flags: /Ogtp
; File d:\metin2\metin2\client_source_clean\client_source_clean\source\userinterface\pythonime.cpp
;	COMDAT ?MoveHome@CPythonIME@@QAEXXZ
_TEXT	SEGMENT
?MoveHome@CPythonIME@@QAEXXZ PROC			; CPythonIME::MoveHome, COMDAT
; _this$dead$ = ecx

; 33   : 	ms_curpos = 0;

  00000	c7 05 00 00 00
	00 00 00 00 00	 mov	 DWORD PTR ?ms_curpos@CIME@@2HA, 0 ; CIME::ms_curpos

; 34   : }

  0000a	c3		 ret	 0
?MoveHome@CPythonIME@@QAEXXZ ENDP			; CPythonIME::MoveHome
_TEXT	ENDS
; Function compile flags: /Ogtp
; File d:\metin2\metin2\client_source_clean\client_source_clean\source\userinterface\pythonime.cpp
;	COMDAT ?MoveEnd@CPythonIME@@QAEXXZ
_TEXT	SEGMENT
?MoveEnd@CPythonIME@@QAEXXZ PROC			; CPythonIME::MoveEnd, COMDAT
; _this$dead$ = ecx

; 38   : 	ms_curpos = ms_lastpos;

  00000	a1 00 00 00 00	 mov	 eax, DWORD PTR ?ms_lastpos@CIME@@2HA ; CIME::ms_lastpos
  00005	a3 00 00 00 00	 mov	 DWORD PTR ?ms_curpos@CIME@@2HA, eax ; CIME::ms_curpos

; 39   : }

  0000a	c3		 ret	 0
?MoveEnd@CPythonIME@@QAEXXZ ENDP			; CPythonIME::MoveEnd
_TEXT	ENDS
; Function compile flags: /Ogtp
; File d:\metin2\metin2\client_source_clean\client_source_clean\source\userinterface\pythonime.cpp
;	COMDAT ?SetCursorPosition@CPythonIME@@QAEXH@Z
_TEXT	SEGMENT
_iPosition$ = 8						; size = 4
?SetCursorPosition@CPythonIME@@QAEXH@Z PROC		; CPythonIME::SetCursorPosition, COMDAT
; _this$ = ecx

; 42   : {

  00000	55		 push	 ebp
  00001	8b ec		 mov	 ebp, esp

; 43   : 	SetCurPos(iPosition);

  00003	83 c1 04	 add	 ecx, 4

; 44   : }

  00006	5d		 pop	 ebp

; 43   : 	SetCurPos(iPosition);

  00007	e9 00 00 00 00	 jmp	 ?SetCurPos@CIME@@IAEXH@Z ; CIME::SetCurPos
?SetCursorPosition@CPythonIME@@QAEXH@Z ENDP		; CPythonIME::SetCursorPosition
_TEXT	ENDS
; Function compile flags: /Ogtp
; File d:\metin2\metin2\client_source_clean\client_source_clean\source\userinterface\pythonime.cpp
;	COMDAT ?Delete@CPythonIME@@QAEXXZ
_TEXT	SEGMENT
?Delete@CPythonIME@@QAEXXZ PROC				; CPythonIME::Delete, COMDAT
; _this$ = ecx

; 48   : 	DelCurPos();

  00000	83 c1 04	 add	 ecx, 4
  00003	e9 00 00 00 00	 jmp	 ?DelCurPos@CIME@@IAEXXZ	; CIME::DelCurPos
?Delete@CPythonIME@@QAEXXZ ENDP				; CPythonIME::Delete
_TEXT	ENDS
; Function compile flags: /Ogtp
; File d:\metin2\metin2\client_source_clean\client_source_clean\source\userinterface\pythonime.cpp
;	COMDAT ?OnUpdate@CPythonIME@@MAEXXZ
_TEXT	SEGMENT
?OnUpdate@CPythonIME@@MAEXXZ PROC			; CPythonIME::OnUpdate, COMDAT
; _this$ = ecx

; 53   : 	IAbstractApplication::GetSingleton().RunIMEUpdate();

  00000	8b 0d 00 00 00
	00		 mov	 ecx, DWORD PTR ?ms_singleton@?$TAbstractSingleton@VIAbstractApplication@@@@0PAVIAbstractApplication@@A ; TAbstractSingleton<IAbstractApplication>::ms_singleton
  00006	8b 01		 mov	 eax, DWORD PTR [ecx]
  00008	ff 60 28	 jmp	 DWORD PTR [eax+40]
?OnUpdate@CPythonIME@@MAEXXZ ENDP			; CPythonIME::OnUpdate
_TEXT	ENDS
; Function compile flags: /Ogtp
; File d:\metin2\metin2\client_source_clean\client_source_clean\source\userinterface\pythonime.cpp
;	COMDAT ?OnTab@CPythonIME@@MAEXXZ
_TEXT	SEGMENT
?OnTab@CPythonIME@@MAEXXZ PROC				; CPythonIME::OnTab, COMDAT
; _this$ = ecx

; 58   : 	IAbstractApplication::GetSingleton().RunIMETabEvent();

  00000	8b 0d 00 00 00
	00		 mov	 ecx, DWORD PTR ?ms_singleton@?$TAbstractSingleton@VIAbstractApplication@@@@0PAVIAbstractApplication@@A ; TAbstractSingleton<IAbstractApplication>::ms_singleton
  00006	8b 01		 mov	 eax, DWORD PTR [ecx]
  00008	ff 60 2c	 jmp	 DWORD PTR [eax+44]
?OnTab@CPythonIME@@MAEXXZ ENDP				; CPythonIME::OnTab
_TEXT	ENDS
; Function compile flags: /Ogtp
; File d:\metin2\metin2\client_source_clean\client_source_clean\source\userinterface\pythonime.cpp
;	COMDAT ?OnReturn@CPythonIME@@MAEXXZ
_TEXT	SEGMENT
?OnReturn@CPythonIME@@MAEXXZ PROC			; CPythonIME::OnReturn, COMDAT
; _this$ = ecx

; 63   : 	IAbstractApplication::GetSingleton().RunIMEReturnEvent();

  00000	8b 0d 00 00 00
	00		 mov	 ecx, DWORD PTR ?ms_singleton@?$TAbstractSingleton@VIAbstractApplication@@@@0PAVIAbstractApplication@@A ; TAbstractSingleton<IAbstractApplication>::ms_singleton
  00006	8b 01		 mov	 eax, DWORD PTR [ecx]
  00008	ff 60 30	 jmp	 DWORD PTR [eax+48]
?OnReturn@CPythonIME@@MAEXXZ ENDP			; CPythonIME::OnReturn
_TEXT	ENDS
; Function compile flags: /Ogtp
; File d:\metin2\metin2\client_source_clean\client_source_clean\source\userinterface\pythonime.cpp
;	COMDAT ?OnEscape@CPythonIME@@MAEXXZ
_TEXT	SEGMENT
?OnEscape@CPythonIME@@MAEXXZ PROC			; CPythonIME::OnEscape, COMDAT
; _this$ = ecx

; 68   : //	IAbstractApplication::GetSingleton().RunIMEEscapeEvent();
; 69   : }

  00000	c3		 ret	 0
?OnEscape@CPythonIME@@MAEXXZ ENDP			; CPythonIME::OnEscape
_TEXT	ENDS
; Function compile flags: /Ogtp
; File d:\metin2\metin2\client_source_clean\client_source_clean\source\userinterface\pythonime.cpp
;	COMDAT ?OnWM_CHAR@CPythonIME@@MAE_NIJ@Z
_TEXT	SEGMENT
_wParam$ = 8						; size = 4
_lParam$ = 12						; size = 4
?OnWM_CHAR@CPythonIME@@MAE_NIJ@Z PROC			; CPythonIME::OnWM_CHAR, COMDAT
; _this$ = ecx

; 72   : {

  00000	55		 push	 ebp
  00001	8b ec		 mov	 ebp, esp

; 73   : 	unsigned char c = unsigned char(wParam & 0xff);
; 74   : 
; 75   : 	switch (c) 

  00003	8b 45 08	 mov	 eax, DWORD PTR _wParam$[ebp]
  00006	3c 09		 cmp	 al, 9
  00008	74 27		 je	 SHORT $LN4@OnWM_CHAR
  0000a	3c 0d		 cmp	 al, 13			; 0000000dH
  0000c	74 18		 je	 SHORT $LN5@OnWM_CHAR
  0000e	3c 1b		 cmp	 al, 27			; 0000001bH
  00010	75 28		 jne	 SHORT $LN11@OnWM_CHAR

; 86   : 
; 87   : 	case VK_ESCAPE:
; 88   : 		if(ms_bCaptureInput == false)

  00012	80 3d 00 00 00
	00 00		 cmp	 BYTE PTR ?ms_bCaptureInput@CIME@@2_NA, 0 ; CIME::ms_bCaptureInput
  00019	74 1f		 je	 SHORT $LN11@OnWM_CHAR

; 89   : 			return 0;
; 90   : 		OnEscape();

  0001b	8b 01		 mov	 eax, DWORD PTR [ecx]
  0001d	ff 50 24	 call	 DWORD PTR [eax+36]
  00020	b0 01		 mov	 al, 1

; 91   : 		return true;
; 92   : 	}
; 93   : 	return false;
; 94   : }

  00022	5d		 pop	 ebp
  00023	c2 08 00	 ret	 8
$LN5@OnWM_CHAR:

; 76   : 	{
; 77   : 	case VK_RETURN:
; 78   : 		OnReturn();

  00026	8b 01		 mov	 eax, DWORD PTR [ecx]
  00028	ff 50 20	 call	 DWORD PTR [eax+32]

; 85   : 		return true;

  0002b	b0 01		 mov	 al, 1

; 91   : 		return true;
; 92   : 	}
; 93   : 	return false;
; 94   : }

  0002d	5d		 pop	 ebp
  0002e	c2 08 00	 ret	 8
$LN4@OnWM_CHAR:

; 79   : 		return true;
; 80   : 
; 81   : 	case VK_TAB:
; 82   : 		if(ms_bCaptureInput == false)

  00031	80 3d 00 00 00
	00 00		 cmp	 BYTE PTR ?ms_bCaptureInput@CIME@@2_NA, 0 ; CIME::ms_bCaptureInput
  00038	75 06		 jne	 SHORT $LN3@OnWM_CHAR
$LN11@OnWM_CHAR:

; 83   : 			return 0;

  0003a	32 c0		 xor	 al, al

; 91   : 		return true;
; 92   : 	}
; 93   : 	return false;
; 94   : }

  0003c	5d		 pop	 ebp
  0003d	c2 08 00	 ret	 8
$LN3@OnWM_CHAR:

; 84   : 		OnTab();

  00040	8b 01		 mov	 eax, DWORD PTR [ecx]
  00042	ff 50 1c	 call	 DWORD PTR [eax+28]

; 85   : 		return true;

  00045	b0 01		 mov	 al, 1

; 91   : 		return true;
; 92   : 	}
; 93   : 	return false;
; 94   : }

  00047	5d		 pop	 ebp
  00048	c2 08 00	 ret	 8
?OnWM_CHAR@CPythonIME@@MAE_NIJ@Z ENDP			; CPythonIME::OnWM_CHAR
_TEXT	ENDS
; Function compile flags: /Ogtp
; File d:\metin2\metin2\client_source_clean\client_source_clean\source\userinterface\pythonime.cpp
;	COMDAT ?OnChangeCodePage@CPythonIME@@MAEXXZ
_TEXT	SEGMENT
?OnChangeCodePage@CPythonIME@@MAEXXZ PROC		; CPythonIME::OnChangeCodePage, COMDAT
; _this$ = ecx

; 98   : 	IAbstractApplication::GetSingleton().RunIMEChangeCodePage();

  00000	8b 0d 00 00 00
	00		 mov	 ecx, DWORD PTR ?ms_singleton@?$TAbstractSingleton@VIAbstractApplication@@@@0PAVIAbstractApplication@@A ; TAbstractSingleton<IAbstractApplication>::ms_singleton
  00006	8b 01		 mov	 eax, DWORD PTR [ecx]
  00008	ff 60 34	 jmp	 DWORD PTR [eax+52]
?OnChangeCodePage@CPythonIME@@MAEXXZ ENDP		; CPythonIME::OnChangeCodePage
_TEXT	ENDS
; Function compile flags: /Ogtp
; File d:\metin2\metin2\client_source_clean\client_source_clean\source\userinterface\pythonime.cpp
;	COMDAT ?OnOpenCandidateList@CPythonIME@@MAEXXZ
_TEXT	SEGMENT
?OnOpenCandidateList@CPythonIME@@MAEXXZ PROC		; CPythonIME::OnOpenCandidateList, COMDAT
; _this$ = ecx

; 103  : 	IAbstractApplication::GetSingleton().RunIMEOpenCandidateListEvent();

  00000	8b 0d 00 00 00
	00		 mov	 ecx, DWORD PTR ?ms_singleton@?$TAbstractSingleton@VIAbstractApplication@@@@0PAVIAbstractApplication@@A ; TAbstractSingleton<IAbstractApplication>::ms_singleton
  00006	8b 01		 mov	 eax, DWORD PTR [ecx]
  00008	ff 60 38	 jmp	 DWORD PTR [eax+56]
?OnOpenCandidateList@CPythonIME@@MAEXXZ ENDP		; CPythonIME::OnOpenCandidateList
_TEXT	ENDS
; Function compile flags: /Ogtp
; File d:\metin2\metin2\client_source_clean\client_source_clean\source\userinterface\pythonime.cpp
;	COMDAT ?OnCloseCandidateList@CPythonIME@@MAEXXZ
_TEXT	SEGMENT
?OnCloseCandidateList@CPythonIME@@MAEXXZ PROC		; CPythonIME::OnCloseCandidateList, COMDAT
; _this$ = ecx

; 108  : 	IAbstractApplication::GetSingleton().RunIMECloseCandidateListEvent();

  00000	8b 0d 00 00 00
	00		 mov	 ecx, DWORD PTR ?ms_singleton@?$TAbstractSingleton@VIAbstractApplication@@@@0PAVIAbstractApplication@@A ; TAbstractSingleton<IAbstractApplication>::ms_singleton
  00006	8b 01		 mov	 eax, DWORD PTR [ecx]
  00008	ff 60 3c	 jmp	 DWORD PTR [eax+60]
?OnCloseCandidateList@CPythonIME@@MAEXXZ ENDP		; CPythonIME::OnCloseCandidateList
_TEXT	ENDS
; Function compile flags: /Ogtp
; File d:\metin2\metin2\client_source_clean\client_source_clean\source\userinterface\pythonime.cpp
;	COMDAT ?OnOpenReadingWnd@CPythonIME@@MAEXXZ
_TEXT	SEGMENT
?OnOpenReadingWnd@CPythonIME@@MAEXXZ PROC		; CPythonIME::OnOpenReadingWnd, COMDAT
; _this$ = ecx

; 113  : 	IAbstractApplication::GetSingleton().RunIMEOpenReadingWndEvent();

  00000	8b 0d 00 00 00
	00		 mov	 ecx, DWORD PTR ?ms_singleton@?$TAbstractSingleton@VIAbstractApplication@@@@0PAVIAbstractApplication@@A ; TAbstractSingleton<IAbstractApplication>::ms_singleton
  00006	8b 01		 mov	 eax, DWORD PTR [ecx]
  00008	ff 60 40	 jmp	 DWORD PTR [eax+64]
?OnOpenReadingWnd@CPythonIME@@MAEXXZ ENDP		; CPythonIME::OnOpenReadingWnd
_TEXT	ENDS
; Function compile flags: /Ogtp
; File d:\metin2\metin2\client_source_clean\client_source_clean\source\userinterface\pythonime.cpp
;	COMDAT ?OnCloseReadingWnd@CPythonIME@@MAEXXZ
_TEXT	SEGMENT
?OnCloseReadingWnd@CPythonIME@@MAEXXZ PROC		; CPythonIME::OnCloseReadingWnd, COMDAT
; _this$ = ecx

; 118  : 	IAbstractApplication::GetSingleton().RunIMECloseReadingWndEvent();

  00000	8b 0d 00 00 00
	00		 mov	 ecx, DWORD PTR ?ms_singleton@?$TAbstractSingleton@VIAbstractApplication@@@@0PAVIAbstractApplication@@A ; TAbstractSingleton<IAbstractApplication>::ms_singleton
  00006	8b 01		 mov	 eax, DWORD PTR [ecx]
  00008	ff 60 44	 jmp	 DWORD PTR [eax+68]
?OnCloseReadingWnd@CPythonIME@@MAEXXZ ENDP		; CPythonIME::OnCloseReadingWnd
_TEXT	ENDS
; Function compile flags: /Ogtp
; File d:\metin2\metin2\client_source_clean\client_source_clean\source\eterbase\singleton.h
;	COMDAT ??0?$CSingleton@VCPythonIME@@@@QAE@XZ
_TEXT	SEGMENT
??0?$CSingleton@VCPythonIME@@@@QAE@XZ PROC		; CSingleton<CPythonIME>::CSingleton<CPythonIME>, COMDAT
; _this$ = ecx

; 12   : 	{ 
; 13   : 		assert(!ms_singleton);
; 14   : 		int offset = (int) (T*) 1 - (int) (CSingleton <T>*) (T*) 1; 
; 15   : 		ms_singleton = (T*) ((int) this + offset);

  00000	8d 81 d8 f7 ff
	ff		 lea	 eax, DWORD PTR [ecx-2088]
  00006	c7 01 00 00 00
	00		 mov	 DWORD PTR [ecx], OFFSET ??_7?$CSingleton@VCPythonIME@@@@6B@
  0000c	a3 00 00 00 00	 mov	 DWORD PTR ?ms_singleton@?$CSingleton@VCPythonIME@@@@0PAVCPythonIME@@A, eax ; CSingleton<CPythonIME>::ms_singleton

; 16   : 	} 

  00011	8b c1		 mov	 eax, ecx
  00013	c3		 ret	 0
??0?$CSingleton@VCPythonIME@@@@QAE@XZ ENDP		; CSingleton<CPythonIME>::CSingleton<CPythonIME>
_TEXT	ENDS
; Function compile flags: /Ogtp
; File d:\metin2\metin2\client_source_clean\client_source_clean\source\eterbase\singleton.h
;	COMDAT ??1?$CSingleton@VCPythonIME@@@@UAE@XZ
_TEXT	SEGMENT
??1?$CSingleton@VCPythonIME@@@@UAE@XZ PROC		; CSingleton<CPythonIME>::~CSingleton<CPythonIME>, COMDAT
; _this$ = ecx

; 19   : 	{ 

  00000	c7 01 00 00 00
	00		 mov	 DWORD PTR [ecx], OFFSET ??_7?$CSingleton@VCPythonIME@@@@6B@

; 20   : 		assert(ms_singleton);
; 21   : 		ms_singleton = 0; 

  00006	c7 05 00 00 00
	00 00 00 00 00	 mov	 DWORD PTR ?ms_singleton@?$CSingleton@VCPythonIME@@@@0PAVCPythonIME@@A, 0 ; CSingleton<CPythonIME>::ms_singleton

; 22   : 	}

  00010	c3		 ret	 0
??1?$CSingleton@VCPythonIME@@@@UAE@XZ ENDP		; CSingleton<CPythonIME>::~CSingleton<CPythonIME>
_TEXT	ENDS
; Function compile flags: /Ogtp
; File d:\metin2\metin2\client_source_clean\client_source_clean\source\eterbase\singleton.h
;	COMDAT ??_G?$CSingleton@VCPythonIME@@@@UAEPAXI@Z
_TEXT	SEGMENT
___flags$ = 8						; size = 4
??_G?$CSingleton@VCPythonIME@@@@UAEPAXI@Z PROC		; CSingleton<CPythonIME>::`scalar deleting destructor', COMDAT
; _this$ = ecx
  00000	55		 push	 ebp
  00001	8b ec		 mov	 ebp, esp
  00003	f6 45 08 01	 test	 BYTE PTR ___flags$[ebp], 1
  00007	56		 push	 esi
  00008	8b f1		 mov	 esi, ecx

; 21   : 		ms_singleton = 0; 

  0000a	c7 05 00 00 00
	00 00 00 00 00	 mov	 DWORD PTR ?ms_singleton@?$CSingleton@VCPythonIME@@@@0PAVCPythonIME@@A, 0 ; CSingleton<CPythonIME>::ms_singleton
  00014	c7 06 00 00 00
	00		 mov	 DWORD PTR [esi], OFFSET ??_7?$CSingleton@VCPythonIME@@@@6B@
  0001a	74 09		 je	 SHORT $LN6@scalar
  0001c	56		 push	 esi
  0001d	e8 00 00 00 00	 call	 ??3@YAXPAX@Z		; operator delete
  00022	83 c4 04	 add	 esp, 4
$LN6@scalar:
  00025	8b c6		 mov	 eax, esi
  00027	5e		 pop	 esi
  00028	5d		 pop	 ebp
  00029	c2 04 00	 ret	 4
??_G?$CSingleton@VCPythonIME@@@@UAEPAXI@Z ENDP		; CSingleton<CPythonIME>::`scalar deleting destructor'
_TEXT	ENDS
; Function compile flags: /Odsp
;	COMDAT ??_ECPythonIME@@W3AEPAXI@Z
_TEXT	SEGMENT
??_ECPythonIME@@W3AEPAXI@Z PROC				; [thunk]:CPythonIME::`vector deleting destructor', COMDAT
  00000	83 e9 04	 sub	 ecx, 4
  00003	e9 00 00 00 00	 jmp	 ??_ECPythonIME@@UAEPAXI@Z
??_ECPythonIME@@W3AEPAXI@Z ENDP				; [thunk]:CPythonIME::`vector deleting destructor'
_TEXT	ENDS
; Function compile flags: /Odsp
;	COMDAT ??_ECPythonIME@@WICI@AEPAXI@Z
_TEXT	SEGMENT
??_ECPythonIME@@WICI@AEPAXI@Z PROC			; [thunk]:CPythonIME::`vector deleting destructor', COMDAT
  00000	81 e9 28 08 00
	00		 sub	 ecx, 2088		; 00000828H
  00006	e9 00 00 00 00	 jmp	 ??_ECPythonIME@@UAEPAXI@Z
??_ECPythonIME@@WICI@AEPAXI@Z ENDP			; [thunk]:CPythonIME::`vector deleting destructor'
_TEXT	ENDS
END
