; Listing generated by Microsoft (R) Optimizing Compiler Version 18.00.40629.0 

	TITLE	D:\Metin2\Metin2\client_source_clean\client_source_clean\source\UserInterface\PythonNetworkStreamCommand.cpp
	.686P
	.XMM
	include listing.inc
	.model	flat

INCLUDELIB OLDNAMES

PUBLIC	??_C@_01BJJEKLCA@?$CC?$AA@			; `string'
PUBLIC	??_C@_02KEGNLNML@?0?5?$AA@			; `string'
PUBLIC	??_C@_0BJ@GKNJMEFC@BINARY_ServerCommand_Run?$AA@ ; `string'
PUBLIC	??_C@_0O@NGPLKLCI@ConsoleEnable?$AA@		; `string'
PUBLIC	??_C@_0N@JEPOMHGB@BettingMoney?$AA@		; `string'
PUBLIC	??_C@_04KNNLNNGO@quit?$AA@			; `string'
PUBLIC	??_C@_04FDOIBAFG@gift?$AA@			; `string'
PUBLIC	??_C@_0FD@MGEFFJHF@CPythonNetworkStream?3?3ServerComm@ ; `string'
PUBLIC	??_C@_04OIHHNFHN@cube?$AA@			; `string'
PUBLIC	??_C@_09MBHMFCFC@Gift_Show?$AA@			; `string'
PUBLIC	??_C@_0BB@OJMMNJOG@BINARY_Cube_Open?$AA@	; `string'
PUBLIC	??_C@_04PMOCAHAA@open?$AA@			; `string'
PUBLIC	??_C@_0BC@PIJLHOMJ@BINARY_Cube_Close?$AA@	; `string'
PUBLIC	??_C@_05LBOHBHFK@close?$AA@			; `string'
PUBLIC	??_C@_05HEIOBLPG@?$CIiii?$CJ?$AA@		; `string'
PUBLIC	??_C@_04NIDJFNBE@info?$AA@			; `string'
PUBLIC	??_C@_07IPNMCAN@success?$AA@			; `string'
PUBLIC	??_C@_0BH@DMGJNFKF@BINARY_Cube_UpdateInfo?$AA@	; `string'
PUBLIC	??_C@_04CCHLMOGN@fail?$AA@			; `string'
PUBLIC	??_C@_0BE@HLNHNAAA@BINARY_Cube_Succeed?$AA@	; `string'
PUBLIC	??_C@_06ODLEBDJP@r_list?$AA@			; `string'
PUBLIC	??_C@_0BD@IKENMBNJ@BINARY_Cube_Failed?$AA@	; `string'
PUBLIC	??_C@_0BH@JONCIELM@BINARY_Cube_ResultList?$AA@	; `string'
PUBLIC	??_C@_0FD@MDMGNNOD@CPythonNetworkStream?3?3ServerComm@ ; `string'
PUBLIC	??_C@_0BJ@DLFAEHHE@BINARY_Cube_MaterialInfo?$AA@ ; `string'
PUBLIC	??_C@_06JEMOOCHA@m_info?$AA@			; `string'
PUBLIC	??_C@_0CL@MFEDAABM@BINARY_BettingGuildWar_UpdateObs@ ; `string'
PUBLIC	??_C@_0O@HADNNBFL@ObserverCount?$AA@		; `string'
PUBLIC	??_C@_0CH@OENJEHPK@BINARY_BettingGuildWar_SetObserv@ ; `string'
PUBLIC	??_C@_0N@EBGNMPMN@ObserverMode?$AA@		; `string'
PUBLIC	??_C@_0M@EEGHHMDP@StoneDetect?$AA@		; `string'
PUBLIC	??_C@_0BB@MALBLMJA@ObserverTeamInfo?$AA@	; `string'
PUBLIC	??_C@_0EJ@MCLCAHNB@CPythonNetworkStream?3?3ServerComm@ ; `string'
PUBLIC	??_C@_0DD@COMEEBAO@StoneDetect?5?$FLVID?3?$CFd?$FN?5?$FLDistance?3?$CF@ ; `string'
PUBLIC	??_C@_0DB@KDMGCNFI@d?3?1ymir?5work?1effect?1etc?1compass?1@ ; `string'
PUBLIC	??_C@_0DB@CJFLAJFC@d?3?1ymir?5work?1effect?1etc?1firecrac@ ; `string'
PUBLIC	??_C@_0DB@EEGLDHND@d?3?1ymir?5work?1effect?1etc?1compass?1@ ; `string'
PUBLIC	??_C@_0DC@MDCBLGBM@d?3?1ymir?5work?1effect?1etc?1compass?1@ ; `string'
PUBLIC	??_C@_0BE@FMEJBOHN@StartStaminaConsume?$AA@	; `string'
PUBLIC	??_C@_0EH@NKAADCPI@CPythonNetworkStream?3?3ServerComm@ ; `string'
PUBLIC	??_C@_03ODCMFNNH@sms?$AA@			; `string'
PUBLIC	??_C@_0BD@IEDOLMCO@StopStaminaConsume?$AA@	; `string'
PUBLIC	??_C@_0M@HBFEJGNO@mobile_auth?$AA@		; `string'
PUBLIC	??_C@_05FKDGKNNO@nosms?$AA@			; `string'
PUBLIC	??_C@_0P@EGMHBKG@messenger_auth?$AA@		; `string'
PUBLIC	??_C@_0BC@PFMPDKEI@OnMobileAuthority?$AA@	; `string'
PUBLIC	??_C@_05LLEFIEMM@combo?$AA@			; `string'
PUBLIC	??_C@_0BN@HFJFNDOJ@OnMessengerAddFriendQuestion?$AA@ ; `string'
PUBLIC	??_C@_0M@KBLDJFEH@OnBlockMode?$AA@		; `string'
PUBLIC	??_C@_0N@OCOPIGOC@setblockmode?$AA@		; `string'
PUBLIC	??_C@_04MDLEAKAL@kiss?$AA@			; `string'
PUBLIC	??_C@_0M@KHOIJDFJ@french_kiss?$AA@		; `string'
PUBLIC	??_C@_04PAJFJFCF@clap?$AA@			; `string'
PUBLIC	??_C@_04JAHFACKH@slap?$AA@			; `string'
PUBLIC	??_C@_06NLEFOMIN@cheer2?$AA@			; `string'
PUBLIC	??_C@_06PAGILPEO@cheer1?$AA@			; `string'
PUBLIC	??_C@_06HCDPFIPD@dance2?$AA@			; `string'
PUBLIC	??_C@_06FJBCALDA@dance1?$AA@			; `string'
PUBLIC	??_C@_06GLCEGJLC@dance3?$AA@			; `string'
PUBLIC	??_C@_0L@MMJCNAM@dig_motion?$AA@		; `string'
PUBLIC	??_C@_06DNHOMODE@dance5?$AA@			; `string'
PUBLIC	??_C@_06CEGFPPHF@dance4?$AA@			; `string'
PUBLIC	??_C@_0P@KFFKPMLJ@congratulation?$AA@		; `string'
PUBLIC	??_C@_06BGFDJNPH@dance6?$AA@			; `string'
PUBLIC	??_C@_05KEOOPKLE@angry?$AA@			; `string'
PUBLIC	??_C@_07JCIHIBLI@forgive?$AA@			; `string'
PUBLIC	??_C@_03OPLFCACF@sad?$AA@			; `string'
PUBLIC	??_C@_0L@BIJBGJBO@attractive?$AA@		; `string'
PUBLIC	??_C@_07MJDIFIMC@cheerup?$AA@			; `string'
PUBLIC	??_C@_03BPAIHHLG@shy?$AA@			; `string'
PUBLIC	??_C@_03DHFGHJCG@joy?$AA@			; `string'
PUBLIC	??_C@_06CMFIENOK@banter?$AA@			; `string'
PUBLIC	??_C@_0BP@HJIPKFJO@Unknown?5Server?5Command?5?$CFs?5?$HM?5?$CFs?$AA@ ; `string'
EXTRN	?PyCallClassMemberFunc@@YA_NPAU_object@@PBD0PA_N@Z:PROC ; PyCallClassMemberFunc
EXTRN	_isspace:PROC
EXTRN	__strcmpi:PROC
;	COMDAT ?s_isFirst@?NE@??ServerCommand@CPythonNetworkStream@@QAEXPAD@Z@4_NA
_DATA	SEGMENT
?s_isFirst@?NE@??ServerCommand@CPythonNetworkStream@@QAEXPAD@Z@4_NA DB 01H ; `CPythonNetworkStream::ServerCommand'::`212'::s_isFirst
_DATA	ENDS
;	COMDAT ??_C@_0BP@HJIPKFJO@Unknown?5Server?5Command?5?$CFs?5?$HM?5?$CFs?$AA@
CONST	SEGMENT
??_C@_0BP@HJIPKFJO@Unknown?5Server?5Command?5?$CFs?5?$HM?5?$CFs?$AA@ DB 'U'
	DB	'nknown Server Command %s | %s', 00H		; `string'
CONST	ENDS
;	COMDAT ??_C@_06CMFIENOK@banter?$AA@
CONST	SEGMENT
??_C@_06CMFIENOK@banter?$AA@ DB 'banter', 00H		; `string'
CONST	ENDS
;	COMDAT ??_C@_03DHFGHJCG@joy?$AA@
CONST	SEGMENT
??_C@_03DHFGHJCG@joy?$AA@ DB 'joy', 00H			; `string'
CONST	ENDS
;	COMDAT ??_C@_03BPAIHHLG@shy?$AA@
CONST	SEGMENT
??_C@_03BPAIHHLG@shy?$AA@ DB 'shy', 00H			; `string'
CONST	ENDS
;	COMDAT ??_C@_07MJDIFIMC@cheerup?$AA@
CONST	SEGMENT
??_C@_07MJDIFIMC@cheerup?$AA@ DB 'cheerup', 00H		; `string'
CONST	ENDS
;	COMDAT ??_C@_0L@BIJBGJBO@attractive?$AA@
CONST	SEGMENT
??_C@_0L@BIJBGJBO@attractive?$AA@ DB 'attractive', 00H	; `string'
CONST	ENDS
;	COMDAT ??_C@_03OPLFCACF@sad?$AA@
CONST	SEGMENT
??_C@_03OPLFCACF@sad?$AA@ DB 'sad', 00H			; `string'
CONST	ENDS
;	COMDAT ??_C@_07JCIHIBLI@forgive?$AA@
CONST	SEGMENT
??_C@_07JCIHIBLI@forgive?$AA@ DB 'forgive', 00H		; `string'
CONST	ENDS
;	COMDAT ??_C@_05KEOOPKLE@angry?$AA@
CONST	SEGMENT
??_C@_05KEOOPKLE@angry?$AA@ DB 'angry', 00H		; `string'
CONST	ENDS
;	COMDAT ??_C@_06BGFDJNPH@dance6?$AA@
CONST	SEGMENT
??_C@_06BGFDJNPH@dance6?$AA@ DB 'dance6', 00H		; `string'
CONST	ENDS
;	COMDAT ??_C@_0P@KFFKPMLJ@congratulation?$AA@
CONST	SEGMENT
??_C@_0P@KFFKPMLJ@congratulation?$AA@ DB 'congratulation', 00H ; `string'
CONST	ENDS
;	COMDAT ??_C@_06CEGFPPHF@dance4?$AA@
CONST	SEGMENT
??_C@_06CEGFPPHF@dance4?$AA@ DB 'dance4', 00H		; `string'
CONST	ENDS
;	COMDAT ??_C@_06DNHOMODE@dance5?$AA@
CONST	SEGMENT
??_C@_06DNHOMODE@dance5?$AA@ DB 'dance5', 00H		; `string'
CONST	ENDS
;	COMDAT ??_C@_0L@MMJCNAM@dig_motion?$AA@
CONST	SEGMENT
??_C@_0L@MMJCNAM@dig_motion?$AA@ DB 'dig_motion', 00H	; `string'
CONST	ENDS
;	COMDAT ??_C@_06GLCEGJLC@dance3?$AA@
CONST	SEGMENT
??_C@_06GLCEGJLC@dance3?$AA@ DB 'dance3', 00H		; `string'
CONST	ENDS
;	COMDAT ??_C@_06FJBCALDA@dance1?$AA@
CONST	SEGMENT
??_C@_06FJBCALDA@dance1?$AA@ DB 'dance1', 00H		; `string'
CONST	ENDS
;	COMDAT ??_C@_06HCDPFIPD@dance2?$AA@
CONST	SEGMENT
??_C@_06HCDPFIPD@dance2?$AA@ DB 'dance2', 00H		; `string'
CONST	ENDS
;	COMDAT ??_C@_06PAGILPEO@cheer1?$AA@
CONST	SEGMENT
??_C@_06PAGILPEO@cheer1?$AA@ DB 'cheer1', 00H		; `string'
CONST	ENDS
;	COMDAT ??_C@_06NLEFOMIN@cheer2?$AA@
CONST	SEGMENT
??_C@_06NLEFOMIN@cheer2?$AA@ DB 'cheer2', 00H		; `string'
CONST	ENDS
;	COMDAT ??_C@_04JAHFACKH@slap?$AA@
CONST	SEGMENT
??_C@_04JAHFACKH@slap?$AA@ DB 'slap', 00H		; `string'
CONST	ENDS
;	COMDAT ??_C@_04PAJFJFCF@clap?$AA@
CONST	SEGMENT
??_C@_04PAJFJFCF@clap?$AA@ DB 'clap', 00H		; `string'
CONST	ENDS
;	COMDAT ??_C@_0M@KHOIJDFJ@french_kiss?$AA@
CONST	SEGMENT
??_C@_0M@KHOIJDFJ@french_kiss?$AA@ DB 'french_kiss', 00H ; `string'
CONST	ENDS
;	COMDAT ??_C@_04MDLEAKAL@kiss?$AA@
CONST	SEGMENT
??_C@_04MDLEAKAL@kiss?$AA@ DB 'kiss', 00H		; `string'
CONST	ENDS
;	COMDAT ??_C@_0N@OCOPIGOC@setblockmode?$AA@
CONST	SEGMENT
??_C@_0N@OCOPIGOC@setblockmode?$AA@ DB 'setblockmode', 00H ; `string'
CONST	ENDS
;	COMDAT ??_C@_0M@KBLDJFEH@OnBlockMode?$AA@
CONST	SEGMENT
??_C@_0M@KBLDJFEH@OnBlockMode?$AA@ DB 'OnBlockMode', 00H ; `string'
CONST	ENDS
;	COMDAT ??_C@_0BN@HFJFNDOJ@OnMessengerAddFriendQuestion?$AA@
CONST	SEGMENT
??_C@_0BN@HFJFNDOJ@OnMessengerAddFriendQuestion?$AA@ DB 'OnMessengerAddFr'
	DB	'iendQuestion', 00H				; `string'
CONST	ENDS
;	COMDAT ??_C@_05LLEFIEMM@combo?$AA@
CONST	SEGMENT
??_C@_05LLEFIEMM@combo?$AA@ DB 'combo', 00H		; `string'
CONST	ENDS
;	COMDAT ??_C@_0BC@PFMPDKEI@OnMobileAuthority?$AA@
CONST	SEGMENT
??_C@_0BC@PFMPDKEI@OnMobileAuthority?$AA@ DB 'OnMobileAuthority', 00H ; `string'
CONST	ENDS
;	COMDAT ??_C@_0P@EGMHBKG@messenger_auth?$AA@
CONST	SEGMENT
??_C@_0P@EGMHBKG@messenger_auth?$AA@ DB 'messenger_auth', 00H ; `string'
CONST	ENDS
;	COMDAT ??_C@_05FKDGKNNO@nosms?$AA@
CONST	SEGMENT
??_C@_05FKDGKNNO@nosms?$AA@ DB 'nosms', 00H		; `string'
CONST	ENDS
;	COMDAT ??_C@_0M@HBFEJGNO@mobile_auth?$AA@
CONST	SEGMENT
??_C@_0M@HBFEJGNO@mobile_auth?$AA@ DB 'mobile_auth', 00H ; `string'
CONST	ENDS
;	COMDAT ??_C@_0BD@IEDOLMCO@StopStaminaConsume?$AA@
CONST	SEGMENT
??_C@_0BD@IEDOLMCO@StopStaminaConsume?$AA@ DB 'StopStaminaConsume', 00H ; `string'
CONST	ENDS
;	COMDAT ??_C@_03ODCMFNNH@sms?$AA@
CONST	SEGMENT
??_C@_03ODCMFNNH@sms?$AA@ DB 'sms', 00H			; `string'
CONST	ENDS
;	COMDAT ??_C@_0EH@NKAADCPI@CPythonNetworkStream?3?3ServerComm@
CONST	SEGMENT
??_C@_0EH@NKAADCPI@CPythonNetworkStream?3?3ServerComm@ DB 'CPythonNetwork'
	DB	'Stream::ServerCommand(c_szCommand=%s) - Strange Distance', 00H ; `string'
CONST	ENDS
;	COMDAT ??_C@_0BE@FMEJBOHN@StartStaminaConsume?$AA@
CONST	SEGMENT
??_C@_0BE@FMEJBOHN@StartStaminaConsume?$AA@ DB 'StartStaminaConsume', 00H ; `string'
CONST	ENDS
;	COMDAT ??_C@_0DC@MDCBLGBM@d?3?1ymir?5work?1effect?1etc?1compass?1@
CONST	SEGMENT
??_C@_0DC@MDCBLGBM@d?3?1ymir?5work?1effect?1etc?1compass?1@ DB 'd:/ymir w'
	DB	'ork/effect/etc/compass/appear_middle.mse', 00H ; `string'
CONST	ENDS
;	COMDAT ??_C@_0DB@EEGLDHND@d?3?1ymir?5work?1effect?1etc?1compass?1@
CONST	SEGMENT
??_C@_0DB@EEGLDHND@d?3?1ymir?5work?1effect?1etc?1compass?1@ DB 'd:/ymir w'
	DB	'ork/effect/etc/compass/appear_large.mse', 00H ; `string'
CONST	ENDS
;	COMDAT ??_C@_0DB@CJFLAJFC@d?3?1ymir?5work?1effect?1etc?1firecrac@
CONST	SEGMENT
??_C@_0DB@CJFLAJFC@d?3?1ymir?5work?1effect?1etc?1firecrac@ DB 'd:/ymir wo'
	DB	'rk/effect/etc/firecracker/find_out.mse', 00H ; `string'
CONST	ENDS
;	COMDAT ??_C@_0DB@KDMGCNFI@d?3?1ymir?5work?1effect?1etc?1compass?1@
CONST	SEGMENT
??_C@_0DB@KDMGCNFI@d?3?1ymir?5work?1effect?1etc?1compass?1@ DB 'd:/ymir w'
	DB	'ork/effect/etc/compass/appear_small.mse', 00H ; `string'
CONST	ENDS
;	COMDAT ??_C@_0DD@COMEEBAO@StoneDetect?5?$FLVID?3?$CFd?$FN?5?$FLDistance?3?$CF@
CONST	SEGMENT
??_C@_0DD@COMEEBAO@StoneDetect?5?$FLVID?3?$CFd?$FN?5?$FLDistance?3?$CF@ DB 'S'
	DB	'toneDetect [VID:%d] [Distance:%d] [Angle:%d->%f]', 0aH, 00H ; `string'
CONST	ENDS
;	COMDAT ??_C@_0EJ@MCLCAHNB@CPythonNetworkStream?3?3ServerComm@
CONST	SEGMENT
??_C@_0EJ@MCLCAHNB@CPythonNetworkStream?3?3ServerComm@ DB 'CPythonNetwork'
	DB	'Stream::ServerCommand(c_szCommand=%s) - Not Exist Instance', 00H ; `string'
CONST	ENDS
;	COMDAT ??_C@_0BB@MALBLMJA@ObserverTeamInfo?$AA@
CONST	SEGMENT
??_C@_0BB@MALBLMJA@ObserverTeamInfo?$AA@ DB 'ObserverTeamInfo', 00H ; `string'
CONST	ENDS
;	COMDAT ??_C@_0M@EEGHHMDP@StoneDetect?$AA@
CONST	SEGMENT
??_C@_0M@EEGHHMDP@StoneDetect?$AA@ DB 'StoneDetect', 00H ; `string'
CONST	ENDS
;	COMDAT ??_C@_0N@EBGNMPMN@ObserverMode?$AA@
CONST	SEGMENT
??_C@_0N@EBGNMPMN@ObserverMode?$AA@ DB 'ObserverMode', 00H ; `string'
CONST	ENDS
;	COMDAT ??_C@_0CH@OENJEHPK@BINARY_BettingGuildWar_SetObserv@
CONST	SEGMENT
??_C@_0CH@OENJEHPK@BINARY_BettingGuildWar_SetObserv@ DB 'BINARY_BettingGu'
	DB	'ildWar_SetObserverMode', 00H		; `string'
CONST	ENDS
;	COMDAT ??_C@_0O@HADNNBFL@ObserverCount?$AA@
CONST	SEGMENT
??_C@_0O@HADNNBFL@ObserverCount?$AA@ DB 'ObserverCount', 00H ; `string'
CONST	ENDS
;	COMDAT ??_C@_0CL@MFEDAABM@BINARY_BettingGuildWar_UpdateObs@
CONST	SEGMENT
??_C@_0CL@MFEDAABM@BINARY_BettingGuildWar_UpdateObs@ DB 'BINARY_BettingGu'
	DB	'ildWar_UpdateObserverCount', 00H		; `string'
CONST	ENDS
;	COMDAT ??_C@_06JEMOOCHA@m_info?$AA@
CONST	SEGMENT
??_C@_06JEMOOCHA@m_info?$AA@ DB 'm_info', 00H		; `string'
CONST	ENDS
;	COMDAT ??_C@_0BJ@DLFAEHHE@BINARY_Cube_MaterialInfo?$AA@
CONST	SEGMENT
??_C@_0BJ@DLFAEHHE@BINARY_Cube_MaterialInfo?$AA@ DB 'BINARY_Cube_Material'
	DB	'Info', 00H					; `string'
CONST	ENDS
;	COMDAT ??_C@_0FD@MDMGNNOD@CPythonNetworkStream?3?3ServerComm@
CONST	SEGMENT
??_C@_0FD@MDMGNNOD@CPythonNetworkStream?3?3ServerComm@ DB 'CPythonNetwork'
	DB	'Stream::ServerCommand(c_szCommand=%s) - Strange Parameter Cou'
	DB	'nt : %d', 00H				; `string'
CONST	ENDS
;	COMDAT ??_C@_0BH@JONCIELM@BINARY_Cube_ResultList?$AA@
CONST	SEGMENT
??_C@_0BH@JONCIELM@BINARY_Cube_ResultList?$AA@ DB 'BINARY_Cube_ResultList'
	DB	00H						; `string'
CONST	ENDS
;	COMDAT ??_C@_0BD@IKENMBNJ@BINARY_Cube_Failed?$AA@
CONST	SEGMENT
??_C@_0BD@IKENMBNJ@BINARY_Cube_Failed?$AA@ DB 'BINARY_Cube_Failed', 00H ; `string'
CONST	ENDS
;	COMDAT ??_C@_06ODLEBDJP@r_list?$AA@
CONST	SEGMENT
??_C@_06ODLEBDJP@r_list?$AA@ DB 'r_list', 00H		; `string'
CONST	ENDS
;	COMDAT ??_C@_0BE@HLNHNAAA@BINARY_Cube_Succeed?$AA@
CONST	SEGMENT
??_C@_0BE@HLNHNAAA@BINARY_Cube_Succeed?$AA@ DB 'BINARY_Cube_Succeed', 00H ; `string'
CONST	ENDS
;	COMDAT ??_C@_04CCHLMOGN@fail?$AA@
CONST	SEGMENT
??_C@_04CCHLMOGN@fail?$AA@ DB 'fail', 00H		; `string'
CONST	ENDS
;	COMDAT ??_C@_0BH@DMGJNFKF@BINARY_Cube_UpdateInfo?$AA@
CONST	SEGMENT
??_C@_0BH@DMGJNFKF@BINARY_Cube_UpdateInfo?$AA@ DB 'BINARY_Cube_UpdateInfo'
	DB	00H						; `string'
CONST	ENDS
;	COMDAT ??_C@_07IPNMCAN@success?$AA@
CONST	SEGMENT
??_C@_07IPNMCAN@success?$AA@ DB 'success', 00H		; `string'
CONST	ENDS
;	COMDAT ??_C@_04NIDJFNBE@info?$AA@
CONST	SEGMENT
??_C@_04NIDJFNBE@info?$AA@ DB 'info', 00H		; `string'
CONST	ENDS
;	COMDAT ??_C@_05HEIOBLPG@?$CIiii?$CJ?$AA@
CONST	SEGMENT
??_C@_05HEIOBLPG@?$CIiii?$CJ?$AA@ DB '(iii)', 00H	; `string'
CONST	ENDS
;	COMDAT ??_C@_05LBOHBHFK@close?$AA@
CONST	SEGMENT
??_C@_05LBOHBHFK@close?$AA@ DB 'close', 00H		; `string'
CONST	ENDS
;	COMDAT ??_C@_0BC@PIJLHOMJ@BINARY_Cube_Close?$AA@
CONST	SEGMENT
??_C@_0BC@PIJLHOMJ@BINARY_Cube_Close?$AA@ DB 'BINARY_Cube_Close', 00H ; `string'
CONST	ENDS
;	COMDAT ??_C@_04PMOCAHAA@open?$AA@
CONST	SEGMENT
??_C@_04PMOCAHAA@open?$AA@ DB 'open', 00H		; `string'
CONST	ENDS
;	COMDAT ??_C@_0BB@OJMMNJOG@BINARY_Cube_Open?$AA@
CONST	SEGMENT
??_C@_0BB@OJMMNJOG@BINARY_Cube_Open?$AA@ DB 'BINARY_Cube_Open', 00H ; `string'
CONST	ENDS
;	COMDAT ??_C@_09MBHMFCFC@Gift_Show?$AA@
CONST	SEGMENT
??_C@_09MBHMFCFC@Gift_Show?$AA@ DB 'Gift_Show', 00H	; `string'
CONST	ENDS
;	COMDAT ??_C@_04OIHHNFHN@cube?$AA@
CONST	SEGMENT
??_C@_04OIHHNFHN@cube?$AA@ DB 'cube', 00H		; `string'
CONST	ENDS
;	COMDAT ??_C@_0FD@MGEFFJHF@CPythonNetworkStream?3?3ServerComm@
CONST	SEGMENT
??_C@_0FD@MGEFFJHF@CPythonNetworkStream?3?3ServerComm@ DB 'CPythonNetwork'
	DB	'Stream::ServerCommand(c_szCommand=%s) - Strange Parameter Cou'
	DB	'nt : %s', 00H				; `string'
CONST	ENDS
;	COMDAT ??_C@_04FDOIBAFG@gift?$AA@
CONST	SEGMENT
??_C@_04FDOIBAFG@gift?$AA@ DB 'gift', 00H		; `string'
CONST	ENDS
;	COMDAT ??_C@_04KNNLNNGO@quit?$AA@
CONST	SEGMENT
??_C@_04KNNLNNGO@quit?$AA@ DB 'quit', 00H		; `string'
CONST	ENDS
;	COMDAT ??_C@_0N@JEPOMHGB@BettingMoney?$AA@
CONST	SEGMENT
??_C@_0N@JEPOMHGB@BettingMoney?$AA@ DB 'BettingMoney', 00H ; `string'
CONST	ENDS
;	COMDAT ??_C@_0O@NGPLKLCI@ConsoleEnable?$AA@
CONST	SEGMENT
??_C@_0O@NGPLKLCI@ConsoleEnable?$AA@ DB 'ConsoleEnable', 00H ; `string'
CONST	ENDS
;	COMDAT ??_C@_0BJ@GKNJMEFC@BINARY_ServerCommand_Run?$AA@
CONST	SEGMENT
??_C@_0BJ@GKNJMEFC@BINARY_ServerCommand_Run?$AA@ DB 'BINARY_ServerCommand'
	DB	'_Run', 00H					; `string'
CONST	ENDS
;	COMDAT ??_C@_02KEGNLNML@?0?5?$AA@
CONST	SEGMENT
??_C@_02KEGNLNML@?0?5?$AA@ DB ', ', 00H			; `string'
CONST	ENDS
;	COMDAT ??_C@_01BJJEKLCA@?$CC?$AA@
CONST	SEGMENT
??_C@_01BJJEKLCA@?$CC?$AA@ DB '"', 00H			; `string'
PUBLIC	?get_allocator@?$basic_string@DU?$char_traits@D@std@@V?$allocator@D@2@@std@@QBE?AV?$allocator@D@2@XZ ; std::basic_string<char,std::char_traits<char>,std::allocator<char> >::get_allocator
PUBLIC	?find_first_not_of@?$basic_string@DU?$char_traits@D@std@@V?$allocator@D@2@@std@@QBEIPBDII@Z ; std::basic_string<char,std::char_traits<char>,std::allocator<char> >::find_first_not_of
PUBLIC	??0?$basic_string@DU?$char_traits@D@std@@V?$allocator@D@2@@std@@QAE@ABV01@IIABV?$allocator@D@1@@Z ; std::basic_string<char,std::char_traits<char>,std::allocator<char> >::basic_string<char,std::char_traits<char>,std::allocator<char> >
PUBLIC	?GetSingleton@?$TAbstractSingleton@VIAbstractCharacterManager@@@@SAAAVIAbstractCharacterManager@@XZ ; TAbstractSingleton<IAbstractCharacterManager>::GetSingleton
PUBLIC	?empty@?$vector@V?$basic_string@DU?$char_traits@D@std@@V?$allocator@D@2@@std@@V?$allocator@V?$basic_string@DU?$char_traits@D@std@@V?$allocator@D@2@@std@@@2@@std@@QBE_NXZ ; std::vector<std::basic_string<char,std::char_traits<char>,std::allocator<char> >,std::allocator<std::basic_string<char,std::char_traits<char>,std::allocator<char> > > >::empty
PUBLIC	?reserve@?$vector@V?$basic_string@DU?$char_traits@D@std@@V?$allocator@D@2@@std@@V?$allocator@V?$basic_string@DU?$char_traits@D@std@@V?$allocator@D@2@@std@@@2@@std@@QAEXI@Z ; std::vector<std::basic_string<char,std::char_traits<char>,std::allocator<char> >,std::allocator<std::basic_string<char,std::char_traits<char>,std::allocator<char> > > >::reserve
PUBLIC	?substr@?$basic_string@DU?$char_traits@D@std@@V?$allocator@D@2@@std@@QBE?AV12@II@Z ; std::basic_string<char,std::char_traits<char>,std::allocator<char> >::substr
PUBLIC	?find_first_not_of@?$basic_string@DU?$char_traits@D@std@@V?$allocator@D@2@@std@@QBEIPBDI@Z ; std::basic_string<char,std::char_traits<char>,std::allocator<char> >::find_first_not_of
PUBLIC	?ServerCommand@CPythonNetworkStream@@QAEXPAD@Z	; CPythonNetworkStream::ServerCommand
PUBLIC	?SplitToken@@YA_NPBDPAV?$vector@V?$basic_string@DU?$char_traits@D@std@@V?$allocator@D@2@@std@@V?$allocator@V?$basic_string@DU?$char_traits@D@std@@V?$allocator@D@2@@std@@@2@@std@@0@Z ; SplitToken
PUBLIC	?ClientCommand@CPythonNetworkStream@@QAE_NPBD@Z	; CPythonNetworkStream::ClientCommand
;	COMDAT ?$S2@?NE@??ServerCommand@CPythonNetworkStream@@QAEXPAD@Z@4IA
_BSS	SEGMENT
?$S2@?NE@??ServerCommand@CPythonNetworkStream@@QAEXPAD@Z@4IA DD 01H DUP (?) ; S2<`template-parameter-212',CPythonNetworkStream::verCommand,unsigned char * const,void,char *>
_BSS	ENDS
;	COMDAT ?s_emotionDict@?NE@??ServerCommand@CPythonNetworkStream@@QAEXPAD@Z@4V?$map@V?$basic_string@DU?$char_traits@D@std@@V?$allocator@D@2@@std@@HU?$less@V?$basic_string@DU?$char_traits@D@std@@V?$allocator@D@2@@std@@@2@V?$allocator@U?$pair@$$CBV?$basic_string@DU?$char_traits@D@std@@V?$allocator@D@2@@std@@H@std@@@2@@std@@A
_BSS	SEGMENT
?s_emotionDict@?NE@??ServerCommand@CPythonNetworkStream@@QAEXPAD@Z@4V?$map@V?$basic_string@DU?$char_traits@D@std@@V?$allocator@D@2@@std@@HU?$less@V?$basic_string@DU?$char_traits@D@std@@V?$allocator@D@2@@std@@@2@V?$allocator@U?$pair@$$CBV?$basic_string@DU?$char_traits@D@std@@V?$allocator@D@2@@std@@H@std@@@2@@std@@A DQ 01H DUP (?) ; `CPythonNetworkStream::ServerCommand'::`212'::s_emotionDict
	ALIGN	4

_piecewise_construct DB 01H DUP (?)
_BSS	ENDS
;	COMDAT xdata$x
xdata$x	SEGMENT
__ehfuncinfo$?SplitToken@@YA_NPBDPAV?$vector@V?$basic_string@DU?$char_traits@D@std@@V?$allocator@D@2@@std@@V?$allocator@V?$basic_string@DU?$char_traits@D@std@@V?$allocator@D@2@@std@@@2@@std@@0@Z DD 019930522H
	DD	03H
	DD	FLAT:__unwindtable$?SplitToken@@YA_NPBDPAV?$vector@V?$basic_string@DU?$char_traits@D@std@@V?$allocator@D@2@@std@@V?$allocator@V?$basic_string@DU?$char_traits@D@std@@V?$allocator@D@2@@std@@@2@@std@@0@Z
	DD	2 DUP(00H)
	DD	2 DUP(00H)
	DD	00H
	DD	01H
__unwindtable$?SplitToken@@YA_NPBDPAV?$vector@V?$basic_string@DU?$char_traits@D@std@@V?$allocator@D@2@@std@@V?$allocator@V?$basic_string@DU?$char_traits@D@std@@V?$allocator@D@2@@std@@@2@@std@@0@Z DD 0ffffffffH
	DD	FLAT:__unwindfunclet$?SplitToken@@YA_NPBDPAV?$vector@V?$basic_string@DU?$char_traits@D@std@@V?$allocator@D@2@@std@@V?$allocator@V?$basic_string@DU?$char_traits@D@std@@V?$allocator@D@2@@std@@@2@@std@@0@Z$0
	DD	00H
	DD	FLAT:__unwindfunclet$?SplitToken@@YA_NPBDPAV?$vector@V?$basic_string@DU?$char_traits@D@std@@V?$allocator@D@2@@std@@V?$allocator@V?$basic_string@DU?$char_traits@D@std@@V?$allocator@D@2@@std@@@2@@std@@0@Z$1
	DD	01H
	DD	FLAT:__unwindfunclet$?SplitToken@@YA_NPBDPAV?$vector@V?$basic_string@DU?$char_traits@D@std@@V?$allocator@D@2@@std@@V?$allocator@V?$basic_string@DU?$char_traits@D@std@@V?$allocator@D@2@@std@@@2@@std@@0@Z$2
xdata$x	ENDS
;	COMDAT xdata$x
xdata$x	SEGMENT
__ehfuncinfo$?ServerCommand@CPythonNetworkStream@@QAEXPAD@Z DD 019930522H
	DD	010H
	DD	FLAT:__unwindtable$?ServerCommand@CPythonNetworkStream@@QAEXPAD@Z
	DD	2 DUP(00H)
	DD	2 DUP(00H)
	DD	00H
	DD	01H
	ORG $+4
__unwindtable$?ServerCommand@CPythonNetworkStream@@QAEXPAD@Z DD 0ffffffffH
	DD	FLAT:__unwindfunclet$?ServerCommand@CPythonNetworkStream@@QAEXPAD@Z$0
	DD	00H
	DD	FLAT:__unwindfunclet$?ServerCommand@CPythonNetworkStream@@QAEXPAD@Z$1
	DD	00H
	DD	FLAT:__unwindfunclet$?ServerCommand@CPythonNetworkStream@@QAEXPAD@Z$2
	DD	00H
	DD	FLAT:__unwindfunclet$?ServerCommand@CPythonNetworkStream@@QAEXPAD@Z$3
	DD	00H
	DD	FLAT:__unwindfunclet$?ServerCommand@CPythonNetworkStream@@QAEXPAD@Z$4
	DD	00H
	DD	FLAT:__unwindfunclet$?ServerCommand@CPythonNetworkStream@@QAEXPAD@Z$5
	DD	00H
	DD	FLAT:__unwindfunclet$?ServerCommand@CPythonNetworkStream@@QAEXPAD@Z$6
	DD	00H
	DD	FLAT:__unwindfunclet$?ServerCommand@CPythonNetworkStream@@QAEXPAD@Z$7
	DD	00H
	DD	FLAT:__unwindfunclet$?ServerCommand@CPythonNetworkStream@@QAEXPAD@Z$8
	DD	00H
	DD	FLAT:__unwindfunclet$?ServerCommand@CPythonNetworkStream@@QAEXPAD@Z$9
	DD	00H
	DD	FLAT:__unwindfunclet$?ServerCommand@CPythonNetworkStream@@QAEXPAD@Z$10
	DD	00H
	DD	FLAT:__unwindfunclet$?ServerCommand@CPythonNetworkStream@@QAEXPAD@Z$11
	DD	00H
	DD	FLAT:__unwindfunclet$?ServerCommand@CPythonNetworkStream@@QAEXPAD@Z$12
	DD	00H
	DD	FLAT:__unwindfunclet$?ServerCommand@CPythonNetworkStream@@QAEXPAD@Z$13
	DD	00H
	DD	FLAT:__unwindfunclet$?ServerCommand@CPythonNetworkStream@@QAEXPAD@Z$14
	DD	00H
	DD	FLAT:__unwindfunclet$?ServerCommand@CPythonNetworkStream@@QAEXPAD@Z$15
; Function compile flags: /Ogtp
; File d:\metin2\metin2\client_source_clean\client_source_clean\source\userinterface\pythonnetworkstreamcommand.cpp
;	COMDAT ?ClientCommand@CPythonNetworkStream@@QAE_NPBD@Z
_TEXT	SEGMENT
_c_szCommand$dead$ = 8					; size = 4
?ClientCommand@CPythonNetworkStream@@QAE_NPBD@Z PROC	; CPythonNetworkStream::ClientCommand, COMDAT
; _this$dead$ = ecx

; 85   : 	return false;

  00000	32 c0		 xor	 al, al

; 86   : }

  00002	c2 04 00	 ret	 4
?ClientCommand@CPythonNetworkStream@@QAE_NPBD@Z ENDP	; CPythonNetworkStream::ClientCommand
_TEXT	ENDS
; Function compile flags: /Ogtp
; File d:\metin2\metin2\client_source_clean\client_source_clean\source\userinterface\pythonnetworkstreamcommand.cpp
; File c:\program files (x86)\microsoft visual studio 12.0\vc\include\vector
; File c:\program files (x86)\microsoft visual studio 12.0\vc\include\xmemory0
; File c:\program files (x86)\microsoft visual studio 12.0\vc\include\vector
; File c:\program files (x86)\microsoft visual studio 12.0\vc\include\xmemory0
; File c:\program files (x86)\microsoft visual studio 12.0\vc\include\vector
; File c:\program files (x86)\microsoft visual studio 12.0\vc\include\xstring
; File c:\program files (x86)\microsoft visual studio 12.0\vc\include\iosfwd
; File d:\metin2\metin2\client_source_clean\client_source_clean\source\userinterface\pythonnetworkstreamcommand.cpp
; File c:\program files (x86)\microsoft visual studio 12.0\vc\include\iosfwd
; File c:\program files (x86)\microsoft visual studio 12.0\vc\include\xstring
; File c:\program files (x86)\microsoft visual studio 12.0\vc\include\iosfwd
; File c:\program files (x86)\microsoft visual studio 12.0\vc\include\xstring
; File d:\metin2\metin2\client_source_clean\client_source_clean\source\userinterface\pythonnetworkstreamcommand.cpp
; File c:\program files (x86)\microsoft visual studio 12.0\vc\include\xstring
; File d:\metin2\metin2\client_source_clean\client_source_clean\source\userinterface\pythonnetworkstreamcommand.cpp
; File c:\program files (x86)\microsoft visual studio 12.0\vc\include\xstring
; File d:\metin2\metin2\client_source_clean\client_source_clean\source\userinterface\pythonnetworkstreamcommand.cpp
; File c:\program files (x86)\microsoft visual studio 12.0\vc\include\xstring
; File d:\metin2\metin2\client_source_clean\client_source_clean\source\userinterface\pythonnetworkstreamcommand.cpp
; File c:\program files (x86)\microsoft visual studio 12.0\vc\include\xstring
; File d:\metin2\metin2\client_source_clean\client_source_clean\source\userinterface\pythonnetworkstreamcommand.cpp
; File c:\program files (x86)\microsoft visual studio 12.0\vc\include\xstring
; File d:\metin2\metin2\client_source_clean\client_source_clean\source\userinterface\pythonnetworkstreamcommand.cpp
; File c:\program files (x86)\microsoft visual studio 12.0\vc\include\vector
; File c:\program files (x86)\microsoft visual studio 12.0\vc\include\xstring
; File c:\program files (x86)\microsoft visual studio 12.0\vc\include\vector
; File c:\program files (x86)\microsoft visual studio 12.0\vc\include\xmemory0
; File c:\program files (x86)\microsoft visual studio 12.0\vc\include\xstring
; File c:\program files (x86)\microsoft visual studio 12.0\vc\include\iosfwd
; File c:\program files (x86)\microsoft visual studio 12.0\vc\include\xstring
; File c:\program files (x86)\microsoft visual studio 12.0\vc\include\iosfwd
; File c:\program files (x86)\microsoft visual studio 12.0\vc\include\xstring
; File c:\program files (x86)\microsoft visual studio 12.0\vc\include\xmemory0
; File c:\program files (x86)\microsoft visual studio 12.0\vc\include\xstring
; File c:\program files (x86)\microsoft visual studio 12.0\vc\include\iosfwd
; File c:\program files (x86)\microsoft visual studio 12.0\vc\include\vector
; File d:\metin2\metin2\client_source_clean\client_source_clean\source\userinterface\pythonnetworkstreamcommand.cpp
; File c:\program files (x86)\microsoft visual studio 12.0\vc\include\xstring
; File c:\program files (x86)\microsoft visual studio 12.0\vc\include\xmemory0
; File c:\program files (x86)\microsoft visual studio 12.0\vc\include\xstring
; File d:\metin2\metin2\client_source_clean\client_source_clean\source\userinterface\pythonnetworkstreamcommand.cpp
; File c:\program files (x86)\microsoft visual studio 12.0\vc\include\xstring
; File c:\program files (x86)\microsoft visual studio 12.0\vc\include\xmemory0
; File d:\metin2\metin2\client_source_clean\client_source_clean\source\userinterface\pythonnetworkstreamcommand.cpp
;	COMDAT ?SplitToken@@YA_NPBDPAV?$vector@V?$basic_string@DU?$char_traits@D@std@@V?$allocator@D@2@@std@@V?$allocator@V?$basic_string@DU?$char_traits@D@std@@V?$allocator@D@2@@std@@@2@@std@@0@Z
_TEXT	SEGMENT
_basePos$1$ = -100					; size = 4
__Cat$2 = -100						; size = 1
__Alval$3 = -93						; size = 1
_stToken$ = -92						; size = 24
$T4 = -68						; size = 24
_strLine$ = -44						; size = 24
__$ArrayPad$ = -20					; size = 4
__$EHRec$ = -12						; size = 12
_c_szDelimeter$dead$ = 8				; size = 4
?SplitToken@@YA_NPBDPAV?$vector@V?$basic_string@DU?$char_traits@D@std@@V?$allocator@D@2@@std@@V?$allocator@V?$basic_string@DU?$char_traits@D@std@@V?$allocator@D@2@@std@@@2@@std@@0@Z PROC ; SplitToken, COMDAT
; _c_szLine$ = ecx
; _pstTokenVector$ = edx

; 89   : {

  00000	55		 push	 ebp
  00001	8b ec		 mov	 ebp, esp
  00003	6a ff		 push	 -1
  00005	68 00 00 00 00	 push	 __ehhandler$?SplitToken@@YA_NPBDPAV?$vector@V?$basic_string@DU?$char_traits@D@std@@V?$allocator@D@2@@std@@V?$allocator@V?$basic_string@DU?$char_traits@D@std@@V?$allocator@D@2@@std@@@2@@std@@0@Z
  0000a	64 a1 00 00 00
	00		 mov	 eax, DWORD PTR fs:0
  00010	50		 push	 eax
  00011	83 ec 58	 sub	 esp, 88			; 00000058H
  00014	a1 00 00 00 00	 mov	 eax, DWORD PTR ___security_cookie
  00019	33 c5		 xor	 eax, ebp
  0001b	89 45 ec	 mov	 DWORD PTR __$ArrayPad$[ebp], eax
  0001e	53		 push	 ebx
  0001f	56		 push	 esi
  00020	57		 push	 edi
  00021	50		 push	 eax
  00022	8d 45 f4	 lea	 eax, DWORD PTR __$EHRec$[ebp]
  00025	64 a3 00 00 00
	00		 mov	 DWORD PTR fs:0, eax
  0002b	8b fa		 mov	 edi, edx
  0002d	8b d9		 mov	 ebx, ecx
; File c:\program files (x86)\microsoft visual studio 12.0\vc\include\vector

; 1010 : 		return (this->_Myend - this->_Myfirst);

  0002f	8b 77 08	 mov	 esi, DWORD PTR [edi+8]
  00032	b8 ab aa aa 2a	 mov	 eax, 715827883		; 2aaaaaabH
  00037	2b 37		 sub	 esi, DWORD PTR [edi]
  00039	f7 ee		 imul	 esi
  0003b	c1 fa 02	 sar	 edx, 2
  0003e	8b c2		 mov	 eax, edx
  00040	c1 e8 1f	 shr	 eax, 31			; 0000001fH
  00043	03 c2		 add	 eax, edx

; 884  : 			}
; 885  : 		}
; 886  : 
; 887  : 	iterator insert(const_iterator _Where, _Ty&& _Val)
; 888  : 		{	// insert by moving _Val at _Where
; 889  : 		return (emplace(_Where, _STD move(_Val)));
; 890  : 		}
; 891  : 
; 892  : 	template<class... _Valty>
; 893  : 		void emplace_back(_Valty&&... _Val)
; 894  : 		{	// insert by moving into element at end
; 895  : 		if (this->_Mylast == this->_Myend)
; 896  : 			_Reserve(1);
; 897  : 		_Orphan_range(this->_Mylast, this->_Mylast);
; 898  : 		this->_Getal().construct(this->_Mylast,
; 899  : 			_STD forward<_Valty>(_Val)...);
; 900  : 		++this->_Mylast;
; 901  : 		}
; 902  : 
; 903  : 	template<class... _Valty>
; 904  : 		iterator emplace(const_iterator _Where, _Valty&&... _Val)
; 905  : 		{	// insert by moving _Val at _Where
; 906  : 		size_type _Off = _VIPTR(_Where) - this->_Myfirst;
; 907  : 
; 908  :  #if _ITERATOR_DEBUG_LEVEL == 2
; 909  : 		if (size() < _Off)
; 910  : 			_DEBUG_ERROR("vector emplace iterator outside range");
; 911  :  #endif /* _ITERATOR_DEBUG_LEVEL == 2 */
; 912  : 
; 913  : 		emplace_back(_STD forward<_Valty>(_Val)...);
; 914  : 		_STD rotate(begin() + _Off, end() - 1, end());
; 915  : 		return (begin() + _Off);
; 916  : 		}
; 917  : 
; 918  : 
; 919  : 	vector(_XSTD initializer_list<value_type> _Ilist,
; 920  : 		const _Alloc& _Al = allocator_type())
; 921  : 		: _Mybase(_Al)
; 922  : 		{	// construct from initializer_list
; 923  : 		insert(begin(), _Ilist.begin(), _Ilist.end());
; 924  : 		}
; 925  : 
; 926  : 	_Myt& operator=(_XSTD initializer_list<value_type> _Ilist)
; 927  : 		{	// assign initializer_list
; 928  : 		assign(_Ilist.begin(), _Ilist.end());
; 929  : 		return (*this);
; 930  : 		}
; 931  : 
; 932  : 	void assign(_XSTD initializer_list<value_type> _Ilist)
; 933  : 		{	// assign initializer_list
; 934  : 		assign(_Ilist.begin(), _Ilist.end());
; 935  : 		}
; 936  : 
; 937  : 	iterator insert(const_iterator _Where,
; 938  : 		_XSTD initializer_list<value_type> _Ilist)
; 939  : 		{	// insert initializer_list
; 940  : 		return (insert(_Where, _Ilist.begin(), _Ilist.end()));
; 941  : 		}
; 942  : 
; 943  : 	~vector() _NOEXCEPT
; 944  : 		{	// destroy the object
; 945  : 		_Tidy();
; 946  : 		}
; 947  : 
; 948  : 	_Myt& operator=(const _Myt& _Right)
; 949  : 		{	// assign _Right
; 950  : 		if (this != &_Right)
; 951  : 			{	// different, assign it
; 952  : 			if (this->_Getal() != _Right._Getal()
; 953  : 				&& _Alty::propagate_on_container_copy_assignment::value)
; 954  : 				{	// change allocator before copying
; 955  : 				_Tidy();
; 956  : 				this->_Change_alloc(_Right._Getal());
; 957  : 				}
; 958  : 
; 959  : 			this->_Orphan_all();
; 960  : 
; 961  : 			if (_Right.empty())
; 962  : 				clear();	// new sequence empty, erase existing sequence
; 963  : 			else if (_Right.size() <= size())
; 964  : 				{	// enough elements, copy new and destroy old
; 965  : 				pointer _Ptr = _Copy_impl(_Right._Myfirst,
; 966  : 					_Right._Mylast, this->_Myfirst);	// copy new
; 967  : 				_Destroy(_Ptr, this->_Mylast);	// destroy old
; 968  : 				this->_Mylast = this->_Myfirst + _Right.size();
; 969  : 				}
; 970  : 			else if (_Right.size() <= capacity())
; 971  : 				{	// enough room, copy and construct new
; 972  : 				pointer _Ptr = _Right._Myfirst + size();
; 973  : 				_Copy_impl(_Right._Myfirst,
; 974  : 					_Ptr, this->_Myfirst);
; 975  : 				this->_Mylast = _Ucopy(_Ptr, _Right._Mylast, this->_Mylast);
; 976  : 				}
; 977  : 			else
; 978  : 				{	// not enough room, allocate new array and construct new
; 979  : 				if (this->_Myfirst != pointer())
; 980  : 					{	// discard old array
; 981  : 					_Destroy(this->_Myfirst, this->_Mylast);
; 982  : 					this->_Getal().deallocate(this->_Myfirst,
; 983  : 						this->_Myend - this->_Myfirst);
; 984  : 					}
; 985  : 				if (_Buy(_Right.size()))
; 986  : 					_TRY_BEGIN
; 987  : 					this->_Mylast = _Ucopy(_Right._Myfirst, _Right._Mylast,
; 988  : 						this->_Myfirst);
; 989  : 					_CATCH_ALL
; 990  : 					_Tidy();
; 991  : 					_RERAISE;
; 992  : 					_CATCH_END
; 993  : 				}
; 994  : 			}
; 995  : 		return (*this);
; 996  : 		}
; 997  : 
; 998  : 	void reserve(size_type _Count)
; 999  : 		{	// determine new minimum length of allocated storage
; 1000 : 		if (capacity() < _Count)

  00045	83 f8 0a	 cmp	 eax, 10			; 0000000aH
  00048	73 09		 jae	 SHORT $LN17@SplitToken

; 1001 : 			{	// something to do, check and reallocate
; 1002 : 			if (max_size() < _Count)
; 1003 : 				_Xlen();
; 1004 : 			_Reallocate(_Count);

  0004a	6a 0a		 push	 10			; 0000000aH
  0004c	8b cf		 mov	 ecx, edi
  0004e	e8 00 00 00 00	 call	 ?_Reallocate@?$vector@V?$basic_string@DU?$char_traits@D@std@@V?$allocator@D@2@@std@@V?$allocator@V?$basic_string@DU?$char_traits@D@std@@V?$allocator@D@2@@std@@@2@@std@@IAEXI@Z ; std::vector<std::basic_string<char,std::char_traits<char>,std::allocator<char> >,std::allocator<std::basic_string<char,std::char_traits<char>,std::allocator<char> > > >::_Reallocate
$LN17@SplitToken:
; File c:\program files (x86)\microsoft visual studio 12.0\vc\include\xmemory0

; 96   : 	_Destroy_range(_First, _Last, _Al, _Ptr_cat(_First, _Last));

  00053	ff 75 9c	 push	 DWORD PTR __Cat$2[ebp]
  00056	8d 45 a3	 lea	 eax, DWORD PTR __Alval$3[ebp]
  00059	50		 push	 eax
  0005a	ff 77 04	 push	 DWORD PTR [edi+4]
  0005d	ff 37		 push	 DWORD PTR [edi]
  0005f	e8 00 00 00 00	 call	 ??$_Destroy_range@U?$_Wrap_alloc@V?$allocator@V?$basic_string@DU?$char_traits@D@std@@V?$allocator@D@2@@std@@@std@@@std@@@std@@YAXPAV?$basic_string@DU?$char_traits@D@std@@V?$allocator@D@2@@0@0AAU?$_Wrap_alloc@V?$allocator@V?$basic_string@DU?$char_traits@D@std@@V?$allocator@D@2@@std@@@std@@@0@U_Nonscalar_ptr_iterator_tag@0@@Z ; std::_Destroy_range<std::_Wrap_alloc<std::allocator<std::basic_string<char,std::char_traits<char>,std::allocator<char> > > > >
; File c:\program files (x86)\microsoft visual studio 12.0\vc\include\vector

; 1510 : 		this->_Mylast = this->_Myfirst;

  00064	8b 07		 mov	 eax, DWORD PTR [edi]
; File c:\program files (x86)\microsoft visual studio 12.0\vc\include\xmemory0

; 96   : 	_Destroy_range(_First, _Last, _Al, _Ptr_cat(_First, _Last));

  00066	83 c4 10	 add	 esp, 16			; 00000010H
; File c:\program files (x86)\microsoft visual studio 12.0\vc\include\vector

; 1510 : 		this->_Mylast = this->_Myfirst;

  00069	89 47 04	 mov	 DWORD PTR [edi+4], eax
; File c:\program files (x86)\microsoft visual studio 12.0\vc\include\xstring

; 2284 : 		this->_Myres = this->_BUF_SIZE - 1;

  0006c	c7 45 b8 0f 00
	00 00		 mov	 DWORD PTR _stToken$[ebp+20], 15 ; 0000000fH

; 2081 : 		}
; 2082 : 
; 2083 : 	size_type find_first_not_of(_Elem _Ch,
; 2084 : 		size_type _Off = 0) const
; 2085 : 		{	// look for non _Ch at or after _Off
; 2086 : 		return (find_first_not_of((const _Elem *)&_Ch, _Off, 1));
; 2087 : 		}
; 2088 : 
; 2089 : 	size_type find_last_not_of(const _Myt& _Right,
; 2090 : 		size_type _Off = npos) const _NOEXCEPT
; 2091 : 		{	// look for none of _Right before _Off
; 2092 : 		return (find_last_not_of(_Right._Myptr(), _Off, _Right.size()));
; 2093 : 		}
; 2094 : 
; 2095 : 	size_type find_last_not_of(const _Elem *_Ptr,
; 2096 : 		size_type _Off, size_type _Count) const
; 2097 : 		{	// look for none of [_Ptr, _Ptr + _Count) before _Off
; 2098 :  #if _ITERATOR_DEBUG_LEVEL == 2
; 2099 : 		if (_Count != 0)
; 2100 : 			_DEBUG_POINTER(_Ptr);
; 2101 :  #endif /* _ITERATOR_DEBUG_LEVEL == 2 */
; 2102 : 
; 2103 : 		if (0 < this->_Mysize)
; 2104 : 			{	// worth searching, do it
; 2105 : 			const _Elem *_Uptr = this->_Myptr()
; 2106 : 				+ (_Off < this->_Mysize ? _Off : this->_Mysize - 1);
; 2107 : 			for (; ; --_Uptr)
; 2108 : 				if (_Traits::find(_Ptr, _Count, *_Uptr) == 0)
; 2109 : 					return (_Uptr - this->_Myptr());
; 2110 : 				else if (_Uptr == this->_Myptr())
; 2111 : 					break;
; 2112 : 			}
; 2113 : 		return (npos);
; 2114 : 		}
; 2115 : 
; 2116 : 	size_type find_last_not_of(const _Elem *_Ptr,
; 2117 : 		size_type _Off = npos) const
; 2118 : 		{	// look for none of [_Ptr, <null>) before _Off
; 2119 : 		_DEBUG_POINTER(_Ptr);
; 2120 : 		return (find_last_not_of(_Ptr, _Off, _Traits::length(_Ptr)));
; 2121 : 		}
; 2122 : 
; 2123 : 	size_type find_last_not_of(_Elem _Ch,
; 2124 : 		size_type _Off = npos) const
; 2125 : 		{	// look for non _Ch before _Off
; 2126 : 		return (find_last_not_of((const _Elem *)&_Ch, _Off, 1));
; 2127 : 		}
; 2128 : 
; 2129 : 	_Myt substr(size_type _Off = 0, size_type _Count = npos) const
; 2130 : 		{	// return [_Off, _Off + _Count) as new string
; 2131 : 		return (_Myt(*this, _Off, _Count, get_allocator()));
; 2132 : 		}
; 2133 : 
; 2134 : 	int compare(const _Myt& _Right) const _NOEXCEPT
; 2135 : 		{	// compare [0, _Mysize) with _Right
; 2136 : 		return (compare(0, this->_Mysize, _Right._Myptr(), _Right.size()));
; 2137 : 		}
; 2138 : 
; 2139 : 	int compare(size_type _Off, size_type _N0,
; 2140 : 		const _Myt& _Right) const
; 2141 : 		{	// compare [_Off, _Off + _N0) with _Right
; 2142 : 		return (compare(_Off, _N0, _Right, 0, npos));
; 2143 : 		}
; 2144 : 
; 2145 : 	int compare(size_type _Off,
; 2146 : 		size_type _N0, const _Myt& _Right,
; 2147 : 		size_type _Roff, size_type _Count) const
; 2148 : 		{	// compare [_Off, _Off + _N0) with _Right [_Roff, _Roff + _Count)
; 2149 : 		if (_Right.size() < _Roff)
; 2150 : 			_Xran();	// _Off off end
; 2151 : 		if (_Right._Mysize - _Roff < _Count)
; 2152 : 			_Count = _Right._Mysize - _Roff;	// trim _Count to size
; 2153 : 		return (compare(_Off, _N0, _Right._Myptr() + _Roff, _Count));
; 2154 : 		}
; 2155 : 
; 2156 : 	int compare(const _Elem *_Ptr) const
; 2157 : 		{	// compare [0, _Mysize) with [_Ptr, <null>)
; 2158 : 		_DEBUG_POINTER(_Ptr);
; 2159 : 		return (compare(0, this->_Mysize, _Ptr, _Traits::length(_Ptr)));
; 2160 : 		}
; 2161 : 
; 2162 : 	int compare(size_type _Off, size_type _N0, const _Elem *_Ptr) const
; 2163 : 		{	// compare [_Off, _Off + _N0) with [_Ptr, <null>)
; 2164 : 		_DEBUG_POINTER(_Ptr);
; 2165 : 		return (compare(_Off, _N0, _Ptr, _Traits::length(_Ptr)));
; 2166 : 		}
; 2167 : 
; 2168 : 	int compare(size_type _Off,
; 2169 : 		size_type _N0, const _Elem *_Ptr, size_type _Count) const
; 2170 : 		{	// compare [_Off, _Off + _N0) with [_Ptr, _Ptr + _Count)
; 2171 :  #if _ITERATOR_DEBUG_LEVEL == 2
; 2172 : 		if (_Count != 0)
; 2173 : 			_DEBUG_POINTER(_Ptr);
; 2174 :  #endif /* _ITERATOR_DEBUG_LEVEL == 2 */
; 2175 : 
; 2176 : 		if (this->_Mysize < _Off)
; 2177 : 			_Xran();	// _Off off end
; 2178 : 		if (this->_Mysize - _Off < _N0)
; 2179 : 			_N0 = this->_Mysize - _Off;	// trim _N0 to size
; 2180 : 
; 2181 : 		size_type _Ans = _Traits::compare(this->_Myptr() + _Off, _Ptr,
; 2182 : 			_N0 < _Count ? _N0 : _Count);
; 2183 : 		return (_Ans != 0 ? (int)_Ans : _N0 < _Count ? -1
; 2184 : 			: _N0 == _Count ? 0 : +1);
; 2185 : 		}
; 2186 : 
; 2187 : 	allocator_type get_allocator() const _NOEXCEPT
; 2188 : 		{	// return allocator object for values
; 2189 : 		return (this->_Getal());
; 2190 : 		}
; 2191 : 
; 2192 : 	void _Chassign(size_type _Off, size_type _Count, _Elem _Ch)
; 2193 : 		{	// assign _Count copies of _Ch beginning at _Off
; 2194 : 		if (_Count == 1)
; 2195 : 			_Traits::assign(*(this->_Myptr() + _Off), _Ch);
; 2196 : 		else
; 2197 : 			_Traits::assign(this->_Myptr() + _Off, _Count, _Ch);
; 2198 : 		}
; 2199 : 
; 2200 : 	void _Copy(size_type _Newsize, size_type _Oldlen)
; 2201 : 		{	// copy _Oldlen elements to newly allocated buffer
; 2202 : 		size_type _Newres = _Newsize | this->_ALLOC_MASK;
; 2203 : 		if (max_size() < _Newres)
; 2204 : 			_Newres = _Newsize;	// undo roundup if too big
; 2205 : 		else if (this->_Myres / 2 <= _Newres / 3)
; 2206 : 			;
; 2207 : 		else if (this->_Myres <= max_size() - this->_Myres / 2)
; 2208 : 			_Newres = this->_Myres
; 2209 : 				+ this->_Myres / 2;	// grow exponentially if possible
; 2210 : 		else
; 2211 : 			_Newres = max_size();	// settle for max_size()
; 2212 : 
; 2213 : 		_Elem *_Ptr;
; 2214 : 		_TRY_BEGIN
; 2215 : 			_Ptr = this->_Getal().allocate(_Newres + 1);
; 2216 : 		_CATCH_ALL
; 2217 : 			_Newres = _Newsize;	// allocation failed, undo roundup and retry
; 2218 : 			_TRY_BEGIN
; 2219 : 				_Ptr = this->_Getal().allocate(_Newres + 1);
; 2220 : 			_CATCH_ALL
; 2221 : 			_Tidy(true);	// failed again, discard storage and reraise
; 2222 : 			_RERAISE;
; 2223 : 			_CATCH_END
; 2224 : 		_CATCH_END
; 2225 : 
; 2226 : 		if (0 < _Oldlen)
; 2227 : 			_Traits::copy(_Ptr, this->_Myptr(),
; 2228 : 				_Oldlen);	// copy existing elements
; 2229 : 		_Tidy(true);
; 2230 : 		this->_Getal().construct(&this->_Bx._Ptr, _Ptr);
; 2231 : 		this->_Myres = _Newres;
; 2232 : 		_Eos(_Oldlen);
; 2233 : 		}
; 2234 : 
; 2235 : 	void _Eos(size_type _Newsize)
; 2236 : 		{	// set new length and null terminator
; 2237 : 		_Traits::assign(this->_Myptr()[this->_Mysize = _Newsize], _Elem());

  00073	c7 45 b4 00 00
	00 00		 mov	 DWORD PTR _stToken$[ebp+16], 0
; File c:\program files (x86)\microsoft visual studio 12.0\vc\include\iosfwd

; 564  : 		_Left = _Right;

  0007a	c6 45 a4 00	 mov	 BYTE PTR _stToken$[ebp], 0
; File d:\metin2\metin2\client_source_clean\client_source_clean\source\userinterface\pythonnetworkstreamcommand.cpp

; 93   : 	std::string stToken;

  0007e	c7 45 fc 00 00
	00 00		 mov	 DWORD PTR __$EHRec$[ebp+8], 0
; File c:\program files (x86)\microsoft visual studio 12.0\vc\include\iosfwd

; 523  : 			: _CSTD strlen(_First));

  00085	80 3b 00	 cmp	 BYTE PTR [ebx], 0
; File c:\program files (x86)\microsoft visual studio 12.0\vc\include\xstring

; 2284 : 		this->_Myres = this->_BUF_SIZE - 1;

  00088	c7 45 e8 0f 00
	00 00		 mov	 DWORD PTR _strLine$[ebp+20], 15 ; 0000000fH

; 2081 : 		}
; 2082 : 
; 2083 : 	size_type find_first_not_of(_Elem _Ch,
; 2084 : 		size_type _Off = 0) const
; 2085 : 		{	// look for non _Ch at or after _Off
; 2086 : 		return (find_first_not_of((const _Elem *)&_Ch, _Off, 1));
; 2087 : 		}
; 2088 : 
; 2089 : 	size_type find_last_not_of(const _Myt& _Right,
; 2090 : 		size_type _Off = npos) const _NOEXCEPT
; 2091 : 		{	// look for none of _Right before _Off
; 2092 : 		return (find_last_not_of(_Right._Myptr(), _Off, _Right.size()));
; 2093 : 		}
; 2094 : 
; 2095 : 	size_type find_last_not_of(const _Elem *_Ptr,
; 2096 : 		size_type _Off, size_type _Count) const
; 2097 : 		{	// look for none of [_Ptr, _Ptr + _Count) before _Off
; 2098 :  #if _ITERATOR_DEBUG_LEVEL == 2
; 2099 : 		if (_Count != 0)
; 2100 : 			_DEBUG_POINTER(_Ptr);
; 2101 :  #endif /* _ITERATOR_DEBUG_LEVEL == 2 */
; 2102 : 
; 2103 : 		if (0 < this->_Mysize)
; 2104 : 			{	// worth searching, do it
; 2105 : 			const _Elem *_Uptr = this->_Myptr()
; 2106 : 				+ (_Off < this->_Mysize ? _Off : this->_Mysize - 1);
; 2107 : 			for (; ; --_Uptr)
; 2108 : 				if (_Traits::find(_Ptr, _Count, *_Uptr) == 0)
; 2109 : 					return (_Uptr - this->_Myptr());
; 2110 : 				else if (_Uptr == this->_Myptr())
; 2111 : 					break;
; 2112 : 			}
; 2113 : 		return (npos);
; 2114 : 		}
; 2115 : 
; 2116 : 	size_type find_last_not_of(const _Elem *_Ptr,
; 2117 : 		size_type _Off = npos) const
; 2118 : 		{	// look for none of [_Ptr, <null>) before _Off
; 2119 : 		_DEBUG_POINTER(_Ptr);
; 2120 : 		return (find_last_not_of(_Ptr, _Off, _Traits::length(_Ptr)));
; 2121 : 		}
; 2122 : 
; 2123 : 	size_type find_last_not_of(_Elem _Ch,
; 2124 : 		size_type _Off = npos) const
; 2125 : 		{	// look for non _Ch before _Off
; 2126 : 		return (find_last_not_of((const _Elem *)&_Ch, _Off, 1));
; 2127 : 		}
; 2128 : 
; 2129 : 	_Myt substr(size_type _Off = 0, size_type _Count = npos) const
; 2130 : 		{	// return [_Off, _Off + _Count) as new string
; 2131 : 		return (_Myt(*this, _Off, _Count, get_allocator()));
; 2132 : 		}
; 2133 : 
; 2134 : 	int compare(const _Myt& _Right) const _NOEXCEPT
; 2135 : 		{	// compare [0, _Mysize) with _Right
; 2136 : 		return (compare(0, this->_Mysize, _Right._Myptr(), _Right.size()));
; 2137 : 		}
; 2138 : 
; 2139 : 	int compare(size_type _Off, size_type _N0,
; 2140 : 		const _Myt& _Right) const
; 2141 : 		{	// compare [_Off, _Off + _N0) with _Right
; 2142 : 		return (compare(_Off, _N0, _Right, 0, npos));
; 2143 : 		}
; 2144 : 
; 2145 : 	int compare(size_type _Off,
; 2146 : 		size_type _N0, const _Myt& _Right,
; 2147 : 		size_type _Roff, size_type _Count) const
; 2148 : 		{	// compare [_Off, _Off + _N0) with _Right [_Roff, _Roff + _Count)
; 2149 : 		if (_Right.size() < _Roff)
; 2150 : 			_Xran();	// _Off off end
; 2151 : 		if (_Right._Mysize - _Roff < _Count)
; 2152 : 			_Count = _Right._Mysize - _Roff;	// trim _Count to size
; 2153 : 		return (compare(_Off, _N0, _Right._Myptr() + _Roff, _Count));
; 2154 : 		}
; 2155 : 
; 2156 : 	int compare(const _Elem *_Ptr) const
; 2157 : 		{	// compare [0, _Mysize) with [_Ptr, <null>)
; 2158 : 		_DEBUG_POINTER(_Ptr);
; 2159 : 		return (compare(0, this->_Mysize, _Ptr, _Traits::length(_Ptr)));
; 2160 : 		}
; 2161 : 
; 2162 : 	int compare(size_type _Off, size_type _N0, const _Elem *_Ptr) const
; 2163 : 		{	// compare [_Off, _Off + _N0) with [_Ptr, <null>)
; 2164 : 		_DEBUG_POINTER(_Ptr);
; 2165 : 		return (compare(_Off, _N0, _Ptr, _Traits::length(_Ptr)));
; 2166 : 		}
; 2167 : 
; 2168 : 	int compare(size_type _Off,
; 2169 : 		size_type _N0, const _Elem *_Ptr, size_type _Count) const
; 2170 : 		{	// compare [_Off, _Off + _N0) with [_Ptr, _Ptr + _Count)
; 2171 :  #if _ITERATOR_DEBUG_LEVEL == 2
; 2172 : 		if (_Count != 0)
; 2173 : 			_DEBUG_POINTER(_Ptr);
; 2174 :  #endif /* _ITERATOR_DEBUG_LEVEL == 2 */
; 2175 : 
; 2176 : 		if (this->_Mysize < _Off)
; 2177 : 			_Xran();	// _Off off end
; 2178 : 		if (this->_Mysize - _Off < _N0)
; 2179 : 			_N0 = this->_Mysize - _Off;	// trim _N0 to size
; 2180 : 
; 2181 : 		size_type _Ans = _Traits::compare(this->_Myptr() + _Off, _Ptr,
; 2182 : 			_N0 < _Count ? _N0 : _Count);
; 2183 : 		return (_Ans != 0 ? (int)_Ans : _N0 < _Count ? -1
; 2184 : 			: _N0 == _Count ? 0 : +1);
; 2185 : 		}
; 2186 : 
; 2187 : 	allocator_type get_allocator() const _NOEXCEPT
; 2188 : 		{	// return allocator object for values
; 2189 : 		return (this->_Getal());
; 2190 : 		}
; 2191 : 
; 2192 : 	void _Chassign(size_type _Off, size_type _Count, _Elem _Ch)
; 2193 : 		{	// assign _Count copies of _Ch beginning at _Off
; 2194 : 		if (_Count == 1)
; 2195 : 			_Traits::assign(*(this->_Myptr() + _Off), _Ch);
; 2196 : 		else
; 2197 : 			_Traits::assign(this->_Myptr() + _Off, _Count, _Ch);
; 2198 : 		}
; 2199 : 
; 2200 : 	void _Copy(size_type _Newsize, size_type _Oldlen)
; 2201 : 		{	// copy _Oldlen elements to newly allocated buffer
; 2202 : 		size_type _Newres = _Newsize | this->_ALLOC_MASK;
; 2203 : 		if (max_size() < _Newres)
; 2204 : 			_Newres = _Newsize;	// undo roundup if too big
; 2205 : 		else if (this->_Myres / 2 <= _Newres / 3)
; 2206 : 			;
; 2207 : 		else if (this->_Myres <= max_size() - this->_Myres / 2)
; 2208 : 			_Newres = this->_Myres
; 2209 : 				+ this->_Myres / 2;	// grow exponentially if possible
; 2210 : 		else
; 2211 : 			_Newres = max_size();	// settle for max_size()
; 2212 : 
; 2213 : 		_Elem *_Ptr;
; 2214 : 		_TRY_BEGIN
; 2215 : 			_Ptr = this->_Getal().allocate(_Newres + 1);
; 2216 : 		_CATCH_ALL
; 2217 : 			_Newres = _Newsize;	// allocation failed, undo roundup and retry
; 2218 : 			_TRY_BEGIN
; 2219 : 				_Ptr = this->_Getal().allocate(_Newres + 1);
; 2220 : 			_CATCH_ALL
; 2221 : 			_Tidy(true);	// failed again, discard storage and reraise
; 2222 : 			_RERAISE;
; 2223 : 			_CATCH_END
; 2224 : 		_CATCH_END
; 2225 : 
; 2226 : 		if (0 < _Oldlen)
; 2227 : 			_Traits::copy(_Ptr, this->_Myptr(),
; 2228 : 				_Oldlen);	// copy existing elements
; 2229 : 		_Tidy(true);
; 2230 : 		this->_Getal().construct(&this->_Bx._Ptr, _Ptr);
; 2231 : 		this->_Myres = _Newres;
; 2232 : 		_Eos(_Oldlen);
; 2233 : 		}
; 2234 : 
; 2235 : 	void _Eos(size_type _Newsize)
; 2236 : 		{	// set new length and null terminator
; 2237 : 		_Traits::assign(this->_Myptr()[this->_Mysize = _Newsize], _Elem());

  0008f	c7 45 e4 00 00
	00 00		 mov	 DWORD PTR _strLine$[ebp+16], 0
; File c:\program files (x86)\microsoft visual studio 12.0\vc\include\iosfwd

; 564  : 		_Left = _Right;

  00096	c6 45 d4 00	 mov	 BYTE PTR _strLine$[ebp], 0

; 523  : 			: _CSTD strlen(_First));

  0009a	75 04		 jne	 SHORT $LN126@SplitToken
  0009c	33 c9		 xor	 ecx, ecx
  0009e	eb 0e		 jmp	 SHORT $LN127@SplitToken
$LN126@SplitToken:
  000a0	8b cb		 mov	 ecx, ebx
  000a2	8d 51 01	 lea	 edx, DWORD PTR [ecx+1]
$LL515@SplitToken:
  000a5	8a 01		 mov	 al, BYTE PTR [ecx]
  000a7	41		 inc	 ecx
  000a8	84 c0		 test	 al, al
  000aa	75 f9		 jne	 SHORT $LL515@SplitToken
  000ac	2b ca		 sub	 ecx, edx
$LN127@SplitToken:
; File c:\program files (x86)\microsoft visual studio 12.0\vc\include\xstring

; 1169 : 		return (assign(_Ptr, _Traits::length(_Ptr)));

  000ae	51		 push	 ecx
  000af	53		 push	 ebx
  000b0	8d 4d d4	 lea	 ecx, DWORD PTR _strLine$[ebp]
  000b3	e8 00 00 00 00	 call	 ?assign@?$basic_string@DU?$char_traits@D@std@@V?$allocator@D@2@@std@@QAEAAV12@PBDI@Z ; std::basic_string<char,std::char_traits<char>,std::allocator<char> >::assign
; File d:\metin2\metin2\client_source_clean\client_source_clean\source\userinterface\pythonnetworkstreamcommand.cpp

; 94   : 	std::string strLine = c_szLine;

  000b8	c6 45 fc 01	 mov	 BYTE PTR __$EHRec$[ebp+8], 1

; 95   : 
; 96   : 	DWORD basePos = 0;

  000bc	33 db		 xor	 ebx, ebx
  000be	8b ff		 npad	 2
$LL8@SplitToken:
; File c:\program files (x86)\microsoft visual studio 12.0\vc\include\xstring

; 2080 : 		return (find_first_not_of(_Ptr, _Off, _Traits::length(_Ptr)));

  000c0	6a 01		 push	 1
  000c2	53		 push	 ebx
  000c3	68 00 00 00 00	 push	 OFFSET ??_C@_01CLKCMJKC@?5?$AA@
  000c8	8d 4d d4	 lea	 ecx, DWORD PTR _strLine$[ebp]
  000cb	e8 00 00 00 00	 call	 ?find_first_not_of@?$basic_string@DU?$char_traits@D@std@@V?$allocator@D@2@@std@@QBEIPBDII@Z ; std::basic_string<char,std::char_traits<char>,std::allocator<char> >::find_first_not_of
; File d:\metin2\metin2\client_source_clean\client_source_clean\source\userinterface\pythonnetworkstreamcommand.cpp

; 100  : 		int beginPos = strLine.find_first_not_of(c_szDelimeter, basePos);

  000d0	8b f0		 mov	 esi, eax

; 101  : 		if (beginPos < 0)

  000d2	85 f6		 test	 esi, esi
  000d4	0f 88 31 01 00
	00		 js	 $LN510@SplitToken
; File c:\program files (x86)\microsoft visual studio 12.0\vc\include\xstring

; 513  : 			: this->_Bx._Buf);

  000da	83 7d e8 10	 cmp	 DWORD PTR _strLine$[ebp+20], 16 ; 00000010H
  000de	8d 4d d4	 lea	 ecx, DWORD PTR _strLine$[ebp]

; 2000 : 		return (find_first_of(_Ptr, _Off, _Traits::length(_Ptr)));

  000e1	6a 01		 push	 1

; 513  : 			: this->_Bx._Buf);

  000e3	0f 43 4d d4	 cmovae	 ecx, DWORD PTR _strLine$[ebp]
; File d:\metin2\metin2\client_source_clean\client_source_clean\source\userinterface\pythonnetworkstreamcommand.cpp

; 106  : 		if (strLine[beginPos] == '"')

  000e7	80 3c 31 22	 cmp	 BYTE PTR [ecx+esi], 34	; 00000022H
; File c:\program files (x86)\microsoft visual studio 12.0\vc\include\xstring

; 2000 : 		return (find_first_of(_Ptr, _Off, _Traits::length(_Ptr)));

  000eb	8d 4d d4	 lea	 ecx, DWORD PTR _strLine$[ebp]
; File d:\metin2\metin2\client_source_clean\client_source_clean\source\userinterface\pythonnetworkstreamcommand.cpp

; 106  : 		if (strLine[beginPos] == '"')

  000ee	75 1c		 jne	 SHORT $LN152@SplitToken

; 107  : 		{
; 108  : 			++beginPos;

  000f0	46		 inc	 esi
; File c:\program files (x86)\microsoft visual studio 12.0\vc\include\xstring

; 2000 : 		return (find_first_of(_Ptr, _Off, _Traits::length(_Ptr)));

  000f1	56		 push	 esi
  000f2	68 00 00 00 00	 push	 OFFSET ??_C@_01BJJEKLCA@?$CC?$AA@
  000f7	e8 00 00 00 00	 call	 ?find_first_of@?$basic_string@DU?$char_traits@D@std@@V?$allocator@D@2@@std@@QBEIPBDII@Z ; std::basic_string<char,std::char_traits<char>,std::allocator<char> >::find_first_of
; File d:\metin2\metin2\client_source_clean\client_source_clean\source\userinterface\pythonnetworkstreamcommand.cpp

; 111  : 			if (endPos < 0)

  000fc	85 c0		 test	 eax, eax
  000fe	0f 88 07 01 00
	00		 js	 $LN510@SplitToken

; 112  : 				return false;
; 113  : 			
; 114  : 			basePos = endPos + 1;

  00104	8d 48 01	 lea	 ecx, DWORD PTR [eax+1]
  00107	89 4d 9c	 mov	 DWORD PTR _basePos$1$[ebp], ecx

; 115  : 		}
; 116  : 		else

  0010a	eb 0e		 jmp	 SHORT $LN2@SplitToken
$LN152@SplitToken:
; File c:\program files (x86)\microsoft visual studio 12.0\vc\include\xstring

; 2000 : 		return (find_first_of(_Ptr, _Off, _Traits::length(_Ptr)));

  0010c	56		 push	 esi
  0010d	68 00 00 00 00	 push	 OFFSET ??_C@_01CLKCMJKC@?5?$AA@
  00112	e8 00 00 00 00	 call	 ?find_first_of@?$basic_string@DU?$char_traits@D@std@@V?$allocator@D@2@@std@@QBEIPBDII@Z ; std::basic_string<char,std::char_traits<char>,std::allocator<char> >::find_first_of
; File d:\metin2\metin2\client_source_clean\client_source_clean\source\userinterface\pythonnetworkstreamcommand.cpp

; 119  : 			basePos = endPos;

  00117	89 45 9c	 mov	 DWORD PTR _basePos$1$[ebp], eax
$LN2@SplitToken:

; 122  : 		pstTokenVector->push_back(strLine.substr(beginPos, endPos - beginPos));

  0011a	2b c6		 sub	 eax, esi
  0011c	8d 4d d4	 lea	 ecx, DWORD PTR _strLine$[ebp]
  0011f	50		 push	 eax
  00120	56		 push	 esi
  00121	8d 45 bc	 lea	 eax, DWORD PTR $T4[ebp]
  00124	50		 push	 eax
  00125	e8 00 00 00 00	 call	 ?substr@?$basic_string@DU?$char_traits@D@std@@V?$allocator@D@2@@std@@QBE?AV12@II@Z ; std::basic_string<char,std::char_traits<char>,std::allocator<char> >::substr
  0012a	8b f0		 mov	 esi, eax
  0012c	c6 45 fc 02	 mov	 BYTE PTR __$EHRec$[ebp+8], 2
; File c:\program files (x86)\microsoft visual studio 12.0\vc\include\vector

; 1583 : 		return (_Ptr < this->_Mylast && this->_Myfirst <= _Ptr);

  00130	8b 4f 04	 mov	 ecx, DWORD PTR [edi+4]
  00133	3b f1		 cmp	 esi, ecx
  00135	73 31		 jae	 SHORT $LN157@SplitToken
  00137	8b 07		 mov	 eax, DWORD PTR [edi]
  00139	3b c6		 cmp	 eax, esi
  0013b	77 2b		 ja	 SHORT $LN157@SplitToken

; 868  : 			size_type _Idx = _STD addressof(_Val) - this->_Myfirst;

  0013d	2b f0		 sub	 esi, eax
  0013f	b8 ab aa aa 2a	 mov	 eax, 715827883		; 2aaaaaabH
  00144	f7 ee		 imul	 esi
  00146	c1 fa 02	 sar	 edx, 2
  00149	8b f2		 mov	 esi, edx
  0014b	c1 ee 1f	 shr	 esi, 31			; 0000001fH
  0014e	03 f2		 add	 esi, edx

; 869  : 			if (this->_Mylast == this->_Myend)

  00150	3b 4f 08	 cmp	 ecx, DWORD PTR [edi+8]
  00153	75 09		 jne	 SHORT $LN156@SplitToken

; 870  : 				_Reserve(1);

  00155	6a 01		 push	 1
  00157	8b cf		 mov	 ecx, edi
  00159	e8 00 00 00 00	 call	 ?_Reserve@?$vector@V?$basic_string@DU?$char_traits@D@std@@V?$allocator@D@2@@std@@V?$allocator@V?$basic_string@DU?$char_traits@D@std@@V?$allocator@D@2@@std@@@2@@std@@IAEXI@Z ; std::vector<std::basic_string<char,std::char_traits<char>,std::allocator<char> >,std::allocator<std::basic_string<char,std::char_traits<char>,std::allocator<char> > > >::_Reserve
$LN156@SplitToken:

; 871  : 			_Orphan_range(this->_Mylast, this->_Mylast);
; 872  : 			this->_Getal().construct(this->_Mylast,
; 873  : 				_STD forward<value_type>(this->_Myfirst[_Idx]));

  0015e	8b 07		 mov	 eax, DWORD PTR [edi]
  00160	8d 0c 76	 lea	 ecx, DWORD PTR [esi+esi*2]
  00163	8d 34 c8	 lea	 esi, DWORD PTR [eax+ecx*8]
; File c:\program files (x86)\microsoft visual studio 12.0\vc\include\xstring

; 939  : 		else

  00166	eb 0e		 jmp	 SHORT $LN154@SplitToken
$LN157@SplitToken:
; File c:\program files (x86)\microsoft visual studio 12.0\vc\include\vector

; 878  : 			if (this->_Mylast == this->_Myend)

  00168	3b 4f 08	 cmp	 ecx, DWORD PTR [edi+8]
  0016b	75 09		 jne	 SHORT $LN154@SplitToken

; 879  : 				_Reserve(1);

  0016d	6a 01		 push	 1
  0016f	8b cf		 mov	 ecx, edi
  00171	e8 00 00 00 00	 call	 ?_Reserve@?$vector@V?$basic_string@DU?$char_traits@D@std@@V?$allocator@D@2@@std@@V?$allocator@V?$basic_string@DU?$char_traits@D@std@@V?$allocator@D@2@@std@@@2@@std@@IAEXI@Z ; std::vector<std::basic_string<char,std::char_traits<char>,std::allocator<char> >,std::allocator<std::basic_string<char,std::char_traits<char>,std::allocator<char> > > >::_Reserve
$LN154@SplitToken:
; File c:\program files (x86)\microsoft visual studio 12.0\vc\include\xmemory0

; 600  : 		::new ((void *)_Ptr) _Objty(_STD forward<_Types>(_Args)...);

  00176	8b 5f 04	 mov	 ebx, DWORD PTR [edi+4]
  00179	85 db		 test	 ebx, ebx
  0017b	74 51		 je	 SHORT $LN302@SplitToken
; File c:\program files (x86)\microsoft visual studio 12.0\vc\include\xstring

; 2284 : 		this->_Myres = this->_BUF_SIZE - 1;

  0017d	c7 43 14 0f 00
	00 00		 mov	 DWORD PTR [ebx+20], 15	; 0000000fH

; 2081 : 		}
; 2082 : 
; 2083 : 	size_type find_first_not_of(_Elem _Ch,
; 2084 : 		size_type _Off = 0) const
; 2085 : 		{	// look for non _Ch at or after _Off
; 2086 : 		return (find_first_not_of((const _Elem *)&_Ch, _Off, 1));
; 2087 : 		}
; 2088 : 
; 2089 : 	size_type find_last_not_of(const _Myt& _Right,
; 2090 : 		size_type _Off = npos) const _NOEXCEPT
; 2091 : 		{	// look for none of _Right before _Off
; 2092 : 		return (find_last_not_of(_Right._Myptr(), _Off, _Right.size()));
; 2093 : 		}
; 2094 : 
; 2095 : 	size_type find_last_not_of(const _Elem *_Ptr,
; 2096 : 		size_type _Off, size_type _Count) const
; 2097 : 		{	// look for none of [_Ptr, _Ptr + _Count) before _Off
; 2098 :  #if _ITERATOR_DEBUG_LEVEL == 2
; 2099 : 		if (_Count != 0)
; 2100 : 			_DEBUG_POINTER(_Ptr);
; 2101 :  #endif /* _ITERATOR_DEBUG_LEVEL == 2 */
; 2102 : 
; 2103 : 		if (0 < this->_Mysize)
; 2104 : 			{	// worth searching, do it
; 2105 : 			const _Elem *_Uptr = this->_Myptr()
; 2106 : 				+ (_Off < this->_Mysize ? _Off : this->_Mysize - 1);
; 2107 : 			for (; ; --_Uptr)
; 2108 : 				if (_Traits::find(_Ptr, _Count, *_Uptr) == 0)
; 2109 : 					return (_Uptr - this->_Myptr());
; 2110 : 				else if (_Uptr == this->_Myptr())
; 2111 : 					break;
; 2112 : 			}
; 2113 : 		return (npos);
; 2114 : 		}
; 2115 : 
; 2116 : 	size_type find_last_not_of(const _Elem *_Ptr,
; 2117 : 		size_type _Off = npos) const
; 2118 : 		{	// look for none of [_Ptr, <null>) before _Off
; 2119 : 		_DEBUG_POINTER(_Ptr);
; 2120 : 		return (find_last_not_of(_Ptr, _Off, _Traits::length(_Ptr)));
; 2121 : 		}
; 2122 : 
; 2123 : 	size_type find_last_not_of(_Elem _Ch,
; 2124 : 		size_type _Off = npos) const
; 2125 : 		{	// look for non _Ch before _Off
; 2126 : 		return (find_last_not_of((const _Elem *)&_Ch, _Off, 1));
; 2127 : 		}
; 2128 : 
; 2129 : 	_Myt substr(size_type _Off = 0, size_type _Count = npos) const
; 2130 : 		{	// return [_Off, _Off + _Count) as new string
; 2131 : 		return (_Myt(*this, _Off, _Count, get_allocator()));
; 2132 : 		}
; 2133 : 
; 2134 : 	int compare(const _Myt& _Right) const _NOEXCEPT
; 2135 : 		{	// compare [0, _Mysize) with _Right
; 2136 : 		return (compare(0, this->_Mysize, _Right._Myptr(), _Right.size()));
; 2137 : 		}
; 2138 : 
; 2139 : 	int compare(size_type _Off, size_type _N0,
; 2140 : 		const _Myt& _Right) const
; 2141 : 		{	// compare [_Off, _Off + _N0) with _Right
; 2142 : 		return (compare(_Off, _N0, _Right, 0, npos));
; 2143 : 		}
; 2144 : 
; 2145 : 	int compare(size_type _Off,
; 2146 : 		size_type _N0, const _Myt& _Right,
; 2147 : 		size_type _Roff, size_type _Count) const
; 2148 : 		{	// compare [_Off, _Off + _N0) with _Right [_Roff, _Roff + _Count)
; 2149 : 		if (_Right.size() < _Roff)
; 2150 : 			_Xran();	// _Off off end
; 2151 : 		if (_Right._Mysize - _Roff < _Count)
; 2152 : 			_Count = _Right._Mysize - _Roff;	// trim _Count to size
; 2153 : 		return (compare(_Off, _N0, _Right._Myptr() + _Roff, _Count));
; 2154 : 		}
; 2155 : 
; 2156 : 	int compare(const _Elem *_Ptr) const
; 2157 : 		{	// compare [0, _Mysize) with [_Ptr, <null>)
; 2158 : 		_DEBUG_POINTER(_Ptr);
; 2159 : 		return (compare(0, this->_Mysize, _Ptr, _Traits::length(_Ptr)));
; 2160 : 		}
; 2161 : 
; 2162 : 	int compare(size_type _Off, size_type _N0, const _Elem *_Ptr) const
; 2163 : 		{	// compare [_Off, _Off + _N0) with [_Ptr, <null>)
; 2164 : 		_DEBUG_POINTER(_Ptr);
; 2165 : 		return (compare(_Off, _N0, _Ptr, _Traits::length(_Ptr)));
; 2166 : 		}
; 2167 : 
; 2168 : 	int compare(size_type _Off,
; 2169 : 		size_type _N0, const _Elem *_Ptr, size_type _Count) const
; 2170 : 		{	// compare [_Off, _Off + _N0) with [_Ptr, _Ptr + _Count)
; 2171 :  #if _ITERATOR_DEBUG_LEVEL == 2
; 2172 : 		if (_Count != 0)
; 2173 : 			_DEBUG_POINTER(_Ptr);
; 2174 :  #endif /* _ITERATOR_DEBUG_LEVEL == 2 */
; 2175 : 
; 2176 : 		if (this->_Mysize < _Off)
; 2177 : 			_Xran();	// _Off off end
; 2178 : 		if (this->_Mysize - _Off < _N0)
; 2179 : 			_N0 = this->_Mysize - _Off;	// trim _N0 to size
; 2180 : 
; 2181 : 		size_type _Ans = _Traits::compare(this->_Myptr() + _Off, _Ptr,
; 2182 : 			_N0 < _Count ? _N0 : _Count);
; 2183 : 		return (_Ans != 0 ? (int)_Ans : _N0 < _Count ? -1
; 2184 : 			: _N0 == _Count ? 0 : +1);
; 2185 : 		}
; 2186 : 
; 2187 : 	allocator_type get_allocator() const _NOEXCEPT
; 2188 : 		{	// return allocator object for values
; 2189 : 		return (this->_Getal());
; 2190 : 		}
; 2191 : 
; 2192 : 	void _Chassign(size_type _Off, size_type _Count, _Elem _Ch)
; 2193 : 		{	// assign _Count copies of _Ch beginning at _Off
; 2194 : 		if (_Count == 1)
; 2195 : 			_Traits::assign(*(this->_Myptr() + _Off), _Ch);
; 2196 : 		else
; 2197 : 			_Traits::assign(this->_Myptr() + _Off, _Count, _Ch);
; 2198 : 		}
; 2199 : 
; 2200 : 	void _Copy(size_type _Newsize, size_type _Oldlen)
; 2201 : 		{	// copy _Oldlen elements to newly allocated buffer
; 2202 : 		size_type _Newres = _Newsize | this->_ALLOC_MASK;
; 2203 : 		if (max_size() < _Newres)
; 2204 : 			_Newres = _Newsize;	// undo roundup if too big
; 2205 : 		else if (this->_Myres / 2 <= _Newres / 3)
; 2206 : 			;
; 2207 : 		else if (this->_Myres <= max_size() - this->_Myres / 2)
; 2208 : 			_Newres = this->_Myres
; 2209 : 				+ this->_Myres / 2;	// grow exponentially if possible
; 2210 : 		else
; 2211 : 			_Newres = max_size();	// settle for max_size()
; 2212 : 
; 2213 : 		_Elem *_Ptr;
; 2214 : 		_TRY_BEGIN
; 2215 : 			_Ptr = this->_Getal().allocate(_Newres + 1);
; 2216 : 		_CATCH_ALL
; 2217 : 			_Newres = _Newsize;	// allocation failed, undo roundup and retry
; 2218 : 			_TRY_BEGIN
; 2219 : 				_Ptr = this->_Getal().allocate(_Newres + 1);
; 2220 : 			_CATCH_ALL
; 2221 : 			_Tidy(true);	// failed again, discard storage and reraise
; 2222 : 			_RERAISE;
; 2223 : 			_CATCH_END
; 2224 : 		_CATCH_END
; 2225 : 
; 2226 : 		if (0 < _Oldlen)
; 2227 : 			_Traits::copy(_Ptr, this->_Myptr(),
; 2228 : 				_Oldlen);	// copy existing elements
; 2229 : 		_Tidy(true);
; 2230 : 		this->_Getal().construct(&this->_Bx._Ptr, _Ptr);
; 2231 : 		this->_Myres = _Newres;
; 2232 : 		_Eos(_Oldlen);
; 2233 : 		}
; 2234 : 
; 2235 : 	void _Eos(size_type _Newsize)
; 2236 : 		{	// set new length and null terminator
; 2237 : 		_Traits::assign(this->_Myptr()[this->_Mysize = _Newsize], _Elem());

  00184	c7 43 10 00 00
	00 00		 mov	 DWORD PTR [ebx+16], 0
; File c:\program files (x86)\microsoft visual studio 12.0\vc\include\iosfwd

; 564  : 		_Left = _Right;

  0018b	c6 03 00	 mov	 BYTE PTR [ebx], 0
; File c:\program files (x86)\microsoft visual studio 12.0\vc\include\xstring

; 936  : 		if (_Right._Myres < this->_BUF_SIZE)

  0018e	83 7e 14 10	 cmp	 DWORD PTR [esi+20], 16	; 00000010H
  00192	73 13		 jae	 SHORT $LN349@SplitToken

; 937  : 			_Traits::move(this->_Bx._Buf, _Right._Bx._Buf,
; 938  : 				_Right._Mysize + 1);

  00194	8b 46 10	 mov	 eax, DWORD PTR [esi+16]
  00197	40		 inc	 eax
; File c:\program files (x86)\microsoft visual studio 12.0\vc\include\iosfwd

; 553  : 			: (_Elem *)_CSTD memmove(_First1, _First2, _Count));

  00198	74 17		 je	 SHORT $LN348@SplitToken
  0019a	50		 push	 eax
  0019b	56		 push	 esi
  0019c	53		 push	 ebx
  0019d	e8 00 00 00 00	 call	 _memmove
  001a2	83 c4 0c	 add	 esp, 12			; 0000000cH
; File c:\program files (x86)\microsoft visual studio 12.0\vc\include\xstring

; 939  : 		else

  001a5	eb 0a		 jmp	 SHORT $LN348@SplitToken
$LN349@SplitToken:
; File c:\program files (x86)\microsoft visual studio 12.0\vc\include\xmemory0

; 600  : 		::new ((void *)_Ptr) _Objty(_STD forward<_Types>(_Args)...);

  001a7	8b 06		 mov	 eax, DWORD PTR [esi]
  001a9	89 03		 mov	 DWORD PTR [ebx], eax
; File c:\program files (x86)\microsoft visual studio 12.0\vc\include\xstring

; 942  : 			_Right._Bx._Ptr = pointer();

  001ab	c7 06 00 00 00
	00		 mov	 DWORD PTR [esi], 0
$LN348@SplitToken:

; 943  : 			}
; 944  : 		this->_Mysize = _Right._Mysize;

  001b1	8b 46 10	 mov	 eax, DWORD PTR [esi+16]
  001b4	89 43 10	 mov	 DWORD PTR [ebx+16], eax

; 945  : 		this->_Myres = _Right._Myres;

  001b7	8b 46 14	 mov	 eax, DWORD PTR [esi+20]
  001ba	89 43 14	 mov	 DWORD PTR [ebx+20], eax

; 2284 : 		this->_Myres = this->_BUF_SIZE - 1;

  001bd	c7 46 14 0f 00
	00 00		 mov	 DWORD PTR [esi+20], 15	; 0000000fH

; 2081 : 		}
; 2082 : 
; 2083 : 	size_type find_first_not_of(_Elem _Ch,
; 2084 : 		size_type _Off = 0) const
; 2085 : 		{	// look for non _Ch at or after _Off
; 2086 : 		return (find_first_not_of((const _Elem *)&_Ch, _Off, 1));
; 2087 : 		}
; 2088 : 
; 2089 : 	size_type find_last_not_of(const _Myt& _Right,
; 2090 : 		size_type _Off = npos) const _NOEXCEPT
; 2091 : 		{	// look for none of _Right before _Off
; 2092 : 		return (find_last_not_of(_Right._Myptr(), _Off, _Right.size()));
; 2093 : 		}
; 2094 : 
; 2095 : 	size_type find_last_not_of(const _Elem *_Ptr,
; 2096 : 		size_type _Off, size_type _Count) const
; 2097 : 		{	// look for none of [_Ptr, _Ptr + _Count) before _Off
; 2098 :  #if _ITERATOR_DEBUG_LEVEL == 2
; 2099 : 		if (_Count != 0)
; 2100 : 			_DEBUG_POINTER(_Ptr);
; 2101 :  #endif /* _ITERATOR_DEBUG_LEVEL == 2 */
; 2102 : 
; 2103 : 		if (0 < this->_Mysize)
; 2104 : 			{	// worth searching, do it
; 2105 : 			const _Elem *_Uptr = this->_Myptr()
; 2106 : 				+ (_Off < this->_Mysize ? _Off : this->_Mysize - 1);
; 2107 : 			for (; ; --_Uptr)
; 2108 : 				if (_Traits::find(_Ptr, _Count, *_Uptr) == 0)
; 2109 : 					return (_Uptr - this->_Myptr());
; 2110 : 				else if (_Uptr == this->_Myptr())
; 2111 : 					break;
; 2112 : 			}
; 2113 : 		return (npos);
; 2114 : 		}
; 2115 : 
; 2116 : 	size_type find_last_not_of(const _Elem *_Ptr,
; 2117 : 		size_type _Off = npos) const
; 2118 : 		{	// look for none of [_Ptr, <null>) before _Off
; 2119 : 		_DEBUG_POINTER(_Ptr);
; 2120 : 		return (find_last_not_of(_Ptr, _Off, _Traits::length(_Ptr)));
; 2121 : 		}
; 2122 : 
; 2123 : 	size_type find_last_not_of(_Elem _Ch,
; 2124 : 		size_type _Off = npos) const
; 2125 : 		{	// look for non _Ch before _Off
; 2126 : 		return (find_last_not_of((const _Elem *)&_Ch, _Off, 1));
; 2127 : 		}
; 2128 : 
; 2129 : 	_Myt substr(size_type _Off = 0, size_type _Count = npos) const
; 2130 : 		{	// return [_Off, _Off + _Count) as new string
; 2131 : 		return (_Myt(*this, _Off, _Count, get_allocator()));
; 2132 : 		}
; 2133 : 
; 2134 : 	int compare(const _Myt& _Right) const _NOEXCEPT
; 2135 : 		{	// compare [0, _Mysize) with _Right
; 2136 : 		return (compare(0, this->_Mysize, _Right._Myptr(), _Right.size()));
; 2137 : 		}
; 2138 : 
; 2139 : 	int compare(size_type _Off, size_type _N0,
; 2140 : 		const _Myt& _Right) const
; 2141 : 		{	// compare [_Off, _Off + _N0) with _Right
; 2142 : 		return (compare(_Off, _N0, _Right, 0, npos));
; 2143 : 		}
; 2144 : 
; 2145 : 	int compare(size_type _Off,
; 2146 : 		size_type _N0, const _Myt& _Right,
; 2147 : 		size_type _Roff, size_type _Count) const
; 2148 : 		{	// compare [_Off, _Off + _N0) with _Right [_Roff, _Roff + _Count)
; 2149 : 		if (_Right.size() < _Roff)
; 2150 : 			_Xran();	// _Off off end
; 2151 : 		if (_Right._Mysize - _Roff < _Count)
; 2152 : 			_Count = _Right._Mysize - _Roff;	// trim _Count to size
; 2153 : 		return (compare(_Off, _N0, _Right._Myptr() + _Roff, _Count));
; 2154 : 		}
; 2155 : 
; 2156 : 	int compare(const _Elem *_Ptr) const
; 2157 : 		{	// compare [0, _Mysize) with [_Ptr, <null>)
; 2158 : 		_DEBUG_POINTER(_Ptr);
; 2159 : 		return (compare(0, this->_Mysize, _Ptr, _Traits::length(_Ptr)));
; 2160 : 		}
; 2161 : 
; 2162 : 	int compare(size_type _Off, size_type _N0, const _Elem *_Ptr) const
; 2163 : 		{	// compare [_Off, _Off + _N0) with [_Ptr, <null>)
; 2164 : 		_DEBUG_POINTER(_Ptr);
; 2165 : 		return (compare(_Off, _N0, _Ptr, _Traits::length(_Ptr)));
; 2166 : 		}
; 2167 : 
; 2168 : 	int compare(size_type _Off,
; 2169 : 		size_type _N0, const _Elem *_Ptr, size_type _Count) const
; 2170 : 		{	// compare [_Off, _Off + _N0) with [_Ptr, _Ptr + _Count)
; 2171 :  #if _ITERATOR_DEBUG_LEVEL == 2
; 2172 : 		if (_Count != 0)
; 2173 : 			_DEBUG_POINTER(_Ptr);
; 2174 :  #endif /* _ITERATOR_DEBUG_LEVEL == 2 */
; 2175 : 
; 2176 : 		if (this->_Mysize < _Off)
; 2177 : 			_Xran();	// _Off off end
; 2178 : 		if (this->_Mysize - _Off < _N0)
; 2179 : 			_N0 = this->_Mysize - _Off;	// trim _N0 to size
; 2180 : 
; 2181 : 		size_type _Ans = _Traits::compare(this->_Myptr() + _Off, _Ptr,
; 2182 : 			_N0 < _Count ? _N0 : _Count);
; 2183 : 		return (_Ans != 0 ? (int)_Ans : _N0 < _Count ? -1
; 2184 : 			: _N0 == _Count ? 0 : +1);
; 2185 : 		}
; 2186 : 
; 2187 : 	allocator_type get_allocator() const _NOEXCEPT
; 2188 : 		{	// return allocator object for values
; 2189 : 		return (this->_Getal());
; 2190 : 		}
; 2191 : 
; 2192 : 	void _Chassign(size_type _Off, size_type _Count, _Elem _Ch)
; 2193 : 		{	// assign _Count copies of _Ch beginning at _Off
; 2194 : 		if (_Count == 1)
; 2195 : 			_Traits::assign(*(this->_Myptr() + _Off), _Ch);
; 2196 : 		else
; 2197 : 			_Traits::assign(this->_Myptr() + _Off, _Count, _Ch);
; 2198 : 		}
; 2199 : 
; 2200 : 	void _Copy(size_type _Newsize, size_type _Oldlen)
; 2201 : 		{	// copy _Oldlen elements to newly allocated buffer
; 2202 : 		size_type _Newres = _Newsize | this->_ALLOC_MASK;
; 2203 : 		if (max_size() < _Newres)
; 2204 : 			_Newres = _Newsize;	// undo roundup if too big
; 2205 : 		else if (this->_Myres / 2 <= _Newres / 3)
; 2206 : 			;
; 2207 : 		else if (this->_Myres <= max_size() - this->_Myres / 2)
; 2208 : 			_Newres = this->_Myres
; 2209 : 				+ this->_Myres / 2;	// grow exponentially if possible
; 2210 : 		else
; 2211 : 			_Newres = max_size();	// settle for max_size()
; 2212 : 
; 2213 : 		_Elem *_Ptr;
; 2214 : 		_TRY_BEGIN
; 2215 : 			_Ptr = this->_Getal().allocate(_Newres + 1);
; 2216 : 		_CATCH_ALL
; 2217 : 			_Newres = _Newsize;	// allocation failed, undo roundup and retry
; 2218 : 			_TRY_BEGIN
; 2219 : 				_Ptr = this->_Getal().allocate(_Newres + 1);
; 2220 : 			_CATCH_ALL
; 2221 : 			_Tidy(true);	// failed again, discard storage and reraise
; 2222 : 			_RERAISE;
; 2223 : 			_CATCH_END
; 2224 : 		_CATCH_END
; 2225 : 
; 2226 : 		if (0 < _Oldlen)
; 2227 : 			_Traits::copy(_Ptr, this->_Myptr(),
; 2228 : 				_Oldlen);	// copy existing elements
; 2229 : 		_Tidy(true);
; 2230 : 		this->_Getal().construct(&this->_Bx._Ptr, _Ptr);
; 2231 : 		this->_Myres = _Newres;
; 2232 : 		_Eos(_Oldlen);
; 2233 : 		}
; 2234 : 
; 2235 : 	void _Eos(size_type _Newsize)
; 2236 : 		{	// set new length and null terminator
; 2237 : 		_Traits::assign(this->_Myptr()[this->_Mysize = _Newsize], _Elem());

  001c4	c7 46 10 00 00
	00 00		 mov	 DWORD PTR [esi+16], 0
; File c:\program files (x86)\microsoft visual studio 12.0\vc\include\iosfwd

; 564  : 		_Left = _Right;

  001cb	c6 06 00	 mov	 BYTE PTR [esi], 0
$LN302@SplitToken:
; File c:\program files (x86)\microsoft visual studio 12.0\vc\include\vector

; 883  : 			++this->_Mylast;

  001ce	83 47 04 18	 add	 DWORD PTR [edi+4], 24	; 00000018H
; File d:\metin2\metin2\client_source_clean\client_source_clean\source\userinterface\pythonnetworkstreamcommand.cpp

; 122  : 		pstTokenVector->push_back(strLine.substr(beginPos, endPos - beginPos));

  001d2	c6 45 fc 01	 mov	 BYTE PTR __$EHRec$[ebp+8], 1
; File c:\program files (x86)\microsoft visual studio 12.0\vc\include\xstring

; 2275 : 		else if (this->_BUF_SIZE <= this->_Myres)

  001d6	83 7d d0 10	 cmp	 DWORD PTR $T4[ebp+20], 16 ; 00000010H
  001da	72 0b		 jb	 SHORT $LN424@SplitToken
; File c:\program files (x86)\microsoft visual studio 12.0\vc\include\xmemory0

; 573  : 		::operator delete(_Ptr);

  001dc	ff 75 bc	 push	 DWORD PTR $T4[ebp]
  001df	e8 00 00 00 00	 call	 ??3@YAXPAX@Z		; operator delete
  001e4	83 c4 04	 add	 esp, 4
$LN424@SplitToken:
; File c:\program files (x86)\microsoft visual studio 12.0\vc\include\xstring

; 2080 : 		return (find_first_not_of(_Ptr, _Off, _Traits::length(_Ptr)));

  001e7	8b 5d 9c	 mov	 ebx, DWORD PTR _basePos$1$[ebp]
  001ea	8d 4d d4	 lea	 ecx, DWORD PTR _strLine$[ebp]
  001ed	6a 01		 push	 1
  001ef	53		 push	 ebx
  001f0	68 00 00 00 00	 push	 OFFSET ??_C@_01CLKCMJKC@?5?$AA@
  001f5	e8 00 00 00 00	 call	 ?find_first_not_of@?$basic_string@DU?$char_traits@D@std@@V?$allocator@D@2@@std@@QBEIPBDII@Z ; std::basic_string<char,std::char_traits<char>,std::allocator<char> >::find_first_not_of
; File d:\metin2\metin2\client_source_clean\client_source_clean\source\userinterface\pythonnetworkstreamcommand.cpp

; 125  : 		if (int(strLine.find_first_not_of(c_szDelimeter, basePos)) < 0)

  001fa	85 c0		 test	 eax, eax
  001fc	78 09		 js	 SHORT $LN6@SplitToken

; 126  : 			break;
; 127  : 	} while (basePos < strLine.length());

  001fe	3b 5d e4	 cmp	 ebx, DWORD PTR _strLine$[ebp+16]
  00201	0f 82 b9 fe ff
	ff		 jb	 $LL8@SplitToken
$LN6@SplitToken:

; 129  : 	return true;

  00207	b3 01		 mov	 bl, 1
  00209	eb 02		 jmp	 SHORT $LN15@SplitToken
$LN510@SplitToken:
  0020b	32 db		 xor	 bl, bl
$LN15@SplitToken:
; File c:\program files (x86)\microsoft visual studio 12.0\vc\include\xstring

; 2275 : 		else if (this->_BUF_SIZE <= this->_Myres)

  0020d	83 7d e8 10	 cmp	 DWORD PTR _strLine$[ebp+20], 16 ; 00000010H
  00211	72 0b		 jb	 SHORT $LN516@SplitToken
; File c:\program files (x86)\microsoft visual studio 12.0\vc\include\xmemory0

; 573  : 		::operator delete(_Ptr);

  00213	ff 75 d4	 push	 DWORD PTR _strLine$[ebp]
  00216	e8 00 00 00 00	 call	 ??3@YAXPAX@Z		; operator delete
  0021b	83 c4 04	 add	 esp, 4
$LN516@SplitToken:
; File d:\metin2\metin2\client_source_clean\client_source_clean\source\userinterface\pythonnetworkstreamcommand.cpp

; 129  : 	return true;

  0021e	8a c3		 mov	 al, bl

; 130  : }

  00220	8b 4d f4	 mov	 ecx, DWORD PTR __$EHRec$[ebp]
  00223	64 89 0d 00 00
	00 00		 mov	 DWORD PTR fs:0, ecx
  0022a	59		 pop	 ecx
  0022b	5f		 pop	 edi
  0022c	5e		 pop	 esi
  0022d	5b		 pop	 ebx
  0022e	8b 4d ec	 mov	 ecx, DWORD PTR __$ArrayPad$[ebp]
  00231	33 cd		 xor	 ecx, ebp
  00233	e8 00 00 00 00	 call	 @__security_check_cookie@4
  00238	8b e5		 mov	 esp, ebp
  0023a	5d		 pop	 ebp
  0023b	c3		 ret	 0
_TEXT	ENDS
;	COMDAT text$x
text$x	SEGMENT
__unwindfunclet$?SplitToken@@YA_NPBDPAV?$vector@V?$basic_string@DU?$char_traits@D@std@@V?$allocator@D@2@@std@@V?$allocator@V?$basic_string@DU?$char_traits@D@std@@V?$allocator@D@2@@std@@@2@@std@@0@Z$0:
  00000	8d 4d a4	 lea	 ecx, DWORD PTR _stToken$[ebp]
  00003	e9 00 00 00 00	 jmp	 ??1?$basic_string@DU?$char_traits@D@std@@V?$allocator@D@2@@std@@QAE@XZ ; std::basic_string<char,std::char_traits<char>,std::allocator<char> >::~basic_string<char,std::char_traits<char>,std::allocator<char> >
__unwindfunclet$?SplitToken@@YA_NPBDPAV?$vector@V?$basic_string@DU?$char_traits@D@std@@V?$allocator@D@2@@std@@V?$allocator@V?$basic_string@DU?$char_traits@D@std@@V?$allocator@D@2@@std@@@2@@std@@0@Z$1:
  00008	8d 4d d4	 lea	 ecx, DWORD PTR _strLine$[ebp]
  0000b	e9 00 00 00 00	 jmp	 ??1?$basic_string@DU?$char_traits@D@std@@V?$allocator@D@2@@std@@QAE@XZ ; std::basic_string<char,std::char_traits<char>,std::allocator<char> >::~basic_string<char,std::char_traits<char>,std::allocator<char> >
__unwindfunclet$?SplitToken@@YA_NPBDPAV?$vector@V?$basic_string@DU?$char_traits@D@std@@V?$allocator@D@2@@std@@V?$allocator@V?$basic_string@DU?$char_traits@D@std@@V?$allocator@D@2@@std@@@2@@std@@0@Z$2:
  00010	8d 4d bc	 lea	 ecx, DWORD PTR $T4[ebp]
  00013	e9 00 00 00 00	 jmp	 ??1?$basic_string@DU?$char_traits@D@std@@V?$allocator@D@2@@std@@QAE@XZ ; std::basic_string<char,std::char_traits<char>,std::allocator<char> >::~basic_string<char,std::char_traits<char>,std::allocator<char> >
__ehhandler$?SplitToken@@YA_NPBDPAV?$vector@V?$basic_string@DU?$char_traits@D@std@@V?$allocator@D@2@@std@@V?$allocator@V?$basic_string@DU?$char_traits@D@std@@V?$allocator@D@2@@std@@@2@@std@@0@Z:
  00018	8b 54 24 08	 mov	 edx, DWORD PTR [esp+8]
  0001c	8d 42 0c	 lea	 eax, DWORD PTR [edx+12]
  0001f	8b 4a 98	 mov	 ecx, DWORD PTR [edx-104]
  00022	33 c8		 xor	 ecx, eax
  00024	e8 00 00 00 00	 call	 @__security_check_cookie@4
  00029	8b 4a f8	 mov	 ecx, DWORD PTR [edx-8]
  0002c	33 c8		 xor	 ecx, eax
  0002e	e8 00 00 00 00	 call	 @__security_check_cookie@4
  00033	b8 00 00 00 00	 mov	 eax, OFFSET __ehfuncinfo$?SplitToken@@YA_NPBDPAV?$vector@V?$basic_string@DU?$char_traits@D@std@@V?$allocator@D@2@@std@@V?$allocator@V?$basic_string@DU?$char_traits@D@std@@V?$allocator@D@2@@std@@@2@@std@@0@Z
  00038	e9 00 00 00 00	 jmp	 ___CxxFrameHandler3
text$x	ENDS
?SplitToken@@YA_NPBDPAV?$vector@V?$basic_string@DU?$char_traits@D@std@@V?$allocator@D@2@@std@@V?$allocator@V?$basic_string@DU?$char_traits@D@std@@V?$allocator@D@2@@std@@@2@@std@@0@Z ENDP ; SplitToken
; Function compile flags: /Ogtp
; File d:\metin2\metin2\client_source_clean\client_source_clean\source\userinterface\pythonnetworkstreamcommand.cpp
; File c:\program files (x86)\microsoft visual studio 12.0\vc\include\vector
; File d:\metin2\metin2\client_source_clean\client_source_clean\source\userinterface\pythonnetworkstreamcommand.cpp
; File c:\program files (x86)\microsoft visual studio 12.0\vc\include\vector
; File d:\metin2\metin2\client_source_clean\client_source_clean\source\userinterface\pythonnetworkstreamcommand.cpp
; File c:\program files (x86)\microsoft visual studio 12.0\vc\include\xstring
; File c:\program files (x86)\microsoft visual studio 12.0\vc\include\xstddef
; File c:\program files (x86)\microsoft visual studio 12.0\vc\include\xstring
; File d:\metin2\metin2\client_source_clean\client_source_clean\source\userinterface\pythonnetworkstreamcommand.cpp
; File c:\program files (x86)\microsoft visual studio 12.0\vc\include\vector
; File d:\metin2\metin2\client_source_clean\client_source_clean\source\userinterface\pythonnetworkstreamcommand.cpp
; File c:\program files (x86)\microsoft visual studio 12.0\vc\include\vector
; File d:\metin2\metin2\client_source_clean\client_source_clean\source\userinterface\pythonnetworkstreamcommand.cpp
; File c:\program files (x86)\microsoft visual studio 12.0\vc\include\vector
; File d:\metin2\metin2\client_source_clean\client_source_clean\source\userinterface\pythonnetworkstreamcommand.cpp
; File c:\program files (x86)\microsoft visual studio 12.0\vc\include\xstring
; File c:\program files (x86)\microsoft visual studio 12.0\vc\include\vector
; File c:\program files (x86)\microsoft visual studio 12.0\vc\include\xstring
; File c:\program files (x86)\microsoft visual studio 12.0\vc\include\xstddef
; File d:\metin2\metin2\client_source_clean\client_source_clean\source\userinterface\pythonnetworkstreamcommand.cpp
; File c:\program files (x86)\microsoft visual studio 12.0\vc\include\xstring
; File c:\program files (x86)\microsoft visual studio 12.0\vc\include\vector
; File c:\program files (x86)\microsoft visual studio 12.0\vc\include\xstring
; File c:\program files (x86)\microsoft visual studio 12.0\vc\include\xstddef
; File d:\metin2\metin2\client_source_clean\client_source_clean\source\userinterface\pythonnetworkstreamcommand.cpp
; File c:\program files (x86)\microsoft visual studio 12.0\vc\include\vector
; File d:\metin2\metin2\client_source_clean\client_source_clean\source\userinterface\pythonnetworkstreamcommand.cpp
; File c:\program files (x86)\microsoft visual studio 12.0\vc\include\xstring
; File d:\metin2\metin2\client_source_clean\client_source_clean\source\userinterface\pythonnetworkstreamcommand.cpp
; File c:\program files (x86)\microsoft visual studio 12.0\vc\include\xstring
; File c:\program files (x86)\microsoft visual studio 12.0\vc\include\xstddef
; File d:\metin2\metin2\client_source_clean\client_source_clean\source\userinterface\pythonnetworkstreamcommand.cpp
; File c:\program files (x86)\microsoft visual studio 12.0\vc\include\vector
; File d:\metin2\metin2\client_source_clean\client_source_clean\source\userinterface\pythonnetworkstreamcommand.cpp
; File c:\program files (x86)\microsoft visual studio 12.0\vc\include\xstring
; File d:\metin2\metin2\client_source_clean\client_source_clean\source\userinterface\pythonnetworkstreamcommand.cpp
; File c:\program files (x86)\microsoft visual studio 12.0\vc\include\xstring
; File c:\program files (x86)\microsoft visual studio 12.0\vc\include\xstddef
; File d:\metin2\metin2\client_source_clean\client_source_clean\source\userinterface\pythonnetworkstreamcommand.cpp
; File c:\program files (x86)\microsoft visual studio 12.0\vc\include\xstring
; File c:\program files (x86)\microsoft visual studio 12.0\vc\include\vector
; File c:\program files (x86)\microsoft visual studio 12.0\vc\include\xstring
; File c:\program files (x86)\microsoft visual studio 12.0\vc\include\xstddef
; File d:\metin2\metin2\client_source_clean\client_source_clean\source\userinterface\pythonnetworkstreamcommand.cpp
; File c:\program files (x86)\microsoft visual studio 12.0\vc\include\vector
; File d:\metin2\metin2\client_source_clean\client_source_clean\source\userinterface\pythonnetworkstreamcommand.cpp
; File c:\program files (x86)\microsoft visual studio 12.0\vc\include\xstring
; File d:\metin2\metin2\client_source_clean\client_source_clean\source\userinterface\pythonnetworkstreamcommand.cpp
; File c:\program files (x86)\microsoft visual studio 12.0\vc\include\xstring
; File c:\program files (x86)\microsoft visual studio 12.0\vc\include\xstddef
; File d:\metin2\metin2\client_source_clean\client_source_clean\source\userinterface\pythonnetworkstreamcommand.cpp
; File c:\program files (x86)\microsoft visual studio 12.0\vc\include\xstring
; File c:\program files (x86)\microsoft visual studio 12.0\vc\include\vector
; File c:\program files (x86)\microsoft visual studio 12.0\vc\include\xstring
; File c:\program files (x86)\microsoft visual studio 12.0\vc\include\xstddef
; File d:\metin2\metin2\client_source_clean\client_source_clean\source\userinterface\pythonnetworkstreamcommand.cpp
; File c:\program files (x86)\microsoft visual studio 12.0\vc\include\vector
; File d:\metin2\metin2\client_source_clean\client_source_clean\source\userinterface\pythonnetworkstreamcommand.cpp
; File c:\program files (x86)\microsoft visual studio 12.0\vc\include\xstring
; File c:\program files (x86)\microsoft visual studio 12.0\vc\include\xstddef
; File d:\metin2\metin2\client_source_clean\client_source_clean\source\userinterface\pythonnetworkstreamcommand.cpp
; File c:\program files (x86)\microsoft visual studio 12.0\vc\include\xstring
; File c:\program files (x86)\microsoft visual studio 12.0\vc\include\vector
; File c:\program files (x86)\microsoft visual studio 12.0\vc\include\xstring
; File c:\program files (x86)\microsoft visual studio 12.0\vc\include\xstddef
; File d:\metin2\metin2\client_source_clean\client_source_clean\source\userinterface\pythonnetworkstreamcommand.cpp
; File c:\program files (x86)\microsoft visual studio 12.0\vc\include\vector
; File d:\metin2\metin2\client_source_clean\client_source_clean\source\userinterface\pythonnetworkstreamcommand.cpp
; File c:\program files (x86)\microsoft visual studio 12.0\vc\include\xstring
; File d:\metin2\metin2\client_source_clean\client_source_clean\source\userinterface\pythonnetworkstreamcommand.cpp
; File c:\program files (x86)\microsoft visual studio 12.0\vc\include\xstring
; File c:\program files (x86)\microsoft visual studio 12.0\vc\include\xstddef
; File d:\metin2\metin2\client_source_clean\client_source_clean\source\userinterface\pythonnetworkstreamcommand.cpp
; File c:\program files (x86)\microsoft visual studio 12.0\vc\include\vector
; File d:\metin2\metin2\client_source_clean\client_source_clean\source\userinterface\pythonnetworkstreamcommand.cpp
; File c:\program files (x86)\microsoft visual studio 12.0\vc\include\xstring
; File c:\program files (x86)\microsoft visual studio 12.0\vc\include\xstddef
; File d:\metin2\metin2\client_source_clean\client_source_clean\source\userinterface\pythonnetworkstreamcommand.cpp
; File c:\program files (x86)\microsoft visual studio 12.0\vc\include\vector
; File d:\metin2\metin2\client_source_clean\client_source_clean\source\userinterface\pythonnetworkstreamcommand.cpp
; File c:\program files (x86)\microsoft visual studio 12.0\vc\include\xstring
; File c:\program files (x86)\microsoft visual studio 12.0\vc\include\vector
; File c:\program files (x86)\microsoft visual studio 12.0\vc\include\xstring
; File c:\program files (x86)\microsoft visual studio 12.0\vc\include\xstddef
; File d:\metin2\metin2\client_source_clean\client_source_clean\source\userinterface\pythonnetworkstreamcommand.cpp
; File c:\program files (x86)\microsoft visual studio 12.0\vc\include\vector
; File d:\metin2\metin2\client_source_clean\client_source_clean\source\userinterface\pythonnetworkstreamcommand.cpp
; File c:\program files (x86)\microsoft visual studio 12.0\vc\include\xstring
; File c:\program files (x86)\microsoft visual studio 12.0\vc\include\vector
; File c:\program files (x86)\microsoft visual studio 12.0\vc\include\xstring
; File c:\program files (x86)\microsoft visual studio 12.0\vc\include\xstddef
; File d:\metin2\metin2\client_source_clean\client_source_clean\source\userinterface\pythonnetworkstreamcommand.cpp
; File c:\program files (x86)\microsoft visual studio 12.0\vc\include\vector
; File d:\metin2\metin2\client_source_clean\client_source_clean\source\userinterface\pythonnetworkstreamcommand.cpp
; File c:\program files (x86)\microsoft visual studio 12.0\vc\include\xstring
; File c:\program files (x86)\microsoft visual studio 12.0\vc\include\vector
; File c:\program files (x86)\microsoft visual studio 12.0\vc\include\xstring
; File c:\program files (x86)\microsoft visual studio 12.0\vc\include\xstddef
; File d:\metin2\metin2\client_source_clean\client_source_clean\source\userinterface\pythonnetworkstreamcommand.cpp
; File c:\program files (x86)\microsoft visual studio 12.0\vc\include\vector
; File d:\metin2\metin2\client_source_clean\client_source_clean\source\userinterface\pythonnetworkstreamcommand.cpp
; File c:\program files (x86)\microsoft visual studio 12.0\vc\include\xstring
; File c:\program files (x86)\microsoft visual studio 12.0\vc\include\xstddef
; File d:\metin2\metin2\client_source_clean\client_source_clean\source\userinterface\pythonnetworkstreamcommand.cpp
; File c:\program files (x86)\microsoft visual studio 12.0\vc\include\vector
; File d:\metin2\metin2\client_source_clean\client_source_clean\source\userinterface\pythonnetworkstreamcommand.cpp
; File c:\program files (x86)\microsoft visual studio 12.0\vc\include\xstring
; File c:\program files (x86)\microsoft visual studio 12.0\vc\include\xstddef
; File c:\program files (x86)\microsoft visual studio 12.0\vc\include\xstring
; File d:\metin2\metin2\client_source_clean\client_source_clean\source\userinterface\pythonnetworkstreamcommand.cpp
; File c:\program files (x86)\microsoft visual studio 12.0\vc\include\math.h
; File c:\program files (x86)\microsoft visual studio 12.0\vc\include\xstring
; File c:\program files (x86)\microsoft visual studio 12.0\vc\include\math.h
; File c:\program files (x86)\microsoft visual studio 12.0\vc\include\xstring
; File c:\program files (x86)\microsoft visual studio 12.0\vc\include\xstddef
; File d:\metin2\metin2\client_source_clean\client_source_clean\source\userinterface\pythonnetworkstreamcommand.cpp
; File d:\metin2\metin2\client_source_clean\client_source_clean\extern\include\d3dx8math.inl
; File d:\metin2\metin2\client_source_clean\client_source_clean\source\userinterface\pythonnetworkstreamcommand.cpp
; File d:\metin2\metin2\client_source_clean\client_source_clean\extern\include\d3dx8math.inl
; File d:\metin2\metin2\client_source_clean\client_source_clean\source\userinterface\pythonnetworkstreamcommand.cpp
; File c:\program files (x86)\microsoft visual studio 12.0\vc\include\vector
; File d:\metin2\metin2\client_source_clean\client_source_clean\source\userinterface\pythonnetworkstreamcommand.cpp
; File c:\program files (x86)\microsoft visual studio 12.0\vc\include\xstring
; File c:\program files (x86)\microsoft visual studio 12.0\vc\include\vector
; File c:\program files (x86)\microsoft visual studio 12.0\vc\include\xstring
; File c:\program files (x86)\microsoft visual studio 12.0\vc\include\xstddef
; File d:\metin2\metin2\client_source_clean\client_source_clean\source\userinterface\pythonnetworkstreamcommand.cpp
; File c:\program files (x86)\microsoft visual studio 12.0\vc\include\vector
; File d:\metin2\metin2\client_source_clean\client_source_clean\source\userinterface\pythonnetworkstreamcommand.cpp
; File c:\program files (x86)\microsoft visual studio 12.0\vc\include\xstring
; File d:\metin2\metin2\client_source_clean\client_source_clean\source\userinterface\pythonnetworkstreamcommand.cpp
; File c:\program files (x86)\microsoft visual studio 12.0\vc\include\xstring
; File c:\program files (x86)\microsoft visual studio 12.0\vc\include\xstddef
; File d:\metin2\metin2\client_source_clean\client_source_clean\source\userinterface\pythonnetworkstreamcommand.cpp
; File c:\program files (x86)\microsoft visual studio 12.0\vc\include\vector
; File d:\metin2\metin2\client_source_clean\client_source_clean\source\userinterface\pythonnetworkstreamcommand.cpp
; File c:\program files (x86)\microsoft visual studio 12.0\vc\include\xstring
; File c:\program files (x86)\microsoft visual studio 12.0\vc\include\vector
; File c:\program files (x86)\microsoft visual studio 12.0\vc\include\xstring
; File c:\program files (x86)\microsoft visual studio 12.0\vc\include\xstddef
; File d:\metin2\metin2\client_source_clean\client_source_clean\source\userinterface\pythonnetworkstreamcommand.cpp
; File c:\program files (x86)\microsoft visual studio 12.0\vc\include\xstring
; File c:\program files (x86)\microsoft visual studio 12.0\vc\include\vector
; File c:\program files (x86)\microsoft visual studio 12.0\vc\include\xstring
; File c:\program files (x86)\microsoft visual studio 12.0\vc\include\xstddef
; File d:\metin2\metin2\client_source_clean\client_source_clean\source\userinterface\pythonnetworkstreamcommand.cpp
; File c:\program files (x86)\microsoft visual studio 12.0\vc\include\xstring
; File d:\metin2\metin2\client_source_clean\client_source_clean\source\userinterface\pythonnetworkstreamcommand.cpp
; File c:\program files (x86)\microsoft visual studio 12.0\vc\include\xstring
; File c:\program files (x86)\microsoft visual studio 12.0\vc\include\vector
; File c:\program files (x86)\microsoft visual studio 12.0\vc\include\xstring
; File c:\program files (x86)\microsoft visual studio 12.0\vc\include\xstddef
; File d:\metin2\metin2\client_source_clean\client_source_clean\source\userinterface\pythonnetworkstreamcommand.cpp
; File c:\program files (x86)\microsoft visual studio 12.0\vc\include\xstring
; File c:\program files (x86)\microsoft visual studio 12.0\vc\include\vector
; File c:\program files (x86)\microsoft visual studio 12.0\vc\include\xstring
; File c:\program files (x86)\microsoft visual studio 12.0\vc\include\xstddef
; File d:\metin2\metin2\client_source_clean\client_source_clean\source\userinterface\pythonnetworkstreamcommand.cpp
; File c:\program files (x86)\microsoft visual studio 12.0\vc\include\xstring
; File c:\program files (x86)\microsoft visual studio 12.0\vc\include\vector
; File c:\program files (x86)\microsoft visual studio 12.0\vc\include\xstring
; File c:\program files (x86)\microsoft visual studio 12.0\vc\include\xstddef
; File d:\metin2\metin2\client_source_clean\client_source_clean\source\userinterface\pythonnetworkstreamcommand.cpp
; File c:\program files (x86)\microsoft visual studio 12.0\vc\include\vector
; File d:\metin2\metin2\client_source_clean\client_source_clean\source\userinterface\pythonnetworkstreamcommand.cpp
; File c:\program files (x86)\microsoft visual studio 12.0\vc\include\xstring
; File c:\program files (x86)\microsoft visual studio 12.0\vc\include\xstddef
; File d:\metin2\metin2\client_source_clean\client_source_clean\source\userinterface\pythonnetworkstreamcommand.cpp
; File c:\program files (x86)\microsoft visual studio 12.0\vc\include\xstring
; File c:\program files (x86)\microsoft visual studio 12.0\vc\include\vector
; File c:\program files (x86)\microsoft visual studio 12.0\vc\include\xstring
; File c:\program files (x86)\microsoft visual studio 12.0\vc\include\xstddef
; File d:\metin2\metin2\client_source_clean\client_source_clean\source\userinterface\pythonnetworkstreamcommand.cpp
; File c:\program files (x86)\microsoft visual studio 12.0\vc\include\vector
; File d:\metin2\metin2\client_source_clean\client_source_clean\source\userinterface\pythonnetworkstreamcommand.cpp
; File c:\program files (x86)\microsoft visual studio 12.0\vc\include\xstring
; File c:\program files (x86)\microsoft visual studio 12.0\vc\include\xstddef
; File d:\metin2\metin2\client_source_clean\client_source_clean\source\userinterface\pythonnetworkstreamcommand.cpp
; File c:\program files (x86)\microsoft visual studio 12.0\vc\include\xstring
; File c:\program files (x86)\microsoft visual studio 12.0\vc\include\vector
; File c:\program files (x86)\microsoft visual studio 12.0\vc\include\xstring
; File c:\program files (x86)\microsoft visual studio 12.0\vc\include\xstddef
; File d:\metin2\metin2\client_source_clean\client_source_clean\source\userinterface\pythonnetworkstreamcommand.cpp
; File c:\program files (x86)\microsoft visual studio 12.0\vc\include\vector
; File d:\metin2\metin2\client_source_clean\client_source_clean\source\userinterface\pythonnetworkstreamcommand.cpp
; File c:\program files (x86)\microsoft visual studio 12.0\vc\include\xstring
; File c:\program files (x86)\microsoft visual studio 12.0\vc\include\xstddef
; File d:\metin2\metin2\client_source_clean\client_source_clean\source\userinterface\pythonnetworkstreamcommand.cpp
; File c:\program files (x86)\microsoft visual studio 12.0\vc\include\xstring
; File c:\program files (x86)\microsoft visual studio 12.0\vc\include\vector
; File c:\program files (x86)\microsoft visual studio 12.0\vc\include\xstring
; File c:\program files (x86)\microsoft visual studio 12.0\vc\include\xstddef
; File d:\metin2\metin2\client_source_clean\client_source_clean\source\userinterface\pythonnetworkstreamcommand.cpp
; File c:\program files (x86)\microsoft visual studio 12.0\vc\include\xstring
; File c:\program files (x86)\microsoft visual studio 12.0\vc\include\vector
; File c:\program files (x86)\microsoft visual studio 12.0\vc\include\xstring
; File c:\program files (x86)\microsoft visual studio 12.0\vc\include\xstddef
; File d:\metin2\metin2\client_source_clean\client_source_clean\source\userinterface\pythonnetworkstreamcommand.cpp
; File c:\program files (x86)\microsoft visual studio 12.0\vc\include\xstring
; File c:\program files (x86)\microsoft visual studio 12.0\vc\include\vector
; File c:\program files (x86)\microsoft visual studio 12.0\vc\include\xstring
; File c:\program files (x86)\microsoft visual studio 12.0\vc\include\xstddef
; File d:\metin2\metin2\client_source_clean\client_source_clean\source\userinterface\pythonnetworkstreamcommand.cpp
; File c:\program files (x86)\microsoft visual studio 12.0\vc\include\xstring
; File c:\program files (x86)\microsoft visual studio 12.0\vc\include\vector
; File c:\program files (x86)\microsoft visual studio 12.0\vc\include\xstring
; File c:\program files (x86)\microsoft visual studio 12.0\vc\include\xstddef
; File d:\metin2\metin2\client_source_clean\client_source_clean\source\userinterface\pythonnetworkstreamcommand.cpp
; File c:\program files (x86)\microsoft visual studio 12.0\vc\include\xstring
; File c:\program files (x86)\microsoft visual studio 12.0\vc\include\vector
; File c:\program files (x86)\microsoft visual studio 12.0\vc\include\xstring
; File c:\program files (x86)\microsoft visual studio 12.0\vc\include\xstddef
; File d:\metin2\metin2\client_source_clean\client_source_clean\source\userinterface\pythonnetworkstreamcommand.cpp
; File c:\program files (x86)\microsoft visual studio 12.0\vc\include\xstring
; File c:\program files (x86)\microsoft visual studio 12.0\vc\include\vector
; File c:\program files (x86)\microsoft visual studio 12.0\vc\include\xstring
; File c:\program files (x86)\microsoft visual studio 12.0\vc\include\xstddef
; File d:\metin2\metin2\client_source_clean\client_source_clean\source\userinterface\pythonnetworkstreamcommand.cpp
; File c:\program files (x86)\microsoft visual studio 12.0\vc\include\xtree
; File d:\metin2\metin2\client_source_clean\client_source_clean\source\userinterface\pythonnetworkstreamcommand.cpp
; File c:\program files (x86)\microsoft visual studio 12.0\vc\include\xtree
; File d:\metin2\metin2\client_source_clean\client_source_clean\source\userinterface\pythonnetworkstreamcommand.cpp
; File c:\program files (x86)\microsoft visual studio 12.0\vc\include\xtree
; File d:\metin2\metin2\client_source_clean\client_source_clean\source\userinterface\pythonnetworkstreamcommand.cpp
; File c:\program files (x86)\microsoft visual studio 12.0\vc\include\xstring
; File d:\metin2\metin2\client_source_clean\client_source_clean\source\userinterface\pythonnetworkstreamcommand.cpp
; File c:\program files (x86)\microsoft visual studio 12.0\vc\include\vector
; File c:\program files (x86)\microsoft visual studio 12.0\vc\include\xstring
; File c:\program files (x86)\microsoft visual studio 12.0\vc\include\xstddef
; File d:\metin2\metin2\client_source_clean\client_source_clean\source\userinterface\pythonnetworkstreamcommand.cpp
; File c:\program files (x86)\microsoft visual studio 12.0\vc\include\vector
; File c:\program files (x86)\microsoft visual studio 12.0\vc\include\xmemory0
; File d:\metin2\metin2\client_source_clean\client_source_clean\source\userinterface\pythonnetworkstreamcommand.cpp
;	COMDAT ?ServerCommand@CPythonNetworkStream@@QAEXPAD@Z
_TEXT	SEGMENT
_byDistance$1$ = -149					; size = 1
__Alval$2 = -149					; size = 1
_isTrue$3 = -149					; size = 1
_isTrue$4 = -149					; size = 1
_TokenVector$ = -148					; size = 12
_pInstance1$1$ = -136					; size = 4
_iVID1$1$ = -136					; size = 4
_pInstance1$1$ = -136					; size = 4
_iVID1$1$ = -136					; size = 4
_pInstance1$1$ = -136					; size = 4
_iVID1$1$ = -136					; size = 4
tv3193 = -136						; size = 4
tv2898 = -136						; size = 4
__Cat$5 = -136						; size = 1
_f$6 = -136						; size = 4
_this$GSCopy$1$ = -132					; size = 4
_dwVID$1$ = -132					; size = 4
tv3185 = -128						; size = 8
$T7 = -116						; size = 24
$T8 = -116						; size = 24
$T9 = -116						; size = 24
$T10 = -116						; size = 24
$T11 = -116						; size = 24
$T12 = -116						; size = 24
$T13 = -116						; size = 24
$T14 = -116						; size = 24
$T15 = -116						; size = 24
$T16 = -116						; size = 24
$T17 = -116						; size = 24
$T18 = -116						; size = 24
$T19 = -116						; size = 24
_$S1$20 = -116						; size = 24
_PixelPosition$21 = -116				; size = 12
$T22 = -92						; size = 24
_v3Rotation$23 = -92					; size = 12
__$ArrayPad$ = -68					; size = 4
__$EHRec$ = -12						; size = 12
_c_szCommand$ = 8					; size = 4
?ServerCommand@CPythonNetworkStream@@QAEXPAD@Z PROC	; CPythonNetworkStream::ServerCommand, COMDAT
; _this$ = ecx

; 133  : {

  00000	55		 push	 ebp
  00001	8b ec		 mov	 ebp, esp
  00003	83 e4 c0	 and	 esp, -64		; ffffffc0H
  00006	6a ff		 push	 -1
  00008	68 00 00 00 00	 push	 __ehhandler$?ServerCommand@CPythonNetworkStream@@QAEXPAD@Z
  0000d	64 a1 00 00 00
	00		 mov	 eax, DWORD PTR fs:0
  00013	50		 push	 eax
  00014	81 ec a8 00 00
	00		 sub	 esp, 168		; 000000a8H
  0001a	a1 00 00 00 00	 mov	 eax, DWORD PTR ___security_cookie
  0001f	33 c4		 xor	 eax, esp
  00021	89 44 24 70	 mov	 DWORD PTR __$ArrayPad$[esp+180], eax
  00025	53		 push	 ebx
  00026	56		 push	 esi
  00027	57		 push	 edi
  00028	a1 00 00 00 00	 mov	 eax, DWORD PTR ___security_cookie
  0002d	33 c4		 xor	 eax, esp
  0002f	50		 push	 eax
  00030	8d 84 24 b8 00
	00 00		 lea	 eax, DWORD PTR __$EHRec$[esp+196]
  00037	64 a3 00 00 00
	00		 mov	 DWORD PTR fs:0, eax
  0003d	8b d9		 mov	 ebx, ecx
  0003f	89 5c 24 40	 mov	 DWORD PTR _this$GSCopy$1$[esp+196], ebx
  00043	8b 7d 08	 mov	 edi, DWORD PTR _c_szCommand$[ebp]

; 134  : 	// #0000811: [M2EU]    
; 135  : 	if (strcmpi(c_szCommand, "ConsoleEnable") == 0)

  00046	68 00 00 00 00	 push	 OFFSET ??_C@_0O@NGPLKLCI@ConsoleEnable?$AA@
  0004b	57		 push	 edi
  0004c	e8 00 00 00 00	 call	 __strcmpi
  00051	83 c4 08	 add	 esp, 8
  00054	85 c0		 test	 eax, eax
  00056	0f 84 2d 11 00
	00		 je	 $LN672@ServerComm

; 136  : 		return;
; 137  : 
; 138  : 	if (m_apoPhaseWnd[PHASE_WINDOW_GAME])

  0005c	83 bb 90 01 00
	00 00		 cmp	 DWORD PTR [ebx+400], 0
  00063	a1 00 00 00 00	 mov	 eax, DWORD PTR __imp__Py_BuildValue
  00068	74 1e		 je	 SHORT $LN106@ServerComm

; 139  : 	{
; 140  : 		bool isTrue;
; 141  : 		if (PyCallClassMemberFunc(m_apoPhaseWnd[PHASE_WINDOW_GAME], 
; 142  : 			"BINARY_ServerCommand_Run", 
; 143  : 			Py_BuildValue("(s)", c_szCommand),
; 144  : 			&isTrue
; 145  : 		))

  0006a	8d 4c 24 2f	 lea	 ecx, DWORD PTR _isTrue$4[esp+196]
  0006e	51		 push	 ecx
  0006f	57		 push	 edi
  00070	68 00 00 00 00	 push	 OFFSET ??_C@_03KJMMOONA@?$CIs?$CJ?$AA@
  00075	ff d0		 call	 eax
  00077	83 c4 08	 add	 esp, 8
  0007a	50		 push	 eax
  0007b	68 00 00 00 00	 push	 OFFSET ??_C@_0BJ@GKNJMEFC@BINARY_ServerCommand_Run?$AA@
  00080	ff b3 90 01 00
	00		 push	 DWORD PTR [ebx+400]

; 146  : 		{
; 147  : 			if (isTrue)
; 148  : 				return;
; 149  : 		}
; 150  : 	}

  00086	eb 25		 jmp	 SHORT $LN708@ServerComm
$LN106@ServerComm:

; 151  : 	else if (m_poSerCommandParserWnd)

  00088	83 bb 98 01 00
	00 00		 cmp	 DWORD PTR [ebx+408], 0
  0008f	74 33		 je	 SHORT $LN100@ServerComm

; 152  : 	{
; 153  : 		bool isTrue;
; 154  : 		if (PyCallClassMemberFunc(m_poSerCommandParserWnd, 
; 155  : 			"BINARY_ServerCommand_Run", 
; 156  : 			Py_BuildValue("(s)", c_szCommand),
; 157  : 			&isTrue
; 158  : 		))

  00091	8d 4c 24 2f	 lea	 ecx, DWORD PTR _isTrue$3[esp+196]
  00095	51		 push	 ecx
  00096	57		 push	 edi
  00097	68 00 00 00 00	 push	 OFFSET ??_C@_03KJMMOONA@?$CIs?$CJ?$AA@
  0009c	ff d0		 call	 eax
  0009e	83 c4 08	 add	 esp, 8
  000a1	50		 push	 eax
  000a2	68 00 00 00 00	 push	 OFFSET ??_C@_0BJ@GKNJMEFC@BINARY_ServerCommand_Run?$AA@
  000a7	ff b3 98 01 00
	00		 push	 DWORD PTR [ebx+408]
$LN708@ServerComm:
  000ad	e8 00 00 00 00	 call	 ?PyCallClassMemberFunc@@YA_NPAU_object@@PBD0PA_N@Z ; PyCallClassMemberFunc
  000b2	83 c4 10	 add	 esp, 16			; 00000010H
  000b5	84 c0		 test	 al, al
  000b7	74 0b		 je	 SHORT $LN100@ServerComm

; 159  : 		{
; 160  : 			if (isTrue)

  000b9	80 7c 24 2f 00	 cmp	 BYTE PTR _isTrue$3[esp+196], 0
  000be	0f 85 c5 10 00
	00		 jne	 $LN672@ServerComm
$LN100@ServerComm:
; File c:\program files (x86)\microsoft visual studio 12.0\vc\include\vector

; 482  : 		_Myfirst = pointer();

  000c4	c7 44 24 30 00
	00 00 00	 mov	 DWORD PTR _TokenVector$[esp+196], 0

; 483  : 		_Mylast = pointer();

  000cc	c7 44 24 34 00
	00 00 00	 mov	 DWORD PTR _TokenVector$[esp+200], 0

; 484  : 		_Myend = pointer();

  000d4	c7 44 24 38 00
	00 00 00	 mov	 DWORD PTR _TokenVector$[esp+204], 0
; File d:\metin2\metin2\client_source_clean\client_source_clean\source\userinterface\pythonnetworkstreamcommand.cpp

; 166  : 	if (!SplitToken(c_szCommand, &TokenVector))

  000dc	51		 push	 ecx
  000dd	8d 54 24 34	 lea	 edx, DWORD PTR _TokenVector$[esp+200]
  000e1	c7 84 24 c4 00
	00 00 00 00 00
	00		 mov	 DWORD PTR __$EHRec$[esp+208], 0
  000ec	8b cf		 mov	 ecx, edi
  000ee	e8 00 00 00 00	 call	 ?SplitToken@@YA_NPBDPAV?$vector@V?$basic_string@DU?$char_traits@D@std@@V?$allocator@D@2@@std@@V?$allocator@V?$basic_string@DU?$char_traits@D@std@@V?$allocator@D@2@@std@@@2@@std@@0@Z ; SplitToken
  000f3	8b 5c 24 34	 mov	 ebx, DWORD PTR _TokenVector$[esp+200]
  000f7	83 c4 04	 add	 esp, 4
  000fa	84 c0		 test	 al, al
  000fc	8b 44 24 34	 mov	 eax, DWORD PTR _TokenVector$[esp+200]
  00100	0f 84 66 10 00
	00		 je	 $LN1@ServerComm
; File c:\program files (x86)\microsoft visual studio 12.0\vc\include\vector

; 1158 : 		return (this->_Myfirst == this->_Mylast);

  00106	3b d8		 cmp	 ebx, eax
; File d:\metin2\metin2\client_source_clean\client_source_clean\source\userinterface\pythonnetworkstreamcommand.cpp

; 168  : 	if (TokenVector.empty())

  00108	0f 84 5e 10 00
	00		 je	 $LN1@ServerComm
; File c:\program files (x86)\microsoft visual studio 12.0\vc\include\xstring

; 520  : 			: this->_Bx._Buf);

  0010e	83 7b 14 10	 cmp	 DWORD PTR [ebx+20], 16	; 00000010H
  00112	72 04		 jb	 SHORT $LN158@ServerComm
; File c:\program files (x86)\microsoft visual studio 12.0\vc\include\xstddef

; 95   : 		reinterpret_cast<const volatile char&>(_Val)))));

  00114	8b 33		 mov	 esi, DWORD PTR [ebx]
; File c:\program files (x86)\microsoft visual studio 12.0\vc\include\xstring

; 520  : 			: this->_Bx._Buf);

  00116	eb 02		 jmp	 SHORT $LN159@ServerComm
$LN158@ServerComm:
  00118	8b f3		 mov	 esi, ebx
$LN159@ServerComm:
; File d:\metin2\metin2\client_source_clean\client_source_clean\source\userinterface\pythonnetworkstreamcommand.cpp

; 173  : 	if (!strcmpi(szCmd, "quit"))

  0011a	68 00 00 00 00	 push	 OFFSET ??_C@_04KNNLNNGO@quit?$AA@
  0011f	56		 push	 esi
  00120	e8 00 00 00 00	 call	 __strcmpi
  00125	83 c4 08	 add	 esp, 8
  00128	85 c0		 test	 eax, eax
  0012a	75 0c		 jne	 SHORT $LN97@ServerComm

; 174  : 	{
; 175  : 		PostQuitMessage(0);

  0012c	50		 push	 eax
  0012d	ff 15 00 00 00
	00		 call	 DWORD PTR __imp__PostQuitMessage@4
  00133	e9 30 10 00 00	 jmp	 $LN704@ServerComm
$LN97@ServerComm:

; 176  : 	}
; 177  : 	else if (!strcmpi(szCmd, "BettingMoney"))

  00138	68 00 00 00 00	 push	 OFFSET ??_C@_0N@JEPOMHGB@BettingMoney?$AA@
  0013d	56		 push	 esi
  0013e	e8 00 00 00 00	 call	 __strcmpi
  00143	83 c4 08	 add	 esp, 8
  00146	85 c0		 test	 eax, eax
  00148	75 33		 jne	 SHORT $LN95@ServerComm
; File c:\program files (x86)\microsoft visual studio 12.0\vc\include\vector

; 1148 : 		return (this->_Mylast - this->_Myfirst);

  0014a	8b 4c 24 34	 mov	 ecx, DWORD PTR _TokenVector$[esp+200]
  0014e	b8 ab aa aa 2a	 mov	 eax, 715827883		; 2aaaaaabH
  00153	2b cb		 sub	 ecx, ebx
  00155	f7 e9		 imul	 ecx
  00157	c1 fa 02	 sar	 edx, 2
  0015a	8b c2		 mov	 eax, edx
  0015c	c1 e8 1f	 shr	 eax, 31			; 0000001fH
  0015f	03 c2		 add	 eax, edx
; File d:\metin2\metin2\client_source_clean\client_source_clean\source\userinterface\pythonnetworkstreamcommand.cpp

; 179  : 		if (2 != TokenVector.size())

  00161	83 f8 02	 cmp	 eax, 2
  00164	0f 84 fe 0f 00
	00		 je	 $LN704@ServerComm

; 180  : 		{
; 181  : 			TraceError("CPythonNetworkStream::ServerCommand(c_szCommand=%s) - Strange Parameter Count : %s", c_szCommand);

  0016a	57		 push	 edi
  0016b	68 00 00 00 00	 push	 OFFSET ??_C@_0FD@MGEFFJHF@CPythonNetworkStream?3?3ServerComm@
  00170	e8 00 00 00 00	 call	 ?TraceError@@YAXPBDZZ	; TraceError
  00175	83 c4 08	 add	 esp, 8
  00178	e9 eb 0f 00 00	 jmp	 $LN704@ServerComm
$LN95@ServerComm:

; 182  : 			return;
; 183  : 		}
; 184  : 
; 185  : 		//UINT uMoney= atoi(TokenVector[1].c_str());		
; 186  : 		
; 187  : 	}
; 188  : 	// GIFT NOTIFY
; 189  : 	else if (!strcmpi(szCmd, "gift"))

  0017d	68 00 00 00 00	 push	 OFFSET ??_C@_04FDOIBAFG@gift?$AA@
  00182	56		 push	 esi
  00183	e8 00 00 00 00	 call	 __strcmpi
  00188	83 c4 08	 add	 esp, 8
  0018b	85 c0		 test	 eax, eax
  0018d	75 2c		 jne	 SHORT $LN92@ServerComm

; 190  : 	{
; 191  : 		PyCallClassMemberFunc(m_apoPhaseWnd[PHASE_WINDOW_GAME], "Gift_Show", Py_BuildValue("()")); 	

  0018f	a1 00 00 00 00	 mov	 eax, DWORD PTR __imp__Py_BuildValue
  00194	68 00 00 00 00	 push	 OFFSET ??_C@_02HCKGKOFO@?$CI?$CJ?$AA@
  00199	ff d0		 call	 eax
  0019b	83 c4 04	 add	 esp, 4
  0019e	50		 push	 eax
  0019f	68 00 00 00 00	 push	 OFFSET ??_C@_09MBHMFCFC@Gift_Show?$AA@
$LN709@ServerComm:
  001a4	8b 4c 24 48	 mov	 ecx, DWORD PTR _this$GSCopy$1$[esp+204]
  001a8	ff b1 90 01 00
	00		 push	 DWORD PTR [ecx+400]
  001ae	e8 00 00 00 00	 call	 ?PyCallClassMemberFunc@@YA_NPAU_object@@PBD0@Z ; PyCallClassMemberFunc
  001b3	83 c4 0c	 add	 esp, 12			; 0000000cH
  001b6	e9 ad 0f 00 00	 jmp	 $LN704@ServerComm
$LN92@ServerComm:

; 192  : 	}
; 193  : 	// CUBE
; 194  : 	else if (!strcmpi(szCmd, "cube"))

  001bb	68 00 00 00 00	 push	 OFFSET ??_C@_04OIHHNFHN@cube?$AA@
  001c0	56		 push	 esi
  001c1	e8 00 00 00 00	 call	 __strcmpi
  001c6	83 c4 08	 add	 esp, 8
  001c9	85 c0		 test	 eax, eax
  001cb	0f 85 f4 02 00
	00		 jne	 $LN90@ServerComm
; File c:\program files (x86)\microsoft visual studio 12.0\vc\include\vector

; 1148 : 		return (this->_Mylast - this->_Myfirst);

  001d1	8b 4c 24 34	 mov	 ecx, DWORD PTR _TokenVector$[esp+200]
  001d5	b8 ab aa aa 2a	 mov	 eax, 715827883		; 2aaaaaabH
  001da	2b cb		 sub	 ecx, ebx
  001dc	f7 e9		 imul	 ecx
  001de	c1 fa 02	 sar	 edx, 2
  001e1	8b f2		 mov	 esi, edx
  001e3	c1 ee 1f	 shr	 esi, 31			; 0000001fH
  001e6	03 f2		 add	 esi, edx
; File d:\metin2\metin2\client_source_clean\client_source_clean\source\userinterface\pythonnetworkstreamcommand.cpp

; 196  : 		if (TokenVector.size() < 2)

  001e8	83 fe 02	 cmp	 esi, 2
  001eb	73 13		 jae	 SHORT $LN89@ServerComm

; 197  : 		{
; 198  : 			TraceError("CPythonNetworkStream::ServerCommand(c_szCommand=%s) - Strange Parameter Count : %s", c_szCommand);

  001ed	57		 push	 edi
  001ee	68 00 00 00 00	 push	 OFFSET ??_C@_0FD@MGEFFJHF@CPythonNetworkStream?3?3ServerComm@
  001f3	e8 00 00 00 00	 call	 ?TraceError@@YAXPBDZZ	; TraceError
  001f8	83 c4 08	 add	 esp, 8
  001fb	e9 68 0f 00 00	 jmp	 $LN704@ServerComm
$LN89@ServerComm:
; File c:\program files (x86)\microsoft visual studio 12.0\vc\include\vector

; 1209 : 		return (*(this->_Myfirst + _Pos));

  00200	8d 43 18	 lea	 eax, DWORD PTR [ebx+24]
; File d:\metin2\metin2\client_source_clean\client_source_clean\source\userinterface\pythonnetworkstreamcommand.cpp

; 202  : 		if ("open" == TokenVector[1])

  00203	50		 push	 eax
  00204	68 00 00 00 00	 push	 OFFSET ??_C@_04PMOCAHAA@open?$AA@
  00209	e8 00 00 00 00	 call	 ??$?8DU?$char_traits@D@std@@V?$allocator@D@1@@std@@YA_NPBDABV?$basic_string@DU?$char_traits@D@std@@V?$allocator@D@2@@0@@Z ; std::operator==<char,std::char_traits<char>,std::allocator<char> >
  0020e	83 c4 08	 add	 esp, 8
  00211	84 c0		 test	 al, al
  00213	74 56		 je	 SHORT $LN88@ServerComm

; 203  : 		{
; 204  : 			if (3 > TokenVector.size())

  00215	83 fe 03	 cmp	 esi, 3
  00218	73 13		 jae	 SHORT $LN87@ServerComm

; 205  : 			{
; 206  : 				TraceError("CPythonNetworkStream::ServerCommand(c_szCommand=%s) - Strange Parameter Count : %s", c_szCommand);

  0021a	57		 push	 edi
  0021b	68 00 00 00 00	 push	 OFFSET ??_C@_0FD@MGEFFJHF@CPythonNetworkStream?3?3ServerComm@
  00220	e8 00 00 00 00	 call	 ?TraceError@@YAXPBDZZ	; TraceError
  00225	83 c4 08	 add	 esp, 8
  00228	e9 3b 0f 00 00	 jmp	 $LN704@ServerComm
$LN87@ServerComm:
; File c:\program files (x86)\microsoft visual studio 12.0\vc\include\xstring

; 520  : 			: this->_Bx._Buf);

  0022d	83 7b 44 10	 cmp	 DWORD PTR [ebx+68], 16	; 00000010H
; File c:\program files (x86)\microsoft visual studio 12.0\vc\include\vector

; 1209 : 		return (*(this->_Myfirst + _Pos));

  00231	8d 43 30	 lea	 eax, DWORD PTR [ebx+48]
; File c:\program files (x86)\microsoft visual studio 12.0\vc\include\xstring

; 520  : 			: this->_Bx._Buf);

  00234	72 02		 jb	 SHORT $LN176@ServerComm
; File c:\program files (x86)\microsoft visual studio 12.0\vc\include\xstddef

; 95   : 		reinterpret_cast<const volatile char&>(_Val)))));

  00236	8b 00		 mov	 eax, DWORD PTR [eax]
$LN176@ServerComm:
; File d:\metin2\metin2\client_source_clean\client_source_clean\source\userinterface\pythonnetworkstreamcommand.cpp

; 210  : 			DWORD npcVNUM = (DWORD)atoi(TokenVector[2].c_str());

  00238	50		 push	 eax
  00239	e8 00 00 00 00	 call	 __atoi64
  0023e	83 c4 04	 add	 esp, 4

; 211  : 			PyCallClassMemberFunc(m_apoPhaseWnd[PHASE_WINDOW_GAME], "BINARY_Cube_Open", Py_BuildValue("(i)", npcVNUM));

  00241	50		 push	 eax
  00242	a1 00 00 00 00	 mov	 eax, DWORD PTR __imp__Py_BuildValue
  00247	68 00 00 00 00	 push	 OFFSET ??_C@_03LIHNMIHG@?$CIi?$CJ?$AA@
  0024c	ff d0		 call	 eax
  0024e	50		 push	 eax
  0024f	68 00 00 00 00	 push	 OFFSET ??_C@_0BB@OJMMNJOG@BINARY_Cube_Open?$AA@
$LN711@ServerComm:
  00254	8b 4c 24 50	 mov	 ecx, DWORD PTR _this$GSCopy$1$[esp+212]
  00258	ff b1 90 01 00
	00		 push	 DWORD PTR [ecx+400]
  0025e	e8 00 00 00 00	 call	 ?PyCallClassMemberFunc@@YA_NPAU_object@@PBD0@Z ; PyCallClassMemberFunc
  00263	83 c4 14	 add	 esp, 20			; 00000014H

; 212  : 		}
; 213  : 		else if ("close" == TokenVector[1])

  00266	e9 fd 0e 00 00	 jmp	 $LN704@ServerComm
$LN88@ServerComm:
  0026b	8d 43 18	 lea	 eax, DWORD PTR [ebx+24]
  0026e	50		 push	 eax
  0026f	68 00 00 00 00	 push	 OFFSET ??_C@_05LBOHBHFK@close?$AA@
  00274	e8 00 00 00 00	 call	 ??$?8DU?$char_traits@D@std@@V?$allocator@D@1@@std@@YA_NPBDABV?$basic_string@DU?$char_traits@D@std@@V?$allocator@D@2@@0@@Z ; std::operator==<char,std::char_traits<char>,std::allocator<char> >
  00279	83 c4 08	 add	 esp, 8
  0027c	84 c0		 test	 al, al
  0027e	74 1a		 je	 SHORT $LN85@ServerComm

; 214  : 		{
; 215  : 			PyCallClassMemberFunc(m_apoPhaseWnd[PHASE_WINDOW_GAME], "BINARY_Cube_Close", Py_BuildValue("()"));

  00280	a1 00 00 00 00	 mov	 eax, DWORD PTR __imp__Py_BuildValue
  00285	68 00 00 00 00	 push	 OFFSET ??_C@_02HCKGKOFO@?$CI?$CJ?$AA@
  0028a	ff d0		 call	 eax
  0028c	83 c4 04	 add	 esp, 4
  0028f	50		 push	 eax
  00290	68 00 00 00 00	 push	 OFFSET ??_C@_0BC@PIJLHOMJ@BINARY_Cube_Close?$AA@

; 216  : 		}
; 217  : 		else if ("info" == TokenVector[1])

  00295	e9 0a ff ff ff	 jmp	 $LN709@ServerComm
$LN85@ServerComm:
  0029a	8d 43 18	 lea	 eax, DWORD PTR [ebx+24]
  0029d	50		 push	 eax
  0029e	68 00 00 00 00	 push	 OFFSET ??_C@_04NIDJFNBE@info?$AA@
  002a3	e8 00 00 00 00	 call	 ??$?8DU?$char_traits@D@std@@V?$allocator@D@1@@std@@YA_NPBDABV?$basic_string@DU?$char_traits@D@std@@V?$allocator@D@2@@0@@Z ; std::operator==<char,std::char_traits<char>,std::allocator<char> >
  002a8	83 c4 08	 add	 esp, 8
  002ab	84 c0		 test	 al, al
  002ad	0f 84 84 00 00
	00		 je	 $LN83@ServerComm

; 218  : 		{
; 219  : 			if (5 != TokenVector.size())

  002b3	83 fe 05	 cmp	 esi, 5
  002b6	74 13		 je	 SHORT $LN82@ServerComm

; 220  : 			{
; 221  : 				TraceError("CPythonNetworkStream::ServerCommand(c_szCommand=%s) - Strange Parameter Count : %s", c_szCommand);

  002b8	57		 push	 edi
  002b9	68 00 00 00 00	 push	 OFFSET ??_C@_0FD@MGEFFJHF@CPythonNetworkStream?3?3ServerComm@
  002be	e8 00 00 00 00	 call	 ?TraceError@@YAXPBDZZ	; TraceError
  002c3	83 c4 08	 add	 esp, 8
  002c6	e9 9d 0e 00 00	 jmp	 $LN704@ServerComm
$LN82@ServerComm:
; File c:\program files (x86)\microsoft visual studio 12.0\vc\include\xstring

; 520  : 			: this->_Bx._Buf);

  002cb	83 7b 44 10	 cmp	 DWORD PTR [ebx+68], 16	; 00000010H
; File c:\program files (x86)\microsoft visual studio 12.0\vc\include\vector

; 1209 : 		return (*(this->_Myfirst + _Pos));

  002cf	8d 43 30	 lea	 eax, DWORD PTR [ebx+48]
; File c:\program files (x86)\microsoft visual studio 12.0\vc\include\xstring

; 520  : 			: this->_Bx._Buf);

  002d2	72 02		 jb	 SHORT $LN192@ServerComm
; File c:\program files (x86)\microsoft visual studio 12.0\vc\include\xstddef

; 95   : 		reinterpret_cast<const volatile char&>(_Val)))));

  002d4	8b 00		 mov	 eax, DWORD PTR [eax]
$LN192@ServerComm:
; File d:\metin2\metin2\client_source_clean\client_source_clean\source\userinterface\pythonnetworkstreamcommand.cpp

; 225  : 			UINT gold = atoi(TokenVector[2].c_str());

  002d6	50		 push	 eax
  002d7	e8 00 00 00 00	 call	 __atoi64
; File c:\program files (x86)\microsoft visual studio 12.0\vc\include\vector

; 1209 : 		return (*(this->_Myfirst + _Pos));

  002dc	8d 4b 48	 lea	 ecx, DWORD PTR [ebx+72]
; File d:\metin2\metin2\client_source_clean\client_source_clean\source\userinterface\pythonnetworkstreamcommand.cpp

; 225  : 			UINT gold = atoi(TokenVector[2].c_str());

  002df	83 c4 04	 add	 esp, 4
; File c:\program files (x86)\microsoft visual studio 12.0\vc\include\xstring

; 520  : 			: this->_Bx._Buf);

  002e2	83 79 14 10	 cmp	 DWORD PTR [ecx+20], 16	; 00000010H
; File d:\metin2\metin2\client_source_clean\client_source_clean\source\userinterface\pythonnetworkstreamcommand.cpp

; 225  : 			UINT gold = atoi(TokenVector[2].c_str());

  002e6	8b f8		 mov	 edi, eax
; File c:\program files (x86)\microsoft visual studio 12.0\vc\include\xstring

; 520  : 			: this->_Bx._Buf);

  002e8	72 02		 jb	 SHORT $LN202@ServerComm
; File c:\program files (x86)\microsoft visual studio 12.0\vc\include\xstddef

; 95   : 		reinterpret_cast<const volatile char&>(_Val)))));

  002ea	8b 09		 mov	 ecx, DWORD PTR [ecx]
$LN202@ServerComm:
; File d:\metin2\metin2\client_source_clean\client_source_clean\source\userinterface\pythonnetworkstreamcommand.cpp

; 226  : 			UINT itemVnum = atoi(TokenVector[3].c_str());

  002ec	51		 push	 ecx
  002ed	e8 00 00 00 00	 call	 __atoi64
; File c:\program files (x86)\microsoft visual studio 12.0\vc\include\vector

; 1209 : 		return (*(this->_Myfirst + _Pos));

  002f2	8d 4b 60	 lea	 ecx, DWORD PTR [ebx+96]
; File d:\metin2\metin2\client_source_clean\client_source_clean\source\userinterface\pythonnetworkstreamcommand.cpp

; 226  : 			UINT itemVnum = atoi(TokenVector[3].c_str());

  002f5	83 c4 04	 add	 esp, 4
; File c:\program files (x86)\microsoft visual studio 12.0\vc\include\xstring

; 520  : 			: this->_Bx._Buf);

  002f8	83 79 14 10	 cmp	 DWORD PTR [ecx+20], 16	; 00000010H
; File d:\metin2\metin2\client_source_clean\client_source_clean\source\userinterface\pythonnetworkstreamcommand.cpp

; 226  : 			UINT itemVnum = atoi(TokenVector[3].c_str());

  002fc	8b f0		 mov	 esi, eax
; File c:\program files (x86)\microsoft visual studio 12.0\vc\include\xstring

; 520  : 			: this->_Bx._Buf);

  002fe	72 02		 jb	 SHORT $LN212@ServerComm
; File c:\program files (x86)\microsoft visual studio 12.0\vc\include\xstddef

; 95   : 		reinterpret_cast<const volatile char&>(_Val)))));

  00300	8b 09		 mov	 ecx, DWORD PTR [ecx]
$LN212@ServerComm:
; File d:\metin2\metin2\client_source_clean\client_source_clean\source\userinterface\pythonnetworkstreamcommand.cpp

; 227  : 			UINT count = atoi(TokenVector[4].c_str());

  00302	51		 push	 ecx
  00303	e8 00 00 00 00	 call	 __atoi64
  00308	83 c4 04	 add	 esp, 4

; 228  : 			PyCallClassMemberFunc(m_apoPhaseWnd[PHASE_WINDOW_GAME], "BINARY_Cube_UpdateInfo", Py_BuildValue("(iii)", gold, itemVnum, count));

  0030b	50		 push	 eax
  0030c	a1 00 00 00 00	 mov	 eax, DWORD PTR __imp__Py_BuildValue
  00311	56		 push	 esi
  00312	57		 push	 edi
  00313	68 00 00 00 00	 push	 OFFSET ??_C@_05HEIOBLPG@?$CIiii?$CJ?$AA@
  00318	ff d0		 call	 eax
  0031a	50		 push	 eax
  0031b	68 00 00 00 00	 push	 OFFSET ??_C@_0BH@DMGJNFKF@BINARY_Cube_UpdateInfo?$AA@
$LN712@ServerComm:
  00320	8b 4c 24 58	 mov	 ecx, DWORD PTR _this$GSCopy$1$[esp+220]
  00324	ff b1 90 01 00
	00		 push	 DWORD PTR [ecx+400]
  0032a	e8 00 00 00 00	 call	 ?PyCallClassMemberFunc@@YA_NPAU_object@@PBD0@Z ; PyCallClassMemberFunc
  0032f	83 c4 1c	 add	 esp, 28			; 0000001cH

; 229  : 		}
; 230  : 		else if ("success" == TokenVector[1])

  00332	e9 31 0e 00 00	 jmp	 $LN704@ServerComm
$LN83@ServerComm:
  00337	8d 43 18	 lea	 eax, DWORD PTR [ebx+24]
  0033a	50		 push	 eax
  0033b	68 00 00 00 00	 push	 OFFSET ??_C@_07IPNMCAN@success?$AA@
  00340	e8 00 00 00 00	 call	 ??$?8DU?$char_traits@D@std@@V?$allocator@D@1@@std@@YA_NPBDABV?$basic_string@DU?$char_traits@D@std@@V?$allocator@D@2@@0@@Z ; std::operator==<char,std::char_traits<char>,std::allocator<char> >
  00345	83 c4 08	 add	 esp, 8
  00348	84 c0		 test	 al, al
  0034a	74 5e		 je	 SHORT $LN80@ServerComm

; 231  : 		{
; 232  : 			if (4 != TokenVector.size())

  0034c	83 fe 04	 cmp	 esi, 4
  0034f	74 13		 je	 SHORT $LN79@ServerComm

; 233  : 			{
; 234  : 				TraceError("CPythonNetworkStream::ServerCommand(c_szCommand=%s) - Strange Parameter Count : %s", c_szCommand);

  00351	57		 push	 edi
  00352	68 00 00 00 00	 push	 OFFSET ??_C@_0FD@MGEFFJHF@CPythonNetworkStream?3?3ServerComm@
  00357	e8 00 00 00 00	 call	 ?TraceError@@YAXPBDZZ	; TraceError
  0035c	83 c4 08	 add	 esp, 8
  0035f	e9 04 0e 00 00	 jmp	 $LN704@ServerComm
$LN79@ServerComm:
; File c:\program files (x86)\microsoft visual studio 12.0\vc\include\xstring

; 520  : 			: this->_Bx._Buf);

  00364	83 7b 44 10	 cmp	 DWORD PTR [ebx+68], 16	; 00000010H
; File c:\program files (x86)\microsoft visual studio 12.0\vc\include\vector

; 1209 : 		return (*(this->_Myfirst + _Pos));

  00368	8d 43 30	 lea	 eax, DWORD PTR [ebx+48]
; File c:\program files (x86)\microsoft visual studio 12.0\vc\include\xstring

; 520  : 			: this->_Bx._Buf);

  0036b	72 02		 jb	 SHORT $LN226@ServerComm
; File c:\program files (x86)\microsoft visual studio 12.0\vc\include\xstddef

; 95   : 		reinterpret_cast<const volatile char&>(_Val)))));

  0036d	8b 00		 mov	 eax, DWORD PTR [eax]
$LN226@ServerComm:
; File d:\metin2\metin2\client_source_clean\client_source_clean\source\userinterface\pythonnetworkstreamcommand.cpp

; 238  : 			UINT itemVnum = atoi(TokenVector[2].c_str());

  0036f	50		 push	 eax
  00370	e8 00 00 00 00	 call	 __atoi64
; File c:\program files (x86)\microsoft visual studio 12.0\vc\include\vector

; 1209 : 		return (*(this->_Myfirst + _Pos));

  00375	8d 4b 48	 lea	 ecx, DWORD PTR [ebx+72]
; File d:\metin2\metin2\client_source_clean\client_source_clean\source\userinterface\pythonnetworkstreamcommand.cpp

; 238  : 			UINT itemVnum = atoi(TokenVector[2].c_str());

  00378	83 c4 04	 add	 esp, 4
; File c:\program files (x86)\microsoft visual studio 12.0\vc\include\xstring

; 520  : 			: this->_Bx._Buf);

  0037b	83 79 14 10	 cmp	 DWORD PTR [ecx+20], 16	; 00000010H
; File d:\metin2\metin2\client_source_clean\client_source_clean\source\userinterface\pythonnetworkstreamcommand.cpp

; 238  : 			UINT itemVnum = atoi(TokenVector[2].c_str());

  0037f	8b f0		 mov	 esi, eax
; File c:\program files (x86)\microsoft visual studio 12.0\vc\include\xstring

; 520  : 			: this->_Bx._Buf);

  00381	72 02		 jb	 SHORT $LN236@ServerComm
; File c:\program files (x86)\microsoft visual studio 12.0\vc\include\xstddef

; 95   : 		reinterpret_cast<const volatile char&>(_Val)))));

  00383	8b 09		 mov	 ecx, DWORD PTR [ecx]
$LN236@ServerComm:
; File d:\metin2\metin2\client_source_clean\client_source_clean\source\userinterface\pythonnetworkstreamcommand.cpp

; 239  : 			UINT count = atoi(TokenVector[3].c_str());

  00385	51		 push	 ecx
  00386	e8 00 00 00 00	 call	 __atoi64
  0038b	83 c4 04	 add	 esp, 4

; 240  : 			PyCallClassMemberFunc(m_apoPhaseWnd[PHASE_WINDOW_GAME], "BINARY_Cube_Succeed", Py_BuildValue("(ii)", itemVnum, count));

  0038e	50		 push	 eax
  0038f	a1 00 00 00 00	 mov	 eax, DWORD PTR __imp__Py_BuildValue
  00394	56		 push	 esi
  00395	68 00 00 00 00	 push	 OFFSET ??_C@_04INACLLOK@?$CIii?$CJ?$AA@
  0039a	ff d0		 call	 eax
  0039c	83 c4 0c	 add	 esp, 12			; 0000000cH
  0039f	50		 push	 eax
  003a0	68 00 00 00 00	 push	 OFFSET ??_C@_0BE@HLNHNAAA@BINARY_Cube_Succeed?$AA@

; 241  : 		}
; 242  : 		else if ("fail" == TokenVector[1])

  003a5	e9 fa fd ff ff	 jmp	 $LN709@ServerComm
$LN80@ServerComm:
  003aa	8d 43 18	 lea	 eax, DWORD PTR [ebx+24]
  003ad	50		 push	 eax
  003ae	68 00 00 00 00	 push	 OFFSET ??_C@_04CCHLMOGN@fail?$AA@
  003b3	e8 00 00 00 00	 call	 ??$?8DU?$char_traits@D@std@@V?$allocator@D@1@@std@@YA_NPBDABV?$basic_string@DU?$char_traits@D@std@@V?$allocator@D@2@@0@@Z ; std::operator==<char,std::char_traits<char>,std::allocator<char> >
  003b8	83 c4 08	 add	 esp, 8
  003bb	84 c0		 test	 al, al
  003bd	74 1a		 je	 SHORT $LN77@ServerComm

; 243  : 		{
; 244  : 			PyCallClassMemberFunc(m_apoPhaseWnd[PHASE_WINDOW_GAME], "BINARY_Cube_Failed", Py_BuildValue("()"));

  003bf	a1 00 00 00 00	 mov	 eax, DWORD PTR __imp__Py_BuildValue
  003c4	68 00 00 00 00	 push	 OFFSET ??_C@_02HCKGKOFO@?$CI?$CJ?$AA@
  003c9	ff d0		 call	 eax
  003cb	83 c4 04	 add	 esp, 4
  003ce	50		 push	 eax
  003cf	68 00 00 00 00	 push	 OFFSET ??_C@_0BD@IKENMBNJ@BINARY_Cube_Failed?$AA@

; 245  : 		}
; 246  : 		else if ("r_list" == TokenVector[1])

  003d4	e9 cb fd ff ff	 jmp	 $LN709@ServerComm
$LN77@ServerComm:
  003d9	8d 43 18	 lea	 eax, DWORD PTR [ebx+24]
  003dc	50		 push	 eax
  003dd	68 00 00 00 00	 push	 OFFSET ??_C@_06ODLEBDJP@r_list?$AA@
  003e2	e8 00 00 00 00	 call	 ??$?8DU?$char_traits@D@std@@V?$allocator@D@1@@std@@YA_NPBDABV?$basic_string@DU?$char_traits@D@std@@V?$allocator@D@2@@0@@Z ; std::operator==<char,std::char_traits<char>,std::allocator<char> >
  003e7	83 c4 08	 add	 esp, 8
  003ea	84 c0		 test	 al, al
  003ec	74 55		 je	 SHORT $LN75@ServerComm

; 247  : 		{
; 248  : 			// result list (/cube r_list npcVNUM resultCount resultText)
; 249  : 			// 20383 4 72723,1/72725,1/72730.1/50001,5 <-  "/"    
; 250  : 			if (5 != TokenVector.size())

  003ee	83 fe 05	 cmp	 esi, 5
  003f1	74 15		 je	 SHORT $LN74@ServerComm

; 251  : 			{
; 252  : 				TraceError("CPythonNetworkStream::ServerCommand(c_szCommand=%s) - Strange Parameter Count : %d", c_szCommand, 5);

  003f3	6a 05		 push	 5
  003f5	57		 push	 edi
  003f6	68 00 00 00 00	 push	 OFFSET ??_C@_0FD@MDMGNNOD@CPythonNetworkStream?3?3ServerComm@
  003fb	e8 00 00 00 00	 call	 ?TraceError@@YAXPBDZZ	; TraceError
  00400	83 c4 0c	 add	 esp, 12			; 0000000cH
  00403	e9 60 0d 00 00	 jmp	 $LN704@ServerComm
$LN74@ServerComm:
; File c:\program files (x86)\microsoft visual studio 12.0\vc\include\xstring

; 520  : 			: this->_Bx._Buf);

  00408	83 7b 44 10	 cmp	 DWORD PTR [ebx+68], 16	; 00000010H
; File c:\program files (x86)\microsoft visual studio 12.0\vc\include\vector

; 1209 : 		return (*(this->_Myfirst + _Pos));

  0040c	8d 43 30	 lea	 eax, DWORD PTR [ebx+48]
; File c:\program files (x86)\microsoft visual studio 12.0\vc\include\xstring

; 520  : 			: this->_Bx._Buf);

  0040f	72 02		 jb	 SHORT $LN252@ServerComm
; File c:\program files (x86)\microsoft visual studio 12.0\vc\include\xstddef

; 95   : 		reinterpret_cast<const volatile char&>(_Val)))));

  00411	8b 00		 mov	 eax, DWORD PTR [eax]
$LN252@ServerComm:
; File d:\metin2\metin2\client_source_clean\client_source_clean\source\userinterface\pythonnetworkstreamcommand.cpp

; 256  : 			DWORD npcVNUM = (DWORD)atoi(TokenVector[2].c_str());

  00413	50		 push	 eax
  00414	e8 00 00 00 00	 call	 __atoi64
; File c:\program files (x86)\microsoft visual studio 12.0\vc\include\vector

; 1209 : 		return (*(this->_Myfirst + _Pos));

  00419	8d 4b 60	 lea	 ecx, DWORD PTR [ebx+96]
; File d:\metin2\metin2\client_source_clean\client_source_clean\source\userinterface\pythonnetworkstreamcommand.cpp

; 256  : 			DWORD npcVNUM = (DWORD)atoi(TokenVector[2].c_str());

  0041c	83 c4 04	 add	 esp, 4
; File c:\program files (x86)\microsoft visual studio 12.0\vc\include\xstring

; 520  : 			: this->_Bx._Buf);

  0041f	83 79 14 10	 cmp	 DWORD PTR [ecx+20], 16	; 00000010H
  00423	72 02		 jb	 SHORT $LN262@ServerComm
; File c:\program files (x86)\microsoft visual studio 12.0\vc\include\xstddef

; 95   : 		reinterpret_cast<const volatile char&>(_Val)))));

  00425	8b 09		 mov	 ecx, DWORD PTR [ecx]
$LN262@ServerComm:
; File d:\metin2\metin2\client_source_clean\client_source_clean\source\userinterface\pythonnetworkstreamcommand.cpp

; 258  : 			PyCallClassMemberFunc(m_apoPhaseWnd[PHASE_WINDOW_GAME], "BINARY_Cube_ResultList", Py_BuildValue("(is)", npcVNUM, TokenVector[4].c_str()));

  00427	51		 push	 ecx
  00428	50		 push	 eax
  00429	a1 00 00 00 00	 mov	 eax, DWORD PTR __imp__Py_BuildValue
  0042e	68 00 00 00 00	 push	 OFFSET ??_C@_04JMLDJNEM@?$CIis?$CJ?$AA@
  00433	ff d0		 call	 eax
  00435	83 c4 0c	 add	 esp, 12			; 0000000cH
  00438	50		 push	 eax
  00439	68 00 00 00 00	 push	 OFFSET ??_C@_0BH@JONCIELM@BINARY_Cube_ResultList?$AA@

; 259  : 		}
; 260  : 		else if ("m_info" == TokenVector[1])

  0043e	e9 61 fd ff ff	 jmp	 $LN709@ServerComm
$LN75@ServerComm:
  00443	8d 43 18	 lea	 eax, DWORD PTR [ebx+24]
  00446	50		 push	 eax
  00447	68 00 00 00 00	 push	 OFFSET ??_C@_06JEMOOCHA@m_info?$AA@
  0044c	e8 00 00 00 00	 call	 ??$?8DU?$char_traits@D@std@@V?$allocator@D@1@@std@@YA_NPBDABV?$basic_string@DU?$char_traits@D@std@@V?$allocator@D@2@@0@@Z ; std::operator==<char,std::char_traits<char>,std::allocator<char> >
  00451	83 c4 08	 add	 esp, 8
  00454	84 c0		 test	 al, al
  00456	0f 84 0c 0d 00
	00		 je	 $LN704@ServerComm

; 261  : 		{
; 262  : 			// material list (/cube m_info requestStartIndex resultCount MaterialText)
; 263  : 			// ex) requestStartIndex: 0, resultCount : 5 -  NPC     0~4        MaterialText 
; 264  : 			//       "@"  
; 265  : 			// 0 5 125,1|126,2|127,2|123,5&555,5&555,4/120000 <-     
; 266  : 
; 267  : 			if (5 != TokenVector.size())

  0045c	83 fe 05	 cmp	 esi, 5
  0045f	74 15		 je	 SHORT $LN71@ServerComm

; 268  : 			{
; 269  : 				TraceError("CPythonNetworkStream::ServerCommand(c_szCommand=%s) - Strange Parameter Count : %d", c_szCommand, 5);

  00461	6a 05		 push	 5
  00463	57		 push	 edi
  00464	68 00 00 00 00	 push	 OFFSET ??_C@_0FD@MDMGNNOD@CPythonNetworkStream?3?3ServerComm@
  00469	e8 00 00 00 00	 call	 ?TraceError@@YAXPBDZZ	; TraceError
  0046e	83 c4 0c	 add	 esp, 12			; 0000000cH
  00471	e9 f2 0c 00 00	 jmp	 $LN704@ServerComm
$LN71@ServerComm:
; File c:\program files (x86)\microsoft visual studio 12.0\vc\include\xstring

; 520  : 			: this->_Bx._Buf);

  00476	83 7b 44 10	 cmp	 DWORD PTR [ebx+68], 16	; 00000010H
; File c:\program files (x86)\microsoft visual studio 12.0\vc\include\vector

; 1209 : 		return (*(this->_Myfirst + _Pos));

  0047a	8d 43 30	 lea	 eax, DWORD PTR [ebx+48]
; File c:\program files (x86)\microsoft visual studio 12.0\vc\include\xstring

; 520  : 			: this->_Bx._Buf);

  0047d	72 02		 jb	 SHORT $LN276@ServerComm
; File c:\program files (x86)\microsoft visual studio 12.0\vc\include\xstddef

; 95   : 		reinterpret_cast<const volatile char&>(_Val)))));

  0047f	8b 00		 mov	 eax, DWORD PTR [eax]
$LN276@ServerComm:
; File d:\metin2\metin2\client_source_clean\client_source_clean\source\userinterface\pythonnetworkstreamcommand.cpp

; 273  : 			UINT requestStartIndex = (UINT)atoi(TokenVector[2].c_str());

  00481	50		 push	 eax
  00482	e8 00 00 00 00	 call	 __atoi64
; File c:\program files (x86)\microsoft visual studio 12.0\vc\include\vector

; 1209 : 		return (*(this->_Myfirst + _Pos));

  00487	8d 4b 48	 lea	 ecx, DWORD PTR [ebx+72]
; File d:\metin2\metin2\client_source_clean\client_source_clean\source\userinterface\pythonnetworkstreamcommand.cpp

; 273  : 			UINT requestStartIndex = (UINT)atoi(TokenVector[2].c_str());

  0048a	83 c4 04	 add	 esp, 4
; File c:\program files (x86)\microsoft visual studio 12.0\vc\include\xstring

; 520  : 			: this->_Bx._Buf);

  0048d	83 79 14 10	 cmp	 DWORD PTR [ecx+20], 16	; 00000010H
; File d:\metin2\metin2\client_source_clean\client_source_clean\source\userinterface\pythonnetworkstreamcommand.cpp

; 273  : 			UINT requestStartIndex = (UINT)atoi(TokenVector[2].c_str());

  00491	8b f0		 mov	 esi, eax
; File c:\program files (x86)\microsoft visual studio 12.0\vc\include\xstring

; 520  : 			: this->_Bx._Buf);

  00493	72 02		 jb	 SHORT $LN286@ServerComm
; File c:\program files (x86)\microsoft visual studio 12.0\vc\include\xstddef

; 95   : 		reinterpret_cast<const volatile char&>(_Val)))));

  00495	8b 09		 mov	 ecx, DWORD PTR [ecx]
$LN286@ServerComm:
; File d:\metin2\metin2\client_source_clean\client_source_clean\source\userinterface\pythonnetworkstreamcommand.cpp

; 274  : 			UINT resultCount = (UINT)atoi(TokenVector[3].c_str());

  00497	51		 push	 ecx
  00498	e8 00 00 00 00	 call	 __atoi64
; File c:\program files (x86)\microsoft visual studio 12.0\vc\include\vector

; 1209 : 		return (*(this->_Myfirst + _Pos));

  0049d	8d 4b 60	 lea	 ecx, DWORD PTR [ebx+96]
; File d:\metin2\metin2\client_source_clean\client_source_clean\source\userinterface\pythonnetworkstreamcommand.cpp

; 274  : 			UINT resultCount = (UINT)atoi(TokenVector[3].c_str());

  004a0	83 c4 04	 add	 esp, 4
; File c:\program files (x86)\microsoft visual studio 12.0\vc\include\xstring

; 520  : 			: this->_Bx._Buf);

  004a3	83 79 14 10	 cmp	 DWORD PTR [ecx+20], 16	; 00000010H
  004a7	72 02		 jb	 SHORT $LN296@ServerComm
; File c:\program files (x86)\microsoft visual studio 12.0\vc\include\xstddef

; 95   : 		reinterpret_cast<const volatile char&>(_Val)))));

  004a9	8b 09		 mov	 ecx, DWORD PTR [ecx]
$LN296@ServerComm:
; File d:\metin2\metin2\client_source_clean\client_source_clean\source\userinterface\pythonnetworkstreamcommand.cpp

; 276  : 			PyCallClassMemberFunc(m_apoPhaseWnd[PHASE_WINDOW_GAME], "BINARY_Cube_MaterialInfo", Py_BuildValue("(iis)", requestStartIndex, resultCount, TokenVector[4].c_str()));

  004ab	51		 push	 ecx
  004ac	50		 push	 eax
  004ad	a1 00 00 00 00	 mov	 eax, DWORD PTR __imp__Py_BuildValue
  004b2	56		 push	 esi
  004b3	68 00 00 00 00	 push	 OFFSET ??_C@_05GFDPDNFA@?$CIiis?$CJ?$AA@
  004b8	ff d0		 call	 eax
  004ba	50		 push	 eax
  004bb	68 00 00 00 00	 push	 OFFSET ??_C@_0BJ@DLFAEHHE@BINARY_Cube_MaterialInfo?$AA@

; 277  : 		}
; 278  : 	}

  004c0	e9 5b fe ff ff	 jmp	 $LN712@ServerComm
$LN90@ServerComm:

; 279  : 	// CUEBE_END
; 280  : 	else if (!strcmpi(szCmd, "ObserverCount"))

  004c5	68 00 00 00 00	 push	 OFFSET ??_C@_0O@HADNNBFL@ObserverCount?$AA@
  004ca	56		 push	 esi
  004cb	e8 00 00 00 00	 call	 __strcmpi
  004d0	83 c4 08	 add	 esp, 8
  004d3	85 c0		 test	 eax, eax
  004d5	75 5b		 jne	 SHORT $LN69@ServerComm
; File c:\program files (x86)\microsoft visual studio 12.0\vc\include\vector

; 1148 : 		return (this->_Mylast - this->_Myfirst);

  004d7	8b 4c 24 34	 mov	 ecx, DWORD PTR _TokenVector$[esp+200]
  004db	b8 ab aa aa 2a	 mov	 eax, 715827883		; 2aaaaaabH
  004e0	2b cb		 sub	 ecx, ebx
  004e2	f7 e9		 imul	 ecx
  004e4	c1 fa 02	 sar	 edx, 2
  004e7	8b c2		 mov	 eax, edx
  004e9	c1 e8 1f	 shr	 eax, 31			; 0000001fH
  004ec	03 c2		 add	 eax, edx
; File d:\metin2\metin2\client_source_clean\client_source_clean\source\userinterface\pythonnetworkstreamcommand.cpp

; 282  : 		if (2 != TokenVector.size())

  004ee	83 f8 02	 cmp	 eax, 2
  004f1	74 13		 je	 SHORT $LN68@ServerComm

; 283  : 		{
; 284  : 			TraceError("CPythonNetworkStream::ServerCommand(c_szCommand=%s) - Strange Parameter Count : %s", c_szCommand);

  004f3	57		 push	 edi
  004f4	68 00 00 00 00	 push	 OFFSET ??_C@_0FD@MGEFFJHF@CPythonNetworkStream?3?3ServerComm@
  004f9	e8 00 00 00 00	 call	 ?TraceError@@YAXPBDZZ	; TraceError
  004fe	83 c4 08	 add	 esp, 8
  00501	e9 62 0c 00 00	 jmp	 $LN704@ServerComm
$LN68@ServerComm:
; File c:\program files (x86)\microsoft visual studio 12.0\vc\include\xstring

; 520  : 			: this->_Bx._Buf);

  00506	83 7b 2c 10	 cmp	 DWORD PTR [ebx+44], 16	; 00000010H
; File c:\program files (x86)\microsoft visual studio 12.0\vc\include\vector

; 1209 : 		return (*(this->_Myfirst + _Pos));

  0050a	8d 43 18	 lea	 eax, DWORD PTR [ebx+24]
; File c:\program files (x86)\microsoft visual studio 12.0\vc\include\xstring

; 520  : 			: this->_Bx._Buf);

  0050d	72 02		 jb	 SHORT $LN308@ServerComm
; File c:\program files (x86)\microsoft visual studio 12.0\vc\include\xstddef

; 95   : 		reinterpret_cast<const volatile char&>(_Val)))));

  0050f	8b 00		 mov	 eax, DWORD PTR [eax]
$LN308@ServerComm:
; File d:\metin2\metin2\client_source_clean\client_source_clean\source\userinterface\pythonnetworkstreamcommand.cpp

; 288  : 		UINT uObserverCount= atoi(TokenVector[1].c_str());				

  00511	50		 push	 eax
  00512	e8 00 00 00 00	 call	 __atoi64
  00517	83 c4 04	 add	 esp, 4

; 289  : 
; 290  : 		PyCallClassMemberFunc(m_apoPhaseWnd[PHASE_WINDOW_GAME], 
; 291  : 			"BINARY_BettingGuildWar_UpdateObserverCount", 
; 292  : 			Py_BuildValue("(i)", uObserverCount)
; 293  : 		);

  0051a	50		 push	 eax
  0051b	a1 00 00 00 00	 mov	 eax, DWORD PTR __imp__Py_BuildValue
  00520	68 00 00 00 00	 push	 OFFSET ??_C@_03LIHNMIHG@?$CIi?$CJ?$AA@
  00525	ff d0		 call	 eax
  00527	50		 push	 eax
  00528	68 00 00 00 00	 push	 OFFSET ??_C@_0CL@MFEDAABM@BINARY_BettingGuildWar_UpdateObs@
  0052d	e9 22 fd ff ff	 jmp	 $LN711@ServerComm
$LN69@ServerComm:

; 294  : 	}
; 295  : 	else if (!strcmpi(szCmd, "ObserverMode"))

  00532	68 00 00 00 00	 push	 OFFSET ??_C@_0N@EBGNMPMN@ObserverMode?$AA@
  00537	56		 push	 esi
  00538	e8 00 00 00 00	 call	 __strcmpi
  0053d	83 c4 08	 add	 esp, 8
  00540	85 c0		 test	 eax, eax
  00542	75 71		 jne	 SHORT $LN66@ServerComm
; File c:\program files (x86)\microsoft visual studio 12.0\vc\include\vector

; 1148 : 		return (this->_Mylast - this->_Myfirst);

  00544	8b 4c 24 34	 mov	 ecx, DWORD PTR _TokenVector$[esp+200]
  00548	b8 ab aa aa 2a	 mov	 eax, 715827883		; 2aaaaaabH
  0054d	2b cb		 sub	 ecx, ebx
  0054f	f7 e9		 imul	 ecx
  00551	c1 fa 02	 sar	 edx, 2
  00554	8b c2		 mov	 eax, edx
  00556	c1 e8 1f	 shr	 eax, 31			; 0000001fH
  00559	03 c2		 add	 eax, edx
; File d:\metin2\metin2\client_source_clean\client_source_clean\source\userinterface\pythonnetworkstreamcommand.cpp

; 297  : 		if (2 != TokenVector.size())

  0055b	83 f8 02	 cmp	 eax, 2
  0055e	74 13		 je	 SHORT $LN65@ServerComm

; 298  : 		{
; 299  : 			TraceError("CPythonNetworkStream::ServerCommand(c_szCommand=%s) - Strange Parameter Count : %s", c_szCommand);

  00560	57		 push	 edi
  00561	68 00 00 00 00	 push	 OFFSET ??_C@_0FD@MGEFFJHF@CPythonNetworkStream?3?3ServerComm@
  00566	e8 00 00 00 00	 call	 ?TraceError@@YAXPBDZZ	; TraceError
  0056b	83 c4 08	 add	 esp, 8
  0056e	e9 f5 0b 00 00	 jmp	 $LN704@ServerComm
$LN65@ServerComm:
; File c:\program files (x86)\microsoft visual studio 12.0\vc\include\xstring

; 520  : 			: this->_Bx._Buf);

  00573	83 7b 2c 10	 cmp	 DWORD PTR [ebx+44], 16	; 00000010H
; File c:\program files (x86)\microsoft visual studio 12.0\vc\include\vector

; 1209 : 		return (*(this->_Myfirst + _Pos));

  00577	8d 43 18	 lea	 eax, DWORD PTR [ebx+24]
; File c:\program files (x86)\microsoft visual studio 12.0\vc\include\xstring

; 520  : 			: this->_Bx._Buf);

  0057a	72 02		 jb	 SHORT $LN320@ServerComm
; File c:\program files (x86)\microsoft visual studio 12.0\vc\include\xstddef

; 95   : 		reinterpret_cast<const volatile char&>(_Val)))));

  0057c	8b 00		 mov	 eax, DWORD PTR [eax]
$LN320@ServerComm:
; File d:\metin2\metin2\client_source_clean\client_source_clean\source\userinterface\pythonnetworkstreamcommand.cpp

; 303  : 		UINT uMode= atoi(TokenVector[1].c_str());

  0057e	50		 push	 eax
  0057f	e8 00 00 00 00	 call	 __atoi64

; 304  : 		
; 305  : 		IAbstractPlayer& rkPlayer=IAbstractPlayer::GetSingleton();

  00584	8b 0d 00 00 00
	00		 mov	 ecx, DWORD PTR ?ms_singleton@?$TAbstractSingleton@VIAbstractPlayer@@@@0PAVIAbstractPlayer@@A ; TAbstractSingleton<IAbstractPlayer>::ms_singleton
  0058a	83 c4 04	 add	 esp, 4
  0058d	8b f8		 mov	 edi, eax

; 306  : 		rkPlayer.SetObserverMode(uMode ? true : false);

  0058f	85 ff		 test	 edi, edi
  00591	8b 31		 mov	 esi, DWORD PTR [ecx]
  00593	0f 95 c2	 setne	 dl
  00596	0f b6 d2	 movzx	 edx, dl
  00599	52		 push	 edx
  0059a	ff 56 74	 call	 DWORD PTR [esi+116]

; 307  : 
; 308  : 		PyCallClassMemberFunc(m_apoPhaseWnd[PHASE_WINDOW_GAME], 
; 309  : 			"BINARY_BettingGuildWar_SetObserverMode", 
; 310  : 			Py_BuildValue("(i)", uMode)
; 311  : 		);

  0059d	a1 00 00 00 00	 mov	 eax, DWORD PTR __imp__Py_BuildValue
  005a2	57		 push	 edi
  005a3	68 00 00 00 00	 push	 OFFSET ??_C@_03LIHNMIHG@?$CIi?$CJ?$AA@
  005a8	ff d0		 call	 eax
  005aa	50		 push	 eax
  005ab	68 00 00 00 00	 push	 OFFSET ??_C@_0CH@OENJEHPK@BINARY_BettingGuildWar_SetObserv@
  005b0	e9 9f fc ff ff	 jmp	 $LN711@ServerComm
$LN66@ServerComm:

; 312  : 	}
; 313  : 	else if (!strcmpi(szCmd, "ObserverTeamInfo"))

  005b5	68 00 00 00 00	 push	 OFFSET ??_C@_0BB@MALBLMJA@ObserverTeamInfo?$AA@
  005ba	56		 push	 esi
  005bb	e8 00 00 00 00	 call	 __strcmpi
  005c0	83 c4 08	 add	 esp, 8
  005c3	85 c0		 test	 eax, eax
  005c5	0f 84 9d 0b 00
	00		 je	 $LN704@ServerComm

; 314  : 	{		
; 315  : 	}
; 316  : 	else if (!strcmpi(szCmd, "StoneDetect"))

  005cb	68 00 00 00 00	 push	 OFFSET ??_C@_0M@EEGHHMDP@StoneDetect?$AA@
  005d0	56		 push	 esi
  005d1	e8 00 00 00 00	 call	 __strcmpi
  005d6	83 c4 08	 add	 esp, 8
  005d9	85 c0		 test	 eax, eax
  005db	0f 85 30 02 00
	00		 jne	 $LN61@ServerComm
; File c:\program files (x86)\microsoft visual studio 12.0\vc\include\vector

; 1148 : 		return (this->_Mylast - this->_Myfirst);

  005e1	8b 4c 24 34	 mov	 ecx, DWORD PTR _TokenVector$[esp+200]
  005e5	b8 ab aa aa 2a	 mov	 eax, 715827883		; 2aaaaaabH
  005ea	2b cb		 sub	 ecx, ebx
  005ec	f7 e9		 imul	 ecx
  005ee	c1 fa 02	 sar	 edx, 2
  005f1	8b c2		 mov	 eax, edx
  005f3	c1 e8 1f	 shr	 eax, 31			; 0000001fH
  005f6	03 c2		 add	 eax, edx
; File d:\metin2\metin2\client_source_clean\client_source_clean\source\userinterface\pythonnetworkstreamcommand.cpp

; 318  : 		if (4 != TokenVector.size())

  005f8	83 f8 04	 cmp	 eax, 4
  005fb	74 13		 je	 SHORT $LN60@ServerComm

; 319  : 		{
; 320  : 			TraceError("CPythonNetworkStream::ServerCommand(c_szCommand=%s) - Strange Parameter Count : %s", c_szCommand);

  005fd	57		 push	 edi
  005fe	68 00 00 00 00	 push	 OFFSET ??_C@_0FD@MGEFFJHF@CPythonNetworkStream?3?3ServerComm@
  00603	e8 00 00 00 00	 call	 ?TraceError@@YAXPBDZZ	; TraceError
  00608	83 c4 08	 add	 esp, 8
  0060b	e9 58 0b 00 00	 jmp	 $LN704@ServerComm
$LN60@ServerComm:
; File c:\program files (x86)\microsoft visual studio 12.0\vc\include\xstring

; 520  : 			: this->_Bx._Buf);

  00610	83 7b 2c 10	 cmp	 DWORD PTR [ebx+44], 16	; 00000010H
; File c:\program files (x86)\microsoft visual studio 12.0\vc\include\vector

; 1209 : 		return (*(this->_Myfirst + _Pos));

  00614	8d 43 18	 lea	 eax, DWORD PTR [ebx+24]
; File c:\program files (x86)\microsoft visual studio 12.0\vc\include\xstring

; 520  : 			: this->_Bx._Buf);

  00617	72 02		 jb	 SHORT $LN334@ServerComm
; File c:\program files (x86)\microsoft visual studio 12.0\vc\include\xstddef

; 95   : 		reinterpret_cast<const volatile char&>(_Val)))));

  00619	8b 00		 mov	 eax, DWORD PTR [eax]
$LN334@ServerComm:
; File d:\metin2\metin2\client_source_clean\client_source_clean\source\userinterface\pythonnetworkstreamcommand.cpp

; 325  : 		DWORD dwVID = atoi(TokenVector[1].c_str());

  0061b	50		 push	 eax
  0061c	e8 00 00 00 00	 call	 __atoi64
; File c:\program files (x86)\microsoft visual studio 12.0\vc\include\vector

; 1209 : 		return (*(this->_Myfirst + _Pos));

  00621	8d 4b 30	 lea	 ecx, DWORD PTR [ebx+48]
; File d:\metin2\metin2\client_source_clean\client_source_clean\source\userinterface\pythonnetworkstreamcommand.cpp

; 325  : 		DWORD dwVID = atoi(TokenVector[1].c_str());

  00624	89 44 24 44	 mov	 DWORD PTR _dwVID$1$[esp+200], eax
  00628	83 c4 04	 add	 esp, 4
; File c:\program files (x86)\microsoft visual studio 12.0\vc\include\xstring

; 520  : 			: this->_Bx._Buf);

  0062b	83 79 14 10	 cmp	 DWORD PTR [ecx+20], 16	; 00000010H
  0062f	72 02		 jb	 SHORT $LN344@ServerComm
; File c:\program files (x86)\microsoft visual studio 12.0\vc\include\xstddef

; 95   : 		reinterpret_cast<const volatile char&>(_Val)))));

  00631	8b 09		 mov	 ecx, DWORD PTR [ecx]
$LN344@ServerComm:
; File d:\metin2\metin2\client_source_clean\client_source_clean\source\userinterface\pythonnetworkstreamcommand.cpp

; 326  : 		BYTE byDistance = atoi(TokenVector[2].c_str());

  00633	51		 push	 ecx
  00634	e8 00 00 00 00	 call	 __atoi64
; File c:\program files (x86)\microsoft visual studio 12.0\vc\include\vector

; 1209 : 		return (*(this->_Myfirst + _Pos));

  00639	8d 73 48	 lea	 esi, DWORD PTR [ebx+72]
; File d:\metin2\metin2\client_source_clean\client_source_clean\source\userinterface\pythonnetworkstreamcommand.cpp

; 326  : 		BYTE byDistance = atoi(TokenVector[2].c_str());

  0063c	88 44 24 33	 mov	 BYTE PTR _byDistance$1$[esp+200], al
  00640	83 c4 04	 add	 esp, 4
; File c:\program files (x86)\microsoft visual studio 12.0\vc\include\xstring

; 520  : 			: this->_Bx._Buf);

  00643	83 7e 14 10	 cmp	 DWORD PTR [esi+20], 16	; 00000010H
  00647	72 04		 jb	 SHORT $LN354@ServerComm
; File c:\program files (x86)\microsoft visual studio 12.0\vc\include\xstddef

; 95   : 		reinterpret_cast<const volatile char&>(_Val)))));

  00649	8b 0e		 mov	 ecx, DWORD PTR [esi]
; File c:\program files (x86)\microsoft visual studio 12.0\vc\include\xstring

; 520  : 			: this->_Bx._Buf);

  0064b	eb 02		 jmp	 SHORT $LN355@ServerComm
$LN354@ServerComm:
  0064d	8b ce		 mov	 ecx, esi
$LN355@ServerComm:
; File d:\metin2\metin2\client_source_clean\client_source_clean\source\userinterface\pythonnetworkstreamcommand.cpp

; 327  : 		float fAngle = atof(TokenVector[3].c_str());

  0064f	51		 push	 ecx
  00650	e8 00 00 00 00	 call	 _atof
  00655	d9 5c 24 40	 fstp	 DWORD PTR tv3193[esp+200]
  00659	d9 44 24 40	 fld	 DWORD PTR tv3193[esp+200]
  0065d	83 c4 04	 add	 esp, 4

; 328  : 		fAngle = fmod(540.0f - fAngle, 360.0f);

  00660	d8 2d 00 00 00
	00		 fsubr	 DWORD PTR __real@44070000
; File c:\program files (x86)\microsoft visual studio 12.0\vc\include\math.h

; 706  :     return (float)fmod(_X, _Y);

  00666	dd 05 00 00 00
	00		 fld	 QWORD PTR __real@4076800000000000
  0066c	e8 00 00 00 00	 call	 __CIfmod
; File c:\program files (x86)\microsoft visual studio 12.0\vc\include\xstring

; 520  : 			: this->_Bx._Buf);

  00671	83 7e 14 10	 cmp	 DWORD PTR [esi+20], 16	; 00000010H
; File c:\program files (x86)\microsoft visual studio 12.0\vc\include\math.h

; 706  :     return (float)fmod(_X, _Y);

  00675	dd 5c 24 44	 fstp	 QWORD PTR tv3185[esp+196]
  00679	f2 0f 10 44 24
	44		 movsd	 xmm0, QWORD PTR tv3185[esp+196]
  0067f	66 0f 5a c0	 cvtpd2ps xmm0, xmm0
; File c:\program files (x86)\microsoft visual studio 12.0\vc\include\xstring

; 520  : 			: this->_Bx._Buf);

  00683	72 02		 jb	 SHORT $LN368@ServerComm
; File c:\program files (x86)\microsoft visual studio 12.0\vc\include\xstddef

; 95   : 		reinterpret_cast<const volatile char&>(_Val)))));

  00685	8b 36		 mov	 esi, DWORD PTR [esi]
$LN368@ServerComm:
; File d:\metin2\metin2\client_source_clean\client_source_clean\source\userinterface\pythonnetworkstreamcommand.cpp

; 329  : 		Tracef("StoneDetect [VID:%d] [Distance:%d] [Angle:%d->%f]\n", dwVID, byDistance, atoi(TokenVector[3].c_str()), fAngle);

  00687	0f b6 44 24 2f	 movzx	 eax, BYTE PTR _byDistance$1$[esp+196]
  0068c	83 ec 08	 sub	 esp, 8
  0068f	0f 5a c0	 cvtps2pd xmm0, xmm0
  00692	89 44 24 44	 mov	 DWORD PTR tv2898[esp+204], eax
  00696	f2 0f 11 04 24	 movsd	 QWORD PTR [esp], xmm0
  0069b	56		 push	 esi
  0069c	e8 00 00 00 00	 call	 __atoi64
  006a1	8b 74 24 48	 mov	 esi, DWORD PTR tv2898[esp+208]
  006a5	83 c4 04	 add	 esp, 4
  006a8	52		 push	 edx
  006a9	50		 push	 eax
  006aa	56		 push	 esi
  006ab	ff 74 24 54	 push	 DWORD PTR _dwVID$1$[esp+216]
  006af	68 00 00 00 00	 push	 OFFSET ??_C@_0DD@COMEEBAO@StoneDetect?5?$FLVID?3?$CFd?$FN?5?$FLDistance?3?$CF@
  006b4	e8 00 00 00 00	 call	 ?Tracef@@YAXPBDZZ	; Tracef

; 330  : 
; 331  : 		IAbstractCharacterManager& rkChrMgr=IAbstractCharacterManager::GetSingleton();

  006b9	8b 0d 00 00 00
	00		 mov	 ecx, DWORD PTR ?ms_singleton@?$TAbstractSingleton@VIAbstractCharacterManager@@@@0PAVIAbstractCharacterManager@@A ; TAbstractSingleton<IAbstractCharacterManager>::ms_singleton
  006bf	83 c4 1c	 add	 esp, 28			; 0000001cH

; 332  : 
; 333  : 		CInstanceBase * pInstance = rkChrMgr.GetInstancePtr(dwVID);

  006c2	8b 01		 mov	 eax, DWORD PTR [ecx]
  006c4	ff 74 24 40	 push	 DWORD PTR _dwVID$1$[esp+196]
  006c8	ff 50 08	 call	 DWORD PTR [eax+8]

; 334  : 		if (!pInstance)

  006cb	85 c0		 test	 eax, eax
  006cd	75 13		 jne	 SHORT $LN59@ServerComm

; 335  : 		{
; 336  : 			TraceError("CPythonNetworkStream::ServerCommand(c_szCommand=%s) - Not Exist Instance", c_szCommand);

  006cf	57		 push	 edi
  006d0	68 00 00 00 00	 push	 OFFSET ??_C@_0EJ@MCLCAHNB@CPythonNetworkStream?3?3ServerComm@
  006d5	e8 00 00 00 00	 call	 ?TraceError@@YAXPBDZZ	; TraceError
  006da	83 c4 08	 add	 esp, 8
  006dd	e9 86 0a 00 00	 jmp	 $LN704@ServerComm
$LN59@ServerComm:
  006e2	f2 0f 10 44 24
	44		 movsd	 xmm0, QWORD PTR tv3185[esp+196]

; 342  : 		pInstance->NEW_GetPixelPosition(&PixelPosition);

  006e8	8d 4c 24 50	 lea	 ecx, DWORD PTR _PixelPosition$21[esp+196]
; File d:\metin2\metin2\client_source_clean\client_source_clean\extern\include\d3dx8math.inl

; 182  :     z = fz;

  006ec	66 0f 5a c0	 cvtpd2ps xmm0, xmm0
; File d:\metin2\metin2\client_source_clean\client_source_clean\source\userinterface\pythonnetworkstreamcommand.cpp

; 342  : 		pInstance->NEW_GetPixelPosition(&PixelPosition);

  006f0	51		 push	 ecx
  006f1	8b c8		 mov	 ecx, eax
; File d:\metin2\metin2\client_source_clean\client_source_clean\extern\include\d3dx8math.inl

; 180  :     x = fx;

  006f3	c7 44 24 6c 00
	00 00 00	 mov	 DWORD PTR _v3Rotation$23[esp+200], 0

; 181  :     y = fy;

  006fb	c7 44 24 70 00
	00 00 00	 mov	 DWORD PTR _v3Rotation$23[esp+204], 0

; 182  :     z = fz;

  00703	f3 0f 11 44 24
	74		 movss	 DWORD PTR _v3Rotation$23[esp+208], xmm0
; File d:\metin2\metin2\client_source_clean\client_source_clean\source\userinterface\pythonnetworkstreamcommand.cpp

; 342  : 		pInstance->NEW_GetPixelPosition(&PixelPosition);

  00709	e8 00 00 00 00	 call	 ?NEW_GetPixelPosition@CInstanceBase@@QAEXPAUD3DXVECTOR3@@@Z ; CInstanceBase::NEW_GetPixelPosition

; 343  : 
; 344  : 		PixelPosition.y *= -1.0f;

  0070e	f3 0f 10 44 24
	54		 movss	 xmm0, DWORD PTR _PixelPosition$21[esp+200]
  00714	f3 0f 59 05 00
	00 00 00	 mulss	 xmm0, DWORD PTR __real@bf800000
  0071c	f3 0f 11 44 24
	54		 movss	 DWORD PTR _PixelPosition$21[esp+200], xmm0

; 345  : 
; 346  : 		switch (byDistance)

  00722	83 fe 03	 cmp	 esi, 3
  00725	0f 87 d3 00 00
	00		 ja	 $LN52@ServerComm
  0072b	ff 24 b5 00 00
	00 00		 jmp	 DWORD PTR $LN714@ServerComm[esi*4]
$LN56@ServerComm:

; 347  : 		{
; 348  : 			case 0:
; 349  : 				CEffectManager::Instance().RegisterEffect("d:/ymir work/effect/etc/firecracker/find_out.mse");

  00732	8b 0d 00 00 00
	00		 mov	 ecx, DWORD PTR ?ms_singleton@?$CSingleton@VCEffectManager@@@@0PAVCEffectManager@@A ; CSingleton<CEffectManager>::ms_singleton
  00738	6a 00		 push	 0
  0073a	6a 00		 push	 0
  0073c	68 00 00 00 00	 push	 OFFSET ??_C@_0DB@CJFLAJFC@d?3?1ymir?5work?1effect?1etc?1firecrac@
  00741	e8 00 00 00 00	 call	 ?RegisterEffect@CEffectManager@@QAEHPBD_N1@Z ; CEffectManager::RegisterEffect

; 350  : 				CEffectManager::Instance().CreateEffect("d:/ymir work/effect/etc/firecracker/find_out.mse", PixelPosition, v3Rotation);

  00746	8b 0d 00 00 00
	00		 mov	 ecx, DWORD PTR ?ms_singleton@?$CSingleton@VCEffectManager@@@@0PAVCEffectManager@@A ; CSingleton<CEffectManager>::ms_singleton
  0074c	8d 44 24 68	 lea	 eax, DWORD PTR _v3Rotation$23[esp+196]
  00750	50		 push	 eax
  00751	8d 44 24 54	 lea	 eax, DWORD PTR _PixelPosition$21[esp+200]
  00755	50		 push	 eax
  00756	68 00 00 00 00	 push	 OFFSET ??_C@_0DB@CJFLAJFC@d?3?1ymir?5work?1effect?1etc?1firecrac@
  0075b	e8 00 00 00 00	 call	 ?CreateEffect@CEffectManager@@QAEHPBDABUD3DXVECTOR3@@1@Z ; CEffectManager::CreateEffect

; 351  : 				break;

  00760	e9 03 0a 00 00	 jmp	 $LN704@ServerComm
$LN55@ServerComm:

; 352  : 			case 1:
; 353  : 				CEffectManager::Instance().RegisterEffect("d:/ymir work/effect/etc/compass/appear_small.mse");

  00765	8b 0d 00 00 00
	00		 mov	 ecx, DWORD PTR ?ms_singleton@?$CSingleton@VCEffectManager@@@@0PAVCEffectManager@@A ; CSingleton<CEffectManager>::ms_singleton
  0076b	6a 00		 push	 0
  0076d	6a 00		 push	 0
  0076f	68 00 00 00 00	 push	 OFFSET ??_C@_0DB@KDMGCNFI@d?3?1ymir?5work?1effect?1etc?1compass?1@
  00774	e8 00 00 00 00	 call	 ?RegisterEffect@CEffectManager@@QAEHPBD_N1@Z ; CEffectManager::RegisterEffect

; 354  : 				CEffectManager::Instance().CreateEffect("d:/ymir work/effect/etc/compass/appear_small.mse", PixelPosition, v3Rotation);

  00779	8b 0d 00 00 00
	00		 mov	 ecx, DWORD PTR ?ms_singleton@?$CSingleton@VCEffectManager@@@@0PAVCEffectManager@@A ; CSingleton<CEffectManager>::ms_singleton
  0077f	8d 44 24 68	 lea	 eax, DWORD PTR _v3Rotation$23[esp+196]
  00783	50		 push	 eax
  00784	8d 44 24 54	 lea	 eax, DWORD PTR _PixelPosition$21[esp+200]
  00788	50		 push	 eax
  00789	68 00 00 00 00	 push	 OFFSET ??_C@_0DB@KDMGCNFI@d?3?1ymir?5work?1effect?1etc?1compass?1@
  0078e	e8 00 00 00 00	 call	 ?CreateEffect@CEffectManager@@QAEHPBDABUD3DXVECTOR3@@1@Z ; CEffectManager::CreateEffect

; 355  : 				break;

  00793	e9 d0 09 00 00	 jmp	 $LN704@ServerComm
$LN54@ServerComm:

; 356  : 			case 2:
; 357  : 				CEffectManager::Instance().RegisterEffect("d:/ymir work/effect/etc/compass/appear_middle.mse");

  00798	8b 0d 00 00 00
	00		 mov	 ecx, DWORD PTR ?ms_singleton@?$CSingleton@VCEffectManager@@@@0PAVCEffectManager@@A ; CSingleton<CEffectManager>::ms_singleton
  0079e	6a 00		 push	 0
  007a0	6a 00		 push	 0
  007a2	68 00 00 00 00	 push	 OFFSET ??_C@_0DC@MDCBLGBM@d?3?1ymir?5work?1effect?1etc?1compass?1@
  007a7	e8 00 00 00 00	 call	 ?RegisterEffect@CEffectManager@@QAEHPBD_N1@Z ; CEffectManager::RegisterEffect

; 358  : 				CEffectManager::Instance().CreateEffect("d:/ymir work/effect/etc/compass/appear_middle.mse", PixelPosition, v3Rotation);

  007ac	8b 0d 00 00 00
	00		 mov	 ecx, DWORD PTR ?ms_singleton@?$CSingleton@VCEffectManager@@@@0PAVCEffectManager@@A ; CSingleton<CEffectManager>::ms_singleton
  007b2	8d 44 24 68	 lea	 eax, DWORD PTR _v3Rotation$23[esp+196]
  007b6	50		 push	 eax
  007b7	8d 44 24 54	 lea	 eax, DWORD PTR _PixelPosition$21[esp+200]
  007bb	50		 push	 eax
  007bc	68 00 00 00 00	 push	 OFFSET ??_C@_0DC@MDCBLGBM@d?3?1ymir?5work?1effect?1etc?1compass?1@
  007c1	e8 00 00 00 00	 call	 ?CreateEffect@CEffectManager@@QAEHPBDABUD3DXVECTOR3@@1@Z ; CEffectManager::CreateEffect

; 359  : 				break;

  007c6	e9 9d 09 00 00	 jmp	 $LN704@ServerComm
$LN53@ServerComm:

; 360  : 			case 3:
; 361  : 				CEffectManager::Instance().RegisterEffect("d:/ymir work/effect/etc/compass/appear_large.mse");

  007cb	8b 0d 00 00 00
	00		 mov	 ecx, DWORD PTR ?ms_singleton@?$CSingleton@VCEffectManager@@@@0PAVCEffectManager@@A ; CSingleton<CEffectManager>::ms_singleton
  007d1	6a 00		 push	 0
  007d3	6a 00		 push	 0
  007d5	68 00 00 00 00	 push	 OFFSET ??_C@_0DB@EEGLDHND@d?3?1ymir?5work?1effect?1etc?1compass?1@
  007da	e8 00 00 00 00	 call	 ?RegisterEffect@CEffectManager@@QAEHPBD_N1@Z ; CEffectManager::RegisterEffect

; 362  : 				CEffectManager::Instance().CreateEffect("d:/ymir work/effect/etc/compass/appear_large.mse", PixelPosition, v3Rotation);

  007df	8b 0d 00 00 00
	00		 mov	 ecx, DWORD PTR ?ms_singleton@?$CSingleton@VCEffectManager@@@@0PAVCEffectManager@@A ; CSingleton<CEffectManager>::ms_singleton
  007e5	8d 44 24 68	 lea	 eax, DWORD PTR _v3Rotation$23[esp+196]
  007e9	50		 push	 eax
  007ea	8d 44 24 54	 lea	 eax, DWORD PTR _PixelPosition$21[esp+200]
  007ee	50		 push	 eax
  007ef	68 00 00 00 00	 push	 OFFSET ??_C@_0DB@EEGLDHND@d?3?1ymir?5work?1effect?1etc?1compass?1@
  007f4	e8 00 00 00 00	 call	 ?CreateEffect@CEffectManager@@QAEHPBDABUD3DXVECTOR3@@1@Z ; CEffectManager::CreateEffect

; 363  : 				break;

  007f9	e9 6a 09 00 00	 jmp	 $LN704@ServerComm
$LN52@ServerComm:

; 364  : 			default:
; 365  : 				TraceError("CPythonNetworkStream::ServerCommand(c_szCommand=%s) - Strange Distance", c_szCommand);

  007fe	57		 push	 edi
  007ff	68 00 00 00 00	 push	 OFFSET ??_C@_0EH@NKAADCPI@CPythonNetworkStream?3?3ServerComm@
  00804	e8 00 00 00 00	 call	 ?TraceError@@YAXPBDZZ	; TraceError
  00809	83 c4 08	 add	 esp, 8

; 366  : 				break;
; 367  : 		}
; 368  : 
; 369  : #ifdef _DEBUG
; 370  : 		IAbstractChat& rkChat=IAbstractChat::GetSingleton();
; 371  : 		rkChat.AppendChat(CHAT_TYPE_INFO, c_szCommand);
; 372  : #endif
; 373  : 	}
; 374  : 	else if (!strcmpi(szCmd, "StartStaminaConsume"))

  0080c	e9 57 09 00 00	 jmp	 $LN704@ServerComm
$LN61@ServerComm:
  00811	68 00 00 00 00	 push	 OFFSET ??_C@_0BE@FMEJBOHN@StartStaminaConsume?$AA@
  00816	56		 push	 esi
  00817	e8 00 00 00 00	 call	 __strcmpi
  0081c	83 c4 08	 add	 esp, 8
  0081f	85 c0		 test	 eax, eax
  00821	75 6b		 jne	 SHORT $LN50@ServerComm
; File c:\program files (x86)\microsoft visual studio 12.0\vc\include\vector

; 1148 : 		return (this->_Mylast - this->_Myfirst);

  00823	8b 4c 24 34	 mov	 ecx, DWORD PTR _TokenVector$[esp+200]
  00827	b8 ab aa aa 2a	 mov	 eax, 715827883		; 2aaaaaabH
  0082c	2b cb		 sub	 ecx, ebx
  0082e	f7 e9		 imul	 ecx
  00830	c1 fa 02	 sar	 edx, 2
  00833	8b c2		 mov	 eax, edx
  00835	c1 e8 1f	 shr	 eax, 31			; 0000001fH
  00838	03 c2		 add	 eax, edx
; File d:\metin2\metin2\client_source_clean\client_source_clean\source\userinterface\pythonnetworkstreamcommand.cpp

; 376  : 		if (3 != TokenVector.size())

  0083a	83 f8 03	 cmp	 eax, 3
  0083d	74 13		 je	 SHORT $LN49@ServerComm

; 377  : 		{
; 378  : 			TraceError("CPythonNetworkStream::ServerCommand(c_szCommand=%s) - Strange Parameter Count : %s", c_szCommand);

  0083f	57		 push	 edi
  00840	68 00 00 00 00	 push	 OFFSET ??_C@_0FD@MGEFFJHF@CPythonNetworkStream?3?3ServerComm@
  00845	e8 00 00 00 00	 call	 ?TraceError@@YAXPBDZZ	; TraceError
  0084a	83 c4 08	 add	 esp, 8
  0084d	e9 16 09 00 00	 jmp	 $LN704@ServerComm
$LN49@ServerComm:
; File c:\program files (x86)\microsoft visual studio 12.0\vc\include\xstring

; 520  : 			: this->_Bx._Buf);

  00852	83 7b 2c 10	 cmp	 DWORD PTR [ebx+44], 16	; 00000010H
; File c:\program files (x86)\microsoft visual studio 12.0\vc\include\vector

; 1209 : 		return (*(this->_Myfirst + _Pos));

  00856	8d 43 18	 lea	 eax, DWORD PTR [ebx+24]
; File c:\program files (x86)\microsoft visual studio 12.0\vc\include\xstring

; 520  : 			: this->_Bx._Buf);

  00859	72 02		 jb	 SHORT $LN402@ServerComm
; File c:\program files (x86)\microsoft visual studio 12.0\vc\include\xstddef

; 95   : 		reinterpret_cast<const volatile char&>(_Val)))));

  0085b	8b 00		 mov	 eax, DWORD PTR [eax]
$LN402@ServerComm:
; File d:\metin2\metin2\client_source_clean\client_source_clean\source\userinterface\pythonnetworkstreamcommand.cpp

; 382  : 		DWORD dwConsumePerSec = atoi(TokenVector[1].c_str());

  0085d	50		 push	 eax
  0085e	e8 00 00 00 00	 call	 __atoi64
; File c:\program files (x86)\microsoft visual studio 12.0\vc\include\vector

; 1209 : 		return (*(this->_Myfirst + _Pos));

  00863	8d 4b 30	 lea	 ecx, DWORD PTR [ebx+48]
; File d:\metin2\metin2\client_source_clean\client_source_clean\source\userinterface\pythonnetworkstreamcommand.cpp

; 382  : 		DWORD dwConsumePerSec = atoi(TokenVector[1].c_str());

  00866	83 c4 04	 add	 esp, 4
; File c:\program files (x86)\microsoft visual studio 12.0\vc\include\xstring

; 520  : 			: this->_Bx._Buf);

  00869	83 79 14 10	 cmp	 DWORD PTR [ecx+20], 16	; 00000010H
; File d:\metin2\metin2\client_source_clean\client_source_clean\source\userinterface\pythonnetworkstreamcommand.cpp

; 382  : 		DWORD dwConsumePerSec = atoi(TokenVector[1].c_str());

  0086d	8b f0		 mov	 esi, eax
; File c:\program files (x86)\microsoft visual studio 12.0\vc\include\xstring

; 520  : 			: this->_Bx._Buf);

  0086f	72 02		 jb	 SHORT $LN412@ServerComm
; File c:\program files (x86)\microsoft visual studio 12.0\vc\include\xstddef

; 95   : 		reinterpret_cast<const volatile char&>(_Val)))));

  00871	8b 09		 mov	 ecx, DWORD PTR [ecx]
$LN412@ServerComm:
; File d:\metin2\metin2\client_source_clean\client_source_clean\source\userinterface\pythonnetworkstreamcommand.cpp

; 383  : 		DWORD dwCurrentStamina = atoi(TokenVector[2].c_str());

  00873	51		 push	 ecx
  00874	e8 00 00 00 00	 call	 __atoi64

; 384  : 
; 385  : 		IAbstractPlayer& rPlayer=IAbstractPlayer::GetSingleton();

  00879	8b 0d 00 00 00
	00		 mov	 ecx, DWORD PTR ?ms_singleton@?$TAbstractSingleton@VIAbstractPlayer@@@@0PAVIAbstractPlayer@@A ; TAbstractSingleton<IAbstractPlayer>::ms_singleton
  0087f	83 c4 04	 add	 esp, 4

; 386  : 		rPlayer.StartStaminaConsume(dwConsumePerSec, dwCurrentStamina);

  00882	8b 11		 mov	 edx, DWORD PTR [ecx]
  00884	50		 push	 eax
  00885	56		 push	 esi
  00886	ff 52 1c	 call	 DWORD PTR [edx+28]
  00889	e9 da 08 00 00	 jmp	 $LN704@ServerComm
$LN50@ServerComm:

; 387  : 	}
; 388  : 	
; 389  : 	else if (!strcmpi(szCmd, "StopStaminaConsume"))

  0088e	68 00 00 00 00	 push	 OFFSET ??_C@_0BD@IEDOLMCO@StopStaminaConsume?$AA@
  00893	56		 push	 esi
  00894	e8 00 00 00 00	 call	 __strcmpi
  00899	83 c4 08	 add	 esp, 8
  0089c	85 c0		 test	 eax, eax
  0089e	75 55		 jne	 SHORT $LN47@ServerComm
; File c:\program files (x86)\microsoft visual studio 12.0\vc\include\vector

; 1148 : 		return (this->_Mylast - this->_Myfirst);

  008a0	8b 4c 24 34	 mov	 ecx, DWORD PTR _TokenVector$[esp+200]
  008a4	b8 ab aa aa 2a	 mov	 eax, 715827883		; 2aaaaaabH
  008a9	2b cb		 sub	 ecx, ebx
  008ab	f7 e9		 imul	 ecx
  008ad	c1 fa 02	 sar	 edx, 2
  008b0	8b c2		 mov	 eax, edx
  008b2	c1 e8 1f	 shr	 eax, 31			; 0000001fH
  008b5	03 c2		 add	 eax, edx
; File d:\metin2\metin2\client_source_clean\client_source_clean\source\userinterface\pythonnetworkstreamcommand.cpp

; 391  : 		if (2 != TokenVector.size())

  008b7	83 f8 02	 cmp	 eax, 2
  008ba	74 14		 je	 SHORT $LN46@ServerComm

; 392  : 		{
; 393  : 			TraceError("CPythonNetworkStream::ServerCommand(c_szCommand=%s) - Strange Parameter Count : %d", c_szCommand, TokenVector.size());

  008bc	50		 push	 eax
  008bd	57		 push	 edi
  008be	68 00 00 00 00	 push	 OFFSET ??_C@_0FD@MDMGNNOD@CPythonNetworkStream?3?3ServerComm@
  008c3	e8 00 00 00 00	 call	 ?TraceError@@YAXPBDZZ	; TraceError
  008c8	83 c4 0c	 add	 esp, 12			; 0000000cH
  008cb	e9 98 08 00 00	 jmp	 $LN704@ServerComm
$LN46@ServerComm:
; File c:\program files (x86)\microsoft visual studio 12.0\vc\include\xstring

; 520  : 			: this->_Bx._Buf);

  008d0	83 7b 2c 10	 cmp	 DWORD PTR [ebx+44], 16	; 00000010H
; File c:\program files (x86)\microsoft visual studio 12.0\vc\include\vector

; 1209 : 		return (*(this->_Myfirst + _Pos));

  008d4	8d 43 18	 lea	 eax, DWORD PTR [ebx+24]
; File c:\program files (x86)\microsoft visual studio 12.0\vc\include\xstring

; 520  : 			: this->_Bx._Buf);

  008d7	72 02		 jb	 SHORT $LN428@ServerComm
; File c:\program files (x86)\microsoft visual studio 12.0\vc\include\xstddef

; 95   : 		reinterpret_cast<const volatile char&>(_Val)))));

  008d9	8b 00		 mov	 eax, DWORD PTR [eax]
$LN428@ServerComm:
; File d:\metin2\metin2\client_source_clean\client_source_clean\source\userinterface\pythonnetworkstreamcommand.cpp

; 397  : 		DWORD dwCurrentStamina = atoi(TokenVector[1].c_str());

  008db	50		 push	 eax
  008dc	e8 00 00 00 00	 call	 __atoi64

; 398  : 
; 399  : 		IAbstractPlayer& rPlayer=IAbstractPlayer::GetSingleton();

  008e1	8b 0d 00 00 00
	00		 mov	 ecx, DWORD PTR ?ms_singleton@?$TAbstractSingleton@VIAbstractPlayer@@@@0PAVIAbstractPlayer@@A ; TAbstractSingleton<IAbstractPlayer>::ms_singleton
  008e7	83 c4 04	 add	 esp, 4

; 400  : 		rPlayer.StopStaminaConsume(dwCurrentStamina);

  008ea	8b 11		 mov	 edx, DWORD PTR [ecx]
  008ec	50		 push	 eax
  008ed	ff 52 20	 call	 DWORD PTR [edx+32]
  008f0	e9 73 08 00 00	 jmp	 $LN704@ServerComm
$LN47@ServerComm:

; 401  : 	}
; 402  : 	else if (!strcmpi(szCmd, "sms"))

  008f5	68 00 00 00 00	 push	 OFFSET ??_C@_03ODCMFNNH@sms?$AA@
  008fa	56		 push	 esi
  008fb	e8 00 00 00 00	 call	 __strcmpi
  00900	83 c4 08	 add	 esp, 8
  00903	85 c0		 test	 eax, eax
  00905	75 12		 jne	 SHORT $LN44@ServerComm

; 403  : 	{
; 404  : 		IAbstractPlayer& rPlayer=IAbstractPlayer::GetSingleton();

  00907	8b 0d 00 00 00
	00		 mov	 ecx, DWORD PTR ?ms_singleton@?$TAbstractSingleton@VIAbstractPlayer@@@@0PAVIAbstractPlayer@@A ; TAbstractSingleton<IAbstractPlayer>::ms_singleton

; 405  : 		rPlayer.SetMobileFlag(TRUE);

  0090d	6a 01		 push	 1
  0090f	8b 01		 mov	 eax, DWORD PTR [ecx]
  00911	ff 50 78	 call	 DWORD PTR [eax+120]
  00914	e9 4f 08 00 00	 jmp	 $LN704@ServerComm
$LN44@ServerComm:

; 406  : 	}
; 407  : 	else if (!strcmpi(szCmd, "nosms"))

  00919	68 00 00 00 00	 push	 OFFSET ??_C@_05FKDGKNNO@nosms?$AA@
  0091e	56		 push	 esi
  0091f	e8 00 00 00 00	 call	 __strcmpi
  00924	83 c4 08	 add	 esp, 8
  00927	85 c0		 test	 eax, eax
  00929	75 12		 jne	 SHORT $LN42@ServerComm

; 408  : 	{
; 409  : 		IAbstractPlayer& rPlayer=IAbstractPlayer::GetSingleton();

  0092b	8b 0d 00 00 00
	00		 mov	 ecx, DWORD PTR ?ms_singleton@?$TAbstractSingleton@VIAbstractPlayer@@@@0PAVIAbstractPlayer@@A ; TAbstractSingleton<IAbstractPlayer>::ms_singleton

; 410  : 		rPlayer.SetMobileFlag(FALSE);

  00931	6a 00		 push	 0
  00933	8b 01		 mov	 eax, DWORD PTR [ecx]
  00935	ff 50 78	 call	 DWORD PTR [eax+120]
  00938	e9 2b 08 00 00	 jmp	 $LN704@ServerComm
$LN42@ServerComm:

; 411  : 	}
; 412  : 	else if (!strcmpi(szCmd, "mobile_auth"))

  0093d	68 00 00 00 00	 push	 OFFSET ??_C@_0M@HBFEJGNO@mobile_auth?$AA@
  00942	56		 push	 esi
  00943	e8 00 00 00 00	 call	 __strcmpi
  00948	83 c4 08	 add	 esp, 8
  0094b	85 c0		 test	 eax, eax
  0094d	75 1a		 jne	 SHORT $LN40@ServerComm

; 413  : 	{
; 414  : 		PyCallClassMemberFunc(m_apoPhaseWnd[PHASE_WINDOW_GAME], "OnMobileAuthority", Py_BuildValue("()"));

  0094f	a1 00 00 00 00	 mov	 eax, DWORD PTR __imp__Py_BuildValue
  00954	68 00 00 00 00	 push	 OFFSET ??_C@_02HCKGKOFO@?$CI?$CJ?$AA@
  00959	ff d0		 call	 eax
  0095b	83 c4 04	 add	 esp, 4
  0095e	50		 push	 eax
  0095f	68 00 00 00 00	 push	 OFFSET ??_C@_0BC@PFMPDKEI@OnMobileAuthority?$AA@
  00964	e9 3b f8 ff ff	 jmp	 $LN709@ServerComm
$LN40@ServerComm:

; 415  : 	}
; 416  : 	else if (!strcmpi(szCmd, "messenger_auth"))

  00969	68 00 00 00 00	 push	 OFFSET ??_C@_0P@EGMHBKG@messenger_auth?$AA@
  0096e	56		 push	 esi
  0096f	e8 00 00 00 00	 call	 __strcmpi
  00974	83 c4 08	 add	 esp, 8
  00977	85 c0		 test	 eax, eax
  00979	75 5e		 jne	 SHORT $LN38@ServerComm
; File c:\program files (x86)\microsoft visual studio 12.0\vc\include\xstring

; 520  : 			: this->_Bx._Buf);

  0097b	83 7b 2c 10	 cmp	 DWORD PTR [ebx+44], 16	; 00000010H
; File c:\program files (x86)\microsoft visual studio 12.0\vc\include\vector

; 1209 : 		return (*(this->_Myfirst + _Pos));

  0097f	8d 43 18	 lea	 eax, DWORD PTR [ebx+24]
; File c:\program files (x86)\microsoft visual studio 12.0\vc\include\xstring

; 520  : 			: this->_Bx._Buf);

  00982	72 02		 jb	 SHORT $LN444@ServerComm
; File c:\program files (x86)\microsoft visual studio 12.0\vc\include\xstddef

; 95   : 		reinterpret_cast<const volatile char&>(_Val)))));

  00984	8b 00		 mov	 eax, DWORD PTR [eax]
$LN444@ServerComm:
; File d:\metin2\metin2\client_source_clean\client_source_clean\source\userinterface\pythonnetworkstreamcommand.cpp

; 418  : 		const std::string & c_rstrName = TokenVector[1].c_str();

  00986	50		 push	 eax
  00987	8d 4c 24 54	 lea	 ecx, DWORD PTR _$S1$20[esp+200]
  0098b	e8 00 00 00 00	 call	 ??0?$basic_string@DU?$char_traits@D@std@@V?$allocator@D@2@@std@@QAE@PBD@Z ; std::basic_string<char,std::char_traits<char>,std::allocator<char> >::basic_string<char,std::char_traits<char>,std::allocator<char> >
  00990	c6 84 24 c0 00
	00 00 01	 mov	 BYTE PTR __$EHRec$[esp+204], 1
; File c:\program files (x86)\microsoft visual studio 12.0\vc\include\xstring

; 520  : 			: this->_Bx._Buf);

  00998	8d 44 24 50	 lea	 eax, DWORD PTR _$S1$20[esp+196]
  0099c	83 7c 24 64 10	 cmp	 DWORD PTR _$S1$20[esp+216], 16 ; 00000010H
  009a1	0f 43 44 24 50	 cmovae	 eax, DWORD PTR _$S1$20[esp+196]
; File d:\metin2\metin2\client_source_clean\client_source_clean\source\userinterface\pythonnetworkstreamcommand.cpp

; 419  : 		PyCallClassMemberFunc(m_apoPhaseWnd[PHASE_WINDOW_GAME], "OnMessengerAddFriendQuestion", Py_BuildValue("(s)", c_rstrName.c_str()));

  009a6	50		 push	 eax
  009a7	a1 00 00 00 00	 mov	 eax, DWORD PTR __imp__Py_BuildValue
  009ac	68 00 00 00 00	 push	 OFFSET ??_C@_03KJMMOONA@?$CIs?$CJ?$AA@
  009b1	ff d0		 call	 eax
  009b3	8b 4c 24 48	 mov	 ecx, DWORD PTR _this$GSCopy$1$[esp+204]
  009b7	50		 push	 eax
  009b8	68 00 00 00 00	 push	 OFFSET ??_C@_0BN@HFJFNDOJ@OnMessengerAddFriendQuestion?$AA@
  009bd	ff b1 90 01 00
	00		 push	 DWORD PTR [ecx+400]
  009c3	e8 00 00 00 00	 call	 ?PyCallClassMemberFunc@@YA_NPAU_object@@PBD0@Z ; PyCallClassMemberFunc
  009c8	83 c4 14	 add	 esp, 20			; 00000014H

; 420  : 	}

  009cb	8d 4c 24 50	 lea	 ecx, DWORD PTR _$S1$20[esp+196]
  009cf	e8 00 00 00 00	 call	 ??1?$basic_string@DU?$char_traits@D@std@@V?$allocator@D@2@@std@@QAE@XZ ; std::basic_string<char,std::char_traits<char>,std::allocator<char> >::~basic_string<char,std::char_traits<char>,std::allocator<char> >
  009d4	e9 8f 07 00 00	 jmp	 $LN704@ServerComm
$LN38@ServerComm:

; 421  : 	else if (!strcmpi(szCmd, "combo"))

  009d9	68 00 00 00 00	 push	 OFFSET ??_C@_05LLEFIEMM@combo?$AA@
  009de	56		 push	 esi
  009df	e8 00 00 00 00	 call	 __strcmpi
  009e4	83 c4 08	 add	 esp, 8
  009e7	85 c0		 test	 eax, eax
  009e9	75 36		 jne	 SHORT $LN36@ServerComm
; File c:\program files (x86)\microsoft visual studio 12.0\vc\include\xstring

; 520  : 			: this->_Bx._Buf);

  009eb	83 7b 2c 10	 cmp	 DWORD PTR [ebx+44], 16	; 00000010H
; File c:\program files (x86)\microsoft visual studio 12.0\vc\include\vector

; 1209 : 		return (*(this->_Myfirst + _Pos));

  009ef	8d 43 18	 lea	 eax, DWORD PTR [ebx+24]
; File c:\program files (x86)\microsoft visual studio 12.0\vc\include\xstring

; 520  : 			: this->_Bx._Buf);

  009f2	72 02		 jb	 SHORT $LN462@ServerComm
; File c:\program files (x86)\microsoft visual studio 12.0\vc\include\xstddef

; 95   : 		reinterpret_cast<const volatile char&>(_Val)))));

  009f4	8b 00		 mov	 eax, DWORD PTR [eax]
$LN462@ServerComm:
; File d:\metin2\metin2\client_source_clean\client_source_clean\source\userinterface\pythonnetworkstreamcommand.cpp

; 423  : 		int iFlag = atoi(TokenVector[1].c_str());

  009f6	50		 push	 eax
  009f7	e8 00 00 00 00	 call	 __atoi64

; 424  : 		IAbstractPlayer& rPlayer=IAbstractPlayer::GetSingleton();

  009fc	8b 0d 00 00 00
	00		 mov	 ecx, DWORD PTR ?ms_singleton@?$TAbstractSingleton@VIAbstractPlayer@@@@0PAVIAbstractPlayer@@A ; TAbstractSingleton<IAbstractPlayer>::ms_singleton
  00a02	83 c4 04	 add	 esp, 4
  00a05	8b f0		 mov	 esi, eax

; 425  : 		rPlayer.SetComboSkillFlag(iFlag);

  00a07	8b 11		 mov	 edx, DWORD PTR [ecx]
  00a09	56		 push	 esi
  00a0a	ff 52 7c	 call	 DWORD PTR [edx+124]

; 426  : 		m_bComboSkillFlag = iFlag ? true : false;

  00a0d	8b 4c 24 40	 mov	 ecx, DWORD PTR _this$GSCopy$1$[esp+196]
  00a11	85 f6		 test	 esi, esi
  00a13	0f 95 c0	 setne	 al
  00a16	88 81 21 79 00
	00		 mov	 BYTE PTR [ecx+31009], al
  00a1c	e9 47 07 00 00	 jmp	 $LN704@ServerComm
$LN36@ServerComm:

; 427  : 	}
; 428  : 	else if (!strcmpi(szCmd, "setblockmode"))

  00a21	68 00 00 00 00	 push	 OFFSET ??_C@_0N@OCOPIGOC@setblockmode?$AA@
  00a26	56		 push	 esi
  00a27	e8 00 00 00 00	 call	 __strcmpi
  00a2c	83 c4 08	 add	 esp, 8
  00a2f	85 c0		 test	 eax, eax
  00a31	75 2c		 jne	 SHORT $LN34@ServerComm
; File c:\program files (x86)\microsoft visual studio 12.0\vc\include\xstring

; 520  : 			: this->_Bx._Buf);

  00a33	83 7b 2c 10	 cmp	 DWORD PTR [ebx+44], 16	; 00000010H
; File c:\program files (x86)\microsoft visual studio 12.0\vc\include\vector

; 1209 : 		return (*(this->_Myfirst + _Pos));

  00a37	8d 43 18	 lea	 eax, DWORD PTR [ebx+24]
; File c:\program files (x86)\microsoft visual studio 12.0\vc\include\xstring

; 520  : 			: this->_Bx._Buf);

  00a3a	72 02		 jb	 SHORT $LN474@ServerComm
; File c:\program files (x86)\microsoft visual studio 12.0\vc\include\xstddef

; 95   : 		reinterpret_cast<const volatile char&>(_Val)))));

  00a3c	8b 00		 mov	 eax, DWORD PTR [eax]
$LN474@ServerComm:
; File d:\metin2\metin2\client_source_clean\client_source_clean\source\userinterface\pythonnetworkstreamcommand.cpp

; 430  : 		int iFlag = atoi(TokenVector[1].c_str());

  00a3e	50		 push	 eax
  00a3f	e8 00 00 00 00	 call	 __atoi64
  00a44	83 c4 04	 add	 esp, 4

; 431  : 		PyCallClassMemberFunc(m_apoPhaseWnd[PHASE_WINDOW_GAME], "OnBlockMode", Py_BuildValue("(i)", iFlag));

  00a47	50		 push	 eax
  00a48	a1 00 00 00 00	 mov	 eax, DWORD PTR __imp__Py_BuildValue
  00a4d	68 00 00 00 00	 push	 OFFSET ??_C@_03LIHNMIHG@?$CIi?$CJ?$AA@
  00a52	ff d0		 call	 eax
  00a54	50		 push	 eax
  00a55	68 00 00 00 00	 push	 OFFSET ??_C@_0M@KBLDJFEH@OnBlockMode?$AA@
  00a5a	e9 f5 f7 ff ff	 jmp	 $LN711@ServerComm
$LN34@ServerComm:

; 432  : 	}
; 433  : 	// Emotion Start
; 434  : 	else if (!strcmpi(szCmd, "french_kiss"))

  00a5f	68 00 00 00 00	 push	 OFFSET ??_C@_0M@KHOIJDFJ@french_kiss?$AA@
  00a64	56		 push	 esi
  00a65	e8 00 00 00 00	 call	 __strcmpi
  00a6a	83 c4 08	 add	 esp, 8
  00a6d	85 c0		 test	 eax, eax
  00a6f	75 74		 jne	 SHORT $LN32@ServerComm
; File c:\program files (x86)\microsoft visual studio 12.0\vc\include\xstring

; 520  : 			: this->_Bx._Buf);

  00a71	83 7b 2c 10	 cmp	 DWORD PTR [ebx+44], 16	; 00000010H
; File c:\program files (x86)\microsoft visual studio 12.0\vc\include\vector

; 1209 : 		return (*(this->_Myfirst + _Pos));

  00a75	8d 43 18	 lea	 eax, DWORD PTR [ebx+24]
; File c:\program files (x86)\microsoft visual studio 12.0\vc\include\xstring

; 520  : 			: this->_Bx._Buf);

  00a78	72 02		 jb	 SHORT $LN484@ServerComm
; File c:\program files (x86)\microsoft visual studio 12.0\vc\include\xstddef

; 95   : 		reinterpret_cast<const volatile char&>(_Val)))));

  00a7a	8b 00		 mov	 eax, DWORD PTR [eax]
$LN484@ServerComm:
; File d:\metin2\metin2\client_source_clean\client_source_clean\source\userinterface\pythonnetworkstreamcommand.cpp

; 436  : 		int iVID1 = atoi(TokenVector[1].c_str());

  00a7c	50		 push	 eax
  00a7d	e8 00 00 00 00	 call	 __atoi64
; File c:\program files (x86)\microsoft visual studio 12.0\vc\include\vector

; 1209 : 		return (*(this->_Myfirst + _Pos));

  00a82	8d 4b 30	 lea	 ecx, DWORD PTR [ebx+48]
; File d:\metin2\metin2\client_source_clean\client_source_clean\source\userinterface\pythonnetworkstreamcommand.cpp

; 436  : 		int iVID1 = atoi(TokenVector[1].c_str());

  00a85	89 44 24 40	 mov	 DWORD PTR _iVID1$1$[esp+200], eax
  00a89	83 c4 04	 add	 esp, 4
; File c:\program files (x86)\microsoft visual studio 12.0\vc\include\xstring

; 520  : 			: this->_Bx._Buf);

  00a8c	83 79 14 10	 cmp	 DWORD PTR [ecx+20], 16	; 00000010H
  00a90	72 02		 jb	 SHORT $LN494@ServerComm
; File c:\program files (x86)\microsoft visual studio 12.0\vc\include\xstddef

; 95   : 		reinterpret_cast<const volatile char&>(_Val)))));

  00a92	8b 09		 mov	 ecx, DWORD PTR [ecx]
$LN494@ServerComm:
; File d:\metin2\metin2\client_source_clean\client_source_clean\source\userinterface\pythonnetworkstreamcommand.cpp

; 437  : 		int iVID2 = atoi(TokenVector[2].c_str());

  00a94	51		 push	 ecx
  00a95	e8 00 00 00 00	 call	 __atoi64

; 438  : 
; 439  : 		IAbstractCharacterManager & rkChrMgr = IAbstractCharacterManager::GetSingleton();

  00a9a	8b 3d 00 00 00
	00		 mov	 edi, DWORD PTR ?ms_singleton@?$TAbstractSingleton@VIAbstractCharacterManager@@@@0PAVIAbstractCharacterManager@@A ; TAbstractSingleton<IAbstractCharacterManager>::ms_singleton
  00aa0	83 c4 04	 add	 esp, 4

; 440  : 		CInstanceBase * pInstance1 = rkChrMgr.GetInstancePtr(iVID1);

  00aa3	8b cf		 mov	 ecx, edi
  00aa5	8b f0		 mov	 esi, eax
  00aa7	8b 17		 mov	 edx, DWORD PTR [edi]
  00aa9	ff 74 24 3c	 push	 DWORD PTR _iVID1$1$[esp+196]
  00aad	ff 52 08	 call	 DWORD PTR [edx+8]

; 441  : 		CInstanceBase * pInstance2 = rkChrMgr.GetInstancePtr(iVID2);

  00ab0	8b 17		 mov	 edx, DWORD PTR [edi]
  00ab2	8b cf		 mov	 ecx, edi
  00ab4	56		 push	 esi
  00ab5	89 44 24 40	 mov	 DWORD PTR _pInstance1$1$[esp+200], eax
  00ab9	ff 52 08	 call	 DWORD PTR [edx+8]

; 442  : 		if (pInstance1 && pInstance2)

  00abc	8b 4c 24 3c	 mov	 ecx, DWORD PTR _pInstance1$1$[esp+196]
  00ac0	85 c9		 test	 ecx, ecx
  00ac2	0f 84 a0 06 00
	00		 je	 $LN704@ServerComm
  00ac8	85 c0		 test	 eax, eax
  00aca	0f 84 98 06 00
	00		 je	 $LN704@ServerComm

; 443  : 			pInstance1->ActDualEmotion(*pInstance2, CRaceMotionData::NAME_FRENCH_KISS_START, CRaceMotionData::NAME_FRENCH_KISS_START);

  00ad0	68 39 01 00 00	 push	 313			; 00000139H
  00ad5	68 39 01 00 00	 push	 313			; 00000139H
  00ada	50		 push	 eax
  00adb	e8 00 00 00 00	 call	 ?ActDualEmotion@CInstanceBase@@QAEXAAV1@GG@Z ; CInstanceBase::ActDualEmotion

; 444  : 	}

  00ae0	e9 83 06 00 00	 jmp	 $LN704@ServerComm
$LN32@ServerComm:

; 445  : 	else if (!strcmpi(szCmd, "kiss"))

  00ae5	68 00 00 00 00	 push	 OFFSET ??_C@_04MDLEAKAL@kiss?$AA@
  00aea	56		 push	 esi
  00aeb	e8 00 00 00 00	 call	 __strcmpi
  00af0	83 c4 08	 add	 esp, 8
  00af3	85 c0		 test	 eax, eax
  00af5	75 74		 jne	 SHORT $LN29@ServerComm
; File c:\program files (x86)\microsoft visual studio 12.0\vc\include\xstring

; 520  : 			: this->_Bx._Buf);

  00af7	83 7b 2c 10	 cmp	 DWORD PTR [ebx+44], 16	; 00000010H
; File c:\program files (x86)\microsoft visual studio 12.0\vc\include\vector

; 1209 : 		return (*(this->_Myfirst + _Pos));

  00afb	8d 43 18	 lea	 eax, DWORD PTR [ebx+24]
; File c:\program files (x86)\microsoft visual studio 12.0\vc\include\xstring

; 520  : 			: this->_Bx._Buf);

  00afe	72 02		 jb	 SHORT $LN506@ServerComm
; File c:\program files (x86)\microsoft visual studio 12.0\vc\include\xstddef

; 95   : 		reinterpret_cast<const volatile char&>(_Val)))));

  00b00	8b 00		 mov	 eax, DWORD PTR [eax]
$LN506@ServerComm:
; File d:\metin2\metin2\client_source_clean\client_source_clean\source\userinterface\pythonnetworkstreamcommand.cpp

; 447  : 		int iVID1 = atoi(TokenVector[1].c_str());

  00b02	50		 push	 eax
  00b03	e8 00 00 00 00	 call	 __atoi64
; File c:\program files (x86)\microsoft visual studio 12.0\vc\include\vector

; 1209 : 		return (*(this->_Myfirst + _Pos));

  00b08	8d 4b 30	 lea	 ecx, DWORD PTR [ebx+48]
; File d:\metin2\metin2\client_source_clean\client_source_clean\source\userinterface\pythonnetworkstreamcommand.cpp

; 447  : 		int iVID1 = atoi(TokenVector[1].c_str());

  00b0b	89 44 24 40	 mov	 DWORD PTR _iVID1$1$[esp+200], eax
  00b0f	83 c4 04	 add	 esp, 4
; File c:\program files (x86)\microsoft visual studio 12.0\vc\include\xstring

; 520  : 			: this->_Bx._Buf);

  00b12	83 79 14 10	 cmp	 DWORD PTR [ecx+20], 16	; 00000010H
  00b16	72 02		 jb	 SHORT $LN516@ServerComm
; File c:\program files (x86)\microsoft visual studio 12.0\vc\include\xstddef

; 95   : 		reinterpret_cast<const volatile char&>(_Val)))));

  00b18	8b 09		 mov	 ecx, DWORD PTR [ecx]
$LN516@ServerComm:
; File d:\metin2\metin2\client_source_clean\client_source_clean\source\userinterface\pythonnetworkstreamcommand.cpp

; 448  : 		int iVID2 = atoi(TokenVector[2].c_str());

  00b1a	51		 push	 ecx
  00b1b	e8 00 00 00 00	 call	 __atoi64

; 449  : 
; 450  : 		IAbstractCharacterManager & rkChrMgr = IAbstractCharacterManager::GetSingleton();

  00b20	8b 3d 00 00 00
	00		 mov	 edi, DWORD PTR ?ms_singleton@?$TAbstractSingleton@VIAbstractCharacterManager@@@@0PAVIAbstractCharacterManager@@A ; TAbstractSingleton<IAbstractCharacterManager>::ms_singleton
  00b26	83 c4 04	 add	 esp, 4

; 451  : 		CInstanceBase * pInstance1 = rkChrMgr.GetInstancePtr(iVID1);

  00b29	8b cf		 mov	 ecx, edi
  00b2b	8b f0		 mov	 esi, eax
  00b2d	8b 17		 mov	 edx, DWORD PTR [edi]
  00b2f	ff 74 24 3c	 push	 DWORD PTR _iVID1$1$[esp+196]
  00b33	ff 52 08	 call	 DWORD PTR [edx+8]

; 452  : 		CInstanceBase * pInstance2 = rkChrMgr.GetInstancePtr(iVID2);

  00b36	8b 17		 mov	 edx, DWORD PTR [edi]
  00b38	8b cf		 mov	 ecx, edi
  00b3a	56		 push	 esi
  00b3b	89 44 24 40	 mov	 DWORD PTR _pInstance1$1$[esp+200], eax
  00b3f	ff 52 08	 call	 DWORD PTR [edx+8]

; 453  : 		if (pInstance1 && pInstance2)

  00b42	8b 4c 24 3c	 mov	 ecx, DWORD PTR _pInstance1$1$[esp+196]
  00b46	85 c9		 test	 ecx, ecx
  00b48	0f 84 1a 06 00
	00		 je	 $LN704@ServerComm
  00b4e	85 c0		 test	 eax, eax
  00b50	0f 84 12 06 00
	00		 je	 $LN704@ServerComm

; 454  : 			pInstance1->ActDualEmotion(*pInstance2, CRaceMotionData::NAME_KISS_START, CRaceMotionData::NAME_KISS_START);

  00b56	68 35 01 00 00	 push	 309			; 00000135H
  00b5b	68 35 01 00 00	 push	 309			; 00000135H
  00b60	50		 push	 eax
  00b61	e8 00 00 00 00	 call	 ?ActDualEmotion@CInstanceBase@@QAEXAAV1@GG@Z ; CInstanceBase::ActDualEmotion

; 455  : 	}

  00b66	e9 fd 05 00 00	 jmp	 $LN704@ServerComm
$LN29@ServerComm:

; 456  : 	else if (!strcmpi(szCmd, "slap"))

  00b6b	68 00 00 00 00	 push	 OFFSET ??_C@_04JAHFACKH@slap?$AA@
  00b70	56		 push	 esi
  00b71	e8 00 00 00 00	 call	 __strcmpi
  00b76	83 c4 08	 add	 esp, 8
  00b79	85 c0		 test	 eax, eax
  00b7b	75 74		 jne	 SHORT $LN26@ServerComm
; File c:\program files (x86)\microsoft visual studio 12.0\vc\include\xstring

; 520  : 			: this->_Bx._Buf);

  00b7d	83 7b 2c 10	 cmp	 DWORD PTR [ebx+44], 16	; 00000010H
; File c:\program files (x86)\microsoft visual studio 12.0\vc\include\vector

; 1209 : 		return (*(this->_Myfirst + _Pos));

  00b81	8d 43 18	 lea	 eax, DWORD PTR [ebx+24]
; File c:\program files (x86)\microsoft visual studio 12.0\vc\include\xstring

; 520  : 			: this->_Bx._Buf);

  00b84	72 02		 jb	 SHORT $LN528@ServerComm
; File c:\program files (x86)\microsoft visual studio 12.0\vc\include\xstddef

; 95   : 		reinterpret_cast<const volatile char&>(_Val)))));

  00b86	8b 00		 mov	 eax, DWORD PTR [eax]
$LN528@ServerComm:
; File d:\metin2\metin2\client_source_clean\client_source_clean\source\userinterface\pythonnetworkstreamcommand.cpp

; 458  : 		int iVID1 = atoi(TokenVector[1].c_str());

  00b88	50		 push	 eax
  00b89	e8 00 00 00 00	 call	 __atoi64
; File c:\program files (x86)\microsoft visual studio 12.0\vc\include\vector

; 1209 : 		return (*(this->_Myfirst + _Pos));

  00b8e	8d 4b 30	 lea	 ecx, DWORD PTR [ebx+48]
; File d:\metin2\metin2\client_source_clean\client_source_clean\source\userinterface\pythonnetworkstreamcommand.cpp

; 458  : 		int iVID1 = atoi(TokenVector[1].c_str());

  00b91	89 44 24 40	 mov	 DWORD PTR _iVID1$1$[esp+200], eax
  00b95	83 c4 04	 add	 esp, 4
; File c:\program files (x86)\microsoft visual studio 12.0\vc\include\xstring

; 520  : 			: this->_Bx._Buf);

  00b98	83 79 14 10	 cmp	 DWORD PTR [ecx+20], 16	; 00000010H
  00b9c	72 02		 jb	 SHORT $LN538@ServerComm
; File c:\program files (x86)\microsoft visual studio 12.0\vc\include\xstddef

; 95   : 		reinterpret_cast<const volatile char&>(_Val)))));

  00b9e	8b 09		 mov	 ecx, DWORD PTR [ecx]
$LN538@ServerComm:
; File d:\metin2\metin2\client_source_clean\client_source_clean\source\userinterface\pythonnetworkstreamcommand.cpp

; 459  : 		int iVID2 = atoi(TokenVector[2].c_str());

  00ba0	51		 push	 ecx
  00ba1	e8 00 00 00 00	 call	 __atoi64

; 460  : 
; 461  : 		IAbstractCharacterManager & rkChrMgr = IAbstractCharacterManager::GetSingleton();

  00ba6	8b 3d 00 00 00
	00		 mov	 edi, DWORD PTR ?ms_singleton@?$TAbstractSingleton@VIAbstractCharacterManager@@@@0PAVIAbstractCharacterManager@@A ; TAbstractSingleton<IAbstractCharacterManager>::ms_singleton
  00bac	83 c4 04	 add	 esp, 4

; 462  : 		CInstanceBase * pInstance1 = rkChrMgr.GetInstancePtr(iVID1);

  00baf	8b cf		 mov	 ecx, edi
  00bb1	8b f0		 mov	 esi, eax
  00bb3	8b 17		 mov	 edx, DWORD PTR [edi]
  00bb5	ff 74 24 3c	 push	 DWORD PTR _iVID1$1$[esp+196]
  00bb9	ff 52 08	 call	 DWORD PTR [edx+8]

; 463  : 		CInstanceBase * pInstance2 = rkChrMgr.GetInstancePtr(iVID2);

  00bbc	8b 17		 mov	 edx, DWORD PTR [edi]
  00bbe	8b cf		 mov	 ecx, edi
  00bc0	56		 push	 esi
  00bc1	89 44 24 40	 mov	 DWORD PTR _pInstance1$1$[esp+200], eax
  00bc5	ff 52 08	 call	 DWORD PTR [edx+8]

; 464  : 		if (pInstance1 && pInstance2)

  00bc8	8b 4c 24 3c	 mov	 ecx, DWORD PTR _pInstance1$1$[esp+196]
  00bcc	85 c9		 test	 ecx, ecx
  00bce	0f 84 94 05 00
	00		 je	 $LN704@ServerComm
  00bd4	85 c0		 test	 eax, eax
  00bd6	0f 84 8c 05 00
	00		 je	 $LN704@ServerComm

; 465  : 			pInstance1->ActDualEmotion(*pInstance2, CRaceMotionData::NAME_SLAP_HURT_START, CRaceMotionData::NAME_SLAP_HIT_START);

  00bdc	68 3d 01 00 00	 push	 317			; 0000013dH
  00be1	68 41 01 00 00	 push	 321			; 00000141H
  00be6	50		 push	 eax
  00be7	e8 00 00 00 00	 call	 ?ActDualEmotion@CInstanceBase@@QAEXAAV1@GG@Z ; CInstanceBase::ActDualEmotion

; 466  : 	}

  00bec	e9 77 05 00 00	 jmp	 $LN704@ServerComm
$LN26@ServerComm:

; 467  : 	else if (!strcmpi(szCmd, "clap"))

  00bf1	68 00 00 00 00	 push	 OFFSET ??_C@_04PAJFJFCF@clap?$AA@
  00bf6	56		 push	 esi
  00bf7	e8 00 00 00 00	 call	 __strcmpi
  00bfc	83 c4 08	 add	 esp, 8
  00bff	85 c0		 test	 eax, eax
  00c01	75 32		 jne	 SHORT $LN23@ServerComm
; File c:\program files (x86)\microsoft visual studio 12.0\vc\include\xstring

; 520  : 			: this->_Bx._Buf);

  00c03	83 7b 2c 10	 cmp	 DWORD PTR [ebx+44], 16	; 00000010H
; File c:\program files (x86)\microsoft visual studio 12.0\vc\include\vector

; 1209 : 		return (*(this->_Myfirst + _Pos));

  00c07	8d 43 18	 lea	 eax, DWORD PTR [ebx+24]
; File c:\program files (x86)\microsoft visual studio 12.0\vc\include\xstring

; 520  : 			: this->_Bx._Buf);

  00c0a	72 02		 jb	 SHORT $LN550@ServerComm
; File c:\program files (x86)\microsoft visual studio 12.0\vc\include\xstddef

; 95   : 		reinterpret_cast<const volatile char&>(_Val)))));

  00c0c	8b 00		 mov	 eax, DWORD PTR [eax]
$LN550@ServerComm:
; File d:\metin2\metin2\client_source_clean\client_source_clean\source\userinterface\pythonnetworkstreamcommand.cpp

; 469  : 		int iVID = atoi(TokenVector[1].c_str());

  00c0e	50		 push	 eax
  00c0f	e8 00 00 00 00	 call	 __atoi64

; 470  : 		IAbstractCharacterManager & rkChrMgr = IAbstractCharacterManager::GetSingleton();

  00c14	8b 0d 00 00 00
	00		 mov	 ecx, DWORD PTR ?ms_singleton@?$TAbstractSingleton@VIAbstractCharacterManager@@@@0PAVIAbstractCharacterManager@@A ; TAbstractSingleton<IAbstractCharacterManager>::ms_singleton
  00c1a	83 c4 04	 add	 esp, 4

; 471  : 		CInstanceBase * pInstance = rkChrMgr.GetInstancePtr(iVID);

  00c1d	8b 11		 mov	 edx, DWORD PTR [ecx]
  00c1f	50		 push	 eax
  00c20	ff 52 08	 call	 DWORD PTR [edx+8]

; 472  : 		if (pInstance)

  00c23	85 c0		 test	 eax, eax
  00c25	0f 84 3d 05 00
	00		 je	 $LN704@ServerComm

; 473  : 			pInstance->ActEmotion(CRaceMotionData::NAME_CLAP);

  00c2b	68 32 01 00 00	 push	 306			; 00000132H

; 474  : 	}

  00c30	e9 2c 05 00 00	 jmp	 $LN713@ServerComm
$LN23@ServerComm:

; 475  : 	else if (!strcmpi(szCmd, "cheer1"))

  00c35	68 00 00 00 00	 push	 OFFSET ??_C@_06PAGILPEO@cheer1?$AA@
  00c3a	56		 push	 esi
  00c3b	e8 00 00 00 00	 call	 __strcmpi
  00c40	83 c4 08	 add	 esp, 8
  00c43	85 c0		 test	 eax, eax
  00c45	75 32		 jne	 SHORT $LN20@ServerComm
; File c:\program files (x86)\microsoft visual studio 12.0\vc\include\xstring

; 520  : 			: this->_Bx._Buf);

  00c47	83 7b 2c 10	 cmp	 DWORD PTR [ebx+44], 16	; 00000010H
; File c:\program files (x86)\microsoft visual studio 12.0\vc\include\vector

; 1209 : 		return (*(this->_Myfirst + _Pos));

  00c4b	8d 43 18	 lea	 eax, DWORD PTR [ebx+24]
; File c:\program files (x86)\microsoft visual studio 12.0\vc\include\xstring

; 520  : 			: this->_Bx._Buf);

  00c4e	72 02		 jb	 SHORT $LN562@ServerComm
; File c:\program files (x86)\microsoft visual studio 12.0\vc\include\xstddef

; 95   : 		reinterpret_cast<const volatile char&>(_Val)))));

  00c50	8b 00		 mov	 eax, DWORD PTR [eax]
$LN562@ServerComm:
; File d:\metin2\metin2\client_source_clean\client_source_clean\source\userinterface\pythonnetworkstreamcommand.cpp

; 477  : 		int iVID = atoi(TokenVector[1].c_str());

  00c52	50		 push	 eax
  00c53	e8 00 00 00 00	 call	 __atoi64

; 478  : 		IAbstractCharacterManager & rkChrMgr = IAbstractCharacterManager::GetSingleton();

  00c58	8b 0d 00 00 00
	00		 mov	 ecx, DWORD PTR ?ms_singleton@?$TAbstractSingleton@VIAbstractCharacterManager@@@@0PAVIAbstractCharacterManager@@A ; TAbstractSingleton<IAbstractCharacterManager>::ms_singleton
  00c5e	83 c4 04	 add	 esp, 4

; 479  : 		CInstanceBase * pInstance = rkChrMgr.GetInstancePtr(iVID);

  00c61	8b 11		 mov	 edx, DWORD PTR [ecx]
  00c63	50		 push	 eax
  00c64	ff 52 08	 call	 DWORD PTR [edx+8]

; 480  : 		if (pInstance)

  00c67	85 c0		 test	 eax, eax
  00c69	0f 84 f9 04 00
	00		 je	 $LN704@ServerComm

; 481  : 			pInstance->ActEmotion(CRaceMotionData::NAME_CHEERS_1);

  00c6f	68 33 01 00 00	 push	 307			; 00000133H

; 482  : 	}

  00c74	e9 e8 04 00 00	 jmp	 $LN713@ServerComm
$LN20@ServerComm:

; 483  : 	else if (!strcmpi(szCmd, "cheer2"))

  00c79	68 00 00 00 00	 push	 OFFSET ??_C@_06NLEFOMIN@cheer2?$AA@
  00c7e	56		 push	 esi
  00c7f	e8 00 00 00 00	 call	 __strcmpi
  00c84	83 c4 08	 add	 esp, 8
  00c87	85 c0		 test	 eax, eax
  00c89	75 32		 jne	 SHORT $LN17@ServerComm
; File c:\program files (x86)\microsoft visual studio 12.0\vc\include\xstring

; 520  : 			: this->_Bx._Buf);

  00c8b	83 7b 2c 10	 cmp	 DWORD PTR [ebx+44], 16	; 00000010H
; File c:\program files (x86)\microsoft visual studio 12.0\vc\include\vector

; 1209 : 		return (*(this->_Myfirst + _Pos));

  00c8f	8d 43 18	 lea	 eax, DWORD PTR [ebx+24]
; File c:\program files (x86)\microsoft visual studio 12.0\vc\include\xstring

; 520  : 			: this->_Bx._Buf);

  00c92	72 02		 jb	 SHORT $LN574@ServerComm
; File c:\program files (x86)\microsoft visual studio 12.0\vc\include\xstddef

; 95   : 		reinterpret_cast<const volatile char&>(_Val)))));

  00c94	8b 00		 mov	 eax, DWORD PTR [eax]
$LN574@ServerComm:
; File d:\metin2\metin2\client_source_clean\client_source_clean\source\userinterface\pythonnetworkstreamcommand.cpp

; 485  : 		int iVID = atoi(TokenVector[1].c_str());

  00c96	50		 push	 eax
  00c97	e8 00 00 00 00	 call	 __atoi64

; 486  : 		IAbstractCharacterManager & rkChrMgr = IAbstractCharacterManager::GetSingleton();

  00c9c	8b 0d 00 00 00
	00		 mov	 ecx, DWORD PTR ?ms_singleton@?$TAbstractSingleton@VIAbstractCharacterManager@@@@0PAVIAbstractCharacterManager@@A ; TAbstractSingleton<IAbstractCharacterManager>::ms_singleton
  00ca2	83 c4 04	 add	 esp, 4

; 487  : 		CInstanceBase * pInstance = rkChrMgr.GetInstancePtr(iVID);

  00ca5	8b 11		 mov	 edx, DWORD PTR [ecx]
  00ca7	50		 push	 eax
  00ca8	ff 52 08	 call	 DWORD PTR [edx+8]

; 488  : 		if (pInstance)

  00cab	85 c0		 test	 eax, eax
  00cad	0f 84 b5 04 00
	00		 je	 $LN704@ServerComm

; 489  : 			pInstance->ActEmotion(CRaceMotionData::NAME_CHEERS_2);

  00cb3	68 34 01 00 00	 push	 308			; 00000134H

; 490  : 	}

  00cb8	e9 a4 04 00 00	 jmp	 $LN713@ServerComm
$LN17@ServerComm:

; 491  : 	else if (!strcmpi(szCmd, "dance1"))

  00cbd	68 00 00 00 00	 push	 OFFSET ??_C@_06FJBCALDA@dance1?$AA@
  00cc2	56		 push	 esi
  00cc3	e8 00 00 00 00	 call	 __strcmpi
  00cc8	83 c4 08	 add	 esp, 8
  00ccb	85 c0		 test	 eax, eax
  00ccd	75 32		 jne	 SHORT $LN14@ServerComm
; File c:\program files (x86)\microsoft visual studio 12.0\vc\include\xstring

; 520  : 			: this->_Bx._Buf);

  00ccf	83 7b 2c 10	 cmp	 DWORD PTR [ebx+44], 16	; 00000010H
; File c:\program files (x86)\microsoft visual studio 12.0\vc\include\vector

; 1209 : 		return (*(this->_Myfirst + _Pos));

  00cd3	8d 43 18	 lea	 eax, DWORD PTR [ebx+24]
; File c:\program files (x86)\microsoft visual studio 12.0\vc\include\xstring

; 520  : 			: this->_Bx._Buf);

  00cd6	72 02		 jb	 SHORT $LN586@ServerComm
; File c:\program files (x86)\microsoft visual studio 12.0\vc\include\xstddef

; 95   : 		reinterpret_cast<const volatile char&>(_Val)))));

  00cd8	8b 00		 mov	 eax, DWORD PTR [eax]
$LN586@ServerComm:
; File d:\metin2\metin2\client_source_clean\client_source_clean\source\userinterface\pythonnetworkstreamcommand.cpp

; 493  : 		int iVID = atoi(TokenVector[1].c_str());

  00cda	50		 push	 eax
  00cdb	e8 00 00 00 00	 call	 __atoi64

; 494  : 		IAbstractCharacterManager & rkChrMgr = IAbstractCharacterManager::GetSingleton();

  00ce0	8b 0d 00 00 00
	00		 mov	 ecx, DWORD PTR ?ms_singleton@?$TAbstractSingleton@VIAbstractCharacterManager@@@@0PAVIAbstractCharacterManager@@A ; TAbstractSingleton<IAbstractCharacterManager>::ms_singleton
  00ce6	83 c4 04	 add	 esp, 4

; 495  : 		CInstanceBase * pInstance = rkChrMgr.GetInstancePtr(iVID);

  00ce9	8b 11		 mov	 edx, DWORD PTR [ecx]
  00ceb	50		 push	 eax
  00cec	ff 52 08	 call	 DWORD PTR [edx+8]

; 496  : 		if (pInstance)

  00cef	85 c0		 test	 eax, eax
  00cf1	0f 84 71 04 00
	00		 je	 $LN704@ServerComm

; 497  : 			pInstance->ActEmotion(CRaceMotionData::NAME_DANCE_1);

  00cf7	68 46 01 00 00	 push	 326			; 00000146H

; 498  : 	}

  00cfc	e9 60 04 00 00	 jmp	 $LN713@ServerComm
$LN14@ServerComm:

; 499  : 	else if (!strcmpi(szCmd, "dance2"))

  00d01	68 00 00 00 00	 push	 OFFSET ??_C@_06HCDPFIPD@dance2?$AA@
  00d06	56		 push	 esi
  00d07	e8 00 00 00 00	 call	 __strcmpi
  00d0c	83 c4 08	 add	 esp, 8
  00d0f	85 c0		 test	 eax, eax
  00d11	75 32		 jne	 SHORT $LN11@ServerComm
; File c:\program files (x86)\microsoft visual studio 12.0\vc\include\xstring

; 520  : 			: this->_Bx._Buf);

  00d13	83 7b 2c 10	 cmp	 DWORD PTR [ebx+44], 16	; 00000010H
; File c:\program files (x86)\microsoft visual studio 12.0\vc\include\vector

; 1209 : 		return (*(this->_Myfirst + _Pos));

  00d17	8d 43 18	 lea	 eax, DWORD PTR [ebx+24]
; File c:\program files (x86)\microsoft visual studio 12.0\vc\include\xstring

; 520  : 			: this->_Bx._Buf);

  00d1a	72 02		 jb	 SHORT $LN598@ServerComm
; File c:\program files (x86)\microsoft visual studio 12.0\vc\include\xstddef

; 95   : 		reinterpret_cast<const volatile char&>(_Val)))));

  00d1c	8b 00		 mov	 eax, DWORD PTR [eax]
$LN598@ServerComm:
; File d:\metin2\metin2\client_source_clean\client_source_clean\source\userinterface\pythonnetworkstreamcommand.cpp

; 501  : 		int iVID = atoi(TokenVector[1].c_str());

  00d1e	50		 push	 eax
  00d1f	e8 00 00 00 00	 call	 __atoi64

; 502  : 		IAbstractCharacterManager & rkChrMgr = IAbstractCharacterManager::GetSingleton();

  00d24	8b 0d 00 00 00
	00		 mov	 ecx, DWORD PTR ?ms_singleton@?$TAbstractSingleton@VIAbstractCharacterManager@@@@0PAVIAbstractCharacterManager@@A ; TAbstractSingleton<IAbstractCharacterManager>::ms_singleton
  00d2a	83 c4 04	 add	 esp, 4

; 503  : 		CInstanceBase * pInstance = rkChrMgr.GetInstancePtr(iVID);

  00d2d	8b 11		 mov	 edx, DWORD PTR [ecx]
  00d2f	50		 push	 eax
  00d30	ff 52 08	 call	 DWORD PTR [edx+8]

; 504  : 		if (pInstance)

  00d33	85 c0		 test	 eax, eax
  00d35	0f 84 2d 04 00
	00		 je	 $LN704@ServerComm

; 505  : 			pInstance->ActEmotion(CRaceMotionData::NAME_DANCE_2);

  00d3b	68 47 01 00 00	 push	 327			; 00000147H

; 506  : 	}

  00d40	e9 1c 04 00 00	 jmp	 $LN713@ServerComm
$LN11@ServerComm:

; 507  : 	else if (!strcmpi(szCmd, "dig_motion"))

  00d45	68 00 00 00 00	 push	 OFFSET ??_C@_0L@MMJCNAM@dig_motion?$AA@
  00d4a	56		 push	 esi
  00d4b	e8 00 00 00 00	 call	 __strcmpi
  00d50	83 c4 08	 add	 esp, 8
  00d53	85 c0		 test	 eax, eax
  00d55	75 32		 jne	 SHORT $LN8@ServerComm
; File c:\program files (x86)\microsoft visual studio 12.0\vc\include\xstring

; 520  : 			: this->_Bx._Buf);

  00d57	83 7b 2c 10	 cmp	 DWORD PTR [ebx+44], 16	; 00000010H
; File c:\program files (x86)\microsoft visual studio 12.0\vc\include\vector

; 1209 : 		return (*(this->_Myfirst + _Pos));

  00d5b	8d 43 18	 lea	 eax, DWORD PTR [ebx+24]
; File c:\program files (x86)\microsoft visual studio 12.0\vc\include\xstring

; 520  : 			: this->_Bx._Buf);

  00d5e	72 02		 jb	 SHORT $LN610@ServerComm
; File c:\program files (x86)\microsoft visual studio 12.0\vc\include\xstddef

; 95   : 		reinterpret_cast<const volatile char&>(_Val)))));

  00d60	8b 00		 mov	 eax, DWORD PTR [eax]
$LN610@ServerComm:
; File d:\metin2\metin2\client_source_clean\client_source_clean\source\userinterface\pythonnetworkstreamcommand.cpp

; 509  : 		int iVID = atoi(TokenVector[1].c_str());

  00d62	50		 push	 eax
  00d63	e8 00 00 00 00	 call	 __atoi64

; 510  : 		IAbstractCharacterManager & rkChrMgr = IAbstractCharacterManager::GetSingleton();

  00d68	8b 0d 00 00 00
	00		 mov	 ecx, DWORD PTR ?ms_singleton@?$TAbstractSingleton@VIAbstractCharacterManager@@@@0PAVIAbstractCharacterManager@@A ; TAbstractSingleton<IAbstractCharacterManager>::ms_singleton
  00d6e	83 c4 04	 add	 esp, 4

; 511  : 		CInstanceBase * pInstance = rkChrMgr.GetInstancePtr(iVID);

  00d71	8b 11		 mov	 edx, DWORD PTR [ecx]
  00d73	50		 push	 eax
  00d74	ff 52 08	 call	 DWORD PTR [edx+8]

; 512  : 		if (pInstance)

  00d77	85 c0		 test	 eax, eax
  00d79	0f 84 e9 03 00
	00		 je	 $LN704@ServerComm

; 513  : 			pInstance->ActEmotion(CRaceMotionData::NAME_DIG);

  00d7f	68 45 01 00 00	 push	 325			; 00000145H

; 514  : 	}
; 515  : 	// Emotion End
; 516  : 	else

  00d84	e9 d8 03 00 00	 jmp	 $LN713@ServerComm
$LN8@ServerComm:

; 518  : 		static std::map<std::string, int> s_emotionDict;

  00d89	a1 00 00 00 00	 mov	 eax, DWORD PTR ?$S2@?NE@??ServerCommand@CPythonNetworkStream@@QAEXPAD@Z@4IA
  00d8e	a8 01		 test	 al, 1
  00d90	75 43		 jne	 SHORT $LN5@ServerComm
  00d92	83 c8 01	 or	 eax, 1
  00d95	a3 00 00 00 00	 mov	 DWORD PTR ?$S2@?NE@??ServerCommand@CPythonNetworkStream@@QAEXPAD@Z@4IA, eax
  00d9a	c6 84 24 c0 00
	00 00 02	 mov	 BYTE PTR __$EHRec$[esp+204], 2
; File c:\program files (x86)\microsoft visual studio 12.0\vc\include\xtree

; 569  : 		this->_Myhead = 0;

  00da2	c7 05 00 00 00
	00 00 00 00 00	 mov	 DWORD PTR ?s_emotionDict@?NE@??ServerCommand@CPythonNetworkStream@@QAEXPAD@Z@4V?$map@V?$basic_string@DU?$char_traits@D@std@@V?$allocator@D@2@@std@@HU?$less@V?$basic_string@DU?$char_traits@D@std@@V?$allocator@D@2@@std@@@2@V?$allocator@U?$pair@$$CBV?$basic_string@DU?$char_traits@D@std@@V?$allocator@D@2@@std@@H@std@@@2@@std@@A, 0

; 570  : 		this->_Mysize = 0;

  00dac	c7 05 04 00 00
	00 00 00 00 00	 mov	 DWORD PTR ?s_emotionDict@?NE@??ServerCommand@CPythonNetworkStream@@QAEXPAD@Z@4V?$map@V?$basic_string@DU?$char_traits@D@std@@V?$allocator@D@2@@std@@HU?$less@V?$basic_string@DU?$char_traits@D@std@@V?$allocator@D@2@@std@@@2@V?$allocator@U?$pair@$$CBV?$basic_string@DU?$char_traits@D@std@@V?$allocator@D@2@@std@@H@std@@@2@@std@@A+4, 0

; 773  : 		this->_Myhead = _Buyheadnode();

  00db6	e8 00 00 00 00	 call	 ?_Buyheadnode@?$_Tree_alloc@$0A@U?$_Tree_base_types@U?$pair@$$CBV?$basic_string@DU?$char_traits@D@std@@V?$allocator@D@2@@std@@H@std@@V?$allocator@U?$pair@$$CBV?$basic_string@DU?$char_traits@D@std@@V?$allocator@D@2@@std@@H@std@@@2@@std@@@std@@QAEPAU?$_Tree_node@U?$pair@$$CBV?$basic_string@DU?$char_traits@D@std@@V?$allocator@D@2@@std@@H@std@@PAX@2@XZ ; std::_Tree_alloc<0,std::_Tree_base_types<std::pair<std::basic_string<char,std::char_traits<char>,std::allocator<char> > const ,int>,std::allocator<std::pair<std::basic_string<char,std::char_traits<char>,std::allocator<char> > const ,int> > > >::_Buyheadnode
; File d:\metin2\metin2\client_source_clean\client_source_clean\source\userinterface\pythonnetworkstreamcommand.cpp

; 518  : 		static std::map<std::string, int> s_emotionDict;

  00dbb	68 00 00 00 00	 push	 OFFSET ??__Fs_emotionDict@?NE@??ServerCommand@CPythonNetworkStream@@QAEXPAD@Z@YAXXZ ; `CPythonNetworkStream::ServerCommand'::`212'::`dynamic atexit destructor for 's_emotionDict''
; File c:\program files (x86)\microsoft visual studio 12.0\vc\include\xtree

; 773  : 		this->_Myhead = _Buyheadnode();

  00dc0	a3 00 00 00 00	 mov	 DWORD PTR ?s_emotionDict@?NE@??ServerCommand@CPythonNetworkStream@@QAEXPAD@Z@4V?$map@V?$basic_string@DU?$char_traits@D@std@@V?$allocator@D@2@@std@@HU?$less@V?$basic_string@DU?$char_traits@D@std@@V?$allocator@D@2@@std@@@2@V?$allocator@U?$pair@$$CBV?$basic_string@DU?$char_traits@D@std@@V?$allocator@D@2@@std@@H@std@@@2@@std@@A, eax
; File d:\metin2\metin2\client_source_clean\client_source_clean\source\userinterface\pythonnetworkstreamcommand.cpp

; 518  : 		static std::map<std::string, int> s_emotionDict;

  00dc5	e8 00 00 00 00	 call	 _atexit
  00dca	83 c4 04	 add	 esp, 4
  00dcd	c6 84 24 c0 00
	00 00 00	 mov	 BYTE PTR __$EHRec$[esp+204], 0
$LN5@ServerComm:

; 519  : 
; 520  : 		static bool s_isFirst = true;
; 521  : 		if (s_isFirst)

  00dd5	80 3d 00 00 00
	00 00		 cmp	 BYTE PTR ?s_isFirst@?NE@??ServerCommand@CPythonNetworkStream@@QAEXPAD@Z@4_NA, 0
  00ddc	0f 84 13 03 00
	00		 je	 $LN4@ServerComm

; 522  : 		{
; 523  : 			s_isFirst = false;
; 524  : 
; 525  : 			s_emotionDict["dance3"] = CRaceMotionData::NAME_DANCE_3;

  00de2	68 00 00 00 00	 push	 OFFSET ??_C@_06GLCEGJLC@dance3?$AA@
  00de7	8d 4c 24 54	 lea	 ecx, DWORD PTR $T19[esp+200]
  00deb	c6 05 00 00 00
	00 00		 mov	 BYTE PTR ?s_isFirst@?NE@??ServerCommand@CPythonNetworkStream@@QAEXPAD@Z@4_NA, 0
  00df2	e8 00 00 00 00	 call	 ??0?$basic_string@DU?$char_traits@D@std@@V?$allocator@D@2@@std@@QAE@PBD@Z ; std::basic_string<char,std::char_traits<char>,std::allocator<char> >::basic_string<char,std::char_traits<char>,std::allocator<char> >
  00df7	8d 44 24 50	 lea	 eax, DWORD PTR $T19[esp+196]
  00dfb	c6 84 24 c0 00
	00 00 03	 mov	 BYTE PTR __$EHRec$[esp+204], 3
  00e03	50		 push	 eax
  00e04	b9 00 00 00 00	 mov	 ecx, OFFSET ?s_emotionDict@?NE@??ServerCommand@CPythonNetworkStream@@QAEXPAD@Z@4V?$map@V?$basic_string@DU?$char_traits@D@std@@V?$allocator@D@2@@std@@HU?$less@V?$basic_string@DU?$char_traits@D@std@@V?$allocator@D@2@@std@@@2@V?$allocator@U?$pair@$$CBV?$basic_string@DU?$char_traits@D@std@@V?$allocator@D@2@@std@@H@std@@@2@@std@@A
  00e09	e8 00 00 00 00	 call	 ??A?$map@V?$basic_string@DU?$char_traits@D@std@@V?$allocator@D@2@@std@@HU?$less@V?$basic_string@DU?$char_traits@D@std@@V?$allocator@D@2@@std@@@2@V?$allocator@U?$pair@$$CBV?$basic_string@DU?$char_traits@D@std@@V?$allocator@D@2@@std@@H@std@@@2@@std@@QAEAAH$$QAV?$basic_string@DU?$char_traits@D@std@@V?$allocator@D@2@@1@@Z ; std::map<std::basic_string<char,std::char_traits<char>,std::allocator<char> >,int,std::less<std::basic_string<char,std::char_traits<char>,std::allocator<char> > >,std::allocator<std::pair<std::basic_string<char,std::char_traits<char>,std::allocator<char> > const ,int> > >::operator[]
  00e0e	8d 4c 24 50	 lea	 ecx, DWORD PTR $T19[esp+196]
  00e12	c6 84 24 c0 00
	00 00 00	 mov	 BYTE PTR __$EHRec$[esp+204], 0
  00e1a	c7 00 48 01 00
	00		 mov	 DWORD PTR [eax], 328	; 00000148H
  00e20	e8 00 00 00 00	 call	 ??1?$basic_string@DU?$char_traits@D@std@@V?$allocator@D@2@@std@@QAE@XZ ; std::basic_string<char,std::char_traits<char>,std::allocator<char> >::~basic_string<char,std::char_traits<char>,std::allocator<char> >

; 526  : 			s_emotionDict["dance4"] = CRaceMotionData::NAME_DANCE_4;

  00e25	68 00 00 00 00	 push	 OFFSET ??_C@_06CEGFPPHF@dance4?$AA@
  00e2a	8d 4c 24 54	 lea	 ecx, DWORD PTR $T18[esp+200]
  00e2e	e8 00 00 00 00	 call	 ??0?$basic_string@DU?$char_traits@D@std@@V?$allocator@D@2@@std@@QAE@PBD@Z ; std::basic_string<char,std::char_traits<char>,std::allocator<char> >::basic_string<char,std::char_traits<char>,std::allocator<char> >
  00e33	8d 44 24 50	 lea	 eax, DWORD PTR $T18[esp+196]
  00e37	c6 84 24 c0 00
	00 00 04	 mov	 BYTE PTR __$EHRec$[esp+204], 4
  00e3f	50		 push	 eax
  00e40	b9 00 00 00 00	 mov	 ecx, OFFSET ?s_emotionDict@?NE@??ServerCommand@CPythonNetworkStream@@QAEXPAD@Z@4V?$map@V?$basic_string@DU?$char_traits@D@std@@V?$allocator@D@2@@std@@HU?$less@V?$basic_string@DU?$char_traits@D@std@@V?$allocator@D@2@@std@@@2@V?$allocator@U?$pair@$$CBV?$basic_string@DU?$char_traits@D@std@@V?$allocator@D@2@@std@@H@std@@@2@@std@@A
  00e45	e8 00 00 00 00	 call	 ??A?$map@V?$basic_string@DU?$char_traits@D@std@@V?$allocator@D@2@@std@@HU?$less@V?$basic_string@DU?$char_traits@D@std@@V?$allocator@D@2@@std@@@2@V?$allocator@U?$pair@$$CBV?$basic_string@DU?$char_traits@D@std@@V?$allocator@D@2@@std@@H@std@@@2@@std@@QAEAAH$$QAV?$basic_string@DU?$char_traits@D@std@@V?$allocator@D@2@@1@@Z ; std::map<std::basic_string<char,std::char_traits<char>,std::allocator<char> >,int,std::less<std::basic_string<char,std::char_traits<char>,std::allocator<char> > >,std::allocator<std::pair<std::basic_string<char,std::char_traits<char>,std::allocator<char> > const ,int> > >::operator[]
  00e4a	8d 4c 24 50	 lea	 ecx, DWORD PTR $T18[esp+196]
  00e4e	c6 84 24 c0 00
	00 00 00	 mov	 BYTE PTR __$EHRec$[esp+204], 0
  00e56	c7 00 49 01 00
	00		 mov	 DWORD PTR [eax], 329	; 00000149H
  00e5c	e8 00 00 00 00	 call	 ??1?$basic_string@DU?$char_traits@D@std@@V?$allocator@D@2@@std@@QAE@XZ ; std::basic_string<char,std::char_traits<char>,std::allocator<char> >::~basic_string<char,std::char_traits<char>,std::allocator<char> >

; 527  : 			s_emotionDict["dance5"] = CRaceMotionData::NAME_DANCE_5;

  00e61	68 00 00 00 00	 push	 OFFSET ??_C@_06DNHOMODE@dance5?$AA@
  00e66	8d 4c 24 54	 lea	 ecx, DWORD PTR $T17[esp+200]
  00e6a	e8 00 00 00 00	 call	 ??0?$basic_string@DU?$char_traits@D@std@@V?$allocator@D@2@@std@@QAE@PBD@Z ; std::basic_string<char,std::char_traits<char>,std::allocator<char> >::basic_string<char,std::char_traits<char>,std::allocator<char> >
  00e6f	8d 44 24 50	 lea	 eax, DWORD PTR $T17[esp+196]
  00e73	c6 84 24 c0 00
	00 00 05	 mov	 BYTE PTR __$EHRec$[esp+204], 5
  00e7b	50		 push	 eax
  00e7c	b9 00 00 00 00	 mov	 ecx, OFFSET ?s_emotionDict@?NE@??ServerCommand@CPythonNetworkStream@@QAEXPAD@Z@4V?$map@V?$basic_string@DU?$char_traits@D@std@@V?$allocator@D@2@@std@@HU?$less@V?$basic_string@DU?$char_traits@D@std@@V?$allocator@D@2@@std@@@2@V?$allocator@U?$pair@$$CBV?$basic_string@DU?$char_traits@D@std@@V?$allocator@D@2@@std@@H@std@@@2@@std@@A
  00e81	e8 00 00 00 00	 call	 ??A?$map@V?$basic_string@DU?$char_traits@D@std@@V?$allocator@D@2@@std@@HU?$less@V?$basic_string@DU?$char_traits@D@std@@V?$allocator@D@2@@std@@@2@V?$allocator@U?$pair@$$CBV?$basic_string@DU?$char_traits@D@std@@V?$allocator@D@2@@std@@H@std@@@2@@std@@QAEAAH$$QAV?$basic_string@DU?$char_traits@D@std@@V?$allocator@D@2@@1@@Z ; std::map<std::basic_string<char,std::char_traits<char>,std::allocator<char> >,int,std::less<std::basic_string<char,std::char_traits<char>,std::allocator<char> > >,std::allocator<std::pair<std::basic_string<char,std::char_traits<char>,std::allocator<char> > const ,int> > >::operator[]
  00e86	8d 4c 24 50	 lea	 ecx, DWORD PTR $T17[esp+196]
  00e8a	c6 84 24 c0 00
	00 00 00	 mov	 BYTE PTR __$EHRec$[esp+204], 0
  00e92	c7 00 4a 01 00
	00		 mov	 DWORD PTR [eax], 330	; 0000014aH
  00e98	e8 00 00 00 00	 call	 ??1?$basic_string@DU?$char_traits@D@std@@V?$allocator@D@2@@std@@QAE@XZ ; std::basic_string<char,std::char_traits<char>,std::allocator<char> >::~basic_string<char,std::char_traits<char>,std::allocator<char> >

; 528  : 			s_emotionDict["dance6"] = CRaceMotionData::NAME_DANCE_6;

  00e9d	68 00 00 00 00	 push	 OFFSET ??_C@_06BGFDJNPH@dance6?$AA@
  00ea2	8d 4c 24 54	 lea	 ecx, DWORD PTR $T16[esp+200]
  00ea6	e8 00 00 00 00	 call	 ??0?$basic_string@DU?$char_traits@D@std@@V?$allocator@D@2@@std@@QAE@PBD@Z ; std::basic_string<char,std::char_traits<char>,std::allocator<char> >::basic_string<char,std::char_traits<char>,std::allocator<char> >
  00eab	8d 44 24 50	 lea	 eax, DWORD PTR $T16[esp+196]
  00eaf	c6 84 24 c0 00
	00 00 06	 mov	 BYTE PTR __$EHRec$[esp+204], 6
  00eb7	50		 push	 eax
  00eb8	b9 00 00 00 00	 mov	 ecx, OFFSET ?s_emotionDict@?NE@??ServerCommand@CPythonNetworkStream@@QAEXPAD@Z@4V?$map@V?$basic_string@DU?$char_traits@D@std@@V?$allocator@D@2@@std@@HU?$less@V?$basic_string@DU?$char_traits@D@std@@V?$allocator@D@2@@std@@@2@V?$allocator@U?$pair@$$CBV?$basic_string@DU?$char_traits@D@std@@V?$allocator@D@2@@std@@H@std@@@2@@std@@A
  00ebd	e8 00 00 00 00	 call	 ??A?$map@V?$basic_string@DU?$char_traits@D@std@@V?$allocator@D@2@@std@@HU?$less@V?$basic_string@DU?$char_traits@D@std@@V?$allocator@D@2@@std@@@2@V?$allocator@U?$pair@$$CBV?$basic_string@DU?$char_traits@D@std@@V?$allocator@D@2@@std@@H@std@@@2@@std@@QAEAAH$$QAV?$basic_string@DU?$char_traits@D@std@@V?$allocator@D@2@@1@@Z ; std::map<std::basic_string<char,std::char_traits<char>,std::allocator<char> >,int,std::less<std::basic_string<char,std::char_traits<char>,std::allocator<char> > >,std::allocator<std::pair<std::basic_string<char,std::char_traits<char>,std::allocator<char> > const ,int> > >::operator[]
  00ec2	8d 4c 24 50	 lea	 ecx, DWORD PTR $T16[esp+196]
  00ec6	c6 84 24 c0 00
	00 00 00	 mov	 BYTE PTR __$EHRec$[esp+204], 0
  00ece	c7 00 4b 01 00
	00		 mov	 DWORD PTR [eax], 331	; 0000014bH
  00ed4	e8 00 00 00 00	 call	 ??1?$basic_string@DU?$char_traits@D@std@@V?$allocator@D@2@@std@@QAE@XZ ; std::basic_string<char,std::char_traits<char>,std::allocator<char> >::~basic_string<char,std::char_traits<char>,std::allocator<char> >

; 529  : 			s_emotionDict["congratulation"] = CRaceMotionData::NAME_CONGRATULATION;

  00ed9	68 00 00 00 00	 push	 OFFSET ??_C@_0P@KFFKPMLJ@congratulation?$AA@
  00ede	8d 4c 24 54	 lea	 ecx, DWORD PTR $T15[esp+200]
  00ee2	e8 00 00 00 00	 call	 ??0?$basic_string@DU?$char_traits@D@std@@V?$allocator@D@2@@std@@QAE@PBD@Z ; std::basic_string<char,std::char_traits<char>,std::allocator<char> >::basic_string<char,std::char_traits<char>,std::allocator<char> >
  00ee7	8d 44 24 50	 lea	 eax, DWORD PTR $T15[esp+196]
  00eeb	c6 84 24 c0 00
	00 00 07	 mov	 BYTE PTR __$EHRec$[esp+204], 7
  00ef3	50		 push	 eax
  00ef4	b9 00 00 00 00	 mov	 ecx, OFFSET ?s_emotionDict@?NE@??ServerCommand@CPythonNetworkStream@@QAEXPAD@Z@4V?$map@V?$basic_string@DU?$char_traits@D@std@@V?$allocator@D@2@@std@@HU?$less@V?$basic_string@DU?$char_traits@D@std@@V?$allocator@D@2@@std@@@2@V?$allocator@U?$pair@$$CBV?$basic_string@DU?$char_traits@D@std@@V?$allocator@D@2@@std@@H@std@@@2@@std@@A
  00ef9	e8 00 00 00 00	 call	 ??A?$map@V?$basic_string@DU?$char_traits@D@std@@V?$allocator@D@2@@std@@HU?$less@V?$basic_string@DU?$char_traits@D@std@@V?$allocator@D@2@@std@@@2@V?$allocator@U?$pair@$$CBV?$basic_string@DU?$char_traits@D@std@@V?$allocator@D@2@@std@@H@std@@@2@@std@@QAEAAH$$QAV?$basic_string@DU?$char_traits@D@std@@V?$allocator@D@2@@1@@Z ; std::map<std::basic_string<char,std::char_traits<char>,std::allocator<char> >,int,std::less<std::basic_string<char,std::char_traits<char>,std::allocator<char> > >,std::allocator<std::pair<std::basic_string<char,std::char_traits<char>,std::allocator<char> > const ,int> > >::operator[]
  00efe	8d 4c 24 50	 lea	 ecx, DWORD PTR $T15[esp+196]
  00f02	c6 84 24 c0 00
	00 00 00	 mov	 BYTE PTR __$EHRec$[esp+204], 0
  00f0a	c7 00 57 01 00
	00		 mov	 DWORD PTR [eax], 343	; 00000157H
  00f10	e8 00 00 00 00	 call	 ??1?$basic_string@DU?$char_traits@D@std@@V?$allocator@D@2@@std@@QAE@XZ ; std::basic_string<char,std::char_traits<char>,std::allocator<char> >::~basic_string<char,std::char_traits<char>,std::allocator<char> >

; 530  : 			s_emotionDict["forgive"] = CRaceMotionData::NAME_FORGIVE;

  00f15	68 00 00 00 00	 push	 OFFSET ??_C@_07JCIHIBLI@forgive?$AA@
  00f1a	8d 4c 24 54	 lea	 ecx, DWORD PTR $T14[esp+200]
  00f1e	e8 00 00 00 00	 call	 ??0?$basic_string@DU?$char_traits@D@std@@V?$allocator@D@2@@std@@QAE@PBD@Z ; std::basic_string<char,std::char_traits<char>,std::allocator<char> >::basic_string<char,std::char_traits<char>,std::allocator<char> >
  00f23	8d 44 24 50	 lea	 eax, DWORD PTR $T14[esp+196]
  00f27	c6 84 24 c0 00
	00 00 08	 mov	 BYTE PTR __$EHRec$[esp+204], 8
  00f2f	50		 push	 eax
  00f30	b9 00 00 00 00	 mov	 ecx, OFFSET ?s_emotionDict@?NE@??ServerCommand@CPythonNetworkStream@@QAEXPAD@Z@4V?$map@V?$basic_string@DU?$char_traits@D@std@@V?$allocator@D@2@@std@@HU?$less@V?$basic_string@DU?$char_traits@D@std@@V?$allocator@D@2@@std@@@2@V?$allocator@U?$pair@$$CBV?$basic_string@DU?$char_traits@D@std@@V?$allocator@D@2@@std@@H@std@@@2@@std@@A
  00f35	e8 00 00 00 00	 call	 ??A?$map@V?$basic_string@DU?$char_traits@D@std@@V?$allocator@D@2@@std@@HU?$less@V?$basic_string@DU?$char_traits@D@std@@V?$allocator@D@2@@std@@@2@V?$allocator@U?$pair@$$CBV?$basic_string@DU?$char_traits@D@std@@V?$allocator@D@2@@std@@H@std@@@2@@std@@QAEAAH$$QAV?$basic_string@DU?$char_traits@D@std@@V?$allocator@D@2@@1@@Z ; std::map<std::basic_string<char,std::char_traits<char>,std::allocator<char> >,int,std::less<std::basic_string<char,std::char_traits<char>,std::allocator<char> > >,std::allocator<std::pair<std::basic_string<char,std::char_traits<char>,std::allocator<char> > const ,int> > >::operator[]
  00f3a	8d 4c 24 50	 lea	 ecx, DWORD PTR $T14[esp+196]
  00f3e	c6 84 24 c0 00
	00 00 00	 mov	 BYTE PTR __$EHRec$[esp+204], 0
  00f46	c7 00 58 01 00
	00		 mov	 DWORD PTR [eax], 344	; 00000158H
  00f4c	e8 00 00 00 00	 call	 ??1?$basic_string@DU?$char_traits@D@std@@V?$allocator@D@2@@std@@QAE@XZ ; std::basic_string<char,std::char_traits<char>,std::allocator<char> >::~basic_string<char,std::char_traits<char>,std::allocator<char> >

; 531  : 			s_emotionDict["angry"] = CRaceMotionData::NAME_ANGRY;

  00f51	68 00 00 00 00	 push	 OFFSET ??_C@_05KEOOPKLE@angry?$AA@
  00f56	8d 4c 24 54	 lea	 ecx, DWORD PTR $T13[esp+200]
  00f5a	e8 00 00 00 00	 call	 ??0?$basic_string@DU?$char_traits@D@std@@V?$allocator@D@2@@std@@QAE@PBD@Z ; std::basic_string<char,std::char_traits<char>,std::allocator<char> >::basic_string<char,std::char_traits<char>,std::allocator<char> >
  00f5f	8d 44 24 50	 lea	 eax, DWORD PTR $T13[esp+196]
  00f63	c6 84 24 c0 00
	00 00 09	 mov	 BYTE PTR __$EHRec$[esp+204], 9
  00f6b	50		 push	 eax
  00f6c	b9 00 00 00 00	 mov	 ecx, OFFSET ?s_emotionDict@?NE@??ServerCommand@CPythonNetworkStream@@QAEXPAD@Z@4V?$map@V?$basic_string@DU?$char_traits@D@std@@V?$allocator@D@2@@std@@HU?$less@V?$basic_string@DU?$char_traits@D@std@@V?$allocator@D@2@@std@@@2@V?$allocator@U?$pair@$$CBV?$basic_string@DU?$char_traits@D@std@@V?$allocator@D@2@@std@@H@std@@@2@@std@@A
  00f71	e8 00 00 00 00	 call	 ??A?$map@V?$basic_string@DU?$char_traits@D@std@@V?$allocator@D@2@@std@@HU?$less@V?$basic_string@DU?$char_traits@D@std@@V?$allocator@D@2@@std@@@2@V?$allocator@U?$pair@$$CBV?$basic_string@DU?$char_traits@D@std@@V?$allocator@D@2@@std@@H@std@@@2@@std@@QAEAAH$$QAV?$basic_string@DU?$char_traits@D@std@@V?$allocator@D@2@@1@@Z ; std::map<std::basic_string<char,std::char_traits<char>,std::allocator<char> >,int,std::less<std::basic_string<char,std::char_traits<char>,std::allocator<char> > >,std::allocator<std::pair<std::basic_string<char,std::char_traits<char>,std::allocator<char> > const ,int> > >::operator[]
  00f76	8d 4c 24 50	 lea	 ecx, DWORD PTR $T13[esp+196]
  00f7a	c6 84 24 c0 00
	00 00 00	 mov	 BYTE PTR __$EHRec$[esp+204], 0
  00f82	c7 00 59 01 00
	00		 mov	 DWORD PTR [eax], 345	; 00000159H
  00f88	e8 00 00 00 00	 call	 ??1?$basic_string@DU?$char_traits@D@std@@V?$allocator@D@2@@std@@QAE@XZ ; std::basic_string<char,std::char_traits<char>,std::allocator<char> >::~basic_string<char,std::char_traits<char>,std::allocator<char> >

; 532  : 			s_emotionDict["attractive"] = CRaceMotionData::NAME_ATTRACTIVE;

  00f8d	68 00 00 00 00	 push	 OFFSET ??_C@_0L@BIJBGJBO@attractive?$AA@
  00f92	8d 4c 24 54	 lea	 ecx, DWORD PTR $T12[esp+200]
  00f96	e8 00 00 00 00	 call	 ??0?$basic_string@DU?$char_traits@D@std@@V?$allocator@D@2@@std@@QAE@PBD@Z ; std::basic_string<char,std::char_traits<char>,std::allocator<char> >::basic_string<char,std::char_traits<char>,std::allocator<char> >
  00f9b	8d 44 24 50	 lea	 eax, DWORD PTR $T12[esp+196]
  00f9f	c6 84 24 c0 00
	00 00 0a	 mov	 BYTE PTR __$EHRec$[esp+204], 10 ; 0000000aH
  00fa7	50		 push	 eax
  00fa8	b9 00 00 00 00	 mov	 ecx, OFFSET ?s_emotionDict@?NE@??ServerCommand@CPythonNetworkStream@@QAEXPAD@Z@4V?$map@V?$basic_string@DU?$char_traits@D@std@@V?$allocator@D@2@@std@@HU?$less@V?$basic_string@DU?$char_traits@D@std@@V?$allocator@D@2@@std@@@2@V?$allocator@U?$pair@$$CBV?$basic_string@DU?$char_traits@D@std@@V?$allocator@D@2@@std@@H@std@@@2@@std@@A
  00fad	e8 00 00 00 00	 call	 ??A?$map@V?$basic_string@DU?$char_traits@D@std@@V?$allocator@D@2@@std@@HU?$less@V?$basic_string@DU?$char_traits@D@std@@V?$allocator@D@2@@std@@@2@V?$allocator@U?$pair@$$CBV?$basic_string@DU?$char_traits@D@std@@V?$allocator@D@2@@std@@H@std@@@2@@std@@QAEAAH$$QAV?$basic_string@DU?$char_traits@D@std@@V?$allocator@D@2@@1@@Z ; std::map<std::basic_string<char,std::char_traits<char>,std::allocator<char> >,int,std::less<std::basic_string<char,std::char_traits<char>,std::allocator<char> > >,std::allocator<std::pair<std::basic_string<char,std::char_traits<char>,std::allocator<char> > const ,int> > >::operator[]
  00fb2	8d 4c 24 50	 lea	 ecx, DWORD PTR $T12[esp+196]
  00fb6	c6 84 24 c0 00
	00 00 00	 mov	 BYTE PTR __$EHRec$[esp+204], 0
  00fbe	c7 00 5a 01 00
	00		 mov	 DWORD PTR [eax], 346	; 0000015aH
  00fc4	e8 00 00 00 00	 call	 ??1?$basic_string@DU?$char_traits@D@std@@V?$allocator@D@2@@std@@QAE@XZ ; std::basic_string<char,std::char_traits<char>,std::allocator<char> >::~basic_string<char,std::char_traits<char>,std::allocator<char> >

; 533  : 			s_emotionDict["sad"] = CRaceMotionData::NAME_SAD;

  00fc9	68 00 00 00 00	 push	 OFFSET ??_C@_03OPLFCACF@sad?$AA@
  00fce	8d 4c 24 54	 lea	 ecx, DWORD PTR $T11[esp+200]
  00fd2	e8 00 00 00 00	 call	 ??0?$basic_string@DU?$char_traits@D@std@@V?$allocator@D@2@@std@@QAE@PBD@Z ; std::basic_string<char,std::char_traits<char>,std::allocator<char> >::basic_string<char,std::char_traits<char>,std::allocator<char> >
  00fd7	8d 44 24 50	 lea	 eax, DWORD PTR $T11[esp+196]
  00fdb	c6 84 24 c0 00
	00 00 0b	 mov	 BYTE PTR __$EHRec$[esp+204], 11 ; 0000000bH
  00fe3	50		 push	 eax
  00fe4	b9 00 00 00 00	 mov	 ecx, OFFSET ?s_emotionDict@?NE@??ServerCommand@CPythonNetworkStream@@QAEXPAD@Z@4V?$map@V?$basic_string@DU?$char_traits@D@std@@V?$allocator@D@2@@std@@HU?$less@V?$basic_string@DU?$char_traits@D@std@@V?$allocator@D@2@@std@@@2@V?$allocator@U?$pair@$$CBV?$basic_string@DU?$char_traits@D@std@@V?$allocator@D@2@@std@@H@std@@@2@@std@@A
  00fe9	e8 00 00 00 00	 call	 ??A?$map@V?$basic_string@DU?$char_traits@D@std@@V?$allocator@D@2@@std@@HU?$less@V?$basic_string@DU?$char_traits@D@std@@V?$allocator@D@2@@std@@@2@V?$allocator@U?$pair@$$CBV?$basic_string@DU?$char_traits@D@std@@V?$allocator@D@2@@std@@H@std@@@2@@std@@QAEAAH$$QAV?$basic_string@DU?$char_traits@D@std@@V?$allocator@D@2@@1@@Z ; std::map<std::basic_string<char,std::char_traits<char>,std::allocator<char> >,int,std::less<std::basic_string<char,std::char_traits<char>,std::allocator<char> > >,std::allocator<std::pair<std::basic_string<char,std::char_traits<char>,std::allocator<char> > const ,int> > >::operator[]
  00fee	8d 4c 24 50	 lea	 ecx, DWORD PTR $T11[esp+196]
  00ff2	c6 84 24 c0 00
	00 00 00	 mov	 BYTE PTR __$EHRec$[esp+204], 0
  00ffa	c7 00 5b 01 00
	00		 mov	 DWORD PTR [eax], 347	; 0000015bH
  01000	e8 00 00 00 00	 call	 ??1?$basic_string@DU?$char_traits@D@std@@V?$allocator@D@2@@std@@QAE@XZ ; std::basic_string<char,std::char_traits<char>,std::allocator<char> >::~basic_string<char,std::char_traits<char>,std::allocator<char> >

; 534  : 			s_emotionDict["shy"] = CRaceMotionData::NAME_SHY;

  01005	68 00 00 00 00	 push	 OFFSET ??_C@_03BPAIHHLG@shy?$AA@
  0100a	8d 4c 24 54	 lea	 ecx, DWORD PTR $T10[esp+200]
  0100e	e8 00 00 00 00	 call	 ??0?$basic_string@DU?$char_traits@D@std@@V?$allocator@D@2@@std@@QAE@PBD@Z ; std::basic_string<char,std::char_traits<char>,std::allocator<char> >::basic_string<char,std::char_traits<char>,std::allocator<char> >
  01013	8d 44 24 50	 lea	 eax, DWORD PTR $T10[esp+196]
  01017	c6 84 24 c0 00
	00 00 0c	 mov	 BYTE PTR __$EHRec$[esp+204], 12 ; 0000000cH
  0101f	50		 push	 eax
  01020	b9 00 00 00 00	 mov	 ecx, OFFSET ?s_emotionDict@?NE@??ServerCommand@CPythonNetworkStream@@QAEXPAD@Z@4V?$map@V?$basic_string@DU?$char_traits@D@std@@V?$allocator@D@2@@std@@HU?$less@V?$basic_string@DU?$char_traits@D@std@@V?$allocator@D@2@@std@@@2@V?$allocator@U?$pair@$$CBV?$basic_string@DU?$char_traits@D@std@@V?$allocator@D@2@@std@@H@std@@@2@@std@@A
  01025	e8 00 00 00 00	 call	 ??A?$map@V?$basic_string@DU?$char_traits@D@std@@V?$allocator@D@2@@std@@HU?$less@V?$basic_string@DU?$char_traits@D@std@@V?$allocator@D@2@@std@@@2@V?$allocator@U?$pair@$$CBV?$basic_string@DU?$char_traits@D@std@@V?$allocator@D@2@@std@@H@std@@@2@@std@@QAEAAH$$QAV?$basic_string@DU?$char_traits@D@std@@V?$allocator@D@2@@1@@Z ; std::map<std::basic_string<char,std::char_traits<char>,std::allocator<char> >,int,std::less<std::basic_string<char,std::char_traits<char>,std::allocator<char> > >,std::allocator<std::pair<std::basic_string<char,std::char_traits<char>,std::allocator<char> > const ,int> > >::operator[]
  0102a	8d 4c 24 50	 lea	 ecx, DWORD PTR $T10[esp+196]
  0102e	c6 84 24 c0 00
	00 00 00	 mov	 BYTE PTR __$EHRec$[esp+204], 0
  01036	c7 00 5c 01 00
	00		 mov	 DWORD PTR [eax], 348	; 0000015cH
  0103c	e8 00 00 00 00	 call	 ??1?$basic_string@DU?$char_traits@D@std@@V?$allocator@D@2@@std@@QAE@XZ ; std::basic_string<char,std::char_traits<char>,std::allocator<char> >::~basic_string<char,std::char_traits<char>,std::allocator<char> >

; 535  : 			s_emotionDict["cheerup"] = CRaceMotionData::NAME_CHEERUP;

  01041	68 00 00 00 00	 push	 OFFSET ??_C@_07MJDIFIMC@cheerup?$AA@
  01046	8d 4c 24 54	 lea	 ecx, DWORD PTR $T9[esp+200]
  0104a	e8 00 00 00 00	 call	 ??0?$basic_string@DU?$char_traits@D@std@@V?$allocator@D@2@@std@@QAE@PBD@Z ; std::basic_string<char,std::char_traits<char>,std::allocator<char> >::basic_string<char,std::char_traits<char>,std::allocator<char> >
  0104f	8d 44 24 50	 lea	 eax, DWORD PTR $T9[esp+196]
  01053	c6 84 24 c0 00
	00 00 0d	 mov	 BYTE PTR __$EHRec$[esp+204], 13 ; 0000000dH
  0105b	50		 push	 eax
  0105c	b9 00 00 00 00	 mov	 ecx, OFFSET ?s_emotionDict@?NE@??ServerCommand@CPythonNetworkStream@@QAEXPAD@Z@4V?$map@V?$basic_string@DU?$char_traits@D@std@@V?$allocator@D@2@@std@@HU?$less@V?$basic_string@DU?$char_traits@D@std@@V?$allocator@D@2@@std@@@2@V?$allocator@U?$pair@$$CBV?$basic_string@DU?$char_traits@D@std@@V?$allocator@D@2@@std@@H@std@@@2@@std@@A
  01061	e8 00 00 00 00	 call	 ??A?$map@V?$basic_string@DU?$char_traits@D@std@@V?$allocator@D@2@@std@@HU?$less@V?$basic_string@DU?$char_traits@D@std@@V?$allocator@D@2@@std@@@2@V?$allocator@U?$pair@$$CBV?$basic_string@DU?$char_traits@D@std@@V?$allocator@D@2@@std@@H@std@@@2@@std@@QAEAAH$$QAV?$basic_string@DU?$char_traits@D@std@@V?$allocator@D@2@@1@@Z ; std::map<std::basic_string<char,std::char_traits<char>,std::allocator<char> >,int,std::less<std::basic_string<char,std::char_traits<char>,std::allocator<char> > >,std::allocator<std::pair<std::basic_string<char,std::char_traits<char>,std::allocator<char> > const ,int> > >::operator[]
  01066	8d 4c 24 50	 lea	 ecx, DWORD PTR $T9[esp+196]
  0106a	c6 84 24 c0 00
	00 00 00	 mov	 BYTE PTR __$EHRec$[esp+204], 0
  01072	c7 00 5d 01 00
	00		 mov	 DWORD PTR [eax], 349	; 0000015dH
  01078	e8 00 00 00 00	 call	 ??1?$basic_string@DU?$char_traits@D@std@@V?$allocator@D@2@@std@@QAE@XZ ; std::basic_string<char,std::char_traits<char>,std::allocator<char> >::~basic_string<char,std::char_traits<char>,std::allocator<char> >

; 536  : 			s_emotionDict["banter"] = CRaceMotionData::NAME_BANTER;

  0107d	68 00 00 00 00	 push	 OFFSET ??_C@_06CMFIENOK@banter?$AA@
  01082	8d 4c 24 54	 lea	 ecx, DWORD PTR $T8[esp+200]
  01086	e8 00 00 00 00	 call	 ??0?$basic_string@DU?$char_traits@D@std@@V?$allocator@D@2@@std@@QAE@PBD@Z ; std::basic_string<char,std::char_traits<char>,std::allocator<char> >::basic_string<char,std::char_traits<char>,std::allocator<char> >
  0108b	8d 44 24 50	 lea	 eax, DWORD PTR $T8[esp+196]
  0108f	c6 84 24 c0 00
	00 00 0e	 mov	 BYTE PTR __$EHRec$[esp+204], 14 ; 0000000eH
  01097	50		 push	 eax
  01098	b9 00 00 00 00	 mov	 ecx, OFFSET ?s_emotionDict@?NE@??ServerCommand@CPythonNetworkStream@@QAEXPAD@Z@4V?$map@V?$basic_string@DU?$char_traits@D@std@@V?$allocator@D@2@@std@@HU?$less@V?$basic_string@DU?$char_traits@D@std@@V?$allocator@D@2@@std@@@2@V?$allocator@U?$pair@$$CBV?$basic_string@DU?$char_traits@D@std@@V?$allocator@D@2@@std@@H@std@@@2@@std@@A
  0109d	e8 00 00 00 00	 call	 ??A?$map@V?$basic_string@DU?$char_traits@D@std@@V?$allocator@D@2@@std@@HU?$less@V?$basic_string@DU?$char_traits@D@std@@V?$allocator@D@2@@std@@@2@V?$allocator@U?$pair@$$CBV?$basic_string@DU?$char_traits@D@std@@V?$allocator@D@2@@std@@H@std@@@2@@std@@QAEAAH$$QAV?$basic_string@DU?$char_traits@D@std@@V?$allocator@D@2@@1@@Z ; std::map<std::basic_string<char,std::char_traits<char>,std::allocator<char> >,int,std::less<std::basic_string<char,std::char_traits<char>,std::allocator<char> > >,std::allocator<std::pair<std::basic_string<char,std::char_traits<char>,std::allocator<char> > const ,int> > >::operator[]
  010a2	8d 4c 24 50	 lea	 ecx, DWORD PTR $T8[esp+196]
  010a6	c6 84 24 c0 00
	00 00 00	 mov	 BYTE PTR __$EHRec$[esp+204], 0
  010ae	c7 00 5e 01 00
	00		 mov	 DWORD PTR [eax], 350	; 0000015eH
  010b4	e8 00 00 00 00	 call	 ??1?$basic_string@DU?$char_traits@D@std@@V?$allocator@D@2@@std@@QAE@XZ ; std::basic_string<char,std::char_traits<char>,std::allocator<char> >::~basic_string<char,std::char_traits<char>,std::allocator<char> >

; 537  : 			s_emotionDict["joy"] = CRaceMotionData::NAME_JOY;

  010b9	68 00 00 00 00	 push	 OFFSET ??_C@_03DHFGHJCG@joy?$AA@
  010be	8d 4c 24 6c	 lea	 ecx, DWORD PTR $T22[esp+200]
  010c2	e8 00 00 00 00	 call	 ??0?$basic_string@DU?$char_traits@D@std@@V?$allocator@D@2@@std@@QAE@PBD@Z ; std::basic_string<char,std::char_traits<char>,std::allocator<char> >::basic_string<char,std::char_traits<char>,std::allocator<char> >
  010c7	c6 84 24 c0 00
	00 00 0f	 mov	 BYTE PTR __$EHRec$[esp+204], 15 ; 0000000fH
  010cf	8d 44 24 68	 lea	 eax, DWORD PTR $T22[esp+196]
  010d3	b9 00 00 00 00	 mov	 ecx, OFFSET ?s_emotionDict@?NE@??ServerCommand@CPythonNetworkStream@@QAEXPAD@Z@4V?$map@V?$basic_string@DU?$char_traits@D@std@@V?$allocator@D@2@@std@@HU?$less@V?$basic_string@DU?$char_traits@D@std@@V?$allocator@D@2@@std@@@2@V?$allocator@U?$pair@$$CBV?$basic_string@DU?$char_traits@D@std@@V?$allocator@D@2@@std@@H@std@@@2@@std@@A
  010d8	50		 push	 eax
  010d9	e8 00 00 00 00	 call	 ??A?$map@V?$basic_string@DU?$char_traits@D@std@@V?$allocator@D@2@@std@@HU?$less@V?$basic_string@DU?$char_traits@D@std@@V?$allocator@D@2@@std@@@2@V?$allocator@U?$pair@$$CBV?$basic_string@DU?$char_traits@D@std@@V?$allocator@D@2@@std@@H@std@@@2@@std@@QAEAAH$$QAV?$basic_string@DU?$char_traits@D@std@@V?$allocator@D@2@@1@@Z ; std::map<std::basic_string<char,std::char_traits<char>,std::allocator<char> >,int,std::less<std::basic_string<char,std::char_traits<char>,std::allocator<char> > >,std::allocator<std::pair<std::basic_string<char,std::char_traits<char>,std::allocator<char> > const ,int> > >::operator[]
  010de	8d 4c 24 68	 lea	 ecx, DWORD PTR $T22[esp+196]
  010e2	c6 84 24 c0 00
	00 00 00	 mov	 BYTE PTR __$EHRec$[esp+204], 0
  010ea	c7 00 5f 01 00
	00		 mov	 DWORD PTR [eax], 351	; 0000015fH
  010f0	e8 00 00 00 00	 call	 ??1?$basic_string@DU?$char_traits@D@std@@V?$allocator@D@2@@std@@QAE@XZ ; std::basic_string<char,std::char_traits<char>,std::allocator<char> >::~basic_string<char,std::char_traits<char>,std::allocator<char> >
$LN4@ServerComm:

; 538  : 		}
; 539  : 
; 540  : 		std::map<std::string, int>::iterator f = s_emotionDict.find(szCmd);

  010f5	56		 push	 esi
  010f6	8d 4c 24 54	 lea	 ecx, DWORD PTR $T7[esp+200]
  010fa	e8 00 00 00 00	 call	 ??0?$basic_string@DU?$char_traits@D@std@@V?$allocator@D@2@@std@@QAE@PBD@Z ; std::basic_string<char,std::char_traits<char>,std::allocator<char> >::basic_string<char,std::char_traits<char>,std::allocator<char> >
  010ff	8d 44 24 50	 lea	 eax, DWORD PTR $T7[esp+196]
  01103	b9 00 00 00 00	 mov	 ecx, OFFSET ?s_emotionDict@?NE@??ServerCommand@CPythonNetworkStream@@QAEXPAD@Z@4V?$map@V?$basic_string@DU?$char_traits@D@std@@V?$allocator@D@2@@std@@HU?$less@V?$basic_string@DU?$char_traits@D@std@@V?$allocator@D@2@@std@@@2@V?$allocator@U?$pair@$$CBV?$basic_string@DU?$char_traits@D@std@@V?$allocator@D@2@@std@@H@std@@@2@@std@@A
  01108	50		 push	 eax
  01109	8d 44 24 40	 lea	 eax, DWORD PTR _f$6[esp+200]
  0110d	50		 push	 eax
  0110e	e8 00 00 00 00	 call	 ?find@?$_Tree@V?$_Tmap_traits@V?$basic_string@DU?$char_traits@D@std@@V?$allocator@D@2@@std@@HU?$less@V?$basic_string@DU?$char_traits@D@std@@V?$allocator@D@2@@std@@@2@V?$allocator@U?$pair@$$CBV?$basic_string@DU?$char_traits@D@std@@V?$allocator@D@2@@std@@H@std@@@2@$0A@@std@@@std@@QAE?AV?$_Tree_iterator@V?$_Tree_val@U?$_Tree_simple_types@U?$pair@$$CBV?$basic_string@DU?$char_traits@D@std@@V?$allocator@D@2@@std@@H@std@@@std@@@std@@@2@ABV?$basic_string@DU?$char_traits@D@std@@V?$allocator@D@2@@2@@Z ; std::_Tree<std::_Tmap_traits<std::basic_string<char,std::char_traits<char>,std::allocator<char> >,int,std::less<std::basic_string<char,std::char_traits<char>,std::allocator<char> > >,std::allocator<std::pair<std::basic_string<char,std::char_traits<char>,std::allocator<char> > const ,int> >,0> >::find
  01113	8d 4c 24 50	 lea	 ecx, DWORD PTR $T7[esp+196]
  01117	e8 00 00 00 00	 call	 ??1?$basic_string@DU?$char_traits@D@std@@V?$allocator@D@2@@std@@QAE@XZ ; std::basic_string<char,std::char_traits<char>,std::allocator<char> >::~basic_string<char,std::char_traits<char>,std::allocator<char> >
; File c:\program files (x86)\microsoft visual studio 12.0\vc\include\xtree

; 336  : 		return (this->_Ptr == _Right._Ptr);

  0111c	8b 44 24 3c	 mov	 eax, DWORD PTR _f$6[esp+196]
  01120	3b 05 00 00 00
	00		 cmp	 eax, DWORD PTR ?s_emotionDict@?NE@??ServerCommand@CPythonNetworkStream@@QAEXPAD@Z@4V?$map@V?$basic_string@DU?$char_traits@D@std@@V?$allocator@D@2@@std@@HU?$less@V?$basic_string@DU?$char_traits@D@std@@V?$allocator@D@2@@std@@@2@V?$allocator@U?$pair@$$CBV?$basic_string@DU?$char_traits@D@std@@V?$allocator@D@2@@std@@H@std@@@2@@std@@A
; File d:\metin2\metin2\client_source_clean\client_source_clean\source\userinterface\pythonnetworkstreamcommand.cpp

; 541  : 		if (f == s_emotionDict.end())

  01126	75 11		 jne	 SHORT $LN3@ServerComm

; 542  : 		{
; 543  : 			TraceError("Unknown Server Command %s | %s", c_szCommand, szCmd);

  01128	56		 push	 esi
  01129	57		 push	 edi
  0112a	68 00 00 00 00	 push	 OFFSET ??_C@_0BP@HJIPKFJO@Unknown?5Server?5Command?5?$CFs?5?$HM?5?$CFs?$AA@
  0112f	e8 00 00 00 00	 call	 ?TraceError@@YAXPBDZZ	; TraceError
  01134	83 c4 0c	 add	 esp, 12			; 0000000cH
  01137	eb 2f		 jmp	 SHORT $LN704@ServerComm
$LN3@ServerComm:
; File c:\program files (x86)\microsoft visual studio 12.0\vc\include\xstring

; 520  : 			: this->_Bx._Buf);

  01139	83 7b 2c 10	 cmp	 DWORD PTR [ebx+44], 16	; 00000010H
; File d:\metin2\metin2\client_source_clean\client_source_clean\source\userinterface\pythonnetworkstreamcommand.cpp

; 547  : 			int emotionIndex = f->second;

  0113d	8b 70 28	 mov	 esi, DWORD PTR [eax+40]
; File c:\program files (x86)\microsoft visual studio 12.0\vc\include\vector

; 1209 : 		return (*(this->_Myfirst + _Pos));

  01140	8d 43 18	 lea	 eax, DWORD PTR [ebx+24]
; File c:\program files (x86)\microsoft visual studio 12.0\vc\include\xstring

; 520  : 			: this->_Bx._Buf);

  01143	72 02		 jb	 SHORT $LN664@ServerComm
; File c:\program files (x86)\microsoft visual studio 12.0\vc\include\xstddef

; 95   : 		reinterpret_cast<const volatile char&>(_Val)))));

  01145	8b 00		 mov	 eax, DWORD PTR [eax]
$LN664@ServerComm:
; File d:\metin2\metin2\client_source_clean\client_source_clean\source\userinterface\pythonnetworkstreamcommand.cpp

; 549  : 			int iVID = atoi(TokenVector[1].c_str());

  01147	50		 push	 eax
  01148	e8 00 00 00 00	 call	 __atoi64

; 550  : 			IAbstractCharacterManager & rkChrMgr = IAbstractCharacterManager::GetSingleton();

  0114d	8b 0d 00 00 00
	00		 mov	 ecx, DWORD PTR ?ms_singleton@?$TAbstractSingleton@VIAbstractCharacterManager@@@@0PAVIAbstractCharacterManager@@A ; TAbstractSingleton<IAbstractCharacterManager>::ms_singleton
  01153	83 c4 04	 add	 esp, 4

; 551  : 			CInstanceBase * pInstance = rkChrMgr.GetInstancePtr(iVID);

  01156	8b 11		 mov	 edx, DWORD PTR [ecx]
  01158	50		 push	 eax
  01159	ff 52 08	 call	 DWORD PTR [edx+8]

; 552  : 
; 553  : 			if (pInstance)

  0115c	85 c0		 test	 eax, eax
  0115e	74 08		 je	 SHORT $LN704@ServerComm

; 554  : 				pInstance->ActEmotion(emotionIndex);

  01160	56		 push	 esi
$LN713@ServerComm:
  01161	8b c8		 mov	 ecx, eax
  01163	e8 00 00 00 00	 call	 ?ActEmotion@CInstanceBase@@QAEXK@Z ; CInstanceBase::ActEmotion
$LN704@ServerComm:
  01168	8b 44 24 34	 mov	 eax, DWORD PTR _TokenVector$[esp+200]
$LN1@ServerComm:
; File c:\program files (x86)\microsoft visual studio 12.0\vc\include\vector

; 1623 : 		if (this->_Myfirst != pointer())

  0116c	85 db		 test	 ebx, ebx
  0116e	74 19		 je	 SHORT $LN672@ServerComm
; File c:\program files (x86)\microsoft visual studio 12.0\vc\include\xmemory0

; 96   : 	_Destroy_range(_First, _Last, _Al, _Ptr_cat(_First, _Last));

  01170	ff 74 24 3c	 push	 DWORD PTR __Cat$5[esp+196]
  01174	8d 4c 24 33	 lea	 ecx, DWORD PTR __Alval$2[esp+200]
  01178	51		 push	 ecx
  01179	50		 push	 eax
  0117a	53		 push	 ebx
  0117b	e8 00 00 00 00	 call	 ??$_Destroy_range@U?$_Wrap_alloc@V?$allocator@V?$basic_string@DU?$char_traits@D@std@@V?$allocator@D@2@@std@@@std@@@std@@@std@@YAXPAV?$basic_string@DU?$char_traits@D@std@@V?$allocator@D@2@@0@0AAU?$_Wrap_alloc@V?$allocator@V?$basic_string@DU?$char_traits@D@std@@V?$allocator@D@2@@std@@@std@@@0@U_Nonscalar_ptr_iterator_tag@0@@Z ; std::_Destroy_range<std::_Wrap_alloc<std::allocator<std::basic_string<char,std::char_traits<char>,std::allocator<char> > > > >

; 97   : 	}
; 98   : 
; 99   : 		// TEMPLATE CLASS _Is_simple_alloc
; 100  : template<class _Alty>
; 101  : 	struct _Is_simple_alloc
; 102  : 		: _Cat_base<is_same<typename _Alty::size_type, size_t>::value
; 103  : 		&& is_same<typename _Alty::difference_type, ptrdiff_t>::value
; 104  : 		&& is_same<typename _Alty::pointer,
; 105  : 			typename _Alty::value_type *>::value
; 106  : 		&& is_same<typename _Alty::const_pointer,
; 107  : 			const typename _Alty::value_type *>::value
; 108  : 		&& is_same<typename _Alty::reference,
; 109  : 			typename _Alty::value_type&>::value
; 110  : 		&& is_same<typename _Alty::const_reference,
; 111  : 			const typename _Alty::value_type&>::value>
; 112  : 	{	// tests if allocator has simple addressing
; 113  : 	};
; 114  : 
; 115  : 		// TEMPLATE CLASS _Simple_types
; 116  : template<class _Value_type>
; 117  : 	struct _Simple_types
; 118  : 	{	// wraps types needed by iterators
; 119  : 	typedef _Value_type value_type;
; 120  : 	typedef size_t size_type;
; 121  : 	typedef ptrdiff_t difference_type;
; 122  : 	typedef value_type *pointer;
; 123  : 	typedef const value_type *const_pointer;
; 124  : 	typedef value_type& reference;
; 125  : 	typedef const value_type& const_reference;
; 126  : 	};
; 127  : 
; 128  : 		// TEMPLATE CLASS _Get_voidptr
; 129  : template<class _Alty,
; 130  : 	class _Pointer>
; 131  : 	struct _Get_voidptr
; 132  : 	{	// get void pointer for allocator
; 133  : 	typedef typename _Alty::template rebind<void>::other _Alvoid;
; 134  : 	typedef typename _Alvoid::pointer type;
; 135  : 	};
; 136  : 
; 137  : template<class _Alty,
; 138  : 	class _Ty>
; 139  : 	struct _Get_voidptr<_Alty, _Ty *>
; 140  : 	{	// get raw void pointer for allocator
; 141  : 	typedef void *type;
; 142  : 	};
; 143  : 
; 144  : 		// TEMPLATE CLASS _Is_iterator
; 145  : template<class _Iter>
; 146  : 	struct _Is_iterator
; 147  : 	: public integral_constant<bool, !is_integral<_Iter>::value>
; 148  : 	{	// tests for reasonable iterator candidate
; 149  : 	};
; 150  : 
; 151  : 		// TEMPLATE STRUCT _Get_first_parameter
; 152  : template<class _Ty>
; 153  : 	struct _Get_first_parameter;
; 154  : 
; 155  : template<template<class, class...> class _Ty,
; 156  : 	class _First,
; 157  : 	class... _Rest>
; 158  : 	struct _Get_first_parameter<_Ty<_First, _Rest...> >
; 159  : 	{	// given _Ty<_First, _Rest...>, extract _First
; 160  : 	typedef _First type;
; 161  : 	};
; 162  : 
; 163  : 		// TEMPLATE STRUCT _Replace_first_parameter
; 164  : template<class _Newfirst,
; 165  : 	class _Ty>
; 166  : 	struct _Replace_first_parameter;
; 167  : 
; 168  : template<class _Newfirst,
; 169  : 	template<class, class...> class _Ty,
; 170  : 	class _First,
; 171  : 	class... _Rest>
; 172  : 	struct _Replace_first_parameter<_Newfirst, _Ty<_First, _Rest...> >
; 173  : 	{	// given _Ty<_First, _Rest...>, replace _First
; 174  : 	typedef _Ty<_Newfirst, _Rest...> type;
; 175  : 	};
; 176  : 
; 177  : 		// TEMPLATE STRUCT _Get_element_type
; 178  : template<class _Ty>
; 179  : 	struct _Get_element_type
; 180  : 	_GET_TYPE_OR_DEFAULT(element_type,
; 181  : 		typename _Get_first_parameter<_Uty>::type);
; 182  : 
; 183  : 		// TEMPLATE STRUCT _Get_ptr_difference_type
; 184  : template<class _Ty>
; 185  : 	struct _Get_ptr_difference_type
; 186  : 	_GET_TYPE_OR_DEFAULT(difference_type,
; 187  : 		ptrdiff_t);
; 188  : 
; 189  : 		// TEMPLATE STRUCT _Get_rebind_type
; 190  : template<class _Ty,
; 191  : 	class _Other>
; 192  : 	struct _Get_rebind_type
; 193  : 	_GET_TYPE_OR_DEFAULT(template rebind<_Other>::other,
; 194  : 		typename _Replace_first_parameter<_Other _COMMA _Uty>::type);
; 195  : 
; 196  : 		// TEMPLATE CLASS pointer_traits
; 197  : template<class _Ty>
; 198  : 	struct pointer_traits
; 199  : 	{	// defines traits for arbitrary pointers
; 200  : 	typedef typename _Get_element_type<_Ty>::type element_type;
; 201  : 	typedef _Ty pointer;
; 202  : 	typedef typename _Get_ptr_difference_type<_Ty>::type difference_type;
; 203  : 
; 204  : 	template<class _Other>
; 205  : 		using rebind = typename _Get_rebind_type<_Ty, _Other>::type;
; 206  : 
; 207  : 	typedef typename _If<is_void<element_type>::value,
; 208  : 		char&,
; 209  : 		typename add_reference<element_type>::type>::type _Reftype;
; 210  : 
; 211  : 	static pointer pointer_to(_Reftype _Val)
; 212  : 		{	// convert raw reference to pointer
; 213  : 		return (_Ty::pointer_to(_Val));
; 214  : 		}
; 215  : 	};
; 216  : 
; 217  : 		// TEMPLATE CLASS pointer_traits<_Ty *>
; 218  : template<class _Ty>
; 219  : 	struct pointer_traits<_Ty *>
; 220  : 	{	// defines traits for raw pointers
; 221  : 	typedef _Ty element_type;
; 222  : 	typedef _Ty *pointer;
; 223  : 	typedef ptrdiff_t difference_type;
; 224  : 
; 225  : 	template<class _Other>
; 226  : 		using rebind = _Other *;
; 227  : 
; 228  : 	typedef typename _If<is_void<_Ty>::value,
; 229  : 		char&,
; 230  : 		typename add_reference<_Ty>::type>::type _Reftype;
; 231  : 
; 232  : 	static pointer pointer_to(_Reftype _Val)
; 233  : 		{	// convert raw reference to pointer
; 234  : 		return (_STD addressof(_Val));
; 235  : 		}
; 236  : 	};
; 237  : 
; 238  : 		// TEMPLATE STRUCT _Get_pointer_type
; 239  : template<class _Ty>
; 240  : 	struct _Get_pointer_type
; 241  : 	_GET_TYPE_OR_DEFAULT(pointer,
; 242  : 		typename _Ty::value_type *);
; 243  : 
; 244  : 		// TEMPLATE STRUCT _Get_const_pointer_type
; 245  : template<class _Ty>
; 246  : 	struct _Get_const_pointer_type
; 247  : 	_GET_TYPE_OR_DEFAULT(const_pointer,
; 248  : 		typename pointer_traits<typename _Get_pointer_type<_Ty>::type>
; 249  : 			::template rebind<const typename _Ty::value_type>);
; 250  : 
; 251  : 		// TEMPLATE STRUCT _Get_void_pointer_type
; 252  : template<class _Ty>
; 253  : 	struct _Get_void_pointer_type
; 254  : 	_GET_TYPE_OR_DEFAULT(void_pointer,
; 255  : 		typename pointer_traits<typename _Get_pointer_type<_Ty>::type>
; 256  : 			::template rebind<void>);
; 257  : 
; 258  : 		// TEMPLATE STRUCT _Get_const_void_pointer_type
; 259  : template<class _Ty>
; 260  : 	struct _Get_const_void_pointer_type
; 261  : 	_GET_TYPE_OR_DEFAULT(const_void_pointer,
; 262  : 		typename pointer_traits<typename _Get_pointer_type<_Ty>::type>
; 263  : 			::template rebind<const void>);
; 264  : 
; 265  : 		// TEMPLATE STRUCT _Get_difference_type
; 266  : template<class _Ty>
; 267  : 	struct _Get_difference_type
; 268  : 	_GET_TYPE_OR_DEFAULT(difference_type,
; 269  : 		typename _Get_ptr_difference_type<
; 270  : 			typename _Get_pointer_type<_Ty>::type>::type);
; 271  : 
; 272  : 		// TEMPLATE STRUCT _Get_size_type
; 273  : template<class _Ty>
; 274  : 	struct _Get_size_type
; 275  : 	_GET_TYPE_OR_DEFAULT(size_type,
; 276  : 		typename make_unsigned<
; 277  : 			typename _Get_difference_type<_Ty>::type>::type);
; 278  : 
; 279  : 		// TEMPLATE STRUCT _Get_propagate_on_container_copy
; 280  : template<class _Ty>
; 281  : 	struct _Get_propagate_on_container_copy
; 282  : 	_GET_TYPE_OR_DEFAULT(propagate_on_container_copy_assignment,
; 283  : 		false_type);
; 284  : 
; 285  : 		// TEMPLATE STRUCT _Get_propagate_on_container_move
; 286  : template<class _Ty>
; 287  : 	struct _Get_propagate_on_container_move
; 288  : 	_GET_TYPE_OR_DEFAULT(propagate_on_container_move_assignment,
; 289  : 		false_type);
; 290  : 
; 291  : 		// TEMPLATE STRUCT _Get_propagate_on_container_swap
; 292  : template<class _Ty>
; 293  : 	struct _Get_propagate_on_container_swap
; 294  : 	_GET_TYPE_OR_DEFAULT(propagate_on_container_swap,
; 295  : 		false_type);
; 296  : 
; 297  : 		// STRUCT _Alloc_allocate
; 298  : struct _Alloc_allocate
; 299  : 	{	// determines allocator_traits<_Alloc>
; 300  : 		// ::allocate(size_type, const_void_pointer)
; 301  : 
; 302  : 	template<class _Alloc,
; 303  : 		class _Size_type,
; 304  : 		class _Const_void_pointer>
; 305  : 		static auto _Fn(int, _Alloc& _Al,
; 306  : 			_Size_type _Count,
; 307  : 			_Const_void_pointer _Hint)
; 308  : 			-> decltype(_Al.allocate(_Count, _Hint))
; 309  : 		{	// call allocator supplied version
; 310  : 		return (_Al.allocate(_Count, _Hint));
; 311  : 		}
; 312  : 
; 313  : 	template<class _Alloc,
; 314  : 		class _Size_type,
; 315  : 		class _Const_void_pointer>
; 316  : 		static auto _Fn(_Wrap_int, _Alloc& _Al,
; 317  : 			_Size_type _Count,
; 318  : 			_Const_void_pointer)
; 319  : 			-> decltype(_Al.allocate(_Count))
; 320  : 		{	// call default version
; 321  : 		return (_Al.allocate(_Count));
; 322  : 		}
; 323  : 	};
; 324  : 
; 325  : 		// STRUCT _Alloc_construct
; 326  : struct _Alloc_construct
; 327  : 	{	// determines allocator_traits<_Ty>
; 328  : 		// ::construct(_Ty&, _Objty *, _Types...)
; 329  : 
; 330  : 	template<class _Ty,
; 331  : 		class _Objty,
; 332  : 		class... _Types>
; 333  : 		static auto _Fn(int, _Ty& _Al, _Objty *_Ptr,
; 334  : 			_Types&&... _Args)
; 335  : 			-> decltype(
; 336  : 				_Al.construct(_Ptr, _STD forward<_Types>(_Args)...))
; 337  : 		{	// call allocator supplied version
; 338  : 		_Al.construct(_Ptr, _STD forward<_Types>(_Args)...);
; 339  : 		}
; 340  : 
; 341  : 	template<class _Ty,
; 342  : 		class _Objty,
; 343  : 		class... _Types>
; 344  : 		static auto _Fn(_Wrap_int, _Ty&, _Objty *_Ptr,
; 345  : 			_Types&&... _Args)
; 346  : 			-> void
; 347  : 		{	// call default version
; 348  : 		::new (static_cast<void *>(_Ptr))
; 349  : 			_Objty(_STD forward<_Types>(_Args)...);
; 350  : 		}
; 351  : 
; 352  : 	};
; 353  : 
; 354  : 		// STRUCT _Alloc_destroy
; 355  : struct _Alloc_destroy
; 356  : 	{	// determines allocator_traits<_Ty>::destroy(_Ty&, _Objty *)
; 357  : 	template<class _Ty,
; 358  : 		class _Objty>
; 359  : 		static auto _Fn(int, _Ty& _Al, _Objty *_Ptr)
; 360  : 			-> decltype(_Al.destroy(_Ptr))
; 361  : 		{	// call allocator supplied version
; 362  : 		_Al.destroy(_Ptr);
; 363  : 		}
; 364  : 
; 365  : 	template<class _Ty,
; 366  : 		class _Objty>
; 367  : 		static auto _Fn(_Wrap_int, _Ty&, _Objty *_Ptr)
; 368  : 			-> void
; 369  : 		{	// call default version
; 370  : 		_Ptr->~_Objty();
; 371  : 		}
; 372  : 	};
; 373  : 
; 374  : 		// STRUCT _Alloc_max_size
; 375  : struct _Alloc_max_size
; 376  : 	{	// determines allocator_traits<_Ty>::max_size(const _Ty&)
; 377  : 	template<class _Ty>
; 378  : 		static auto _Fn(int, const _Ty& _Al)
; 379  : 			-> decltype(_Al.max_size())
; 380  : 		{	// call allocator supplied version
; 381  : 		return (_Al.max_size());
; 382  : 		}
; 383  : 
; 384  : 	template<class _Ty>
; 385  : 		static auto _Fn(_Wrap_int, const _Ty&)
; 386  : 			-> typename _Get_size_type<_Ty>::type
; 387  : 		{	// call default version
; 388  : 		return ((numeric_limits<typename _Get_size_type<_Ty>::type>::max)());
; 389  : 		}
; 390  : 	};
; 391  : 
; 392  : 		// STRUCT _Alloc_select
; 393  : struct _Alloc_select
; 394  : 	{	// determines allocator_traits<_Ty>
; 395  : 		// ::select_on_container_copy_construction(const _Alloc&)
; 396  : 
; 397  : 	template<class _Ty>
; 398  : 		static auto _Fn(int, const _Ty& _Al)
; 399  : 			-> decltype((_Ty)_Al.select_on_container_copy_construction())
; 400  : 		{	// call allocator supplied version
; 401  : 		return (_Al.select_on_container_copy_construction());
; 402  : 		}
; 403  : 
; 404  : 	template<class _Ty>
; 405  : 		static auto _Fn(_Wrap_int, const _Ty& _Al)
; 406  : 			-> _Ty
; 407  : 		{	// call default version
; 408  : 		return (_Al);
; 409  : 		}
; 410  : 	};
; 411  : 
; 412  : 		// TEMPLATE CLASS allocator_traits
; 413  : template<class _Alloc>
; 414  : 	struct allocator_traits
; 415  : 	{	// defines traits for allocators
; 416  : 	typedef allocator_traits<_Alloc> other;
; 417  : 
; 418  : 	typedef _Alloc allocator_type;
; 419  : 	typedef typename _Alloc::value_type value_type;
; 420  : 
; 421  : 	typedef typename _Get_pointer_type<_Alloc>::type
; 422  : 		pointer;
; 423  : 	typedef typename _Get_const_pointer_type<_Alloc>::type
; 424  : 		const_pointer;
; 425  : 	typedef typename _Get_void_pointer_type<_Alloc>::type
; 426  : 		void_pointer;
; 427  : 	typedef typename _Get_const_void_pointer_type<_Alloc>::type
; 428  : 		const_void_pointer;
; 429  : 
; 430  : 	typedef typename _Get_size_type<_Alloc>::type size_type;
; 431  : 	typedef typename _Get_difference_type<_Alloc>::type difference_type;
; 432  : 
; 433  : 	typedef typename _Get_propagate_on_container_copy<_Alloc>::type
; 434  : 		propagate_on_container_copy_assignment;
; 435  : 	typedef typename _Get_propagate_on_container_move<_Alloc>::type
; 436  : 		propagate_on_container_move_assignment;
; 437  : 	typedef typename _Get_propagate_on_container_swap<_Alloc>::type
; 438  : 		propagate_on_container_swap;
; 439  : 
; 440  : 	template<class _Other>
; 441  : 		using rebind_alloc = typename _Get_rebind_type<_Alloc, _Other>::type;
; 442  : 
; 443  : 	template<class _Other>
; 444  : 		using rebind_traits = allocator_traits<rebind_alloc<_Other> >;
; 445  : 
; 446  : 	static pointer allocate(_Alloc& _Al, size_type _Count)
; 447  : 		{	// allocate array of _Count elements
; 448  : 		return (_Al.allocate(_Count));
; 449  : 		}
; 450  : 
; 451  : 	static pointer allocate(_Alloc& _Al, size_type _Count,
; 452  : 		const_void_pointer _Hint)
; 453  : 		{	// allocate array of _Count elements, with hint
; 454  : 		return (_Alloc_allocate::_Fn(0, _Al, _Count, _Hint));
; 455  : 		}
; 456  : 
; 457  : 	static void deallocate(_Alloc& _Al,
; 458  : 		pointer _Ptr, size_type _Count)
; 459  : 		{	// deallocate _Count elements at _Ptr
; 460  : 		_Al.deallocate(_Ptr, _Count);
; 461  : 		}
; 462  : 
; 463  : 	template<class _Ty,
; 464  : 		class... _Types>
; 465  : 		static void construct(_Alloc& _Al, _Ty *_Ptr,
; 466  : 			_Types&&... _Args)
; 467  : 		{	// construct _Ty(_Types...) at _Ptr
; 468  : 		_Alloc_construct::_Fn(0, _Al, _Ptr,
; 469  : 			_STD forward<_Types>(_Args)...);
; 470  : 		}
; 471  : 
; 472  : 
; 473  : 	template<class _Ty>
; 474  : 		static void destroy(_Alloc& _Al, _Ty *_Ptr)
; 475  : 		{	// destroy object at _Ptr
; 476  : 		_Alloc_destroy::_Fn(0, _Al, _Ptr);
; 477  : 		}
; 478  : 
; 479  : 	static size_type max_size(const _Alloc& _Al)
; 480  : 		{	// get maximum size
; 481  : 		return (_Alloc_max_size::_Fn(0, _Al));
; 482  : 		}
; 483  : 
; 484  : 	static _Alloc select_on_container_copy_construction(
; 485  : 		const _Alloc& _Al)
; 486  : 		{	// get allocator to use
; 487  : 		return (_Alloc_select::_Fn(0, _Al));
; 488  : 		}
; 489  : 	};
; 490  : 
; 491  : 		// TEMPLATE CLASS _Allocator_base
; 492  : template<class _Ty>
; 493  : 	struct _Allocator_base
; 494  : 	{	// base class for generic allocators
; 495  : 	typedef _Ty value_type;
; 496  : 	};
; 497  : 
; 498  : 		// TEMPLATE CLASS _Allocator_base<const _Ty>
; 499  : template<class _Ty>
; 500  : 	struct _Allocator_base<const _Ty>
; 501  : 	{	// base class for generic allocators for const _Ty
; 502  : 	typedef _Ty value_type;
; 503  : 	};
; 504  : 
; 505  : 		// TEMPLATE CLASS allocator
; 506  : template<class _Ty>
; 507  : 	class allocator
; 508  : 		: public _Allocator_base<_Ty>
; 509  : 	{	// generic allocator for objects of class _Ty
; 510  : public:
; 511  : 	typedef allocator<_Ty> other;
; 512  : 
; 513  : 	typedef _Allocator_base<_Ty> _Mybase;
; 514  : 	typedef typename _Mybase::value_type value_type;
; 515  : 
; 516  : 	typedef value_type *pointer;
; 517  : 	typedef const value_type *const_pointer;
; 518  : 	typedef void *void_pointer;
; 519  : 	typedef const void *const_void_pointer;
; 520  : 
; 521  : 	typedef value_type& reference;
; 522  : 	typedef const value_type& const_reference;
; 523  : 
; 524  : 	typedef size_t size_type;
; 525  : 	typedef ptrdiff_t difference_type;
; 526  : 
; 527  : 	typedef false_type propagate_on_container_copy_assignment;
; 528  : 	typedef false_type propagate_on_container_move_assignment;
; 529  : 	typedef false_type propagate_on_container_swap;
; 530  : 
; 531  : 	allocator<_Ty> select_on_container_copy_construction() const
; 532  : 		{	// return this allocator
; 533  : 		return (*this);
; 534  : 		}
; 535  : 
; 536  : 	template<class _Other>
; 537  : 		struct rebind
; 538  : 		{	// convert this type to allocator<_Other>
; 539  : 		typedef allocator<_Other> other;
; 540  : 		};
; 541  : 
; 542  : 	pointer address(reference _Val) const _NOEXCEPT
; 543  : 		{	// return address of mutable _Val
; 544  : 		return (_STD addressof(_Val));
; 545  : 		}
; 546  : 
; 547  : 	const_pointer address(const_reference _Val) const _NOEXCEPT
; 548  : 		{	// return address of nonmutable _Val
; 549  : 		return (_STD addressof(_Val));
; 550  : 		}
; 551  : 
; 552  : 	allocator() _THROW0()
; 553  : 		{	// construct default allocator (do nothing)
; 554  : 		}
; 555  : 
; 556  : 	allocator(const allocator<_Ty>&) _THROW0()
; 557  : 		{	// construct by copying (do nothing)
; 558  : 		}
; 559  : 
; 560  : 	template<class _Other>
; 561  : 		allocator(const allocator<_Other>&) _THROW0()
; 562  : 		{	// construct from a related allocator (do nothing)
; 563  : 		}
; 564  : 
; 565  : 	template<class _Other>
; 566  : 		allocator<_Ty>& operator=(const allocator<_Other>&)
; 567  : 		{	// assign from a related allocator (do nothing)
; 568  : 		return (*this);
; 569  : 		}
; 570  : 
; 571  : 	void deallocate(pointer _Ptr, size_type)
; 572  : 		{	// deallocate object at _Ptr, ignore size
; 573  : 		::operator delete(_Ptr);

  01180	53		 push	 ebx
  01181	e8 00 00 00 00	 call	 ??3@YAXPAX@Z		; operator delete
