; Listing generated by Microsoft (R) Optimizing Compiler Version 18.00.40629.0 

	TITLE	D:\Metin2\Metin2\client_source_clean\client_source_clean\source\UserInterface\PythonProfilerModule.cpp
	.686P
	.XMM
	include listing.inc
	.model	flat

INCLUDELIB OLDNAMES

PUBLIC	??_C@_03HJACNKKK@Pop?$AA@			; `string'
PUBLIC	??_C@_04KGLMKACB@Push?$AA@			; `string'
PUBLIC	??_C@_08BCLECBBK@profiler?$AA@			; `string'
;	COMDAT ?s_methods@?1??initProfiler@@YAXXZ@4PAUPyMethodDef@@A
_DATA	SEGMENT
?s_methods@?1??initProfiler@@YAXXZ@4PAUPyMethodDef@@A DD FLAT:??_C@_04KGLMKACB@Push?$AA@ ; `initProfiler'::`2'::s_methods
	DD	FLAT:?profilerPush@@YAPAU_object@@PAU1@0@Z
	DD	01H
	ORG $+4
	DD	FLAT:??_C@_03HJACNKKK@Pop?$AA@
	DD	FLAT:?profilerPop@@YAPAU_object@@PAU1@0@Z
	DD	01H
	ORG $+4
	DD	00H
	DD	00H
	DD	00H
	ORG $+4
_DATA	ENDS
;	COMDAT ??_C@_08BCLECBBK@profiler?$AA@
CONST	SEGMENT
??_C@_08BCLECBBK@profiler?$AA@ DB 'profiler', 00H	; `string'
CONST	ENDS
;	COMDAT ??_C@_04KGLMKACB@Push?$AA@
CONST	SEGMENT
??_C@_04KGLMKACB@Push?$AA@ DB 'Push', 00H		; `string'
CONST	ENDS
;	COMDAT ??_C@_03HJACNKKK@Pop?$AA@
CONST	SEGMENT
??_C@_03HJACNKKK@Pop?$AA@ DB 'Pop', 00H			; `string'
PUBLIC	?initProfiler@@YAXXZ				; initProfiler
PUBLIC	?profilerPop@@YAPAU_object@@PAU1@0@Z		; profilerPop
PUBLIC	?profilerPush@@YAPAU_object@@PAU1@0@Z		; profilerPush
; Function compile flags: /Ogtp
; File d:\metin2\metin2\client_source_clean\client_source_clean\source\userinterface\pythonprofilermodule.cpp
;	COMDAT ?profilerPush@@YAPAU_object@@PAU1@0@Z
_TEXT	SEGMENT
_szName$ = -4						; size = 4
_poSelf$ = 8						; size = 4
_poArgs$ = 12						; size = 4
?profilerPush@@YAPAU_object@@PAU1@0@Z PROC		; profilerPush, COMDAT

; 5    : {

  00000	55		 push	 ebp
  00001	8b ec		 mov	 ebp, esp
  00003	51		 push	 ecx

; 6    : 	char * szName;
; 7    : 	if (!PyTuple_GetString(poArgs, 0, &szName))

  00004	8d 45 fc	 lea	 eax, DWORD PTR _szName$[ebp]
  00007	50		 push	 eax
  00008	6a 00		 push	 0
  0000a	ff 75 0c	 push	 DWORD PTR _poArgs$[ebp]
  0000d	e8 00 00 00 00	 call	 ?PyTuple_GetString@@YA_NPAU_object@@HPAPAD@Z ; PyTuple_GetString
  00012	83 c4 0c	 add	 esp, 12			; 0000000cH
  00015	84 c0		 test	 al, al
  00017	75 0e		 jne	 SHORT $LN1@profilerPu

; 8    : 		return Py_BuildException();

  00019	6a 00		 push	 0
  0001b	e8 00 00 00 00	 call	 ?Py_BuildException@@YAPAU_object@@PBDZZ ; Py_BuildException
  00020	83 c4 04	 add	 esp, 4

; 11   : }

  00023	8b e5		 mov	 esp, ebp
  00025	5d		 pop	 ebp
  00026	c3		 ret	 0
$LN1@profilerPu:

; 9    : 
; 10   : 	return Py_BuildNone();

  00027	e8 00 00 00 00	 call	 ?Py_BuildNone@@YAPAU_object@@XZ ; Py_BuildNone

; 11   : }

  0002c	8b e5		 mov	 esp, ebp
  0002e	5d		 pop	 ebp
  0002f	c3		 ret	 0
?profilerPush@@YAPAU_object@@PAU1@0@Z ENDP		; profilerPush
_TEXT	ENDS
; Function compile flags: /Ogtp
; File d:\metin2\metin2\client_source_clean\client_source_clean\source\userinterface\pythonprofilermodule.cpp
;	COMDAT ?profilerPop@@YAPAU_object@@PAU1@0@Z
_TEXT	SEGMENT
_szName$ = -4						; size = 4
_poSelf$ = 8						; size = 4
_poArgs$ = 12						; size = 4
?profilerPop@@YAPAU_object@@PAU1@0@Z PROC		; profilerPop, COMDAT

; 14   : {

  00000	55		 push	 ebp
  00001	8b ec		 mov	 ebp, esp
  00003	51		 push	 ecx

; 15   : 	char * szName;
; 16   : 	if (!PyTuple_GetString(poArgs, 0, &szName))

  00004	8d 45 fc	 lea	 eax, DWORD PTR _szName$[ebp]
  00007	50		 push	 eax
  00008	6a 00		 push	 0
  0000a	ff 75 0c	 push	 DWORD PTR _poArgs$[ebp]
  0000d	e8 00 00 00 00	 call	 ?PyTuple_GetString@@YA_NPAU_object@@HPAPAD@Z ; PyTuple_GetString
  00012	83 c4 0c	 add	 esp, 12			; 0000000cH
  00015	84 c0		 test	 al, al
  00017	75 0e		 jne	 SHORT $LN1@profilerPo

; 17   : 		return Py_BuildException();

  00019	6a 00		 push	 0
  0001b	e8 00 00 00 00	 call	 ?Py_BuildException@@YAPAU_object@@PBDZZ ; Py_BuildException
  00020	83 c4 04	 add	 esp, 4

; 20   : }

  00023	8b e5		 mov	 esp, ebp
  00025	5d		 pop	 ebp
  00026	c3		 ret	 0
$LN1@profilerPo:

; 18   : 
; 19   : 	return Py_BuildNone();

  00027	e8 00 00 00 00	 call	 ?Py_BuildNone@@YAPAU_object@@XZ ; Py_BuildNone

; 20   : }

  0002c	8b e5		 mov	 esp, ebp
  0002e	5d		 pop	 ebp
  0002f	c3		 ret	 0
?profilerPop@@YAPAU_object@@PAU1@0@Z ENDP		; profilerPop
_TEXT	ENDS
; Function compile flags: /Ogtp
; File d:\metin2\metin2\client_source_clean\client_source_clean\source\userinterface\pythonprofilermodule.cpp
;	COMDAT ?initProfiler@@YAXXZ
_TEXT	SEGMENT
?initProfiler@@YAXXZ PROC				; initProfiler, COMDAT

; 24   : 	static PyMethodDef s_methods[] =
; 25   : 	{
; 26   : 		{ "Push",				profilerPush,				METH_VARARGS },
; 27   : 		{ "Pop",				profilerPop,				METH_VARARGS },
; 28   : 
; 29   : 		{ NULL,					NULL,						NULL		 },
; 30   : 	};
; 31   : 
; 32   : 	Py_InitModule("profiler", s_methods);

  00000	68 f5 03 00 00	 push	 1013			; 000003f5H
  00005	6a 00		 push	 0
  00007	6a 00		 push	 0
  00009	68 00 00 00 00	 push	 OFFSET ?s_methods@?1??initProfiler@@YAXXZ@4PAUPyMethodDef@@A
  0000e	68 00 00 00 00	 push	 OFFSET ??_C@_08BCLECBBK@profiler?$AA@
  00013	ff 15 00 00 00
	00		 call	 DWORD PTR __imp__Py_InitModule4
  00019	83 c4 14	 add	 esp, 20			; 00000014H

; 33   : }

  0001c	c3		 ret	 0
?initProfiler@@YAXXZ ENDP				; initProfiler
_TEXT	ENDS
END
