; Listing generated by Microsoft (R) Optimizing Compiler Version 18.00.40629.0 

	TITLE	D:\Metin2\Metin2\client_source_clean\client_source_clean\source\UserInterface\PythonNetworkStreamPhaseLogin.cpp
	.686P
	.XMM
	include listing.inc
	.model	flat

INCLUDELIB OLDNAMES

PUBLIC	??_C@_0BM@GIOJNFMI@?$CD?$CD?5Network?5?9?5Login?5Phase?5?$CD?$CD?$AA@ ; `string'
PUBLIC	??_C@_05DHEMANOL@Login?$AA@			; `string'
PUBLIC	??_C@_0BA@HOEIMIKO@SendDirectEnter?$AA@		; `string'
PUBLIC	??_C@_0N@GCHAFKJJ@OnLoginStart?$AA@		; `string'
PUBLIC	??_C@_0BP@LPFBEHCD@BINARY_OnNEWCIBNPasspodFailure?$AA@ ; `string'
;	COMDAT ??_C@_0BP@LPFBEHCD@BINARY_OnNEWCIBNPasspodFailure?$AA@
CONST	SEGMENT
??_C@_0BP@LPFBEHCD@BINARY_OnNEWCIBNPasspodFailure?$AA@ DB 'BINARY_OnNEWCI'
	DB	'BNPasspodFailure', 00H			; `string'
CONST	ENDS
;	COMDAT ??_C@_0N@GCHAFKJJ@OnLoginStart?$AA@
CONST	SEGMENT
??_C@_0N@GCHAFKJJ@OnLoginStart?$AA@ DB 'OnLoginStart', 00H ; `string'
CONST	ENDS
;	COMDAT ??_C@_0BA@HOEIMIKO@SendDirectEnter?$AA@
CONST	SEGMENT
??_C@_0BA@HOEIMIKO@SendDirectEnter?$AA@ DB 'SendDirectEnter', 00H ; `string'
CONST	ENDS
;	COMDAT ??_C@_05DHEMANOL@Login?$AA@
CONST	SEGMENT
??_C@_05DHEMANOL@Login?$AA@ DB 'Login', 00H		; `string'
CONST	ENDS
;	COMDAT ??_C@_0BM@GIOJNFMI@?$CD?$CD?5Network?5?9?5Login?5Phase?5?$CD?$CD?$AA@
CONST	SEGMENT
??_C@_0BM@GIOJNFMI@?$CD?$CD?5Network?5?9?5Login?5Phase?5?$CD?$CD?$AA@ DB '#'
	DB	'# Network - Login Phase ##', 00H		; `string'
PUBLIC	?__RecvLoginKeyPacket@CPythonNetworkStream@@IAE_NXZ ; CPythonNetworkStream::__RecvLoginKeyPacket
PUBLIC	?__RecvChinaMatrixCardPacket@CPythonNetworkStream@@IAE_NXZ ; CPythonNetworkStream::__RecvChinaMatrixCardPacket
PUBLIC	?__RecvNEWCIBNPasspodFailurePacket@CPythonNetworkStream@@IAE_NXZ ; CPythonNetworkStream::__RecvNEWCIBNPasspodFailurePacket
PUBLIC	?__RecvNEWCIBNPasspodRequestPacket@CPythonNetworkStream@@IAE_NXZ ; CPythonNetworkStream::__RecvNEWCIBNPasspodRequestPacket
PUBLIC	?__RecvRunupMatrixQuizPacket@CPythonNetworkStream@@IAE_NXZ ; CPythonNetworkStream::__RecvRunupMatrixQuizPacket
PUBLIC	?SendLoginPacketNew@CPythonNetworkStream@@QAE_NPBD0@Z ; CPythonNetworkStream::SendLoginPacketNew
PUBLIC	?__RecvLoginFailurePacket@CPythonNetworkStream@@IAE_NXZ ; CPythonNetworkStream::__RecvLoginFailurePacket
PUBLIC	?__RecvLoginSuccessPacket4@CPythonNetworkStream@@IAE_NXZ ; CPythonNetworkStream::__RecvLoginSuccessPacket4
PUBLIC	?__RecvLoginSuccessPacket3@CPythonNetworkStream@@IAE_NXZ ; CPythonNetworkStream::__RecvLoginSuccessPacket3
PUBLIC	?__RecvEmpirePacket@CPythonNetworkStream@@IAE_NXZ ; CPythonNetworkStream::__RecvEmpirePacket
PUBLIC	?LoginPhase@CPythonNetworkStream@@IAEXXZ	; CPythonNetworkStream::LoginPhase
PUBLIC	?__LeaveLoginPhase@CPythonNetworkStream@@IAEXXZ	; CPythonNetworkStream::__LeaveLoginPhase
PUBLIC	?SendLoginPacket@CPythonNetworkStream@@QAE_NPBD0@Z ; CPythonNetworkStream::SendLoginPacket
PUBLIC	?SetLoginPhase@CPythonNetworkStream@@QAEXXZ	; CPythonNetworkStream::SetLoginPhase
PUBLIC	?OnConnectFailure@CPythonNetworkStream@@MAEXXZ	; CPythonNetworkStream::OnConnectFailure
; Function compile flags: /Ogtp
; File d:\metin2\metin2\client_source_clean\client_source_clean\source\userinterface\pythonnetworkstreamphaselogin.cpp
;	COMDAT ?OnConnectFailure@CPythonNetworkStream@@MAEXXZ
_TEXT	SEGMENT
?OnConnectFailure@CPythonNetworkStream@@MAEXXZ PROC	; CPythonNetworkStream::OnConnectFailure, COMDAT
; _this$ = ecx

; 212  : {

  00000	56		 push	 esi
  00001	8b f1		 mov	 esi, ecx

; 213  : 	if (__DirectEnterMode_IsSet())

  00003	e8 00 00 00 00	 call	 ?__DirectEnterMode_IsSet@CPythonNetworkStream@@AAE_NXZ ; CPythonNetworkStream::__DirectEnterMode_IsSet
  00008	84 c0		 test	 al, al
  0000a	74 06		 je	 SHORT $LN2@OnConnectF
  0000c	5e		 pop	 esi

; 214  : 	{
; 215  : 		ClosePhase();

  0000d	e9 00 00 00 00	 jmp	 ?ClosePhase@CPythonNetworkStream@@QAEXXZ ; CPythonNetworkStream::ClosePhase
$LN2@OnConnectF:

; 216  : 	}
; 217  : 	else
; 218  : 	{
; 219  : 		PyCallClassMemberFunc(m_apoPhaseWnd[PHASE_WINDOW_LOGIN], "OnConnectFailure", Py_BuildValue("()"));	

  00012	68 00 00 00 00	 push	 OFFSET ??_C@_02HCKGKOFO@?$CI?$CJ?$AA@
  00017	ff 15 00 00 00
	00		 call	 DWORD PTR __imp__Py_BuildValue
  0001d	50		 push	 eax
  0001e	68 00 00 00 00	 push	 OFFSET ??_C@_0BB@JEKGEMCL@OnConnectFailure?$AA@
  00023	ff b6 80 01 00
	00		 push	 DWORD PTR [esi+384]
  00029	e8 00 00 00 00	 call	 ?PyCallClassMemberFunc@@YA_NPAU_object@@PBD0@Z ; PyCallClassMemberFunc
  0002e	83 c4 10	 add	 esp, 16			; 00000010H
  00031	5e		 pop	 esi

; 220  : 	}
; 221  : }

  00032	c3		 ret	 0
?OnConnectFailure@CPythonNetworkStream@@MAEXXZ ENDP	; CPythonNetworkStream::OnConnectFailure
_TEXT	ENDS
; Function compile flags: /Ogtp
; File d:\metin2\metin2\client_source_clean\client_source_clean\source\userinterface\pythonnetworkstreamphaselogin.cpp
; File c:\program files (x86)\microsoft visual studio 12.0\vc\include\xstring
; File d:\metin2\metin2\client_source_clean\client_source_clean\source\userinterface\pythonnetworkstreamphaselogin.cpp
; File d:\metin2\metin2\client_source_clean\client_source_clean\source\eterlib\funcobject.h
; File d:\metin2\metin2\client_source_clean\client_source_clean\source\userinterface\pythonnetworkstreamphaselogin.cpp
; File c:\program files (x86)\microsoft visual studio 12.0\vc\include\xstring
; File d:\metin2\metin2\client_source_clean\client_source_clean\source\eterlib\funcobject.h
; File d:\metin2\metin2\client_source_clean\client_source_clean\source\userinterface\pythonnetworkstreamphaselogin.cpp
; File c:\program files (x86)\microsoft visual studio 12.0\vc\include\xstring
; File d:\metin2\metin2\client_source_clean\client_source_clean\source\userinterface\pythonnetworkstreamphaselogin.cpp
; File c:\program files (x86)\microsoft visual studio 12.0\vc\include\xstring
; File c:\program files (x86)\microsoft visual studio 12.0\vc\include\xstddef
; File d:\metin2\metin2\client_source_clean\client_source_clean\source\userinterface\pythonnetworkstreamphaselogin.cpp
; File c:\program files (x86)\microsoft visual studio 12.0\vc\include\xstring
; File d:\metin2\metin2\client_source_clean\client_source_clean\source\userinterface\pythonnetworkstreamphaselogin.cpp
; File c:\program files (x86)\microsoft visual studio 12.0\vc\include\xstring
; File c:\program files (x86)\microsoft visual studio 12.0\vc\include\xstddef
; File c:\program files (x86)\microsoft visual studio 12.0\vc\include\xstring
; File d:\metin2\metin2\client_source_clean\client_source_clean\source\userinterface\pythonnetworkstreamphaselogin.cpp
; File c:\program files (x86)\microsoft visual studio 12.0\vc\include\xstring
; File c:\program files (x86)\microsoft visual studio 12.0\vc\include\xstddef
; File d:\metin2\metin2\client_source_clean\client_source_clean\source\userinterface\pythonnetworkstreamphaselogin.cpp
; File c:\program files (x86)\microsoft visual studio 12.0\vc\include\xstring
; File d:\metin2\metin2\client_source_clean\client_source_clean\source\userinterface\pythonnetworkstreamphaselogin.cpp
; File c:\program files (x86)\microsoft visual studio 12.0\vc\include\xstring
; File c:\program files (x86)\microsoft visual studio 12.0\vc\include\xstddef
; File d:\metin2\metin2\client_source_clean\client_source_clean\source\userinterface\pythonnetworkstreamphaselogin.cpp
; File c:\program files (x86)\microsoft visual studio 12.0\vc\include\xstring
; File d:\metin2\metin2\client_source_clean\client_source_clean\source\userinterface\pythonnetworkstreamphaselogin.cpp
; File c:\program files (x86)\microsoft visual studio 12.0\vc\include\xstring
; File c:\program files (x86)\microsoft visual studio 12.0\vc\include\xstddef
; File c:\program files (x86)\microsoft visual studio 12.0\vc\include\xstring
; File d:\metin2\metin2\client_source_clean\client_source_clean\source\userinterface\pythonnetworkstreamphaselogin.cpp
; File c:\program files (x86)\microsoft visual studio 12.0\vc\include\xstring
; File c:\program files (x86)\microsoft visual studio 12.0\vc\include\xstddef
; File d:\metin2\metin2\client_source_clean\client_source_clean\source\userinterface\pythonnetworkstreamphaselogin.cpp
;	COMDAT ?SetLoginPhase@CPythonNetworkStream@@QAEXXZ
_TEXT	SEGMENT
?SetLoginPhase@CPythonNetworkStream@@QAEXXZ PROC	; CPythonNetworkStream::SetLoginPhase, COMDAT
; _this$ = ecx

; 94   : {

  00000	51		 push	 ecx
  00001	56		 push	 esi
  00002	57		 push	 edi
  00003	8b f1		 mov	 esi, ecx
; File c:\program files (x86)\microsoft visual studio 12.0\vc\include\xstring

; 2159 : 		return (compare(0, this->_Mysize, _Ptr, _Traits::length(_Ptr)));

  00005	6a 05		 push	 5
  00007	68 00 00 00 00	 push	 OFFSET ??_C@_05DHEMANOL@Login?$AA@
  0000c	ff b6 1c 01 00
	00		 push	 DWORD PTR [esi+284]
  00012	8d 8e 0c 01 00
	00		 lea	 ecx, DWORD PTR [esi+268]
  00018	6a 00		 push	 0
  0001a	e8 00 00 00 00	 call	 ?compare@?$basic_string@DU?$char_traits@D@std@@V?$allocator@D@2@@std@@QBEHIIPBDI@Z ; std::basic_string<char,std::char_traits<char>,std::allocator<char> >::compare

; 2160 : 		}
; 2161 : 
; 2162 : 	int compare(size_type _Off, size_type _N0, const _Elem *_Ptr) const
; 2163 : 		{	// compare [_Off, _Off + _N0) with [_Ptr, <null>)
; 2164 : 		_DEBUG_POINTER(_Ptr);
; 2165 : 		return (compare(_Off, _N0, _Ptr, _Traits::length(_Ptr)));
; 2166 : 		}
; 2167 : 
; 2168 : 	int compare(size_type _Off,
; 2169 : 		size_type _N0, const _Elem *_Ptr, size_type _Count) const
; 2170 : 		{	// compare [_Off, _Off + _N0) with [_Ptr, _Ptr + _Count)
; 2171 :  #if _ITERATOR_DEBUG_LEVEL == 2
; 2172 : 		if (_Count != 0)
; 2173 : 			_DEBUG_POINTER(_Ptr);
; 2174 :  #endif /* _ITERATOR_DEBUG_LEVEL == 2 */
; 2175 : 
; 2176 : 		if (this->_Mysize < _Off)
; 2177 : 			_Xran();	// _Off off end
; 2178 : 		if (this->_Mysize - _Off < _N0)
; 2179 : 			_N0 = this->_Mysize - _Off;	// trim _N0 to size
; 2180 : 
; 2181 : 		size_type _Ans = _Traits::compare(this->_Myptr() + _Off, _Ptr,
; 2182 : 			_N0 < _Count ? _N0 : _Count);
; 2183 : 		return (_Ans != 0 ? (int)_Ans : _N0 < _Count ? -1
; 2184 : 			: _N0 == _Count ? 0 : +1);
; 2185 : 		}
; 2186 : 
; 2187 : 	allocator_type get_allocator() const _NOEXCEPT
; 2188 : 		{	// return allocator object for values
; 2189 : 		return (this->_Getal());
; 2190 : 		}
; 2191 : 
; 2192 : 	void _Chassign(size_type _Off, size_type _Count, _Elem _Ch)
; 2193 : 		{	// assign _Count copies of _Ch beginning at _Off
; 2194 : 		if (_Count == 1)
; 2195 : 			_Traits::assign(*(this->_Myptr() + _Off), _Ch);
; 2196 : 		else
; 2197 : 			_Traits::assign(this->_Myptr() + _Off, _Count, _Ch);
; 2198 : 		}
; 2199 : 
; 2200 : 	void _Copy(size_type _Newsize, size_type _Oldlen)
; 2201 : 		{	// copy _Oldlen elements to newly allocated buffer
; 2202 : 		size_type _Newres = _Newsize | this->_ALLOC_MASK;
; 2203 : 		if (max_size() < _Newres)
; 2204 : 			_Newres = _Newsize;	// undo roundup if too big
; 2205 : 		else if (this->_Myres / 2 <= _Newres / 3)
; 2206 : 			;
; 2207 : 		else if (this->_Myres <= max_size() - this->_Myres / 2)
; 2208 : 			_Newres = this->_Myres
; 2209 : 				+ this->_Myres / 2;	// grow exponentially if possible
; 2210 : 		else
; 2211 : 			_Newres = max_size();	// settle for max_size()
; 2212 : 
; 2213 : 		_Elem *_Ptr;
; 2214 : 		_TRY_BEGIN
; 2215 : 			_Ptr = this->_Getal().allocate(_Newres + 1);
; 2216 : 		_CATCH_ALL
; 2217 : 			_Newres = _Newsize;	// allocation failed, undo roundup and retry
; 2218 : 			_TRY_BEGIN
; 2219 : 				_Ptr = this->_Getal().allocate(_Newres + 1);
; 2220 : 			_CATCH_ALL
; 2221 : 			_Tidy(true);	// failed again, discard storage and reraise
; 2222 : 			_RERAISE;
; 2223 : 			_CATCH_END
; 2224 : 		_CATCH_END
; 2225 : 
; 2226 : 		if (0 < _Oldlen)
; 2227 : 			_Traits::copy(_Ptr, this->_Myptr(),
; 2228 : 				_Oldlen);	// copy existing elements
; 2229 : 		_Tidy(true);
; 2230 : 		this->_Getal().construct(&this->_Bx._Ptr, _Ptr);
; 2231 : 		this->_Myres = _Newres;
; 2232 : 		_Eos(_Oldlen);
; 2233 : 		}
; 2234 : 
; 2235 : 	void _Eos(size_type _Newsize)
; 2236 : 		{	// set new length and null terminator
; 2237 : 		_Traits::assign(this->_Myptr()[this->_Mysize = _Newsize], _Elem());
; 2238 : 		}
; 2239 : 
; 2240 : 	bool _Grow(size_type _Newsize,
; 2241 : 		bool _Trim = false)
; 2242 : 		{	// ensure buffer is big enough, trim to size if _Trim is true
; 2243 : 		if (max_size() < _Newsize)
; 2244 : 			_Xlen();	// result too long
; 2245 : 		if (this->_Myres < _Newsize)
; 2246 : 			_Copy(_Newsize, this->_Mysize);	// reallocate to grow
; 2247 : 		else if (_Trim && _Newsize < this->_BUF_SIZE)
; 2248 : 			_Tidy(true,	// copy and deallocate if trimming to small string
; 2249 : 				_Newsize < this->_Mysize ? _Newsize : this->_Mysize);
; 2250 : 		else if (_Newsize == 0)
; 2251 : 			_Eos(0);	// new size is zero, just null terminate
; 2252 : 		return (0 < _Newsize);	// return true only if more work to do
; 2253 : 		}
; 2254 : 
; 2255 : 	bool _Inside(const _Elem *_Ptr)
; 2256 : 		{	// test if _Ptr points inside string
; 2257 : 		if (_Ptr == 0 || _Ptr < this->_Myptr()
; 2258 : 			|| this->_Myptr() + this->_Mysize <= _Ptr)
; 2259 : 			return (false);	// don't ask
; 2260 : 		else
; 2261 : 			return (true);
; 2262 : 		}
; 2263 : 
; 2264 : 	static size_type _Pdif(const_iterator _P2,
; 2265 : 		const_iterator _P1)
; 2266 : 		{	// compute safe iterator difference
; 2267 : 		return (_STRING_ITER_BASE(_P2) == 0 ? 0 : _P2 - _P1);
; 2268 : 		}
; 2269 : 
; 2270 : 	void _Tidy(bool _Built = false,
; 2271 : 		size_type _Newsize = 0)
; 2272 : 		{	// initialize buffer, deallocating any storage
; 2273 : 		if (!_Built)
; 2274 : 			;
; 2275 : 		else if (this->_BUF_SIZE <= this->_Myres)
; 2276 : 			{	// copy any leftovers to small buffer and deallocate
; 2277 : 			pointer _Ptr = this->_Bx._Ptr;
; 2278 : 			this->_Getal().destroy(&this->_Bx._Ptr);
; 2279 : 			if (0 < _Newsize)
; 2280 : 				_Traits::copy(this->_Bx._Buf,
; 2281 : 					_STD addressof(*_Ptr), _Newsize);
; 2282 : 			this->_Getal().deallocate(_Ptr, this->_Myres + 1);
; 2283 : 			}
; 2284 : 		this->_Myres = this->_BUF_SIZE - 1;
; 2285 : 		_Eos(_Newsize);
; 2286 : 		}
; 2287 : 
; 2288 : 	__declspec(noreturn) void _Xlen() const
; 2289 : 		{	// report a length_error
; 2290 : 		_Xlength_error("string too long");
; 2291 : 		}
; 2292 : 
; 2293 : 	__declspec(noreturn) void _Xran() const
; 2294 : 		{	// report an out_of_range error
; 2295 : 		_Xout_of_range("invalid string position");
; 2296 : 		}
; 2297 : 	};
; 2298 : 
; 2299 : 		// STATIC npos OBJECT
; 2300 : template<class _Elem,
; 2301 : 	class _Traits,
; 2302 : 	class _Alloc>
; 2303 : 	_PGLOBAL const typename basic_string<_Elem, _Traits, _Alloc>::size_type
; 2304 : 		basic_string<_Elem, _Traits, _Alloc>::npos =
; 2305 : 			(typename basic_string<_Elem, _Traits, _Alloc>::size_type)(-1);
; 2306 : 
; 2307 : 		// basic_string TEMPLATE OPERATORS
; 2308 : 
; 2309 : template<class _Elem,
; 2310 : 	class _Traits,
; 2311 : 	class _Alloc> inline
; 2312 : 	void swap(basic_string<_Elem, _Traits, _Alloc>& _Left,
; 2313 : 		basic_string<_Elem, _Traits, _Alloc>& _Right)
; 2314 : 	{	// swap _Left and _Right strings
; 2315 : 	_Left.swap(_Right);
; 2316 : 	}
; 2317 : 
; 2318 : template<class _Elem,
; 2319 : 	class _Traits,
; 2320 : 	class _Alloc> inline
; 2321 : 	basic_string<_Elem, _Traits, _Alloc> operator+(
; 2322 : 		const basic_string<_Elem, _Traits, _Alloc>& _Left,
; 2323 : 		const basic_string<_Elem, _Traits, _Alloc>& _Right)
; 2324 : 	{	// return string + string
; 2325 : 	basic_string<_Elem, _Traits, _Alloc> _Ans;
; 2326 : 	_Ans.reserve(_Left.size() + _Right.size());
; 2327 : 	_Ans += _Left;
; 2328 : 	_Ans += _Right;
; 2329 : 	return (_Ans);
; 2330 : 	}
; 2331 : 
; 2332 : template<class _Elem,
; 2333 : 	class _Traits,
; 2334 : 	class _Alloc> inline
; 2335 : 	basic_string<_Elem, _Traits, _Alloc> operator+(
; 2336 : 		const _Elem *_Left,
; 2337 : 		const basic_string<_Elem, _Traits, _Alloc>& _Right)
; 2338 : 	{	// return NTCS + string
; 2339 : 	basic_string<_Elem, _Traits, _Alloc> _Ans;
; 2340 : 	_Ans.reserve(_Traits::length(_Left) + _Right.size());
; 2341 : 	_Ans += _Left;
; 2342 : 	_Ans += _Right;
; 2343 : 	return (_Ans);
; 2344 : 	}
; 2345 : 
; 2346 : template<class _Elem,
; 2347 : 	class _Traits,
; 2348 : 	class _Alloc> inline
; 2349 : 	basic_string<_Elem, _Traits, _Alloc> operator+(
; 2350 : 		const _Elem _Left,
; 2351 : 		const basic_string<_Elem, _Traits, _Alloc>& _Right)
; 2352 : 	{	// return character + string
; 2353 : 	basic_string<_Elem, _Traits, _Alloc> _Ans;
; 2354 : 	_Ans.reserve(1 + _Right.size());
; 2355 : 	_Ans += _Left;
; 2356 : 	_Ans += _Right;
; 2357 : 	return (_Ans);
; 2358 : 	}
; 2359 : 
; 2360 : template<class _Elem,
; 2361 : 	class _Traits,
; 2362 : 	class _Alloc> inline
; 2363 : 	basic_string<_Elem, _Traits, _Alloc> operator+(
; 2364 : 		const basic_string<_Elem, _Traits, _Alloc>& _Left,
; 2365 : 		const _Elem *_Right)
; 2366 : 	{	// return string + NTCS
; 2367 : 	basic_string<_Elem, _Traits, _Alloc> _Ans;
; 2368 : 	_Ans.reserve(_Left.size() + _Traits::length(_Right));
; 2369 : 	_Ans += _Left;
; 2370 : 	_Ans += _Right;
; 2371 : 	return (_Ans);
; 2372 : 	}
; 2373 : 
; 2374 : template<class _Elem,
; 2375 : 	class _Traits,
; 2376 : 	class _Alloc> inline
; 2377 : 	basic_string<_Elem, _Traits, _Alloc> operator+(
; 2378 : 		const basic_string<_Elem, _Traits, _Alloc>& _Left,
; 2379 : 		const _Elem _Right)
; 2380 : 	{	// return string + character
; 2381 : 	basic_string<_Elem, _Traits, _Alloc> _Ans;
; 2382 : 	_Ans.reserve(_Left.size() + 1);
; 2383 : 	_Ans += _Left;
; 2384 : 	_Ans += _Right;
; 2385 : 	return (_Ans);
; 2386 : 	}
; 2387 : 
; 2388 : template<class _Elem,
; 2389 : 	class _Traits,
; 2390 : 	class _Alloc> inline
; 2391 : 	basic_string<_Elem, _Traits, _Alloc> operator+(
; 2392 : 		const basic_string<_Elem, _Traits, _Alloc>& _Left,
; 2393 : 		basic_string<_Elem, _Traits, _Alloc>&& _Right)
; 2394 : 	{	// return string + string
; 2395 : 	return (_STD move(_Right.insert(0, _Left)));
; 2396 : 	}
; 2397 : 
; 2398 : template<class _Elem,
; 2399 : 	class _Traits,
; 2400 : 	class _Alloc> inline
; 2401 : 	basic_string<_Elem, _Traits, _Alloc> operator+(
; 2402 : 		basic_string<_Elem, _Traits, _Alloc>&& _Left,
; 2403 : 		const basic_string<_Elem, _Traits, _Alloc>& _Right)
; 2404 : 	{	// return string + string
; 2405 : 	return (_STD move(_Left.append(_Right)));
; 2406 : 	}
; 2407 : 
; 2408 : template<class _Elem,
; 2409 : 	class _Traits,
; 2410 : 	class _Alloc> inline
; 2411 : 	basic_string<_Elem, _Traits, _Alloc> operator+(
; 2412 : 		basic_string<_Elem, _Traits, _Alloc>&& _Left,
; 2413 : 		basic_string<_Elem, _Traits, _Alloc>&& _Right)
; 2414 : 	{	// return string + string
; 2415 : 	if (_Right.size() <= _Left.capacity() - _Left.size()
; 2416 : 		|| _Right.capacity() - _Right.size() < _Left.size())
; 2417 : 		return (_STD move(_Left.append(_Right)));
; 2418 : 	else
; 2419 : 		return (_STD move(_Right.insert(0, _Left)));
; 2420 : 	}
; 2421 : 
; 2422 : template<class _Elem,
; 2423 : 	class _Traits,
; 2424 : 	class _Alloc> inline
; 2425 : 	basic_string<_Elem, _Traits, _Alloc> operator+(
; 2426 : 		const _Elem *_Left,
; 2427 : 		basic_string<_Elem, _Traits, _Alloc>&& _Right)
; 2428 : 	{	// return NTCS + string
; 2429 : 	return (_STD move(_Right.insert(0, _Left)));
; 2430 : 	}
; 2431 : 
; 2432 : template<class _Elem,
; 2433 : 	class _Traits,
; 2434 : 	class _Alloc> inline
; 2435 : 	basic_string<_Elem, _Traits, _Alloc> operator+(
; 2436 : 		const _Elem _Left,
; 2437 : 		basic_string<_Elem, _Traits, _Alloc>&& _Right)
; 2438 : 	{	// return character + string
; 2439 : 	return (_STD move(_Right.insert(0, 1, _Left)));
; 2440 : 	}
; 2441 : 
; 2442 : template<class _Elem,
; 2443 : 	class _Traits,
; 2444 : 	class _Alloc> inline
; 2445 : 	basic_string<_Elem, _Traits, _Alloc> operator+(
; 2446 : 		basic_string<_Elem, _Traits, _Alloc>&& _Left,
; 2447 : 		const _Elem *_Right)
; 2448 : 	{	// return string + NTCS
; 2449 : 	return (_STD move(_Left.append(_Right)));
; 2450 : 	}
; 2451 : 
; 2452 : template<class _Elem,
; 2453 : 	class _Traits,
; 2454 : 	class _Alloc> inline
; 2455 : 	basic_string<_Elem, _Traits, _Alloc> operator+(
; 2456 : 		basic_string<_Elem, _Traits, _Alloc>&& _Left,
; 2457 : 		const _Elem _Right)
; 2458 : 	{	// return string + character
; 2459 : 	return (_STD move(_Left.append(1, _Right)));
; 2460 : 	}
; 2461 : 
; 2462 : template<class _Elem,
; 2463 : 	class _Traits,
; 2464 : 	class _Alloc> inline
; 2465 : 	bool operator==(
; 2466 : 		const basic_string<_Elem, _Traits, _Alloc>& _Left,
; 2467 : 		const basic_string<_Elem, _Traits, _Alloc>& _Right)
; 2468 : 	{	// test for string equality
; 2469 : 	return (_Left.compare(_Right) == 0);
; 2470 : 	}
; 2471 : 
; 2472 : template<class _Elem,
; 2473 : 	class _Traits,
; 2474 : 	class _Alloc> inline
; 2475 : 	bool operator==(
; 2476 : 		const _Elem * _Left,
; 2477 : 		const basic_string<_Elem, _Traits, _Alloc>& _Right)
; 2478 : 	{	// test for NTCS vs. string equality
; 2479 : 	return (_Right.compare(_Left) == 0);

  0001f	85 c0		 test	 eax, eax
; File d:\metin2\metin2\client_source_clean\client_source_clean\source\userinterface\pythonnetworkstreamphaselogin.cpp

; 100  : 	if ("Login" != m_strPhase)

  00021	74 1e		 je	 SHORT $LN20@SetLoginPh
; File d:\metin2\metin2\client_source_clean\client_source_clean\source\eterlib\funcobject.h

; 41   : 			if (m_pSelfObject)

  00023	8b 96 68 01 00
	00		 mov	 edx, DWORD PTR [esi+360]
  00029	85 d2		 test	 edx, edx
  0002b	74 14		 je	 SHORT $LN20@SetLoginPh

; 42   : 				if (m_pFuncObject)

  0002d	8b 86 70 01 00
	00		 mov	 eax, DWORD PTR [esi+368]
  00033	85 c0		 test	 eax, eax
  00035	74 0a		 je	 SHORT $LN20@SetLoginPh

; 43   : 					(m_pSelfObject->*m_pFuncObject)();

  00037	8b 8e 74 01 00
	00		 mov	 ecx, DWORD PTR [esi+372]
  0003d	03 ca		 add	 ecx, edx
  0003f	ff d0		 call	 eax
$LN20@SetLoginPh:
; File d:\metin2\metin2\client_source_clean\client_source_clean\source\userinterface\pythonnetworkstreamphaselogin.cpp

; 103  : 	Tracen("");

  00041	68 00 00 00 00	 push	 OFFSET ??_C@_00CNPNBAHC@?$AA@
  00046	e8 00 00 00 00	 call	 ?Tracen@@YAXPBD@Z	; Tracen
  0004b	83 c4 04	 add	 esp, 4

; 104  : 	Tracen("## Network - Login Phase ##");

  0004e	68 00 00 00 00	 push	 OFFSET ??_C@_0BM@GIOJNFMI@?$CD?$CD?5Network?5?9?5Login?5Phase?5?$CD?$CD?$AA@
  00053	e8 00 00 00 00	 call	 ?Tracen@@YAXPBD@Z	; Tracen
  00058	83 c4 04	 add	 esp, 4

; 105  : 	Tracen("");

  0005b	68 00 00 00 00	 push	 OFFSET ??_C@_00CNPNBAHC@?$AA@
  00060	e8 00 00 00 00	 call	 ?Tracen@@YAXPBD@Z	; Tracen
  00065	83 c4 04	 add	 esp, 4
; File c:\program files (x86)\microsoft visual studio 12.0\vc\include\xstring

; 1169 : 		return (assign(_Ptr, _Traits::length(_Ptr)));

  00068	8d 8e 0c 01 00
	00		 lea	 ecx, DWORD PTR [esi+268]
  0006e	6a 05		 push	 5
  00070	68 00 00 00 00	 push	 OFFSET ??_C@_05DHEMANOL@Login?$AA@
  00075	e8 00 00 00 00	 call	 ?assign@?$basic_string@DU?$char_traits@D@std@@V?$allocator@D@2@@std@@QAEAAV12@PBDI@Z ; std::basic_string<char,std::char_traits<char>,std::allocator<char> >::assign
; File d:\metin2\metin2\client_source_clean\client_source_clean\source\eterlib\funcobject.h

; 24   : 			m_pSelfObject = pSelfObject;

  0007a	89 b6 50 01 00
	00		 mov	 DWORD PTR [esi+336], esi

; 25   : 			m_pFuncObject = pFuncObject;

  00080	c7 86 58 01 00
	00 00 00 00 00	 mov	 DWORD PTR [esi+344], OFFSET ?LoginPhase@CPythonNetworkStream@@IAEXXZ ; CPythonNetworkStream::LoginPhase
  0008a	c7 86 5c 01 00
	00 00 00 00 00	 mov	 DWORD PTR [esi+348], 0

; 24   : 			m_pSelfObject = pSelfObject;

  00094	89 b6 68 01 00
	00		 mov	 DWORD PTR [esi+360], esi

; 25   : 			m_pFuncObject = pFuncObject;

  0009a	c7 86 70 01 00
	00 00 00 00 00	 mov	 DWORD PTR [esi+368], OFFSET ?__LeaveLoginPhase@CPythonNetworkStream@@IAEXXZ ; CPythonNetworkStream::__LeaveLoginPhase
  000a4	c7 86 74 01 00
	00 00 00 00 00	 mov	 DWORD PTR [esi+372], 0
; File d:\metin2\metin2\client_source_clean\client_source_clean\source\userinterface\pythonnetworkstreamphaselogin.cpp

; 112  : 	m_dwChangingPhaseTime = ELTimer_GetMSec();

  000ae	e8 00 00 00 00	 call	 ?ELTimer_GetMSec@@YAKXZ	; ELTimer_GetMSec

; 113  : 
; 114  : 	if (__DirectEnterMode_IsSet())

  000b3	8b ce		 mov	 ecx, esi
  000b5	89 86 90 00 00
	00		 mov	 DWORD PTR [esi+144], eax
  000bb	e8 00 00 00 00	 call	 ?__DirectEnterMode_IsSet@CPythonNetworkStream@@AAE_NXZ ; CPythonNetworkStream::__DirectEnterMode_IsSet
  000c0	84 c0		 test	 al, al
  000c2	74 64		 je	 SHORT $LN6@SetLoginPh

; 115  : 	{
; 116  : 		if (0 != m_dwLoginKey)

  000c4	83 be 24 01 00
	00 00		 cmp	 DWORD PTR [esi+292], 0
  000cb	74 1a		 je	 SHORT $LN5@SetLoginPh
; File c:\program files (x86)\microsoft visual studio 12.0\vc\include\xstring

; 520  : 			: this->_Bx._Buf);

  000cd	83 be d8 00 00
	00 10		 cmp	 DWORD PTR [esi+216], 16	; 00000010H
; File d:\metin2\metin2\client_source_clean\client_source_clean\source\userinterface\pythonnetworkstreamphaselogin.cpp

; 117  : 			SendLoginPacketNew(m_stID.c_str(), m_stPassword.c_str());

  000d4	8d 86 c4 00 00
	00		 lea	 eax, DWORD PTR [esi+196]
; File c:\program files (x86)\microsoft visual studio 12.0\vc\include\xstring

; 520  : 			: this->_Bx._Buf);

  000da	72 02		 jb	 SHORT $LN52@SetLoginPh
; File c:\program files (x86)\microsoft visual studio 12.0\vc\include\xstddef

; 95   : 		reinterpret_cast<const volatile char&>(_Val)))));

  000dc	8b 00		 mov	 eax, DWORD PTR [eax]
$LN52@SetLoginPh:
; File d:\metin2\metin2\client_source_clean\client_source_clean\source\userinterface\pythonnetworkstreamphaselogin.cpp

; 117  : 			SendLoginPacketNew(m_stID.c_str(), m_stPassword.c_str());

  000de	51		 push	 ecx
  000df	50		 push	 eax
  000e0	e8 00 00 00 00	 call	 ?SendLoginPacketNew@CPythonNetworkStream@@QAE_NPBD0@Z ; CPythonNetworkStream::SendLoginPacketNew

; 118  : 		else

  000e5	eb 2b		 jmp	 SHORT $LN4@SetLoginPh
$LN5@SetLoginPh:
; File c:\program files (x86)\microsoft visual studio 12.0\vc\include\xstring

; 520  : 			: this->_Bx._Buf);

  000e7	83 be f0 00 00
	00 10		 cmp	 DWORD PTR [esi+240], 16	; 00000010H
; File d:\metin2\metin2\client_source_clean\client_source_clean\source\userinterface\pythonnetworkstreamphaselogin.cpp

; 119  : 			SendLoginPacket(m_stID.c_str(), m_stPassword.c_str());

  000ee	8d 86 dc 00 00
	00		 lea	 eax, DWORD PTR [esi+220]
; File c:\program files (x86)\microsoft visual studio 12.0\vc\include\xstring

; 520  : 			: this->_Bx._Buf);

  000f4	72 02		 jb	 SHORT $LN60@SetLoginPh
; File c:\program files (x86)\microsoft visual studio 12.0\vc\include\xstddef

; 95   : 		reinterpret_cast<const volatile char&>(_Val)))));

  000f6	8b 00		 mov	 eax, DWORD PTR [eax]
$LN60@SetLoginPh:
; File c:\program files (x86)\microsoft visual studio 12.0\vc\include\xstring

; 520  : 			: this->_Bx._Buf);

  000f8	83 be d8 00 00
	00 10		 cmp	 DWORD PTR [esi+216], 16	; 00000010H
; File d:\metin2\metin2\client_source_clean\client_source_clean\source\userinterface\pythonnetworkstreamphaselogin.cpp

; 119  : 			SendLoginPacket(m_stID.c_str(), m_stPassword.c_str());

  000ff	8d 8e c4 00 00
	00		 lea	 ecx, DWORD PTR [esi+196]
; File c:\program files (x86)\microsoft visual studio 12.0\vc\include\xstring

; 520  : 			: this->_Bx._Buf);

  00105	72 02		 jb	 SHORT $LN68@SetLoginPh
; File c:\program files (x86)\microsoft visual studio 12.0\vc\include\xstddef

; 95   : 		reinterpret_cast<const volatile char&>(_Val)))));

  00107	8b 09		 mov	 ecx, DWORD PTR [ecx]
$LN68@SetLoginPh:
; File d:\metin2\metin2\client_source_clean\client_source_clean\source\userinterface\pythonnetworkstreamphaselogin.cpp

; 119  : 			SendLoginPacket(m_stID.c_str(), m_stPassword.c_str());

  00109	50		 push	 eax
  0010a	51		 push	 ecx
  0010b	8b ce		 mov	 ecx, esi
  0010d	e8 00 00 00 00	 call	 ?SendLoginPacket@CPythonNetworkStream@@QAE_NPBD0@Z ; CPythonNetworkStream::SendLoginPacket
$LN4@SetLoginPh:

; 120  : 
; 121  : 		// 비밀번호를 메모리에 계속 갖고 있는 문제가 있어서, 사용 즉시 날리는 것으로 변경
; 122  : 		ClearLoginInfo();

  00112	8b ce		 mov	 ecx, esi
  00114	e8 00 00 00 00	 call	 ?ClearLoginInfo@CPythonNetworkStream@@QAEXXZ ; CPythonNetworkStream::ClearLoginInfo

; 123  : 		CAccountConnector & rkAccountConnector = CAccountConnector::Instance();
; 124  : 		rkAccountConnector.ClearLoginInfo();

  00119	8b 0d 00 00 00
	00		 mov	 ecx, DWORD PTR ?ms_singleton@?$CSingleton@VCAccountConnector@@@@0PAVCAccountConnector@@A ; CSingleton<CAccountConnector>::ms_singleton
  0011f	e8 00 00 00 00	 call	 ?ClearLoginInfo@CAccountConnector@@QAEXXZ ; CAccountConnector::ClearLoginInfo

; 141  : 	}
; 142  : }

  00124	5f		 pop	 edi
  00125	5e		 pop	 esi
  00126	59		 pop	 ecx
  00127	c3		 ret	 0
$LN6@SetLoginPh:

; 125  : 	}
; 126  : 	else
; 127  : 	{
; 128  : 		if (0 != m_dwLoginKey)

  00128	83 be 24 01 00
	00 00		 cmp	 DWORD PTR [esi+292], 0
  0012f	74 1a		 je	 SHORT $LN2@SetLoginPh
; File c:\program files (x86)\microsoft visual studio 12.0\vc\include\xstring

; 520  : 			: this->_Bx._Buf);

  00131	83 be d8 00 00
	00 10		 cmp	 DWORD PTR [esi+216], 16	; 00000010H
; File d:\metin2\metin2\client_source_clean\client_source_clean\source\userinterface\pythonnetworkstreamphaselogin.cpp

; 129  : 			SendLoginPacketNew(m_stID.c_str(), m_stPassword.c_str());

  00138	8d 86 c4 00 00
	00		 lea	 eax, DWORD PTR [esi+196]
; File c:\program files (x86)\microsoft visual studio 12.0\vc\include\xstring

; 520  : 			: this->_Bx._Buf);

  0013e	72 02		 jb	 SHORT $LN86@SetLoginPh
; File c:\program files (x86)\microsoft visual studio 12.0\vc\include\xstddef

; 95   : 		reinterpret_cast<const volatile char&>(_Val)))));

  00140	8b 00		 mov	 eax, DWORD PTR [eax]
$LN86@SetLoginPh:
; File d:\metin2\metin2\client_source_clean\client_source_clean\source\userinterface\pythonnetworkstreamphaselogin.cpp

; 129  : 			SendLoginPacketNew(m_stID.c_str(), m_stPassword.c_str());

  00142	51		 push	 ecx
  00143	50		 push	 eax
  00144	e8 00 00 00 00	 call	 ?SendLoginPacketNew@CPythonNetworkStream@@QAE_NPBD0@Z ; CPythonNetworkStream::SendLoginPacketNew

; 130  : 		else

  00149	eb 2b		 jmp	 SHORT $LN1@SetLoginPh
$LN2@SetLoginPh:
; File c:\program files (x86)\microsoft visual studio 12.0\vc\include\xstring

; 520  : 			: this->_Bx._Buf);

  0014b	83 be f0 00 00
	00 10		 cmp	 DWORD PTR [esi+240], 16	; 00000010H
; File d:\metin2\metin2\client_source_clean\client_source_clean\source\userinterface\pythonnetworkstreamphaselogin.cpp

; 131  : 			SendLoginPacket(m_stID.c_str(), m_stPassword.c_str());

  00152	8d 86 dc 00 00
	00		 lea	 eax, DWORD PTR [esi+220]
; File c:\program files (x86)\microsoft visual studio 12.0\vc\include\xstring

; 520  : 			: this->_Bx._Buf);

  00158	72 02		 jb	 SHORT $LN94@SetLoginPh
; File c:\program files (x86)\microsoft visual studio 12.0\vc\include\xstddef

; 95   : 		reinterpret_cast<const volatile char&>(_Val)))));

  0015a	8b 00		 mov	 eax, DWORD PTR [eax]
$LN94@SetLoginPh:
; File c:\program files (x86)\microsoft visual studio 12.0\vc\include\xstring

; 520  : 			: this->_Bx._Buf);

  0015c	83 be d8 00 00
	00 10		 cmp	 DWORD PTR [esi+216], 16	; 00000010H
; File d:\metin2\metin2\client_source_clean\client_source_clean\source\userinterface\pythonnetworkstreamphaselogin.cpp

; 131  : 			SendLoginPacket(m_stID.c_str(), m_stPassword.c_str());

  00163	8d 8e c4 00 00
	00		 lea	 ecx, DWORD PTR [esi+196]
; File c:\program files (x86)\microsoft visual studio 12.0\vc\include\xstring

; 520  : 			: this->_Bx._Buf);

  00169	72 02		 jb	 SHORT $LN102@SetLoginPh
; File c:\program files (x86)\microsoft visual studio 12.0\vc\include\xstddef

; 95   : 		reinterpret_cast<const volatile char&>(_Val)))));

  0016b	8b 09		 mov	 ecx, DWORD PTR [ecx]
$LN102@SetLoginPh:
; File d:\metin2\metin2\client_source_clean\client_source_clean\source\userinterface\pythonnetworkstreamphaselogin.cpp

; 131  : 			SendLoginPacket(m_stID.c_str(), m_stPassword.c_str());

  0016d	50		 push	 eax
  0016e	51		 push	 ecx
  0016f	8b ce		 mov	 ecx, esi
  00171	e8 00 00 00 00	 call	 ?SendLoginPacket@CPythonNetworkStream@@QAE_NPBD0@Z ; CPythonNetworkStream::SendLoginPacket
$LN1@SetLoginPh:

; 132  : 
; 133  : 		// 비밀번호를 메모리에 계속 갖고 있는 문제가 있어서, 사용 즉시 날리는 것으로 변경
; 134  : 		ClearLoginInfo();

  00176	8b ce		 mov	 ecx, esi
  00178	e8 00 00 00 00	 call	 ?ClearLoginInfo@CPythonNetworkStream@@QAEXXZ ; CPythonNetworkStream::ClearLoginInfo

; 135  : 		CAccountConnector & rkAccountConnector = CAccountConnector::Instance();
; 136  : 		rkAccountConnector.ClearLoginInfo();

  0017d	8b 0d 00 00 00
	00		 mov	 ecx, DWORD PTR ?ms_singleton@?$CSingleton@VCAccountConnector@@@@0PAVCAccountConnector@@A ; CSingleton<CAccountConnector>::ms_singleton
  00183	e8 00 00 00 00	 call	 ?ClearLoginInfo@CAccountConnector@@QAEXXZ ; CAccountConnector::ClearLoginInfo

; 137  : 
; 138  : 		PyCallClassMemberFunc(m_apoPhaseWnd[PHASE_WINDOW_LOGIN], "OnLoginStart", Py_BuildValue("()"));

  00188	68 00 00 00 00	 push	 OFFSET ??_C@_02HCKGKOFO@?$CI?$CJ?$AA@
  0018d	ff 15 00 00 00
	00		 call	 DWORD PTR __imp__Py_BuildValue
  00193	83 c4 04	 add	 esp, 4
  00196	50		 push	 eax
  00197	68 00 00 00 00	 push	 OFFSET ??_C@_0N@GCHAFKJJ@OnLoginStart?$AA@
  0019c	ff b6 80 01 00
	00		 push	 DWORD PTR [esi+384]
  001a2	e8 00 00 00 00	 call	 ?PyCallClassMemberFunc@@YA_NPAU_object@@PBD0@Z ; PyCallClassMemberFunc
  001a7	83 c4 0c	 add	 esp, 12			; 0000000cH

; 139  : 
; 140  : 		__ClearSelectCharacterData();

  001aa	8b ce		 mov	 ecx, esi
  001ac	e8 00 00 00 00	 call	 ?__ClearSelectCharacterData@CPythonNetworkStream@@IAEXXZ ; CPythonNetworkStream::__ClearSelectCharacterData

; 141  : 	}
; 142  : }

  001b1	5f		 pop	 edi
  001b2	5e		 pop	 esi
  001b3	59		 pop	 ecx
  001b4	c3		 ret	 0
?SetLoginPhase@CPythonNetworkStream@@QAEXXZ ENDP	; CPythonNetworkStream::SetLoginPhase
_TEXT	ENDS
; Function compile flags: /Ogtp
; File d:\metin2\metin2\client_source_clean\client_source_clean\source\userinterface\pythonnetworkstreamphaselogin.cpp
;	COMDAT ?SendLoginPacket@CPythonNetworkStream@@QAE_NPBD0@Z
_TEXT	SEGMENT
_LoginPacket$ = -56					; size = 49
__$ArrayPad$ = -4					; size = 4
_c_szName$ = 8						; size = 4
_c_szPassword$ = 12					; size = 4
?SendLoginPacket@CPythonNetworkStream@@QAE_NPBD0@Z PROC	; CPythonNetworkStream::SendLoginPacket, COMDAT
; _this$ = ecx

; 255  : {

  00000	55		 push	 ebp
  00001	8b ec		 mov	 ebp, esp
  00003	83 ec 38	 sub	 esp, 56			; 00000038H
  00006	a1 00 00 00 00	 mov	 eax, DWORD PTR ___security_cookie
  0000b	33 c5		 xor	 eax, ebp
  0000d	89 45 fc	 mov	 DWORD PTR __$ArrayPad$[ebp], eax
  00010	8b 45 08	 mov	 eax, DWORD PTR _c_szName$[ebp]
  00013	56		 push	 esi
  00014	8b 75 0c	 mov	 esi, DWORD PTR _c_szPassword$[ebp]
  00017	57		 push	 edi

; 256  : 	TPacketCGLogin LoginPacket;
; 257  : 	LoginPacket.header = HEADER_CG_LOGIN;
; 258  : 
; 259  : 	strncpy(LoginPacket.name, c_szName, sizeof(LoginPacket.name)-1);

  00018	6a 1e		 push	 30			; 0000001eH
  0001a	50		 push	 eax
  0001b	8d 45 c9	 lea	 eax, DWORD PTR _LoginPacket$[ebp+1]
  0001e	c6 45 c8 01	 mov	 BYTE PTR _LoginPacket$[ebp], 1
  00022	50		 push	 eax
  00023	8b f9		 mov	 edi, ecx
  00025	e8 00 00 00 00	 call	 _strncpy

; 260  : 	strncpy(LoginPacket.pwd, c_szPassword, sizeof(LoginPacket.pwd)-1);

  0002a	6a 10		 push	 16			; 00000010H
  0002c	8d 45 e8	 lea	 eax, DWORD PTR _LoginPacket$[ebp+32]
  0002f	56		 push	 esi
  00030	50		 push	 eax
  00031	e8 00 00 00 00	 call	 _strncpy
  00036	83 c4 18	 add	 esp, 24			; 00000018H

; 261  : 
; 262  : 	LoginPacket.name[ID_MAX_NUM]='\0';

  00039	c6 45 e7 00	 mov	 BYTE PTR _LoginPacket$[ebp+31], 0

; 263  : 	LoginPacket.pwd[PASS_MAX_NUM]='\0';
; 264  : 
; 265  : 	if (!Send(sizeof(LoginPacket), &LoginPacket))

  0003d	8d 45 c8	 lea	 eax, DWORD PTR _LoginPacket$[ebp]
  00040	c6 45 f8 00	 mov	 BYTE PTR _LoginPacket$[ebp+48], 0
  00044	8b cf		 mov	 ecx, edi
  00046	50		 push	 eax
  00047	6a 31		 push	 49			; 00000031H
  00049	e8 00 00 00 00	 call	 ?Send@CNetworkStream@@QAE_NHPBX@Z ; CNetworkStream::Send
  0004e	84 c0		 test	 al, al
  00050	75 21		 jne	 SHORT $LN1@SendLoginP

; 266  : 	{
; 267  : 		Tracen("SendLogin Error");

  00052	68 00 00 00 00	 push	 OFFSET ??_C@_0BA@HGDBLFFH@SendLogin?5Error?$AA@
  00057	e8 00 00 00 00	 call	 ?Tracen@@YAXPBD@Z	; Tracen
  0005c	83 c4 04	 add	 esp, 4

; 268  : 		return false;

  0005f	32 c0		 xor	 al, al
  00061	5f		 pop	 edi
  00062	5e		 pop	 esi

; 272  : }

  00063	8b 4d fc	 mov	 ecx, DWORD PTR __$ArrayPad$[ebp]
  00066	33 cd		 xor	 ecx, ebp
  00068	e8 00 00 00 00	 call	 @__security_check_cookie@4
  0006d	8b e5		 mov	 esp, ebp
  0006f	5d		 pop	 ebp
  00070	c2 08 00	 ret	 8
$LN1@SendLoginP:

; 269  : 	}
; 270  : 
; 271  : 	return SendSequence();

  00073	8b cf		 mov	 ecx, edi
  00075	e8 00 00 00 00	 call	 ?SendSequence@CNetworkStream@@QAE_NXZ ; CNetworkStream::SendSequence

; 272  : }

  0007a	8b 4d fc	 mov	 ecx, DWORD PTR __$ArrayPad$[ebp]
  0007d	5f		 pop	 edi
  0007e	33 cd		 xor	 ecx, ebp
  00080	5e		 pop	 esi
  00081	e8 00 00 00 00	 call	 @__security_check_cookie@4
  00086	8b e5		 mov	 esp, ebp
  00088	5d		 pop	 ebp
  00089	c2 08 00	 ret	 8
?SendLoginPacket@CPythonNetworkStream@@QAE_NPBD0@Z ENDP	; CPythonNetworkStream::SendLoginPacket
_TEXT	ENDS
; Function compile flags: /Ogtp
; File d:\metin2\metin2\client_source_clean\client_source_clean\source\userinterface\pythonnetworkstream.h
;	COMDAT ?__LeaveLoginPhase@CPythonNetworkStream@@IAEXXZ
_TEXT	SEGMENT
?__LeaveLoginPhase@CPythonNetworkStream@@IAEXXZ PROC	; CPythonNetworkStream::__LeaveLoginPhase, COMDAT
; _this$ = ecx

; 591  : 		void __LeaveLoginPhase() {}

  00000	c3		 ret	 0
?__LeaveLoginPhase@CPythonNetworkStream@@IAEXXZ ENDP	; CPythonNetworkStream::__LeaveLoginPhase
_TEXT	ENDS
; Function compile flags: /Ogtp
; File d:\metin2\metin2\client_source_clean\client_source_clean\source\userinterface\pythonnetworkstreamphaselogin.cpp
;	COMDAT ?LoginPhase@CPythonNetworkStream@@IAEXXZ
_TEXT	SEGMENT
_header$ = -1						; size = 1
?LoginPhase@CPythonNetworkStream@@IAEXXZ PROC		; CPythonNetworkStream::LoginPhase, COMDAT
; _this$ = ecx

; 12   : {

  00000	55		 push	 ebp
  00001	8b ec		 mov	 ebp, esp
  00003	51		 push	 ecx
  00004	56		 push	 esi
  00005	57		 push	 edi

; 13   : 	TPacketHeader header;
; 14   : 	if (!CheckPacket(&header))

  00006	8d 45 ff	 lea	 eax, DWORD PTR _header$[ebp]
  00009	8b f1		 mov	 esi, ecx
  0000b	50		 push	 eax
  0000c	e8 00 00 00 00	 call	 ?CheckPacket@CPythonNetworkStream@@IAE_NPAE@Z ; CPythonNetworkStream::CheckPacket
  00011	84 c0		 test	 al, al
  00013	0f 84 b1 00 00
	00		 je	 $LN30@LoginPhase

; 15   : 		return;
; 16   : 
; 17   : 	switch (header)

  00019	0f b6 7d ff	 movzx	 edi, BYTE PTR _header$[ebp]
  0001d	8d 47 fa	 lea	 eax, DWORD PTR [edi-6]
  00020	3d f7 00 00 00	 cmp	 eax, 247		; 000000f7H
  00025	0f 87 8b 00 00
	00		 ja	 $LN2@LoginPhase
  0002b	0f b6 80 00 00
	00 00		 movzx	 eax, BYTE PTR $LN32@LoginPhase[eax]
  00032	ff 24 85 00 00
	00 00		 jmp	 DWORD PTR $LN36@LoginPhase[eax*4]
$LN26@LoginPhase:

; 18   : 	{
; 19   : 		case HEADER_GC_PHASE:
; 20   : 			if (RecvPhasePacket())

  00039	8b ce		 mov	 ecx, esi
  0003b	e8 00 00 00 00	 call	 ?RecvPhasePacket@CPythonNetworkStream@@IAE_NXZ ; CPythonNetworkStream::RecvPhasePacket

; 21   : 				return;
; 22   : 			break;

  00040	eb 7c		 jmp	 SHORT $LN34@LoginPhase
$LN24@LoginPhase:

; 23   : 
; 24   : 		case HEADER_GC_LOGIN_SUCCESS3:
; 25   : 			if (__RecvLoginSuccessPacket3())

  00042	8b ce		 mov	 ecx, esi
  00044	e8 00 00 00 00	 call	 ?__RecvLoginSuccessPacket3@CPythonNetworkStream@@IAE_NXZ ; CPythonNetworkStream::__RecvLoginSuccessPacket3

; 26   : 				return;
; 27   : 			break;

  00049	eb 73		 jmp	 SHORT $LN34@LoginPhase
$LN22@LoginPhase:

; 28   : 		case HEADER_GC_LOGIN_SUCCESS4:
; 29   : 			if (__RecvLoginSuccessPacket4())

  0004b	8b ce		 mov	 ecx, esi
  0004d	e8 00 00 00 00	 call	 ?__RecvLoginSuccessPacket4@CPythonNetworkStream@@IAE_NXZ ; CPythonNetworkStream::__RecvLoginSuccessPacket4

; 30   : 				return;
; 31   : 			break;

  00052	eb 6a		 jmp	 SHORT $LN34@LoginPhase
$LN20@LoginPhase:

; 32   : 
; 33   : 
; 34   : 		case HEADER_GC_LOGIN_FAILURE:
; 35   : 			if (__RecvLoginFailurePacket())

  00054	8b ce		 mov	 ecx, esi
  00056	e8 00 00 00 00	 call	 ?__RecvLoginFailurePacket@CPythonNetworkStream@@IAE_NXZ ; CPythonNetworkStream::__RecvLoginFailurePacket

; 36   : 				return;		
; 37   : 			break;

  0005b	eb 61		 jmp	 SHORT $LN34@LoginPhase
$LN18@LoginPhase:

; 38   : 
; 39   : 		case HEADER_GC_EMPIRE:
; 40   : 			if (__RecvEmpirePacket())

  0005d	8b ce		 mov	 ecx, esi
  0005f	e8 00 00 00 00	 call	 ?__RecvEmpirePacket@CPythonNetworkStream@@IAE_NXZ ; CPythonNetworkStream::__RecvEmpirePacket

; 41   : 				return;
; 42   : 			break;

  00064	eb 58		 jmp	 SHORT $LN34@LoginPhase
$LN16@LoginPhase:

; 43   : 
; 44   : 		case HEADER_GC_CHINA_MATRIX_CARD:
; 45   : 			if (__RecvChinaMatrixCardPacket())

  00066	8b ce		 mov	 ecx, esi
  00068	e8 00 00 00 00	 call	 ?__RecvChinaMatrixCardPacket@CPythonNetworkStream@@IAE_NXZ ; CPythonNetworkStream::__RecvChinaMatrixCardPacket

; 46   : 				return;
; 47   : 			break;

  0006d	eb 4f		 jmp	 SHORT $LN34@LoginPhase
$LN14@LoginPhase:

; 48   : 
; 49   : 		case HEADER_GC_RUNUP_MATRIX_QUIZ:
; 50   : 			if (__RecvRunupMatrixQuizPacket())

  0006f	8b ce		 mov	 ecx, esi
  00071	e8 00 00 00 00	 call	 ?__RecvRunupMatrixQuizPacket@CPythonNetworkStream@@IAE_NXZ ; CPythonNetworkStream::__RecvRunupMatrixQuizPacket

; 51   : 				return;
; 52   : 			break;

  00076	eb 46		 jmp	 SHORT $LN34@LoginPhase
$LN12@LoginPhase:

; 53   : 
; 54   : 		case HEADER_GC_NEWCIBN_PASSPOD_REQUEST:
; 55   : 			if (__RecvNEWCIBNPasspodRequestPacket())

  00078	8b ce		 mov	 ecx, esi
  0007a	e8 00 00 00 00	 call	 ?__RecvNEWCIBNPasspodRequestPacket@CPythonNetworkStream@@IAE_NXZ ; CPythonNetworkStream::__RecvNEWCIBNPasspodRequestPacket

; 56   : 				return;
; 57   : 			break;

  0007f	eb 3d		 jmp	 SHORT $LN34@LoginPhase
$LN10@LoginPhase:

; 58   : 		case HEADER_GC_NEWCIBN_PASSPOD_FAILURE:
; 59   : 			if (__RecvNEWCIBNPasspodFailurePacket())

  00081	8b ce		 mov	 ecx, esi
  00083	e8 00 00 00 00	 call	 ?__RecvNEWCIBNPasspodFailurePacket@CPythonNetworkStream@@IAE_NXZ ; CPythonNetworkStream::__RecvNEWCIBNPasspodFailurePacket

; 60   : 				return;
; 61   : 			break;

  00088	eb 34		 jmp	 SHORT $LN34@LoginPhase
$LN8@LoginPhase:

; 62   : 
; 63   : 
; 64   : 		case HEADER_GC_LOGIN_KEY:
; 65   : 			if (__RecvLoginKeyPacket())

  0008a	8b ce		 mov	 ecx, esi
  0008c	e8 00 00 00 00	 call	 ?__RecvLoginKeyPacket@CPythonNetworkStream@@IAE_NXZ ; CPythonNetworkStream::__RecvLoginKeyPacket

; 66   : 				return;
; 67   : 			break;

  00091	eb 2b		 jmp	 SHORT $LN34@LoginPhase
$LN6@LoginPhase:

; 68   : 
; 69   : 		case HEADER_GC_PING:
; 70   : 			if (RecvPingPacket())

  00093	8b ce		 mov	 ecx, esi
  00095	e8 00 00 00 00	 call	 ?RecvPingPacket@CPythonNetworkStream@@IAE_NXZ ; CPythonNetworkStream::RecvPingPacket

; 71   : 				return;
; 72   : 			break;

  0009a	eb 22		 jmp	 SHORT $LN34@LoginPhase
$LN4@LoginPhase:

; 73   : 
; 74   : 		case HEADER_GC_HYBRIDCRYPT_KEYS:
; 75   : 			RecvHybridCryptKeyPacket();

  0009c	8b ce		 mov	 ecx, esi
  0009e	e8 00 00 00 00	 call	 ?RecvHybridCryptKeyPacket@CPythonNetworkStream@@QAE_NXZ ; CPythonNetworkStream::RecvHybridCryptKeyPacket

; 91   : }

  000a3	5f		 pop	 edi
  000a4	5e		 pop	 esi
  000a5	8b e5		 mov	 esp, ebp
  000a7	5d		 pop	 ebp
  000a8	c3		 ret	 0
$LN3@LoginPhase:

; 76   : 			return;
; 77   : 			break;
; 78   : 
; 79   : 		case HEADER_GC_HYBRIDCRYPT_SDB:
; 80   : 			RecvHybridCryptSDBPacket();

  000a9	8b ce		 mov	 ecx, esi
  000ab	e8 00 00 00 00	 call	 ?RecvHybridCryptSDBPacket@CPythonNetworkStream@@QAE_NXZ ; CPythonNetworkStream::RecvHybridCryptSDBPacket

; 91   : }

  000b0	5f		 pop	 edi
  000b1	5e		 pop	 esi
  000b2	8b e5		 mov	 esp, ebp
  000b4	5d		 pop	 ebp
  000b5	c3		 ret	 0
$LN2@LoginPhase:

; 81   : 			return;
; 82   : 			break;
; 83   : 
; 84   : 		default:
; 85   : 			if (RecvDefaultPacket(header))

  000b6	57		 push	 edi
  000b7	8b ce		 mov	 ecx, esi
  000b9	e8 00 00 00 00	 call	 ?RecvDefaultPacket@CPythonNetworkStream@@IAE_NH@Z ; CPythonNetworkStream::RecvDefaultPacket
$LN34@LoginPhase:
  000be	84 c0		 test	 al, al
  000c0	75 08		 jne	 SHORT $LN30@LoginPhase

; 86   : 				return;
; 87   : 			break;
; 88   : 	}
; 89   : 
; 90   : 	RecvErrorPacket(header);

  000c2	57		 push	 edi
  000c3	8b ce		 mov	 ecx, esi
  000c5	e8 00 00 00 00	 call	 ?RecvErrorPacket@CPythonNetworkStream@@IAE_NH@Z ; CPythonNetworkStream::RecvErrorPacket
$LN30@LoginPhase:

; 91   : }

  000ca	5f		 pop	 edi
  000cb	5e		 pop	 esi
  000cc	8b e5		 mov	 esp, ebp
  000ce	5d		 pop	 ebp
  000cf	c3		 ret	 0
$LN36@LoginPhase:
  000d0	00 00 00 00	 DD	 $LN24@LoginPhase
  000d4	00 00 00 00	 DD	 $LN20@LoginPhase
  000d8	00 00 00 00	 DD	 $LN22@LoginPhase
  000dc	00 00 00 00	 DD	 $LN6@LoginPhase
  000e0	00 00 00 00	 DD	 $LN18@LoginPhase
  000e4	00 00 00 00	 DD	 $LN16@LoginPhase
  000e8	00 00 00 00	 DD	 $LN8@LoginPhase
  000ec	00 00 00 00	 DD	 $LN4@LoginPhase
  000f0	00 00 00 00	 DD	 $LN3@LoginPhase
  000f4	00 00 00 00	 DD	 $LN14@LoginPhase
  000f8	00 00 00 00	 DD	 $LN12@LoginPhase
  000fc	00 00 00 00	 DD	 $LN10@LoginPhase
  00100	00 00 00 00	 DD	 $LN26@LoginPhase
  00104	00 00 00 00	 DD	 $LN2@LoginPhase
$LN32@LoginPhase:
  00108	00		 DB	 0
  00109	01		 DB	 1
  0010a	0d		 DB	 13			; 0000000dH
  0010b	0d		 DB	 13			; 0000000dH
  0010c	0d		 DB	 13			; 0000000dH
  0010d	0d		 DB	 13			; 0000000dH
  0010e	0d		 DB	 13			; 0000000dH
  0010f	0d		 DB	 13			; 0000000dH
  00110	0d		 DB	 13			; 0000000dH
  00111	0d		 DB	 13			; 0000000dH
  00112	0d		 DB	 13			; 0000000dH
  00113	0d		 DB	 13			; 0000000dH
  00114	0d		 DB	 13			; 0000000dH
  00115	0d		 DB	 13			; 0000000dH
  00116	0d		 DB	 13			; 0000000dH
  00117	0d		 DB	 13			; 0000000dH
  00118	0d		 DB	 13			; 0000000dH
  00119	0d		 DB	 13			; 0000000dH
  0011a	0d		 DB	 13			; 0000000dH
  0011b	0d		 DB	 13			; 0000000dH
  0011c	0d		 DB	 13			; 0000000dH
  0011d	0d		 DB	 13			; 0000000dH
  0011e	0d		 DB	 13			; 0000000dH
  0011f	0d		 DB	 13			; 0000000dH
  00120	0d		 DB	 13			; 0000000dH
  00121	0d		 DB	 13			; 0000000dH
  00122	02		 DB	 2
  00123	0d		 DB	 13			; 0000000dH
  00124	0d		 DB	 13			; 0000000dH
  00125	0d		 DB	 13			; 0000000dH
  00126	0d		 DB	 13			; 0000000dH
  00127	0d		 DB	 13			; 0000000dH
  00128	0d		 DB	 13			; 0000000dH
  00129	0d		 DB	 13			; 0000000dH
  0012a	0d		 DB	 13			; 0000000dH
  0012b	0d		 DB	 13			; 0000000dH
  0012c	0d		 DB	 13			; 0000000dH
  0012d	0d		 DB	 13			; 0000000dH
  0012e	03		 DB	 3
  0012f	0d		 DB	 13			; 0000000dH
  00130	0d		 DB	 13			; 0000000dH
  00131	0d		 DB	 13			; 0000000dH
  00132	0d		 DB	 13			; 0000000dH
  00133	0d		 DB	 13			; 0000000dH
  00134	0d		 DB	 13			; 0000000dH
  00135	0d		 DB	 13			; 0000000dH
  00136	0d		 DB	 13			; 0000000dH
  00137	0d		 DB	 13			; 0000000dH
  00138	0d		 DB	 13			; 0000000dH
  00139	0d		 DB	 13			; 0000000dH
  0013a	0d		 DB	 13			; 0000000dH
  0013b	0d		 DB	 13			; 0000000dH
  0013c	0d		 DB	 13			; 0000000dH
  0013d	0d		 DB	 13			; 0000000dH
  0013e	0d		 DB	 13			; 0000000dH
  0013f	0d		 DB	 13			; 0000000dH
  00140	0d		 DB	 13			; 0000000dH
  00141	0d		 DB	 13			; 0000000dH
  00142	0d		 DB	 13			; 0000000dH
  00143	0d		 DB	 13			; 0000000dH
  00144	0d		 DB	 13			; 0000000dH
  00145	0d		 DB	 13			; 0000000dH
  00146	0d		 DB	 13			; 0000000dH
  00147	0d		 DB	 13			; 0000000dH
  00148	0d		 DB	 13			; 0000000dH
  00149	0d		 DB	 13			; 0000000dH
  0014a	0d		 DB	 13			; 0000000dH
  0014b	0d		 DB	 13			; 0000000dH
  0014c	0d		 DB	 13			; 0000000dH
  0014d	0d		 DB	 13			; 0000000dH
  0014e	0d		 DB	 13			; 0000000dH
  0014f	0d		 DB	 13			; 0000000dH
  00150	0d		 DB	 13			; 0000000dH
  00151	0d		 DB	 13			; 0000000dH
  00152	0d		 DB	 13			; 0000000dH
  00153	0d		 DB	 13			; 0000000dH
  00154	0d		 DB	 13			; 0000000dH
  00155	0d		 DB	 13			; 0000000dH
  00156	0d		 DB	 13			; 0000000dH
  00157	0d		 DB	 13			; 0000000dH
  00158	0d		 DB	 13			; 0000000dH
  00159	0d		 DB	 13			; 0000000dH
  0015a	0d		 DB	 13			; 0000000dH
  0015b	0d		 DB	 13			; 0000000dH
  0015c	04		 DB	 4
  0015d	0d		 DB	 13			; 0000000dH
  0015e	0d		 DB	 13			; 0000000dH
  0015f	0d		 DB	 13			; 0000000dH
  00160	0d		 DB	 13			; 0000000dH
  00161	0d		 DB	 13			; 0000000dH
  00162	0d		 DB	 13			; 0000000dH
  00163	0d		 DB	 13			; 0000000dH
  00164	0d		 DB	 13			; 0000000dH
  00165	0d		 DB	 13			; 0000000dH
  00166	0d		 DB	 13			; 0000000dH
  00167	0d		 DB	 13			; 0000000dH
  00168	0d		 DB	 13			; 0000000dH
  00169	0d		 DB	 13			; 0000000dH
  0016a	0d		 DB	 13			; 0000000dH
  0016b	0d		 DB	 13			; 0000000dH
  0016c	0d		 DB	 13			; 0000000dH
  0016d	0d		 DB	 13			; 0000000dH
  0016e	0d		 DB	 13			; 0000000dH
  0016f	0d		 DB	 13			; 0000000dH
  00170	0d		 DB	 13			; 0000000dH
  00171	0d		 DB	 13			; 0000000dH
  00172	0d		 DB	 13			; 0000000dH
  00173	0d		 DB	 13			; 0000000dH
  00174	0d		 DB	 13			; 0000000dH
  00175	0d		 DB	 13			; 0000000dH
  00176	05		 DB	 5
  00177	0d		 DB	 13			; 0000000dH
  00178	06		 DB	 6
  00179	0d		 DB	 13			; 0000000dH
  0017a	0d		 DB	 13			; 0000000dH
  0017b	0d		 DB	 13			; 0000000dH
  0017c	0d		 DB	 13			; 0000000dH
  0017d	0d		 DB	 13			; 0000000dH
  0017e	0d		 DB	 13			; 0000000dH
  0017f	0d		 DB	 13			; 0000000dH
  00180	0d		 DB	 13			; 0000000dH
  00181	0d		 DB	 13			; 0000000dH
  00182	0d		 DB	 13			; 0000000dH
  00183	0d		 DB	 13			; 0000000dH
  00184	0d		 DB	 13			; 0000000dH
  00185	0d		 DB	 13			; 0000000dH
  00186	0d		 DB	 13			; 0000000dH
  00187	0d		 DB	 13			; 0000000dH
  00188	0d		 DB	 13			; 0000000dH
  00189	0d		 DB	 13			; 0000000dH
  0018a	0d		 DB	 13			; 0000000dH
  0018b	0d		 DB	 13			; 0000000dH
  0018c	0d		 DB	 13			; 0000000dH
  0018d	0d		 DB	 13			; 0000000dH
  0018e	0d		 DB	 13			; 0000000dH
  0018f	0d		 DB	 13			; 0000000dH
  00190	0d		 DB	 13			; 0000000dH
  00191	0d		 DB	 13			; 0000000dH
  00192	0d		 DB	 13			; 0000000dH
  00193	0d		 DB	 13			; 0000000dH
  00194	0d		 DB	 13			; 0000000dH
  00195	0d		 DB	 13			; 0000000dH
  00196	0d		 DB	 13			; 0000000dH
  00197	0d		 DB	 13			; 0000000dH
  00198	0d		 DB	 13			; 0000000dH
  00199	0d		 DB	 13			; 0000000dH
  0019a	07		 DB	 7
  0019b	08		 DB	 8
  0019c	0d		 DB	 13			; 0000000dH
  0019d	0d		 DB	 13			; 0000000dH
  0019e	0d		 DB	 13			; 0000000dH
  0019f	0d		 DB	 13			; 0000000dH
  001a0	0d		 DB	 13			; 0000000dH
  001a1	0d		 DB	 13			; 0000000dH
  001a2	0d		 DB	 13			; 0000000dH
  001a3	0d		 DB	 13			; 0000000dH
  001a4	0d		 DB	 13			; 0000000dH
  001a5	0d		 DB	 13			; 0000000dH
  001a6	0d		 DB	 13			; 0000000dH
  001a7	0d		 DB	 13			; 0000000dH
  001a8	0d		 DB	 13			; 0000000dH
  001a9	0d		 DB	 13			; 0000000dH
  001aa	0d		 DB	 13			; 0000000dH
  001ab	0d		 DB	 13			; 0000000dH
  001ac	0d		 DB	 13			; 0000000dH
  001ad	0d		 DB	 13			; 0000000dH
  001ae	0d		 DB	 13			; 0000000dH
  001af	0d		 DB	 13			; 0000000dH
  001b0	0d		 DB	 13			; 0000000dH
  001b1	0d		 DB	 13			; 0000000dH
  001b2	0d		 DB	 13			; 0000000dH
  001b3	0d		 DB	 13			; 0000000dH
  001b4	0d		 DB	 13			; 0000000dH
  001b5	0d		 DB	 13			; 0000000dH
  001b6	0d		 DB	 13			; 0000000dH
  001b7	0d		 DB	 13			; 0000000dH
  001b8	0d		 DB	 13			; 0000000dH
  001b9	0d		 DB	 13			; 0000000dH
  001ba	0d		 DB	 13			; 0000000dH
  001bb	0d		 DB	 13			; 0000000dH
  001bc	0d		 DB	 13			; 0000000dH
  001bd	0d		 DB	 13			; 0000000dH
  001be	0d		 DB	 13			; 0000000dH
  001bf	0d		 DB	 13			; 0000000dH
  001c0	0d		 DB	 13			; 0000000dH
  001c1	0d		 DB	 13			; 0000000dH
  001c2	0d		 DB	 13			; 0000000dH
  001c3	0d		 DB	 13			; 0000000dH
  001c4	0d		 DB	 13			; 0000000dH
  001c5	0d		 DB	 13			; 0000000dH
  001c6	0d		 DB	 13			; 0000000dH
  001c7	0d		 DB	 13			; 0000000dH
  001c8	0d		 DB	 13			; 0000000dH
  001c9	0d		 DB	 13			; 0000000dH
  001ca	0d		 DB	 13			; 0000000dH
  001cb	09		 DB	 9
  001cc	0a		 DB	 10			; 0000000aH
  001cd	0b		 DB	 11			; 0000000bH
  001ce	0d		 DB	 13			; 0000000dH
  001cf	0d		 DB	 13			; 0000000dH
  001d0	0d		 DB	 13			; 0000000dH
  001d1	0d		 DB	 13			; 0000000dH
  001d2	0d		 DB	 13			; 0000000dH
  001d3	0d		 DB	 13			; 0000000dH
  001d4	0d		 DB	 13			; 0000000dH
  001d5	0d		 DB	 13			; 0000000dH
  001d6	0d		 DB	 13			; 0000000dH
  001d7	0d		 DB	 13			; 0000000dH
  001d8	0d		 DB	 13			; 0000000dH
  001d9	0d		 DB	 13			; 0000000dH
  001da	0d		 DB	 13			; 0000000dH
  001db	0d		 DB	 13			; 0000000dH
  001dc	0d		 DB	 13			; 0000000dH
  001dd	0d		 DB	 13			; 0000000dH
  001de	0d		 DB	 13			; 0000000dH
  001df	0d		 DB	 13			; 0000000dH
  001e0	0d		 DB	 13			; 0000000dH
  001e1	0d		 DB	 13			; 0000000dH
  001e2	0d		 DB	 13			; 0000000dH
  001e3	0d		 DB	 13			; 0000000dH
  001e4	0d		 DB	 13			; 0000000dH
  001e5	0d		 DB	 13			; 0000000dH
  001e6	0d		 DB	 13			; 0000000dH
  001e7	0d		 DB	 13			; 0000000dH
  001e8	0d		 DB	 13			; 0000000dH
  001e9	0d		 DB	 13			; 0000000dH
  001ea	0d		 DB	 13			; 0000000dH
  001eb	0d		 DB	 13			; 0000000dH
  001ec	0d		 DB	 13			; 0000000dH
  001ed	0d		 DB	 13			; 0000000dH
  001ee	0d		 DB	 13			; 0000000dH
  001ef	0d		 DB	 13			; 0000000dH
  001f0	0d		 DB	 13			; 0000000dH
  001f1	0d		 DB	 13			; 0000000dH
  001f2	0d		 DB	 13			; 0000000dH
  001f3	0d		 DB	 13			; 0000000dH
  001f4	0d		 DB	 13			; 0000000dH
  001f5	0d		 DB	 13			; 0000000dH
  001f6	0d		 DB	 13			; 0000000dH
  001f7	0d		 DB	 13			; 0000000dH
  001f8	0d		 DB	 13			; 0000000dH
  001f9	0d		 DB	 13			; 0000000dH
  001fa	0d		 DB	 13			; 0000000dH
  001fb	0d		 DB	 13			; 0000000dH
  001fc	0d		 DB	 13			; 0000000dH
  001fd	0d		 DB	 13			; 0000000dH
  001fe	0d		 DB	 13			; 0000000dH
  001ff	0c		 DB	 12			; 0000000cH
?LoginPhase@CPythonNetworkStream@@IAEXXZ ENDP		; CPythonNetworkStream::LoginPhase
_TEXT	ENDS
; Function compile flags: /Ogtp
; File d:\metin2\metin2\client_source_clean\client_source_clean\source\userinterface\pythonnetworkstreamphaselogin.cpp
;	COMDAT ?__RecvEmpirePacket@CPythonNetworkStream@@IAE_NXZ
_TEXT	SEGMENT
_kPacketEmpire$ = -4					; size = 2
?__RecvEmpirePacket@CPythonNetworkStream@@IAE_NXZ PROC	; CPythonNetworkStream::__RecvEmpirePacket, COMDAT
; _this$ = ecx

; 145  : {

  00000	55		 push	 ebp
  00001	8b ec		 mov	 ebp, esp
  00003	51		 push	 ecx
  00004	56		 push	 esi

; 146  : 	TPacketGCEmpire kPacketEmpire;
; 147  : 	if (!Recv(sizeof(kPacketEmpire), &kPacketEmpire))

  00005	8d 45 fc	 lea	 eax, DWORD PTR _kPacketEmpire$[ebp]
  00008	8b f1		 mov	 esi, ecx
  0000a	50		 push	 eax
  0000b	6a 02		 push	 2
  0000d	e8 00 00 00 00	 call	 ?Recv@CNetworkStream@@QAE_NHPAX@Z ; CNetworkStream::Recv
  00012	84 c0		 test	 al, al
  00014	75 05		 jne	 SHORT $LN1@RecvEmpire
  00016	5e		 pop	 esi

; 152  : }

  00017	8b e5		 mov	 esp, ebp
  00019	5d		 pop	 ebp
  0001a	c3		 ret	 0
$LN1@RecvEmpire:

; 148  : 		return false;
; 149  : 
; 150  : 	m_dwEmpireID=kPacketEmpire.bEmpire;

  0001b	0f b6 45 fd	 movzx	 eax, BYTE PTR _kPacketEmpire$[ebp+1]
  0001f	89 86 b4 00 00
	00		 mov	 DWORD PTR [esi+180], eax

; 151  : 	return true;

  00025	b0 01		 mov	 al, 1
  00027	5e		 pop	 esi

; 152  : }

  00028	8b e5		 mov	 esp, ebp
  0002a	5d		 pop	 ebp
  0002b	c3		 ret	 0
?__RecvEmpirePacket@CPythonNetworkStream@@IAE_NXZ ENDP	; CPythonNetworkStream::__RecvEmpirePacket
_TEXT	ENDS
; Function compile flags: /Ogtp
; File d:\metin2\metin2\client_source_clean\client_source_clean\source\userinterface\pythonnetworkstreamphaselogin.cpp
; File c:\program files (x86)\microsoft visual studio 12.0\vc\include\iosfwd
; File d:\metin2\metin2\client_source_clean\client_source_clean\source\userinterface\pythonnetworkstreamphaselogin.cpp
; File c:\program files (x86)\microsoft visual studio 12.0\vc\include\iosfwd
; File c:\program files (x86)\microsoft visual studio 12.0\vc\include\xstring
; File d:\metin2\metin2\client_source_clean\client_source_clean\source\userinterface\pythonnetworkstreamphaselogin.cpp
;	COMDAT ?__RecvLoginSuccessPacket3@CPythonNetworkStream@@IAE_NXZ
_TEXT	SEGMENT
_this$GSCopy$1$ = -280					; size = 4
_i$1$ = -276						; size = 4
tv321 = -272						; size = 4
tv320 = -268						; size = 4
tv319 = -264						; size = 4
tv318 = -260						; size = 4
_kPacketLoginSuccess$ = -256				; size = 249
__$ArrayPad$ = -4					; size = 4
?__RecvLoginSuccessPacket3@CPythonNetworkStream@@IAE_NXZ PROC ; CPythonNetworkStream::__RecvLoginSuccessPacket3, COMDAT
; _this$ = ecx

; 155  : {

  00000	55		 push	 ebp
  00001	8b ec		 mov	 ebp, esp
  00003	81 ec 18 01 00
	00		 sub	 esp, 280		; 00000118H
  00009	a1 00 00 00 00	 mov	 eax, DWORD PTR ___security_cookie
  0000e	33 c5		 xor	 eax, ebp
  00010	89 45 fc	 mov	 DWORD PTR __$ArrayPad$[ebp], eax
  00013	57		 push	 edi

; 156  : 	TPacketGCLoginSuccess3 kPacketLoginSuccess;
; 157  : 
; 158  : 	if (!Recv(sizeof(kPacketLoginSuccess), &kPacketLoginSuccess))

  00014	8d 85 00 ff ff
	ff		 lea	 eax, DWORD PTR _kPacketLoginSuccess$[ebp]
  0001a	8b f9		 mov	 edi, ecx
  0001c	50		 push	 eax
  0001d	68 f9 00 00 00	 push	 249			; 000000f9H
  00022	89 bd e8 fe ff
	ff		 mov	 DWORD PTR _this$GSCopy$1$[ebp], edi
  00028	e8 00 00 00 00	 call	 ?Recv@CNetworkStream@@QAE_NHPAX@Z ; CNetworkStream::Recv
  0002d	84 c0		 test	 al, al
  0002f	75 0f		 jne	 SHORT $LN6@RecvLoginS
  00031	5f		 pop	 edi

; 177  : 	}
; 178  : 
; 179  : 	return true;
; 180  : }

  00032	8b 4d fc	 mov	 ecx, DWORD PTR __$ArrayPad$[ebp]
  00035	33 cd		 xor	 ecx, ebp
  00037	e8 00 00 00 00	 call	 @__security_check_cookie@4
  0003c	8b e5		 mov	 esp, ebp
  0003e	5d		 pop	 ebp
  0003f	c3		 ret	 0
$LN6@RecvLoginS:
  00040	53		 push	 ebx

; 161  : 	for (int i = 0; i<PLAYER_PER_ACCOUNT3; ++i)

  00041	33 c0		 xor	 eax, eax
  00043	8d 97 a8 02 00
	00		 lea	 edx, DWORD PTR [edi+680]
  00049	8d 8f 98 02 00
	00		 lea	 ecx, DWORD PTR [edi+664]
  0004f	89 85 ec fe ff
	ff		 mov	 DWORD PTR _i$1$[ebp], eax
  00055	56		 push	 esi
  00056	8d b5 01 ff ff
	ff		 lea	 esi, DWORD PTR _kPacketLoginSuccess$[ebp+1]
  0005c	89 95 f4 fe ff
	ff		 mov	 DWORD PTR tv320[ebp], edx
  00062	81 c7 9c 01 00
	00		 add	 edi, 412		; 0000019cH
  00068	89 b5 f0 fe ff
	ff		 mov	 DWORD PTR tv321[ebp], esi
  0006e	8d 5d ca	 lea	 ebx, DWORD PTR _kPacketLoginSuccess$[ebp+202]
  00071	89 8d f8 fe ff
	ff		 mov	 DWORD PTR tv319[ebp], ecx
  00077	89 bd fc fe ff
	ff		 mov	 DWORD PTR tv318[ebp], edi
  0007d	8d 49 00	 npad	 3
$LL5@RecvLoginS:
; File c:\program files (x86)\microsoft visual studio 12.0\vc\include\iosfwd

; 523  : 			: _CSTD strlen(_First));

  00080	80 3b 00	 cmp	 BYTE PTR [ebx], 0
; File d:\metin2\metin2\client_source_clean\client_source_clean\source\userinterface\pythonnetworkstreamphaselogin.cpp

; 163  : 		m_akSimplePlayerInfo[i]=kPacketLoginSuccess.akSimplePlayerInformation[i];

  00083	b9 0f 00 00 00	 mov	 ecx, 15			; 0000000fH
  00088	f3 a5		 rep movsd

; 164  : 		m_adwGuildID[i]=kPacketLoginSuccess.guild_id[i];

  0008a	8b 44 85 be	 mov	 eax, DWORD PTR _kPacketLoginSuccess$[ebp+eax*4+190]
  0008e	66 a5		 movsw
  00090	a4		 movsb
  00091	8b bd f8 fe ff
	ff		 mov	 edi, DWORD PTR tv319[ebp]
  00097	89 07		 mov	 DWORD PTR [edi], eax
; File c:\program files (x86)\microsoft visual studio 12.0\vc\include\iosfwd

; 523  : 			: _CSTD strlen(_First));

  00099	75 04		 jne	 SHORT $LN15@RecvLoginS
  0009b	33 c0		 xor	 eax, eax
  0009d	eb 0e		 jmp	 SHORT $LN16@RecvLoginS
$LN15@RecvLoginS:
  0009f	8b c3		 mov	 eax, ebx
  000a1	8d 70 01	 lea	 esi, DWORD PTR [eax+1]
$LL21@RecvLoginS:
  000a4	8a 08		 mov	 cl, BYTE PTR [eax]
  000a6	40		 inc	 eax
  000a7	84 c9		 test	 cl, cl
  000a9	75 f9		 jne	 SHORT $LL21@RecvLoginS
  000ab	2b c6		 sub	 eax, esi
$LN16@RecvLoginS:
; File c:\program files (x86)\microsoft visual studio 12.0\vc\include\xstring

; 1169 : 		return (assign(_Ptr, _Traits::length(_Ptr)));

  000ad	50		 push	 eax
  000ae	53		 push	 ebx
  000af	8b ca		 mov	 ecx, edx
  000b1	e8 00 00 00 00	 call	 ?assign@?$basic_string@DU?$char_traits@D@std@@V?$allocator@D@2@@std@@QAEAAV12@PBDI@Z ; std::basic_string<char,std::char_traits<char>,std::allocator<char> >::assign
; File d:\metin2\metin2\client_source_clean\client_source_clean\source\userinterface\pythonnetworkstreamphaselogin.cpp

; 161  : 	for (int i = 0; i<PLAYER_PER_ACCOUNT3; ++i)

  000b6	8b 85 ec fe ff
	ff		 mov	 eax, DWORD PTR _i$1$[ebp]
  000bc	83 c7 04	 add	 edi, 4
  000bf	8b b5 f0 fe ff
	ff		 mov	 esi, DWORD PTR tv321[ebp]
  000c5	40		 inc	 eax
  000c6	8b 95 f4 fe ff
	ff		 mov	 edx, DWORD PTR tv320[ebp]
  000cc	83 c6 3f	 add	 esi, 63			; 0000003fH
  000cf	83 85 fc fe ff
	ff 3f		 add	 DWORD PTR tv318[ebp], 63 ; 0000003fH
  000d6	83 c2 18	 add	 edx, 24			; 00000018H
  000d9	83 c3 0d	 add	 ebx, 13			; 0000000dH
  000dc	89 bd f8 fe ff
	ff		 mov	 DWORD PTR tv319[ebp], edi
  000e2	8b bd fc fe ff
	ff		 mov	 edi, DWORD PTR tv318[ebp]
  000e8	89 85 ec fe ff
	ff		 mov	 DWORD PTR _i$1$[ebp], eax
  000ee	89 b5 f0 fe ff
	ff		 mov	 DWORD PTR tv321[ebp], esi
  000f4	89 95 f4 fe ff
	ff		 mov	 DWORD PTR tv320[ebp], edx
  000fa	83 f8 03	 cmp	 eax, 3
  000fd	7c 81		 jl	 SHORT $LL5@RecvLoginS

; 165  : 		m_astrGuildName[i]=kPacketLoginSuccess.guild_name[i];
; 166  : 	}
; 167  : 
; 168  : 	m_kMarkAuth.m_dwHandle=kPacketLoginSuccess.handle;

  000ff	8b b5 e8 fe ff
	ff		 mov	 esi, DWORD PTR _this$GSCopy$1$[ebp]

; 169  : 	m_kMarkAuth.m_dwRandomKey=kPacketLoginSuccess.random_key;	
; 170  : 
; 171  : 	if (__DirectEnterMode_IsSet())

  00105	8b ce		 mov	 ecx, esi
  00107	8b 45 f1	 mov	 eax, DWORD PTR _kPacketLoginSuccess$[ebp+241]
  0010a	89 86 08 79 00
	00		 mov	 DWORD PTR [esi+30984], eax
  00110	8b 45 f5	 mov	 eax, DWORD PTR _kPacketLoginSuccess$[ebp+245]
  00113	89 86 0c 79 00
	00		 mov	 DWORD PTR [esi+30988], eax
  00119	e8 00 00 00 00	 call	 ?__DirectEnterMode_IsSet@CPythonNetworkStream@@AAE_NXZ ; CPythonNetworkStream::__DirectEnterMode_IsSet
  0011e	84 c0		 test	 al, al
  00120	75 1f		 jne	 SHORT $LN1@RecvLoginS

; 172  : 	{
; 173  : 	}
; 174  : 	else
; 175  : 	{
; 176  : 		PyCallClassMemberFunc(m_apoPhaseWnd[PHASE_WINDOW_SELECT], "Refresh", Py_BuildValue("()"));		

  00122	68 00 00 00 00	 push	 OFFSET ??_C@_02HCKGKOFO@?$CI?$CJ?$AA@
  00127	ff 15 00 00 00
	00		 call	 DWORD PTR __imp__Py_BuildValue
  0012d	50		 push	 eax
  0012e	68 00 00 00 00	 push	 OFFSET ??_C@_07POIENIBA@Refresh?$AA@
  00133	ff b6 84 01 00
	00		 push	 DWORD PTR [esi+388]
  00139	e8 00 00 00 00	 call	 ?PyCallClassMemberFunc@@YA_NPAU_object@@PBD0@Z ; PyCallClassMemberFunc
  0013e	83 c4 10	 add	 esp, 16			; 00000010H
$LN1@RecvLoginS:

; 177  : 	}
; 178  : 
; 179  : 	return true;
; 180  : }

  00141	8b 4d fc	 mov	 ecx, DWORD PTR __$ArrayPad$[ebp]
  00144	b0 01		 mov	 al, 1
  00146	5e		 pop	 esi
  00147	5b		 pop	 ebx
  00148	33 cd		 xor	 ecx, ebp
  0014a	5f		 pop	 edi
  0014b	e8 00 00 00 00	 call	 @__security_check_cookie@4
  00150	8b e5		 mov	 esp, ebp
  00152	5d		 pop	 ebp
  00153	c3		 ret	 0
?__RecvLoginSuccessPacket3@CPythonNetworkStream@@IAE_NXZ ENDP ; CPythonNetworkStream::__RecvLoginSuccessPacket3
_TEXT	ENDS
; Function compile flags: /Ogtp
; File d:\metin2\metin2\client_source_clean\client_source_clean\source\userinterface\pythonnetworkstreamphaselogin.cpp
; File c:\program files (x86)\microsoft visual studio 12.0\vc\include\iosfwd
; File d:\metin2\metin2\client_source_clean\client_source_clean\source\userinterface\pythonnetworkstreamphaselogin.cpp
; File c:\program files (x86)\microsoft visual studio 12.0\vc\include\iosfwd
; File c:\program files (x86)\microsoft visual studio 12.0\vc\include\xstring
; File d:\metin2\metin2\client_source_clean\client_source_clean\source\userinterface\pythonnetworkstreamphaselogin.cpp
;	COMDAT ?__RecvLoginSuccessPacket4@CPythonNetworkStream@@IAE_NXZ
_TEXT	SEGMENT
_this$GSCopy$1$ = -360					; size = 4
_i$1$ = -356						; size = 4
tv321 = -352						; size = 4
tv320 = -348						; size = 4
tv319 = -344						; size = 4
tv318 = -340						; size = 4
_kPacketLoginSuccess$ = -336				; size = 329
__$ArrayPad$ = -4					; size = 4
?__RecvLoginSuccessPacket4@CPythonNetworkStream@@IAE_NXZ PROC ; CPythonNetworkStream::__RecvLoginSuccessPacket4, COMDAT
; _this$ = ecx

; 183  : {

  00000	55		 push	 ebp
  00001	8b ec		 mov	 ebp, esp
  00003	81 ec 68 01 00
	00		 sub	 esp, 360		; 00000168H
  00009	a1 00 00 00 00	 mov	 eax, DWORD PTR ___security_cookie
  0000e	33 c5		 xor	 eax, ebp
  00010	89 45 fc	 mov	 DWORD PTR __$ArrayPad$[ebp], eax
  00013	57		 push	 edi

; 184  : 	TPacketGCLoginSuccess4 kPacketLoginSuccess;
; 185  : 
; 186  : 	if (!Recv(sizeof(kPacketLoginSuccess), &kPacketLoginSuccess))

  00014	8d 85 b0 fe ff
	ff		 lea	 eax, DWORD PTR _kPacketLoginSuccess$[ebp]
  0001a	8b f9		 mov	 edi, ecx
  0001c	50		 push	 eax
  0001d	68 49 01 00 00	 push	 329			; 00000149H
  00022	89 bd 98 fe ff
	ff		 mov	 DWORD PTR _this$GSCopy$1$[ebp], edi
  00028	e8 00 00 00 00	 call	 ?Recv@CNetworkStream@@QAE_NHPAX@Z ; CNetworkStream::Recv
  0002d	84 c0		 test	 al, al
  0002f	75 0f		 jne	 SHORT $LN6@RecvLoginS
  00031	5f		 pop	 edi

; 205  : 	}
; 206  : 
; 207  : 	return true;
; 208  : }

  00032	8b 4d fc	 mov	 ecx, DWORD PTR __$ArrayPad$[ebp]
  00035	33 cd		 xor	 ecx, ebp
  00037	e8 00 00 00 00	 call	 @__security_check_cookie@4
  0003c	8b e5		 mov	 esp, ebp
  0003e	5d		 pop	 ebp
  0003f	c3		 ret	 0
$LN6@RecvLoginS:
  00040	53		 push	 ebx

; 189  : 	for (int i = 0; i<PLAYER_PER_ACCOUNT4; ++i)

  00041	33 c0		 xor	 eax, eax
  00043	8d 97 a8 02 00
	00		 lea	 edx, DWORD PTR [edi+680]
  00049	8d 8f 98 02 00
	00		 lea	 ecx, DWORD PTR [edi+664]
  0004f	89 85 9c fe ff
	ff		 mov	 DWORD PTR _i$1$[ebp], eax
  00055	56		 push	 esi
  00056	8d b5 b1 fe ff
	ff		 lea	 esi, DWORD PTR _kPacketLoginSuccess$[ebp+1]
  0005c	89 95 a4 fe ff
	ff		 mov	 DWORD PTR tv320[ebp], edx
  00062	81 c7 9c 01 00
	00		 add	 edi, 412		; 0000019cH
  00068	89 b5 a0 fe ff
	ff		 mov	 DWORD PTR tv321[ebp], esi
  0006e	8d 5d bd	 lea	 ebx, DWORD PTR _kPacketLoginSuccess$[ebp+269]
  00071	89 8d a8 fe ff
	ff		 mov	 DWORD PTR tv319[ebp], ecx
  00077	89 bd ac fe ff
	ff		 mov	 DWORD PTR tv318[ebp], edi
  0007d	8d 49 00	 npad	 3
$LL5@RecvLoginS:
; File c:\program files (x86)\microsoft visual studio 12.0\vc\include\iosfwd

; 523  : 			: _CSTD strlen(_First));

  00080	80 3b 00	 cmp	 BYTE PTR [ebx], 0
; File d:\metin2\metin2\client_source_clean\client_source_clean\source\userinterface\pythonnetworkstreamphaselogin.cpp

; 191  : 		m_akSimplePlayerInfo[i]=kPacketLoginSuccess.akSimplePlayerInformation[i];

  00083	b9 0f 00 00 00	 mov	 ecx, 15			; 0000000fH
  00088	f3 a5		 rep movsd

; 192  : 		m_adwGuildID[i]=kPacketLoginSuccess.guild_id[i];

  0008a	8b 44 85 ad	 mov	 eax, DWORD PTR _kPacketLoginSuccess$[ebp+eax*4+253]
  0008e	66 a5		 movsw
  00090	a4		 movsb
  00091	8b bd a8 fe ff
	ff		 mov	 edi, DWORD PTR tv319[ebp]
  00097	89 07		 mov	 DWORD PTR [edi], eax
; File c:\program files (x86)\microsoft visual studio 12.0\vc\include\iosfwd

; 523  : 			: _CSTD strlen(_First));

  00099	75 04		 jne	 SHORT $LN15@RecvLoginS
  0009b	33 c0		 xor	 eax, eax
  0009d	eb 0e		 jmp	 SHORT $LN16@RecvLoginS
$LN15@RecvLoginS:
  0009f	8b c3		 mov	 eax, ebx
  000a1	8d 70 01	 lea	 esi, DWORD PTR [eax+1]
$LL21@RecvLoginS:
  000a4	8a 08		 mov	 cl, BYTE PTR [eax]
  000a6	40		 inc	 eax
  000a7	84 c9		 test	 cl, cl
  000a9	75 f9		 jne	 SHORT $LL21@RecvLoginS
  000ab	2b c6		 sub	 eax, esi
$LN16@RecvLoginS:
; File c:\program files (x86)\microsoft visual studio 12.0\vc\include\xstring

; 1169 : 		return (assign(_Ptr, _Traits::length(_Ptr)));

  000ad	50		 push	 eax
  000ae	53		 push	 ebx
  000af	8b ca		 mov	 ecx, edx
  000b1	e8 00 00 00 00	 call	 ?assign@?$basic_string@DU?$char_traits@D@std@@V?$allocator@D@2@@std@@QAEAAV12@PBDI@Z ; std::basic_string<char,std::char_traits<char>,std::allocator<char> >::assign
; File d:\metin2\metin2\client_source_clean\client_source_clean\source\userinterface\pythonnetworkstreamphaselogin.cpp

; 189  : 	for (int i = 0; i<PLAYER_PER_ACCOUNT4; ++i)

  000b6	8b 85 9c fe ff
	ff		 mov	 eax, DWORD PTR _i$1$[ebp]
  000bc	83 c7 04	 add	 edi, 4
  000bf	8b b5 a0 fe ff
	ff		 mov	 esi, DWORD PTR tv321[ebp]
  000c5	40		 inc	 eax
  000c6	8b 95 a4 fe ff
	ff		 mov	 edx, DWORD PTR tv320[ebp]
  000cc	83 c6 3f	 add	 esi, 63			; 0000003fH
  000cf	83 85 ac fe ff
	ff 3f		 add	 DWORD PTR tv318[ebp], 63 ; 0000003fH
  000d6	83 c2 18	 add	 edx, 24			; 00000018H
  000d9	83 c3 0d	 add	 ebx, 13			; 0000000dH
  000dc	89 bd a8 fe ff
	ff		 mov	 DWORD PTR tv319[ebp], edi
  000e2	8b bd ac fe ff
	ff		 mov	 edi, DWORD PTR tv318[ebp]
  000e8	89 85 9c fe ff
	ff		 mov	 DWORD PTR _i$1$[ebp], eax
  000ee	89 b5 a0 fe ff
	ff		 mov	 DWORD PTR tv321[ebp], esi
  000f4	89 95 a4 fe ff
	ff		 mov	 DWORD PTR tv320[ebp], edx
  000fa	83 f8 04	 cmp	 eax, 4
  000fd	7c 81		 jl	 SHORT $LL5@RecvLoginS

; 193  : 		m_astrGuildName[i]=kPacketLoginSuccess.guild_name[i];
; 194  : 	}
; 195  : 
; 196  : 	m_kMarkAuth.m_dwHandle=kPacketLoginSuccess.handle;

  000ff	8b b5 98 fe ff
	ff		 mov	 esi, DWORD PTR _this$GSCopy$1$[ebp]

; 197  : 	m_kMarkAuth.m_dwRandomKey=kPacketLoginSuccess.random_key;	
; 198  : 
; 199  : 	if (__DirectEnterMode_IsSet())

  00105	8b ce		 mov	 ecx, esi
  00107	8b 45 f1	 mov	 eax, DWORD PTR _kPacketLoginSuccess$[ebp+321]
  0010a	89 86 08 79 00
	00		 mov	 DWORD PTR [esi+30984], eax
  00110	8b 45 f5	 mov	 eax, DWORD PTR _kPacketLoginSuccess$[ebp+325]
  00113	89 86 0c 79 00
	00		 mov	 DWORD PTR [esi+30988], eax
  00119	e8 00 00 00 00	 call	 ?__DirectEnterMode_IsSet@CPythonNetworkStream@@AAE_NXZ ; CPythonNetworkStream::__DirectEnterMode_IsSet
  0011e	84 c0		 test	 al, al
  00120	75 1f		 jne	 SHORT $LN1@RecvLoginS

; 200  : 	{
; 201  : 	}
; 202  : 	else
; 203  : 	{
; 204  : 		PyCallClassMemberFunc(m_apoPhaseWnd[PHASE_WINDOW_SELECT], "Refresh", Py_BuildValue("()"));		

  00122	68 00 00 00 00	 push	 OFFSET ??_C@_02HCKGKOFO@?$CI?$CJ?$AA@
  00127	ff 15 00 00 00
	00		 call	 DWORD PTR __imp__Py_BuildValue
  0012d	50		 push	 eax
  0012e	68 00 00 00 00	 push	 OFFSET ??_C@_07POIENIBA@Refresh?$AA@
  00133	ff b6 84 01 00
	00		 push	 DWORD PTR [esi+388]
  00139	e8 00 00 00 00	 call	 ?PyCallClassMemberFunc@@YA_NPAU_object@@PBD0@Z ; PyCallClassMemberFunc
  0013e	83 c4 10	 add	 esp, 16			; 00000010H
$LN1@RecvLoginS:

; 205  : 	}
; 206  : 
; 207  : 	return true;
; 208  : }

  00141	8b 4d fc	 mov	 ecx, DWORD PTR __$ArrayPad$[ebp]
  00144	b0 01		 mov	 al, 1
  00146	5e		 pop	 esi
  00147	5b		 pop	 ebx
  00148	33 cd		 xor	 ecx, ebp
  0014a	5f		 pop	 edi
  0014b	e8 00 00 00 00	 call	 @__security_check_cookie@4
  00150	8b e5		 mov	 esp, ebp
  00152	5d		 pop	 ebp
  00153	c3		 ret	 0
?__RecvLoginSuccessPacket4@CPythonNetworkStream@@IAE_NXZ ENDP ; CPythonNetworkStream::__RecvLoginSuccessPacket4
_TEXT	ENDS
; Function compile flags: /Ogtp
; File d:\metin2\metin2\client_source_clean\client_source_clean\source\userinterface\pythonnetworkstreamphaselogin.cpp
;	COMDAT ?__RecvLoginFailurePacket@CPythonNetworkStream@@IAE_NXZ
_TEXT	SEGMENT
_packet_failure$ = -16					; size = 10
__$ArrayPad$ = -4					; size = 4
?__RecvLoginFailurePacket@CPythonNetworkStream@@IAE_NXZ PROC ; CPythonNetworkStream::__RecvLoginFailurePacket, COMDAT
; _this$ = ecx

; 225  : {

  00000	55		 push	 ebp
  00001	8b ec		 mov	 ebp, esp
  00003	83 ec 10	 sub	 esp, 16			; 00000010H
  00006	a1 00 00 00 00	 mov	 eax, DWORD PTR ___security_cookie
  0000b	33 c5		 xor	 eax, ebp
  0000d	89 45 fc	 mov	 DWORD PTR __$ArrayPad$[ebp], eax
  00010	56		 push	 esi

; 226  : 	TPacketGCLoginFailure packet_failure;
; 227  : 	if (!Recv(sizeof(TPacketGCLoginFailure), &packet_failure))

  00011	8d 45 f0	 lea	 eax, DWORD PTR _packet_failure$[ebp]
  00014	8b f1		 mov	 esi, ecx
  00016	50		 push	 eax
  00017	6a 0a		 push	 10			; 0000000aH
  00019	e8 00 00 00 00	 call	 ?Recv@CNetworkStream@@QAE_NHPAX@Z ; CNetworkStream::Recv
  0001e	84 c0		 test	 al, al
  00020	75 0f		 jne	 SHORT $LN1@RecvLoginF
  00022	5e		 pop	 esi

; 231  : #ifdef _DEBUG
; 232  : 	Tracef(" RecvLoginFailurePacket : [%s]\n", packet_failure.szStatus);
; 233  : #endif
; 234  : 	return true;
; 235  : }

  00023	8b 4d fc	 mov	 ecx, DWORD PTR __$ArrayPad$[ebp]
  00026	33 cd		 xor	 ecx, ebp
  00028	e8 00 00 00 00	 call	 @__security_check_cookie@4
  0002d	8b e5		 mov	 esp, ebp
  0002f	5d		 pop	 ebp
  00030	c3		 ret	 0
$LN1@RecvLoginF:

; 228  : 		return false;
; 229  : 
; 230  : 	PyCallClassMemberFunc(m_apoPhaseWnd[PHASE_WINDOW_LOGIN], "OnLoginFailure", Py_BuildValue("(s)", packet_failure.szStatus));

  00031	8d 45 f1	 lea	 eax, DWORD PTR _packet_failure$[ebp+1]
  00034	50		 push	 eax
  00035	68 00 00 00 00	 push	 OFFSET ??_C@_03KJMMOONA@?$CIs?$CJ?$AA@
  0003a	ff 15 00 00 00
	00		 call	 DWORD PTR __imp__Py_BuildValue
  00040	50		 push	 eax
  00041	68 00 00 00 00	 push	 OFFSET ??_C@_0P@OOEAIINI@OnLoginFailure?$AA@
  00046	ff b6 80 01 00
	00		 push	 DWORD PTR [esi+384]
  0004c	e8 00 00 00 00	 call	 ?PyCallClassMemberFunc@@YA_NPAU_object@@PBD0@Z ; PyCallClassMemberFunc

; 231  : #ifdef _DEBUG
; 232  : 	Tracef(" RecvLoginFailurePacket : [%s]\n", packet_failure.szStatus);
; 233  : #endif
; 234  : 	return true;
; 235  : }

  00051	8b 4d fc	 mov	 ecx, DWORD PTR __$ArrayPad$[ebp]
  00054	83 c4 14	 add	 esp, 20			; 00000014H
  00057	33 cd		 xor	 ecx, ebp
  00059	b0 01		 mov	 al, 1
  0005b	5e		 pop	 esi
  0005c	e8 00 00 00 00	 call	 @__security_check_cookie@4
  00061	8b e5		 mov	 esp, ebp
  00063	5d		 pop	 ebp
  00064	c3		 ret	 0
?__RecvLoginFailurePacket@CPythonNetworkStream@@IAE_NXZ ENDP ; CPythonNetworkStream::__RecvLoginFailurePacket
_TEXT	ENDS
; Function compile flags: /Ogtp
; File d:\metin2\metin2\client_source_clean\client_source_clean\source\userinterface\pythonnetworkstreamphaselogin.cpp
;	COMDAT ?SendLoginPacketNew@CPythonNetworkStream@@QAE_NPBD0@Z
_TEXT	SEGMENT
_LoginPacket$ = -56					; size = 52
__$ArrayPad$ = -4					; size = 4
_c_szName$ = 8						; size = 4
_c_szPassword$dead$ = 12				; size = 4
?SendLoginPacketNew@CPythonNetworkStream@@QAE_NPBD0@Z PROC ; CPythonNetworkStream::SendLoginPacketNew, COMDAT
; _this$ = ecx

; 275  : {

  00000	55		 push	 ebp
  00001	8b ec		 mov	 ebp, esp
  00003	83 ec 38	 sub	 esp, 56			; 00000038H
  00006	a1 00 00 00 00	 mov	 eax, DWORD PTR ___security_cookie
  0000b	33 c5		 xor	 eax, ebp
  0000d	89 45 fc	 mov	 DWORD PTR __$ArrayPad$[ebp], eax
  00010	56		 push	 esi
  00011	8b f1		 mov	 esi, ecx

; 276  : 	TPacketCGLogin2 LoginPacket;
; 277  : 	LoginPacket.header = HEADER_CG_LOGIN2;

  00013	c6 45 c8 6d	 mov	 BYTE PTR _LoginPacket$[ebp], 109 ; 0000006dH
  00017	8b 4d 08	 mov	 ecx, DWORD PTR _c_szName$[ebp]

; 278  : 	LoginPacket.login_key = m_dwLoginKey;
; 279  : 
; 280  : 	strncpy(LoginPacket.name, c_szName, sizeof(LoginPacket.name)-1);

  0001a	6a 1e		 push	 30			; 0000001eH
  0001c	51		 push	 ecx
  0001d	8b 86 24 01 00
	00		 mov	 eax, DWORD PTR [esi+292]
  00023	89 45 e8	 mov	 DWORD PTR _LoginPacket$[ebp+32], eax
  00026	8d 45 c9	 lea	 eax, DWORD PTR _LoginPacket$[ebp+1]
  00029	50		 push	 eax
  0002a	e8 00 00 00 00	 call	 _strncpy

; 281  : 	LoginPacket.name[ID_MAX_NUM]='\0';
; 282  : 
; 283  : 	extern DWORD g_adwEncryptKey[4];
; 284  : 	extern DWORD g_adwDecryptKey[4];
; 285  : 	for (DWORD i = 0; i < 4; ++i)
; 286  : 		LoginPacket.adwClientKey[i] = g_adwEncryptKey[i];

  0002f	a1 00 00 00 00	 mov	 eax, DWORD PTR ?g_adwEncryptKey@@3PAKA
  00034	83 c4 0c	 add	 esp, 12			; 0000000cH
  00037	89 45 ec	 mov	 DWORD PTR _LoginPacket$[ebp+36], eax

; 287  : 
; 288  : 	if (!Send(sizeof(LoginPacket), &LoginPacket))

  0003a	8b ce		 mov	 ecx, esi
  0003c	a1 04 00 00 00	 mov	 eax, DWORD PTR ?g_adwEncryptKey@@3PAKA+4
  00041	89 45 f0	 mov	 DWORD PTR _LoginPacket$[ebp+40], eax
  00044	a1 08 00 00 00	 mov	 eax, DWORD PTR ?g_adwEncryptKey@@3PAKA+8
  00049	89 45 f4	 mov	 DWORD PTR _LoginPacket$[ebp+44], eax
  0004c	a1 0c 00 00 00	 mov	 eax, DWORD PTR ?g_adwEncryptKey@@3PAKA+12
  00051	89 45 f8	 mov	 DWORD PTR _LoginPacket$[ebp+48], eax
  00054	8d 45 c8	 lea	 eax, DWORD PTR _LoginPacket$[ebp]
  00057	50		 push	 eax
  00058	6a 34		 push	 52			; 00000034H
  0005a	c6 45 e7 00	 mov	 BYTE PTR _LoginPacket$[ebp+31], 0
  0005e	e8 00 00 00 00	 call	 ?Send@CNetworkStream@@QAE_NHPBX@Z ; CNetworkStream::Send
  00063	84 c0		 test	 al, al
  00065	75 20		 jne	 SHORT $LN2@SendLoginP
$LN18@SendLoginP:

; 289  : 	{
; 290  : 		Tracen("SendLogin Error");

  00067	68 00 00 00 00	 push	 OFFSET ??_C@_0BA@HGDBLFFH@SendLogin?5Error?$AA@
  0006c	e8 00 00 00 00	 call	 ?Tracen@@YAXPBD@Z	; Tracen
  00071	83 c4 04	 add	 esp, 4

; 291  : 		return false;

  00074	32 c0		 xor	 al, al
  00076	5e		 pop	 esi

; 301  : 
; 302  : #ifndef _IMPROVED_PACKET_ENCRYPTION_
; 303  : 	SetSecurityMode(true, (const char *) g_adwEncryptKey, (const char *) g_adwDecryptKey);
; 304  : #endif
; 305  : 	return true;
; 306  : }

  00077	8b 4d fc	 mov	 ecx, DWORD PTR __$ArrayPad$[ebp]
  0007a	33 cd		 xor	 ecx, ebp
  0007c	e8 00 00 00 00	 call	 @__security_check_cookie@4
  00081	8b e5		 mov	 esp, ebp
  00083	5d		 pop	 ebp
  00084	c2 08 00	 ret	 8
$LN2@SendLoginP:

; 292  : 	}
; 293  : 
; 294  : 	if (!SendSequence())

  00087	8b ce		 mov	 ecx, esi
  00089	e8 00 00 00 00	 call	 ?SendSequence@CNetworkStream@@QAE_NXZ ; CNetworkStream::SendSequence
  0008e	84 c0		 test	 al, al
  00090	74 d5		 je	 SHORT $LN18@SendLoginP

; 295  : 	{
; 296  : 		Tracen("SendLogin Error");
; 297  : 		return false;
; 298  : 	}
; 299  : 
; 300  : 	__SendInternalBuffer();

  00092	8b ce		 mov	 ecx, esi
  00094	e8 00 00 00 00	 call	 ?__SendInternalBuffer@CNetworkStream@@IAE_NXZ ; CNetworkStream::__SendInternalBuffer

; 301  : 
; 302  : #ifndef _IMPROVED_PACKET_ENCRYPTION_
; 303  : 	SetSecurityMode(true, (const char *) g_adwEncryptKey, (const char *) g_adwDecryptKey);
; 304  : #endif
; 305  : 	return true;
; 306  : }

  00099	8b 4d fc	 mov	 ecx, DWORD PTR __$ArrayPad$[ebp]
  0009c	b0 01		 mov	 al, 1
  0009e	33 cd		 xor	 ecx, ebp
  000a0	5e		 pop	 esi
  000a1	e8 00 00 00 00	 call	 @__security_check_cookie@4
  000a6	8b e5		 mov	 esp, ebp
  000a8	5d		 pop	 ebp
  000a9	c2 08 00	 ret	 8
?SendLoginPacketNew@CPythonNetworkStream@@QAE_NPBD0@Z ENDP ; CPythonNetworkStream::SendLoginPacketNew
_TEXT	ENDS
; Function compile flags: /Ogtp
; File d:\metin2\metin2\client_source_clean\client_source_clean\source\userinterface\pythonnetworkstreamphaselogin.cpp
;	COMDAT ?__RecvRunupMatrixQuizPacket@CPythonNetworkStream@@IAE_NXZ
_TEXT	SEGMENT
_kMatrixQuizPacket$ = -16				; size = 10
__$ArrayPad$ = -4					; size = 4
?__RecvRunupMatrixQuizPacket@CPythonNetworkStream@@IAE_NXZ PROC ; CPythonNetworkStream::__RecvRunupMatrixQuizPacket, COMDAT
; _this$ = ecx

; 309  : {

  00000	55		 push	 ebp
  00001	8b ec		 mov	 ebp, esp
  00003	83 ec 10	 sub	 esp, 16			; 00000010H
  00006	a1 00 00 00 00	 mov	 eax, DWORD PTR ___security_cookie
  0000b	33 c5		 xor	 eax, ebp
  0000d	89 45 fc	 mov	 DWORD PTR __$ArrayPad$[ebp], eax
  00010	56		 push	 esi

; 310  : 	TPacketGCRunupMatrixQuiz kMatrixQuizPacket;
; 311  : 	if (!Recv(sizeof(TPacketGCRunupMatrixQuiz), &kMatrixQuizPacket))

  00011	8d 45 f0	 lea	 eax, DWORD PTR _kMatrixQuizPacket$[ebp]
  00014	8b f1		 mov	 esi, ecx
  00016	50		 push	 eax
  00017	6a 0a		 push	 10			; 0000000aH
  00019	e8 00 00 00 00	 call	 ?Recv@CNetworkStream@@QAE_NHPAX@Z ; CNetworkStream::Recv
  0001e	84 c0		 test	 al, al
  00020	75 0f		 jne	 SHORT $LN1@RecvRunupM
  00022	5e		 pop	 esi

; 315  : 	return true;
; 316  : }

  00023	8b 4d fc	 mov	 ecx, DWORD PTR __$ArrayPad$[ebp]
  00026	33 cd		 xor	 ecx, ebp
  00028	e8 00 00 00 00	 call	 @__security_check_cookie@4
  0002d	8b e5		 mov	 esp, ebp
  0002f	5d		 pop	 ebp
  00030	c3		 ret	 0
$LN1@RecvRunupM:

; 312  : 		return false;
; 313  : 
; 314  : 	PyCallClassMemberFunc(m_apoPhaseWnd[PHASE_WINDOW_LOGIN], "BINARY_OnRunupMatrixQuiz", Py_BuildValue("(s)", kMatrixQuizPacket.szQuiz));	

  00031	8d 45 f1	 lea	 eax, DWORD PTR _kMatrixQuizPacket$[ebp+1]
  00034	50		 push	 eax
  00035	68 00 00 00 00	 push	 OFFSET ??_C@_03KJMMOONA@?$CIs?$CJ?$AA@
  0003a	ff 15 00 00 00
	00		 call	 DWORD PTR __imp__Py_BuildValue
  00040	50		 push	 eax
  00041	68 00 00 00 00	 push	 OFFSET ??_C@_0BJ@IENIHBKM@BINARY_OnRunupMatrixQuiz?$AA@
  00046	ff b6 80 01 00
	00		 push	 DWORD PTR [esi+384]
  0004c	e8 00 00 00 00	 call	 ?PyCallClassMemberFunc@@YA_NPAU_object@@PBD0@Z ; PyCallClassMemberFunc

; 315  : 	return true;
; 316  : }

  00051	8b 4d fc	 mov	 ecx, DWORD PTR __$ArrayPad$[ebp]
  00054	83 c4 14	 add	 esp, 20			; 00000014H
  00057	33 cd		 xor	 ecx, ebp
  00059	b0 01		 mov	 al, 1
  0005b	5e		 pop	 esi
  0005c	e8 00 00 00 00	 call	 @__security_check_cookie@4
  00061	8b e5		 mov	 esp, ebp
  00063	5d		 pop	 ebp
  00064	c3		 ret	 0
?__RecvRunupMatrixQuizPacket@CPythonNetworkStream@@IAE_NXZ ENDP ; CPythonNetworkStream::__RecvRunupMatrixQuizPacket
_TEXT	ENDS
; Function compile flags: /Ogtp
; File d:\metin2\metin2\client_source_clean\client_source_clean\source\userinterface\pythonnetworkstreamphaselogin.cpp
;	COMDAT ?__RecvNEWCIBNPasspodRequestPacket@CPythonNetworkStream@@IAE_NXZ
_TEXT	SEGMENT
_kRequestPacket$ = -1					; size = 1
?__RecvNEWCIBNPasspodRequestPacket@CPythonNetworkStream@@IAE_NXZ PROC ; CPythonNetworkStream::__RecvNEWCIBNPasspodRequestPacket, COMDAT
; _this$ = ecx

; 333  : {

  00000	55		 push	 ebp
  00001	8b ec		 mov	 ebp, esp
  00003	51		 push	 ecx
  00004	56		 push	 esi

; 334  : 	TPacketGCNEWCIBNPasspodRequest kRequestPacket;
; 335  : 	if (!Recv(sizeof(kRequestPacket), &kRequestPacket))

  00005	8d 45 ff	 lea	 eax, DWORD PTR _kRequestPacket$[ebp]
  00008	8b f1		 mov	 esi, ecx
  0000a	50		 push	 eax
  0000b	6a 01		 push	 1
  0000d	e8 00 00 00 00	 call	 ?Recv@CNetworkStream@@QAE_NHPAX@Z ; CNetworkStream::Recv
  00012	84 c0		 test	 al, al
  00014	75 05		 jne	 SHORT $LN1@RecvNEWCIB
  00016	5e		 pop	 esi

; 340  : }

  00017	8b e5		 mov	 esp, ebp
  00019	5d		 pop	 ebp
  0001a	c3		 ret	 0
$LN1@RecvNEWCIB:

; 336  : 		return false;
; 337  : 
; 338  : 	PyCallClassMemberFunc(m_apoPhaseWnd[PHASE_WINDOW_LOGIN], "BINARY_OnNEWCIBNPasspodRequest", Py_BuildValue("()"));	

  0001b	68 00 00 00 00	 push	 OFFSET ??_C@_02HCKGKOFO@?$CI?$CJ?$AA@
  00020	ff 15 00 00 00
	00		 call	 DWORD PTR __imp__Py_BuildValue
  00026	50		 push	 eax
  00027	68 00 00 00 00	 push	 OFFSET ??_C@_0BP@DDJIDHFM@BINARY_OnNEWCIBNPasspodRequest?$AA@
  0002c	ff b6 80 01 00
	00		 push	 DWORD PTR [esi+384]
  00032	e8 00 00 00 00	 call	 ?PyCallClassMemberFunc@@YA_NPAU_object@@PBD0@Z ; PyCallClassMemberFunc
  00037	83 c4 10	 add	 esp, 16			; 00000010H

; 339  : 	return true;

  0003a	b0 01		 mov	 al, 1
  0003c	5e		 pop	 esi

; 340  : }

  0003d	8b e5		 mov	 esp, ebp
  0003f	5d		 pop	 ebp
  00040	c3		 ret	 0
?__RecvNEWCIBNPasspodRequestPacket@CPythonNetworkStream@@IAE_NXZ ENDP ; CPythonNetworkStream::__RecvNEWCIBNPasspodRequestPacket
_TEXT	ENDS
; Function compile flags: /Ogtp
; File d:\metin2\metin2\client_source_clean\client_source_clean\source\userinterface\pythonnetworkstreamphaselogin.cpp
;	COMDAT ?__RecvNEWCIBNPasspodFailurePacket@CPythonNetworkStream@@IAE_NXZ
_TEXT	SEGMENT
_kFailurePacket$ = -136					; size = 130
__$ArrayPad$ = -4					; size = 4
?__RecvNEWCIBNPasspodFailurePacket@CPythonNetworkStream@@IAE_NXZ PROC ; CPythonNetworkStream::__RecvNEWCIBNPasspodFailurePacket, COMDAT
; _this$ = ecx

; 343  : {

  00000	55		 push	 ebp
  00001	8b ec		 mov	 ebp, esp
  00003	81 ec 88 00 00
	00		 sub	 esp, 136		; 00000088H
  00009	a1 00 00 00 00	 mov	 eax, DWORD PTR ___security_cookie
  0000e	33 c5		 xor	 eax, ebp
  00010	89 45 fc	 mov	 DWORD PTR __$ArrayPad$[ebp], eax
  00013	56		 push	 esi

; 344  : 	TPacketGCNEWCIBNPasspodFailure kFailurePacket;
; 345  : 	if (!Recv(sizeof(kFailurePacket), &kFailurePacket))

  00014	8d 85 78 ff ff
	ff		 lea	 eax, DWORD PTR _kFailurePacket$[ebp]
  0001a	8b f1		 mov	 esi, ecx
  0001c	50		 push	 eax
  0001d	68 82 00 00 00	 push	 130			; 00000082H
  00022	e8 00 00 00 00	 call	 ?Recv@CNetworkStream@@QAE_NHPAX@Z ; CNetworkStream::Recv
  00027	84 c0		 test	 al, al
  00029	75 0f		 jne	 SHORT $LN1@RecvNEWCIB
  0002b	5e		 pop	 esi

; 349  : 	return true;
; 350  : }

  0002c	8b 4d fc	 mov	 ecx, DWORD PTR __$ArrayPad$[ebp]
  0002f	33 cd		 xor	 ecx, ebp
  00031	e8 00 00 00 00	 call	 @__security_check_cookie@4
  00036	8b e5		 mov	 esp, ebp
  00038	5d		 pop	 ebp
  00039	c3		 ret	 0
$LN1@RecvNEWCIB:

; 346  : 		return false;
; 347  : 
; 348  : 	PyCallClassMemberFunc(m_apoPhaseWnd[PHASE_WINDOW_LOGIN], "BINARY_OnNEWCIBNPasspodFailure", Py_BuildValue("()"));	

  0003a	68 00 00 00 00	 push	 OFFSET ??_C@_02HCKGKOFO@?$CI?$CJ?$AA@
  0003f	ff 15 00 00 00
	00		 call	 DWORD PTR __imp__Py_BuildValue
  00045	50		 push	 eax
  00046	68 00 00 00 00	 push	 OFFSET ??_C@_0BP@LPFBEHCD@BINARY_OnNEWCIBNPasspodFailure?$AA@
  0004b	ff b6 80 01 00
	00		 push	 DWORD PTR [esi+384]
  00051	e8 00 00 00 00	 call	 ?PyCallClassMemberFunc@@YA_NPAU_object@@PBD0@Z ; PyCallClassMemberFunc

; 349  : 	return true;
; 350  : }

  00056	8b 4d fc	 mov	 ecx, DWORD PTR __$ArrayPad$[ebp]
  00059	83 c4 10	 add	 esp, 16			; 00000010H
  0005c	33 cd		 xor	 ecx, ebp
  0005e	b0 01		 mov	 al, 1
  00060	5e		 pop	 esi
  00061	e8 00 00 00 00	 call	 @__security_check_cookie@4
  00066	8b e5		 mov	 esp, ebp
  00068	5d		 pop	 ebp
  00069	c3		 ret	 0
?__RecvNEWCIBNPasspodFailurePacket@CPythonNetworkStream@@IAE_NXZ ENDP ; CPythonNetworkStream::__RecvNEWCIBNPasspodFailurePacket
_TEXT	ENDS
; Function compile flags: /Ogtp
; File d:\metin2\metin2\client_source_clean\client_source_clean\source\userinterface\pythonnetworkstreamphaselogin.cpp
;	COMDAT ?__RecvChinaMatrixCardPacket@CPythonNetworkStream@@IAE_NXZ
_TEXT	SEGMENT
_kMatrixCardPacket$ = -16				; size = 9
__$ArrayPad$ = -4					; size = 4
?__RecvChinaMatrixCardPacket@CPythonNetworkStream@@IAE_NXZ PROC ; CPythonNetworkStream::__RecvChinaMatrixCardPacket, COMDAT
; _this$ = ecx

; 389  : {

  00000	55		 push	 ebp
  00001	8b ec		 mov	 ebp, esp
  00003	83 ec 10	 sub	 esp, 16			; 00000010H
  00006	a1 00 00 00 00	 mov	 eax, DWORD PTR ___security_cookie
  0000b	33 c5		 xor	 eax, ebp
  0000d	89 45 fc	 mov	 DWORD PTR __$ArrayPad$[ebp], eax
  00010	56		 push	 esi

; 390  : 	TPacketGCChinaMatrixCard kMatrixCardPacket;
; 391  : 	if (!Recv(sizeof(TPacketGCChinaMatrixCard), &kMatrixCardPacket))

  00011	8d 45 f0	 lea	 eax, DWORD PTR _kMatrixCardPacket$[ebp]
  00014	8b f1		 mov	 esi, ecx
  00016	50		 push	 eax
  00017	6a 09		 push	 9
  00019	e8 00 00 00 00	 call	 ?Recv@CNetworkStream@@QAE_NHPAX@Z ; CNetworkStream::Recv
  0001e	84 c0		 test	 al, al
  00020	75 0f		 jne	 SHORT $LN1@RecvChinaM
  00022	5e		 pop	 esi

; 403  : 	return true;
; 404  : }

  00023	8b 4d fc	 mov	 ecx, DWORD PTR __$ArrayPad$[ebp]
  00026	33 cd		 xor	 ecx, ebp
  00028	e8 00 00 00 00	 call	 @__security_check_cookie@4
  0002d	8b e5		 mov	 esp, ebp
  0002f	5d		 pop	 ebp
  00030	c3		 ret	 0
$LN1@RecvChinaM:

; 392  : 		return false;
; 393  : 
; 394  : 	PyObject * pyValue = Py_BuildValue("(iiiiiiii)",	ROW(kMatrixCardPacket.dwRows, 0),
; 395  : 														ROW(kMatrixCardPacket.dwRows, 1),
; 396  : 														ROW(kMatrixCardPacket.dwRows, 2),
; 397  : 														ROW(kMatrixCardPacket.dwRows, 3),
; 398  : 														COL(kMatrixCardPacket.dwCols, 0),
; 399  : 														COL(kMatrixCardPacket.dwCols, 1),
; 400  : 														COL(kMatrixCardPacket.dwCols, 2),
; 401  : 														COL(kMatrixCardPacket.dwCols, 3));

  00031	8b 4d f5	 mov	 ecx, DWORD PTR _kMatrixCardPacket$[ebp+5]
  00034	0f b6 c1	 movzx	 eax, cl
  00037	50		 push	 eax
  00038	8b c1		 mov	 eax, ecx
  0003a	c1 e8 08	 shr	 eax, 8
  0003d	25 ff 00 00 00	 and	 eax, 255		; 000000ffH
  00042	50		 push	 eax
  00043	8b c1		 mov	 eax, ecx
  00045	c1 e9 18	 shr	 ecx, 24			; 00000018H
  00048	c1 e8 10	 shr	 eax, 16			; 00000010H
  0004b	25 ff 00 00 00	 and	 eax, 255		; 000000ffH
  00050	50		 push	 eax
  00051	51		 push	 ecx
  00052	8b 4d f1	 mov	 ecx, DWORD PTR _kMatrixCardPacket$[ebp+1]
  00055	0f b6 c1	 movzx	 eax, cl
  00058	50		 push	 eax
  00059	8b c1		 mov	 eax, ecx
  0005b	c1 e8 08	 shr	 eax, 8
  0005e	25 ff 00 00 00	 and	 eax, 255		; 000000ffH
  00063	50		 push	 eax
  00064	8b c1		 mov	 eax, ecx
  00066	c1 e9 18	 shr	 ecx, 24			; 00000018H
  00069	c1 e8 10	 shr	 eax, 16			; 00000010H
  0006c	25 ff 00 00 00	 and	 eax, 255		; 000000ffH
  00071	50		 push	 eax
  00072	51		 push	 ecx
  00073	68 00 00 00 00	 push	 OFFSET ??_C@_0L@FKCIBGAB@?$CIiiiiiiii?$CJ?$AA@
  00078	ff 15 00 00 00
	00		 call	 DWORD PTR __imp__Py_BuildValue

; 402  : 	PyCallClassMemberFunc(m_apoPhaseWnd[PHASE_WINDOW_LOGIN], "OnMatrixCard", pyValue);

  0007e	50		 push	 eax
  0007f	68 00 00 00 00	 push	 OFFSET ??_C@_0N@PIKEFLJP@OnMatrixCard?$AA@
  00084	ff b6 80 01 00
	00		 push	 DWORD PTR [esi+384]
  0008a	e8 00 00 00 00	 call	 ?PyCallClassMemberFunc@@YA_NPAU_object@@PBD0@Z ; PyCallClassMemberFunc

; 403  : 	return true;
; 404  : }

  0008f	8b 4d fc	 mov	 ecx, DWORD PTR __$ArrayPad$[ebp]
  00092	83 c4 30	 add	 esp, 48			; 00000030H
  00095	33 cd		 xor	 ecx, ebp
  00097	b0 01		 mov	 al, 1
  00099	5e		 pop	 esi
  0009a	e8 00 00 00 00	 call	 @__security_check_cookie@4
  0009f	8b e5		 mov	 esp, ebp
  000a1	5d		 pop	 ebp
  000a2	c3		 ret	 0
?__RecvChinaMatrixCardPacket@CPythonNetworkStream@@IAE_NXZ ENDP ; CPythonNetworkStream::__RecvChinaMatrixCardPacket
_TEXT	ENDS
; Function compile flags: /Ogtp
; File d:\metin2\metin2\client_source_clean\client_source_clean\source\userinterface\pythonnetworkstreamphaselogin.cpp
;	COMDAT ?__RecvLoginKeyPacket@CPythonNetworkStream@@IAE_NXZ
_TEXT	SEGMENT
_kLoginKeyPacket$ = -8					; size = 5
?__RecvLoginKeyPacket@CPythonNetworkStream@@IAE_NXZ PROC ; CPythonNetworkStream::__RecvLoginKeyPacket, COMDAT
; _this$ = ecx

; 407  : {

  00000	55		 push	 ebp
  00001	8b ec		 mov	 ebp, esp
  00003	83 ec 08	 sub	 esp, 8

; 408  : 	TPacketGCLoginKey kLoginKeyPacket;
; 409  : 	if (!Recv(sizeof(TPacketGCLoginKey), &kLoginKeyPacket))

  00006	8d 45 f8	 lea	 eax, DWORD PTR _kLoginKeyPacket$[ebp]
  00009	56		 push	 esi
  0000a	50		 push	 eax
  0000b	6a 05		 push	 5
  0000d	8b f1		 mov	 esi, ecx
  0000f	e8 00 00 00 00	 call	 ?Recv@CNetworkStream@@QAE_NHPAX@Z ; CNetworkStream::Recv
  00014	84 c0		 test	 al, al
  00016	75 05		 jne	 SHORT $LN1@RecvLoginK
  00018	5e		 pop	 esi

; 416  : }

  00019	8b e5		 mov	 esp, ebp
  0001b	5d		 pop	 ebp
  0001c	c3		 ret	 0
$LN1@RecvLoginK:

; 410  : 		return false;
; 411  : 
; 412  : 	m_dwLoginKey = kLoginKeyPacket.dwLoginKey;

  0001d	8b 45 f9	 mov	 eax, DWORD PTR _kLoginKeyPacket$[ebp+1]
  00020	89 86 24 01 00
	00		 mov	 DWORD PTR [esi+292], eax

; 413  : 	m_isWaitLoginKey = FALSE;
; 414  : 
; 415  : 	return true;

  00026	b0 01		 mov	 al, 1
  00028	c7 86 28 01 00
	00 00 00 00 00	 mov	 DWORD PTR [esi+296], 0
  00032	5e		 pop	 esi

; 416  : }

  00033	8b e5		 mov	 esp, ebp
  00035	5d		 pop	 ebp
  00036	c3		 ret	 0
?__RecvLoginKeyPacket@CPythonNetworkStream@@IAE_NXZ ENDP ; CPythonNetworkStream::__RecvLoginKeyPacket
_TEXT	ENDS
END
