; Listing generated by Microsoft (R) Optimizing Compiler Version 18.00.40629.0 

	TITLE	D:\Metin2\Metin2\client_source_clean\client_source_clean\source\UserInterface\PythonPlayerModule.cpp
	.686P
	.XMM
	include listing.inc
	.model	flat

INCLUDELIB OLDNAMES

PUBLIC	??_C@_0EA@OHLDKNFC@playerSetAttackKeyState?$CIisPresse@ ; `string'
PUBLIC	??_C@_0DF@ILFGGFEI@CPythonPlayer?3?3RegisterEffect?$CIeE@ ; `string'
PUBLIC	??_C@_0EK@IDBGKDBN@playerSetSingleDIKKeyState?$CIeDIK?0@ ; `string'
PUBLIC	??_C@_0EJ@BNKMOLIP@playerSetSingleDIKKeyState?$CIeDIK?0@ ; `string'
PUBLIC	??_C@_01HHGOMJKL@l?$AA@				; `string'
PUBLIC	??_C@_02HPEDFNFO@ff?$AA@			; `string'
PUBLIC	??_C@_0BK@MGKBEPOF@?5?$HMh?$HMr?$FL?$CFs?$FN?$HMcfff1e6c0?$HMH?$CFs?$HMh?$AA@ ; `string'
PUBLIC	??_C@_0BK@MCOKCAKI@?5?$HMh?$HMr?$FL?$CFs?$FN?$HMcffffc700?$HMH?$CFs?$HMh?$AA@ ; `string'
PUBLIC	??_C@_0BF@IBGKLIMC@can?8t?5find?5item?5data?$AA@ ; `string'
PUBLIC	??_C@_0BF@BGKCJNBK@Can?8t?5find?5item?5data?$AA@ ; `string'
PUBLIC	??_C@_04GPDILEAH@biii?$AA@			; `string'
PUBLIC	??_C@_07EFJJEBFG@iiiiiii?$AA@			; `string'
PUBLIC	??_C@_0BC@CILJOCG@SetAutoPotionInfo?$AA@	; `string'
PUBLIC	??_C@_0BC@CHIABFDI@GetAutoPotionInfo?$AA@	; `string'
PUBLIC	??_C@_0O@MNPFFDEJ@SetGameWindow?$AA@		; `string'
PUBLIC	??_C@_0O@MAEJALBO@PickCloseItem?$AA@		; `string'
PUBLIC	??_C@_0N@LEJNPCGM@SetMouseFunc?$AA@		; `string'
PUBLIC	??_C@_0O@HDELDAFI@SetMouseState?$AA@		; `string'
PUBLIC	??_C@_0BK@JBJLNCBH@SetMouseMiddleButtonState?$AA@ ; `string'
PUBLIC	??_C@_0N@MACDDOCA@GetMouseFunc?$AA@		; `string'
PUBLIC	??_C@_0BG@GHIKDJGB@GetMainCharacterIndex?$AA@	; `string'
PUBLIC	??_C@_0BG@JCNMOACA@SetMainCharacterIndex?$AA@	; `string'
PUBLIC	??_C@_0BJ@GIKFEPMH@GetMainCharacterPosition?$AA@ ; `string'
PUBLIC	??_C@_0BF@OMDPKDFM@GetMainCharacterName?$AA@	; `string'
PUBLIC	??_C@_0BC@FLPEGJDD@CanAttackInstance?$AA@	; `string'
PUBLIC	??_C@_0BF@GALHNOAL@IsMainCharacterIndex?$AA@	; `string'
PUBLIC	??_C@_0O@ECCODAC@IsPVPInstance?$AA@		; `string'
PUBLIC	??_C@_0BA@ODCBPOEF@IsActingEmotion?$AA@		; `string'
PUBLIC	??_C@_0BE@FOIPHJLO@IsChallengeInstance?$AA@	; `string'
PUBLIC	??_C@_0N@CBEDFALN@IsSameEmpire?$AA@		; `string'
PUBLIC	??_C@_0BE@HJOMPGKI@IsCantFightInstance?$AA@	; `string'
PUBLIC	??_C@_0BC@IKOEAPGC@IsRevengeInstance?$AA@	; `string'
PUBLIC	??_C@_0N@IKPCBCPA@IsInSafeArea?$AA@		; `string'
PUBLIC	??_C@_0BF@DABJOKIF@GetCharacterDistance?$AA@	; `string'
PUBLIC	??_C@_0P@LDENHACE@IsObserverMode?$AA@		; `string'
PUBLIC	??_C@_0BA@GFJLKENO@IsMountingHorse?$AA@		; `string'
PUBLIC	??_C@_0L@CPMIOCIM@ShowPlayer?$AA@		; `string'
PUBLIC	??_C@_0L@JEBGMNAH@ActEmotion?$AA@		; `string'
PUBLIC	??_C@_0M@GOCDIKPN@ComboAttack?$AA@		; `string'
PUBLIC	??_C@_0L@PBBGGCLG@HidePlayer?$AA@		; `string'
PUBLIC	??_C@_0BC@DAIEHFBH@SetAttackKeyState?$AA@	; `string'
PUBLIC	??_C@_0BL@IEKDAKHC@SetAutoCameraRotationSpeed?$AA@ ; `string'
PUBLIC	??_C@_0BJ@HGLJKHIH@EndKeyWalkingImmediately?$AA@ ; `string'
PUBLIC	??_C@_0BF@PNJNANBI@SetSingleDIKKeyState?$AA@	; `string'
PUBLIC	??_C@_0BA@JEOKFDLP@EndMouseWalking?$AA@		; `string'
PUBLIC	??_C@_0BC@NCHFPCDM@StartMouseWalking?$AA@	; `string'
PUBLIC	??_C@_0BD@DPHLFGPP@SetQuickCameraMode?$AA@	; `string'
PUBLIC	??_C@_0BE@MCFGJOPA@ResetCameraRotation?$AA@	; `string'
PUBLIC	??_C@_0BC@HNJMANI@GetSkillSlotIndex?$AA@	; `string'
PUBLIC	??_C@_08HIFGFOGG@SetSkill?$AA@			; `string'
PUBLIC	??_C@_0CD@EFGGIKHI@GetSkillCurrentEfficientPercenta@ ; `string'
PUBLIC	??_C@_0O@IIOIANPE@GetSkillGrade?$AA@		; `string'
PUBLIC	??_C@_0P@IGNHDBHH@ClickSkillSlot?$AA@		; `string'
PUBLIC	??_C@_0CA@JHGONPGM@GetSkillNextEfficientPercentage?$AA@ ; `string'
PUBLIC	??_C@_0P@MJOJKOJJ@ClearSkillDict?$AA@		; `string'
PUBLIC	??_C@_0BN@BPJDEKED@ChangeCurrentSkillNumberOnly?$AA@ ; `string'
PUBLIC	??_C@_0N@DMCGDNGF@GetItemFlags?$AA@		; `string'
PUBLIC	??_C@_0N@GABOCBEH@GetItemIndex?$AA@		; `string'
PUBLIC	??_C@_0BD@DBLILMFK@GetItemCountByVnum?$AA@	; `string'
PUBLIC	??_C@_0N@LEKALLIG@GetItemCount?$AA@		; `string'
PUBLIC	??_C@_0BB@GOKPPDHH@GetItemAttribute?$AA@	; `string'
PUBLIC	??_C@_0BD@JBOBKHIE@GetItemMetinSocket?$AA@	; `string'
PUBLIC	??_C@_0BE@DBIFLBAC@SendClickItemPacket?$AA@	; `string'
PUBLIC	??_C@_08MHJANHDM@MoveItem?$AA@			; `string'
PUBLIC	??_C@_0M@DJDCIBLO@GetPlayTime?$AA@		; `string'
PUBLIC	??_C@_06FHLNIOPB@GetJob?$AA@			; `string'
PUBLIC	??_C@_0BA@FOPKKJJD@IsSkillCoolTime?$AA@		; `string'
PUBLIC	??_C@_0M@DGCMFHDN@SetPlayTime?$AA@		; `string'
PUBLIC	??_C@_0O@IAPCJJAC@IsSkillActive?$AA@		; `string'
PUBLIC	??_C@_0BB@CNGGKNGL@GetSkillCoolTime?$AA@	; `string'
PUBLIC	??_C@_0BI@JIGEMOFF@AffectIndexToSkillIndex?$AA@	; `string'
PUBLIC	??_C@_0O@HHBOBCLE@UseGuildSkill?$AA@		; `string'
PUBLIC	??_C@_09MKFEIFJE@GetStatus?$AA@			; `string'
PUBLIC	??_C@_06MDIKDJMD@GetEXP?$AA@			; `string'
PUBLIC	??_C@_06NMFKJLLH@GetElk?$AA@			; `string'
PUBLIC	??_C@_09OEBBKEAG@SetStatus?$AA@			; `string'
PUBLIC	??_C@_0BB@LANDCIKG@GetAlignmentData?$AA@	; `string'
PUBLIC	??_C@_08OAJFGNBC@GetMoney?$AA@			; `string'
PUBLIC	??_C@_0CA@JMFCJJPL@RequestAddToEmptyLocalQuickSlot?$AA@ ; `string'
PUBLIC	??_C@_0BJ@DNLGAMEO@RequestAddLocalQuickSlot?$AA@ ; `string'
PUBLIC	??_C@_0CL@IEMBKGLN@RequestMoveGlobalQuickSlotToLoca@ ; `string'
PUBLIC	??_C@_0BN@NACLJDMA@RequestDeleteGlobalQuickSlot?$AA@ ; `string'
PUBLIC	??_C@_0CK@GNGKFIDB@LocalQuickSlotIndexToGlobalQuick@ ; `string'
PUBLIC	??_C@_0BJ@IBBGPDPH@RequestUseLocalQuickSlot?$AA@ ; `string'
PUBLIC	??_C@_0N@KPHBLMNM@SetQuickPage?$AA@		; `string'
PUBLIC	??_C@_0N@NLMPHAJA@GetQuickPage?$AA@		; `string'
PUBLIC	??_C@_0BD@ECGPDHPA@GetGlobalQuickSlot?$AA@	; `string'
PUBLIC	??_C@_0BC@LNKMMBDG@GetLocalQuickSlot?$AA@	; `string'
PUBLIC	??_C@_06NOPKEHAK@isItem?$AA@			; `string'
PUBLIC	??_C@_0BH@JNCIKJMC@RemoveQuickSlotByValue?$AA@	; `string'
PUBLIC	??_C@_0BC@DDCIGDKO@IsDSEquipmentSlot?$AA@	; `string'
PUBLIC	??_C@_0BA@EMKHGGAL@IsEquipmentSlot?$AA@		; `string'
PUBLIC	??_C@_0P@LAJFBPPH@IsValuableItem?$AA@		; `string'
PUBLIC	??_C@_0O@KCAGNEAI@IsCostumeSlot?$AA@		; `string'
PUBLIC	??_C@_0N@DGHEMMKN@GetItemGrade?$AA@		; `string'
PUBLIC	??_C@_0BC@DCFDMADN@IsOpenPrivateShop?$AA@	; `string'
PUBLIC	??_C@_09GHIBIBHI@CanDetach?$AA@			; `string'
PUBLIC	??_C@_09BGNCJJP@CanRefine?$AA@			; `string'
PUBLIC	??_C@_0P@BLOGPKFO@CanAttachMetin?$AA@		; `string'
PUBLIC	??_C@_09FHINBOHC@CanUnlock?$AA@			; `string'
PUBLIC	??_C@_0M@DPCEEMCG@ClearTarget?$AA@		; `string'
PUBLIC	??_C@_0BE@ELNKJPMC@IsRefineGradeScroll?$AA@	; `string'
PUBLIC	??_C@_0BC@HAEJEFBP@OpenCharacterMenu?$AA@	; `string'
PUBLIC	??_C@_09EECGCJDE@SetTarget?$AA@			; `string'
PUBLIC	??_C@_0BD@HGKJMFNK@IsPartyLeaderByPID?$AA@	; `string'
PUBLIC	??_C@_0O@BPMJGNAC@IsPartyLeader?$AA@		; `string'
PUBLIC	??_C@_0BE@HKIJMBKK@GetPartyMemberState?$AA@	; `string'
PUBLIC	??_C@_0BL@EPAFEFHI@GetPartyMemberHPPercentage?$AA@ ; `string'
PUBLIC	??_C@_09DMPBEJCG@ExitParty?$AA@			; `string'
PUBLIC	??_C@_0BG@EEFAFMJC@GetPartyMemberAffects?$AA@	; `string'
PUBLIC	??_C@_0BF@CLGCEOLO@HasMobilePhoneNumber?$AA@	; `string'
PUBLIC	??_C@_09IMMFEEHK@GetPKMode?$AA@			; `string'
PUBLIC	??_C@_0BE@FELKHKJF@GetEmotionIconImage?$AA@	; `string'
PUBLIC	??_C@_0BE@PMDABIKP@RegisterEmotionIcon?$AA@	; `string'
PUBLIC	??_C@_0P@ILOOLMDH@ToggleCoolTime?$AA@		; `string'
PUBLIC	??_C@_0BJ@CFCMHNHB@SetWeaponAttackBonusFlag?$AA@ ; `string'
PUBLIC	??_C@_0N@MEKPPHGC@GetTargetVID?$AA@		; `string'
PUBLIC	??_C@_0BB@DJKKOCLB@ToggleLevelLimit?$AA@	; `string'
PUBLIC	??_C@_0BD@GLMLJBGM@SetItemMetinSocket?$AA@	; `string'
PUBLIC	??_C@_0M@CHNGAPIB@SetItemData?$AA@		; `string'
PUBLIC	??_C@_0N@MABOHHMK@SetItemCount?$AA@		; `string'
PUBLIC	??_C@_0BB@KPGENMF@SetItemAttribute?$AA@		; `string'
PUBLIC	??_C@_0BE@IOMKCPHN@SlotTypeToInvenType?$AA@	; `string'
PUBLIC	??_C@_0M@DGFCHEAA@GetItemLink?$AA@		; `string'
PUBLIC	??_C@_06BALNJMNP@player?$AA@			; `string'
PUBLIC	??_C@_0BF@PLGNHJMH@SendDragonSoulRefine?$AA@	; `string'
PUBLIC	??_C@_05FHIHOFEA@VOICE?$AA@			; `string'
PUBLIC	??_C@_05GCEPFMCO@LEVEL?$AA@			; `string'
PUBLIC	??_C@_08CHGDMADF@NEXT_EXP?$AA@			; `string'
PUBLIC	??_C@_03KKGFKKLA@EXP?$AA@			; `string'
PUBLIC	??_C@_06NMHEPHCD@MAX_HP?$AA@			; `string'
PUBLIC	??_C@_02MEIMKHMB@HP?$AA@			; `string'
PUBLIC	??_C@_06MMAHLLLC@MAX_SP?$AA@			; `string'
PUBLIC	??_C@_02NEPPOLFA@SP?$AA@			; `string'
PUBLIC	??_C@_0M@CHCGLEDD@MAX_STAMINA?$AA@		; `string'
PUBLIC	??_C@_07IHPDJFBP@STAMINA?$AA@			; `string'
PUBLIC	??_C@_02LAJDCOFE@ST?$AA@			; `string'
PUBLIC	??_C@_03BIHMGKIG@ELK?$AA@			; `string'
PUBLIC	??_C@_02FEPNEKN@DX?$AA@				; `string'
PUBLIC	??_C@_02KAOAGCMF@HT?$AA@			; `string'
PUBLIC	??_C@_09DIGJAPIG@ATT_POWER?$AA@			; `string'
PUBLIC	??_C@_02NMFFPMLH@IQ?$AA@			; `string'
PUBLIC	??_C@_07OPGIINPB@ATT_MAX?$AA@			; `string'
PUBLIC	??_C@_07PNODGJJO@ATT_MIN?$AA@			; `string'
PUBLIC	??_C@_0O@JAPECJBK@MAX_MAGIC_WEP?$AA@		; `string'
PUBLIC	??_C@_0O@CJNCLCGL@MIN_MAGIC_WEP?$AA@		; `string'
PUBLIC	??_C@_09FOFLCGDC@ATT_BONUS?$AA@			; `string'
PUBLIC	??_C@_09LKMFFHLI@ATT_SPEED?$AA@			; `string'
PUBLIC	??_C@_0N@KGGLAJKM@MOVING_SPEED?$AA@		; `string'
PUBLIC	??_C@_0L@IPHIKIMB@EVADE_RATE?$AA@		; `string'
PUBLIC	??_C@_09DNFHINBC@DEF_BONUS?$AA@			; `string'
PUBLIC	??_C@_09KMPFCDFE@DEF_GRADE?$AA@			; `string'
PUBLIC	??_C@_07PEONMKMN@MAG_ATT?$AA@			; `string'
PUBLIC	??_C@_0O@IOLIEEIE@CASTING_SPEED?$AA@		; `string'
PUBLIC	??_C@_0N@JIFCAIPA@EMPIRE_POINT?$AA@		; `string'
PUBLIC	??_C@_07KGCDIDGL@MAG_DEF?$AA@			; `string'
PUBLIC	??_C@_0O@DGEPJFAK@SKILL_PASSIVE?$AA@		; `string'
PUBLIC	??_C@_04KNIOFKKL@STAT?$AA@			; `string'
PUBLIC	??_C@_0N@DNBJLBPA@SKILL_ACTIVE?$AA@		; `string'
PUBLIC	??_C@_0O@JLNOPGFK@SKILL_SUPPORT?$AA@		; `string'
PUBLIC	??_C@_08CKIIBBI@PLAYTIME?$AA@			; `string'
PUBLIC	??_C@_0M@HAFIBGFL@SKILL_HORSE?$AA@		; `string'
PUBLIC	??_C@_0M@CLAIAEPM@HP_RECOVERY?$AA@		; `string'
PUBLIC	??_C@_0N@KHDDEEFG@BOW_DISTANCE?$AA@		; `string'
PUBLIC	??_C@_0P@GAAMLPFK@ATTACKER_BONUS?$AA@		; `string'
PUBLIC	??_C@_0M@FGICENAO@SP_RECOVERY?$AA@		; `string'
PUBLIC	??_C@_0BD@CPEECKKP@POINT_CRITICAL_PCT?$AA@	; `string'
PUBLIC	??_C@_07MEMMKJPK@MAX_NUM?$AA@			; `string'
PUBLIC	??_C@_0BE@FDGMKOPN@POINT_MALL_ATTBONUS?$AA@	; `string'
PUBLIC	??_C@_0BE@BGNEFMNJ@POINT_PENETRATE_PCT?$AA@	; `string'
PUBLIC	??_C@_0BE@KNGAMOKN@POINT_MALL_EXPBONUS?$AA@	; `string'
PUBLIC	??_C@_0BE@FJKLFHOA@POINT_MALL_DEFBONUS?$AA@	; `string'
PUBLIC	??_C@_0BF@LPKHMJJF@POINT_MALL_GOLDBONUS?$AA@	; `string'
PUBLIC	??_C@_0BF@FCMHLHC@POINT_MALL_ITEMBONUS?$AA@	; `string'
PUBLIC	??_C@_0BB@IHDKAICM@POINT_MAX_SP_PCT?$AA@	; `string'
PUBLIC	??_C@_0BB@OCODMABI@POINT_MAX_HP_PCT?$AA@	; `string'
PUBLIC	??_C@_0BO@GNDIKOOF@POINT_NORMAL_HIT_DAMAGE_BONUS?$AA@ ; `string'
PUBLIC	??_C@_0BJ@PGEFOCDG@POINT_SKILL_DAMAGE_BONUS?$AA@ ; `string'
PUBLIC	??_C@_0BO@CEPNAEGB@POINT_NORMAL_HIT_DEFEND_BONUS?$AA@ ; `string'
PUBLIC	??_C@_0BJ@LPIAEILC@POINT_SKILL_DEFEND_BONUS?$AA@ ; `string'
PUBLIC	??_C@_0BJ@LFKCHGEO@POINT_PC_BANG_DROP_BONUS?$AA@ ; `string'
PUBLIC	??_C@_0BI@BAKJJELL@POINT_PC_BANG_EXP_BONUS?$AA@	; `string'
PUBLIC	??_C@_0BA@PIHNCBED@ENERGY_END_TIME?$AA@		; `string'
PUBLIC	??_C@_06KOEJHMAL@ENERGY?$AA@			; `string'
PUBLIC	??_C@_0BD@HIHOAICI@SKILL_GRADE_MASTER?$AA@	; `string'
PUBLIC	??_C@_0BD@LAKFNFGD@SKILL_GRADE_NORMAL?$AA@	; `string'
PUBLIC	??_C@_0BL@DCIPLDCA@SKILL_GRADE_PERFECT_MASTER?$AA@ ; `string'
PUBLIC	??_C@_0BJ@CFOEIGCN@SKILL_GRADE_GRAND_MASTER?$AA@ ; `string'
PUBLIC	??_C@_0BB@HCMEALJK@CATEGORY_PASSIVE?$AA@	; `string'
PUBLIC	??_C@_0BA@LCKKFCJM@CATEGORY_ACTIVE?$AA@		; `string'
PUBLIC	??_C@_0BF@NFIFHHOM@INVENTORY_PAGE_COUNT?$AA@	; `string'
PUBLIC	??_C@_0BE@CEBDMLGH@INVENTORY_PAGE_SIZE?$AA@	; `string'
PUBLIC	??_C@_0BF@HJEBPPMM@EQUIPMENT_SLOT_START?$AA@	; `string'
PUBLIC	??_C@_0BF@LCFAAJPA@INVENTORY_SLOT_COUNT?$AA@	; `string'
PUBLIC	??_C@_09NLFDBCDH@MBF_SKILL?$AA@			; `string'
PUBLIC	??_C@_0BF@MADFLPAE@EQUIPMENT_PAGE_COUNT?$AA@	; `string'
PUBLIC	??_C@_0L@JHBFAMB@MBF_CAMERA?$AA@		; `string'
PUBLIC	??_C@_0L@MIGMJBKJ@MBF_ATTACK?$AA@		; `string'
PUBLIC	??_C@_08BLLANCB@MBF_MOVE?$AA@			; `string'
PUBLIC	??_C@_09FAENJFL@MBF_SMART?$AA@			; `string'
PUBLIC	??_C@_09JEJKPPEO@MBS_PRESS?$AA@			; `string'
PUBLIC	??_C@_08CIEGLDP@MBF_AUTO?$AA@			; `string'
PUBLIC	??_C@_09DBJMODBC@MBT_RIGHT?$AA@			; `string'
PUBLIC	??_C@_09BKODCCAJ@MBS_CLICK?$AA@			; `string'
PUBLIC	??_C@_0P@JBDPGPGM@SLOT_TYPE_NONE?$AA@		; `string'
PUBLIC	??_C@_08OMNIMJHC@MBT_LEFT?$AA@			; `string'
PUBLIC	??_C@_0BA@MAJHKGKG@SLOT_TYPE_SKILL?$AA@		; `string'
PUBLIC	??_C@_0BE@BNOEBHPE@SLOT_TYPE_INVENTORY?$AA@	; `string'
PUBLIC	??_C@_0BJ@DBNHPJKE@SLOT_TYPE_EXCHANGE_OWNER?$AA@ ; `string'
PUBLIC	??_C@_0P@KCOPIIMF@SLOT_TYPE_SHOP?$AA@		; `string'
PUBLIC	??_C@_0BF@CPPFMLHN@SLOT_TYPE_QUICK_SLOT?$AA@	; `string'
PUBLIC	??_C@_0BK@KJHLAGBH@SLOT_TYPE_EXCHANGE_TARGET?$AA@ ; `string'
PUBLIC	??_C@_0BH@MJAEADNE@SLOT_TYPE_PRIVATE_SHOP?$AA@	; `string'
PUBLIC	??_C@_0BC@HGKFDIFN@SLOT_TYPE_SAFEBOX?$AA@	; `string'
PUBLIC	??_C@_0BC@LKMHLHKJ@SLOT_TYPE_EMOTION?$AA@	; `string'
PUBLIC	??_C@_0P@OEAGANKI@SLOT_TYPE_MALL?$AA@		; `string'
PUBLIC	??_C@_0BA@NKAFFIGF@RESERVED_WINDOW?$AA@		; `string'
PUBLIC	??_C@_0CA@FHKIPOOP@SLOT_TYPE_DRAGON_SOUL_INVENTORY?$AA@ ; `string'
PUBLIC	??_C@_09GJGOMHMK@EQUIPMENT?$AA@			; `string'
PUBLIC	??_C@_09NCAHJFFG@INVENTORY?$AA@			; `string'
PUBLIC	??_C@_04JPFKNPOP@MALL?$AA@			; `string'
PUBLIC	??_C@_07NCKDBJCB@SAFEBOX?$AA@			; `string'
PUBLIC	??_C@_06GKBINIEJ@GROUND?$AA@			; `string'
PUBLIC	??_C@_0BG@FHEDCCNN@DRAGON_SOUL_INVENTORY?$AA@	; `string'
PUBLIC	??_C@_0BB@IOEKBHAE@SKILL_SLOT_COUNT?$AA@	; `string'
PUBLIC	??_C@_0L@HFAEBHHD@ITEM_MONEY?$AA@		; `string'
PUBLIC	??_C@_0BH@FCKCIMBH@METIN_SOCKET_TYPE_NONE?$AA@	; `string'
PUBLIC	??_C@_0M@CHLINENA@EFFECT_PICK?$AA@		; `string'
PUBLIC	??_C@_0BH@EFCNALEJ@METIN_SOCKET_TYPE_GOLD?$AA@	; `string'
PUBLIC	??_C@_0BJ@PHGNNMMA@METIN_SOCKET_TYPE_SILVER?$AA@ ; `string'
PUBLIC	??_C@_0BH@BPEONNLD@ATTRIBUTE_SLOT_MAX_NUM?$AA@	; `string'
PUBLIC	??_C@_0BF@HOKBLOCN@METIN_SOCKET_MAX_NUM?$AA@	; `string'
PUBLIC	??_C@_09FFJEIDJG@REFINE_OK?$AA@			; `string'
PUBLIC	??_C@_0M@FNDEJPGN@REFINE_CANT?$AA@		; `string'
PUBLIC	??_C@_0BN@FMBLMMOD@REFINE_NEED_MORE_GOOD_SCROLL?$AA@ ; `string'
PUBLIC	??_C@_0CA@CPLGFHBD@REFINE_ALREADY_MAX_SOCKET_COUNT?$AA@ ; `string'
PUBLIC	??_C@_0BL@EILCCEPE@REFINE_NOT_NEXT_GRADE_ITEM?$AA@ ; `string'
PUBLIC	??_C@_0BN@JPDLJDPD@REFINE_CANT_MAKE_SOCKET_ITEM?$AA@ ; `string'
PUBLIC	??_C@_0BH@OENPPLJB@REFINE_CANT_REFINE_ROD?$AA@	; `string'
PUBLIC	??_C@_0CG@LFLLDFCE@REFINE_CANT_REFINE_METIN_TO_EQUI@ ; `string'
PUBLIC	??_C@_0BA@HOJAFGB@ATTACH_METIN_OK?$AA@		; `string'
PUBLIC	??_C@_0BC@CBCJMHP@ATTACH_METIN_CANT?$AA@	; `string'
PUBLIC	??_C@_0CB@MAILDNNI@ATTACH_METIN_NO_MATCHABLE_SOCKET@ ; `string'
PUBLIC	??_C@_0CA@OFAKGLFM@ATTACH_METIN_NOT_MATCHABLE_ITEM?$AA@ ; `string'
PUBLIC	??_C@_0CG@BCIFDNEM@ATTACH_METIN_CANT_ATTACH_TO_EQUI@ ; `string'
PUBLIC	??_C@_0CD@JNOPKOFJ@ATTACH_METIN_NOT_EXIST_GOLD_SOCK@ ; `string'
PUBLIC	??_C@_0BA@IACJJMNA@DETACH_METIN_OK?$AA@		; `string'
PUBLIC	??_C@_0BC@HGBPKPKG@DETACH_METIN_CANT?$AA@	; `string'
PUBLIC	??_C@_0BD@ECFFHEOH@PARTY_STATE_LEADER?$AA@	; `string'
PUBLIC	??_C@_0BD@PNFBHDHD@PARTY_STATE_NORMAL?$AA@	; `string'
PUBLIC	??_C@_0BD@FHMGGDNP@PARTY_STATE_TANKER?$AA@	; `string'
PUBLIC	??_C@_0BF@DOKPPLCL@PARTY_STATE_ATTACKER?$AA@	; `string'
PUBLIC	??_C@_0BJ@EIPCPJKC@PARTY_STATE_SKILL_MASTER?$AA@ ; `string'
PUBLIC	??_C@_0BD@JJFBJLK@PARTY_STATE_BUFFER?$AA@	; `string'
PUBLIC	??_C@_0BF@PAKJEMH@PARTY_STATE_DEFENDER?$AA@	; `string'
PUBLIC	??_C@_0BG@LCNEBE@PARTY_STATE_BERSERKER?$AA@	; `string'
PUBLIC	??_C@_0BE@MNBFKLPI@SKILL_INDEX_TONGSOL?$AA@	; `string'
PUBLIC	??_C@_0BE@KCLJFDCO@PARTY_STATE_MAX_NUM?$AA@	; `string'
PUBLIC	??_C@_0BD@KFCAJBFG@SKILL_INDEX_MINING?$AA@	; `string'
PUBLIC	??_C@_0BE@HANBCKAH@SKILL_INDEX_FISHING?$AA@	; `string'
PUBLIC	??_C@_0BC@HACNAMIK@SKILL_INDEX_COMBO?$AA@	; `string'
PUBLIC	??_C@_0BD@IBJDJMEL@SKILL_INDEX_MAKING?$AA@	; `string'
PUBLIC	??_C@_0BG@EEJDAHGJ@SKILL_INDEX_LANGUAGE2?$AA@	; `string'
PUBLIC	??_C@_0BG@GPLOFEKK@SKILL_INDEX_LANGUAGE1?$AA@	; `string'
PUBLIC	??_C@_0BG@DMEIDEKO@SKILL_INDEX_POLYMORPH?$AA@	; `string'
PUBLIC	??_C@_0BG@FNIIDGCI@SKILL_INDEX_LANGUAGE3?$AA@	; `string'
PUBLIC	??_C@_0BD@POBHIINM@SKILL_INDEX_SUMMON?$AA@	; `string'
PUBLIC	??_C@_0BD@HOAGGFNA@SKILL_INDEX_RIDING?$AA@	; `string'
PUBLIC	??_C@_0BA@HNNGLCOB@PK_MODE_REVENGE?$AA@		; `string'
PUBLIC	??_C@_0O@BIPAMBIG@PK_MODE_PEACE?$AA@		; `string'
PUBLIC	??_C@_0BA@GHACPGHA@PK_MODE_PROTECT?$AA@		; `string'
PUBLIC	??_C@_0N@DCANEGJG@PK_MODE_FREE?$AA@		; `string'
PUBLIC	??_C@_0BA@OLCDKGDA@PK_MODE_MAX_NUM?$AA@		; `string'
PUBLIC	??_C@_0O@LBDADKLE@PK_MODE_GUILD?$AA@		; `string'
PUBLIC	??_C@_0M@KFDBGBIL@BLOCK_PARTY?$AA@		; `string'
PUBLIC	??_C@_0P@CDMGAFPE@BLOCK_EXCHANGE?$AA@		; `string'
PUBLIC	??_C@_0O@CFHKOIIK@BLOCK_WHISPER?$AA@		; `string'
PUBLIC	??_C@_0M@EEMDCMKA@BLOCK_GUILD?$AA@		; `string'
PUBLIC	??_C@_0BE@NDGMABKO@BLOCK_PARTY_REQUEST?$AA@	; `string'
PUBLIC	??_C@_0N@IJGKBLJF@BLOCK_FRIEND?$AA@		; `string'
PUBLIC	??_C@_0BO@CBJBDFJC@PARTY_EXP_DISTRIBUTION_PARITY?$AA@ ; `string'
PUBLIC	??_C@_0BL@OELLICOI@PARTY_EXP_NON_DISTRIBUTION?$AA@ ; `string'
PUBLIC	??_C@_0BB@MCMBOGFC@EMOTION_CHEERS_1?$AA@	; `string'
PUBLIC	??_C@_0N@GFLIEIGE@EMOTION_CLAP?$AA@		; `string'
PUBLIC	??_C@_0BA@CLHGMEE@EMOTION_DANCE_1?$AA@		; `string'
PUBLIC	??_C@_0BB@OJOMLFJB@EMOTION_CHEERS_2?$AA@	; `string'
PUBLIC	??_C@_0BA@DAIBAOMG@EMOTION_DANCE_3?$AA@		; `string'
PUBLIC	??_C@_0BA@CJJKDPIH@EMOTION_DANCE_2?$AA@		; `string'
PUBLIC	??_C@_0BA@GGNLKJEA@EMOTION_DANCE_5?$AA@		; `string'
PUBLIC	??_C@_0BA@HPMAJIAB@EMOTION_DANCE_4?$AA@		; `string'
PUBLIC	??_C@_0BH@FIIEKKHF@EMOTION_CONGRATULATION?$AA@	; `string'
PUBLIC	??_C@_0BA@ENPGPKID@EMOTION_DANCE_6?$AA@		; `string'
PUBLIC	??_C@_0O@DACEICMN@EMOTION_ANGRY?$AA@		; `string'
PUBLIC	??_C@_0BA@JPGNEMIB@EMOTION_FORGIVE?$AA@		; `string'
PUBLIC	??_C@_0M@EGEMMDCF@EMOTION_SAD?$AA@		; `string'
PUBLIC	??_C@_0BD@FLNIBF@EMOTION_ATTRACTIVE?$AA@	; `string'
PUBLIC	??_C@_0BA@MENCJFPL@EMOTION_CHEERUP?$AA@		; `string'
PUBLIC	??_C@_0M@LGPBJELG@EMOTION_SHY?$AA@		; `string'
PUBLIC	??_C@_0M@JOKPJKCG@EMOTION_JOY?$AA@		; `string'
PUBLIC	??_C@_0P@JAJBGKKI@EMOTION_BANTER?$AA@		; `string'
PUBLIC	??_C@_0BE@KCAKKBPE@EMOTION_FRENCH_KISS?$AA@	; `string'
PUBLIC	??_C@_0N@FGJJNHEK@EMOTION_KISS?$AA@		; `string'
PUBLIC	??_C@_0BE@LLABJENL@AUTO_POTION_TYPE_HP?$AA@	; `string'
PUBLIC	??_C@_0N@FFINPOG@EMOTION_SLAP?$AA@		; `string'
PUBLIC	??_C@_0BG@FEPFCIIM@DRAGON_SOUL_PAGE_SIZE?$AA@	; `string'
PUBLIC	??_C@_0BE@KLHCNIEK@AUTO_POTION_TYPE_SP?$AA@	; `string'
PUBLIC	??_C@_0BH@IFPINEOD@DRAGON_SOUL_SLOT_COUNT?$AA@	; `string'
PUBLIC	??_C@_0BH@OCCNKKPP@DRAGON_SOUL_PAGE_COUNT?$AA@	; `string'
PUBLIC	??_C@_0CB@GAHKEECK@DRAGON_SOUL_EQUIPMENT_PAGE_COUNT@ ; `string'
PUBLIC	??_C@_0CB@NJAOAEOC@DRAGON_SOUL_EQUIPMENT_SLOT_START@ ; `string'
PUBLIC	??_C@_0BJ@MMGGGOHJ@DRAGON_SOUL_REFINE_CLOSE?$AA@ ; `string'
PUBLIC	??_C@_0CB@OIFHBJMG@DRAGON_SOUL_EQUIPMENT_FIRST_SIZE@ ; `string'
PUBLIC	??_C@_0BN@PCPINHKH@DS_SUB_HEADER_DO_IMPROVEMENT?$AA@ ; `string'
PUBLIC	??_C@_0BJ@JKFAJIJN@DS_SUB_HEADER_DO_UPGRADE?$AA@ ; `string'
PUBLIC	??_C@_0BI@NHBOLMGK@DS_SUB_HEADER_DO_REFINE?$AA@	; `string'
PUBLIC	?c_iSkillIndex_Riding@@3KB			; c_iSkillIndex_Riding
PUBLIC	?c_iSkillIndex_Summon@@3KB			; c_iSkillIndex_Summon
PUBLIC	?c_iSkillIndex_Combo@@3KB			; c_iSkillIndex_Combo
PUBLIC	?c_iSkillIndex_Fishing@@3KB			; c_iSkillIndex_Fishing
EXTRN	__imp__PyDict_Next:PROC
EXTRN	__imp__PyDict_Size:PROC
EXTRN	?PyTuple_GetLong@@YA_NPAU_object@@HPAJ@Z:PROC	; PyTuple_GetLong
EXTRN	?GetWearFlags@CItemData@@QBEKXZ:PROC		; CItemData::GetWearFlags
EXTRN	?HasNextGrade@CItemData@@QBEHXZ:PROC		; CItemData::HasNextGrade
EXTRN	?Hide@CGraphicObjectInstance@@QAEXXZ:PROC	; CGraphicObjectInstance::Hide
;	COMDAT ?s_methods@?1??initPlayer@@YAXXZ@4PAUPyMethodDef@@A
_DATA	SEGMENT
?s_methods@?1??initPlayer@@YAXXZ@4PAUPyMethodDef@@A DD FLAT:??_C@_0BC@CHIABFDI@GetAutoPotionInfo?$AA@ ; `initPlayer'::`2'::s_methods
	DD	FLAT:?playerGetAutoPotionInfo@@YAPAU_object@@PAU1@0@Z
	DD	01H
	ORG $+4
	DD	FLAT:??_C@_0BC@CILJOCG@SetAutoPotionInfo?$AA@
	DD	FLAT:?playerSetAutoPotionInfo@@YAPAU_object@@PAU1@0@Z
	DD	01H
	ORG $+4
	DD	FLAT:??_C@_0O@MAEJALBO@PickCloseItem?$AA@
	DD	FLAT:?playerPickCloseItem@@YAPAU_object@@PAU1@0@Z
	DD	01H
	ORG $+4
	DD	FLAT:??_C@_0O@MNPFFDEJ@SetGameWindow?$AA@
	DD	FLAT:?playerSetGameWindow@@YAPAU_object@@PAU1@0@Z
	DD	01H
	ORG $+4
	DD	FLAT:??_C@_0P@HDADHLLI@RegisterEffect?$AA@
	DD	FLAT:?playerRegisterEffect@@YAPAU_object@@PAU1@0@Z
	DD	01H
	ORG $+4
	DD	FLAT:??_C@_0BE@EGCDGLCF@RegisterCacheEffect?$AA@
	DD	FLAT:?playerRegisterCacheEffect@@YAPAU_object@@PAU1@0@Z
	DD	01H
	ORG $+4
	DD	FLAT:??_C@_0O@HDELDAFI@SetMouseState?$AA@
	DD	FLAT:?playerSetMouseState@@YAPAU_object@@PAU1@0@Z
	DD	01H
	ORG $+4
	DD	FLAT:??_C@_0N@LEJNPCGM@SetMouseFunc?$AA@
	DD	FLAT:?playerSetMouseFunc@@YAPAU_object@@PAU1@0@Z
	DD	01H
	ORG $+4
	DD	FLAT:??_C@_0N@MACDDOCA@GetMouseFunc?$AA@
	DD	FLAT:?playerGetMouseFunc@@YAPAU_object@@PAU1@0@Z
	DD	01H
	ORG $+4
	DD	FLAT:??_C@_0BK@JBJLNCBH@SetMouseMiddleButtonState?$AA@
	DD	FLAT:?playerSetMouseMiddleButtonState@@YAPAU_object@@PAU1@0@Z
	DD	01H
	ORG $+4
	DD	FLAT:??_C@_0BG@JCNMOACA@SetMainCharacterIndex?$AA@
	DD	FLAT:?playerSetMainCharacterIndex@@YAPAU_object@@PAU1@0@Z
	DD	01H
	ORG $+4
	DD	FLAT:??_C@_0BG@GHIKDJGB@GetMainCharacterIndex?$AA@
	DD	FLAT:?playerGetMainCharacterIndex@@YAPAU_object@@PAU1@0@Z
	DD	01H
	ORG $+4
	DD	FLAT:??_C@_0BF@OMDPKDFM@GetMainCharacterName?$AA@
	DD	FLAT:?playerGetMainCharacterName@@YAPAU_object@@PAU1@0@Z
	DD	01H
	ORG $+4
	DD	FLAT:??_C@_0BJ@GIKFEPMH@GetMainCharacterPosition?$AA@
	DD	FLAT:?playerGetMainCharacterPosition@@YAPAU_object@@PAU1@0@Z
	DD	01H
	ORG $+4
	DD	FLAT:??_C@_0BF@GALHNOAL@IsMainCharacterIndex?$AA@
	DD	FLAT:?playerIsMainCharacterIndex@@YAPAU_object@@PAU1@0@Z
	DD	01H
	ORG $+4
	DD	FLAT:??_C@_0BC@FLPEGJDD@CanAttackInstance?$AA@
	DD	FLAT:?playerCanAttackInstance@@YAPAU_object@@PAU1@0@Z
	DD	01H
	ORG $+4
	DD	FLAT:??_C@_0BA@ODCBPOEF@IsActingEmotion?$AA@
	DD	FLAT:?playerIsActingEmotion@@YAPAU_object@@PAU1@0@Z
	DD	01H
	ORG $+4
	DD	FLAT:??_C@_0O@ECCODAC@IsPVPInstance?$AA@
	DD	FLAT:?playerIsPVPInstance@@YAPAU_object@@PAU1@0@Z
	DD	01H
	ORG $+4
	DD	FLAT:??_C@_0N@CBEDFALN@IsSameEmpire?$AA@
	DD	FLAT:?playerIsSameEmpire@@YAPAU_object@@PAU1@0@Z
	DD	01H
	ORG $+4
	DD	FLAT:??_C@_0BE@FOIPHJLO@IsChallengeInstance?$AA@
	DD	FLAT:?playerIsChallengeInstance@@YAPAU_object@@PAU1@0@Z
	DD	01H
	ORG $+4
	DD	FLAT:??_C@_0BC@IKOEAPGC@IsRevengeInstance?$AA@
	DD	FLAT:?playerIsRevengeInstance@@YAPAU_object@@PAU1@0@Z
	DD	01H
	ORG $+4
	DD	FLAT:??_C@_0BE@HJOMPGKI@IsCantFightInstance?$AA@
	DD	FLAT:?playerIsCantFightInstance@@YAPAU_object@@PAU1@0@Z
	DD	01H
	ORG $+4
	DD	FLAT:??_C@_0BF@DABJOKIF@GetCharacterDistance?$AA@
	DD	FLAT:?playerGetCharacterDistance@@YAPAU_object@@PAU1@0@Z
	DD	01H
	ORG $+4
	DD	FLAT:??_C@_0N@IKPCBCPA@IsInSafeArea?$AA@
	DD	FLAT:?playerIsInSafeArea@@YAPAU_object@@PAU1@0@Z
	DD	01H
	ORG $+4
	DD	FLAT:??_C@_0BA@GFJLKENO@IsMountingHorse?$AA@
	DD	FLAT:?playerIsMountingHorse@@YAPAU_object@@PAU1@0@Z
	DD	01H
	ORG $+4
	DD	FLAT:??_C@_0P@LDENHACE@IsObserverMode?$AA@
	DD	FLAT:?playerIsObserverMode@@YAPAU_object@@PAU1@0@Z
	DD	01H
	ORG $+4
	DD	FLAT:??_C@_0L@JEBGMNAH@ActEmotion?$AA@
	DD	FLAT:?playerActEmotion@@YAPAU_object@@PAU1@0@Z
	DD	01H
	ORG $+4
	DD	FLAT:??_C@_0L@CPMIOCIM@ShowPlayer?$AA@
	DD	FLAT:?playerShowPlayer@@YAPAU_object@@PAU1@0@Z
	DD	01H
	ORG $+4
	DD	FLAT:??_C@_0L@PBBGGCLG@HidePlayer?$AA@
	DD	FLAT:?playerHidePlayer@@YAPAU_object@@PAU1@0@Z
	DD	01H
	ORG $+4
	DD	FLAT:??_C@_0M@GOCDIKPN@ComboAttack?$AA@
	DD	FLAT:?playerComboAttack@@YAPAU_object@@PAU1@0@Z
	DD	01H
	ORG $+4
	DD	FLAT:??_C@_0BL@IEKDAKHC@SetAutoCameraRotationSpeed?$AA@
	DD	FLAT:?playerSetAutoCameraRotationSpeed@@YAPAU_object@@PAU1@0@Z
	DD	01H
	ORG $+4
	DD	FLAT:??_C@_0BC@DAIEHFBH@SetAttackKeyState?$AA@
	DD	FLAT:?playerSetAttackKeyState@@YAPAU_object@@PAU1@0@Z
	DD	01H
	ORG $+4
	DD	FLAT:??_C@_0BF@PNJNANBI@SetSingleDIKKeyState?$AA@
	DD	FLAT:?playerSetSingleDIKKeyState@@YAPAU_object@@PAU1@0@Z
	DD	01H
	ORG $+4
	DD	FLAT:??_C@_0BJ@HGLJKHIH@EndKeyWalkingImmediately?$AA@
	DD	FLAT:?playerEndKeyWalkingImmediately@@YAPAU_object@@PAU1@0@Z
	DD	01H
	ORG $+4
	DD	FLAT:??_C@_0BC@NCHFPCDM@StartMouseWalking?$AA@
	DD	FLAT:?playerStartMouseWalking@@YAPAU_object@@PAU1@0@Z
	DD	01H
	ORG $+4
	DD	FLAT:??_C@_0BA@JEOKFDLP@EndMouseWalking?$AA@
	DD	FLAT:?playerEndMouseWalking@@YAPAU_object@@PAU1@0@Z
	DD	01H
	ORG $+4
	DD	FLAT:??_C@_0BE@MCFGJOPA@ResetCameraRotation?$AA@
	DD	FLAT:?playerResetCameraRotation@@YAPAU_object@@PAU1@0@Z
	DD	01H
	ORG $+4
	DD	FLAT:??_C@_0BD@DPHLFGPP@SetQuickCameraMode?$AA@
	DD	FLAT:?playerSetQuickCameraMode@@YAPAU_object@@PAU1@0@Z
	DD	01H
	ORG $+4
	DD	FLAT:??_C@_08HIFGFOGG@SetSkill?$AA@
	DD	FLAT:?playerSetSkill@@YAPAU_object@@PAU1@0@Z
	DD	01H
	ORG $+4
	DD	FLAT:??_C@_0O@NOICOABO@GetSkillIndex?$AA@
	DD	FLAT:?playerGetSkillIndex@@YAPAU_object@@PAU1@0@Z
	DD	01H
	ORG $+4
	DD	FLAT:??_C@_0BC@HNJMANI@GetSkillSlotIndex?$AA@
	DD	FLAT:?playerGetSkillSlotIndex@@YAPAU_object@@PAU1@0@Z
	DD	01H
	ORG $+4
	DD	FLAT:??_C@_0O@IIOIANPE@GetSkillGrade?$AA@
	DD	FLAT:?playerGetSkillGrade@@YAPAU_object@@PAU1@0@Z
	DD	01H
	ORG $+4
	DD	FLAT:??_C@_0O@CNCBAIPN@GetSkillLevel?$AA@
	DD	FLAT:?playerGetSkillLevel@@YAPAU_object@@PAU1@0@Z
	DD	01H
	ORG $+4
	DD	FLAT:??_C@_0CD@EFGGIKHI@GetSkillCurrentEfficientPercenta@
	DD	FLAT:?playerGetSkillCurrentEfficientPercentage@@YAPAU_object@@PAU1@0@Z
	DD	01H
	ORG $+4
	DD	FLAT:??_C@_0CA@JHGONPGM@GetSkillNextEfficientPercentage?$AA@
	DD	FLAT:?playerGetSkillNextEfficientPercentage@@YAPAU_object@@PAU1@0@Z
	DD	01H
	ORG $+4
	DD	FLAT:??_C@_0P@IGNHDBHH@ClickSkillSlot?$AA@
	DD	FLAT:?playerClickSkillSlot@@YAPAU_object@@PAU1@0@Z
	DD	01H
	ORG $+4
	DD	FLAT:??_C@_0BN@BPJDEKED@ChangeCurrentSkillNumberOnly?$AA@
	DD	FLAT:?playerChangeCurrentSkillNumberOnly@@YAPAU_object@@PAU1@0@Z
	DD	01H
	ORG $+4
	DD	FLAT:??_C@_0P@MJOJKOJJ@ClearSkillDict?$AA@
	DD	FLAT:?playerClearSkillDict@@YAPAU_object@@PAU1@0@Z
	DD	01H
	ORG $+4
	DD	FLAT:??_C@_0N@GABOCBEH@GetItemIndex?$AA@
	DD	FLAT:?playerGetItemIndex@@YAPAU_object@@PAU1@0@Z
	DD	01H
	ORG $+4
	DD	FLAT:??_C@_0N@DMCGDNGF@GetItemFlags?$AA@
	DD	FLAT:?playerGetItemFlags@@YAPAU_object@@PAU1@0@Z
	DD	01H
	ORG $+4
	DD	FLAT:??_C@_0N@LEKALLIG@GetItemCount?$AA@
	DD	FLAT:?playerGetItemCount@@YAPAU_object@@PAU1@0@Z
	DD	01H
	ORG $+4
	DD	FLAT:??_C@_0BD@DBLILMFK@GetItemCountByVnum?$AA@
	DD	FLAT:?playerGetItemCountByVnum@@YAPAU_object@@PAU1@0@Z
	DD	01H
	ORG $+4
	DD	FLAT:??_C@_0BD@JBOBKHIE@GetItemMetinSocket?$AA@
	DD	FLAT:?playerGetItemMetinSocket@@YAPAU_object@@PAU1@0@Z
	DD	01H
	ORG $+4
	DD	FLAT:??_C@_0BB@GOKPPDHH@GetItemAttribute?$AA@
	DD	FLAT:?playerGetItemAttribute@@YAPAU_object@@PAU1@0@Z
	DD	01H
	ORG $+4
	DD	FLAT:??_C@_0BC@OKNBBEMG@GetISellItemPrice?$AA@
	DD	FLAT:?playerGetISellItemPrice@@YAPAU_object@@PAU1@0@Z
	DD	01H
	ORG $+4
	DD	FLAT:??_C@_08MHJANHDM@MoveItem?$AA@
	DD	FLAT:?playerMoveItem@@YAPAU_object@@PAU1@0@Z
	DD	01H
	ORG $+4
	DD	FLAT:??_C@_0BE@DBIFLBAC@SendClickItemPacket?$AA@
	DD	FLAT:?playerSendClickItemPacket@@YAPAU_object@@PAU1@0@Z
	DD	01H
	ORG $+4
	DD	FLAT:??_C@_07MMGEHGCI@GetName?$AA@
	DD	FLAT:?playerGetName@@YAPAU_object@@PAU1@0@Z
	DD	01H
	ORG $+4
	DD	FLAT:??_C@_06FHLNIOPB@GetJob?$AA@
	DD	FLAT:?playerGetJob@@YAPAU_object@@PAU1@0@Z
	DD	01H
	ORG $+4
	DD	FLAT:??_C@_07GDOKCBKB@GetRace?$AA@
	DD	FLAT:?playerGetRace@@YAPAU_object@@PAU1@0@Z
	DD	01H
	ORG $+4
	DD	FLAT:??_C@_0M@DJDCIBLO@GetPlayTime?$AA@
	DD	FLAT:?playerGetPlayTime@@YAPAU_object@@PAU1@0@Z
	DD	01H
	ORG $+4
	DD	FLAT:??_C@_0M@DGCMFHDN@SetPlayTime?$AA@
	DD	FLAT:?playerSetPlayTime@@YAPAU_object@@PAU1@0@Z
	DD	01H
	ORG $+4
	DD	FLAT:??_C@_0BA@FOPKKJJD@IsSkillCoolTime?$AA@
	DD	FLAT:?playerIsSkillCoolTime@@YAPAU_object@@PAU1@0@Z
	DD	01H
	ORG $+4
	DD	FLAT:??_C@_0BB@CNGGKNGL@GetSkillCoolTime?$AA@
	DD	FLAT:?playerGetSkillCoolTime@@YAPAU_object@@PAU1@0@Z
	DD	01H
	ORG $+4
	DD	FLAT:??_C@_0O@IAPCJJAC@IsSkillActive?$AA@
	DD	FLAT:?playerIsSkillActive@@YAPAU_object@@PAU1@0@Z
	DD	01H
	ORG $+4
	DD	FLAT:??_C@_0O@HHBOBCLE@UseGuildSkill?$AA@
	DD	FLAT:?playerUseGuildSkill@@YAPAU_object@@PAU1@0@Z
	DD	01H
	ORG $+4
	DD	FLAT:??_C@_0BI@JIGEMOFF@AffectIndexToSkillIndex?$AA@
	DD	FLAT:?playerAffectIndexToSkillIndex@@YAPAU_object@@PAU1@0@Z
	DD	01H
	ORG $+4
	DD	FLAT:??_C@_06MDIKDJMD@GetEXP?$AA@
	DD	FLAT:?playerGetEXP@@YAPAU_object@@PAU1@0@Z
	DD	01H
	ORG $+4
	DD	FLAT:??_C@_09MKFEIFJE@GetStatus?$AA@
	DD	FLAT:?playerGetStatus@@YAPAU_object@@PAU1@0@Z
	DD	01H
	ORG $+4
	DD	FLAT:??_C@_09OEBBKEAG@SetStatus?$AA@
	DD	FLAT:?playerSetStatus@@YAPAU_object@@PAU1@0@Z
	DD	01H
	ORG $+4
	DD	FLAT:??_C@_06NMFKJLLH@GetElk?$AA@
	DD	FLAT:?playerGetElk@@YAPAU_object@@PAU1@0@Z
	DD	01H
	ORG $+4
	DD	FLAT:??_C@_08OAJFGNBC@GetMoney?$AA@
	DD	FLAT:?playerGetElk@@YAPAU_object@@PAU1@0@Z
	DD	01H
	ORG $+4
	DD	FLAT:??_C@_0L@EAKBLDCO@GetGuildID?$AA@
	DD	FLAT:?playerGetGuildID@@YAPAU_object@@PAU1@0@Z
	DD	01H
	ORG $+4
	DD	FLAT:??_C@_0N@CECGOPDG@GetGuildName?$AA@
	DD	FLAT:?playerGetGuildName@@YAPAU_object@@PAU1@0@Z
	DD	01H
	ORG $+4
	DD	FLAT:??_C@_0BB@LANDCIKG@GetAlignmentData?$AA@
	DD	FLAT:?playerGetAlignmentData@@YAPAU_object@@PAU1@0@Z
	DD	01H
	ORG $+4
	DD	FLAT:??_C@_0BJ@DNLGAMEO@RequestAddLocalQuickSlot?$AA@
	DD	FLAT:?playerRequestAddLocalQuickSlot@@YAPAU_object@@PAU1@0@Z
	DD	01H
	ORG $+4
	DD	FLAT:??_C@_0CA@JMFCJJPL@RequestAddToEmptyLocalQuickSlot?$AA@
	DD	FLAT:?playerRequestAddToEmptyLocalQuickSlot@@YAPAU_object@@PAU1@0@Z
	DD	01H
	ORG $+4
	DD	FLAT:??_C@_0BN@NACLJDMA@RequestDeleteGlobalQuickSlot?$AA@
	DD	FLAT:?playerRequestDeleteGlobalQuickSlot@@YAPAU_object@@PAU1@0@Z
	DD	01H
	ORG $+4
	DD	FLAT:??_C@_0CL@IEMBKGLN@RequestMoveGlobalQuickSlotToLoca@
	DD	FLAT:?playerRequestMoveGlobalQuickSlotToLocalQuickSlot@@YAPAU_object@@PAU1@0@Z
	DD	01H
	ORG $+4
	DD	FLAT:??_C@_0BJ@IBBGPDPH@RequestUseLocalQuickSlot?$AA@
	DD	FLAT:?playerRequestUseLocalQuickSlot@@YAPAU_object@@PAU1@0@Z
	DD	01H
	ORG $+4
	DD	FLAT:??_C@_0CK@GNGKFIDB@LocalQuickSlotIndexToGlobalQuick@
	DD	FLAT:?playerLocalQuickSlotIndexToGlobalQuickSlotIndex@@YAPAU_object@@PAU1@0@Z
	DD	01H
	ORG $+4
	DD	FLAT:??_C@_0N@NLMPHAJA@GetQuickPage?$AA@
	DD	FLAT:?playerGetQuickPage@@YAPAU_object@@PAU1@0@Z
	DD	01H
	ORG $+4
	DD	FLAT:??_C@_0N@KPHBLMNM@SetQuickPage?$AA@
	DD	FLAT:?playerSetQuickPage@@YAPAU_object@@PAU1@0@Z
	DD	01H
	ORG $+4
	DD	FLAT:??_C@_0BC@LNKMMBDG@GetLocalQuickSlot?$AA@
	DD	FLAT:?playerGetLocalQuickSlot@@YAPAU_object@@PAU1@0@Z
	DD	01H
	ORG $+4
	DD	FLAT:??_C@_0BD@ECGPDHPA@GetGlobalQuickSlot?$AA@
	DD	FLAT:?playerGetGlobalQuickSlot@@YAPAU_object@@PAU1@0@Z
	DD	01H
	ORG $+4
	DD	FLAT:??_C@_0BH@JNCIKJMC@RemoveQuickSlotByValue?$AA@
	DD	FLAT:?playerRemoveQuickSlotByValue@@YAPAU_object@@PAU1@0@Z
	DD	01H
	ORG $+4
	DD	FLAT:??_C@_06NOPKEHAK@isItem?$AA@
	DD	FLAT:?playerisItem@@YAPAU_object@@PAU1@0@Z
	DD	01H
	ORG $+4
	DD	FLAT:??_C@_0BA@EMKHGGAL@IsEquipmentSlot?$AA@
	DD	FLAT:?playerIsEquipmentSlot@@YAPAU_object@@PAU1@0@Z
	DD	01H
	ORG $+4
	DD	FLAT:??_C@_0BC@DDCIGDKO@IsDSEquipmentSlot?$AA@
	DD	FLAT:?playerIsDSEquipmentSlot@@YAPAU_object@@PAU1@0@Z
	DD	01H
	ORG $+4
	DD	FLAT:??_C@_0O@KCAGNEAI@IsCostumeSlot?$AA@
	DD	FLAT:?playerIsCostumeSlot@@YAPAU_object@@PAU1@0@Z
	DD	01H
	ORG $+4
	DD	FLAT:??_C@_0P@LAJFBPPH@IsValuableItem?$AA@
	DD	FLAT:?playerIsValuableItem@@YAPAU_object@@PAU1@0@Z
	DD	01H
	ORG $+4
	DD	FLAT:??_C@_0BC@DCFDMADN@IsOpenPrivateShop?$AA@
	DD	FLAT:?playerIsOpenPrivateShop@@YAPAU_object@@PAU1@0@Z
	DD	01H
	ORG $+4
	DD	FLAT:??_C@_0N@DGHEMMKN@GetItemGrade?$AA@
	DD	FLAT:?playerGetItemGrade@@YAPAU_object@@PAU1@0@Z
	DD	01H
	ORG $+4
	DD	FLAT:??_C@_09BGNCJJP@CanRefine?$AA@
	DD	FLAT:?playerCanRefine@@YAPAU_object@@PAU1@0@Z
	DD	01H
	ORG $+4
	DD	FLAT:??_C@_09GHIBIBHI@CanDetach?$AA@
	DD	FLAT:?playerCanDetach@@YAPAU_object@@PAU1@0@Z
	DD	01H
	ORG $+4
	DD	FLAT:??_C@_09FHINBOHC@CanUnlock?$AA@
	DD	FLAT:?playerCanUnlock@@YAPAU_object@@PAU1@0@Z
	DD	01H
	ORG $+4
	DD	FLAT:??_C@_0P@BLOGPKFO@CanAttachMetin?$AA@
	DD	FLAT:?playerCanAttachMetin@@YAPAU_object@@PAU1@0@Z
	DD	01H
	ORG $+4
	DD	FLAT:??_C@_0BE@ELNKJPMC@IsRefineGradeScroll?$AA@
	DD	FLAT:?playerIsRefineGradeScroll@@YAPAU_object@@PAU1@0@Z
	DD	01H
	ORG $+4
	DD	FLAT:??_C@_0M@DPCEEMCG@ClearTarget?$AA@
	DD	FLAT:?playerClearTarget@@YAPAU_object@@PAU1@0@Z
	DD	01H
	ORG $+4
	DD	FLAT:??_C@_09EECGCJDE@SetTarget?$AA@
	DD	FLAT:?playerSetTarget@@YAPAU_object@@PAU1@0@Z
	DD	01H
	ORG $+4
	DD	FLAT:??_C@_0BC@HAEJEFBP@OpenCharacterMenu?$AA@
	DD	FLAT:?playerOpenCharacterMenu@@YAPAU_object@@PAU1@0@Z
	DD	01H
	ORG $+4
	DD	FLAT:??_C@_06LMAGPFNF@Update?$AA@
	DD	FLAT:?playerUpdate@@YAPAU_object@@PAU1@0@Z
	DD	01H
	ORG $+4
	DD	FLAT:??_C@_06EPLDPNDB@Render?$AA@
	DD	FLAT:?playerRender@@YAPAU_object@@PAU1@0@Z
	DD	01H
	ORG $+4
	DD	FLAT:??_C@_05MDNHABIA@Clear?$AA@
	DD	FLAT:?playerClear@@YAPAU_object@@PAU1@0@Z
	DD	01H
	ORG $+4
	DD	FLAT:??_C@_0O@FJCFNEGL@IsPartyMember?$AA@
	DD	FLAT:?playerIsPartyMember@@YAPAU_object@@PAU1@0@Z
	DD	01H
	ORG $+4
	DD	FLAT:??_C@_0O@BPMJGNAC@IsPartyLeader?$AA@
	DD	FLAT:?playerIsPartyLeader@@YAPAU_object@@PAU1@0@Z
	DD	01H
	ORG $+4
	DD	FLAT:??_C@_0BD@HGKJMFNK@IsPartyLeaderByPID?$AA@
	DD	FLAT:?playerIsPartyLeaderByPID@@YAPAU_object@@PAU1@0@Z
	DD	01H
	ORG $+4
	DD	FLAT:??_C@_0BL@EPAFEFHI@GetPartyMemberHPPercentage?$AA@
	DD	FLAT:?playerGetPartyMemberHPPercentage@@YAPAU_object@@PAU1@0@Z
	DD	01H
	ORG $+4
	DD	FLAT:??_C@_0BE@HKIJMBKK@GetPartyMemberState?$AA@
	DD	FLAT:?playerGetPartyMemberState@@YAPAU_object@@PAU1@0@Z
	DD	01H
	ORG $+4
	DD	FLAT:??_C@_0BG@EEFAFMJC@GetPartyMemberAffects?$AA@
	DD	FLAT:?playerGetPartyMemberAffects@@YAPAU_object@@PAU1@0@Z
	DD	01H
	ORG $+4
	DD	FLAT:??_C@_0BC@DGCJFOHN@RemovePartyMember?$AA@
	DD	FLAT:?playerRemovePartyMember@@YAPAU_object@@PAU1@0@Z
	DD	01H
	ORG $+4
	DD	FLAT:??_C@_09DMPBEJCG@ExitParty?$AA@
	DD	FLAT:?playerExitParty@@YAPAU_object@@PAU1@0@Z
	DD	01H
	ORG $+4
	DD	FLAT:??_C@_09IMMFEEHK@GetPKMode?$AA@
	DD	FLAT:?playerGetPKMode@@YAPAU_object@@PAU1@0@Z
	DD	01H
	ORG $+4
	DD	FLAT:??_C@_0BF@CLGCEOLO@HasMobilePhoneNumber?$AA@
	DD	FLAT:?playerHasMobilePhoneNumber@@YAPAU_object@@PAU1@0@Z
	DD	01H
	ORG $+4
	DD	FLAT:??_C@_0BE@PMDABIKP@RegisterEmotionIcon?$AA@
	DD	FLAT:?playerRegisterEmotionIcon@@YAPAU_object@@PAU1@0@Z
	DD	01H
	ORG $+4
	DD	FLAT:??_C@_0BE@FELKHKJF@GetEmotionIconImage?$AA@
	DD	FLAT:?playerGetEmotionIconImage@@YAPAU_object@@PAU1@0@Z
	DD	01H
	ORG $+4
	DD	FLAT:??_C@_0BJ@CFCMHNHB@SetWeaponAttackBonusFlag?$AA@
	DD	FLAT:?playerSetWeaponAttackBonusFlag@@YAPAU_object@@PAU1@0@Z
	DD	01H
	ORG $+4
	DD	FLAT:??_C@_0P@ILOOLMDH@ToggleCoolTime?$AA@
	DD	FLAT:?playerToggleCoolTime@@YAPAU_object@@PAU1@0@Z
	DD	01H
	ORG $+4
	DD	FLAT:??_C@_0BB@DJKKOCLB@ToggleLevelLimit?$AA@
	DD	FLAT:?playerToggleLevelLimit@@YAPAU_object@@PAU1@0@Z
	DD	01H
	ORG $+4
	DD	FLAT:??_C@_0N@MEKPPHGC@GetTargetVID?$AA@
	DD	FLAT:?playerGetTargetVID@@YAPAU_object@@PAU1@0@Z
	DD	01H
	ORG $+4
	DD	FLAT:??_C@_0M@CHNGAPIB@SetItemData?$AA@
	DD	FLAT:?playerSetItemData@@YAPAU_object@@PAU1@0@Z
	DD	01H
	ORG $+4
	DD	FLAT:??_C@_0BD@GLMLJBGM@SetItemMetinSocket?$AA@
	DD	FLAT:?playerSetItemMetinSocket@@YAPAU_object@@PAU1@0@Z
	DD	01H
	ORG $+4
	DD	FLAT:??_C@_0BB@KPGENMF@SetItemAttribute?$AA@
	DD	FLAT:?playerSetItemAttribute@@YAPAU_object@@PAU1@0@Z
	DD	01H
	ORG $+4
	DD	FLAT:??_C@_0N@MABOHHMK@SetItemCount?$AA@
	DD	FLAT:?playerSetItemCount@@YAPAU_object@@PAU1@0@Z
	DD	01H
	ORG $+4
	DD	FLAT:??_C@_0M@DGFCHEAA@GetItemLink?$AA@
	DD	FLAT:?playerGetItemLink@@YAPAU_object@@PAU1@0@Z
	DD	01H
	ORG $+4
	DD	FLAT:??_C@_0BE@IOMKCPHN@SlotTypeToInvenType?$AA@
	DD	FLAT:?playerSlotTypeToInvenType@@YAPAU_object@@PAU1@0@Z
	DD	01H
	ORG $+4
	DD	FLAT:??_C@_0BF@PLGNHJMH@SendDragonSoulRefine?$AA@
	DD	FLAT:?playerSendDragonSoulRefine@@YAPAU_object@@PAU1@0@Z
	DD	01H
	ORG $+4
	DD	00H
	DD	00H
	DD	00H
	ORG $+4
_DATA	ENDS
;	COMDAT ??_C@_0BI@NHBOLMGK@DS_SUB_HEADER_DO_REFINE?$AA@
CONST	SEGMENT
??_C@_0BI@NHBOLMGK@DS_SUB_HEADER_DO_REFINE?$AA@ DB 'DS_SUB_HEADER_DO_REFI'
	DB	'NE', 00H					; `string'
CONST	ENDS
;	COMDAT ??_C@_0BJ@JKFAJIJN@DS_SUB_HEADER_DO_UPGRADE?$AA@
CONST	SEGMENT
??_C@_0BJ@JKFAJIJN@DS_SUB_HEADER_DO_UPGRADE?$AA@ DB 'DS_SUB_HEADER_DO_UPG'
	DB	'RADE', 00H					; `string'
CONST	ENDS
;	COMDAT ??_C@_0BN@PCPINHKH@DS_SUB_HEADER_DO_IMPROVEMENT?$AA@
CONST	SEGMENT
??_C@_0BN@PCPINHKH@DS_SUB_HEADER_DO_IMPROVEMENT?$AA@ DB 'DS_SUB_HEADER_DO'
	DB	'_IMPROVEMENT', 00H				; `string'
CONST	ENDS
;	COMDAT ??_C@_0CB@OIFHBJMG@DRAGON_SOUL_EQUIPMENT_FIRST_SIZE@
CONST	SEGMENT
??_C@_0CB@OIFHBJMG@DRAGON_SOUL_EQUIPMENT_FIRST_SIZE@ DB 'DRAGON_SOUL_EQUI'
	DB	'PMENT_FIRST_SIZE', 00H			; `string'
CONST	ENDS
;	COMDAT ??_C@_0BJ@MMGGGOHJ@DRAGON_SOUL_REFINE_CLOSE?$AA@
CONST	SEGMENT
??_C@_0BJ@MMGGGOHJ@DRAGON_SOUL_REFINE_CLOSE?$AA@ DB 'DRAGON_SOUL_REFINE_C'
	DB	'LOSE', 00H					; `string'
CONST	ENDS
;	COMDAT ??_C@_0CB@NJAOAEOC@DRAGON_SOUL_EQUIPMENT_SLOT_START@
CONST	SEGMENT
??_C@_0CB@NJAOAEOC@DRAGON_SOUL_EQUIPMENT_SLOT_START@ DB 'DRAGON_SOUL_EQUI'
	DB	'PMENT_SLOT_START', 00H			; `string'
CONST	ENDS
;	COMDAT ??_C@_0CB@GAHKEECK@DRAGON_SOUL_EQUIPMENT_PAGE_COUNT@
CONST	SEGMENT
??_C@_0CB@GAHKEECK@DRAGON_SOUL_EQUIPMENT_PAGE_COUNT@ DB 'DRAGON_SOUL_EQUI'
	DB	'PMENT_PAGE_COUNT', 00H			; `string'
CONST	ENDS
;	COMDAT ??_C@_0BH@OCCNKKPP@DRAGON_SOUL_PAGE_COUNT?$AA@
CONST	SEGMENT
??_C@_0BH@OCCNKKPP@DRAGON_SOUL_PAGE_COUNT?$AA@ DB 'DRAGON_SOUL_PAGE_COUNT'
	DB	00H						; `string'
CONST	ENDS
;	COMDAT ??_C@_0BH@IFPINEOD@DRAGON_SOUL_SLOT_COUNT?$AA@
CONST	SEGMENT
??_C@_0BH@IFPINEOD@DRAGON_SOUL_SLOT_COUNT?$AA@ DB 'DRAGON_SOUL_SLOT_COUNT'
	DB	00H						; `string'
CONST	ENDS
;	COMDAT ??_C@_0BE@KLHCNIEK@AUTO_POTION_TYPE_SP?$AA@
CONST	SEGMENT
??_C@_0BE@KLHCNIEK@AUTO_POTION_TYPE_SP?$AA@ DB 'AUTO_POTION_TYPE_SP', 00H ; `string'
CONST	ENDS
;	COMDAT ??_C@_0BG@FEPFCIIM@DRAGON_SOUL_PAGE_SIZE?$AA@
CONST	SEGMENT
??_C@_0BG@FEPFCIIM@DRAGON_SOUL_PAGE_SIZE?$AA@ DB 'DRAGON_SOUL_PAGE_SIZE', 00H ; `string'
CONST	ENDS
;	COMDAT ??_C@_0N@FFINPOG@EMOTION_SLAP?$AA@
CONST	SEGMENT
??_C@_0N@FFINPOG@EMOTION_SLAP?$AA@ DB 'EMOTION_SLAP', 00H ; `string'
CONST	ENDS
;	COMDAT ??_C@_0BE@LLABJENL@AUTO_POTION_TYPE_HP?$AA@
CONST	SEGMENT
??_C@_0BE@LLABJENL@AUTO_POTION_TYPE_HP?$AA@ DB 'AUTO_POTION_TYPE_HP', 00H ; `string'
CONST	ENDS
;	COMDAT ??_C@_0N@FGJJNHEK@EMOTION_KISS?$AA@
CONST	SEGMENT
??_C@_0N@FGJJNHEK@EMOTION_KISS?$AA@ DB 'EMOTION_KISS', 00H ; `string'
CONST	ENDS
;	COMDAT ??_C@_0BE@KCAKKBPE@EMOTION_FRENCH_KISS?$AA@
CONST	SEGMENT
??_C@_0BE@KCAKKBPE@EMOTION_FRENCH_KISS?$AA@ DB 'EMOTION_FRENCH_KISS', 00H ; `string'
CONST	ENDS
;	COMDAT ??_C@_0P@JAJBGKKI@EMOTION_BANTER?$AA@
CONST	SEGMENT
??_C@_0P@JAJBGKKI@EMOTION_BANTER?$AA@ DB 'EMOTION_BANTER', 00H ; `string'
CONST	ENDS
;	COMDAT ??_C@_0M@JOKPJKCG@EMOTION_JOY?$AA@
CONST	SEGMENT
??_C@_0M@JOKPJKCG@EMOTION_JOY?$AA@ DB 'EMOTION_JOY', 00H ; `string'
CONST	ENDS
;	COMDAT ??_C@_0M@LGPBJELG@EMOTION_SHY?$AA@
CONST	SEGMENT
??_C@_0M@LGPBJELG@EMOTION_SHY?$AA@ DB 'EMOTION_SHY', 00H ; `string'
CONST	ENDS
;	COMDAT ??_C@_0BA@MENCJFPL@EMOTION_CHEERUP?$AA@
CONST	SEGMENT
??_C@_0BA@MENCJFPL@EMOTION_CHEERUP?$AA@ DB 'EMOTION_CHEERUP', 00H ; `string'
CONST	ENDS
;	COMDAT ??_C@_0BD@FLNIBF@EMOTION_ATTRACTIVE?$AA@
CONST	SEGMENT
??_C@_0BD@FLNIBF@EMOTION_ATTRACTIVE?$AA@ DB 'EMOTION_ATTRACTIVE', 00H ; `string'
CONST	ENDS
;	COMDAT ??_C@_0M@EGEMMDCF@EMOTION_SAD?$AA@
CONST	SEGMENT
??_C@_0M@EGEMMDCF@EMOTION_SAD?$AA@ DB 'EMOTION_SAD', 00H ; `string'
CONST	ENDS
;	COMDAT ??_C@_0BA@JPGNEMIB@EMOTION_FORGIVE?$AA@
CONST	SEGMENT
??_C@_0BA@JPGNEMIB@EMOTION_FORGIVE?$AA@ DB 'EMOTION_FORGIVE', 00H ; `string'
CONST	ENDS
;	COMDAT ??_C@_0O@DACEICMN@EMOTION_ANGRY?$AA@
CONST	SEGMENT
??_C@_0O@DACEICMN@EMOTION_ANGRY?$AA@ DB 'EMOTION_ANGRY', 00H ; `string'
CONST	ENDS
;	COMDAT ??_C@_0BA@ENPGPKID@EMOTION_DANCE_6?$AA@
CONST	SEGMENT
??_C@_0BA@ENPGPKID@EMOTION_DANCE_6?$AA@ DB 'EMOTION_DANCE_6', 00H ; `string'
CONST	ENDS
;	COMDAT ??_C@_0BH@FIIEKKHF@EMOTION_CONGRATULATION?$AA@
CONST	SEGMENT
??_C@_0BH@FIIEKKHF@EMOTION_CONGRATULATION?$AA@ DB 'EMOTION_CONGRATULATION'
	DB	00H						; `string'
CONST	ENDS
;	COMDAT ??_C@_0BA@HPMAJIAB@EMOTION_DANCE_4?$AA@
CONST	SEGMENT
??_C@_0BA@HPMAJIAB@EMOTION_DANCE_4?$AA@ DB 'EMOTION_DANCE_4', 00H ; `string'
CONST	ENDS
;	COMDAT ??_C@_0BA@GGNLKJEA@EMOTION_DANCE_5?$AA@
CONST	SEGMENT
??_C@_0BA@GGNLKJEA@EMOTION_DANCE_5?$AA@ DB 'EMOTION_DANCE_5', 00H ; `string'
CONST	ENDS
;	COMDAT ??_C@_0BA@CJJKDPIH@EMOTION_DANCE_2?$AA@
CONST	SEGMENT
??_C@_0BA@CJJKDPIH@EMOTION_DANCE_2?$AA@ DB 'EMOTION_DANCE_2', 00H ; `string'
CONST	ENDS
;	COMDAT ??_C@_0BA@DAIBAOMG@EMOTION_DANCE_3?$AA@
CONST	SEGMENT
??_C@_0BA@DAIBAOMG@EMOTION_DANCE_3?$AA@ DB 'EMOTION_DANCE_3', 00H ; `string'
CONST	ENDS
;	COMDAT ??_C@_0BB@OJOMLFJB@EMOTION_CHEERS_2?$AA@
CONST	SEGMENT
??_C@_0BB@OJOMLFJB@EMOTION_CHEERS_2?$AA@ DB 'EMOTION_CHEERS_2', 00H ; `string'
CONST	ENDS
;	COMDAT ??_C@_0BA@CLHGMEE@EMOTION_DANCE_1?$AA@
CONST	SEGMENT
??_C@_0BA@CLHGMEE@EMOTION_DANCE_1?$AA@ DB 'EMOTION_DANCE_1', 00H ; `string'
CONST	ENDS
;	COMDAT ??_C@_0N@GFLIEIGE@EMOTION_CLAP?$AA@
CONST	SEGMENT
??_C@_0N@GFLIEIGE@EMOTION_CLAP?$AA@ DB 'EMOTION_CLAP', 00H ; `string'
CONST	ENDS
;	COMDAT ??_C@_0BB@MCMBOGFC@EMOTION_CHEERS_1?$AA@
CONST	SEGMENT
??_C@_0BB@MCMBOGFC@EMOTION_CHEERS_1?$AA@ DB 'EMOTION_CHEERS_1', 00H ; `string'
CONST	ENDS
;	COMDAT ??_C@_0BL@OELLICOI@PARTY_EXP_NON_DISTRIBUTION?$AA@
CONST	SEGMENT
??_C@_0BL@OELLICOI@PARTY_EXP_NON_DISTRIBUTION?$AA@ DB 'PARTY_EXP_NON_DIST'
	DB	'RIBUTION', 00H				; `string'
CONST	ENDS
;	COMDAT ??_C@_0BO@CBJBDFJC@PARTY_EXP_DISTRIBUTION_PARITY?$AA@
CONST	SEGMENT
??_C@_0BO@CBJBDFJC@PARTY_EXP_DISTRIBUTION_PARITY?$AA@ DB 'PARTY_EXP_DISTR'
	DB	'IBUTION_PARITY', 00H			; `string'
CONST	ENDS
;	COMDAT ??_C@_0N@IJGKBLJF@BLOCK_FRIEND?$AA@
CONST	SEGMENT
??_C@_0N@IJGKBLJF@BLOCK_FRIEND?$AA@ DB 'BLOCK_FRIEND', 00H ; `string'
CONST	ENDS
;	COMDAT ??_C@_0BE@NDGMABKO@BLOCK_PARTY_REQUEST?$AA@
CONST	SEGMENT
??_C@_0BE@NDGMABKO@BLOCK_PARTY_REQUEST?$AA@ DB 'BLOCK_PARTY_REQUEST', 00H ; `string'
CONST	ENDS
;	COMDAT ??_C@_0M@EEMDCMKA@BLOCK_GUILD?$AA@
CONST	SEGMENT
??_C@_0M@EEMDCMKA@BLOCK_GUILD?$AA@ DB 'BLOCK_GUILD', 00H ; `string'
CONST	ENDS
;	COMDAT ??_C@_0O@CFHKOIIK@BLOCK_WHISPER?$AA@
CONST	SEGMENT
??_C@_0O@CFHKOIIK@BLOCK_WHISPER?$AA@ DB 'BLOCK_WHISPER', 00H ; `string'
CONST	ENDS
;	COMDAT ??_C@_0P@CDMGAFPE@BLOCK_EXCHANGE?$AA@
CONST	SEGMENT
??_C@_0P@CDMGAFPE@BLOCK_EXCHANGE?$AA@ DB 'BLOCK_EXCHANGE', 00H ; `string'
CONST	ENDS
;	COMDAT ??_C@_0M@KFDBGBIL@BLOCK_PARTY?$AA@
CONST	SEGMENT
??_C@_0M@KFDBGBIL@BLOCK_PARTY?$AA@ DB 'BLOCK_PARTY', 00H ; `string'
CONST	ENDS
;	COMDAT ??_C@_0O@LBDADKLE@PK_MODE_GUILD?$AA@
CONST	SEGMENT
??_C@_0O@LBDADKLE@PK_MODE_GUILD?$AA@ DB 'PK_MODE_GUILD', 00H ; `string'
CONST	ENDS
;	COMDAT ??_C@_0BA@OLCDKGDA@PK_MODE_MAX_NUM?$AA@
CONST	SEGMENT
??_C@_0BA@OLCDKGDA@PK_MODE_MAX_NUM?$AA@ DB 'PK_MODE_MAX_NUM', 00H ; `string'
CONST	ENDS
;	COMDAT ??_C@_0N@DCANEGJG@PK_MODE_FREE?$AA@
CONST	SEGMENT
??_C@_0N@DCANEGJG@PK_MODE_FREE?$AA@ DB 'PK_MODE_FREE', 00H ; `string'
CONST	ENDS
;	COMDAT ??_C@_0BA@GHACPGHA@PK_MODE_PROTECT?$AA@
CONST	SEGMENT
??_C@_0BA@GHACPGHA@PK_MODE_PROTECT?$AA@ DB 'PK_MODE_PROTECT', 00H ; `string'
CONST	ENDS
;	COMDAT ??_C@_0O@BIPAMBIG@PK_MODE_PEACE?$AA@
CONST	SEGMENT
??_C@_0O@BIPAMBIG@PK_MODE_PEACE?$AA@ DB 'PK_MODE_PEACE', 00H ; `string'
CONST	ENDS
;	COMDAT ??_C@_0BA@HNNGLCOB@PK_MODE_REVENGE?$AA@
CONST	SEGMENT
??_C@_0BA@HNNGLCOB@PK_MODE_REVENGE?$AA@ DB 'PK_MODE_REVENGE', 00H ; `string'
CONST	ENDS
;	COMDAT ??_C@_0BD@HOAGGFNA@SKILL_INDEX_RIDING?$AA@
CONST	SEGMENT
??_C@_0BD@HOAGGFNA@SKILL_INDEX_RIDING?$AA@ DB 'SKILL_INDEX_RIDING', 00H ; `string'
CONST	ENDS
;	COMDAT ??_C@_0BD@POBHIINM@SKILL_INDEX_SUMMON?$AA@
CONST	SEGMENT
??_C@_0BD@POBHIINM@SKILL_INDEX_SUMMON?$AA@ DB 'SKILL_INDEX_SUMMON', 00H ; `string'
CONST	ENDS
;	COMDAT ??_C@_0BG@FNIIDGCI@SKILL_INDEX_LANGUAGE3?$AA@
CONST	SEGMENT
??_C@_0BG@FNIIDGCI@SKILL_INDEX_LANGUAGE3?$AA@ DB 'SKILL_INDEX_LANGUAGE3', 00H ; `string'
CONST	ENDS
;	COMDAT ??_C@_0BG@DMEIDEKO@SKILL_INDEX_POLYMORPH?$AA@
CONST	SEGMENT
??_C@_0BG@DMEIDEKO@SKILL_INDEX_POLYMORPH?$AA@ DB 'SKILL_INDEX_POLYMORPH', 00H ; `string'
CONST	ENDS
;	COMDAT ??_C@_0BG@GPLOFEKK@SKILL_INDEX_LANGUAGE1?$AA@
CONST	SEGMENT
??_C@_0BG@GPLOFEKK@SKILL_INDEX_LANGUAGE1?$AA@ DB 'SKILL_INDEX_LANGUAGE1', 00H ; `string'
CONST	ENDS
;	COMDAT ??_C@_0BG@EEJDAHGJ@SKILL_INDEX_LANGUAGE2?$AA@
CONST	SEGMENT
??_C@_0BG@EEJDAHGJ@SKILL_INDEX_LANGUAGE2?$AA@ DB 'SKILL_INDEX_LANGUAGE2', 00H ; `string'
CONST	ENDS
;	COMDAT ??_C@_0BD@IBJDJMEL@SKILL_INDEX_MAKING?$AA@
CONST	SEGMENT
??_C@_0BD@IBJDJMEL@SKILL_INDEX_MAKING?$AA@ DB 'SKILL_INDEX_MAKING', 00H ; `string'
CONST	ENDS
;	COMDAT ??_C@_0BC@HACNAMIK@SKILL_INDEX_COMBO?$AA@
CONST	SEGMENT
??_C@_0BC@HACNAMIK@SKILL_INDEX_COMBO?$AA@ DB 'SKILL_INDEX_COMBO', 00H ; `string'
CONST	ENDS
;	COMDAT ??_C@_0BE@HANBCKAH@SKILL_INDEX_FISHING?$AA@
CONST	SEGMENT
??_C@_0BE@HANBCKAH@SKILL_INDEX_FISHING?$AA@ DB 'SKILL_INDEX_FISHING', 00H ; `string'
CONST	ENDS
;	COMDAT ??_C@_0BD@KFCAJBFG@SKILL_INDEX_MINING?$AA@
CONST	SEGMENT
??_C@_0BD@KFCAJBFG@SKILL_INDEX_MINING?$AA@ DB 'SKILL_INDEX_MINING', 00H ; `string'
CONST	ENDS
;	COMDAT ??_C@_0BE@KCLJFDCO@PARTY_STATE_MAX_NUM?$AA@
CONST	SEGMENT
??_C@_0BE@KCLJFDCO@PARTY_STATE_MAX_NUM?$AA@ DB 'PARTY_STATE_MAX_NUM', 00H ; `string'
CONST	ENDS
;	COMDAT ??_C@_0BE@MNBFKLPI@SKILL_INDEX_TONGSOL?$AA@
CONST	SEGMENT
??_C@_0BE@MNBFKLPI@SKILL_INDEX_TONGSOL?$AA@ DB 'SKILL_INDEX_TONGSOL', 00H ; `string'
CONST	ENDS
;	COMDAT ??_C@_0BG@LCNEBE@PARTY_STATE_BERSERKER?$AA@
CONST	SEGMENT
??_C@_0BG@LCNEBE@PARTY_STATE_BERSERKER?$AA@ DB 'PARTY_STATE_BERSERKER', 00H ; `string'
CONST	ENDS
;	COMDAT ??_C@_0BF@PAKJEMH@PARTY_STATE_DEFENDER?$AA@
CONST	SEGMENT
??_C@_0BF@PAKJEMH@PARTY_STATE_DEFENDER?$AA@ DB 'PARTY_STATE_DEFENDER', 00H ; `string'
CONST	ENDS
;	COMDAT ??_C@_0BD@JJFBJLK@PARTY_STATE_BUFFER?$AA@
CONST	SEGMENT
??_C@_0BD@JJFBJLK@PARTY_STATE_BUFFER?$AA@ DB 'PARTY_STATE_BUFFER', 00H ; `string'
CONST	ENDS
;	COMDAT ??_C@_0BJ@EIPCPJKC@PARTY_STATE_SKILL_MASTER?$AA@
CONST	SEGMENT
??_C@_0BJ@EIPCPJKC@PARTY_STATE_SKILL_MASTER?$AA@ DB 'PARTY_STATE_SKILL_MA'
	DB	'STER', 00H					; `string'
CONST	ENDS
;	COMDAT ??_C@_0BF@DOKPPLCL@PARTY_STATE_ATTACKER?$AA@
CONST	SEGMENT
??_C@_0BF@DOKPPLCL@PARTY_STATE_ATTACKER?$AA@ DB 'PARTY_STATE_ATTACKER', 00H ; `string'
CONST	ENDS
;	COMDAT ??_C@_0BD@FHMGGDNP@PARTY_STATE_TANKER?$AA@
CONST	SEGMENT
??_C@_0BD@FHMGGDNP@PARTY_STATE_TANKER?$AA@ DB 'PARTY_STATE_TANKER', 00H ; `string'
CONST	ENDS
;	COMDAT ??_C@_0BD@PNFBHDHD@PARTY_STATE_NORMAL?$AA@
CONST	SEGMENT
??_C@_0BD@PNFBHDHD@PARTY_STATE_NORMAL?$AA@ DB 'PARTY_STATE_NORMAL', 00H ; `string'
CONST	ENDS
;	COMDAT ??_C@_0BD@ECFFHEOH@PARTY_STATE_LEADER?$AA@
CONST	SEGMENT
??_C@_0BD@ECFFHEOH@PARTY_STATE_LEADER?$AA@ DB 'PARTY_STATE_LEADER', 00H ; `string'
CONST	ENDS
;	COMDAT ??_C@_0BC@HGBPKPKG@DETACH_METIN_CANT?$AA@
CONST	SEGMENT
??_C@_0BC@HGBPKPKG@DETACH_METIN_CANT?$AA@ DB 'DETACH_METIN_CANT', 00H ; `string'
CONST	ENDS
;	COMDAT ??_C@_0BA@IACJJMNA@DETACH_METIN_OK?$AA@
CONST	SEGMENT
??_C@_0BA@IACJJMNA@DETACH_METIN_OK?$AA@ DB 'DETACH_METIN_OK', 00H ; `string'
CONST	ENDS
;	COMDAT ??_C@_0CD@JNOPKOFJ@ATTACH_METIN_NOT_EXIST_GOLD_SOCK@
CONST	SEGMENT
??_C@_0CD@JNOPKOFJ@ATTACH_METIN_NOT_EXIST_GOLD_SOCK@ DB 'ATTACH_METIN_NOT'
	DB	'_EXIST_GOLD_SOCKET', 00H			; `string'
CONST	ENDS
;	COMDAT ??_C@_0CG@BCIFDNEM@ATTACH_METIN_CANT_ATTACH_TO_EQUI@
CONST	SEGMENT
??_C@_0CG@BCIFDNEM@ATTACH_METIN_CANT_ATTACH_TO_EQUI@ DB 'ATTACH_METIN_CAN'
	DB	'T_ATTACH_TO_EQUIPMENT', 00H			; `string'
CONST	ENDS
;	COMDAT ??_C@_0CA@OFAKGLFM@ATTACH_METIN_NOT_MATCHABLE_ITEM?$AA@
CONST	SEGMENT
??_C@_0CA@OFAKGLFM@ATTACH_METIN_NOT_MATCHABLE_ITEM?$AA@ DB 'ATTACH_METIN_'
	DB	'NOT_MATCHABLE_ITEM', 00H			; `string'
CONST	ENDS
;	COMDAT ??_C@_0CB@MAILDNNI@ATTACH_METIN_NO_MATCHABLE_SOCKET@
CONST	SEGMENT
??_C@_0CB@MAILDNNI@ATTACH_METIN_NO_MATCHABLE_SOCKET@ DB 'ATTACH_METIN_NO_'
	DB	'MATCHABLE_SOCKET', 00H			; `string'
CONST	ENDS
;	COMDAT ??_C@_0BC@CBCJMHP@ATTACH_METIN_CANT?$AA@
CONST	SEGMENT
??_C@_0BC@CBCJMHP@ATTACH_METIN_CANT?$AA@ DB 'ATTACH_METIN_CANT', 00H ; `string'
CONST	ENDS
;	COMDAT ??_C@_0BA@HOJAFGB@ATTACH_METIN_OK?$AA@
CONST	SEGMENT
??_C@_0BA@HOJAFGB@ATTACH_METIN_OK?$AA@ DB 'ATTACH_METIN_OK', 00H ; `string'
CONST	ENDS
;	COMDAT ??_C@_0CG@LFLLDFCE@REFINE_CANT_REFINE_METIN_TO_EQUI@
CONST	SEGMENT
??_C@_0CG@LFLLDFCE@REFINE_CANT_REFINE_METIN_TO_EQUI@ DB 'REFINE_CANT_REFI'
	DB	'NE_METIN_TO_EQUIPMENT', 00H			; `string'
CONST	ENDS
;	COMDAT ??_C@_0BH@OENPPLJB@REFINE_CANT_REFINE_ROD?$AA@
CONST	SEGMENT
??_C@_0BH@OENPPLJB@REFINE_CANT_REFINE_ROD?$AA@ DB 'REFINE_CANT_REFINE_ROD'
	DB	00H						; `string'
CONST	ENDS
;	COMDAT ??_C@_0BN@JPDLJDPD@REFINE_CANT_MAKE_SOCKET_ITEM?$AA@
CONST	SEGMENT
??_C@_0BN@JPDLJDPD@REFINE_CANT_MAKE_SOCKET_ITEM?$AA@ DB 'REFINE_CANT_MAKE'
	DB	'_SOCKET_ITEM', 00H				; `string'
CONST	ENDS
;	COMDAT ??_C@_0BL@EILCCEPE@REFINE_NOT_NEXT_GRADE_ITEM?$AA@
CONST	SEGMENT
??_C@_0BL@EILCCEPE@REFINE_NOT_NEXT_GRADE_ITEM?$AA@ DB 'REFINE_NOT_NEXT_GR'
	DB	'ADE_ITEM', 00H				; `string'
CONST	ENDS
;	COMDAT ??_C@_0CA@CPLGFHBD@REFINE_ALREADY_MAX_SOCKET_COUNT?$AA@
CONST	SEGMENT
??_C@_0CA@CPLGFHBD@REFINE_ALREADY_MAX_SOCKET_COUNT?$AA@ DB 'REFINE_ALREAD'
	DB	'Y_MAX_SOCKET_COUNT', 00H			; `string'
CONST	ENDS
;	COMDAT ??_C@_0BN@FMBLMMOD@REFINE_NEED_MORE_GOOD_SCROLL?$AA@
CONST	SEGMENT
??_C@_0BN@FMBLMMOD@REFINE_NEED_MORE_GOOD_SCROLL?$AA@ DB 'REFINE_NEED_MORE'
	DB	'_GOOD_SCROLL', 00H				; `string'
CONST	ENDS
;	COMDAT ??_C@_0M@FNDEJPGN@REFINE_CANT?$AA@
CONST	SEGMENT
??_C@_0M@FNDEJPGN@REFINE_CANT?$AA@ DB 'REFINE_CANT', 00H ; `string'
CONST	ENDS
;	COMDAT ??_C@_09FFJEIDJG@REFINE_OK?$AA@
CONST	SEGMENT
??_C@_09FFJEIDJG@REFINE_OK?$AA@ DB 'REFINE_OK', 00H	; `string'
CONST	ENDS
;	COMDAT ??_C@_0BF@HOKBLOCN@METIN_SOCKET_MAX_NUM?$AA@
CONST	SEGMENT
??_C@_0BF@HOKBLOCN@METIN_SOCKET_MAX_NUM?$AA@ DB 'METIN_SOCKET_MAX_NUM', 00H ; `string'
CONST	ENDS
;	COMDAT ??_C@_0BH@BPEONNLD@ATTRIBUTE_SLOT_MAX_NUM?$AA@
CONST	SEGMENT
??_C@_0BH@BPEONNLD@ATTRIBUTE_SLOT_MAX_NUM?$AA@ DB 'ATTRIBUTE_SLOT_MAX_NUM'
	DB	00H						; `string'
CONST	ENDS
;	COMDAT ??_C@_0BJ@PHGNNMMA@METIN_SOCKET_TYPE_SILVER?$AA@
CONST	SEGMENT
??_C@_0BJ@PHGNNMMA@METIN_SOCKET_TYPE_SILVER?$AA@ DB 'METIN_SOCKET_TYPE_SI'
	DB	'LVER', 00H					; `string'
CONST	ENDS
;	COMDAT ??_C@_0BH@EFCNALEJ@METIN_SOCKET_TYPE_GOLD?$AA@
CONST	SEGMENT
??_C@_0BH@EFCNALEJ@METIN_SOCKET_TYPE_GOLD?$AA@ DB 'METIN_SOCKET_TYPE_GOLD'
	DB	00H						; `string'
CONST	ENDS
;	COMDAT ??_C@_0M@CHLINENA@EFFECT_PICK?$AA@
CONST	SEGMENT
??_C@_0M@CHLINENA@EFFECT_PICK?$AA@ DB 'EFFECT_PICK', 00H ; `string'
CONST	ENDS
;	COMDAT ??_C@_0BH@FCKCIMBH@METIN_SOCKET_TYPE_NONE?$AA@
CONST	SEGMENT
??_C@_0BH@FCKCIMBH@METIN_SOCKET_TYPE_NONE?$AA@ DB 'METIN_SOCKET_TYPE_NONE'
	DB	00H						; `string'
CONST	ENDS
;	COMDAT ??_C@_0L@HFAEBHHD@ITEM_MONEY?$AA@
CONST	SEGMENT
??_C@_0L@HFAEBHHD@ITEM_MONEY?$AA@ DB 'ITEM_MONEY', 00H	; `string'
CONST	ENDS
;	COMDAT ??_C@_0BB@IOEKBHAE@SKILL_SLOT_COUNT?$AA@
CONST	SEGMENT
??_C@_0BB@IOEKBHAE@SKILL_SLOT_COUNT?$AA@ DB 'SKILL_SLOT_COUNT', 00H ; `string'
CONST	ENDS
;	COMDAT ??_C@_0BG@FHEDCCNN@DRAGON_SOUL_INVENTORY?$AA@
CONST	SEGMENT
??_C@_0BG@FHEDCCNN@DRAGON_SOUL_INVENTORY?$AA@ DB 'DRAGON_SOUL_INVENTORY', 00H ; `string'
CONST	ENDS
;	COMDAT ??_C@_06GKBINIEJ@GROUND?$AA@
CONST	SEGMENT
??_C@_06GKBINIEJ@GROUND?$AA@ DB 'GROUND', 00H		; `string'
CONST	ENDS
;	COMDAT ??_C@_07NCKDBJCB@SAFEBOX?$AA@
CONST	SEGMENT
??_C@_07NCKDBJCB@SAFEBOX?$AA@ DB 'SAFEBOX', 00H		; `string'
CONST	ENDS
;	COMDAT ??_C@_04JPFKNPOP@MALL?$AA@
CONST	SEGMENT
??_C@_04JPFKNPOP@MALL?$AA@ DB 'MALL', 00H		; `string'
CONST	ENDS
;	COMDAT ??_C@_09NCAHJFFG@INVENTORY?$AA@
CONST	SEGMENT
??_C@_09NCAHJFFG@INVENTORY?$AA@ DB 'INVENTORY', 00H	; `string'
CONST	ENDS
;	COMDAT ??_C@_09GJGOMHMK@EQUIPMENT?$AA@
CONST	SEGMENT
??_C@_09GJGOMHMK@EQUIPMENT?$AA@ DB 'EQUIPMENT', 00H	; `string'
CONST	ENDS
;	COMDAT ??_C@_0CA@FHKIPOOP@SLOT_TYPE_DRAGON_SOUL_INVENTORY?$AA@
CONST	SEGMENT
??_C@_0CA@FHKIPOOP@SLOT_TYPE_DRAGON_SOUL_INVENTORY?$AA@ DB 'SLOT_TYPE_DRA'
	DB	'GON_SOUL_INVENTORY', 00H			; `string'
CONST	ENDS
;	COMDAT ??_C@_0BA@NKAFFIGF@RESERVED_WINDOW?$AA@
CONST	SEGMENT
??_C@_0BA@NKAFFIGF@RESERVED_WINDOW?$AA@ DB 'RESERVED_WINDOW', 00H ; `string'
CONST	ENDS
;	COMDAT ??_C@_0P@OEAGANKI@SLOT_TYPE_MALL?$AA@
CONST	SEGMENT
??_C@_0P@OEAGANKI@SLOT_TYPE_MALL?$AA@ DB 'SLOT_TYPE_MALL', 00H ; `string'
CONST	ENDS
;	COMDAT ??_C@_0BC@LKMHLHKJ@SLOT_TYPE_EMOTION?$AA@
CONST	SEGMENT
??_C@_0BC@LKMHLHKJ@SLOT_TYPE_EMOTION?$AA@ DB 'SLOT_TYPE_EMOTION', 00H ; `string'
CONST	ENDS
;	COMDAT ??_C@_0BC@HGKFDIFN@SLOT_TYPE_SAFEBOX?$AA@
CONST	SEGMENT
??_C@_0BC@HGKFDIFN@SLOT_TYPE_SAFEBOX?$AA@ DB 'SLOT_TYPE_SAFEBOX', 00H ; `string'
CONST	ENDS
;	COMDAT ??_C@_0BH@MJAEADNE@SLOT_TYPE_PRIVATE_SHOP?$AA@
CONST	SEGMENT
??_C@_0BH@MJAEADNE@SLOT_TYPE_PRIVATE_SHOP?$AA@ DB 'SLOT_TYPE_PRIVATE_SHOP'
	DB	00H						; `string'
CONST	ENDS
;	COMDAT ??_C@_0BK@KJHLAGBH@SLOT_TYPE_EXCHANGE_TARGET?$AA@
CONST	SEGMENT
??_C@_0BK@KJHLAGBH@SLOT_TYPE_EXCHANGE_TARGET?$AA@ DB 'SLOT_TYPE_EXCHANGE_'
	DB	'TARGET', 00H				; `string'
CONST	ENDS
;	COMDAT ??_C@_0BF@CPPFMLHN@SLOT_TYPE_QUICK_SLOT?$AA@
CONST	SEGMENT
??_C@_0BF@CPPFMLHN@SLOT_TYPE_QUICK_SLOT?$AA@ DB 'SLOT_TYPE_QUICK_SLOT', 00H ; `string'
CONST	ENDS
;	COMDAT ??_C@_0P@KCOPIIMF@SLOT_TYPE_SHOP?$AA@
CONST	SEGMENT
??_C@_0P@KCOPIIMF@SLOT_TYPE_SHOP?$AA@ DB 'SLOT_TYPE_SHOP', 00H ; `string'
CONST	ENDS
;	COMDAT ??_C@_0BJ@DBNHPJKE@SLOT_TYPE_EXCHANGE_OWNER?$AA@
CONST	SEGMENT
??_C@_0BJ@DBNHPJKE@SLOT_TYPE_EXCHANGE_OWNER?$AA@ DB 'SLOT_TYPE_EXCHANGE_O'
	DB	'WNER', 00H					; `string'
CONST	ENDS
;	COMDAT ??_C@_0BE@BNOEBHPE@SLOT_TYPE_INVENTORY?$AA@
CONST	SEGMENT
??_C@_0BE@BNOEBHPE@SLOT_TYPE_INVENTORY?$AA@ DB 'SLOT_TYPE_INVENTORY', 00H ; `string'
CONST	ENDS
;	COMDAT ??_C@_0BA@MAJHKGKG@SLOT_TYPE_SKILL?$AA@
CONST	SEGMENT
??_C@_0BA@MAJHKGKG@SLOT_TYPE_SKILL?$AA@ DB 'SLOT_TYPE_SKILL', 00H ; `string'
CONST	ENDS
;	COMDAT ??_C@_08OMNIMJHC@MBT_LEFT?$AA@
CONST	SEGMENT
??_C@_08OMNIMJHC@MBT_LEFT?$AA@ DB 'MBT_LEFT', 00H	; `string'
CONST	ENDS
;	COMDAT ??_C@_0P@JBDPGPGM@SLOT_TYPE_NONE?$AA@
CONST	SEGMENT
??_C@_0P@JBDPGPGM@SLOT_TYPE_NONE?$AA@ DB 'SLOT_TYPE_NONE', 00H ; `string'
CONST	ENDS
;	COMDAT ??_C@_09BKODCCAJ@MBS_CLICK?$AA@
CONST	SEGMENT
??_C@_09BKODCCAJ@MBS_CLICK?$AA@ DB 'MBS_CLICK', 00H	; `string'
CONST	ENDS
;	COMDAT ??_C@_09DBJMODBC@MBT_RIGHT?$AA@
CONST	SEGMENT
??_C@_09DBJMODBC@MBT_RIGHT?$AA@ DB 'MBT_RIGHT', 00H	; `string'
CONST	ENDS
;	COMDAT ??_C@_08CIEGLDP@MBF_AUTO?$AA@
CONST	SEGMENT
??_C@_08CIEGLDP@MBF_AUTO?$AA@ DB 'MBF_AUTO', 00H	; `string'
CONST	ENDS
;	COMDAT ??_C@_09JEJKPPEO@MBS_PRESS?$AA@
CONST	SEGMENT
??_C@_09JEJKPPEO@MBS_PRESS?$AA@ DB 'MBS_PRESS', 00H	; `string'
CONST	ENDS
;	COMDAT ??_C@_09FAENJFL@MBF_SMART?$AA@
CONST	SEGMENT
??_C@_09FAENJFL@MBF_SMART?$AA@ DB 'MBF_SMART', 00H	; `string'
CONST	ENDS
;	COMDAT ??_C@_08BLLANCB@MBF_MOVE?$AA@
CONST	SEGMENT
??_C@_08BLLANCB@MBF_MOVE?$AA@ DB 'MBF_MOVE', 00H	; `string'
CONST	ENDS
;	COMDAT ??_C@_0L@MIGMJBKJ@MBF_ATTACK?$AA@
CONST	SEGMENT
??_C@_0L@MIGMJBKJ@MBF_ATTACK?$AA@ DB 'MBF_ATTACK', 00H	; `string'
CONST	ENDS
;	COMDAT ??_C@_0L@JHBFAMB@MBF_CAMERA?$AA@
CONST	SEGMENT
??_C@_0L@JHBFAMB@MBF_CAMERA?$AA@ DB 'MBF_CAMERA', 00H	; `string'
CONST	ENDS
;	COMDAT ??_C@_0BF@MADFLPAE@EQUIPMENT_PAGE_COUNT?$AA@
CONST	SEGMENT
??_C@_0BF@MADFLPAE@EQUIPMENT_PAGE_COUNT?$AA@ DB 'EQUIPMENT_PAGE_COUNT', 00H ; `string'
CONST	ENDS
;	COMDAT ??_C@_09NLFDBCDH@MBF_SKILL?$AA@
CONST	SEGMENT
??_C@_09NLFDBCDH@MBF_SKILL?$AA@ DB 'MBF_SKILL', 00H	; `string'
CONST	ENDS
;	COMDAT ??_C@_0BF@LCFAAJPA@INVENTORY_SLOT_COUNT?$AA@
CONST	SEGMENT
??_C@_0BF@LCFAAJPA@INVENTORY_SLOT_COUNT?$AA@ DB 'INVENTORY_SLOT_COUNT', 00H ; `string'
CONST	ENDS
;	COMDAT ??_C@_0BF@HJEBPPMM@EQUIPMENT_SLOT_START?$AA@
CONST	SEGMENT
??_C@_0BF@HJEBPPMM@EQUIPMENT_SLOT_START?$AA@ DB 'EQUIPMENT_SLOT_START', 00H ; `string'
CONST	ENDS
;	COMDAT ??_C@_0BE@CEBDMLGH@INVENTORY_PAGE_SIZE?$AA@
CONST	SEGMENT
??_C@_0BE@CEBDMLGH@INVENTORY_PAGE_SIZE?$AA@ DB 'INVENTORY_PAGE_SIZE', 00H ; `string'
CONST	ENDS
;	COMDAT ??_C@_0BF@NFIFHHOM@INVENTORY_PAGE_COUNT?$AA@
CONST	SEGMENT
??_C@_0BF@NFIFHHOM@INVENTORY_PAGE_COUNT?$AA@ DB 'INVENTORY_PAGE_COUNT', 00H ; `string'
CONST	ENDS
;	COMDAT ??_C@_0BA@LCKKFCJM@CATEGORY_ACTIVE?$AA@
CONST	SEGMENT
??_C@_0BA@LCKKFCJM@CATEGORY_ACTIVE?$AA@ DB 'CATEGORY_ACTIVE', 00H ; `string'
CONST	ENDS
;	COMDAT ??_C@_0BB@HCMEALJK@CATEGORY_PASSIVE?$AA@
CONST	SEGMENT
??_C@_0BB@HCMEALJK@CATEGORY_PASSIVE?$AA@ DB 'CATEGORY_PASSIVE', 00H ; `string'
CONST	ENDS
;	COMDAT ??_C@_0BJ@CFOEIGCN@SKILL_GRADE_GRAND_MASTER?$AA@
CONST	SEGMENT
??_C@_0BJ@CFOEIGCN@SKILL_GRADE_GRAND_MASTER?$AA@ DB 'SKILL_GRADE_GRAND_MA'
	DB	'STER', 00H					; `string'
CONST	ENDS
;	COMDAT ??_C@_0BL@DCIPLDCA@SKILL_GRADE_PERFECT_MASTER?$AA@
CONST	SEGMENT
??_C@_0BL@DCIPLDCA@SKILL_GRADE_PERFECT_MASTER?$AA@ DB 'SKILL_GRADE_PERFEC'
	DB	'T_MASTER', 00H				; `string'
CONST	ENDS
;	COMDAT ??_C@_0BD@LAKFNFGD@SKILL_GRADE_NORMAL?$AA@
CONST	SEGMENT
??_C@_0BD@LAKFNFGD@SKILL_GRADE_NORMAL?$AA@ DB 'SKILL_GRADE_NORMAL', 00H ; `string'
CONST	ENDS
;	COMDAT ??_C@_0BD@HIHOAICI@SKILL_GRADE_MASTER?$AA@
CONST	SEGMENT
??_C@_0BD@HIHOAICI@SKILL_GRADE_MASTER?$AA@ DB 'SKILL_GRADE_MASTER', 00H ; `string'
CONST	ENDS
;	COMDAT ??_C@_06KOEJHMAL@ENERGY?$AA@
CONST	SEGMENT
??_C@_06KOEJHMAL@ENERGY?$AA@ DB 'ENERGY', 00H		; `string'
CONST	ENDS
;	COMDAT ??_C@_0BA@PIHNCBED@ENERGY_END_TIME?$AA@
CONST	SEGMENT
??_C@_0BA@PIHNCBED@ENERGY_END_TIME?$AA@ DB 'ENERGY_END_TIME', 00H ; `string'
CONST	ENDS
;	COMDAT ??_C@_0BI@BAKJJELL@POINT_PC_BANG_EXP_BONUS?$AA@
CONST	SEGMENT
??_C@_0BI@BAKJJELL@POINT_PC_BANG_EXP_BONUS?$AA@ DB 'POINT_PC_BANG_EXP_BON'
	DB	'US', 00H					; `string'
CONST	ENDS
;	COMDAT ??_C@_0BJ@LFKCHGEO@POINT_PC_BANG_DROP_BONUS?$AA@
CONST	SEGMENT
??_C@_0BJ@LFKCHGEO@POINT_PC_BANG_DROP_BONUS?$AA@ DB 'POINT_PC_BANG_DROP_B'
	DB	'ONUS', 00H					; `string'
CONST	ENDS
;	COMDAT ??_C@_0BJ@LPIAEILC@POINT_SKILL_DEFEND_BONUS?$AA@
CONST	SEGMENT
??_C@_0BJ@LPIAEILC@POINT_SKILL_DEFEND_BONUS?$AA@ DB 'POINT_SKILL_DEFEND_B'
	DB	'ONUS', 00H					; `string'
CONST	ENDS
;	COMDAT ??_C@_0BO@CEPNAEGB@POINT_NORMAL_HIT_DEFEND_BONUS?$AA@
CONST	SEGMENT
??_C@_0BO@CEPNAEGB@POINT_NORMAL_HIT_DEFEND_BONUS?$AA@ DB 'POINT_NORMAL_HI'
	DB	'T_DEFEND_BONUS', 00H			; `string'
CONST	ENDS
;	COMDAT ??_C@_0BJ@PGEFOCDG@POINT_SKILL_DAMAGE_BONUS?$AA@
CONST	SEGMENT
??_C@_0BJ@PGEFOCDG@POINT_SKILL_DAMAGE_BONUS?$AA@ DB 'POINT_SKILL_DAMAGE_B'
	DB	'ONUS', 00H					; `string'
CONST	ENDS
;	COMDAT ??_C@_0BO@GNDIKOOF@POINT_NORMAL_HIT_DAMAGE_BONUS?$AA@
CONST	SEGMENT
??_C@_0BO@GNDIKOOF@POINT_NORMAL_HIT_DAMAGE_BONUS?$AA@ DB 'POINT_NORMAL_HI'
	DB	'T_DAMAGE_BONUS', 00H			; `string'
CONST	ENDS
;	COMDAT ??_C@_0BB@OCODMABI@POINT_MAX_HP_PCT?$AA@
CONST	SEGMENT
??_C@_0BB@OCODMABI@POINT_MAX_HP_PCT?$AA@ DB 'POINT_MAX_HP_PCT', 00H ; `string'
CONST	ENDS
;	COMDAT ??_C@_0BB@IHDKAICM@POINT_MAX_SP_PCT?$AA@
CONST	SEGMENT
??_C@_0BB@IHDKAICM@POINT_MAX_SP_PCT?$AA@ DB 'POINT_MAX_SP_PCT', 00H ; `string'
CONST	ENDS
;	COMDAT ??_C@_0BF@FCMHLHC@POINT_MALL_ITEMBONUS?$AA@
CONST	SEGMENT
??_C@_0BF@FCMHLHC@POINT_MALL_ITEMBONUS?$AA@ DB 'POINT_MALL_ITEMBONUS', 00H ; `string'
CONST	ENDS
;	COMDAT ??_C@_0BF@LPKHMJJF@POINT_MALL_GOLDBONUS?$AA@
CONST	SEGMENT
??_C@_0BF@LPKHMJJF@POINT_MALL_GOLDBONUS?$AA@ DB 'POINT_MALL_GOLDBONUS', 00H ; `string'
CONST	ENDS
;	COMDAT ??_C@_0BE@FJKLFHOA@POINT_MALL_DEFBONUS?$AA@
CONST	SEGMENT
??_C@_0BE@FJKLFHOA@POINT_MALL_DEFBONUS?$AA@ DB 'POINT_MALL_DEFBONUS', 00H ; `string'
CONST	ENDS
;	COMDAT ??_C@_0BE@KNGAMOKN@POINT_MALL_EXPBONUS?$AA@
CONST	SEGMENT
??_C@_0BE@KNGAMOKN@POINT_MALL_EXPBONUS?$AA@ DB 'POINT_MALL_EXPBONUS', 00H ; `string'
CONST	ENDS
;	COMDAT ??_C@_0BE@BGNEFMNJ@POINT_PENETRATE_PCT?$AA@
CONST	SEGMENT
??_C@_0BE@BGNEFMNJ@POINT_PENETRATE_PCT?$AA@ DB 'POINT_PENETRATE_PCT', 00H ; `string'
CONST	ENDS
;	COMDAT ??_C@_0BE@FDGMKOPN@POINT_MALL_ATTBONUS?$AA@
CONST	SEGMENT
??_C@_0BE@FDGMKOPN@POINT_MALL_ATTBONUS?$AA@ DB 'POINT_MALL_ATTBONUS', 00H ; `string'
CONST	ENDS
;	COMDAT ??_C@_07MEMMKJPK@MAX_NUM?$AA@
CONST	SEGMENT
??_C@_07MEMMKJPK@MAX_NUM?$AA@ DB 'MAX_NUM', 00H		; `string'
CONST	ENDS
;	COMDAT ??_C@_0BD@CPEECKKP@POINT_CRITICAL_PCT?$AA@
CONST	SEGMENT
??_C@_0BD@CPEECKKP@POINT_CRITICAL_PCT?$AA@ DB 'POINT_CRITICAL_PCT', 00H ; `string'
CONST	ENDS
;	COMDAT ??_C@_0M@FGICENAO@SP_RECOVERY?$AA@
CONST	SEGMENT
??_C@_0M@FGICENAO@SP_RECOVERY?$AA@ DB 'SP_RECOVERY', 00H ; `string'
CONST	ENDS
;	COMDAT ??_C@_0P@GAAMLPFK@ATTACKER_BONUS?$AA@
CONST	SEGMENT
??_C@_0P@GAAMLPFK@ATTACKER_BONUS?$AA@ DB 'ATTACKER_BONUS', 00H ; `string'
CONST	ENDS
;	COMDAT ??_C@_0N@KHDDEEFG@BOW_DISTANCE?$AA@
CONST	SEGMENT
??_C@_0N@KHDDEEFG@BOW_DISTANCE?$AA@ DB 'BOW_DISTANCE', 00H ; `string'
CONST	ENDS
;	COMDAT ??_C@_0M@CLAIAEPM@HP_RECOVERY?$AA@
CONST	SEGMENT
??_C@_0M@CLAIAEPM@HP_RECOVERY?$AA@ DB 'HP_RECOVERY', 00H ; `string'
CONST	ENDS
;	COMDAT ??_C@_0M@HAFIBGFL@SKILL_HORSE?$AA@
CONST	SEGMENT
??_C@_0M@HAFIBGFL@SKILL_HORSE?$AA@ DB 'SKILL_HORSE', 00H ; `string'
CONST	ENDS
;	COMDAT ??_C@_08CKIIBBI@PLAYTIME?$AA@
CONST	SEGMENT
??_C@_08CKIIBBI@PLAYTIME?$AA@ DB 'PLAYTIME', 00H	; `string'
CONST	ENDS
;	COMDAT ??_C@_0O@JLNOPGFK@SKILL_SUPPORT?$AA@
CONST	SEGMENT
??_C@_0O@JLNOPGFK@SKILL_SUPPORT?$AA@ DB 'SKILL_SUPPORT', 00H ; `string'
CONST	ENDS
;	COMDAT ??_C@_0N@DNBJLBPA@SKILL_ACTIVE?$AA@
CONST	SEGMENT
??_C@_0N@DNBJLBPA@SKILL_ACTIVE?$AA@ DB 'SKILL_ACTIVE', 00H ; `string'
CONST	ENDS
;	COMDAT ??_C@_04KNIOFKKL@STAT?$AA@
CONST	SEGMENT
??_C@_04KNIOFKKL@STAT?$AA@ DB 'STAT', 00H		; `string'
CONST	ENDS
;	COMDAT ??_C@_0O@DGEPJFAK@SKILL_PASSIVE?$AA@
CONST	SEGMENT
??_C@_0O@DGEPJFAK@SKILL_PASSIVE?$AA@ DB 'SKILL_PASSIVE', 00H ; `string'
CONST	ENDS
;	COMDAT ??_C@_07KGCDIDGL@MAG_DEF?$AA@
CONST	SEGMENT
??_C@_07KGCDIDGL@MAG_DEF?$AA@ DB 'MAG_DEF', 00H		; `string'
CONST	ENDS
;	COMDAT ??_C@_0N@JIFCAIPA@EMPIRE_POINT?$AA@
CONST	SEGMENT
??_C@_0N@JIFCAIPA@EMPIRE_POINT?$AA@ DB 'EMPIRE_POINT', 00H ; `string'
CONST	ENDS
;	COMDAT ??_C@_0O@IOLIEEIE@CASTING_SPEED?$AA@
CONST	SEGMENT
??_C@_0O@IOLIEEIE@CASTING_SPEED?$AA@ DB 'CASTING_SPEED', 00H ; `string'
CONST	ENDS
;	COMDAT ??_C@_07PEONMKMN@MAG_ATT?$AA@
CONST	SEGMENT
??_C@_07PEONMKMN@MAG_ATT?$AA@ DB 'MAG_ATT', 00H		; `string'
CONST	ENDS
;	COMDAT ??_C@_09KMPFCDFE@DEF_GRADE?$AA@
CONST	SEGMENT
??_C@_09KMPFCDFE@DEF_GRADE?$AA@ DB 'DEF_GRADE', 00H	; `string'
CONST	ENDS
;	COMDAT ??_C@_09DNFHINBC@DEF_BONUS?$AA@
CONST	SEGMENT
??_C@_09DNFHINBC@DEF_BONUS?$AA@ DB 'DEF_BONUS', 00H	; `string'
CONST	ENDS
;	COMDAT ??_C@_0L@IPHIKIMB@EVADE_RATE?$AA@
CONST	SEGMENT
??_C@_0L@IPHIKIMB@EVADE_RATE?$AA@ DB 'EVADE_RATE', 00H	; `string'
CONST	ENDS
;	COMDAT ??_C@_0N@KGGLAJKM@MOVING_SPEED?$AA@
CONST	SEGMENT
??_C@_0N@KGGLAJKM@MOVING_SPEED?$AA@ DB 'MOVING_SPEED', 00H ; `string'
CONST	ENDS
;	COMDAT ??_C@_09LKMFFHLI@ATT_SPEED?$AA@
CONST	SEGMENT
??_C@_09LKMFFHLI@ATT_SPEED?$AA@ DB 'ATT_SPEED', 00H	; `string'
CONST	ENDS
;	COMDAT ??_C@_09FOFLCGDC@ATT_BONUS?$AA@
CONST	SEGMENT
??_C@_09FOFLCGDC@ATT_BONUS?$AA@ DB 'ATT_BONUS', 00H	; `string'
CONST	ENDS
;	COMDAT ??_C@_0O@CJNCLCGL@MIN_MAGIC_WEP?$AA@
CONST	SEGMENT
??_C@_0O@CJNCLCGL@MIN_MAGIC_WEP?$AA@ DB 'MIN_MAGIC_WEP', 00H ; `string'
CONST	ENDS
;	COMDAT ??_C@_0O@JAPECJBK@MAX_MAGIC_WEP?$AA@
CONST	SEGMENT
??_C@_0O@JAPECJBK@MAX_MAGIC_WEP?$AA@ DB 'MAX_MAGIC_WEP', 00H ; `string'
CONST	ENDS
;	COMDAT ??_C@_07PNODGJJO@ATT_MIN?$AA@
CONST	SEGMENT
??_C@_07PNODGJJO@ATT_MIN?$AA@ DB 'ATT_MIN', 00H		; `string'
CONST	ENDS
;	COMDAT ??_C@_07OPGIINPB@ATT_MAX?$AA@
CONST	SEGMENT
??_C@_07OPGIINPB@ATT_MAX?$AA@ DB 'ATT_MAX', 00H		; `string'
CONST	ENDS
;	COMDAT ??_C@_02NMFFPMLH@IQ?$AA@
CONST	SEGMENT
??_C@_02NMFFPMLH@IQ?$AA@ DB 'IQ', 00H			; `string'
CONST	ENDS
;	COMDAT ??_C@_09DIGJAPIG@ATT_POWER?$AA@
CONST	SEGMENT
??_C@_09DIGJAPIG@ATT_POWER?$AA@ DB 'ATT_POWER', 00H	; `string'
CONST	ENDS
;	COMDAT ??_C@_02KAOAGCMF@HT?$AA@
CONST	SEGMENT
??_C@_02KAOAGCMF@HT?$AA@ DB 'HT', 00H			; `string'
CONST	ENDS
;	COMDAT ??_C@_02FEPNEKN@DX?$AA@
CONST	SEGMENT
??_C@_02FEPNEKN@DX?$AA@ DB 'DX', 00H			; `string'
CONST	ENDS
;	COMDAT ??_C@_03BIHMGKIG@ELK?$AA@
CONST	SEGMENT
??_C@_03BIHMGKIG@ELK?$AA@ DB 'ELK', 00H			; `string'
CONST	ENDS
;	COMDAT ??_C@_02LAJDCOFE@ST?$AA@
CONST	SEGMENT
??_C@_02LAJDCOFE@ST?$AA@ DB 'ST', 00H			; `string'
CONST	ENDS
;	COMDAT ??_C@_07IHPDJFBP@STAMINA?$AA@
CONST	SEGMENT
??_C@_07IHPDJFBP@STAMINA?$AA@ DB 'STAMINA', 00H		; `string'
CONST	ENDS
;	COMDAT ??_C@_0M@CHCGLEDD@MAX_STAMINA?$AA@
CONST	SEGMENT
??_C@_0M@CHCGLEDD@MAX_STAMINA?$AA@ DB 'MAX_STAMINA', 00H ; `string'
CONST	ENDS
;	COMDAT ??_C@_02NEPPOLFA@SP?$AA@
CONST	SEGMENT
??_C@_02NEPPOLFA@SP?$AA@ DB 'SP', 00H			; `string'
CONST	ENDS
;	COMDAT ??_C@_06MMAHLLLC@MAX_SP?$AA@
CONST	SEGMENT
??_C@_06MMAHLLLC@MAX_SP?$AA@ DB 'MAX_SP', 00H		; `string'
CONST	ENDS
;	COMDAT ??_C@_02MEIMKHMB@HP?$AA@
CONST	SEGMENT
??_C@_02MEIMKHMB@HP?$AA@ DB 'HP', 00H			; `string'
CONST	ENDS
;	COMDAT ??_C@_06NMHEPHCD@MAX_HP?$AA@
CONST	SEGMENT
??_C@_06NMHEPHCD@MAX_HP?$AA@ DB 'MAX_HP', 00H		; `string'
CONST	ENDS
;	COMDAT ??_C@_03KKGFKKLA@EXP?$AA@
CONST	SEGMENT
??_C@_03KKGFKKLA@EXP?$AA@ DB 'EXP', 00H			; `string'
CONST	ENDS
;	COMDAT ??_C@_08CHGDMADF@NEXT_EXP?$AA@
CONST	SEGMENT
??_C@_08CHGDMADF@NEXT_EXP?$AA@ DB 'NEXT_EXP', 00H	; `string'
CONST	ENDS
;	COMDAT ??_C@_05GCEPFMCO@LEVEL?$AA@
CONST	SEGMENT
??_C@_05GCEPFMCO@LEVEL?$AA@ DB 'LEVEL', 00H		; `string'
CONST	ENDS
;	COMDAT ??_C@_05FHIHOFEA@VOICE?$AA@
CONST	SEGMENT
??_C@_05FHIHOFEA@VOICE?$AA@ DB 'VOICE', 00H		; `string'
CONST	ENDS
;	COMDAT ??_C@_0BF@PLGNHJMH@SendDragonSoulRefine?$AA@
CONST	SEGMENT
??_C@_0BF@PLGNHJMH@SendDragonSoulRefine?$AA@ DB 'SendDragonSoulRefine', 00H ; `string'
CONST	ENDS
;	COMDAT ??_C@_06BALNJMNP@player?$AA@
CONST	SEGMENT
??_C@_06BALNJMNP@player?$AA@ DB 'player', 00H		; `string'
CONST	ENDS
;	COMDAT ??_C@_0M@DGFCHEAA@GetItemLink?$AA@
CONST	SEGMENT
??_C@_0M@DGFCHEAA@GetItemLink?$AA@ DB 'GetItemLink', 00H ; `string'
CONST	ENDS
;	COMDAT ??_C@_0BE@IOMKCPHN@SlotTypeToInvenType?$AA@
CONST	SEGMENT
??_C@_0BE@IOMKCPHN@SlotTypeToInvenType?$AA@ DB 'SlotTypeToInvenType', 00H ; `string'
CONST	ENDS
;	COMDAT ??_C@_0BB@KPGENMF@SetItemAttribute?$AA@
CONST	SEGMENT
??_C@_0BB@KPGENMF@SetItemAttribute?$AA@ DB 'SetItemAttribute', 00H ; `string'
CONST	ENDS
;	COMDAT ??_C@_0N@MABOHHMK@SetItemCount?$AA@
CONST	SEGMENT
??_C@_0N@MABOHHMK@SetItemCount?$AA@ DB 'SetItemCount', 00H ; `string'
CONST	ENDS
;	COMDAT ??_C@_0M@CHNGAPIB@SetItemData?$AA@
CONST	SEGMENT
??_C@_0M@CHNGAPIB@SetItemData?$AA@ DB 'SetItemData', 00H ; `string'
CONST	ENDS
;	COMDAT ??_C@_0BD@GLMLJBGM@SetItemMetinSocket?$AA@
CONST	SEGMENT
??_C@_0BD@GLMLJBGM@SetItemMetinSocket?$AA@ DB 'SetItemMetinSocket', 00H ; `string'
CONST	ENDS
;	COMDAT ??_C@_0BB@DJKKOCLB@ToggleLevelLimit?$AA@
CONST	SEGMENT
??_C@_0BB@DJKKOCLB@ToggleLevelLimit?$AA@ DB 'ToggleLevelLimit', 00H ; `string'
CONST	ENDS
;	COMDAT ??_C@_0N@MEKPPHGC@GetTargetVID?$AA@
CONST	SEGMENT
??_C@_0N@MEKPPHGC@GetTargetVID?$AA@ DB 'GetTargetVID', 00H ; `string'
CONST	ENDS
;	COMDAT ??_C@_0BJ@CFCMHNHB@SetWeaponAttackBonusFlag?$AA@
CONST	SEGMENT
??_C@_0BJ@CFCMHNHB@SetWeaponAttackBonusFlag?$AA@ DB 'SetWeaponAttackBonus'
	DB	'Flag', 00H					; `string'
CONST	ENDS
;	COMDAT ??_C@_0P@ILOOLMDH@ToggleCoolTime?$AA@
CONST	SEGMENT
??_C@_0P@ILOOLMDH@ToggleCoolTime?$AA@ DB 'ToggleCoolTime', 00H ; `string'
CONST	ENDS
;	COMDAT ??_C@_0BE@PMDABIKP@RegisterEmotionIcon?$AA@
CONST	SEGMENT
??_C@_0BE@PMDABIKP@RegisterEmotionIcon?$AA@ DB 'RegisterEmotionIcon', 00H ; `string'
CONST	ENDS
;	COMDAT ??_C@_0BE@FELKHKJF@GetEmotionIconImage?$AA@
CONST	SEGMENT
??_C@_0BE@FELKHKJF@GetEmotionIconImage?$AA@ DB 'GetEmotionIconImage', 00H ; `string'
CONST	ENDS
;	COMDAT ??_C@_09IMMFEEHK@GetPKMode?$AA@
CONST	SEGMENT
??_C@_09IMMFEEHK@GetPKMode?$AA@ DB 'GetPKMode', 00H	; `string'
CONST	ENDS
;	COMDAT ??_C@_0BF@CLGCEOLO@HasMobilePhoneNumber?$AA@
CONST	SEGMENT
??_C@_0BF@CLGCEOLO@HasMobilePhoneNumber?$AA@ DB 'HasMobilePhoneNumber', 00H ; `string'
CONST	ENDS
;	COMDAT ??_C@_0BG@EEFAFMJC@GetPartyMemberAffects?$AA@
CONST	SEGMENT
??_C@_0BG@EEFAFMJC@GetPartyMemberAffects?$AA@ DB 'GetPartyMemberAffects', 00H ; `string'
CONST	ENDS
;	COMDAT ??_C@_09DMPBEJCG@ExitParty?$AA@
CONST	SEGMENT
??_C@_09DMPBEJCG@ExitParty?$AA@ DB 'ExitParty', 00H	; `string'
CONST	ENDS
;	COMDAT ??_C@_0BL@EPAFEFHI@GetPartyMemberHPPercentage?$AA@
CONST	SEGMENT
??_C@_0BL@EPAFEFHI@GetPartyMemberHPPercentage?$AA@ DB 'GetPartyMemberHPPe'
	DB	'rcentage', 00H				; `string'
CONST	ENDS
;	COMDAT ??_C@_0BE@HKIJMBKK@GetPartyMemberState?$AA@
CONST	SEGMENT
??_C@_0BE@HKIJMBKK@GetPartyMemberState?$AA@ DB 'GetPartyMemberState', 00H ; `string'
CONST	ENDS
;	COMDAT ??_C@_0O@BPMJGNAC@IsPartyLeader?$AA@
CONST	SEGMENT
??_C@_0O@BPMJGNAC@IsPartyLeader?$AA@ DB 'IsPartyLeader', 00H ; `string'
CONST	ENDS
;	COMDAT ??_C@_0BD@HGKJMFNK@IsPartyLeaderByPID?$AA@
CONST	SEGMENT
??_C@_0BD@HGKJMFNK@IsPartyLeaderByPID?$AA@ DB 'IsPartyLeaderByPID', 00H ; `string'
CONST	ENDS
;	COMDAT ??_C@_09EECGCJDE@SetTarget?$AA@
CONST	SEGMENT
??_C@_09EECGCJDE@SetTarget?$AA@ DB 'SetTarget', 00H	; `string'
CONST	ENDS
;	COMDAT ??_C@_0BC@HAEJEFBP@OpenCharacterMenu?$AA@
CONST	SEGMENT
??_C@_0BC@HAEJEFBP@OpenCharacterMenu?$AA@ DB 'OpenCharacterMenu', 00H ; `string'
CONST	ENDS
;	COMDAT ??_C@_0BE@ELNKJPMC@IsRefineGradeScroll?$AA@
CONST	SEGMENT
??_C@_0BE@ELNKJPMC@IsRefineGradeScroll?$AA@ DB 'IsRefineGradeScroll', 00H ; `string'
CONST	ENDS
;	COMDAT ??_C@_0M@DPCEEMCG@ClearTarget?$AA@
CONST	SEGMENT
??_C@_0M@DPCEEMCG@ClearTarget?$AA@ DB 'ClearTarget', 00H ; `string'
CONST	ENDS
;	COMDAT ??_C@_09FHINBOHC@CanUnlock?$AA@
CONST	SEGMENT
??_C@_09FHINBOHC@CanUnlock?$AA@ DB 'CanUnlock', 00H	; `string'
CONST	ENDS
;	COMDAT ??_C@_0P@BLOGPKFO@CanAttachMetin?$AA@
CONST	SEGMENT
??_C@_0P@BLOGPKFO@CanAttachMetin?$AA@ DB 'CanAttachMetin', 00H ; `string'
CONST	ENDS
;	COMDAT ??_C@_09BGNCJJP@CanRefine?$AA@
CONST	SEGMENT
??_C@_09BGNCJJP@CanRefine?$AA@ DB 'CanRefine', 00H	; `string'
CONST	ENDS
;	COMDAT ??_C@_09GHIBIBHI@CanDetach?$AA@
CONST	SEGMENT
??_C@_09GHIBIBHI@CanDetach?$AA@ DB 'CanDetach', 00H	; `string'
CONST	ENDS
;	COMDAT ??_C@_0BC@DCFDMADN@IsOpenPrivateShop?$AA@
CONST	SEGMENT
??_C@_0BC@DCFDMADN@IsOpenPrivateShop?$AA@ DB 'IsOpenPrivateShop', 00H ; `string'
CONST	ENDS
;	COMDAT ??_C@_0N@DGHEMMKN@GetItemGrade?$AA@
CONST	SEGMENT
??_C@_0N@DGHEMMKN@GetItemGrade?$AA@ DB 'GetItemGrade', 00H ; `string'
CONST	ENDS
;	COMDAT ??_C@_0O@KCAGNEAI@IsCostumeSlot?$AA@
CONST	SEGMENT
??_C@_0O@KCAGNEAI@IsCostumeSlot?$AA@ DB 'IsCostumeSlot', 00H ; `string'
CONST	ENDS
;	COMDAT ??_C@_0P@LAJFBPPH@IsValuableItem?$AA@
CONST	SEGMENT
??_C@_0P@LAJFBPPH@IsValuableItem?$AA@ DB 'IsValuableItem', 00H ; `string'
CONST	ENDS
;	COMDAT ??_C@_0BA@EMKHGGAL@IsEquipmentSlot?$AA@
CONST	SEGMENT
??_C@_0BA@EMKHGGAL@IsEquipmentSlot?$AA@ DB 'IsEquipmentSlot', 00H ; `string'
CONST	ENDS
;	COMDAT ??_C@_0BC@DDCIGDKO@IsDSEquipmentSlot?$AA@
CONST	SEGMENT
??_C@_0BC@DDCIGDKO@IsDSEquipmentSlot?$AA@ DB 'IsDSEquipmentSlot', 00H ; `string'
CONST	ENDS
;	COMDAT ??_C@_0BH@JNCIKJMC@RemoveQuickSlotByValue?$AA@
CONST	SEGMENT
??_C@_0BH@JNCIKJMC@RemoveQuickSlotByValue?$AA@ DB 'RemoveQuickSlotByValue'
	DB	00H						; `string'
CONST	ENDS
;	COMDAT ??_C@_06NOPKEHAK@isItem?$AA@
CONST	SEGMENT
??_C@_06NOPKEHAK@isItem?$AA@ DB 'isItem', 00H		; `string'
CONST	ENDS
;	COMDAT ??_C@_0BC@LNKMMBDG@GetLocalQuickSlot?$AA@
CONST	SEGMENT
??_C@_0BC@LNKMMBDG@GetLocalQuickSlot?$AA@ DB 'GetLocalQuickSlot', 00H ; `string'
CONST	ENDS
;	COMDAT ??_C@_0BD@ECGPDHPA@GetGlobalQuickSlot?$AA@
CONST	SEGMENT
??_C@_0BD@ECGPDHPA@GetGlobalQuickSlot?$AA@ DB 'GetGlobalQuickSlot', 00H ; `string'
CONST	ENDS
;	COMDAT ??_C@_0N@NLMPHAJA@GetQuickPage?$AA@
CONST	SEGMENT
??_C@_0N@NLMPHAJA@GetQuickPage?$AA@ DB 'GetQuickPage', 00H ; `string'
CONST	ENDS
;	COMDAT ??_C@_0N@KPHBLMNM@SetQuickPage?$AA@
CONST	SEGMENT
??_C@_0N@KPHBLMNM@SetQuickPage?$AA@ DB 'SetQuickPage', 00H ; `string'
CONST	ENDS
;	COMDAT ??_C@_0BJ@IBBGPDPH@RequestUseLocalQuickSlot?$AA@
CONST	SEGMENT
??_C@_0BJ@IBBGPDPH@RequestUseLocalQuickSlot?$AA@ DB 'RequestUseLocalQuick'
	DB	'Slot', 00H					; `string'
CONST	ENDS
;	COMDAT ??_C@_0CK@GNGKFIDB@LocalQuickSlotIndexToGlobalQuick@
CONST	SEGMENT
??_C@_0CK@GNGKFIDB@LocalQuickSlotIndexToGlobalQuick@ DB 'LocalQuickSlotIn'
	DB	'dexToGlobalQuickSlotIndex', 00H		; `string'
CONST	ENDS
;	COMDAT ??_C@_0BN@NACLJDMA@RequestDeleteGlobalQuickSlot?$AA@
CONST	SEGMENT
??_C@_0BN@NACLJDMA@RequestDeleteGlobalQuickSlot?$AA@ DB 'RequestDeleteGlo'
	DB	'balQuickSlot', 00H				; `string'
CONST	ENDS
;	COMDAT ??_C@_0CL@IEMBKGLN@RequestMoveGlobalQuickSlotToLoca@
CONST	SEGMENT
??_C@_0CL@IEMBKGLN@RequestMoveGlobalQuickSlotToLoca@ DB 'RequestMoveGloba'
	DB	'lQuickSlotToLocalQuickSlot', 00H		; `string'
CONST	ENDS
;	COMDAT ??_C@_0BJ@DNLGAMEO@RequestAddLocalQuickSlot?$AA@
CONST	SEGMENT
??_C@_0BJ@DNLGAMEO@RequestAddLocalQuickSlot?$AA@ DB 'RequestAddLocalQuick'
	DB	'Slot', 00H					; `string'
CONST	ENDS
;	COMDAT ??_C@_0CA@JMFCJJPL@RequestAddToEmptyLocalQuickSlot?$AA@
CONST	SEGMENT
??_C@_0CA@JMFCJJPL@RequestAddToEmptyLocalQuickSlot?$AA@ DB 'RequestAddToE'
	DB	'mptyLocalQuickSlot', 00H			; `string'
CONST	ENDS
;	COMDAT ??_C@_08OAJFGNBC@GetMoney?$AA@
CONST	SEGMENT
??_C@_08OAJFGNBC@GetMoney?$AA@ DB 'GetMoney', 00H	; `string'
CONST	ENDS
;	COMDAT ??_C@_0BB@LANDCIKG@GetAlignmentData?$AA@
CONST	SEGMENT
??_C@_0BB@LANDCIKG@GetAlignmentData?$AA@ DB 'GetAlignmentData', 00H ; `string'
CONST	ENDS
;	COMDAT ??_C@_09OEBBKEAG@SetStatus?$AA@
CONST	SEGMENT
??_C@_09OEBBKEAG@SetStatus?$AA@ DB 'SetStatus', 00H	; `string'
CONST	ENDS
;	COMDAT ??_C@_06NMFKJLLH@GetElk?$AA@
CONST	SEGMENT
??_C@_06NMFKJLLH@GetElk?$AA@ DB 'GetElk', 00H		; `string'
CONST	ENDS
;	COMDAT ??_C@_06MDIKDJMD@GetEXP?$AA@
CONST	SEGMENT
??_C@_06MDIKDJMD@GetEXP?$AA@ DB 'GetEXP', 00H		; `string'
CONST	ENDS
;	COMDAT ??_C@_09MKFEIFJE@GetStatus?$AA@
CONST	SEGMENT
??_C@_09MKFEIFJE@GetStatus?$AA@ DB 'GetStatus', 00H	; `string'
CONST	ENDS
;	COMDAT ??_C@_0O@HHBOBCLE@UseGuildSkill?$AA@
CONST	SEGMENT
??_C@_0O@HHBOBCLE@UseGuildSkill?$AA@ DB 'UseGuildSkill', 00H ; `string'
CONST	ENDS
;	COMDAT ??_C@_0BI@JIGEMOFF@AffectIndexToSkillIndex?$AA@
CONST	SEGMENT
??_C@_0BI@JIGEMOFF@AffectIndexToSkillIndex?$AA@ DB 'AffectIndexToSkillInd'
	DB	'ex', 00H					; `string'
CONST	ENDS
;	COMDAT ??_C@_0BB@CNGGKNGL@GetSkillCoolTime?$AA@
CONST	SEGMENT
??_C@_0BB@CNGGKNGL@GetSkillCoolTime?$AA@ DB 'GetSkillCoolTime', 00H ; `string'
CONST	ENDS
;	COMDAT ??_C@_0O@IAPCJJAC@IsSkillActive?$AA@
CONST	SEGMENT
??_C@_0O@IAPCJJAC@IsSkillActive?$AA@ DB 'IsSkillActive', 00H ; `string'
CONST	ENDS
;	COMDAT ??_C@_0M@DGCMFHDN@SetPlayTime?$AA@
CONST	SEGMENT
??_C@_0M@DGCMFHDN@SetPlayTime?$AA@ DB 'SetPlayTime', 00H ; `string'
CONST	ENDS
;	COMDAT ??_C@_0BA@FOPKKJJD@IsSkillCoolTime?$AA@
CONST	SEGMENT
??_C@_0BA@FOPKKJJD@IsSkillCoolTime?$AA@ DB 'IsSkillCoolTime', 00H ; `string'
CONST	ENDS
;	COMDAT ??_C@_06FHLNIOPB@GetJob?$AA@
CONST	SEGMENT
??_C@_06FHLNIOPB@GetJob?$AA@ DB 'GetJob', 00H		; `string'
CONST	ENDS
;	COMDAT ??_C@_0M@DJDCIBLO@GetPlayTime?$AA@
CONST	SEGMENT
??_C@_0M@DJDCIBLO@GetPlayTime?$AA@ DB 'GetPlayTime', 00H ; `string'
CONST	ENDS
;	COMDAT ??_C@_08MHJANHDM@MoveItem?$AA@
CONST	SEGMENT
??_C@_08MHJANHDM@MoveItem?$AA@ DB 'MoveItem', 00H	; `string'
CONST	ENDS
;	COMDAT ??_C@_0BE@DBIFLBAC@SendClickItemPacket?$AA@
CONST	SEGMENT
??_C@_0BE@DBIFLBAC@SendClickItemPacket?$AA@ DB 'SendClickItemPacket', 00H ; `string'
CONST	ENDS
;	COMDAT ??_C@_0BD@JBOBKHIE@GetItemMetinSocket?$AA@
CONST	SEGMENT
??_C@_0BD@JBOBKHIE@GetItemMetinSocket?$AA@ DB 'GetItemMetinSocket', 00H ; `string'
CONST	ENDS
;	COMDAT ??_C@_0BB@GOKPPDHH@GetItemAttribute?$AA@
CONST	SEGMENT
??_C@_0BB@GOKPPDHH@GetItemAttribute?$AA@ DB 'GetItemAttribute', 00H ; `string'
CONST	ENDS
;	COMDAT ??_C@_0N@LEKALLIG@GetItemCount?$AA@
CONST	SEGMENT
??_C@_0N@LEKALLIG@GetItemCount?$AA@ DB 'GetItemCount', 00H ; `string'
CONST	ENDS
;	COMDAT ??_C@_0BD@DBLILMFK@GetItemCountByVnum?$AA@
CONST	SEGMENT
??_C@_0BD@DBLILMFK@GetItemCountByVnum?$AA@ DB 'GetItemCountByVnum', 00H ; `string'
CONST	ENDS
;	COMDAT ??_C@_0N@GABOCBEH@GetItemIndex?$AA@
CONST	SEGMENT
??_C@_0N@GABOCBEH@GetItemIndex?$AA@ DB 'GetItemIndex', 00H ; `string'
CONST	ENDS
;	COMDAT ??_C@_0N@DMCGDNGF@GetItemFlags?$AA@
CONST	SEGMENT
??_C@_0N@DMCGDNGF@GetItemFlags?$AA@ DB 'GetItemFlags', 00H ; `string'
CONST	ENDS
;	COMDAT ??_C@_0BN@BPJDEKED@ChangeCurrentSkillNumberOnly?$AA@
CONST	SEGMENT
??_C@_0BN@BPJDEKED@ChangeCurrentSkillNumberOnly?$AA@ DB 'ChangeCurrentSki'
	DB	'llNumberOnly', 00H				; `string'
CONST	ENDS
;	COMDAT ??_C@_0P@MJOJKOJJ@ClearSkillDict?$AA@
CONST	SEGMENT
??_C@_0P@MJOJKOJJ@ClearSkillDict?$AA@ DB 'ClearSkillDict', 00H ; `string'
CONST	ENDS
;	COMDAT ??_C@_0CA@JHGONPGM@GetSkillNextEfficientPercentage?$AA@
CONST	SEGMENT
??_C@_0CA@JHGONPGM@GetSkillNextEfficientPercentage?$AA@ DB 'GetSkillNextE'
	DB	'fficientPercentage', 00H			; `string'
CONST	ENDS
;	COMDAT ??_C@_0P@IGNHDBHH@ClickSkillSlot?$AA@
CONST	SEGMENT
??_C@_0P@IGNHDBHH@ClickSkillSlot?$AA@ DB 'ClickSkillSlot', 00H ; `string'
CONST	ENDS
;	COMDAT ??_C@_0O@IIOIANPE@GetSkillGrade?$AA@
CONST	SEGMENT
??_C@_0O@IIOIANPE@GetSkillGrade?$AA@ DB 'GetSkillGrade', 00H ; `string'
CONST	ENDS
;	COMDAT ??_C@_0CD@EFGGIKHI@GetSkillCurrentEfficientPercenta@
CONST	SEGMENT
??_C@_0CD@EFGGIKHI@GetSkillCurrentEfficientPercenta@ DB 'GetSkillCurrentE'
	DB	'fficientPercentage', 00H			; `string'
CONST	ENDS
;	COMDAT ??_C@_08HIFGFOGG@SetSkill?$AA@
CONST	SEGMENT
??_C@_08HIFGFOGG@SetSkill?$AA@ DB 'SetSkill', 00H	; `string'
CONST	ENDS
;	COMDAT ??_C@_0BC@HNJMANI@GetSkillSlotIndex?$AA@
CONST	SEGMENT
??_C@_0BC@HNJMANI@GetSkillSlotIndex?$AA@ DB 'GetSkillSlotIndex', 00H ; `string'
CONST	ENDS
;	COMDAT ??_C@_0BE@MCFGJOPA@ResetCameraRotation?$AA@
CONST	SEGMENT
??_C@_0BE@MCFGJOPA@ResetCameraRotation?$AA@ DB 'ResetCameraRotation', 00H ; `string'
CONST	ENDS
;	COMDAT ??_C@_0BD@DPHLFGPP@SetQuickCameraMode?$AA@
CONST	SEGMENT
??_C@_0BD@DPHLFGPP@SetQuickCameraMode?$AA@ DB 'SetQuickCameraMode', 00H ; `string'
CONST	ENDS
;	COMDAT ??_C@_0BC@NCHFPCDM@StartMouseWalking?$AA@
CONST	SEGMENT
??_C@_0BC@NCHFPCDM@StartMouseWalking?$AA@ DB 'StartMouseWalking', 00H ; `string'
CONST	ENDS
;	COMDAT ??_C@_0BA@JEOKFDLP@EndMouseWalking?$AA@
CONST	SEGMENT
??_C@_0BA@JEOKFDLP@EndMouseWalking?$AA@ DB 'EndMouseWalking', 00H ; `string'
CONST	ENDS
;	COMDAT ??_C@_0BF@PNJNANBI@SetSingleDIKKeyState?$AA@
CONST	SEGMENT
??_C@_0BF@PNJNANBI@SetSingleDIKKeyState?$AA@ DB 'SetSingleDIKKeyState', 00H ; `string'
CONST	ENDS
;	COMDAT ??_C@_0BJ@HGLJKHIH@EndKeyWalkingImmediately?$AA@
CONST	SEGMENT
??_C@_0BJ@HGLJKHIH@EndKeyWalkingImmediately?$AA@ DB 'EndKeyWalkingImmedia'
	DB	'tely', 00H					; `string'
CONST	ENDS
;	COMDAT ??_C@_0BL@IEKDAKHC@SetAutoCameraRotationSpeed?$AA@
CONST	SEGMENT
??_C@_0BL@IEKDAKHC@SetAutoCameraRotationSpeed?$AA@ DB 'SetAutoCameraRotat'
	DB	'ionSpeed', 00H				; `string'
CONST	ENDS
;	COMDAT ??_C@_0BC@DAIEHFBH@SetAttackKeyState?$AA@
CONST	SEGMENT
??_C@_0BC@DAIEHFBH@SetAttackKeyState?$AA@ DB 'SetAttackKeyState', 00H ; `string'
CONST	ENDS
;	COMDAT ??_C@_0L@PBBGGCLG@HidePlayer?$AA@
CONST	SEGMENT
??_C@_0L@PBBGGCLG@HidePlayer?$AA@ DB 'HidePlayer', 00H	; `string'
CONST	ENDS
;	COMDAT ??_C@_0M@GOCDIKPN@ComboAttack?$AA@
CONST	SEGMENT
??_C@_0M@GOCDIKPN@ComboAttack?$AA@ DB 'ComboAttack', 00H ; `string'
CONST	ENDS
;	COMDAT ??_C@_0L@JEBGMNAH@ActEmotion?$AA@
CONST	SEGMENT
??_C@_0L@JEBGMNAH@ActEmotion?$AA@ DB 'ActEmotion', 00H	; `string'
CONST	ENDS
;	COMDAT ??_C@_0L@CPMIOCIM@ShowPlayer?$AA@
CONST	SEGMENT
??_C@_0L@CPMIOCIM@ShowPlayer?$AA@ DB 'ShowPlayer', 00H	; `string'
CONST	ENDS
;	COMDAT ??_C@_0BA@GFJLKENO@IsMountingHorse?$AA@
CONST	SEGMENT
??_C@_0BA@GFJLKENO@IsMountingHorse?$AA@ DB 'IsMountingHorse', 00H ; `string'
CONST	ENDS
;	COMDAT ??_C@_0P@LDENHACE@IsObserverMode?$AA@
CONST	SEGMENT
??_C@_0P@LDENHACE@IsObserverMode?$AA@ DB 'IsObserverMode', 00H ; `string'
CONST	ENDS
;	COMDAT ??_C@_0BF@DABJOKIF@GetCharacterDistance?$AA@
CONST	SEGMENT
??_C@_0BF@DABJOKIF@GetCharacterDistance?$AA@ DB 'GetCharacterDistance', 00H ; `string'
CONST	ENDS
;	COMDAT ??_C@_0N@IKPCBCPA@IsInSafeArea?$AA@
CONST	SEGMENT
??_C@_0N@IKPCBCPA@IsInSafeArea?$AA@ DB 'IsInSafeArea', 00H ; `string'
CONST	ENDS
;	COMDAT ??_C@_0BC@IKOEAPGC@IsRevengeInstance?$AA@
CONST	SEGMENT
??_C@_0BC@IKOEAPGC@IsRevengeInstance?$AA@ DB 'IsRevengeInstance', 00H ; `string'
CONST	ENDS
;	COMDAT ??_C@_0BE@HJOMPGKI@IsCantFightInstance?$AA@
CONST	SEGMENT
??_C@_0BE@HJOMPGKI@IsCantFightInstance?$AA@ DB 'IsCantFightInstance', 00H ; `string'
CONST	ENDS
;	COMDAT ??_C@_0N@CBEDFALN@IsSameEmpire?$AA@
CONST	SEGMENT
??_C@_0N@CBEDFALN@IsSameEmpire?$AA@ DB 'IsSameEmpire', 00H ; `string'
CONST	ENDS
;	COMDAT ??_C@_0BE@FOIPHJLO@IsChallengeInstance?$AA@
CONST	SEGMENT
??_C@_0BE@FOIPHJLO@IsChallengeInstance?$AA@ DB 'IsChallengeInstance', 00H ; `string'
CONST	ENDS
;	COMDAT ??_C@_0BA@ODCBPOEF@IsActingEmotion?$AA@
CONST	SEGMENT
??_C@_0BA@ODCBPOEF@IsActingEmotion?$AA@ DB 'IsActingEmotion', 00H ; `string'
CONST	ENDS
;	COMDAT ??_C@_0O@ECCODAC@IsPVPInstance?$AA@
CONST	SEGMENT
??_C@_0O@ECCODAC@IsPVPInstance?$AA@ DB 'IsPVPInstance', 00H ; `string'
CONST	ENDS
;	COMDAT ??_C@_0BF@GALHNOAL@IsMainCharacterIndex?$AA@
CONST	SEGMENT
??_C@_0BF@GALHNOAL@IsMainCharacterIndex?$AA@ DB 'IsMainCharacterIndex', 00H ; `string'
CONST	ENDS
;	COMDAT ??_C@_0BC@FLPEGJDD@CanAttackInstance?$AA@
CONST	SEGMENT
??_C@_0BC@FLPEGJDD@CanAttackInstance?$AA@ DB 'CanAttackInstance', 00H ; `string'
CONST	ENDS
;	COMDAT ??_C@_0BF@OMDPKDFM@GetMainCharacterName?$AA@
CONST	SEGMENT
??_C@_0BF@OMDPKDFM@GetMainCharacterName?$AA@ DB 'GetMainCharacterName', 00H ; `string'
CONST	ENDS
;	COMDAT ??_C@_0BJ@GIKFEPMH@GetMainCharacterPosition?$AA@
CONST	SEGMENT
??_C@_0BJ@GIKFEPMH@GetMainCharacterPosition?$AA@ DB 'GetMainCharacterPosi'
	DB	'tion', 00H					; `string'
CONST	ENDS
;	COMDAT ??_C@_0BG@JCNMOACA@SetMainCharacterIndex?$AA@
CONST	SEGMENT
??_C@_0BG@JCNMOACA@SetMainCharacterIndex?$AA@ DB 'SetMainCharacterIndex', 00H ; `string'
CONST	ENDS
;	COMDAT ??_C@_0BG@GHIKDJGB@GetMainCharacterIndex?$AA@
CONST	SEGMENT
??_C@_0BG@GHIKDJGB@GetMainCharacterIndex?$AA@ DB 'GetMainCharacterIndex', 00H ; `string'
CONST	ENDS
;	COMDAT ??_C@_0N@MACDDOCA@GetMouseFunc?$AA@
CONST	SEGMENT
??_C@_0N@MACDDOCA@GetMouseFunc?$AA@ DB 'GetMouseFunc', 00H ; `string'
CONST	ENDS
;	COMDAT ??_C@_0BK@JBJLNCBH@SetMouseMiddleButtonState?$AA@
CONST	SEGMENT
??_C@_0BK@JBJLNCBH@SetMouseMiddleButtonState?$AA@ DB 'SetMouseMiddleButto'
	DB	'nState', 00H				; `string'
CONST	ENDS
;	COMDAT ??_C@_0O@HDELDAFI@SetMouseState?$AA@
CONST	SEGMENT
??_C@_0O@HDELDAFI@SetMouseState?$AA@ DB 'SetMouseState', 00H ; `string'
CONST	ENDS
;	COMDAT ??_C@_0N@LEJNPCGM@SetMouseFunc?$AA@
CONST	SEGMENT
??_C@_0N@LEJNPCGM@SetMouseFunc?$AA@ DB 'SetMouseFunc', 00H ; `string'
CONST	ENDS
;	COMDAT ??_C@_0O@MAEJALBO@PickCloseItem?$AA@
CONST	SEGMENT
??_C@_0O@MAEJALBO@PickCloseItem?$AA@ DB 'PickCloseItem', 00H ; `string'
CONST	ENDS
;	COMDAT ??_C@_0O@MNPFFDEJ@SetGameWindow?$AA@
CONST	SEGMENT
??_C@_0O@MNPFFDEJ@SetGameWindow?$AA@ DB 'SetGameWindow', 00H ; `string'
CONST	ENDS
;	COMDAT ??_C@_0BC@CHIABFDI@GetAutoPotionInfo?$AA@
CONST	SEGMENT
??_C@_0BC@CHIABFDI@GetAutoPotionInfo?$AA@ DB 'GetAutoPotionInfo', 00H ; `string'
CONST	ENDS
;	COMDAT ??_C@_0BC@CILJOCG@SetAutoPotionInfo?$AA@
CONST	SEGMENT
??_C@_0BC@CILJOCG@SetAutoPotionInfo?$AA@ DB 'SetAutoPotionInfo', 00H ; `string'
CONST	ENDS
;	COMDAT ??_C@_07EFJJEBFG@iiiiiii?$AA@
CONST	SEGMENT
??_C@_07EFJJEBFG@iiiiiii?$AA@ DB 'iiiiiii', 00H		; `string'
CONST	ENDS
;	COMDAT ??_C@_04GPDILEAH@biii?$AA@
CONST	SEGMENT
??_C@_04GPDILEAH@biii?$AA@ DB 'biii', 00H		; `string'
CONST	ENDS
;	COMDAT ??_C@_0BF@BGKCJNBK@Can?8t?5find?5item?5data?$AA@
CONST	SEGMENT
??_C@_0BF@BGKCJNBK@Can?8t?5find?5item?5data?$AA@ DB 'Can''t find item dat'
	DB	'a', 00H					; `string'
CONST	ENDS
;	COMDAT ??_C@_0BF@IBGKLIMC@can?8t?5find?5item?5data?$AA@
CONST	SEGMENT
??_C@_0BF@IBGKLIMC@can?8t?5find?5item?5data?$AA@ DB 'can''t find item dat'
	DB	'a', 00H					; `string'
CONST	ENDS
;	COMDAT ??_C@_0BK@MCOKCAKI@?5?$HMh?$HMr?$FL?$CFs?$FN?$HMcffffc700?$HMH?$CFs?$HMh?$AA@
CONST	SEGMENT
??_C@_0BK@MCOKCAKI@?5?$HMh?$HMr?$FL?$CFs?$FN?$HMcffffc700?$HMH?$CFs?$HMh?$AA@ DB ' '
	DB	'|h|r[%s]|cffffc700|H%s|h', 00H		; `string'
CONST	ENDS
;	COMDAT ??_C@_0BK@MGKBEPOF@?5?$HMh?$HMr?$FL?$CFs?$FN?$HMcfff1e6c0?$HMH?$CFs?$HMh?$AA@
CONST	SEGMENT
??_C@_0BK@MGKBEPOF@?5?$HMh?$HMr?$FL?$CFs?$FN?$HMcfff1e6c0?$HMH?$CFs?$HMh?$AA@ DB ' '
	DB	'|h|r[%s]|cfff1e6c0|H%s|h', 00H		; `string'
CONST	ENDS
;	COMDAT ??_C@_02HPEDFNFO@ff?$AA@
CONST	SEGMENT
??_C@_02HPEDFNFO@ff?$AA@ DB 'ff', 00H			; `string'
CONST	ENDS
;	COMDAT ??_C@_01HHGOMJKL@l?$AA@
CONST	SEGMENT
??_C@_01HHGOMJKL@l?$AA@ DB 'l', 00H			; `string'
CONST	ENDS
;	COMDAT ??_C@_0EJ@BNKMOLIP@playerSetSingleDIKKeyState?$CIeDIK?0@
CONST	SEGMENT
??_C@_0EJ@BNKMOLIP@playerSetSingleDIKKeyState?$CIeDIK?0@ DB 'playerSetSin'
	DB	'gleDIKKeyState(eDIK, isPressed) - There is no first argument', 00H ; `string'
CONST	ENDS
;	COMDAT ??_C@_0EK@IDBGKDBN@playerSetSingleDIKKeyState?$CIeDIK?0@
CONST	SEGMENT
??_C@_0EK@IDBGKDBN@playerSetSingleDIKKeyState?$CIeDIK?0@ DB 'playerSetSin'
	DB	'gleDIKKeyState(eDIK, isPressed) - There is no second argument'
	DB	00H						; `string'
CONST	ENDS
;	COMDAT ??_C@_0DF@ILFGGFEI@CPythonPlayer?3?3RegisterEffect?$CIeE@
CONST	SEGMENT
??_C@_0DF@ILFGGFEI@CPythonPlayer?3?3RegisterEffect?$CIeE@ DB 'CPythonPlay'
	DB	'er::RegisterEffect(eEft=%d, szFileName=%s', 00H ; `string'
CONST	ENDS
;	COMDAT ??_C@_0EA@OHLDKNFC@playerSetAttackKeyState?$CIisPresse@
CONST	SEGMENT
??_C@_0EA@OHLDKNFC@playerSetAttackKeyState?$CIisPresse@ DB 'playerSetAtta'
	DB	'ckKeyState(isPressed) - There is no first argument', 00H ; `string'
?c_iSkillIndex_Riding@@3KB DD 082H			; c_iSkillIndex_Riding
?c_iSkillIndex_Summon@@3KB DD 083H			; c_iSkillIndex_Summon
?c_iSkillIndex_Combo@@3KB DD 07aH			; c_iSkillIndex_Combo
?c_iSkillIndex_Fishing@@3KB DD 07bH			; c_iSkillIndex_Fishing
PUBLIC	??$get@$0A@ABH@std@@YAABH$$QAV?$tuple@ABH@0@@Z	; std::get<0,int const &>
PUBLIC	??$move@AAV?$tuple@ABH@std@@@std@@YA$$QAV?$tuple@ABH@0@AAV10@@Z ; std::move<std::tuple<int const &> &>
PUBLIC	??$?0V?$tuple@ABH@std@@V?$tuple@$$$V@1@$0A@$S@?$pair@$$CBHPAVCGraphicImage@@@std@@QAE@AAV?$tuple@ABH@1@AAV?$tuple@$$$V@1@U?$_Arg_idx@$0A@@1@U?$_Arg_idx@$S@1@@Z ; std::pair<int const ,CGraphicImage *>::pair<int const ,CGraphicImage *><std::tuple<int const &>,std::tuple<>,0>
PUBLIC	??$forward@PAVCGraphicImage@@@std@@YA$$QAPAVCGraphicImage@@AAPAV1@@Z ; std::forward<CGraphicImage *>
PUBLIC	?_Get_rest@?$tuple@ABH@std@@QAEAAV?$tuple@$$$V@2@XZ ; std::tuple<int const &>::_Get_rest
PUBLIC	??$?0ABH$$$V@?$pair@$$CBHPAVCGraphicImage@@@std@@QAE@Upiecewise_construct_t@1@V?$tuple@ABH@1@V?$tuple@$$$V@1@@Z ; std::pair<int const ,CGraphicImage *>::pair<int const ,CGraphicImage *><int const &>
PUBLIC	??$?0ABHPAPAX@?$tuple@ABH@std@@QAE@$$QAV01@@Z	; std::tuple<int const &>::tuple<int const &><int const &,void * *>
PUBLIC	??$?0HPAVCGraphicImage@@X@?$pair@$$CBHPAVCGraphicImage@@@std@@QAE@$$QAU?$pair@HPAVCGraphicImage@@@1@@Z ; std::pair<int const ,CGraphicImage *>::pair<int const ,CGraphicImage *><int,CGraphicImage *,void>
PUBLIC	??$construct@U?$pair@$$CBHPAVCGraphicImage@@@std@@ABUpiecewise_construct_t@2@V?$tuple@ABH@2@V?$tuple@$$$V@2@@?$allocator@U?$_Tree_node@U?$pair@$$CBHPAVCGraphicImage@@@std@@PAX@std@@@std@@QAEXPAU?$pair@$$CBHPAVCGraphicImage@@@1@ABUpiecewise_construct_t@1@$$QAV?$tuple@ABH@1@$$QAV?$tuple@$$$V@1@@Z ; std::allocator<std::_Tree_node<std::pair<int const ,CGraphicImage *>,void *> >::construct<std::pair<int const ,CGraphicImage *>,std::piecewise_construct_t const &,std::tuple<int const &>,std::tuple<> >
PUBLIC	??$construct@U?$pair@$$CBHPAVCGraphicImage@@@std@@U?$pair@HPAVCGraphicImage@@@2@@?$allocator@U?$_Tree_node@U?$pair@$$CBHPAVCGraphicImage@@@std@@PAX@std@@@std@@QAEXPAU?$pair@$$CBHPAVCGraphicImage@@@1@$$QAU?$pair@HPAVCGraphicImage@@@1@@Z ; std::allocator<std::_Tree_node<std::pair<int const ,CGraphicImage *>,void *> >::construct<std::pair<int const ,CGraphicImage *>,std::pair<int,CGraphicImage *> >
PUBLIC	??$construct@U?$pair@$$CBHPAVCGraphicImage@@@std@@ABUpiecewise_construct_t@2@V?$tuple@ABH@2@V?$tuple@$$$V@2@@?$allocator_traits@V?$allocator@U?$_Tree_node@U?$pair@$$CBHPAVCGraphicImage@@@std@@PAX@std@@@std@@@std@@SAXAAV?$allocator@U?$_Tree_node@U?$pair@$$CBHPAVCGraphicImage@@@std@@PAX@std@@@1@PAU?$pair@$$CBHPAVCGraphicImage@@@1@ABUpiecewise_construct_t@1@$$QAV?$tuple@ABH@1@$$QAV?$tuple@$$$V@1@@Z ; std::allocator_traits<std::allocator<std::_Tree_node<std::pair<int const ,CGraphicImage *>,void *> > >::construct<std::pair<int const ,CGraphicImage *>,std::piecewise_construct_t const &,std::tuple<int const &>,std::tuple<> >
PUBLIC	??$forward@AAV?$_Tree_iterator@V?$_Tree_val@U?$_Tree_simple_types@U?$pair@$$CBHPAVCGraphicImage@@@std@@@std@@@std@@@std@@@std@@YAAAV?$_Tree_iterator@V?$_Tree_val@U?$_Tree_simple_types@U?$pair@$$CBHPAVCGraphicImage@@@std@@@std@@@std@@@0@AAV10@@Z ; std::forward<std::_Tree_iterator<std::_Tree_val<std::_Tree_simple_types<std::pair<int const ,CGraphicImage *> > > > &>
PUBLIC	??$forward@V?$_Tree_iterator@V?$_Tree_val@U?$_Tree_simple_types@U?$pair@$$CBHPAVCGraphicImage@@@std@@@std@@@std@@@std@@@std@@YA$$QAV?$_Tree_iterator@V?$_Tree_val@U?$_Tree_simple_types@U?$pair@$$CBHPAVCGraphicImage@@@std@@@std@@@std@@@0@AAV10@@Z ; std::forward<std::_Tree_iterator<std::_Tree_val<std::_Tree_simple_types<std::pair<int const ,CGraphicImage *> > > > >
PUBLIC	??$_Buynode_if_nil@AAU?$pair@$$CBHPAVCGraphicImage@@@std@@@?$_Tree@V?$_Tmap_traits@HPAVCGraphicImage@@U?$less@H@std@@V?$allocator@U?$pair@$$CBHPAVCGraphicImage@@@std@@@3@$0A@@std@@@std@@IAEPAU?$_Tree_node@U?$pair@$$CBHPAVCGraphicImage@@@std@@PAX@1@PAU21@AAU?$pair@$$CBHPAVCGraphicImage@@@1@@Z ; std::_Tree<std::_Tmap_traits<int,CGraphicImage *,std::less<int>,std::allocator<std::pair<int const ,CGraphicImage *> >,0> >::_Buynode_if_nil<std::pair<int const ,CGraphicImage *> &>
PUBLIC	??$construct@U?$pair@$$CBHPAVCGraphicImage@@@std@@U?$pair@HPAVCGraphicImage@@@2@@?$allocator_traits@V?$allocator@U?$_Tree_node@U?$pair@$$CBHPAVCGraphicImage@@@std@@PAX@std@@@std@@@std@@SAXAAV?$allocator@U?$_Tree_node@U?$pair@$$CBHPAVCGraphicImage@@@std@@PAX@std@@@1@PAU?$pair@$$CBHPAVCGraphicImage@@@1@$$QAU?$pair@HPAVCGraphicImage@@@1@@Z ; std::allocator_traits<std::allocator<std::_Tree_node<std::pair<int const ,CGraphicImage *>,void *> > >::construct<std::pair<int const ,CGraphicImage *>,std::pair<int,CGraphicImage *> >
PUBLIC	?max_size@?$allocator@U?$_Tree_node@U?$pair@$$CBHPAVCGraphicImage@@@std@@PAX@std@@@std@@QBEIXZ ; std::allocator<std::_Tree_node<std::pair<int const ,CGraphicImage *>,void *> >::max_size
PUBLIC	?max_size@?$allocator_traits@V?$allocator@U?$_Tree_node@U?$pair@$$CBHPAVCGraphicImage@@@std@@PAX@std@@@std@@@std@@SAIABV?$allocator@U?$_Tree_node@U?$pair@$$CBHPAVCGraphicImage@@@std@@PAX@std@@@2@@Z ; std::allocator_traits<std::allocator<std::_Tree_node<std::pair<int const ,CGraphicImage *>,void *> > >::max_size
PUBLIC	?max_size@?$_Wrap_alloc@V?$allocator@U?$_Tree_node@U?$pair@$$CBHPAVCGraphicImage@@@std@@PAX@std@@@std@@@std@@QBEIXZ ; std::_Wrap_alloc<std::allocator<std::_Tree_node<std::pair<int const ,CGraphicImage *>,void *> > >::max_size
PUBLIC	?max_size@?$_Tree@V?$_Tmap_traits@HPAVCGraphicImage@@U?$less@H@std@@V?$allocator@U?$pair@$$CBHPAVCGraphicImage@@@std@@@3@$0A@@std@@@std@@QBEIXZ ; std::_Tree<std::_Tmap_traits<int,CGraphicImage *,std::less<int>,std::allocator<std::pair<int const ,CGraphicImage *> >,0> >::max_size
PUBLIC	??$construct@PAU?$_Tree_node@U?$pair@$$CBHPAVCGraphicImage@@@std@@PAX@std@@AAPAU12@@?$allocator@U?$_Tree_node@U?$pair@$$CBHPAVCGraphicImage@@@std@@PAX@std@@@std@@QAEXPAPAU?$_Tree_node@U?$pair@$$CBHPAVCGraphicImage@@@std@@PAX@1@AAPAU21@@Z ; std::allocator<std::_Tree_node<std::pair<int const ,CGraphicImage *>,void *> >::construct<std::_Tree_node<std::pair<int const ,CGraphicImage *>,void *> *,std::_Tree_node<std::pair<int const ,CGraphicImage *>,void *> * &>
PUBLIC	??$destroy@U?$pair@$$CBHPAVCGraphicImage@@@std@@@?$allocator@U?$_Tree_node@U?$pair@$$CBHPAVCGraphicImage@@@std@@PAX@std@@@std@@QAEXPAU?$pair@$$CBHPAVCGraphicImage@@@1@@Z ; std::allocator<std::_Tree_node<std::pair<int const ,CGraphicImage *>,void *> >::destroy<std::pair<int const ,CGraphicImage *> >
PUBLIC	??$destroy@PAU?$_Tree_node@U?$pair@$$CBHPAVCGraphicImage@@@std@@PAX@std@@@?$allocator@U?$_Tree_node@U?$pair@$$CBHPAVCGraphicImage@@@std@@PAX@std@@@std@@QAEXPAPAU?$_Tree_node@U?$pair@$$CBHPAVCGraphicImage@@@std@@PAX@1@@Z ; std::allocator<std::_Tree_node<std::pair<int const ,CGraphicImage *>,void *> >::destroy<std::_Tree_node<std::pair<int const ,CGraphicImage *>,void *> *>
PUBLIC	??$construct@U?$pair@$$CBHPAVCGraphicImage@@@std@@ABUpiecewise_construct_t@2@V?$tuple@ABH@2@V?$tuple@$$$V@2@@?$_Wrap_alloc@V?$allocator@U?$_Tree_node@U?$pair@$$CBHPAVCGraphicImage@@@std@@PAX@std@@@std@@@std@@QAEXPAU?$pair@$$CBHPAVCGraphicImage@@@1@ABUpiecewise_construct_t@1@$$QAV?$tuple@ABH@1@$$QAV?$tuple@$$$V@1@@Z ; std::_Wrap_alloc<std::allocator<std::_Tree_node<std::pair<int const ,CGraphicImage *>,void *> > >::construct<std::pair<int const ,CGraphicImage *>,std::piecewise_construct_t const &,std::tuple<int const &>,std::tuple<> >
PUBLIC	??$?0AAV?$_Tree_iterator@V?$_Tree_val@U?$_Tree_simple_types@U?$pair@$$CBHPAVCGraphicImage@@@std@@@std@@@std@@@std@@_NX@?$pair@V?$_Tree_iterator@V?$_Tree_val@U?$_Tree_simple_types@U?$pair@$$CBHPAVCGraphicImage@@@std@@@std@@@std@@@std@@_N@std@@QAE@AAV?$_Tree_iterator@V?$_Tree_val@U?$_Tree_simple_types@U?$pair@$$CBHPAVCGraphicImage@@@std@@@std@@@std@@@1@$$QA_N@Z ; std::pair<std::_Tree_iterator<std::_Tree_val<std::_Tree_simple_types<std::pair<int const ,CGraphicImage *> > > >,bool>::pair<std::_Tree_iterator<std::_Tree_val<std::_Tree_simple_types<std::pair<int const ,CGraphicImage *> > > >,bool><std::_Tree_iterator<std::_Tree_val<std::_Tree_simple_types<std::pair<int const ,CGraphicImage *> > > > &,bool,void>
PUBLIC	??$?0V?$_Tree_iterator@V?$_Tree_val@U?$_Tree_simple_types@U?$pair@$$CBHPAVCGraphicImage@@@std@@@std@@@std@@@std@@_NX@?$pair@V?$_Tree_iterator@V?$_Tree_val@U?$_Tree_simple_types@U?$pair@$$CBHPAVCGraphicImage@@@std@@@std@@@std@@@std@@_N@std@@QAE@$$QAV?$_Tree_iterator@V?$_Tree_val@U?$_Tree_simple_types@U?$pair@$$CBHPAVCGraphicImage@@@std@@@std@@@std@@@1@$$QA_N@Z ; std::pair<std::_Tree_iterator<std::_Tree_val<std::_Tree_simple_types<std::pair<int const ,CGraphicImage *> > > >,bool>::pair<std::_Tree_iterator<std::_Tree_val<std::_Tree_simple_types<std::pair<int const ,CGraphicImage *> > > >,bool><std::_Tree_iterator<std::_Tree_val<std::_Tree_simple_types<std::pair<int const ,CGraphicImage *> > > >,bool,void>
PUBLIC	??$_Insert_at@AAU?$pair@$$CBHPAVCGraphicImage@@@std@@PAU?$_Tree_node@U?$pair@$$CBHPAVCGraphicImage@@@std@@PAX@2@@?$_Tree@V?$_Tmap_traits@HPAVCGraphicImage@@U?$less@H@std@@V?$allocator@U?$pair@$$CBHPAVCGraphicImage@@@std@@@3@$0A@@std@@@std@@IAE?AV?$_Tree_iterator@V?$_Tree_val@U?$_Tree_simple_types@U?$pair@$$CBHPAVCGraphicImage@@@std@@@std@@@std@@@1@_NPAU?$_Tree_node@U?$pair@$$CBHPAVCGraphicImage@@@std@@PAX@1@AAU?$pair@$$CBHPAVCGraphicImage@@@1@1@Z ; std::_Tree<std::_Tmap_traits<int,CGraphicImage *,std::less<int>,std::allocator<std::pair<int const ,CGraphicImage *> >,0> >::_Insert_at<std::pair<int const ,CGraphicImage *> &,std::_Tree_node<std::pair<int const ,CGraphicImage *>,void *> *>
PUBLIC	??$forward@AAU?$pair@$$CBHPAVCGraphicImage@@@std@@@std@@YAAAU?$pair@$$CBHPAVCGraphicImage@@@0@AAU10@@Z ; std::forward<std::pair<int const ,CGraphicImage *> &>
PUBLIC	??$construct@U?$pair@$$CBHPAVCGraphicImage@@@std@@U?$pair@HPAVCGraphicImage@@@2@@?$_Wrap_alloc@V?$allocator@U?$_Tree_node@U?$pair@$$CBHPAVCGraphicImage@@@std@@PAX@std@@@std@@@std@@QAEXPAU?$pair@$$CBHPAVCGraphicImage@@@1@$$QAU?$pair@HPAVCGraphicImage@@@1@@Z ; std::_Wrap_alloc<std::allocator<std::_Tree_node<std::pair<int const ,CGraphicImage *>,void *> > >::construct<std::pair<int const ,CGraphicImage *>,std::pair<int,CGraphicImage *> >
PUBLIC	??F?$_Tree_unchecked_const_iterator@V?$_Tree_val@U?$_Tree_simple_types@U?$pair@$$CBHPAVCGraphicImage@@@std@@@std@@@std@@U_Iterator_base0@2@@std@@QAEAAV01@XZ ; std::_Tree_unchecked_const_iterator<std::_Tree_val<std::_Tree_simple_types<std::pair<int const ,CGraphicImage *> > >,std::_Iterator_base0>::operator--
PUBLIC	??0?$_Tree_unchecked_const_iterator@V?$_Tree_val@U?$_Tree_simple_types@U?$pair@$$CBHPAVCGraphicImage@@@std@@@std@@@std@@U_Iterator_base0@2@@std@@QAE@XZ ; std::_Tree_unchecked_const_iterator<std::_Tree_val<std::_Tree_simple_types<std::pair<int const ,CGraphicImage *> > >,std::_Iterator_base0>::_Tree_unchecked_const_iterator<std::_Tree_val<std::_Tree_simple_types<std::pair<int const ,CGraphicImage *> > >,std::_Iterator_base0>
PUBLIC	??F?$_Tree_const_iterator@V?$_Tree_val@U?$_Tree_simple_types@U?$pair@$$CBHPAVCGraphicImage@@@std@@@std@@@std@@@std@@QAEAAV01@XZ ; std::_Tree_const_iterator<std::_Tree_val<std::_Tree_simple_types<std::pair<int const ,CGraphicImage *> > > >::operator--
PUBLIC	??0?$_Tree_const_iterator@V?$_Tree_val@U?$_Tree_simple_types@U?$pair@$$CBHPAVCGraphicImage@@@std@@@std@@@std@@@std@@QAE@XZ ; std::_Tree_const_iterator<std::_Tree_val<std::_Tree_simple_types<std::pair<int const ,CGraphicImage *> > > >::_Tree_const_iterator<std::_Tree_val<std::_Tree_simple_types<std::pair<int const ,CGraphicImage *> > > >
PUBLIC	??F?$_Tree_iterator@V?$_Tree_val@U?$_Tree_simple_types@U?$pair@$$CBHPAVCGraphicImage@@@std@@@std@@@std@@@std@@QAEAAV01@XZ ; std::_Tree_iterator<std::_Tree_val<std::_Tree_simple_types<std::pair<int const ,CGraphicImage *> > > >::operator--
PUBLIC	?_Freenode0@?$_Tree_buy@U?$pair@$$CBHPAVCGraphicImage@@@std@@V?$allocator@U?$pair@$$CBHPAVCGraphicImage@@@std@@@2@@std@@QAEXPAU?$_Tree_node@U?$pair@$$CBHPAVCGraphicImage@@@std@@PAX@2@@Z ; std::_Tree_buy<std::pair<int const ,CGraphicImage *>,std::allocator<std::pair<int const ,CGraphicImage *> > >::_Freenode0
PUBLIC	?_Buynode0@?$_Tree_buy@U?$pair@$$CBHPAVCGraphicImage@@@std@@V?$allocator@U?$pair@$$CBHPAVCGraphicImage@@@std@@@2@@std@@QAEPAU?$_Tree_node@U?$pair@$$CBHPAVCGraphicImage@@@std@@PAX@2@XZ ; std::_Tree_buy<std::pair<int const ,CGraphicImage *>,std::allocator<std::pair<int const ,CGraphicImage *> > >::_Buynode0
PUBLIC	?_Destroy_if_not_nil@?$_Tree@V?$_Tmap_traits@HPAVCGraphicImage@@U?$less@H@std@@V?$allocator@U?$pair@$$CBHPAVCGraphicImage@@@std@@@3@$0A@@std@@@std@@IAEXPAU?$_Tree_node@U?$pair@$$CBHPAVCGraphicImage@@@std@@PAX@2@@Z ; std::_Tree<std::_Tmap_traits<int,CGraphicImage *,std::less<int>,std::allocator<std::pair<int const ,CGraphicImage *> >,0> >::_Destroy_if_not_nil
PUBLIC	?size@?$_Tree@V?$_Tmap_traits@HPAVCGraphicImage@@U?$less@H@std@@V?$allocator@U?$pair@$$CBHPAVCGraphicImage@@@std@@@3@$0A@@std@@@std@@QBEIXZ ; std::_Tree<std::_Tmap_traits<int,CGraphicImage *,std::less<int>,std::allocator<std::pair<int const ,CGraphicImage *> >,0> >::size
PUBLIC	??$?0ABH@?$_Tuple_val@ABH@std@@QAE@ABH@Z	; std::_Tuple_val<int const &>::_Tuple_val<int const &><int const &>
PUBLIC	??$construct@PAU?$_Tree_node@U?$pair@$$CBHPAVCGraphicImage@@@std@@PAX@std@@AAPAU12@@?$allocator_traits@V?$allocator@U?$_Tree_node@U?$pair@$$CBHPAVCGraphicImage@@@std@@PAX@std@@@std@@@std@@SAXAAV?$allocator@U?$_Tree_node@U?$pair@$$CBHPAVCGraphicImage@@@std@@PAX@std@@@1@PAPAU?$_Tree_node@U?$pair@$$CBHPAVCGraphicImage@@@std@@PAX@1@AAPAU31@@Z ; std::allocator_traits<std::allocator<std::_Tree_node<std::pair<int const ,CGraphicImage *>,void *> > >::construct<std::_Tree_node<std::pair<int const ,CGraphicImage *>,void *> *,std::_Tree_node<std::pair<int const ,CGraphicImage *>,void *> * &>
PUBLIC	??$forward@AAPAU?$_Tree_node@U?$pair@$$CBHPAVCGraphicImage@@@std@@PAX@std@@@std@@YAAAPAU?$_Tree_node@U?$pair@$$CBHPAVCGraphicImage@@@std@@PAX@0@AAPAU10@@Z ; std::forward<std::_Tree_node<std::pair<int const ,CGraphicImage *>,void *> * &>
PUBLIC	??$destroy@U?$pair@$$CBHPAVCGraphicImage@@@std@@@?$allocator_traits@V?$allocator@U?$_Tree_node@U?$pair@$$CBHPAVCGraphicImage@@@std@@PAX@std@@@std@@@std@@SAXAAV?$allocator@U?$_Tree_node@U?$pair@$$CBHPAVCGraphicImage@@@std@@PAX@std@@@1@PAU?$pair@$$CBHPAVCGraphicImage@@@1@@Z ; std::allocator_traits<std::allocator<std::_Tree_node<std::pair<int const ,CGraphicImage *>,void *> > >::destroy<std::pair<int const ,CGraphicImage *> >
PUBLIC	??$destroy@PAU?$_Tree_node@U?$pair@$$CBHPAVCGraphicImage@@@std@@PAX@std@@@?$allocator_traits@V?$allocator@U?$_Tree_node@U?$pair@$$CBHPAVCGraphicImage@@@std@@PAX@std@@@std@@@std@@SAXAAV?$allocator@U?$_Tree_node@U?$pair@$$CBHPAVCGraphicImage@@@std@@PAX@std@@@1@PAPAU?$_Tree_node@U?$pair@$$CBHPAVCGraphicImage@@@std@@PAX@1@@Z ; std::allocator_traits<std::allocator<std::_Tree_node<std::pair<int const ,CGraphicImage *>,void *> > >::destroy<std::_Tree_node<std::pair<int const ,CGraphicImage *>,void *> *>
PUBLIC	??$_Insert_hint@AAU?$pair@$$CBHPAVCGraphicImage@@@std@@PAU?$_Tree_node@U?$pair@$$CBHPAVCGraphicImage@@@std@@PAX@2@@?$_Tree@V?$_Tmap_traits@HPAVCGraphicImage@@U?$less@H@std@@V?$allocator@U?$pair@$$CBHPAVCGraphicImage@@@std@@@3@$0A@@std@@@std@@IAE?AV?$_Tree_iterator@V?$_Tree_val@U?$_Tree_simple_types@U?$pair@$$CBHPAVCGraphicImage@@@std@@@std@@@std@@@1@V?$_Tree_const_iterator@V?$_Tree_val@U?$_Tree_simple_types@U?$pair@$$CBHPAVCGraphicImage@@@std@@@std@@@std@@@1@AAU?$pair@$$CBHPAVCGraphicImage@@@1@PAU?$_Tree_node@U?$pair@$$CBHPAVCGraphicImage@@@std@@PAX@1@@Z ; std::_Tree<std::_Tmap_traits<int,CGraphicImage *,std::less<int>,std::allocator<std::pair<int const ,CGraphicImage *> >,0> >::_Insert_hint<std::pair<int const ,CGraphicImage *> &,std::_Tree_node<std::pair<int const ,CGraphicImage *>,void *> *>
PUBLIC	??$_Buynode@ABUpiecewise_construct_t@std@@V?$tuple@ABH@2@V?$tuple@$$$V@2@@?$_Tree_buy@U?$pair@$$CBHPAVCGraphicImage@@@std@@V?$allocator@U?$pair@$$CBHPAVCGraphicImage@@@std@@@2@@std@@QAEPAU?$_Tree_node@U?$pair@$$CBHPAVCGraphicImage@@@std@@PAX@1@ABUpiecewise_construct_t@1@$$QAV?$tuple@ABH@1@$$QAV?$tuple@$$$V@1@@Z ; std::_Tree_buy<std::pair<int const ,CGraphicImage *>,std::allocator<std::pair<int const ,CGraphicImage *> > >::_Buynode<std::piecewise_construct_t const &,std::tuple<int const &>,std::tuple<> >
PUBLIC	??$forward@V?$tuple@ABH@std@@@std@@YA$$QAV?$tuple@ABH@0@AAV10@@Z ; std::forward<std::tuple<int const &> >
PUBLIC	??$_Insert_nohint@AAU?$pair@$$CBHPAVCGraphicImage@@@std@@PAU?$_Tree_node@U?$pair@$$CBHPAVCGraphicImage@@@std@@PAX@2@@?$_Tree@V?$_Tmap_traits@HPAVCGraphicImage@@U?$less@H@std@@V?$allocator@U?$pair@$$CBHPAVCGraphicImage@@@std@@@3@$0A@@std@@@std@@IAE?AU?$pair@V?$_Tree_iterator@V?$_Tree_val@U?$_Tree_simple_types@U?$pair@$$CBHPAVCGraphicImage@@@std@@@std@@@std@@@std@@_N@1@_NAAU?$pair@$$CBHPAVCGraphicImage@@@1@PAU?$_Tree_node@U?$pair@$$CBHPAVCGraphicImage@@@std@@PAX@1@@Z ; std::_Tree<std::_Tmap_traits<int,CGraphicImage *,std::less<int>,std::allocator<std::pair<int const ,CGraphicImage *> >,0> >::_Insert_nohint<std::pair<int const ,CGraphicImage *> &,std::_Tree_node<std::pair<int const ,CGraphicImage *>,void *> *>
PUBLIC	??$_Buynode@U?$pair@HPAVCGraphicImage@@@std@@@?$_Tree_buy@U?$pair@$$CBHPAVCGraphicImage@@@std@@V?$allocator@U?$pair@$$CBHPAVCGraphicImage@@@std@@@2@@std@@QAEPAU?$_Tree_node@U?$pair@$$CBHPAVCGraphicImage@@@std@@PAX@1@$$QAU?$pair@HPAVCGraphicImage@@@1@@Z ; std::_Tree_buy<std::pair<int const ,CGraphicImage *>,std::allocator<std::pair<int const ,CGraphicImage *> > >::_Buynode<std::pair<int,CGraphicImage *> >
PUBLIC	??$forward@U?$pair@HPAVCGraphicImage@@@std@@@std@@YA$$QAU?$pair@HPAVCGraphicImage@@@0@AAU10@@Z ; std::forward<std::pair<int,CGraphicImage *> >
PUBLIC	??$?0AAHAAPAVCGraphicImage@@X@?$pair@HPAVCGraphicImage@@@std@@QAE@AAHAAPAVCGraphicImage@@@Z ; std::pair<int,CGraphicImage *>::pair<int,CGraphicImage *><int &,CGraphicImage * &,void>
PUBLIC	??$forward@AAPAVCGraphicImage@@@std@@YAAAPAVCGraphicImage@@AAPAV1@@Z ; std::forward<CGraphicImage * &>
PUBLIC	??0?$tuple@ABH@std@@QAE@ABH@Z			; std::tuple<int const &>::tuple<int const &>
PUBLIC	??$_Allocate@U?$_Tree_node@U?$pair@$$CBHPAVCGraphicImage@@@std@@PAX@std@@@std@@YAPAU?$_Tree_node@U?$pair@$$CBHPAVCGraphicImage@@@std@@PAX@0@IPAU10@@Z ; std::_Allocate<std::_Tree_node<std::pair<int const ,CGraphicImage *>,void *> >
PUBLIC	??$construct@PAU?$_Tree_node@U?$pair@$$CBHPAVCGraphicImage@@@std@@PAX@std@@AAPAU12@@?$_Wrap_alloc@V?$allocator@U?$_Tree_node@U?$pair@$$CBHPAVCGraphicImage@@@std@@PAX@std@@@std@@@std@@QAEXPAPAU?$_Tree_node@U?$pair@$$CBHPAVCGraphicImage@@@std@@PAX@1@AAPAU21@@Z ; std::_Wrap_alloc<std::allocator<std::_Tree_node<std::pair<int const ,CGraphicImage *>,void *> > >::construct<std::_Tree_node<std::pair<int const ,CGraphicImage *>,void *> *,std::_Tree_node<std::pair<int const ,CGraphicImage *>,void *> * &>
PUBLIC	??$destroy@U?$pair@$$CBHPAVCGraphicImage@@@std@@@?$_Wrap_alloc@V?$allocator@U?$_Tree_node@U?$pair@$$CBHPAVCGraphicImage@@@std@@PAX@std@@@std@@@std@@QAEXPAU?$pair@$$CBHPAVCGraphicImage@@@1@@Z ; std::_Wrap_alloc<std::allocator<std::_Tree_node<std::pair<int const ,CGraphicImage *>,void *> > >::destroy<std::pair<int const ,CGraphicImage *> >
PUBLIC	??$addressof@U?$pair@$$CBHPAVCGraphicImage@@@std@@@std@@YAPAU?$pair@$$CBHPAVCGraphicImage@@@0@AAU10@@Z ; std::addressof<std::pair<int const ,CGraphicImage *> >
PUBLIC	??$destroy@PAU?$_Tree_node@U?$pair@$$CBHPAVCGraphicImage@@@std@@PAX@std@@@?$_Wrap_alloc@V?$allocator@U?$_Tree_node@U?$pair@$$CBHPAVCGraphicImage@@@std@@PAX@std@@@std@@@std@@QAEXPAPAU?$_Tree_node@U?$pair@$$CBHPAVCGraphicImage@@@std@@PAX@1@@Z ; std::_Wrap_alloc<std::allocator<std::_Tree_node<std::pair<int const ,CGraphicImage *>,void *> > >::destroy<std::_Tree_node<std::pair<int const ,CGraphicImage *>,void *> *>
PUBLIC	??$addressof@PAU?$_Tree_node@U?$pair@$$CBHPAVCGraphicImage@@@std@@PAX@std@@@std@@YAPAPAU?$_Tree_node@U?$pair@$$CBHPAVCGraphicImage@@@std@@PAX@0@AAPAU10@@Z ; std::addressof<std::_Tree_node<std::pair<int const ,CGraphicImage *>,void *> *>
PUBLIC	??$_Kfn@$$CBHPAVCGraphicImage@@@?$_Tmap_traits@HPAVCGraphicImage@@U?$less@H@std@@V?$allocator@U?$pair@$$CBHPAVCGraphicImage@@@std@@@3@$0A@@std@@SAABHABU?$pair@$$CBHPAVCGraphicImage@@@1@@Z ; std::_Tmap_traits<int,CGraphicImage *,std::less<int>,std::allocator<std::pair<int const ,CGraphicImage *> >,0>::_Kfn<int const ,CGraphicImage *>
PUBLIC	??$emplace_hint@ABUpiecewise_construct_t@std@@V?$tuple@ABH@2@V?$tuple@$$$V@2@@?$_Tree@V?$_Tmap_traits@HPAVCGraphicImage@@U?$less@H@std@@V?$allocator@U?$pair@$$CBHPAVCGraphicImage@@@std@@@3@$0A@@std@@@std@@QAE?AV?$_Tree_iterator@V?$_Tree_val@U?$_Tree_simple_types@U?$pair@$$CBHPAVCGraphicImage@@@std@@@std@@@std@@@1@V?$_Tree_const_iterator@V?$_Tree_val@U?$_Tree_simple_types@U?$pair@$$CBHPAVCGraphicImage@@@std@@@std@@@std@@@1@ABUpiecewise_construct_t@1@$$QAV?$tuple@ABH@1@$$QAV?$tuple@$$$V@1@@Z ; std::_Tree<std::_Tmap_traits<int,CGraphicImage *,std::less<int>,std::allocator<std::pair<int const ,CGraphicImage *> >,0> >::emplace_hint<std::piecewise_construct_t const &,std::tuple<int const &>,std::tuple<> >
PUBLIC	??$forward_as_tuple@ABH@std@@YA?AV?$tuple@ABH@0@ABH@Z ; std::forward_as_tuple<int const &>
PUBLIC	??$insert@U?$pair@HPAVCGraphicImage@@@std@@@?$_Tree@V?$_Tmap_traits@HPAVCGraphicImage@@U?$less@H@std@@V?$allocator@U?$pair@$$CBHPAVCGraphicImage@@@std@@@3@$0A@@std@@@std@@QAE?AU?$pair@V?$_Tree_iterator@V?$_Tree_val@U?$_Tree_simple_types@U?$pair@$$CBHPAVCGraphicImage@@@std@@@std@@@std@@@std@@_N@1@$$QAU?$pair@HPAVCGraphicImage@@@1@@Z ; std::_Tree<std::_Tmap_traits<int,CGraphicImage *,std::less<int>,std::allocator<std::pair<int const ,CGraphicImage *> >,0> >::insert<std::pair<int,CGraphicImage *> >
PUBLIC	??$make_pair@AAHAAPAVCGraphicImage@@@std@@YA?AU?$pair@HPAVCGraphicImage@@@0@AAHAAPAVCGraphicImage@@@Z ; std::make_pair<int &,CGraphicImage * &>
PUBLIC	?allocate@?$allocator@U?$_Tree_node@U?$pair@$$CBHPAVCGraphicImage@@@std@@PAX@std@@@std@@QAEPAU?$_Tree_node@U?$pair@$$CBHPAVCGraphicImage@@@std@@PAX@2@I@Z ; std::allocator<std::_Tree_node<std::pair<int const ,CGraphicImage *>,void *> >::allocate
PUBLIC	?allocate@?$_Wrap_alloc@V?$allocator@U?$_Tree_node@U?$pair@$$CBHPAVCGraphicImage@@@std@@PAX@std@@@std@@@std@@QAEPAU?$_Tree_node@U?$pair@$$CBHPAVCGraphicImage@@@std@@PAX@2@I@Z ; std::_Wrap_alloc<std::allocator<std::_Tree_node<std::pair<int const ,CGraphicImage *>,void *> > >::allocate
PUBLIC	??E?$_Tree_unchecked_const_iterator@V?$_Tree_val@U?$_Tree_simple_types@U?$pair@$$CBHPAVCGraphicImage@@@std@@@std@@@std@@U_Iterator_base0@2@@std@@QAEAAV01@XZ ; std::_Tree_unchecked_const_iterator<std::_Tree_val<std::_Tree_simple_types<std::pair<int const ,CGraphicImage *> > >,std::_Iterator_base0>::operator++
PUBLIC	??0?$_Tree_val@U?$_Tree_simple_types@U?$pair@$$CBHPAVCGraphicImage@@@std@@@std@@@std@@QAE@XZ ; std::_Tree_val<std::_Tree_simple_types<std::pair<int const ,CGraphicImage *> > >::_Tree_val<std::_Tree_simple_types<std::pair<int const ,CGraphicImage *> > >
PUBLIC	??0?$allocator@U?$_Tree_node@U?$pair@$$CBHPAVCGraphicImage@@@std@@PAX@std@@@std@@QAE@XZ ; std::allocator<std::_Tree_node<std::pair<int const ,CGraphicImage *>,void *> >::allocator<std::_Tree_node<std::pair<int const ,CGraphicImage *>,void *> >
PUBLIC	?_Buyheadnode@?$_Tree_alloc@$0A@U?$_Tree_base_types@U?$pair@$$CBHPAVCGraphicImage@@@std@@V?$allocator@U?$pair@$$CBHPAVCGraphicImage@@@std@@@2@@std@@@std@@QAEPAU?$_Tree_node@U?$pair@$$CBHPAVCGraphicImage@@@std@@PAX@2@XZ ; std::_Tree_alloc<0,std::_Tree_base_types<std::pair<int const ,CGraphicImage *>,std::allocator<std::pair<int const ,CGraphicImage *> > > >::_Buyheadnode
PUBLIC	??E?$_Tree_const_iterator@V?$_Tree_val@U?$_Tree_simple_types@U?$pair@$$CBHPAVCGraphicImage@@@std@@@std@@@std@@@std@@QAEAAV01@XZ ; std::_Tree_const_iterator<std::_Tree_val<std::_Tree_simple_types<std::pair<int const ,CGraphicImage *> > > >::operator++
PUBLIC	?_Min@?$_Tree_val@U?$_Tree_simple_types@U?$pair@$$CBHPAVCGraphicImage@@@std@@@std@@@std@@SAPAU?$_Tree_node@U?$pair@$$CBHPAVCGraphicImage@@@std@@PAX@2@PAU32@@Z ; std::_Tree_val<std::_Tree_simple_types<std::pair<int const ,CGraphicImage *> > >::_Min
PUBLIC	?_Max@?$_Tree_val@U?$_Tree_simple_types@U?$pair@$$CBHPAVCGraphicImage@@@std@@@std@@@std@@SAPAU?$_Tree_node@U?$pair@$$CBHPAVCGraphicImage@@@std@@PAX@2@PAU32@@Z ; std::_Tree_val<std::_Tree_simple_types<std::pair<int const ,CGraphicImage *> > >::_Max
PUBLIC	?_Color@?$_Tree_val@U?$_Tree_simple_types@U?$pair@$$CBHPAVCGraphicImage@@@std@@@std@@@std@@SAAADPAU?$_Tree_node@U?$pair@$$CBHPAVCGraphicImage@@@std@@PAX@2@@Z ; std::_Tree_val<std::_Tree_simple_types<std::pair<int const ,CGraphicImage *> > >::_Color
PUBLIC	?deallocate@?$allocator@U?$_Tree_node@U?$pair@$$CBHPAVCGraphicImage@@@std@@PAX@std@@@std@@QAEXPAU?$_Tree_node@U?$pair@$$CBHPAVCGraphicImage@@@std@@PAX@2@I@Z ; std::allocator<std::_Tree_node<std::pair<int const ,CGraphicImage *>,void *> >::deallocate
PUBLIC	??0?$_Wrap_alloc@V?$allocator@U?$_Tree_node@U?$pair@$$CBHPAVCGraphicImage@@@std@@PAX@std@@@std@@@std@@QAE@XZ ; std::_Wrap_alloc<std::allocator<std::_Tree_node<std::pair<int const ,CGraphicImage *>,void *> > >::_Wrap_alloc<std::allocator<std::_Tree_node<std::pair<int const ,CGraphicImage *>,void *> > >
PUBLIC	??0?$_Tree_alloc@$0A@U?$_Tree_base_types@U?$pair@$$CBHPAVCGraphicImage@@@std@@V?$allocator@U?$pair@$$CBHPAVCGraphicImage@@@std@@@2@@std@@@std@@QAE@ABV?$allocator@U?$pair@$$CBHPAVCGraphicImage@@@std@@@1@@Z ; std::_Tree_alloc<0,std::_Tree_base_types<std::pair<int const ,CGraphicImage *>,std::allocator<std::pair<int const ,CGraphicImage *> > > >::_Tree_alloc<0,std::_Tree_base_types<std::pair<int const ,CGraphicImage *>,std::allocator<std::pair<int const ,CGraphicImage *> > > >
PUBLIC	?_Rrotate@?$_Tree@V?$_Tmap_traits@HPAVCGraphicImage@@U?$less@H@std@@V?$allocator@U?$pair@$$CBHPAVCGraphicImage@@@std@@@3@$0A@@std@@@std@@IAEXPAU?$_Tree_node@U?$pair@$$CBHPAVCGraphicImage@@@std@@PAX@2@@Z ; std::_Tree<std::_Tmap_traits<int,CGraphicImage *,std::less<int>,std::allocator<std::pair<int const ,CGraphicImage *> >,0> >::_Rrotate
PUBLIC	?_Rmost@?$_Tree@V?$_Tmap_traits@HPAVCGraphicImage@@U?$less@H@std@@V?$allocator@U?$pair@$$CBHPAVCGraphicImage@@@std@@@3@$0A@@std@@@std@@IBEAAPAU?$_Tree_node@U?$pair@$$CBHPAVCGraphicImage@@@std@@PAX@2@XZ ; std::_Tree<std::_Tmap_traits<int,CGraphicImage *,std::less<int>,std::allocator<std::pair<int const ,CGraphicImage *> >,0> >::_Rmost
PUBLIC	?_Lrotate@?$_Tree@V?$_Tmap_traits@HPAVCGraphicImage@@U?$less@H@std@@V?$allocator@U?$pair@$$CBHPAVCGraphicImage@@@std@@@3@$0A@@std@@@std@@IAEXPAU?$_Tree_node@U?$pair@$$CBHPAVCGraphicImage@@@std@@PAX@2@@Z ; std::_Tree<std::_Tmap_traits<int,CGraphicImage *,std::less<int>,std::allocator<std::pair<int const ,CGraphicImage *> >,0> >::_Lrotate
PUBLIC	?_Erase@?$_Tree@V?$_Tmap_traits@HPAVCGraphicImage@@U?$less@H@std@@V?$allocator@U?$pair@$$CBHPAVCGraphicImage@@@std@@@3@$0A@@std@@@std@@IAEXPAU?$_Tree_node@U?$pair@$$CBHPAVCGraphicImage@@@std@@PAX@2@@Z ; std::_Tree<std::_Tmap_traits<int,CGraphicImage *,std::less<int>,std::allocator<std::pair<int const ,CGraphicImage *> >,0> >::_Erase
PUBLIC	??0?$_Tree_unchecked_const_iterator@V?$_Tree_val@U?$_Tree_simple_types@U?$pair@$$CBHPAVCGraphicImage@@@std@@@std@@@std@@U_Iterator_base0@2@@std@@QAE@PAU?$_Tree_node@U?$pair@$$CBHPAVCGraphicImage@@@std@@PAX@1@PBV?$_Tree_val@U?$_Tree_simple_types@U?$pair@$$CBHPAVCGraphicImage@@@std@@@std@@@1@@Z ; std::_Tree_unchecked_const_iterator<std::_Tree_val<std::_Tree_simple_types<std::pair<int const ,CGraphicImage *> > >,std::_Iterator_base0>::_Tree_unchecked_const_iterator<std::_Tree_val<std::_Tree_simple_types<std::pair<int const ,CGraphicImage *> > >,std::_Iterator_base0>
PUBLIC	??9?$_Tree_const_iterator@V?$_Tree_val@U?$_Tree_simple_types@U?$pair@$$CBHPAVCGraphicImage@@@std@@@std@@@std@@@std@@QBE_NABV01@@Z ; std::_Tree_const_iterator<std::_Tree_val<std::_Tree_simple_types<std::pair<int const ,CGraphicImage *> > > >::operator!=
PUBLIC	??E?$_Tree_const_iterator@V?$_Tree_val@U?$_Tree_simple_types@U?$pair@$$CBHPAVCGraphicImage@@@std@@@std@@@std@@@std@@QAE?AV01@H@Z ; std::_Tree_const_iterator<std::_Tree_val<std::_Tree_simple_types<std::pair<int const ,CGraphicImage *> > > >::operator++
PUBLIC	??D?$_Tree_const_iterator@V?$_Tree_val@U?$_Tree_simple_types@U?$pair@$$CBHPAVCGraphicImage@@@std@@@std@@@std@@@std@@QBEABU?$pair@$$CBHPAVCGraphicImage@@@1@XZ ; std::_Tree_const_iterator<std::_Tree_val<std::_Tree_simple_types<std::pair<int const ,CGraphicImage *> > > >::operator*
PUBLIC	?_Right@?$_Tree_val@U?$_Tree_simple_types@U?$pair@$$CBHPAVCGraphicImage@@@std@@@std@@@std@@SAAAPAU?$_Tree_node@U?$pair@$$CBHPAVCGraphicImage@@@std@@PAX@2@PAU32@@Z ; std::_Tree_val<std::_Tree_simple_types<std::pair<int const ,CGraphicImage *> > >::_Right
PUBLIC	?_Parent@?$_Tree_val@U?$_Tree_simple_types@U?$pair@$$CBHPAVCGraphicImage@@@std@@@std@@@std@@SAAAPAU?$_Tree_node@U?$pair@$$CBHPAVCGraphicImage@@@std@@PAX@2@PAU32@@Z ; std::_Tree_val<std::_Tree_simple_types<std::pair<int const ,CGraphicImage *> > >::_Parent
PUBLIC	?_Left@?$_Tree_val@U?$_Tree_simple_types@U?$pair@$$CBHPAVCGraphicImage@@@std@@@std@@@std@@SAAAPAU?$_Tree_node@U?$pair@$$CBHPAVCGraphicImage@@@std@@PAX@2@PAU32@@Z ; std::_Tree_val<std::_Tree_simple_types<std::pair<int const ,CGraphicImage *> > >::_Left
PUBLIC	?_Isnil@?$_Tree_val@U?$_Tree_simple_types@U?$pair@$$CBHPAVCGraphicImage@@@std@@@std@@@std@@SAAADPAU?$_Tree_node@U?$pair@$$CBHPAVCGraphicImage@@@std@@PAX@2@@Z ; std::_Tree_val<std::_Tree_simple_types<std::pair<int const ,CGraphicImage *> > >::_Isnil
PUBLIC	?deallocate@?$_Wrap_alloc@V?$allocator@U?$_Tree_node@U?$pair@$$CBHPAVCGraphicImage@@@std@@PAX@std@@@std@@@std@@QAEXPAU?$_Tree_node@U?$pair@$$CBHPAVCGraphicImage@@@std@@PAX@2@I@Z ; std::_Wrap_alloc<std::allocator<std::_Tree_node<std::pair<int const ,CGraphicImage *>,void *> > >::deallocate
PUBLIC	?_Getal@?$_Tree_alloc@$0A@U?$_Tree_base_types@U?$pair@$$CBHPAVCGraphicImage@@@std@@V?$allocator@U?$pair@$$CBHPAVCGraphicImage@@@std@@@2@@std@@@std@@QBE?AU?$_Wrap_alloc@V?$allocator@U?$_Tree_node@U?$pair@$$CBHPAVCGraphicImage@@@std@@PAX@std@@@std@@@2@XZ ; std::_Tree_alloc<0,std::_Tree_base_types<std::pair<int const ,CGraphicImage *>,std::allocator<std::pair<int const ,CGraphicImage *> > > >::_Getal
PUBLIC	??0?$_Tree_buy@U?$pair@$$CBHPAVCGraphicImage@@@std@@V?$allocator@U?$pair@$$CBHPAVCGraphicImage@@@std@@@2@@std@@QAE@ABV?$allocator@U?$pair@$$CBHPAVCGraphicImage@@@std@@@1@@Z ; std::_Tree_buy<std::pair<int const ,CGraphicImage *>,std::allocator<std::pair<int const ,CGraphicImage *> > >::_Tree_buy<std::pair<int const ,CGraphicImage *>,std::allocator<std::pair<int const ,CGraphicImage *> > >
PUBLIC	?_Root@?$_Tree@V?$_Tmap_traits@HPAVCGraphicImage@@U?$less@H@std@@V?$allocator@U?$pair@$$CBHPAVCGraphicImage@@@std@@@3@$0A@@std@@@std@@IBEAAPAU?$_Tree_node@U?$pair@$$CBHPAVCGraphicImage@@@std@@PAX@2@XZ ; std::_Tree<std::_Tmap_traits<int,CGraphicImage *,std::less<int>,std::allocator<std::pair<int const ,CGraphicImage *> >,0> >::_Root
PUBLIC	?_Lmost@?$_Tree@V?$_Tmap_traits@HPAVCGraphicImage@@U?$less@H@std@@V?$allocator@U?$pair@$$CBHPAVCGraphicImage@@@std@@@3@$0A@@std@@@std@@IBEAAPAU?$_Tree_node@U?$pair@$$CBHPAVCGraphicImage@@@std@@PAX@2@XZ ; std::_Tree<std::_Tmap_traits<int,CGraphicImage *,std::less<int>,std::allocator<std::pair<int const ,CGraphicImage *> >,0> >::_Lmost
PUBLIC	?clear@?$_Tree@V?$_Tmap_traits@HPAVCGraphicImage@@U?$less@H@std@@V?$allocator@U?$pair@$$CBHPAVCGraphicImage@@@std@@@3@$0A@@std@@@std@@QAEXXZ ; std::_Tree<std::_Tmap_traits<int,CGraphicImage *,std::less<int>,std::allocator<std::pair<int const ,CGraphicImage *> >,0> >::clear
PUBLIC	?erase@?$_Tree@V?$_Tmap_traits@HPAVCGraphicImage@@U?$less@H@std@@V?$allocator@U?$pair@$$CBHPAVCGraphicImage@@@std@@@3@$0A@@std@@@std@@QAE?AV?$_Tree_iterator@V?$_Tree_val@U?$_Tree_simple_types@U?$pair@$$CBHPAVCGraphicImage@@@std@@@std@@@std@@@2@V?$_Tree_const_iterator@V?$_Tree_val@U?$_Tree_simple_types@U?$pair@$$CBHPAVCGraphicImage@@@std@@@std@@@std@@@2@@Z ; std::_Tree<std::_Tmap_traits<int,CGraphicImage *,std::less<int>,std::allocator<std::pair<int const ,CGraphicImage *> >,0> >::erase
PUBLIC	?pointer_to@?$pointer_traits@PAU?$pair@$$CBHPAVCGraphicImage@@@std@@@std@@SAPAU?$pair@$$CBHPAVCGraphicImage@@@2@AAU32@@Z ; std::pointer_traits<std::pair<int const ,CGraphicImage *> *>::pointer_to
PUBLIC	??0?$_Tree_const_iterator@V?$_Tree_val@U?$_Tree_simple_types@U?$pair@$$CBHPAVCGraphicImage@@@std@@@std@@@std@@@std@@QAE@PAU?$_Tree_node@U?$pair@$$CBHPAVCGraphicImage@@@std@@PAX@1@PBV?$_Tree_val@U?$_Tree_simple_types@U?$pair@$$CBHPAVCGraphicImage@@@std@@@std@@@1@@Z ; std::_Tree_const_iterator<std::_Tree_val<std::_Tree_simple_types<std::pair<int const ,CGraphicImage *> > > >::_Tree_const_iterator<std::_Tree_val<std::_Tree_simple_types<std::pair<int const ,CGraphicImage *> > > >
PUBLIC	??D?$_Tree_iterator@V?$_Tree_val@U?$_Tree_simple_types@U?$pair@$$CBHPAVCGraphicImage@@@std@@@std@@@std@@@std@@QBEAAU?$pair@$$CBHPAVCGraphicImage@@@1@XZ ; std::_Tree_iterator<std::_Tree_val<std::_Tree_simple_types<std::pair<int const ,CGraphicImage *> > > >::operator*
PUBLIC	?_Myval@?$_Tree_val@U?$_Tree_simple_types@U?$pair@$$CBHPAVCGraphicImage@@@std@@@std@@@std@@SAAAU?$pair@$$CBHPAVCGraphicImage@@@2@PAU?$_Tree_node@U?$pair@$$CBHPAVCGraphicImage@@@std@@PAX@2@@Z ; std::_Tree_val<std::_Tree_simple_types<std::pair<int const ,CGraphicImage *> > >::_Myval
PUBLIC	?_Freeheadnode@?$_Tree_alloc@$0A@U?$_Tree_base_types@U?$pair@$$CBHPAVCGraphicImage@@@std@@V?$allocator@U?$pair@$$CBHPAVCGraphicImage@@@std@@@2@@std@@@std@@QAEXPAU?$_Tree_node@U?$pair@$$CBHPAVCGraphicImage@@@std@@PAX@2@@Z ; std::_Tree_alloc<0,std::_Tree_base_types<std::pair<int const ,CGraphicImage *>,std::allocator<std::pair<int const ,CGraphicImage *> > > >::_Freeheadnode
PUBLIC	??0?$_Tree_comp@$0A@V?$_Tmap_traits@HPAVCGraphicImage@@U?$less@H@std@@V?$allocator@U?$pair@$$CBHPAVCGraphicImage@@@std@@@3@$0A@@std@@@std@@QAE@ABU?$less@H@1@ABV?$allocator@U?$pair@$$CBHPAVCGraphicImage@@@std@@@1@@Z ; std::_Tree_comp<0,std::_Tmap_traits<int,CGraphicImage *,std::less<int>,std::allocator<std::pair<int const ,CGraphicImage *> >,0> >::_Tree_comp<0,std::_Tmap_traits<int,CGraphicImage *,std::less<int>,std::allocator<std::pair<int const ,CGraphicImage *> >,0> >
PUBLIC	?_Kfn@?$_Tree@V?$_Tmap_traits@HPAVCGraphicImage@@U?$less@H@std@@V?$allocator@U?$pair@$$CBHPAVCGraphicImage@@@std@@@3@$0A@@std@@@std@@IBEABHABU?$pair@$$CBHPAVCGraphicImage@@@2@@Z ; std::_Tree<std::_Tmap_traits<int,CGraphicImage *,std::less<int>,std::allocator<std::pair<int const ,CGraphicImage *> >,0> >::_Kfn
PUBLIC	?_Lbound@?$_Tree@V?$_Tmap_traits@HPAVCGraphicImage@@U?$less@H@std@@V?$allocator@U?$pair@$$CBHPAVCGraphicImage@@@std@@@3@$0A@@std@@@std@@IAEPAU?$_Tree_node@U?$pair@$$CBHPAVCGraphicImage@@@std@@PAX@2@ABH@Z ; std::_Tree<std::_Tmap_traits<int,CGraphicImage *,std::less<int>,std::allocator<std::pair<int const ,CGraphicImage *> >,0> >::_Lbound
PUBLIC	?erase@?$_Tree@V?$_Tmap_traits@HPAVCGraphicImage@@U?$less@H@std@@V?$allocator@U?$pair@$$CBHPAVCGraphicImage@@@std@@@3@$0A@@std@@@std@@QAE?AV?$_Tree_iterator@V?$_Tree_val@U?$_Tree_simple_types@U?$pair@$$CBHPAVCGraphicImage@@@std@@@std@@@std@@@2@V?$_Tree_const_iterator@V?$_Tree_val@U?$_Tree_simple_types@U?$pair@$$CBHPAVCGraphicImage@@@std@@@std@@@std@@@2@0@Z ; std::_Tree<std::_Tmap_traits<int,CGraphicImage *,std::less<int>,std::allocator<std::pair<int const ,CGraphicImage *> >,0> >::erase
PUBLIC	?begin@?$_Tree@V?$_Tmap_traits@HPAVCGraphicImage@@U?$less@H@std@@V?$allocator@U?$pair@$$CBHPAVCGraphicImage@@@std@@@3@$0A@@std@@@std@@QAE?AV?$_Tree_iterator@V?$_Tree_val@U?$_Tree_simple_types@U?$pair@$$CBHPAVCGraphicImage@@@std@@@std@@@std@@@2@XZ ; std::_Tree<std::_Tmap_traits<int,CGraphicImage *,std::less<int>,std::allocator<std::pair<int const ,CGraphicImage *> >,0> >::begin
PUBLIC	?_Mynode@?$_Tree_unchecked_const_iterator@V?$_Tree_val@U?$_Tree_simple_types@U?$pair@$$CBHPAVCGraphicImage@@@std@@@std@@@std@@U_Iterator_base0@2@@std@@QBEPAU?$_Tree_node@U?$pair@$$CBHPAVCGraphicImage@@@std@@PAX@2@XZ ; std::_Tree_unchecked_const_iterator<std::_Tree_val<std::_Tree_simple_types<std::pair<int const ,CGraphicImage *> > >,std::_Iterator_base0>::_Mynode
PUBLIC	??C?$_Tree_iterator@V?$_Tree_val@U?$_Tree_simple_types@U?$pair@$$CBHPAVCGraphicImage@@@std@@@std@@@std@@@std@@QBEPAU?$pair@$$CBHPAVCGraphicImage@@@1@XZ ; std::_Tree_iterator<std::_Tree_val<std::_Tree_simple_types<std::pair<int const ,CGraphicImage *> > > >::operator->
PUBLIC	??0?$_Tree_iterator@V?$_Tree_val@U?$_Tree_simple_types@U?$pair@$$CBHPAVCGraphicImage@@@std@@@std@@@std@@@std@@QAE@PAU?$_Tree_node@U?$pair@$$CBHPAVCGraphicImage@@@std@@PAX@1@PBV?$_Tree_val@U?$_Tree_simple_types@U?$pair@$$CBHPAVCGraphicImage@@@std@@@std@@@1@@Z ; std::_Tree_iterator<std::_Tree_val<std::_Tree_simple_types<std::pair<int const ,CGraphicImage *> > > >::_Tree_iterator<std::_Tree_val<std::_Tree_simple_types<std::pair<int const ,CGraphicImage *> > > >
PUBLIC	??1?$_Tree_alloc@$0A@U?$_Tree_base_types@U?$pair@$$CBHPAVCGraphicImage@@@std@@V?$allocator@U?$pair@$$CBHPAVCGraphicImage@@@std@@@2@@std@@@std@@QAE@XZ ; std::_Tree_alloc<0,std::_Tree_base_types<std::pair<int const ,CGraphicImage *>,std::allocator<std::pair<int const ,CGraphicImage *> > > >::~_Tree_alloc<0,std::_Tree_base_types<std::pair<int const ,CGraphicImage *>,std::allocator<std::pair<int const ,CGraphicImage *> > > >
PUBLIC	??0?$allocator@U?$pair@$$CBHPAVCGraphicImage@@@std@@@std@@QAE@XZ ; std::allocator<std::pair<int const ,CGraphicImage *> >::allocator<std::pair<int const ,CGraphicImage *> >
PUBLIC	?_Getcomp@?$_Tree_comp@$0A@V?$_Tmap_traits@HPAVCGraphicImage@@U?$less@H@std@@V?$allocator@U?$pair@$$CBHPAVCGraphicImage@@@std@@@3@$0A@@std@@@std@@QBE?AU?$less@H@2@XZ ; std::_Tree_comp<0,std::_Tmap_traits<int,CGraphicImage *,std::less<int>,std::allocator<std::pair<int const ,CGraphicImage *> >,0> >::_Getcomp
PUBLIC	?_Key@?$_Tree@V?$_Tmap_traits@HPAVCGraphicImage@@U?$less@H@std@@V?$allocator@U?$pair@$$CBHPAVCGraphicImage@@@std@@@3@$0A@@std@@@std@@IBEABHPAU?$_Tree_node@U?$pair@$$CBHPAVCGraphicImage@@@std@@PAX@2@@Z ; std::_Tree<std::_Tmap_traits<int,CGraphicImage *,std::less<int>,std::allocator<std::pair<int const ,CGraphicImage *> >,0> >::_Key
PUBLIC	?_Tidy@?$_Tree@V?$_Tmap_traits@HPAVCGraphicImage@@U?$less@H@std@@V?$allocator@U?$pair@$$CBHPAVCGraphicImage@@@std@@@3@$0A@@std@@@std@@IAEXXZ ; std::_Tree<std::_Tmap_traits<int,CGraphicImage *,std::less<int>,std::allocator<std::pair<int const ,CGraphicImage *> >,0> >::_Tidy
PUBLIC	?lower_bound@?$_Tree@V?$_Tmap_traits@HPAVCGraphicImage@@U?$less@H@std@@V?$allocator@U?$pair@$$CBHPAVCGraphicImage@@@std@@@3@$0A@@std@@@std@@QAE?AV?$_Tree_iterator@V?$_Tree_val@U?$_Tree_simple_types@U?$pair@$$CBHPAVCGraphicImage@@@std@@@std@@@std@@@2@ABH@Z ; std::_Tree<std::_Tmap_traits<int,CGraphicImage *,std::less<int>,std::allocator<std::pair<int const ,CGraphicImage *> >,0> >::lower_bound
PUBLIC	??0?$_Tree@V?$_Tmap_traits@HPAVCGraphicImage@@U?$less@H@std@@V?$allocator@U?$pair@$$CBHPAVCGraphicImage@@@std@@@3@$0A@@std@@@std@@QAE@ABU?$less@H@1@ABV?$allocator@U?$pair@$$CBHPAVCGraphicImage@@@std@@@1@@Z ; std::_Tree<std::_Tmap_traits<int,CGraphicImage *,std::less<int>,std::allocator<std::pair<int const ,CGraphicImage *> >,0> >::_Tree<std::_Tmap_traits<int,CGraphicImage *,std::less<int>,std::allocator<std::pair<int const ,CGraphicImage *> >,0> >
PUBLIC	??1?$_Tree_buy@U?$pair@$$CBHPAVCGraphicImage@@@std@@V?$allocator@U?$pair@$$CBHPAVCGraphicImage@@@std@@@2@@std@@QAE@XZ ; std::_Tree_buy<std::pair<int const ,CGraphicImage *>,std::allocator<std::pair<int const ,CGraphicImage *> > >::~_Tree_buy<std::pair<int const ,CGraphicImage *>,std::allocator<std::pair<int const ,CGraphicImage *> > >
PUBLIC	??1?$_Tree_comp@$0A@V?$_Tmap_traits@HPAVCGraphicImage@@U?$less@H@std@@V?$allocator@U?$pair@$$CBHPAVCGraphicImage@@@std@@@3@$0A@@std@@@std@@QAE@XZ ; std::_Tree_comp<0,std::_Tmap_traits<int,CGraphicImage *,std::less<int>,std::allocator<std::pair<int const ,CGraphicImage *> >,0> >::~_Tree_comp<0,std::_Tmap_traits<int,CGraphicImage *,std::less<int>,std::allocator<std::pair<int const ,CGraphicImage *> >,0> >
PUBLIC	??8?$_Tree_const_iterator@V?$_Tree_val@U?$_Tree_simple_types@U?$pair@$$CBHPAVCGraphicImage@@@std@@@std@@@std@@@std@@QBE_NABV01@@Z ; std::_Tree_const_iterator<std::_Tree_val<std::_Tree_simple_types<std::pair<int const ,CGraphicImage *> > > >::operator==
PUBLIC	?find@?$_Tree@V?$_Tmap_traits@HPAVCGraphicImage@@U?$less@H@std@@V?$allocator@U?$pair@$$CBHPAVCGraphicImage@@@std@@@3@$0A@@std@@@std@@QAE?AV?$_Tree_iterator@V?$_Tree_val@U?$_Tree_simple_types@U?$pair@$$CBHPAVCGraphicImage@@@std@@@std@@@std@@@2@ABH@Z ; std::_Tree<std::_Tmap_traits<int,CGraphicImage *,std::less<int>,std::allocator<std::pair<int const ,CGraphicImage *> >,0> >::find
PUBLIC	?end@?$_Tree@V?$_Tmap_traits@HPAVCGraphicImage@@U?$less@H@std@@V?$allocator@U?$pair@$$CBHPAVCGraphicImage@@@std@@@3@$0A@@std@@@std@@QAE?AV?$_Tree_iterator@V?$_Tree_val@U?$_Tree_simple_types@U?$pair@$$CBHPAVCGraphicImage@@@std@@@std@@@std@@@2@XZ ; std::_Tree<std::_Tmap_traits<int,CGraphicImage *,std::less<int>,std::allocator<std::pair<int const ,CGraphicImage *> >,0> >::end
PUBLIC	??1?$_Tree@V?$_Tmap_traits@HPAVCGraphicImage@@U?$less@H@std@@V?$allocator@U?$pair@$$CBHPAVCGraphicImage@@@std@@@3@$0A@@std@@@std@@QAE@XZ ; std::_Tree<std::_Tmap_traits<int,CGraphicImage *,std::less<int>,std::allocator<std::pair<int const ,CGraphicImage *> >,0> >::~_Tree<std::_Tmap_traits<int,CGraphicImage *,std::less<int>,std::allocator<std::pair<int const ,CGraphicImage *> >,0> >
PUBLIC	??A?$map@HPAVCGraphicImage@@U?$less@H@std@@V?$allocator@U?$pair@$$CBHPAVCGraphicImage@@@std@@@3@@std@@QAEAAPAVCGraphicImage@@ABH@Z ; std::map<int,CGraphicImage *,std::less<int>,std::allocator<std::pair<int const ,CGraphicImage *> > >::operator[]
PUBLIC	??0?$map@HPAVCGraphicImage@@U?$less@H@std@@V?$allocator@U?$pair@$$CBHPAVCGraphicImage@@@std@@@3@@std@@QAE@XZ ; std::map<int,CGraphicImage *,std::less<int>,std::allocator<std::pair<int const ,CGraphicImage *> > >::map<int,CGraphicImage *,std::less<int>,std::allocator<std::pair<int const ,CGraphicImage *> > >
PUBLIC	?InstancePtr@?$CSingleton@VCPythonPlayer@@@@SAPAVCPythonPlayer@@XZ ; CSingleton<CPythonPlayer>::InstancePtr
PUBLIC	?initPlayer@@YAXXZ				; initPlayer
PUBLIC	?playerSendDragonSoulRefine@@YAPAU_object@@PAU1@0@Z ; playerSendDragonSoulRefine
PUBLIC	?playerSlotTypeToInvenType@@YAPAU_object@@PAU1@0@Z ; playerSlotTypeToInvenType
PUBLIC	?playerGetAutoPotionInfo@@YAPAU_object@@PAU1@0@Z ; playerGetAutoPotionInfo
PUBLIC	?playerSetAutoPotionInfo@@YAPAU_object@@PAU1@0@Z ; playerSetAutoPotionInfo
PUBLIC	?playerSetItemAttribute@@YAPAU_object@@PAU1@0@Z	; playerSetItemAttribute
PUBLIC	?playerSetItemMetinSocket@@YAPAU_object@@PAU1@0@Z ; playerSetItemMetinSocket
PUBLIC	?playerSetItemData@@YAPAU_object@@PAU1@0@Z	; playerSetItemData
PUBLIC	?playerGetEmotionIconImage@@YAPAU_object@@PAU1@0@Z ; playerGetEmotionIconImage
PUBLIC	?playerRegisterEmotionIcon@@YAPAU_object@@PAU1@0@Z ; playerRegisterEmotionIcon
PUBLIC	?playerGetTargetVID@@YAPAU_object@@PAU1@0@Z	; playerGetTargetVID
PUBLIC	?playerToggleLevelLimit@@YAPAU_object@@PAU1@0@Z	; playerToggleLevelLimit
PUBLIC	?playerToggleCoolTime@@YAPAU_object@@PAU1@0@Z	; playerToggleCoolTime
PUBLIC	?playerSetWeaponAttackBonusFlag@@YAPAU_object@@PAU1@0@Z ; playerSetWeaponAttackBonusFlag
PUBLIC	?playerHasMobilePhoneNumber@@YAPAU_object@@PAU1@0@Z ; playerHasMobilePhoneNumber
PUBLIC	?playerGetPKMode@@YAPAU_object@@PAU1@0@Z	; playerGetPKMode
PUBLIC	?playerExitParty@@YAPAU_object@@PAU1@0@Z	; playerExitParty
PUBLIC	?playerRemovePartyMember@@YAPAU_object@@PAU1@0@Z ; playerRemovePartyMember
PUBLIC	?playerGetPartyMemberAffects@@YAPAU_object@@PAU1@0@Z ; playerGetPartyMemberAffects
PUBLIC	?playerGetPartyMemberState@@YAPAU_object@@PAU1@0@Z ; playerGetPartyMemberState
PUBLIC	?playerGetPartyMemberHPPercentage@@YAPAU_object@@PAU1@0@Z ; playerGetPartyMemberHPPercentage
PUBLIC	?playerIsPartyLeaderByPID@@YAPAU_object@@PAU1@0@Z ; playerIsPartyLeaderByPID
PUBLIC	?playerIsPartyLeader@@YAPAU_object@@PAU1@0@Z	; playerIsPartyLeader
PUBLIC	?playerIsPartyMember@@YAPAU_object@@PAU1@0@Z	; playerIsPartyMember
PUBLIC	?playerOpenCharacterMenu@@YAPAU_object@@PAU1@0@Z ; playerOpenCharacterMenu
PUBLIC	?playerSetTarget@@YAPAU_object@@PAU1@0@Z	; playerSetTarget
PUBLIC	?playerClearTarget@@YAPAU_object@@PAU1@0@Z	; playerClearTarget
PUBLIC	?playerClear@@YAPAU_object@@PAU1@0@Z		; playerClear
PUBLIC	?playerRender@@YAPAU_object@@PAU1@0@Z		; playerRender
PUBLIC	?playerUpdate@@YAPAU_object@@PAU1@0@Z		; playerUpdate
PUBLIC	?playerIsRefineGradeScroll@@YAPAU_object@@PAU1@0@Z ; playerIsRefineGradeScroll
PUBLIC	?playerCanUnlock@@YAPAU_object@@PAU1@0@Z	; playerCanUnlock
PUBLIC	?playerCanDetach@@YAPAU_object@@PAU1@0@Z	; playerCanDetach
PUBLIC	?playerCanAttachMetin@@YAPAU_object@@PAU1@0@Z	; playerCanAttachMetin
PUBLIC	?playerCanRefine@@YAPAU_object@@PAU1@0@Z	; playerCanRefine
PUBLIC	?playerGetItemGrade@@YAPAU_object@@PAU1@0@Z	; playerGetItemGrade
PUBLIC	?GetItemGrade@@YAHPBD@Z				; GetItemGrade
PUBLIC	?playerIsValuableItem@@YAPAU_object@@PAU1@0@Z	; playerIsValuableItem
PUBLIC	?playerIsOpenPrivateShop@@YAPAU_object@@PAU1@0@Z ; playerIsOpenPrivateShop
PUBLIC	?playerIsCostumeSlot@@YAPAU_object@@PAU1@0@Z	; playerIsCostumeSlot
PUBLIC	?playerIsDSEquipmentSlot@@YAPAU_object@@PAU1@0@Z ; playerIsDSEquipmentSlot
PUBLIC	?playerIsEquipmentSlot@@YAPAU_object@@PAU1@0@Z	; playerIsEquipmentSlot
PUBLIC	?playerisItem@@YAPAU_object@@PAU1@0@Z		; playerisItem
PUBLIC	?playerRemoveQuickSlotByValue@@YAPAU_object@@PAU1@0@Z ; playerRemoveQuickSlotByValue
PUBLIC	?playerRequestUseLocalQuickSlot@@YAPAU_object@@PAU1@0@Z ; playerRequestUseLocalQuickSlot
PUBLIC	?playerRequestMoveGlobalQuickSlotToLocalQuickSlot@@YAPAU_object@@PAU1@0@Z ; playerRequestMoveGlobalQuickSlotToLocalQuickSlot
PUBLIC	?playerRequestDeleteGlobalQuickSlot@@YAPAU_object@@PAU1@0@Z ; playerRequestDeleteGlobalQuickSlot
PUBLIC	?playerRequestAddToEmptyLocalQuickSlot@@YAPAU_object@@PAU1@0@Z ; playerRequestAddToEmptyLocalQuickSlot
PUBLIC	?playerRequestAddLocalQuickSlot@@YAPAU_object@@PAU1@0@Z ; playerRequestAddLocalQuickSlot
PUBLIC	?playerGetGlobalQuickSlot@@YAPAU_object@@PAU1@0@Z ; playerGetGlobalQuickSlot
PUBLIC	?playerGetLocalQuickSlot@@YAPAU_object@@PAU1@0@Z ; playerGetLocalQuickSlot
PUBLIC	?playerLocalQuickSlotIndexToGlobalQuickSlotIndex@@YAPAU_object@@PAU1@0@Z ; playerLocalQuickSlotIndexToGlobalQuickSlotIndex
PUBLIC	?playerSetQuickPage@@YAPAU_object@@PAU1@0@Z	; playerSetQuickPage
PUBLIC	?playerGetQuickPage@@YAPAU_object@@PAU1@0@Z	; playerGetQuickPage
PUBLIC	?playerGetISellItemPrice@@YAPAU_object@@PAU1@0@Z ; playerGetISellItemPrice
PUBLIC	?playerGetItemLink@@YAPAU_object@@PAU1@0@Z	; playerGetItemLink
PUBLIC	?playerGetItemAttribute@@YAPAU_object@@PAU1@0@Z	; playerGetItemAttribute
PUBLIC	?playerGetItemMetinSocket@@YAPAU_object@@PAU1@0@Z ; playerGetItemMetinSocket
PUBLIC	?playerGetItemCountByVnum@@YAPAU_object@@PAU1@0@Z ; playerGetItemCountByVnum
PUBLIC	?playerSetItemCount@@YAPAU_object@@PAU1@0@Z	; playerSetItemCount
PUBLIC	?playerGetItemCount@@YAPAU_object@@PAU1@0@Z	; playerGetItemCount
PUBLIC	?playerGetItemFlags@@YAPAU_object@@PAU1@0@Z	; playerGetItemFlags
PUBLIC	?playerGetItemIndex@@YAPAU_object@@PAU1@0@Z	; playerGetItemIndex
PUBLIC	?playerSendClickItemPacket@@YAPAU_object@@PAU1@0@Z ; playerSendClickItemPacket
PUBLIC	?playerMoveItem@@YAPAU_object@@PAU1@0@Z		; playerMoveItem
PUBLIC	?playerClearSkillDict@@YAPAU_object@@PAU1@0@Z	; playerClearSkillDict
PUBLIC	?playerChangeCurrentSkillNumberOnly@@YAPAU_object@@PAU1@0@Z ; playerChangeCurrentSkillNumberOnly
PUBLIC	?playerClickSkillSlot@@YAPAU_object@@PAU1@0@Z	; playerClickSkillSlot
PUBLIC	?playerGetSkillNextEfficientPercentage@@YAPAU_object@@PAU1@0@Z ; playerGetSkillNextEfficientPercentage
PUBLIC	?playerGetSkillCurrentEfficientPercentage@@YAPAU_object@@PAU1@0@Z ; playerGetSkillCurrentEfficientPercentage
PUBLIC	?playerGetSkillLevel@@YAPAU_object@@PAU1@0@Z	; playerGetSkillLevel
PUBLIC	?playerGetSkillGrade@@YAPAU_object@@PAU1@0@Z	; playerGetSkillGrade
PUBLIC	?playerGetSkillSlotIndex@@YAPAU_object@@PAU1@0@Z ; playerGetSkillSlotIndex
PUBLIC	?playerGetSkillIndex@@YAPAU_object@@PAU1@0@Z	; playerGetSkillIndex
PUBLIC	?playerSetSkill@@YAPAU_object@@PAU1@0@Z		; playerSetSkill
PUBLIC	?playerGetAlignmentData@@YAPAU_object@@PAU1@0@Z	; playerGetAlignmentData
PUBLIC	?playerGetGuildName@@YAPAU_object@@PAU1@0@Z	; playerGetGuildName
PUBLIC	?playerGetGuildID@@YAPAU_object@@PAU1@0@Z	; playerGetGuildID
PUBLIC	?playerGetElk@@YAPAU_object@@PAU1@0@Z		; playerGetElk
PUBLIC	?playerSetStatus@@YAPAU_object@@PAU1@0@Z	; playerSetStatus
PUBLIC	?playerGetStatus@@YAPAU_object@@PAU1@0@Z	; playerGetStatus
PUBLIC	?playerGetEXP@@YAPAU_object@@PAU1@0@Z		; playerGetEXP
PUBLIC	?playerAffectIndexToSkillIndex@@YAPAU_object@@PAU1@0@Z ; playerAffectIndexToSkillIndex
PUBLIC	?playerUseGuildSkill@@YAPAU_object@@PAU1@0@Z	; playerUseGuildSkill
PUBLIC	?playerIsSkillActive@@YAPAU_object@@PAU1@0@Z	; playerIsSkillActive
PUBLIC	?playerGetSkillCoolTime@@YAPAU_object@@PAU1@0@Z	; playerGetSkillCoolTime
PUBLIC	?playerIsSkillCoolTime@@YAPAU_object@@PAU1@0@Z	; playerIsSkillCoolTime
PUBLIC	?playerSetPlayTime@@YAPAU_object@@PAU1@0@Z	; playerSetPlayTime
PUBLIC	?playerGetPlayTime@@YAPAU_object@@PAU1@0@Z	; playerGetPlayTime
PUBLIC	?playerGetJob@@YAPAU_object@@PAU1@0@Z		; playerGetJob
PUBLIC	?playerGetRace@@YAPAU_object@@PAU1@0@Z		; playerGetRace
PUBLIC	?playerGetName@@YAPAU_object@@PAU1@0@Z		; playerGetName
PUBLIC	?playerSetMouseMiddleButtonState@@YAPAU_object@@PAU1@0@Z ; playerSetMouseMiddleButtonState
PUBLIC	?playerGetMouseFunc@@YAPAU_object@@PAU1@0@Z	; playerGetMouseFunc
PUBLIC	?playerSetMouseFunc@@YAPAU_object@@PAU1@0@Z	; playerSetMouseFunc
PUBLIC	?playerSetMouseState@@YAPAU_object@@PAU1@0@Z	; playerSetMouseState
PUBLIC	?playerSetAutoCameraRotationSpeed@@YAPAU_object@@PAU1@0@Z ; playerSetAutoCameraRotationSpeed
PUBLIC	?playerResetCameraRotation@@YAPAU_object@@PAU1@0@Z ; playerResetCameraRotation
PUBLIC	?playerEndMouseWalking@@YAPAU_object@@PAU1@0@Z	; playerEndMouseWalking
PUBLIC	?playerStartMouseWalking@@YAPAU_object@@PAU1@0@Z ; playerStartMouseWalking
PUBLIC	?playerEndKeyWalkingImmediately@@YAPAU_object@@PAU1@0@Z ; playerEndKeyWalkingImmediately
PUBLIC	?playerSetSingleDIKKeyState@@YAPAU_object@@PAU1@0@Z ; playerSetSingleDIKKeyState
PUBLIC	?playerSetAttackKeyState@@YAPAU_object@@PAU1@0@Z ; playerSetAttackKeyState
PUBLIC	?playerRegisterCacheEffect@@YAPAU_object@@PAU1@0@Z ; playerRegisterCacheEffect
PUBLIC	?playerRegisterEffect@@YAPAU_object@@PAU1@0@Z	; playerRegisterEffect
PUBLIC	?playerComboAttack@@YAPAU_object@@PAU1@0@Z	; playerComboAttack
PUBLIC	?playerHidePlayer@@YAPAU_object@@PAU1@0@Z	; playerHidePlayer
PUBLIC	?playerShowPlayer@@YAPAU_object@@PAU1@0@Z	; playerShowPlayer
PUBLIC	?playerActEmotion@@YAPAU_object@@PAU1@0@Z	; playerActEmotion
PUBLIC	?playerIsObserverMode@@YAPAU_object@@PAU1@0@Z	; playerIsObserverMode
PUBLIC	?playerIsMountingHorse@@YAPAU_object@@PAU1@0@Z	; playerIsMountingHorse
PUBLIC	?playerIsInSafeArea@@YAPAU_object@@PAU1@0@Z	; playerIsInSafeArea
PUBLIC	?playerGetCharacterDistance@@YAPAU_object@@PAU1@0@Z ; playerGetCharacterDistance
PUBLIC	?playerIsCantFightInstance@@YAPAU_object@@PAU1@0@Z ; playerIsCantFightInstance
PUBLIC	?playerIsRevengeInstance@@YAPAU_object@@PAU1@0@Z ; playerIsRevengeInstance
PUBLIC	?playerIsChallengeInstance@@YAPAU_object@@PAU1@0@Z ; playerIsChallengeInstance
PUBLIC	?playerIsSameEmpire@@YAPAU_object@@PAU1@0@Z	; playerIsSameEmpire
PUBLIC	?playerIsPVPInstance@@YAPAU_object@@PAU1@0@Z	; playerIsPVPInstance
PUBLIC	?playerIsActingEmotion@@YAPAU_object@@PAU1@0@Z	; playerIsActingEmotion
PUBLIC	?playerCanAttackInstance@@YAPAU_object@@PAU1@0@Z ; playerCanAttackInstance
PUBLIC	?playerIsMainCharacterIndex@@YAPAU_object@@PAU1@0@Z ; playerIsMainCharacterIndex
PUBLIC	?playerGetMainCharacterPosition@@YAPAU_object@@PAU1@0@Z ; playerGetMainCharacterPosition
PUBLIC	?playerGetMainCharacterName@@YAPAU_object@@PAU1@0@Z ; playerGetMainCharacterName
PUBLIC	?playerGetMainCharacterIndex@@YAPAU_object@@PAU1@0@Z ; playerGetMainCharacterIndex
PUBLIC	?playerSetMainCharacterIndex@@YAPAU_object@@PAU1@0@Z ; playerSetMainCharacterIndex
PUBLIC	?playerSetQuickCameraMode@@YAPAU_object@@PAU1@0@Z ; playerSetQuickCameraMode
PUBLIC	?playerSetGameWindow@@YAPAU_object@@PAU1@0@Z	; playerSetGameWindow
PUBLIC	?playerPickCloseItem@@YAPAU_object@@PAU1@0@Z	; playerPickCloseItem
PUBLIC	??1?$map@HPAVCGraphicImage@@U?$less@H@std@@V?$allocator@U?$pair@$$CBHPAVCGraphicImage@@@std@@@3@@std@@QAE@XZ ; std::map<int,CGraphicImage *,std::less<int>,std::allocator<std::pair<int const ,CGraphicImage *> > >::~map<int,CGraphicImage *,std::less<int>,std::allocator<std::pair<int const ,CGraphicImage *> > >
PUBLIC	?GetAutoPotionInfo@CPythonPlayer@@QAEAAUSAutoPotionInfo@1@H@Z ; CPythonPlayer::GetAutoPotionInfo
PUBLIC	?m_kMap_iEmotionIndex_pkIconImage@@3V?$map@HPAVCGraphicImage@@U?$less@H@std@@V?$allocator@U?$pair@$$CBHPAVCGraphicImage@@@std@@@3@@std@@A ; m_kMap_iEmotionIndex_pkIconImage
	ALIGN	4

_piecewise_construct DB 01H DUP (?)
	ALIGN	8

?m_kMap_iEmotionIndex_pkIconImage@@3V?$map@HPAVCGraphicImage@@U?$less@H@std@@V?$allocator@U?$pair@$$CBHPAVCGraphicImage@@@std@@@3@@std@@A DQ 01H DUP (?) ; m_kMap_iEmotionIndex_pkIconImage
_piecewise_construct DB 01H DUP (?)
_BSS	ENDS
;	COMDAT xdata$x
xdata$x	SEGMENT
__ehfuncinfo$?playerGetGuildName@@YAPAU_object@@PAU1@0@Z DD 019930522H
	DD	01H
	DD	FLAT:__unwindtable$?playerGetGuildName@@YAPAU_object@@PAU1@0@Z
	DD	2 DUP(00H)
	DD	2 DUP(00H)
	DD	00H
	DD	01H
__unwindtable$?playerGetGuildName@@YAPAU_object@@PAU1@0@Z DD 0ffffffffH
	DD	FLAT:__unwindfunclet$?playerGetGuildName@@YAPAU_object@@PAU1@0@Z$0
xdata$x	ENDS
;	COMDAT xdata$x
xdata$x	SEGMENT
__ehfuncinfo$??$_Insert_nohint@AAU?$pair@$$CBHPAVCGraphicImage@@@std@@PAU?$_Tree_node@U?$pair@$$CBHPAVCGraphicImage@@@std@@PAX@2@@?$_Tree@V?$_Tmap_traits@HPAVCGraphicImage@@U?$less@H@std@@V?$allocator@U?$pair@$$CBHPAVCGraphicImage@@@std@@@3@$0A@@std@@@std@@IAE?AU?$pair@V?$_Tree_iterator@V?$_Tree_val@U?$_Tree_simple_types@U?$pair@$$CBHPAVCGraphicImage@@@std@@@std@@@std@@@std@@_N@1@_NAAU?$pair@$$CBHPAVCGraphicImage@@@1@PAU?$_Tree_node@U?$pair@$$CBHPAVCGraphicImage@@@std@@PAX@1@@Z DD 019930522H
	DD	02H
	DD	FLAT:__unwindtable$??$_Insert_nohint@AAU?$pair@$$CBHPAVCGraphicImage@@@std@@PAU?$_Tree_node@U?$pair@$$CBHPAVCGraphicImage@@@std@@PAX@2@@?$_Tree@V?$_Tmap_traits@HPAVCGraphicImage@@U?$less@H@std@@V?$allocator@U?$pair@$$CBHPAVCGraphicImage@@@std@@@3@$0A@@std@@@std@@IAE?AU?$pair@V?$_Tree_iterator@V?$_Tree_val@U?$_Tree_simple_types@U?$pair@$$CBHPAVCGraphicImage@@@std@@@std@@@std@@@std@@_N@1@_NAAU?$pair@$$CBHPAVCGraphicImage@@@1@PAU?$_Tree_node@U?$pair@$$CBHPAVCGraphicImage@@@std@@PAX@1@@Z
	DD	01H
	DD	FLAT:__tryblocktable$??$_Insert_nohint@AAU?$pair@$$CBHPAVCGraphicImage@@@std@@PAU?$_Tree_node@U?$pair@$$CBHPAVCGraphicImage@@@std@@PAX@2@@?$_Tree@V?$_Tmap_traits@HPAVCGraphicImage@@U?$less@H@std@@V?$allocator@U?$pair@$$CBHPAVCGraphicImage@@@std@@@3@$0A@@std@@@std@@IAE?AU?$pair@V?$_Tree_iterator@V?$_Tree_val@U?$_Tree_simple_types@U?$pair@$$CBHPAVCGraphicImage@@@std@@@std@@@std@@@std@@_N@1@_NAAU?$pair@$$CBHPAVCGraphicImage@@@1@PAU?$_Tree_node@U?$pair@$$CBHPAVCGraphicImage@@@std@@PAX@1@@Z
	DD	2 DUP(00H)
	DD	00H
	DD	01H
__unwindtable$??$_Insert_nohint@AAU?$pair@$$CBHPAVCGraphicImage@@@std@@PAU?$_Tree_node@U?$pair@$$CBHPAVCGraphicImage@@@std@@PAX@2@@?$_Tree@V?$_Tmap_traits@HPAVCGraphicImage@@U?$less@H@std@@V?$allocator@U?$pair@$$CBHPAVCGraphicImage@@@std@@@3@$0A@@std@@@std@@IAE?AU?$pair@V?$_Tree_iterator@V?$_Tree_val@U?$_Tree_simple_types@U?$pair@$$CBHPAVCGraphicImage@@@std@@@std@@@std@@@std@@_N@1@_NAAU?$pair@$$CBHPAVCGraphicImage@@@1@PAU?$_Tree_node@U?$pair@$$CBHPAVCGraphicImage@@@std@@PAX@1@@Z DD 0ffffffffH
	DD	00H
	DD	0ffffffffH
	DD	00H
__tryblocktable$??$_Insert_nohint@AAU?$pair@$$CBHPAVCGraphicImage@@@std@@PAU?$_Tree_node@U?$pair@$$CBHPAVCGraphicImage@@@std@@PAX@2@@?$_Tree@V?$_Tmap_traits@HPAVCGraphicImage@@U?$less@H@std@@V?$allocator@U?$pair@$$CBHPAVCGraphicImage@@@std@@@3@$0A@@std@@@std@@IAE?AU?$pair@V?$_Tree_iterator@V?$_Tree_val@U?$_Tree_simple_types@U?$pair@$$CBHPAVCGraphicImage@@@std@@@std@@@std@@@std@@_N@1@_NAAU?$pair@$$CBHPAVCGraphicImage@@@1@PAU?$_Tree_node@U?$pair@$$CBHPAVCGraphicImage@@@std@@PAX@1@@Z DD 00H
	DD	00H
	DD	01H
	DD	01H
	DD	FLAT:__catchsym$??$_Insert_nohint@AAU?$pair@$$CBHPAVCGraphicImage@@@std@@PAU?$_Tree_node@U?$pair@$$CBHPAVCGraphicImage@@@std@@PAX@2@@?$_Tree@V?$_Tmap_traits@HPAVCGraphicImage@@U?$less@H@std@@V?$allocator@U?$pair@$$CBHPAVCGraphicImage@@@std@@@3@$0A@@std@@@std@@IAE?AU?$pair@V?$_Tree_iterator@V?$_Tree_val@U?$_Tree_simple_types@U?$pair@$$CBHPAVCGraphicImage@@@std@@@std@@@std@@@std@@_N@1@_NAAU?$pair@$$CBHPAVCGraphicImage@@@1@PAU?$_Tree_node@U?$pair@$$CBHPAVCGraphicImage@@@std@@PAX@1@@Z$2
__catchsym$??$_Insert_nohint@AAU?$pair@$$CBHPAVCGraphicImage@@@std@@PAU?$_Tree_node@U?$pair@$$CBHPAVCGraphicImage@@@std@@PAX@2@@?$_Tree@V?$_Tmap_traits@HPAVCGraphicImage@@U?$less@H@std@@V?$allocator@U?$pair@$$CBHPAVCGraphicImage@@@std@@@3@$0A@@std@@@std@@IAE?AU?$pair@V?$_Tree_iterator@V?$_Tree_val@U?$_Tree_simple_types@U?$pair@$$CBHPAVCGraphicImage@@@std@@@std@@@std@@@std@@_N@1@_NAAU?$pair@$$CBHPAVCGraphicImage@@@1@PAU?$_Tree_node@U?$pair@$$CBHPAVCGraphicImage@@@std@@PAX@1@@Z$2 DD 040H
	DD	00H
	DD	00H
	DD	FLAT:__catch$??$_Insert_nohint@AAU?$pair@$$CBHPAVCGraphicImage@@@std@@PAU?$_Tree_node@U?$pair@$$CBHPAVCGraphicImage@@@std@@PAX@2@@?$_Tree@V?$_Tmap_traits@HPAVCGraphicImage@@U?$less@H@std@@V?$allocator@U?$pair@$$CBHPAVCGraphicImage@@@std@@@3@$0A@@std@@@std@@IAE?AU?$pair@V?$_Tree_iterator@V?$_Tree_val@U?$_Tree_simple_types@U?$pair@$$CBHPAVCGraphicImage@@@std@@@std@@@std@@@std@@_N@1@_NAAU?$pair@$$CBHPAVCGraphicImage@@@1@PAU?$_Tree_node@U?$pair@$$CBHPAVCGraphicImage@@@std@@PAX@1@@Z$0
xdata$x	ENDS
;	COMDAT xdata$x
xdata$x	SEGMENT
__ehfuncinfo$??$_Insert_hint@AAU?$pair@$$CBHPAVCGraphicImage@@@std@@PAU?$_Tree_node@U?$pair@$$CBHPAVCGraphicImage@@@std@@PAX@2@@?$_Tree@V?$_Tmap_traits@HPAVCGraphicImage@@U?$less@H@std@@V?$allocator@U?$pair@$$CBHPAVCGraphicImage@@@std@@@3@$0A@@std@@@std@@IAE?AV?$_Tree_iterator@V?$_Tree_val@U?$_Tree_simple_types@U?$pair@$$CBHPAVCGraphicImage@@@std@@@std@@@std@@@1@V?$_Tree_const_iterator@V?$_Tree_val@U?$_Tree_simple_types@U?$pair@$$CBHPAVCGraphicImage@@@std@@@std@@@std@@@1@AAU?$pair@$$CBHPAVCGraphicImage@@@1@PAU?$_Tree_node@U?$pair@$$CBHPAVCGraphicImage@@@std@@PAX@1@@Z DD 019930522H
	DD	02H
	DD	FLAT:__unwindtable$??$_Insert_hint@AAU?$pair@$$CBHPAVCGraphicImage@@@std@@PAU?$_Tree_node@U?$pair@$$CBHPAVCGraphicImage@@@std@@PAX@2@@?$_Tree@V?$_Tmap_traits@HPAVCGraphicImage@@U?$less@H@std@@V?$allocator@U?$pair@$$CBHPAVCGraphicImage@@@std@@@3@$0A@@std@@@std@@IAE?AV?$_Tree_iterator@V?$_Tree_val@U?$_Tree_simple_types@U?$pair@$$CBHPAVCGraphicImage@@@std@@@std@@@std@@@1@V?$_Tree_const_iterator@V?$_Tree_val@U?$_Tree_simple_types@U?$pair@$$CBHPAVCGraphicImage@@@std@@@std@@@std@@@1@AAU?$pair@$$CBHPAVCGraphicImage@@@1@PAU?$_Tree_node@U?$pair@$$CBHPAVCGraphicImage@@@std@@PAX@1@@Z
	DD	01H
	DD	FLAT:__tryblocktable$??$_Insert_hint@AAU?$pair@$$CBHPAVCGraphicImage@@@std@@PAU?$_Tree_node@U?$pair@$$CBHPAVCGraphicImage@@@std@@PAX@2@@?$_Tree@V?$_Tmap_traits@HPAVCGraphicImage@@U?$less@H@std@@V?$allocator@U?$pair@$$CBHPAVCGraphicImage@@@std@@@3@$0A@@std@@@std@@IAE?AV?$_Tree_iterator@V?$_Tree_val@U?$_Tree_simple_types@U?$pair@$$CBHPAVCGraphicImage@@@std@@@std@@@std@@@1@V?$_Tree_const_iterator@V?$_Tree_val@U?$_Tree_simple_types@U?$pair@$$CBHPAVCGraphicImage@@@std@@@std@@@std@@@1@AAU?$pair@$$CBHPAVCGraphicImage@@@1@PAU?$_Tree_node@U?$pair@$$CBHPAVCGraphicImage@@@std@@PAX@1@@Z
	DD	2 DUP(00H)
	DD	00H
	DD	01H
__unwindtable$??$_Insert_hint@AAU?$pair@$$CBHPAVCGraphicImage@@@std@@PAU?$_Tree_node@U?$pair@$$CBHPAVCGraphicImage@@@std@@PAX@2@@?$_Tree@V?$_Tmap_traits@HPAVCGraphicImage@@U?$less@H@std@@V?$allocator@U?$pair@$$CBHPAVCGraphicImage@@@std@@@3@$0A@@std@@@std@@IAE?AV?$_Tree_iterator@V?$_Tree_val@U?$_Tree_simple_types@U?$pair@$$CBHPAVCGraphicImage@@@std@@@std@@@std@@@1@V?$_Tree_const_iterator@V?$_Tree_val@U?$_Tree_simple_types@U?$pair@$$CBHPAVCGraphicImage@@@std@@@std@@@std@@@1@AAU?$pair@$$CBHPAVCGraphicImage@@@1@PAU?$_Tree_node@U?$pair@$$CBHPAVCGraphicImage@@@std@@PAX@1@@Z DD 0ffffffffH
	DD	00H
	DD	0ffffffffH
	DD	00H
__tryblocktable$??$_Insert_hint@AAU?$pair@$$CBHPAVCGraphicImage@@@std@@PAU?$_Tree_node@U?$pair@$$CBHPAVCGraphicImage@@@std@@PAX@2@@?$_Tree@V?$_Tmap_traits@HPAVCGraphicImage@@U?$less@H@std@@V?$allocator@U?$pair@$$CBHPAVCGraphicImage@@@std@@@3@$0A@@std@@@std@@IAE?AV?$_Tree_iterator@V?$_Tree_val@U?$_Tree_simple_types@U?$pair@$$CBHPAVCGraphicImage@@@std@@@std@@@std@@@1@V?$_Tree_const_iterator@V?$_Tree_val@U?$_Tree_simple_types@U?$pair@$$CBHPAVCGraphicImage@@@std@@@std@@@std@@@1@AAU?$pair@$$CBHPAVCGraphicImage@@@1@PAU?$_Tree_node@U?$pair@$$CBHPAVCGraphicImage@@@std@@PAX@1@@Z DD 00H
	DD	00H
	DD	01H
	DD	01H
	DD	FLAT:__catchsym$??$_Insert_hint@AAU?$pair@$$CBHPAVCGraphicImage@@@std@@PAU?$_Tree_node@U?$pair@$$CBHPAVCGraphicImage@@@std@@PAX@2@@?$_Tree@V?$_Tmap_traits@HPAVCGraphicImage@@U?$less@H@std@@V?$allocator@U?$pair@$$CBHPAVCGraphicImage@@@std@@@3@$0A@@std@@@std@@IAE?AV?$_Tree_iterator@V?$_Tree_val@U?$_Tree_simple_types@U?$pair@$$CBHPAVCGraphicImage@@@std@@@std@@@std@@@1@V?$_Tree_const_iterator@V?$_Tree_val@U?$_Tree_simple_types@U?$pair@$$CBHPAVCGraphicImage@@@std@@@std@@@std@@@1@AAU?$pair@$$CBHPAVCGraphicImage@@@1@PAU?$_Tree_node@U?$pair@$$CBHPAVCGraphicImage@@@std@@PAX@1@@Z$2
__catchsym$??$_Insert_hint@AAU?$pair@$$CBHPAVCGraphicImage@@@std@@PAU?$_Tree_node@U?$pair@$$CBHPAVCGraphicImage@@@std@@PAX@2@@?$_Tree@V?$_Tmap_traits@HPAVCGraphicImage@@U?$less@H@std@@V?$allocator@U?$pair@$$CBHPAVCGraphicImage@@@std@@@3@$0A@@std@@@std@@IAE?AV?$_Tree_iterator@V?$_Tree_val@U?$_Tree_simple_types@U?$pair@$$CBHPAVCGraphicImage@@@std@@@std@@@std@@@1@V?$_Tree_const_iterator@V?$_Tree_val@U?$_Tree_simple_types@U?$pair@$$CBHPAVCGraphicImage@@@std@@@std@@@std@@@1@AAU?$pair@$$CBHPAVCGraphicImage@@@1@PAU?$_Tree_node@U?$pair@$$CBHPAVCGraphicImage@@@std@@PAX@1@@Z$2 DD 040H
	DD	00H
	DD	00H
	DD	FLAT:__catch$??$_Insert_hint@AAU?$pair@$$CBHPAVCGraphicImage@@@std@@PAU?$_Tree_node@U?$pair@$$CBHPAVCGraphicImage@@@std@@PAX@2@@?$_Tree@V?$_Tmap_traits@HPAVCGraphicImage@@U?$less@H@std@@V?$allocator@U?$pair@$$CBHPAVCGraphicImage@@@std@@@3@$0A@@std@@@std@@IAE?AV?$_Tree_iterator@V?$_Tree_val@U?$_Tree_simple_types@U?$pair@$$CBHPAVCGraphicImage@@@std@@@std@@@std@@@1@V?$_Tree_const_iterator@V?$_Tree_val@U?$_Tree_simple_types@U?$pair@$$CBHPAVCGraphicImage@@@std@@@std@@@std@@@1@AAU?$pair@$$CBHPAVCGraphicImage@@@1@PAU?$_Tree_node@U?$pair@$$CBHPAVCGraphicImage@@@std@@PAX@1@@Z$0
_m_kMap_iEmotionIndex_pkIconImage$initializer$ DD FLAT:??__Em_kMap_iEmotionIndex_pkIconImage@@YAXXZ
; Function compile flags: /Ogtp
; File d:\metin2\metin2\client_source_clean\client_source_clean\source\userinterface\pythonplayer.h
;	COMDAT ?GetAutoPotionInfo@CPythonPlayer@@QAEAAUSAutoPotionInfo@1@H@Z
_TEXT	SEGMENT
_type$ = 8						; size = 4
?GetAutoPotionInfo@CPythonPlayer@@QAEAAUSAutoPotionInfo@1@H@Z PROC ; CPythonPlayer::GetAutoPotionInfo, COMDAT
; _this$ = ecx

; 427  : 		__inline		SAutoPotionInfo& GetAutoPotionInfo(int type)		{ return m_kAutoPotionInfo[type]; }

  00000	55		 push	 ebp
  00001	8b ec		 mov	 ebp, esp
  00003	8b 45 08	 mov	 eax, DWORD PTR _type$[ebp]
  00006	05 a2 10 00 00	 add	 eax, 4258		; 000010a2H
  0000b	c1 e0 04	 shl	 eax, 4
  0000e	03 c1		 add	 eax, ecx
  00010	5d		 pop	 ebp
  00011	c2 04 00	 ret	 4
?GetAutoPotionInfo@CPythonPlayer@@QAEAAUSAutoPotionInfo@1@H@Z ENDP ; CPythonPlayer::GetAutoPotionInfo
_TEXT	ENDS
; Function compile flags: /Ogtp
; File d:\metin2\metin2\client_source_clean\client_source_clean\source\userinterface\pythonplayermodule.cpp
; File c:\program files (x86)\microsoft visual studio 12.0\vc\include\xtree
; File d:\metin2\metin2\client_source_clean\client_source_clean\source\userinterface\pythonplayermodule.cpp
; File c:\program files (x86)\microsoft visual studio 12.0\vc\include\xtree
; File d:\metin2\metin2\client_source_clean\client_source_clean\source\userinterface\pythonplayermodule.cpp
;	COMDAT ??__Em_kMap_iEmotionIndex_pkIconImage@@YAXXZ
text$di	SEGMENT
??__Em_kMap_iEmotionIndex_pkIconImage@@YAXXZ PROC	; `dynamic initializer for 'm_kMap_iEmotionIndex_pkIconImage'', COMDAT
; File c:\program files (x86)\microsoft visual studio 12.0\vc\include\xtree

; 773  : 		this->_Myhead = _Buyheadnode();

  00000	e8 00 00 00 00	 call	 ?_Buyheadnode@?$_Tree_alloc@$0A@U?$_Tree_base_types@U?$pair@$$CBHPAVCGraphicImage@@@std@@V?$allocator@U?$pair@$$CBHPAVCGraphicImage@@@std@@@2@@std@@@std@@QAEPAU?$_Tree_node@U?$pair@$$CBHPAVCGraphicImage@@@std@@PAX@2@XZ ; std::_Tree_alloc<0,std::_Tree_base_types<std::pair<int const ,CGraphicImage *>,std::allocator<std::pair<int const ,CGraphicImage *> > > >::_Buyheadnode
; File d:\metin2\metin2\client_source_clean\client_source_clean\source\userinterface\pythonplayermodule.cpp

; 45   : std::map<int, CGraphicImage *> m_kMap_iEmotionIndex_pkIconImage;

  00005	68 00 00 00 00	 push	 OFFSET ??__Fm_kMap_iEmotionIndex_pkIconImage@@YAXXZ ; `dynamic atexit destructor for 'm_kMap_iEmotionIndex_pkIconImage''
; File c:\program files (x86)\microsoft visual studio 12.0\vc\include\xtree

; 773  : 		this->_Myhead = _Buyheadnode();

  0000a	a3 00 00 00 00	 mov	 DWORD PTR ?m_kMap_iEmotionIndex_pkIconImage@@3V?$map@HPAVCGraphicImage@@U?$less@H@std@@V?$allocator@U?$pair@$$CBHPAVCGraphicImage@@@std@@@3@@std@@A, eax
; File d:\metin2\metin2\client_source_clean\client_source_clean\source\userinterface\pythonplayermodule.cpp

; 45   : std::map<int, CGraphicImage *> m_kMap_iEmotionIndex_pkIconImage;

  0000f	e8 00 00 00 00	 call	 _atexit
  00014	59		 pop	 ecx
  00015	c3		 ret	 0
??__Em_kMap_iEmotionIndex_pkIconImage@@YAXXZ ENDP	; `dynamic initializer for 'm_kMap_iEmotionIndex_pkIconImage''
text$di	ENDS
; Function compile flags: /Ogtp
; File c:\program files (x86)\microsoft visual studio 12.0\vc\include\xtree
; File c:\program files (x86)\microsoft visual studio 12.0\vc\include\xmemory0
;	COMDAT ??__Fm_kMap_iEmotionIndex_pkIconImage@@YAXXZ
text$yd	SEGMENT
$T1 = -8						; size = 4
$T2 = -1						; size = 1
$T3 = -1						; size = 1
$T4 = -1						; size = 1
$T5 = -1						; size = 1
??__Fm_kMap_iEmotionIndex_pkIconImage@@YAXXZ PROC	; `dynamic atexit destructor for 'm_kMap_iEmotionIndex_pkIconImage'', COMDAT
  00000	55		 push	 ebp
  00001	8b ec		 mov	 ebp, esp
; File c:\program files (x86)\microsoft visual studio 12.0\vc\include\xtree

; 2230 : 		erase(begin(), end());

  00003	a1 00 00 00 00	 mov	 eax, DWORD PTR ?m_kMap_iEmotionIndex_pkIconImage@@3V?$map@HPAVCGraphicImage@@U?$less@H@std@@V?$allocator@U?$pair@$$CBHPAVCGraphicImage@@@std@@@3@@std@@A
  00008	83 ec 08	 sub	 esp, 8
  0000b	56		 push	 esi
  0000c	50		 push	 eax
  0000d	ff 30		 push	 DWORD PTR [eax]
  0000f	8d 45 f8	 lea	 eax, DWORD PTR $T1[ebp]
  00012	50		 push	 eax
  00013	e8 00 00 00 00	 call	 ?erase@?$_Tree@V?$_Tmap_traits@HPAVCGraphicImage@@U?$less@H@std@@V?$allocator@U?$pair@$$CBHPAVCGraphicImage@@@std@@@3@$0A@@std@@@std@@QAE?AV?$_Tree_iterator@V?$_Tree_val@U?$_Tree_simple_types@U?$pair@$$CBHPAVCGraphicImage@@@std@@@std@@@std@@@2@V?$_Tree_const_iterator@V?$_Tree_val@U?$_Tree_simple_types@U?$pair@$$CBHPAVCGraphicImage@@@std@@@std@@@std@@@2@0@Z ; std::_Tree<std::_Tmap_traits<int,CGraphicImage *,std::less<int>,std::allocator<std::pair<int const ,CGraphicImage *> >,0> >::erase

; 778  : 		_Freeheadnode(this->_Myhead);

  00018	8b 35 00 00 00
	00		 mov	 esi, DWORD PTR ?m_kMap_iEmotionIndex_pkIconImage@@3V?$map@HPAVCGraphicImage@@U?$less@H@std@@V?$allocator@U?$pair@$$CBHPAVCGraphicImage@@@std@@@3@@std@@A

; 864  : 		this->_Getal().deallocate(_Pnode, 1);
; 865  : 		}
; 866  : 
; 867  : 	_Alty _Getal() const
; 868  : 		{	// get allocator
; 869  : 		return (_Alty());

  0001e	8d 4d ff	 lea	 ecx, DWORD PTR $T5[ebp]
  00021	e8 00 00 00 00	 call	 ??0?$_Wrap_alloc@V?$allocator@U?$_Tree_node@U?$pair@$$CBHPAVCGraphicImage@@@std@@PAX@std@@@std@@@std@@QAE@XZ ; std::_Wrap_alloc<std::allocator<std::_Tree_node<std::pair<int const ,CGraphicImage *>,void *> > >::_Wrap_alloc<std::allocator<std::_Tree_node<std::pair<int const ,CGraphicImage *>,void *> > >

; 779  : 		}
; 780  : 
; 781  : 	void _Change_alloc(const _Alty&)
; 782  : 		{	// replace old allocator
; 783  : 		}
; 784  : 
; 785  : 	void _Swap_alloc(_Myt&)
; 786  : 		{	// swap allocators
; 787  : 		}
; 788  : 
; 789  :  #else /* _ITERATOR_DEBUG_LEVEL == 0 */
; 790  : 	_Tree_alloc(const _Alloc& = _Alloc())
; 791  : 		{	// construct allocators from _Al
; 792  : 		this->_Myhead = _Buyheadnode();
; 793  : 		_TRY_BEGIN
; 794  : 		_Alloc_proxy();
; 795  : 		_CATCH_ALL
; 796  : 		_Freeheadnode(this->_Myhead);
; 797  : 		_RERAISE;
; 798  : 		_CATCH_END
; 799  : 		}
; 800  : 
; 801  : 	~_Tree_alloc() _NOEXCEPT
; 802  : 		{	// destroy proxy
; 803  : 		_Freeheadnode(this->_Myhead);
; 804  : 		_Free_proxy();
; 805  : 		}
; 806  : 
; 807  : 	void _Change_alloc(const _Alty&)
; 808  : 		{	// replace old allocator
; 809  : 		}
; 810  : 
; 811  : 	void _Swap_alloc(_Myt&)
; 812  : 		{	// swap allocators
; 813  : 		}
; 814  : 
; 815  : 	void _Alloc_proxy()
; 816  : 		{	// construct proxy from _Alnod
; 817  : 		typename _Alty::template rebind<_Container_proxy>::other
; 818  : 			_Alproxy(_Getal());
; 819  : 		this->_Myproxy = _Alproxy.allocate(1);
; 820  : 		_Alproxy.construct(this->_Myproxy, _Container_proxy());
; 821  : 		this->_Myproxy->_Mycont = this;
; 822  : 		}
; 823  : 
; 824  : 	void _Free_proxy()
; 825  : 		{	// destroy proxy
; 826  : 		typename _Alty::template rebind<_Container_proxy>::other
; 827  : 			_Alproxy(_Getal());
; 828  : 		this->_Orphan_all();
; 829  : 		_Alproxy.destroy(this->_Myproxy);
; 830  : 		_Alproxy.deallocate(this->_Myproxy, 1);
; 831  : 		this->_Myproxy = 0;
; 832  : 		}
; 833  :  #endif /* _ITERATOR_DEBUG_LEVEL == 0 */
; 834  : 
; 835  : 	_Nodeptr _Buyheadnode()
; 836  : 		{	// get head node using current allocator
; 837  : 		_Nodeptr _Pnode = this->_Getal().allocate(1);
; 838  : 
; 839  : 		_TRY_BEGIN
; 840  : 		this->_Getal().construct(
; 841  : 			_STD addressof(this->_Left(_Pnode)), _Pnode);
; 842  : 		this->_Getal().construct(
; 843  : 			_STD addressof(this->_Parent(_Pnode)), _Pnode);
; 844  : 		this->_Getal().construct(
; 845  : 			_STD addressof(this->_Right(_Pnode)), _Pnode);
; 846  : 		_CATCH_ALL
; 847  : 		this->_Getal().deallocate(_Pnode, 1);
; 848  : 		_RERAISE;
; 849  : 		_CATCH_END
; 850  : 
; 851  : 		this->_Color(_Pnode) = this->_Black;
; 852  : 		this->_Isnil(_Pnode) = true;
; 853  : 		return (_Pnode);
; 854  : 		}
; 855  : 
; 856  : 	void _Freeheadnode(_Nodeptr _Pnode)
; 857  : 		{	// free head node using current allocator
; 858  : 		this->_Getal().destroy(
; 859  : 			_STD addressof(this->_Left(_Pnode)));

  00026	51		 push	 ecx
  00027	e8 00 00 00 00	 call	 ??$destroy@PAU?$_Tree_node@U?$pair@$$CBHPAVCGraphicImage@@@std@@PAX@std@@@?$_Wrap_alloc@V?$allocator@U?$_Tree_node@U?$pair@$$CBHPAVCGraphicImage@@@std@@PAX@std@@@std@@@std@@QAEXPAPAU?$_Tree_node@U?$pair@$$CBHPAVCGraphicImage@@@std@@PAX@1@@Z ; std::_Wrap_alloc<std::allocator<std::_Tree_node<std::pair<int const ,CGraphicImage *>,void *> > >::destroy<std::_Tree_node<std::pair<int const ,CGraphicImage *>,void *> *>

; 864  : 		this->_Getal().deallocate(_Pnode, 1);
; 865  : 		}
; 866  : 
; 867  : 	_Alty _Getal() const
; 868  : 		{	// get allocator
; 869  : 		return (_Alty());

  0002c	8d 4d ff	 lea	 ecx, DWORD PTR $T2[ebp]
  0002f	e8 00 00 00 00	 call	 ??0?$_Wrap_alloc@V?$allocator@U?$_Tree_node@U?$pair@$$CBHPAVCGraphicImage@@@std@@PAX@std@@@std@@@std@@QAE@XZ ; std::_Wrap_alloc<std::allocator<std::_Tree_node<std::pair<int const ,CGraphicImage *>,void *> > >::_Wrap_alloc<std::allocator<std::_Tree_node<std::pair<int const ,CGraphicImage *>,void *> > >

; 860  : 		this->_Getal().destroy(
; 861  : 			_STD addressof(this->_Parent(_Pnode)));

  00034	51		 push	 ecx
  00035	e8 00 00 00 00	 call	 ??$destroy@PAU?$_Tree_node@U?$pair@$$CBHPAVCGraphicImage@@@std@@PAX@std@@@?$_Wrap_alloc@V?$allocator@U?$_Tree_node@U?$pair@$$CBHPAVCGraphicImage@@@std@@PAX@std@@@std@@@std@@QAEXPAPAU?$_Tree_node@U?$pair@$$CBHPAVCGraphicImage@@@std@@PAX@1@@Z ; std::_Wrap_alloc<std::allocator<std::_Tree_node<std::pair<int const ,CGraphicImage *>,void *> > >::destroy<std::_Tree_node<std::pair<int const ,CGraphicImage *>,void *> *>

; 864  : 		this->_Getal().deallocate(_Pnode, 1);
; 865  : 		}
; 866  : 
; 867  : 	_Alty _Getal() const
; 868  : 		{	// get allocator
; 869  : 		return (_Alty());

  0003a	8d 4d ff	 lea	 ecx, DWORD PTR $T4[ebp]
  0003d	e8 00 00 00 00	 call	 ??0?$_Wrap_alloc@V?$allocator@U?$_Tree_node@U?$pair@$$CBHPAVCGraphicImage@@@std@@PAX@std@@@std@@@std@@QAE@XZ ; std::_Wrap_alloc<std::allocator<std::_Tree_node<std::pair<int const ,CGraphicImage *>,void *> > >::_Wrap_alloc<std::allocator<std::_Tree_node<std::pair<int const ,CGraphicImage *>,void *> > >

; 862  : 		this->_Getal().destroy(
; 863  : 			_STD addressof(this->_Right(_Pnode)));

  00042	51		 push	 ecx
  00043	e8 00 00 00 00	 call	 ??$destroy@PAU?$_Tree_node@U?$pair@$$CBHPAVCGraphicImage@@@std@@PAX@std@@@?$_Wrap_alloc@V?$allocator@U?$_Tree_node@U?$pair@$$CBHPAVCGraphicImage@@@std@@PAX@std@@@std@@@std@@QAEXPAPAU?$_Tree_node@U?$pair@$$CBHPAVCGraphicImage@@@std@@PAX@1@@Z ; std::_Wrap_alloc<std::allocator<std::_Tree_node<std::pair<int const ,CGraphicImage *>,void *> > >::destroy<std::_Tree_node<std::pair<int const ,CGraphicImage *>,void *> *>

; 864  : 		this->_Getal().deallocate(_Pnode, 1);
; 865  : 		}
; 866  : 
; 867  : 	_Alty _Getal() const
; 868  : 		{	// get allocator
; 869  : 		return (_Alty());

  00048	8d 4d ff	 lea	 ecx, DWORD PTR $T3[ebp]
  0004b	e8 00 00 00 00	 call	 ??0?$_Wrap_alloc@V?$allocator@U?$_Tree_node@U?$pair@$$CBHPAVCGraphicImage@@@std@@PAX@std@@@std@@@std@@QAE@XZ ; std::_Wrap_alloc<std::allocator<std::_Tree_node<std::pair<int const ,CGraphicImage *>,void *> > >::_Wrap_alloc<std::allocator<std::_Tree_node<std::pair<int const ,CGraphicImage *>,void *> > >
; File c:\program files (x86)\microsoft visual studio 12.0\vc\include\xmemory0

; 573  : 		::operator delete(_Ptr);

  00050	56		 push	 esi
  00051	e8 00 00 00 00	 call	 ??3@YAXPAX@Z		; operator delete
  00056	83 c4 04	 add	 esp, 4
  00059	5e		 pop	 esi
  0005a	8b e5		 mov	 esp, ebp
  0005c	5d		 pop	 ebp
  0005d	c3		 ret	 0
??__Fm_kMap_iEmotionIndex_pkIconImage@@YAXXZ ENDP	; `dynamic atexit destructor for 'm_kMap_iEmotionIndex_pkIconImage''
text$yd	ENDS
; Function compile flags: /Ogtp
; File c:\program files (x86)\microsoft visual studio 12.0\vc\include\xtree
; File c:\program files (x86)\microsoft visual studio 12.0\vc\include\xmemory0
;	COMDAT ??1?$map@HPAVCGraphicImage@@U?$less@H@std@@V?$allocator@U?$pair@$$CBHPAVCGraphicImage@@@std@@@3@@std@@QAE@XZ
_TEXT	SEGMENT
$T1 = -4						; size = 4
??1?$map@HPAVCGraphicImage@@U?$less@H@std@@V?$allocator@U?$pair@$$CBHPAVCGraphicImage@@@std@@@3@@std@@QAE@XZ PROC ; std::map<int,CGraphicImage *,std::less<int>,std::allocator<std::pair<int const ,CGraphicImage *> > >::~map<int,CGraphicImage *,std::less<int>,std::allocator<std::pair<int const ,CGraphicImage *> > >, COMDAT
; _this$dead$ = ecx
  00000	55		 push	 ebp
  00001	8b ec		 mov	 ebp, esp
  00003	51		 push	 ecx
; File c:\program files (x86)\microsoft visual studio 12.0\vc\include\xtree

; 2230 : 		erase(begin(), end());

  00004	a1 00 00 00 00	 mov	 eax, DWORD PTR ?m_kMap_iEmotionIndex_pkIconImage@@3V?$map@HPAVCGraphicImage@@U?$less@H@std@@V?$allocator@U?$pair@$$CBHPAVCGraphicImage@@@std@@@3@@std@@A
  00009	50		 push	 eax
  0000a	ff 30		 push	 DWORD PTR [eax]
  0000c	8d 45 fc	 lea	 eax, DWORD PTR $T1[ebp]
  0000f	50		 push	 eax
  00010	e8 00 00 00 00	 call	 ?erase@?$_Tree@V?$_Tmap_traits@HPAVCGraphicImage@@U?$less@H@std@@V?$allocator@U?$pair@$$CBHPAVCGraphicImage@@@std@@@3@$0A@@std@@@std@@QAE?AV?$_Tree_iterator@V?$_Tree_val@U?$_Tree_simple_types@U?$pair@$$CBHPAVCGraphicImage@@@std@@@std@@@std@@@2@V?$_Tree_const_iterator@V?$_Tree_val@U?$_Tree_simple_types@U?$pair@$$CBHPAVCGraphicImage@@@std@@@std@@@std@@@2@0@Z ; std::_Tree<std::_Tmap_traits<int,CGraphicImage *,std::less<int>,std::allocator<std::pair<int const ,CGraphicImage *> >,0> >::erase
; File c:\program files (x86)\microsoft visual studio 12.0\vc\include\xmemory0

; 573  : 		::operator delete(_Ptr);

  00015	ff 35 00 00 00
	00		 push	 DWORD PTR ?m_kMap_iEmotionIndex_pkIconImage@@3V?$map@HPAVCGraphicImage@@U?$less@H@std@@V?$allocator@U?$pair@$$CBHPAVCGraphicImage@@@std@@@3@@std@@A
  0001b	e8 00 00 00 00	 call	 ??3@YAXPAX@Z		; operator delete
  00020	83 c4 04	 add	 esp, 4
  00023	8b e5		 mov	 esp, ebp
  00025	5d		 pop	 ebp
  00026	c3		 ret	 0
??1?$map@HPAVCGraphicImage@@U?$less@H@std@@V?$allocator@U?$pair@$$CBHPAVCGraphicImage@@@std@@@3@@std@@QAE@XZ ENDP ; std::map<int,CGraphicImage *,std::less<int>,std::allocator<std::pair<int const ,CGraphicImage *> > >::~map<int,CGraphicImage *,std::less<int>,std::allocator<std::pair<int const ,CGraphicImage *> > >
_TEXT	ENDS
; Function compile flags: /Ogtp
; File d:\metin2\metin2\client_source_clean\client_source_clean\source\userinterface\pythonplayermodule.cpp
;	COMDAT ?playerPickCloseItem@@YAPAU_object@@PAU1@0@Z
_TEXT	SEGMENT
_poSelf$ = 8						; size = 4
_poArgs$ = 12						; size = 4
?playerPickCloseItem@@YAPAU_object@@PAU1@0@Z PROC	; playerPickCloseItem, COMDAT

; 115  : 	CPythonPlayer::Instance().PickCloseItem();

  00000	8b 0d 00 00 00
	00		 mov	 ecx, DWORD PTR ?ms_singleton@?$CSingleton@VCPythonPlayer@@@@0PAVCPythonPlayer@@A ; CSingleton<CPythonPlayer>::ms_singleton
  00006	e8 00 00 00 00	 call	 ?PickCloseItem@CPythonPlayer@@QAEXXZ ; CPythonPlayer::PickCloseItem

; 116  : 	return Py_BuildNone();

  0000b	e9 00 00 00 00	 jmp	 ?Py_BuildNone@@YAPAU_object@@XZ ; Py_BuildNone
?playerPickCloseItem@@YAPAU_object@@PAU1@0@Z ENDP	; playerPickCloseItem
_TEXT	ENDS
; Function compile flags: /Ogtp
; File d:\metin2\metin2\client_source_clean\client_source_clean\source\userinterface\pythonplayermodule.cpp
;	COMDAT ?playerSetGameWindow@@YAPAU_object@@PAU1@0@Z
_TEXT	SEGMENT
_pyHandle$ = -4						; size = 4
_poSelf$ = 8						; size = 4
_poArgs$ = 12						; size = 4
?playerSetGameWindow@@YAPAU_object@@PAU1@0@Z PROC	; playerSetGameWindow, COMDAT

; 121  : {

  00000	55		 push	 ebp
  00001	8b ec		 mov	 ebp, esp
  00003	51		 push	 ecx

; 122  : 	PyObject * pyHandle;
; 123  : 	if (!PyTuple_GetObject(poArgs, 0, &pyHandle))

  00004	8d 45 fc	 lea	 eax, DWORD PTR _pyHandle$[ebp]
  00007	50		 push	 eax
  00008	6a 00		 push	 0
  0000a	ff 75 0c	 push	 DWORD PTR _poArgs$[ebp]
  0000d	e8 00 00 00 00	 call	 ?PyTuple_GetObject@@YA_NPAU_object@@HPAPAU1@@Z ; PyTuple_GetObject
  00012	83 c4 0c	 add	 esp, 12			; 0000000cH
  00015	84 c0		 test	 al, al
  00017	75 09		 jne	 SHORT $LN1@playerSetG

; 124  : 		return Py_BadArgument();

  00019	e8 00 00 00 00	 call	 ?Py_BadArgument@@YAPAU_object@@XZ ; Py_BadArgument

; 129  : }

  0001e	8b e5		 mov	 esp, ebp
  00020	5d		 pop	 ebp
  00021	c3		 ret	 0
$LN1@playerSetG:

; 125  : 
; 126  : 	CPythonPlayer & rkPlayer = CPythonPlayer::Instance();
; 127  : 	rkPlayer.SetGameWindow(pyHandle);

  00022	ff 75 fc	 push	 DWORD PTR _pyHandle$[ebp]
  00025	8b 0d 00 00 00
	00		 mov	 ecx, DWORD PTR ?ms_singleton@?$CSingleton@VCPythonPlayer@@@@0PAVCPythonPlayer@@A ; CSingleton<CPythonPlayer>::ms_singleton
  0002b	e8 00 00 00 00	 call	 ?SetGameWindow@CPythonPlayer@@QAEXPAU_object@@@Z ; CPythonPlayer::SetGameWindow

; 128  : 	return Py_BuildNone();

  00030	e8 00 00 00 00	 call	 ?Py_BuildNone@@YAPAU_object@@XZ ; Py_BuildNone

; 129  : }

  00035	8b e5		 mov	 esp, ebp
  00037	5d		 pop	 ebp
  00038	c3		 ret	 0
?playerSetGameWindow@@YAPAU_object@@PAU1@0@Z ENDP	; playerSetGameWindow
_TEXT	ENDS
; Function compile flags: /Ogtp
; File d:\metin2\metin2\client_source_clean\client_source_clean\source\userinterface\pythonplayermodule.cpp
;	COMDAT ?playerSetQuickCameraMode@@YAPAU_object@@PAU1@0@Z
_TEXT	SEGMENT
_nIsEnable$ = -4					; size = 4
_poSelf$ = 8						; size = 4
_poArgs$ = 12						; size = 4
?playerSetQuickCameraMode@@YAPAU_object@@PAU1@0@Z PROC	; playerSetQuickCameraMode, COMDAT

; 133  : {

  00000	55		 push	 ebp
  00001	8b ec		 mov	 ebp, esp
  00003	51		 push	 ecx

; 134  : 	int nIsEnable;
; 135  : 	if (!PyTuple_GetInteger(poArgs, 0, &nIsEnable))

  00004	8d 45 fc	 lea	 eax, DWORD PTR _nIsEnable$[ebp]
  00007	50		 push	 eax
  00008	6a 00		 push	 0
  0000a	ff 75 0c	 push	 DWORD PTR _poArgs$[ebp]
  0000d	e8 00 00 00 00	 call	 ?PyTuple_GetInteger@@YA_NPAU_object@@HPAH@Z ; PyTuple_GetInteger
  00012	83 c4 0c	 add	 esp, 12			; 0000000cH
  00015	84 c0		 test	 al, al
  00017	75 09		 jne	 SHORT $LN1@playerSetQ

; 136  : 		return Py_BadArgument();

  00019	e8 00 00 00 00	 call	 ?Py_BadArgument@@YAPAU_object@@XZ ; Py_BadArgument

; 142  : }

  0001e	8b e5		 mov	 esp, ebp
  00020	5d		 pop	 ebp
  00021	c3		 ret	 0
$LN1@playerSetQ:

; 137  : 
; 138  : 	CPythonPlayer & rkPlayer = CPythonPlayer::Instance();
; 139  : 	rkPlayer.SetQuickCameraMode(nIsEnable ? true : false);	

  00022	83 7d fc 00	 cmp	 DWORD PTR _nIsEnable$[ebp], 0
  00026	8b 0d 00 00 00
	00		 mov	 ecx, DWORD PTR ?ms_singleton@?$CSingleton@VCPythonPlayer@@@@0PAVCPythonPlayer@@A ; CSingleton<CPythonPlayer>::ms_singleton
  0002c	0f 95 c0	 setne	 al
  0002f	0f b6 c0	 movzx	 eax, al
  00032	50		 push	 eax
  00033	e8 00 00 00 00	 call	 ?SetQuickCameraMode@CPythonPlayer@@QAEX_N@Z ; CPythonPlayer::SetQuickCameraMode

; 140  : 
; 141  : 	return Py_BuildNone();

  00038	e8 00 00 00 00	 call	 ?Py_BuildNone@@YAPAU_object@@XZ ; Py_BuildNone

; 142  : }

  0003d	8b e5		 mov	 esp, ebp
  0003f	5d		 pop	 ebp
  00040	c3		 ret	 0
?playerSetQuickCameraMode@@YAPAU_object@@PAU1@0@Z ENDP	; playerSetQuickCameraMode
_TEXT	ENDS
; Function compile flags: /Ogtp
; File d:\metin2\metin2\client_source_clean\client_source_clean\source\userinterface\pythonplayermodule.cpp
;	COMDAT ?playerSetMainCharacterIndex@@YAPAU_object@@PAU1@0@Z
_TEXT	SEGMENT
_iVID$ = -4						; size = 4
_poSelf$ = 8						; size = 4
_poArgs$ = 12						; size = 4
?playerSetMainCharacterIndex@@YAPAU_object@@PAU1@0@Z PROC ; playerSetMainCharacterIndex, COMDAT

; 146  : {

  00000	55		 push	 ebp
  00001	8b ec		 mov	 ebp, esp
  00003	51		 push	 ecx

; 147  : 	int iVID;
; 148  : 	if (!PyTuple_GetInteger(poArgs, 0, &iVID))

  00004	8d 45 fc	 lea	 eax, DWORD PTR _iVID$[ebp]
  00007	50		 push	 eax
  00008	6a 00		 push	 0
  0000a	ff 75 0c	 push	 DWORD PTR _poArgs$[ebp]
  0000d	e8 00 00 00 00	 call	 ?PyTuple_GetInteger@@YA_NPAU_object@@HPAH@Z ; PyTuple_GetInteger
  00012	83 c4 0c	 add	 esp, 12			; 0000000cH
  00015	84 c0		 test	 al, al
  00017	75 0e		 jne	 SHORT $LN1@playerSetM

; 149  : 		return Py_BuildException();

  00019	6a 00		 push	 0
  0001b	e8 00 00 00 00	 call	 ?Py_BuildException@@YAPAU_object@@PBDZZ ; Py_BuildException
  00020	83 c4 04	 add	 esp, 4

; 155  : }

  00023	8b e5		 mov	 esp, ebp
  00025	5d		 pop	 ebp
  00026	c3		 ret	 0
$LN1@playerSetM:

; 150  : 
; 151  : 	CPythonPlayer::Instance().SetMainCharacterIndex(iVID);

  00027	8b 0d 00 00 00
	00		 mov	 ecx, DWORD PTR ?ms_singleton@?$CSingleton@VCPythonPlayer@@@@0PAVCPythonPlayer@@A ; CSingleton<CPythonPlayer>::ms_singleton
  0002d	ff 75 fc	 push	 DWORD PTR _iVID$[ebp]
  00030	83 c1 04	 add	 ecx, 4
  00033	8b 01		 mov	 eax, DWORD PTR [ecx]
  00035	ff 50 08	 call	 DWORD PTR [eax+8]

; 152  : 	CPythonCharacterManager::Instance().SetMainInstance(iVID);

  00038	ff 75 fc	 push	 DWORD PTR _iVID$[ebp]
  0003b	8b 0d 00 00 00
	00		 mov	 ecx, DWORD PTR ?ms_singleton@?$CSingleton@VCPythonCharacterManager@@@@0PAVCPythonCharacterManager@@A ; CSingleton<CPythonCharacterManager>::ms_singleton
  00041	e8 00 00 00 00	 call	 ?SetMainInstance@CPythonCharacterManager@@QAE_NK@Z ; CPythonCharacterManager::SetMainInstance

; 153  : 
; 154  : 	return Py_BuildNone();

  00046	e8 00 00 00 00	 call	 ?Py_BuildNone@@YAPAU_object@@XZ ; Py_BuildNone

; 155  : }

  0004b	8b e5		 mov	 esp, ebp
  0004d	5d		 pop	 ebp
  0004e	c3		 ret	 0
?playerSetMainCharacterIndex@@YAPAU_object@@PAU1@0@Z ENDP ; playerSetMainCharacterIndex
_TEXT	ENDS
; Function compile flags: /Ogtp
; File d:\metin2\metin2\client_source_clean\client_source_clean\source\userinterface\pythonplayermodule.cpp
;	COMDAT ?playerGetMainCharacterIndex@@YAPAU_object@@PAU1@0@Z
_TEXT	SEGMENT
_poSelf$ = 8						; size = 4
_poArgs$ = 12						; size = 4
?playerGetMainCharacterIndex@@YAPAU_object@@PAU1@0@Z PROC ; playerGetMainCharacterIndex, COMDAT

; 160  : 	return Py_BuildValue("i", CPythonPlayer::Instance().GetMainCharacterIndex());

  00000	8b 0d 00 00 00
	00		 mov	 ecx, DWORD PTR ?ms_singleton@?$CSingleton@VCPythonPlayer@@@@0PAVCPythonPlayer@@A ; CSingleton<CPythonPlayer>::ms_singleton
  00006	83 c1 04	 add	 ecx, 4
  00009	8b 01		 mov	 eax, DWORD PTR [ecx]
  0000b	ff 50 04	 call	 DWORD PTR [eax+4]
  0000e	50		 push	 eax
  0000f	68 00 00 00 00	 push	 OFFSET ??_C@_01KBJDNOO@i?$AA@
  00014	ff 15 00 00 00
	00		 call	 DWORD PTR __imp__Py_BuildValue
  0001a	83 c4 08	 add	 esp, 8

; 161  : }

  0001d	c3		 ret	 0
?playerGetMainCharacterIndex@@YAPAU_object@@PAU1@0@Z ENDP ; playerGetMainCharacterIndex
_TEXT	ENDS
; Function compile flags: /Ogtp
; File d:\metin2\metin2\client_source_clean\client_source_clean\source\userinterface\pythonplayermodule.cpp
;	COMDAT ?playerGetMainCharacterName@@YAPAU_object@@PAU1@0@Z
_TEXT	SEGMENT
_poSelf$ = 8						; size = 4
_poArgs$ = 12						; size = 4
?playerGetMainCharacterName@@YAPAU_object@@PAU1@0@Z PROC ; playerGetMainCharacterName, COMDAT

; 165  : 	return Py_BuildValue("s", CPythonPlayer::Instance().GetName());

  00000	8b 0d 00 00 00
	00		 mov	 ecx, DWORD PTR ?ms_singleton@?$CSingleton@VCPythonPlayer@@@@0PAVCPythonPlayer@@A ; CSingleton<CPythonPlayer>::ms_singleton
  00006	83 c1 04	 add	 ecx, 4
  00009	8b 01		 mov	 eax, DWORD PTR [ecx]
  0000b	ff 50 14	 call	 DWORD PTR [eax+20]
  0000e	50		 push	 eax
  0000f	68 00 00 00 00	 push	 OFFSET ??_C@_01LKDEMHDF@s?$AA@
  00014	ff 15 00 00 00
	00		 call	 DWORD PTR __imp__Py_BuildValue
  0001a	83 c4 08	 add	 esp, 8

; 166  : }

  0001d	c3		 ret	 0
?playerGetMainCharacterName@@YAPAU_object@@PAU1@0@Z ENDP ; playerGetMainCharacterName
_TEXT	ENDS
; Function compile flags: /Ogtp
; File d:\metin2\metin2\client_source_clean\client_source_clean\source\userinterface\pythonplayermodule.cpp
;	COMDAT ?playerGetMainCharacterPosition@@YAPAU_object@@PAU1@0@Z
_TEXT	SEGMENT
_kPPosMainActor$ = -12					; size = 12
_poSelf$ = 8						; size = 4
_poArgs$ = 12						; size = 4
?playerGetMainCharacterPosition@@YAPAU_object@@PAU1@0@Z PROC ; playerGetMainCharacterPosition, COMDAT

; 169  : {

  00000	55		 push	 ebp
  00001	8b ec		 mov	 ebp, esp
  00003	83 e4 c0	 and	 esp, -64		; ffffffc0H
  00006	83 ec 40	 sub	 esp, 64			; 00000040H

; 170  : 	TPixelPosition kPPosMainActor;
; 171  : 	CPythonPlayer & rkPlayer = CPythonPlayer::Instance();
; 172  : 	rkPlayer.NEW_GetMainActorPosition(&kPPosMainActor);

  00009	8d 44 24 34	 lea	 eax, DWORD PTR _kPPosMainActor$[esp+64]
  0000d	50		 push	 eax
  0000e	e8 00 00 00 00	 call	 ?NEW_GetMainActorPosition@CPythonPlayer@@QAEXPAUD3DXVECTOR3@@@Z ; CPythonPlayer::NEW_GetMainActorPosition
  00013	f3 0f 10 44 24
	3c		 movss	 xmm0, DWORD PTR _kPPosMainActor$[esp+72]

; 173  : 	return Py_BuildValue("fff", kPPosMainActor.x, kPPosMainActor.y, kPPosMainActor.z);

  00019	83 ec 18	 sub	 esp, 24			; 00000018H
  0001c	0f 5a c0	 cvtps2pd xmm0, xmm0
  0001f	f2 0f 11 44 24
	10		 movsd	 QWORD PTR [esp+16], xmm0
  00025	f3 0f 10 44 24
	50		 movss	 xmm0, DWORD PTR _kPPosMainActor$[esp+92]
  0002b	0f 5a c0	 cvtps2pd xmm0, xmm0
  0002e	f2 0f 11 44 24
	08		 movsd	 QWORD PTR [esp+8], xmm0
  00034	f3 0f 10 44 24
	4c		 movss	 xmm0, DWORD PTR _kPPosMainActor$[esp+88]
  0003a	0f 5a c0	 cvtps2pd xmm0, xmm0
  0003d	f2 0f 11 04 24	 movsd	 QWORD PTR [esp], xmm0
  00042	68 00 00 00 00	 push	 OFFSET ??_C@_03LPALPDIP@fff?$AA@
  00047	ff 15 00 00 00
	00		 call	 DWORD PTR __imp__Py_BuildValue
  0004d	83 c4 1c	 add	 esp, 28			; 0000001cH

; 174  : }

  00050	8b e5		 mov	 esp, ebp
  00052	5d		 pop	 ebp
  00053	c3		 ret	 0
?playerGetMainCharacterPosition@@YAPAU_object@@PAU1@0@Z ENDP ; playerGetMainCharacterPosition
_TEXT	ENDS
; Function compile flags: /Ogtp
; File d:\metin2\metin2\client_source_clean\client_source_clean\source\userinterface\pythonplayermodule.cpp
;	COMDAT ?playerIsMainCharacterIndex@@YAPAU_object@@PAU1@0@Z
_TEXT	SEGMENT
_iVID$ = -4						; size = 4
_poSelf$ = 8						; size = 4
_poArgs$ = 12						; size = 4
?playerIsMainCharacterIndex@@YAPAU_object@@PAU1@0@Z PROC ; playerIsMainCharacterIndex, COMDAT

; 177  : {

  00000	55		 push	 ebp
  00001	8b ec		 mov	 ebp, esp
  00003	51		 push	 ecx

; 178  : 	int iVID;
; 179  : 	if (!PyTuple_GetInteger(poArgs, 0, &iVID))

  00004	8d 45 fc	 lea	 eax, DWORD PTR _iVID$[ebp]
  00007	50		 push	 eax
  00008	6a 00		 push	 0
  0000a	ff 75 0c	 push	 DWORD PTR _poArgs$[ebp]
  0000d	e8 00 00 00 00	 call	 ?PyTuple_GetInteger@@YA_NPAU_object@@HPAH@Z ; PyTuple_GetInteger
  00012	83 c4 0c	 add	 esp, 12			; 0000000cH
  00015	84 c0		 test	 al, al
  00017	75 0e		 jne	 SHORT $LN1@playerIsMa

; 180  : 		return Py_BuildException();

  00019	6a 00		 push	 0
  0001b	e8 00 00 00 00	 call	 ?Py_BuildException@@YAPAU_object@@PBDZZ ; Py_BuildException
  00020	83 c4 04	 add	 esp, 4

; 183  : }

  00023	8b e5		 mov	 esp, ebp
  00025	5d		 pop	 ebp
  00026	c3		 ret	 0
$LN1@playerIsMa:

; 181  : 
; 182  : 	return Py_BuildValue("i", CPythonPlayer::Instance().IsMainCharacterIndex(iVID));

  00027	8b 0d 00 00 00
	00		 mov	 ecx, DWORD PTR ?ms_singleton@?$CSingleton@VCPythonPlayer@@@@0PAVCPythonPlayer@@A ; CSingleton<CPythonPlayer>::ms_singleton
  0002d	ff 75 fc	 push	 DWORD PTR _iVID$[ebp]
  00030	83 c1 04	 add	 ecx, 4
  00033	8b 01		 mov	 eax, DWORD PTR [ecx]
  00035	8b 40 0c	 mov	 eax, DWORD PTR [eax+12]
  00038	ff d0		 call	 eax
  0003a	0f b6 c0	 movzx	 eax, al
  0003d	50		 push	 eax
  0003e	68 00 00 00 00	 push	 OFFSET ??_C@_01KBJDNOO@i?$AA@
  00043	ff 15 00 00 00
	00		 call	 DWORD PTR __imp__Py_BuildValue
  00049	83 c4 08	 add	 esp, 8

; 183  : }

  0004c	8b e5		 mov	 esp, ebp
  0004e	5d		 pop	 ebp
  0004f	c3		 ret	 0
?playerIsMainCharacterIndex@@YAPAU_object@@PAU1@0@Z ENDP ; playerIsMainCharacterIndex
_TEXT	ENDS
; Function compile flags: /Ogtp
; File d:\metin2\metin2\client_source_clean\client_source_clean\source\userinterface\pythonplayermodule.cpp
;	COMDAT ?playerCanAttackInstance@@YAPAU_object@@PAU1@0@Z
_TEXT	SEGMENT
_iVID$ = -4						; size = 4
_poSelf$ = 8						; size = 4
_poArgs$ = 12						; size = 4
?playerCanAttackInstance@@YAPAU_object@@PAU1@0@Z PROC	; playerCanAttackInstance, COMDAT

; 186  : {

  00000	55		 push	 ebp
  00001	8b ec		 mov	 ebp, esp
  00003	51		 push	 ecx

; 187  : 	int iVID;
; 188  : 	if (!PyTuple_GetInteger(poArgs, 0, &iVID))

  00004	8d 45 fc	 lea	 eax, DWORD PTR _iVID$[ebp]
  00007	50		 push	 eax
  00008	6a 00		 push	 0
  0000a	ff 75 0c	 push	 DWORD PTR _poArgs$[ebp]
  0000d	e8 00 00 00 00	 call	 ?PyTuple_GetInteger@@YA_NPAU_object@@HPAH@Z ; PyTuple_GetInteger
  00012	83 c4 0c	 add	 esp, 12			; 0000000cH
  00015	84 c0		 test	 al, al
  00017	75 0e		 jne	 SHORT $LN3@playerCanA

; 189  : 		return Py_BuildException();

  00019	6a 00		 push	 0
  0001b	e8 00 00 00 00	 call	 ?Py_BuildException@@YAPAU_object@@PBDZZ ; Py_BuildException
  00020	83 c4 04	 add	 esp, 4

; 199  : }

  00023	8b e5		 mov	 esp, ebp
  00025	5d		 pop	 ebp
  00026	c3		 ret	 0
$LN3@playerCanA:

; 190  : 
; 191  : 	CInstanceBase * pMainInstance = CPythonPlayer::Instance().NEW_GetMainActorPtr();

  00027	8b 0d 00 00 00
	00		 mov	 ecx, DWORD PTR ?ms_singleton@?$CSingleton@VCPythonPlayer@@@@0PAVCPythonPlayer@@A ; CSingleton<CPythonPlayer>::ms_singleton
  0002d	83 c1 04	 add	 ecx, 4
  00030	56		 push	 esi
  00031	8b 01		 mov	 eax, DWORD PTR [ecx]
  00033	ff 90 88 00 00
	00		 call	 DWORD PTR [eax+136]

; 192  : 	CInstanceBase * pTargetInstance = CPythonCharacterManager::Instance().GetInstancePtr(iVID);

  00039	8b 0d 00 00 00
	00		 mov	 ecx, DWORD PTR ?ms_singleton@?$CSingleton@VCPythonCharacterManager@@@@0PAVCPythonCharacterManager@@A ; CSingleton<CPythonCharacterManager>::ms_singleton
  0003f	8b f0		 mov	 esi, eax
  00041	ff 75 fc	 push	 DWORD PTR _iVID$[ebp]
  00044	83 c1 04	 add	 ecx, 4
  00047	8b 11		 mov	 edx, DWORD PTR [ecx]
  00049	ff 52 08	 call	 DWORD PTR [edx+8]

; 193  : 	if (!pMainInstance)

  0004c	85 f6		 test	 esi, esi
  0004e	75 15		 jne	 SHORT $LN2@playerCanA
$LN12@playerCanA:

; 194  : 		return Py_BuildValue("i", 0);

  00050	6a 00		 push	 0

; 196  : 		return Py_BuildValue("i", 0);
; 197  : 
; 198  : 	return Py_BuildValue("i", pMainInstance->IsAttackableInstance(*pTargetInstance));

  00052	68 00 00 00 00	 push	 OFFSET ??_C@_01KBJDNOO@i?$AA@
  00057	ff 15 00 00 00
	00		 call	 DWORD PTR __imp__Py_BuildValue
  0005d	83 c4 08	 add	 esp, 8
  00060	5e		 pop	 esi

; 199  : }

  00061	8b e5		 mov	 esp, ebp
  00063	5d		 pop	 ebp
  00064	c3		 ret	 0
$LN2@playerCanA:

; 195  : 	if (!pTargetInstance)

  00065	85 c0		 test	 eax, eax
  00067	74 e7		 je	 SHORT $LN12@playerCanA

; 196  : 		return Py_BuildValue("i", 0);
; 197  : 
; 198  : 	return Py_BuildValue("i", pMainInstance->IsAttackableInstance(*pTargetInstance));

  00069	50		 push	 eax
  0006a	8b ce		 mov	 ecx, esi
  0006c	e8 00 00 00 00	 call	 ?IsAttackableInstance@CInstanceBase@@QAE_NAAV1@@Z ; CInstanceBase::IsAttackableInstance
  00071	0f b6 c0	 movzx	 eax, al
  00074	50		 push	 eax
  00075	68 00 00 00 00	 push	 OFFSET ??_C@_01KBJDNOO@i?$AA@
  0007a	ff 15 00 00 00
	00		 call	 DWORD PTR __imp__Py_BuildValue
  00080	83 c4 08	 add	 esp, 8
  00083	5e		 pop	 esi

; 199  : }

  00084	8b e5		 mov	 esp, ebp
  00086	5d		 pop	 ebp
  00087	c3		 ret	 0
?playerCanAttackInstance@@YAPAU_object@@PAU1@0@Z ENDP	; playerCanAttackInstance
_TEXT	ENDS
; Function compile flags: /Ogtp
; File d:\metin2\metin2\client_source_clean\client_source_clean\source\userinterface\pythonplayermodule.cpp
;	COMDAT ?playerIsActingEmotion@@YAPAU_object@@PAU1@0@Z
_TEXT	SEGMENT
_poSelf$ = 8						; size = 4
_poArgs$ = 12						; size = 4
?playerIsActingEmotion@@YAPAU_object@@PAU1@0@Z PROC	; playerIsActingEmotion, COMDAT

; 203  : 	CInstanceBase * pMainInstance = CPythonPlayer::Instance().NEW_GetMainActorPtr();

  00000	8b 0d 00 00 00
	00		 mov	 ecx, DWORD PTR ?ms_singleton@?$CSingleton@VCPythonPlayer@@@@0PAVCPythonPlayer@@A ; CSingleton<CPythonPlayer>::ms_singleton
  00006	83 c1 04	 add	 ecx, 4
  00009	8b 01		 mov	 eax, DWORD PTR [ecx]
  0000b	ff 90 88 00 00
	00		 call	 DWORD PTR [eax+136]

; 204  : 	if (!pMainInstance)

  00011	85 c0		 test	 eax, eax
  00013	75 10		 jne	 SHORT $LN1@playerIsAc

; 205  : 		return Py_BuildValue("i", 0);

  00015	50		 push	 eax

; 206  : 
; 207  : 	return Py_BuildValue("i", pMainInstance->IsActingEmotion());

  00016	68 00 00 00 00	 push	 OFFSET ??_C@_01KBJDNOO@i?$AA@
  0001b	ff 15 00 00 00
	00		 call	 DWORD PTR __imp__Py_BuildValue
  00021	83 c4 08	 add	 esp, 8

; 208  : }

  00024	c3		 ret	 0
$LN1@playerIsAc:

; 206  : 
; 207  : 	return Py_BuildValue("i", pMainInstance->IsActingEmotion());

  00025	8b c8		 mov	 ecx, eax
  00027	e8 00 00 00 00	 call	 ?IsActingEmotion@CInstanceBase@@QAEHXZ ; CInstanceBase::IsActingEmotion
  0002c	50		 push	 eax
  0002d	68 00 00 00 00	 push	 OFFSET ??_C@_01KBJDNOO@i?$AA@
  00032	ff 15 00 00 00
	00		 call	 DWORD PTR __imp__Py_BuildValue
  00038	83 c4 08	 add	 esp, 8

; 208  : }

  0003b	c3		 ret	 0
?playerIsActingEmotion@@YAPAU_object@@PAU1@0@Z ENDP	; playerIsActingEmotion
_TEXT	ENDS
; Function compile flags: /Ogtp
; File d:\metin2\metin2\client_source_clean\client_source_clean\source\userinterface\pythonplayermodule.cpp
;	COMDAT ?playerIsPVPInstance@@YAPAU_object@@PAU1@0@Z
_TEXT	SEGMENT
_iVID$ = -4						; size = 4
_poSelf$ = 8						; size = 4
_poArgs$ = 12						; size = 4
?playerIsPVPInstance@@YAPAU_object@@PAU1@0@Z PROC	; playerIsPVPInstance, COMDAT

; 211  : {

  00000	55		 push	 ebp
  00001	8b ec		 mov	 ebp, esp
  00003	51		 push	 ecx

; 212  : 	int iVID;
; 213  : 	if (!PyTuple_GetInteger(poArgs, 0, &iVID))

  00004	8d 45 fc	 lea	 eax, DWORD PTR _iVID$[ebp]
  00007	50		 push	 eax
  00008	6a 00		 push	 0
  0000a	ff 75 0c	 push	 DWORD PTR _poArgs$[ebp]
  0000d	e8 00 00 00 00	 call	 ?PyTuple_GetInteger@@YA_NPAU_object@@HPAH@Z ; PyTuple_GetInteger
  00012	83 c4 0c	 add	 esp, 12			; 0000000cH
  00015	84 c0		 test	 al, al
  00017	75 0e		 jne	 SHORT $LN3@playerIsPV

; 214  : 		return Py_BuildException();

  00019	6a 00		 push	 0
  0001b	e8 00 00 00 00	 call	 ?Py_BuildException@@YAPAU_object@@PBDZZ ; Py_BuildException
  00020	83 c4 04	 add	 esp, 4

; 224  : }

  00023	8b e5		 mov	 esp, ebp
  00025	5d		 pop	 ebp
  00026	c3		 ret	 0
$LN3@playerIsPV:

; 215  : 
; 216  : 	CInstanceBase * pMainInstance = CPythonPlayer::Instance().NEW_GetMainActorPtr();

  00027	8b 0d 00 00 00
	00		 mov	 ecx, DWORD PTR ?ms_singleton@?$CSingleton@VCPythonPlayer@@@@0PAVCPythonPlayer@@A ; CSingleton<CPythonPlayer>::ms_singleton
  0002d	83 c1 04	 add	 ecx, 4
  00030	56		 push	 esi
  00031	8b 01		 mov	 eax, DWORD PTR [ecx]
  00033	ff 90 88 00 00
	00		 call	 DWORD PTR [eax+136]

; 217  : 	CInstanceBase * pTargetInstance = CPythonCharacterManager::Instance().GetInstancePtr(iVID);

  00039	8b 0d 00 00 00
	00		 mov	 ecx, DWORD PTR ?ms_singleton@?$CSingleton@VCPythonCharacterManager@@@@0PAVCPythonCharacterManager@@A ; CSingleton<CPythonCharacterManager>::ms_singleton
  0003f	8b f0		 mov	 esi, eax
  00041	ff 75 fc	 push	 DWORD PTR _iVID$[ebp]
  00044	83 c1 04	 add	 ecx, 4
  00047	8b 11		 mov	 edx, DWORD PTR [ecx]
  00049	ff 52 08	 call	 DWORD PTR [edx+8]

; 218  : 	if (!pMainInstance)

  0004c	85 f6		 test	 esi, esi
  0004e	75 15		 jne	 SHORT $LN2@playerIsPV
$LN12@playerIsPV:

; 219  : 		return Py_BuildValue("i", 0);

  00050	6a 00		 push	 0

; 221  : 		return Py_BuildValue("i", 0);
; 222  : 
; 223  : 	return Py_BuildValue("i", pMainInstance->IsPVPInstance(*pTargetInstance));

  00052	68 00 00 00 00	 push	 OFFSET ??_C@_01KBJDNOO@i?$AA@
  00057	ff 15 00 00 00
	00		 call	 DWORD PTR __imp__Py_BuildValue
  0005d	83 c4 08	 add	 esp, 8
  00060	5e		 pop	 esi

; 224  : }

  00061	8b e5		 mov	 esp, ebp
  00063	5d		 pop	 ebp
  00064	c3		 ret	 0
$LN2@playerIsPV:

; 220  : 	if (!pTargetInstance)

  00065	85 c0		 test	 eax, eax
  00067	74 e7		 je	 SHORT $LN12@playerIsPV

; 221  : 		return Py_BuildValue("i", 0);
; 222  : 
; 223  : 	return Py_BuildValue("i", pMainInstance->IsPVPInstance(*pTargetInstance));

  00069	50		 push	 eax
  0006a	8b ce		 mov	 ecx, esi
  0006c	e8 00 00 00 00	 call	 ?IsPVPInstance@CInstanceBase@@QAE_NAAV1@@Z ; CInstanceBase::IsPVPInstance
  00071	0f b6 c0	 movzx	 eax, al
  00074	50		 push	 eax
  00075	68 00 00 00 00	 push	 OFFSET ??_C@_01KBJDNOO@i?$AA@
  0007a	ff 15 00 00 00
	00		 call	 DWORD PTR __imp__Py_BuildValue
  00080	83 c4 08	 add	 esp, 8
  00083	5e		 pop	 esi

; 224  : }

  00084	8b e5		 mov	 esp, ebp
  00086	5d		 pop	 ebp
  00087	c3		 ret	 0
?playerIsPVPInstance@@YAPAU_object@@PAU1@0@Z ENDP	; playerIsPVPInstance
_TEXT	ENDS
; Function compile flags: /Ogtp
; File d:\metin2\metin2\client_source_clean\client_source_clean\source\userinterface\pythonplayermodule.cpp
;	COMDAT ?playerIsSameEmpire@@YAPAU_object@@PAU1@0@Z
_TEXT	SEGMENT
_iVID$ = -4						; size = 4
_poSelf$ = 8						; size = 4
_poArgs$ = 12						; size = 4
?playerIsSameEmpire@@YAPAU_object@@PAU1@0@Z PROC	; playerIsSameEmpire, COMDAT

; 227  : {

  00000	55		 push	 ebp
  00001	8b ec		 mov	 ebp, esp
  00003	51		 push	 ecx

; 228  : 	int iVID;
; 229  : 	if (!PyTuple_GetInteger(poArgs, 0, &iVID))

  00004	8d 45 fc	 lea	 eax, DWORD PTR _iVID$[ebp]
  00007	50		 push	 eax
  00008	6a 00		 push	 0
  0000a	ff 75 0c	 push	 DWORD PTR _poArgs$[ebp]
  0000d	e8 00 00 00 00	 call	 ?PyTuple_GetInteger@@YA_NPAU_object@@HPAH@Z ; PyTuple_GetInteger
  00012	83 c4 0c	 add	 esp, 12			; 0000000cH
  00015	84 c0		 test	 al, al
  00017	75 0e		 jne	 SHORT $LN3@playerIsSa

; 230  : 		return Py_BuildException();

  00019	6a 00		 push	 0
  0001b	e8 00 00 00 00	 call	 ?Py_BuildException@@YAPAU_object@@PBDZZ ; Py_BuildException
  00020	83 c4 04	 add	 esp, 4

; 240  : }

  00023	8b e5		 mov	 esp, ebp
  00025	5d		 pop	 ebp
  00026	c3		 ret	 0
$LN3@playerIsSa:

; 231  : 
; 232  : 	CInstanceBase * pMainInstance = CPythonPlayer::Instance().NEW_GetMainActorPtr();

  00027	8b 0d 00 00 00
	00		 mov	 ecx, DWORD PTR ?ms_singleton@?$CSingleton@VCPythonPlayer@@@@0PAVCPythonPlayer@@A ; CSingleton<CPythonPlayer>::ms_singleton
  0002d	83 c1 04	 add	 ecx, 4
  00030	56		 push	 esi
  00031	8b 01		 mov	 eax, DWORD PTR [ecx]
  00033	ff 90 88 00 00
	00		 call	 DWORD PTR [eax+136]

; 233  : 	CInstanceBase * pTargetInstance = CPythonCharacterManager::Instance().GetInstancePtr(iVID);

  00039	8b 0d 00 00 00
	00		 mov	 ecx, DWORD PTR ?ms_singleton@?$CSingleton@VCPythonCharacterManager@@@@0PAVCPythonCharacterManager@@A ; CSingleton<CPythonCharacterManager>::ms_singleton
  0003f	8b f0		 mov	 esi, eax
  00041	ff 75 fc	 push	 DWORD PTR _iVID$[ebp]
  00044	83 c1 04	 add	 ecx, 4
  00047	8b 11		 mov	 edx, DWORD PTR [ecx]
  00049	ff 52 08	 call	 DWORD PTR [edx+8]

; 234  : 	if (!pMainInstance)

  0004c	85 f6		 test	 esi, esi
  0004e	75 15		 jne	 SHORT $LN2@playerIsSa
$LN12@playerIsSa:

; 235  : 		return Py_BuildValue("i", FALSE);

  00050	6a 00		 push	 0

; 237  : 		return Py_BuildValue("i", FALSE);
; 238  : 
; 239  : 	return Py_BuildValue("i", pMainInstance->IsSameEmpire(*pTargetInstance));

  00052	68 00 00 00 00	 push	 OFFSET ??_C@_01KBJDNOO@i?$AA@
  00057	ff 15 00 00 00
	00		 call	 DWORD PTR __imp__Py_BuildValue
  0005d	83 c4 08	 add	 esp, 8
  00060	5e		 pop	 esi

; 240  : }

  00061	8b e5		 mov	 esp, ebp
  00063	5d		 pop	 ebp
  00064	c3		 ret	 0
$LN2@playerIsSa:

; 236  : 	if (!pTargetInstance)

  00065	85 c0		 test	 eax, eax
  00067	74 e7		 je	 SHORT $LN12@playerIsSa

; 237  : 		return Py_BuildValue("i", FALSE);
; 238  : 
; 239  : 	return Py_BuildValue("i", pMainInstance->IsSameEmpire(*pTargetInstance));

  00069	50		 push	 eax
  0006a	8b ce		 mov	 ecx, esi
  0006c	e8 00 00 00 00	 call	 ?IsSameEmpire@CInstanceBase@@QAEHAAV1@@Z ; CInstanceBase::IsSameEmpire
  00071	50		 push	 eax
  00072	68 00 00 00 00	 push	 OFFSET ??_C@_01KBJDNOO@i?$AA@
  00077	ff 15 00 00 00
	00		 call	 DWORD PTR __imp__Py_BuildValue
  0007d	83 c4 08	 add	 esp, 8
  00080	5e		 pop	 esi

; 240  : }

  00081	8b e5		 mov	 esp, ebp
  00083	5d		 pop	 ebp
  00084	c3		 ret	 0
?playerIsSameEmpire@@YAPAU_object@@PAU1@0@Z ENDP	; playerIsSameEmpire
_TEXT	ENDS
; Function compile flags: /Ogtp
; File d:\metin2\metin2\client_source_clean\client_source_clean\source\userinterface\pythonplayermodule.cpp
;	COMDAT ?playerIsChallengeInstance@@YAPAU_object@@PAU1@0@Z
_TEXT	SEGMENT
_iVID$ = -4						; size = 4
_poSelf$ = 8						; size = 4
_poArgs$ = 12						; size = 4
?playerIsChallengeInstance@@YAPAU_object@@PAU1@0@Z PROC	; playerIsChallengeInstance, COMDAT

; 243  : {

  00000	55		 push	 ebp
  00001	8b ec		 mov	 ebp, esp
  00003	51		 push	 ecx

; 244  : 	int iVID;
; 245  : 	if (!PyTuple_GetInteger(poArgs, 0, &iVID))

  00004	8d 45 fc	 lea	 eax, DWORD PTR _iVID$[ebp]
  00007	50		 push	 eax
  00008	6a 00		 push	 0
  0000a	ff 75 0c	 push	 DWORD PTR _poArgs$[ebp]
  0000d	e8 00 00 00 00	 call	 ?PyTuple_GetInteger@@YA_NPAU_object@@HPAH@Z ; PyTuple_GetInteger
  00012	83 c4 0c	 add	 esp, 12			; 0000000cH
  00015	84 c0		 test	 al, al
  00017	75 0e		 jne	 SHORT $LN1@playerIsCh

; 246  : 		return Py_BuildException();

  00019	6a 00		 push	 0
  0001b	e8 00 00 00 00	 call	 ?Py_BuildException@@YAPAU_object@@PBDZZ ; Py_BuildException
  00020	83 c4 04	 add	 esp, 4

; 249  : }

  00023	8b e5		 mov	 esp, ebp
  00025	5d		 pop	 ebp
  00026	c3		 ret	 0
$LN1@playerIsCh:

; 247  : 
; 248  : 	return Py_BuildValue("i", CPythonPlayer::Instance().IsChallengeInstance(iVID));

  00027	ff 75 fc	 push	 DWORD PTR _iVID$[ebp]
  0002a	8b 0d 00 00 00
	00		 mov	 ecx, DWORD PTR ?ms_singleton@?$CSingleton@VCPythonPlayer@@@@0PAVCPythonPlayer@@A ; CSingleton<CPythonPlayer>::ms_singleton
  00030	e8 00 00 00 00	 call	 ?IsChallengeInstance@CPythonPlayer@@QAE_NK@Z ; CPythonPlayer::IsChallengeInstance
  00035	0f b6 c0	 movzx	 eax, al
  00038	50		 push	 eax
  00039	68 00 00 00 00	 push	 OFFSET ??_C@_01KBJDNOO@i?$AA@
  0003e	ff 15 00 00 00
	00		 call	 DWORD PTR __imp__Py_BuildValue
  00044	83 c4 08	 add	 esp, 8

; 249  : }

  00047	8b e5		 mov	 esp, ebp
  00049	5d		 pop	 ebp
  0004a	c3		 ret	 0
?playerIsChallengeInstance@@YAPAU_object@@PAU1@0@Z ENDP	; playerIsChallengeInstance
_TEXT	ENDS
; Function compile flags: /Ogtp
; File d:\metin2\metin2\client_source_clean\client_source_clean\source\userinterface\pythonplayermodule.cpp
;	COMDAT ?playerIsRevengeInstance@@YAPAU_object@@PAU1@0@Z
_TEXT	SEGMENT
_iVID$ = -4						; size = 4
_poSelf$ = 8						; size = 4
_poArgs$ = 12						; size = 4
?playerIsRevengeInstance@@YAPAU_object@@PAU1@0@Z PROC	; playerIsRevengeInstance, COMDAT

; 252  : {

  00000	55		 push	 ebp
  00001	8b ec		 mov	 ebp, esp
  00003	51		 push	 ecx

; 253  : 	int iVID;
; 254  : 	if (!PyTuple_GetInteger(poArgs, 0, &iVID))

  00004	8d 45 fc	 lea	 eax, DWORD PTR _iVID$[ebp]
  00007	50		 push	 eax
  00008	6a 00		 push	 0
  0000a	ff 75 0c	 push	 DWORD PTR _poArgs$[ebp]
  0000d	e8 00 00 00 00	 call	 ?PyTuple_GetInteger@@YA_NPAU_object@@HPAH@Z ; PyTuple_GetInteger
  00012	83 c4 0c	 add	 esp, 12			; 0000000cH
  00015	84 c0		 test	 al, al
  00017	75 0e		 jne	 SHORT $LN1@playerIsRe

; 255  : 		return Py_BuildException();

  00019	6a 00		 push	 0
  0001b	e8 00 00 00 00	 call	 ?Py_BuildException@@YAPAU_object@@PBDZZ ; Py_BuildException
  00020	83 c4 04	 add	 esp, 4

; 258  : }

  00023	8b e5		 mov	 esp, ebp
  00025	5d		 pop	 ebp
  00026	c3		 ret	 0
$LN1@playerIsRe:

; 256  : 
; 257  : 	return Py_BuildValue("i", CPythonPlayer::Instance().IsRevengeInstance(iVID));

  00027	ff 75 fc	 push	 DWORD PTR _iVID$[ebp]
  0002a	8b 0d 00 00 00
	00		 mov	 ecx, DWORD PTR ?ms_singleton@?$CSingleton@VCPythonPlayer@@@@0PAVCPythonPlayer@@A ; CSingleton<CPythonPlayer>::ms_singleton
  00030	e8 00 00 00 00	 call	 ?IsRevengeInstance@CPythonPlayer@@QAE_NK@Z ; CPythonPlayer::IsRevengeInstance
  00035	0f b6 c0	 movzx	 eax, al
  00038	50		 push	 eax
  00039	68 00 00 00 00	 push	 OFFSET ??_C@_01KBJDNOO@i?$AA@
  0003e	ff 15 00 00 00
	00		 call	 DWORD PTR __imp__Py_BuildValue
  00044	83 c4 08	 add	 esp, 8

; 258  : }

  00047	8b e5		 mov	 esp, ebp
  00049	5d		 pop	 ebp
  0004a	c3		 ret	 0
?playerIsRevengeInstance@@YAPAU_object@@PAU1@0@Z ENDP	; playerIsRevengeInstance
_TEXT	ENDS
; Function compile flags: /Ogtp
; File d:\metin2\metin2\client_source_clean\client_source_clean\source\userinterface\pythonplayermodule.cpp
;	COMDAT ?playerIsCantFightInstance@@YAPAU_object@@PAU1@0@Z
_TEXT	SEGMENT
_iVID$ = -4						; size = 4
_poSelf$ = 8						; size = 4
_poArgs$ = 12						; size = 4
?playerIsCantFightInstance@@YAPAU_object@@PAU1@0@Z PROC	; playerIsCantFightInstance, COMDAT

; 261  : {

  00000	55		 push	 ebp
  00001	8b ec		 mov	 ebp, esp
  00003	51		 push	 ecx

; 262  : 	int iVID;
; 263  : 	if (!PyTuple_GetInteger(poArgs, 0, &iVID))

  00004	8d 45 fc	 lea	 eax, DWORD PTR _iVID$[ebp]
  00007	50		 push	 eax
  00008	6a 00		 push	 0
  0000a	ff 75 0c	 push	 DWORD PTR _poArgs$[ebp]
  0000d	e8 00 00 00 00	 call	 ?PyTuple_GetInteger@@YA_NPAU_object@@HPAH@Z ; PyTuple_GetInteger
  00012	83 c4 0c	 add	 esp, 12			; 0000000cH
  00015	84 c0		 test	 al, al
  00017	75 0e		 jne	 SHORT $LN1@playerIsCa

; 264  : 		return Py_BuildException();

  00019	6a 00		 push	 0
  0001b	e8 00 00 00 00	 call	 ?Py_BuildException@@YAPAU_object@@PBDZZ ; Py_BuildException
  00020	83 c4 04	 add	 esp, 4

; 267  : }

  00023	8b e5		 mov	 esp, ebp
  00025	5d		 pop	 ebp
  00026	c3		 ret	 0
$LN1@playerIsCa:

; 265  : 
; 266  : 	return Py_BuildValue("i", CPythonPlayer::Instance().IsCantFightInstance(iVID));

  00027	ff 75 fc	 push	 DWORD PTR _iVID$[ebp]
  0002a	8b 0d 00 00 00
	00		 mov	 ecx, DWORD PTR ?ms_singleton@?$CSingleton@VCPythonPlayer@@@@0PAVCPythonPlayer@@A ; CSingleton<CPythonPlayer>::ms_singleton
  00030	e8 00 00 00 00	 call	 ?IsCantFightInstance@CPythonPlayer@@QAE_NK@Z ; CPythonPlayer::IsCantFightInstance
  00035	0f b6 c0	 movzx	 eax, al
  00038	50		 push	 eax
  00039	68 00 00 00 00	 push	 OFFSET ??_C@_01KBJDNOO@i?$AA@
  0003e	ff 15 00 00 00
	00		 call	 DWORD PTR __imp__Py_BuildValue
  00044	83 c4 08	 add	 esp, 8

; 267  : }

  00047	8b e5		 mov	 esp, ebp
  00049	5d		 pop	 ebp
  0004a	c3		 ret	 0
?playerIsCantFightInstance@@YAPAU_object@@PAU1@0@Z ENDP	; playerIsCantFightInstance
_TEXT	ENDS
; Function compile flags: /Ogtp
; File d:\metin2\metin2\client_source_clean\client_source_clean\source\userinterface\pythonplayermodule.cpp
;	COMDAT ?playerGetCharacterDistance@@YAPAU_object@@PAU1@0@Z
_TEXT	SEGMENT
_iVID$ = -4						; size = 4
_poSelf$ = 8						; size = 4
_poArgs$ = 12						; size = 4
?playerGetCharacterDistance@@YAPAU_object@@PAU1@0@Z PROC ; playerGetCharacterDistance, COMDAT

; 270  : {

  00000	55		 push	 ebp
  00001	8b ec		 mov	 ebp, esp
  00003	83 e4 c0	 and	 esp, -64		; ffffffc0H
  00006	83 ec 3c	 sub	 esp, 60			; 0000003cH

; 271  : 	int iVID;
; 272  : 	if (!PyTuple_GetInteger(poArgs, 0, &iVID))

  00009	8d 44 24 38	 lea	 eax, DWORD PTR _iVID$[esp+60]
  0000d	56		 push	 esi
  0000e	50		 push	 eax
  0000f	6a 00		 push	 0
  00011	ff 75 0c	 push	 DWORD PTR _poArgs$[ebp]
  00014	e8 00 00 00 00	 call	 ?PyTuple_GetInteger@@YA_NPAU_object@@HPAH@Z ; PyTuple_GetInteger
  00019	83 c4 0c	 add	 esp, 12			; 0000000cH
  0001c	84 c0		 test	 al, al
  0001e	75 0f		 jne	 SHORT $LN3@playerGetC

; 273  : 		return Py_BuildException();

  00020	6a 00		 push	 0
  00022	e8 00 00 00 00	 call	 ?Py_BuildException@@YAPAU_object@@PBDZZ ; Py_BuildException
  00027	83 c4 04	 add	 esp, 4

; 283  : }

  0002a	5e		 pop	 esi
  0002b	8b e5		 mov	 esp, ebp
  0002d	5d		 pop	 ebp
  0002e	c3		 ret	 0
$LN3@playerGetC:

; 274  : 
; 275  : 	CInstanceBase * pMainInstance = CPythonPlayer::Instance().NEW_GetMainActorPtr();

  0002f	8b 0d 00 00 00
	00		 mov	 ecx, DWORD PTR ?ms_singleton@?$CSingleton@VCPythonPlayer@@@@0PAVCPythonPlayer@@A ; CSingleton<CPythonPlayer>::ms_singleton
  00035	83 c1 04	 add	 ecx, 4
  00038	8b 01		 mov	 eax, DWORD PTR [ecx]
  0003a	ff 90 88 00 00
	00		 call	 DWORD PTR [eax+136]

; 276  : 	CInstanceBase * pTargetInstance = CPythonCharacterManager::Instance().GetInstancePtr(iVID);

  00040	8b 0d 00 00 00
	00		 mov	 ecx, DWORD PTR ?ms_singleton@?$CSingleton@VCPythonCharacterManager@@@@0PAVCPythonCharacterManager@@A ; CSingleton<CPythonCharacterManager>::ms_singleton
  00046	8b f0		 mov	 esi, eax
  00048	ff 74 24 3c	 push	 DWORD PTR _iVID$[esp+64]
  0004c	83 c1 04	 add	 ecx, 4
  0004f	8b 11		 mov	 edx, DWORD PTR [ecx]
  00051	ff 52 08	 call	 DWORD PTR [edx+8]

; 277  : 	if (!pMainInstance)

  00054	85 f6		 test	 esi, esi
  00056	75 0a		 jne	 SHORT $LN2@playerGetC
$LN11@playerGetC:

; 278  : 		return Py_BuildValue("f", -1.0f);

  00058	f2 0f 10 05 00
	00 00 00	 movsd	 xmm0, QWORD PTR __real@bff0000000000000
  00060	eb 10		 jmp	 SHORT $LN10@playerGetC
$LN2@playerGetC:

; 279  : 	if (!pTargetInstance)

  00062	85 c0		 test	 eax, eax
  00064	74 f2		 je	 SHORT $LN11@playerGetC

; 280  : 		return Py_BuildValue("f", -1.0f);
; 281  : 
; 282  : 	return Py_BuildValue("f", pMainInstance->GetDistance(pTargetInstance));

  00066	50		 push	 eax
  00067	8b ce		 mov	 ecx, esi
  00069	e8 00 00 00 00	 call	 ?GetDistance@CInstanceBase@@QAEMPAV1@@Z ; CInstanceBase::GetDistance
  0006e	f3 0f 5a c0	 cvtss2sd xmm0, xmm0
$LN10@playerGetC:
  00072	83 ec 08	 sub	 esp, 8
  00075	f2 0f 11 04 24	 movsd	 QWORD PTR [esp], xmm0
  0007a	68 00 00 00 00	 push	 OFFSET ??_C@_01INIBCBCB@f?$AA@
  0007f	ff 15 00 00 00
	00		 call	 DWORD PTR __imp__Py_BuildValue
  00085	83 c4 0c	 add	 esp, 12			; 0000000cH

; 283  : }

  00088	5e		 pop	 esi
  00089	8b e5		 mov	 esp, ebp
  0008b	5d		 pop	 ebp
  0008c	c3		 ret	 0
?playerGetCharacterDistance@@YAPAU_object@@PAU1@0@Z ENDP ; playerGetCharacterDistance
_TEXT	ENDS
; Function compile flags: /Ogtp
; File d:\metin2\metin2\client_source_clean\client_source_clean\source\userinterface\pythonplayermodule.cpp
;	COMDAT ?playerIsInSafeArea@@YAPAU_object@@PAU1@0@Z
_TEXT	SEGMENT
_poSelf$ = 8						; size = 4
_poArgs$ = 12						; size = 4
?playerIsInSafeArea@@YAPAU_object@@PAU1@0@Z PROC	; playerIsInSafeArea, COMDAT

; 287  : 	CInstanceBase * pMainInstance = CPythonPlayer::Instance().NEW_GetMainActorPtr();

  00000	8b 0d 00 00 00
	00		 mov	 ecx, DWORD PTR ?ms_singleton@?$CSingleton@VCPythonPlayer@@@@0PAVCPythonPlayer@@A ; CSingleton<CPythonPlayer>::ms_singleton
  00006	83 c1 04	 add	 ecx, 4
  00009	8b 01		 mov	 eax, DWORD PTR [ecx]
  0000b	ff 90 88 00 00
	00		 call	 DWORD PTR [eax+136]

; 288  : 	if (!pMainInstance)

  00011	85 c0		 test	 eax, eax
  00013	75 10		 jne	 SHORT $LN1@playerIsIn

; 289  : 		return Py_BuildValue("i", FALSE);

  00015	50		 push	 eax

; 290  : 
; 291  : 	return Py_BuildValue("i", pMainInstance->IsInSafe());

  00016	68 00 00 00 00	 push	 OFFSET ??_C@_01KBJDNOO@i?$AA@
  0001b	ff 15 00 00 00
	00		 call	 DWORD PTR __imp__Py_BuildValue
  00021	83 c4 08	 add	 esp, 8

; 292  : }

  00024	c3		 ret	 0
$LN1@playerIsIn:

; 290  : 
; 291  : 	return Py_BuildValue("i", pMainInstance->IsInSafe());

  00025	8b c8		 mov	 ecx, eax
  00027	e8 00 00 00 00	 call	 ?IsInSafe@CInstanceBase@@QAEHXZ ; CInstanceBase::IsInSafe
  0002c	50		 push	 eax
  0002d	68 00 00 00 00	 push	 OFFSET ??_C@_01KBJDNOO@i?$AA@
  00032	ff 15 00 00 00
	00		 call	 DWORD PTR __imp__Py_BuildValue
  00038	83 c4 08	 add	 esp, 8

; 292  : }

  0003b	c3		 ret	 0
?playerIsInSafeArea@@YAPAU_object@@PAU1@0@Z ENDP	; playerIsInSafeArea
_TEXT	ENDS
; Function compile flags: /Ogtp
; File d:\metin2\metin2\client_source_clean\client_source_clean\source\userinterface\pythonplayermodule.cpp
;	COMDAT ?playerIsMountingHorse@@YAPAU_object@@PAU1@0@Z
_TEXT	SEGMENT
_poSelf$ = 8						; size = 4
_poArgs$ = 12						; size = 4
?playerIsMountingHorse@@YAPAU_object@@PAU1@0@Z PROC	; playerIsMountingHorse, COMDAT

; 296  : 	CInstanceBase * pMainInstance = CPythonPlayer::Instance().NEW_GetMainActorPtr();

  00000	8b 0d 00 00 00
	00		 mov	 ecx, DWORD PTR ?ms_singleton@?$CSingleton@VCPythonPlayer@@@@0PAVCPythonPlayer@@A ; CSingleton<CPythonPlayer>::ms_singleton
  00006	83 c1 04	 add	 ecx, 4
  00009	8b 01		 mov	 eax, DWORD PTR [ecx]
  0000b	ff 90 88 00 00
	00		 call	 DWORD PTR [eax+136]

; 297  : 	if (!pMainInstance)

  00011	85 c0		 test	 eax, eax
  00013	75 10		 jne	 SHORT $LN1@playerIsMo

; 298  : 		return Py_BuildValue("i", FALSE);

  00015	50		 push	 eax

; 299  : 
; 300  : 	return Py_BuildValue("i", pMainInstance->IsMountingHorse());

  00016	68 00 00 00 00	 push	 OFFSET ??_C@_01KBJDNOO@i?$AA@
  0001b	ff 15 00 00 00
	00		 call	 DWORD PTR __imp__Py_BuildValue
  00021	83 c4 08	 add	 esp, 8

; 301  : }

  00024	c3		 ret	 0
$LN1@playerIsMo:

; 299  : 
; 300  : 	return Py_BuildValue("i", pMainInstance->IsMountingHorse());

  00025	8b c8		 mov	 ecx, eax
  00027	e8 00 00 00 00	 call	 ?IsMountingHorse@CInstanceBase@@QAEHXZ ; CInstanceBase::IsMountingHorse
  0002c	50		 push	 eax
  0002d	68 00 00 00 00	 push	 OFFSET ??_C@_01KBJDNOO@i?$AA@
  00032	ff 15 00 00 00
	00		 call	 DWORD PTR __imp__Py_BuildValue
  00038	83 c4 08	 add	 esp, 8

; 301  : }

  0003b	c3		 ret	 0
?playerIsMountingHorse@@YAPAU_object@@PAU1@0@Z ENDP	; playerIsMountingHorse
_TEXT	ENDS
; Function compile flags: /Ogtp
; File d:\metin2\metin2\client_source_clean\client_source_clean\source\userinterface\pythonplayermodule.cpp
;	COMDAT ?playerIsObserverMode@@YAPAU_object@@PAU1@0@Z
_TEXT	SEGMENT
_poSelf$ = 8						; size = 4
_poArgs$ = 12						; size = 4
?playerIsObserverMode@@YAPAU_object@@PAU1@0@Z PROC	; playerIsObserverMode, COMDAT

; 305  : 	CPythonPlayer& rkPlayer=CPythonPlayer::Instance();
; 306  : 	return Py_BuildValue("i", rkPlayer.IsObserverMode());

  00000	8b 0d 00 00 00
	00		 mov	 ecx, DWORD PTR ?ms_singleton@?$CSingleton@VCPythonPlayer@@@@0PAVCPythonPlayer@@A ; CSingleton<CPythonPlayer>::ms_singleton
  00006	e8 00 00 00 00	 call	 ?IsObserverMode@CPythonPlayer@@QAE_NXZ ; CPythonPlayer::IsObserverMode
  0000b	0f b6 c0	 movzx	 eax, al
  0000e	50		 push	 eax
  0000f	68 00 00 00 00	 push	 OFFSET ??_C@_01KBJDNOO@i?$AA@
  00014	ff 15 00 00 00
	00		 call	 DWORD PTR __imp__Py_BuildValue
  0001a	83 c4 08	 add	 esp, 8

; 307  : }

  0001d	c3		 ret	 0
?playerIsObserverMode@@YAPAU_object@@PAU1@0@Z ENDP	; playerIsObserverMode
_TEXT	ENDS
; Function compile flags: /Ogtp
; File d:\metin2\metin2\client_source_clean\client_source_clean\source\userinterface\pythonplayermodule.cpp
;	COMDAT ?playerActEmotion@@YAPAU_object@@PAU1@0@Z
_TEXT	SEGMENT
_iVID$ = -4						; size = 4
_poSelf$ = 8						; size = 4
_poArgs$ = 12						; size = 4
?playerActEmotion@@YAPAU_object@@PAU1@0@Z PROC		; playerActEmotion, COMDAT

; 310  : {

  00000	55		 push	 ebp
  00001	8b ec		 mov	 ebp, esp
  00003	51		 push	 ecx

; 311  : 	int iVID;
; 312  : 	if (!PyTuple_GetInteger(poArgs, 0, &iVID))

  00004	8d 45 fc	 lea	 eax, DWORD PTR _iVID$[ebp]
  00007	50		 push	 eax
  00008	6a 00		 push	 0
  0000a	ff 75 0c	 push	 DWORD PTR _poArgs$[ebp]
  0000d	e8 00 00 00 00	 call	 ?PyTuple_GetInteger@@YA_NPAU_object@@HPAH@Z ; PyTuple_GetInteger
  00012	83 c4 0c	 add	 esp, 12			; 0000000cH
  00015	84 c0		 test	 al, al
  00017	75 0e		 jne	 SHORT $LN1@playerActE

; 313  : 		return Py_BuildException();

  00019	6a 00		 push	 0
  0001b	e8 00 00 00 00	 call	 ?Py_BuildException@@YAPAU_object@@PBDZZ ; Py_BuildException
  00020	83 c4 04	 add	 esp, 4

; 318  : }

  00023	8b e5		 mov	 esp, ebp
  00025	5d		 pop	 ebp
  00026	c3		 ret	 0
$LN1@playerActE:

; 314  : 
; 315  : 	CPythonPlayer& rkPlayer=CPythonPlayer::Instance();
; 316  : 	rkPlayer.ActEmotion(iVID);

  00027	51		 push	 ecx
  00028	8b 0d 00 00 00
	00		 mov	 ecx, DWORD PTR ?ms_singleton@?$CSingleton@VCPythonPlayer@@@@0PAVCPythonPlayer@@A ; CSingleton<CPythonPlayer>::ms_singleton
  0002e	e8 00 00 00 00	 call	 ?ActEmotion@CPythonPlayer@@QAEXK@Z ; CPythonPlayer::ActEmotion

; 317  : 	return Py_BuildNone();

  00033	e8 00 00 00 00	 call	 ?Py_BuildNone@@YAPAU_object@@XZ ; Py_BuildNone

; 318  : }

  00038	8b e5		 mov	 esp, ebp
  0003a	5d		 pop	 ebp
  0003b	c3		 ret	 0
?playerActEmotion@@YAPAU_object@@PAU1@0@Z ENDP		; playerActEmotion
_TEXT	ENDS
; Function compile flags: /Ogtp
; File d:\metin2\metin2\client_source_clean\client_source_clean\source\userinterface\pythonplayermodule.cpp
;	COMDAT ?playerShowPlayer@@YAPAU_object@@PAU1@0@Z
_TEXT	SEGMENT
_poSelf$ = 8						; size = 4
_poArgs$ = 12						; size = 4
?playerShowPlayer@@YAPAU_object@@PAU1@0@Z PROC		; playerShowPlayer, COMDAT

; 322  : 	CInstanceBase * pMainInstance = CPythonPlayer::Instance().NEW_GetMainActorPtr();

  00000	8b 0d 00 00 00
	00		 mov	 ecx, DWORD PTR ?ms_singleton@?$CSingleton@VCPythonPlayer@@@@0PAVCPythonPlayer@@A ; CSingleton<CPythonPlayer>::ms_singleton
  00006	83 c1 04	 add	 ecx, 4
  00009	8b 01		 mov	 eax, DWORD PTR [ecx]
  0000b	ff 90 88 00 00
	00		 call	 DWORD PTR [eax+136]

; 323  : 	if (pMainInstance)

  00011	85 c0		 test	 eax, eax
  00013	74 0e		 je	 SHORT $LN1@playerShow

; 324  : 		pMainInstance->GetGraphicThingInstanceRef().Show();

  00015	8b c8		 mov	 ecx, eax
  00017	e8 00 00 00 00	 call	 ?GetGraphicThingInstanceRef@CInstanceBase@@QAEAAVCActorInstance@@XZ ; CInstanceBase::GetGraphicThingInstanceRef
  0001c	8b c8		 mov	 ecx, eax
  0001e	e8 00 00 00 00	 call	 ?Show@CGraphicObjectInstance@@QAEXXZ ; CGraphicObjectInstance::Show
$LN1@playerShow:

; 325  : 	return Py_BuildNone();

  00023	e9 00 00 00 00	 jmp	 ?Py_BuildNone@@YAPAU_object@@XZ ; Py_BuildNone
?playerShowPlayer@@YAPAU_object@@PAU1@0@Z ENDP		; playerShowPlayer
_TEXT	ENDS
; Function compile flags: /Ogtp
; File d:\metin2\metin2\client_source_clean\client_source_clean\source\userinterface\pythonplayermodule.cpp
;	COMDAT ?playerHidePlayer@@YAPAU_object@@PAU1@0@Z
_TEXT	SEGMENT
_poSelf$ = 8						; size = 4
_poArgs$ = 12						; size = 4
?playerHidePlayer@@YAPAU_object@@PAU1@0@Z PROC		; playerHidePlayer, COMDAT

; 330  : 	CInstanceBase * pMainInstance = CPythonPlayer::Instance().NEW_GetMainActorPtr();

  00000	8b 0d 00 00 00
	00		 mov	 ecx, DWORD PTR ?ms_singleton@?$CSingleton@VCPythonPlayer@@@@0PAVCPythonPlayer@@A ; CSingleton<CPythonPlayer>::ms_singleton
  00006	83 c1 04	 add	 ecx, 4
  00009	8b 01		 mov	 eax, DWORD PTR [ecx]
  0000b	ff 90 88 00 00
	00		 call	 DWORD PTR [eax+136]

; 331  : 	if (pMainInstance)

  00011	85 c0		 test	 eax, eax
  00013	74 0e		 je	 SHORT $LN1@playerHide

; 332  : 		pMainInstance->GetGraphicThingInstanceRef().Hide();

  00015	8b c8		 mov	 ecx, eax
  00017	e8 00 00 00 00	 call	 ?GetGraphicThingInstanceRef@CInstanceBase@@QAEAAVCActorInstance@@XZ ; CInstanceBase::GetGraphicThingInstanceRef
  0001c	8b c8		 mov	 ecx, eax
  0001e	e8 00 00 00 00	 call	 ?Hide@CGraphicObjectInstance@@QAEXXZ ; CGraphicObjectInstance::Hide
$LN1@playerHide:

; 333  : 	return Py_BuildNone();

  00023	e9 00 00 00 00	 jmp	 ?Py_BuildNone@@YAPAU_object@@XZ ; Py_BuildNone
?playerHidePlayer@@YAPAU_object@@PAU1@0@Z ENDP		; playerHidePlayer
_TEXT	ENDS
; Function compile flags: /Ogtp
; File d:\metin2\metin2\client_source_clean\client_source_clean\source\userinterface\pythonplayermodule.cpp
;	COMDAT ?playerComboAttack@@YAPAU_object@@PAU1@0@Z
_TEXT	SEGMENT
_poSelf$ = 8						; size = 4
_poArgs$ = 12						; size = 4
?playerComboAttack@@YAPAU_object@@PAU1@0@Z PROC		; playerComboAttack, COMDAT

; 339  : 	CPythonPlayer::Instance().NEW_Attack();

  00000	8b 0d 00 00 00
	00		 mov	 ecx, DWORD PTR ?ms_singleton@?$CSingleton@VCPythonPlayer@@@@0PAVCPythonPlayer@@A ; CSingleton<CPythonPlayer>::ms_singleton
  00006	e8 00 00 00 00	 call	 ?NEW_Attack@CPythonPlayer@@QAEXXZ ; CPythonPlayer::NEW_Attack

; 340  : 	return Py_BuildNone();

  0000b	e9 00 00 00 00	 jmp	 ?Py_BuildNone@@YAPAU_object@@XZ ; Py_BuildNone
?playerComboAttack@@YAPAU_object@@PAU1@0@Z ENDP		; playerComboAttack
_TEXT	ENDS
; Function compile flags: /Ogtp
; File d:\metin2\metin2\client_source_clean\client_source_clean\source\userinterface\pythonplayermodule.cpp
;	COMDAT ?playerRegisterEffect@@YAPAU_object@@PAU1@0@Z
_TEXT	SEGMENT
_iEft$ = -8						; size = 4
_szFileName$ = -4					; size = 4
_poSelf$ = 8						; size = 4
_poArgs$ = 12						; size = 4
?playerRegisterEffect@@YAPAU_object@@PAU1@0@Z PROC	; playerRegisterEffect, COMDAT

; 345  : {

  00000	55		 push	 ebp
  00001	8b ec		 mov	 ebp, esp
  00003	83 ec 08	 sub	 esp, 8

; 346  : 	int iEft;
; 347  : 	if (!PyTuple_GetInteger(poArgs, 0, &iEft))

  00006	8d 45 f8	 lea	 eax, DWORD PTR _iEft$[ebp]
  00009	50		 push	 eax
  0000a	6a 00		 push	 0
  0000c	ff 75 0c	 push	 DWORD PTR _poArgs$[ebp]
  0000f	e8 00 00 00 00	 call	 ?PyTuple_GetInteger@@YA_NPAU_object@@HPAH@Z ; PyTuple_GetInteger
  00014	83 c4 0c	 add	 esp, 12			; 0000000cH
  00017	84 c0		 test	 al, al
  00019	75 09		 jne	 SHORT $LN3@playerRegi
$LN8@playerRegi:

; 348  : 		return Py_BadArgument();

  0001b	e8 00 00 00 00	 call	 ?Py_BadArgument@@YAPAU_object@@XZ ; Py_BadArgument

; 359  : }

  00020	8b e5		 mov	 esp, ebp
  00022	5d		 pop	 ebp
  00023	c3		 ret	 0
$LN3@playerRegi:

; 349  : 
; 350  : 	char* szFileName;
; 351  : 	if (!PyTuple_GetString(poArgs, 1, &szFileName))

  00024	8d 45 fc	 lea	 eax, DWORD PTR _szFileName$[ebp]
  00027	50		 push	 eax
  00028	6a 01		 push	 1
  0002a	ff 75 0c	 push	 DWORD PTR _poArgs$[ebp]
  0002d	e8 00 00 00 00	 call	 ?PyTuple_GetString@@YA_NPAU_object@@HPAPAD@Z ; PyTuple_GetString
  00032	83 c4 0c	 add	 esp, 12			; 0000000cH
  00035	84 c0		 test	 al, al
  00037	74 e2		 je	 SHORT $LN8@playerRegi

; 352  : 		return Py_BadArgument();
; 353  : 
; 354  : 	CPythonPlayer & rkPlayer = CPythonPlayer::Instance();
; 355  : 	if (!rkPlayer.RegisterEffect(iEft, szFileName, false))

  00039	8b 0d 00 00 00
	00		 mov	 ecx, DWORD PTR ?ms_singleton@?$CSingleton@VCPythonPlayer@@@@0PAVCPythonPlayer@@A ; CSingleton<CPythonPlayer>::ms_singleton
  0003f	6a 00		 push	 0
  00041	ff 75 fc	 push	 DWORD PTR _szFileName$[ebp]
  00044	ff 75 f8	 push	 DWORD PTR _iEft$[ebp]
  00047	e8 00 00 00 00	 call	 ?RegisterEffect@CPythonPlayer@@QAE_NKPBD_N@Z ; CPythonPlayer::RegisterEffect
  0004c	84 c0		 test	 al, al
  0004e	75 17		 jne	 SHORT $LN1@playerRegi

; 356  : 		return Py_BuildException("CPythonPlayer::RegisterEffect(eEft=%d, szFileName=%s", iEft, szFileName);

  00050	ff 75 fc	 push	 DWORD PTR _szFileName$[ebp]
  00053	ff 75 f8	 push	 DWORD PTR _iEft$[ebp]
  00056	68 00 00 00 00	 push	 OFFSET ??_C@_0DF@ILFGGFEI@CPythonPlayer?3?3RegisterEffect?$CIeE@
  0005b	e8 00 00 00 00	 call	 ?Py_BuildException@@YAPAU_object@@PBDZZ ; Py_BuildException
  00060	83 c4 0c	 add	 esp, 12			; 0000000cH

; 359  : }

  00063	8b e5		 mov	 esp, ebp
  00065	5d		 pop	 ebp
  00066	c3		 ret	 0
$LN1@playerRegi:

; 357  : 
; 358  : 	return Py_BuildNone();

  00067	e8 00 00 00 00	 call	 ?Py_BuildNone@@YAPAU_object@@XZ ; Py_BuildNone

; 359  : }

  0006c	8b e5		 mov	 esp, ebp
  0006e	5d		 pop	 ebp
  0006f	c3		 ret	 0
?playerRegisterEffect@@YAPAU_object@@PAU1@0@Z ENDP	; playerRegisterEffect
_TEXT	ENDS
; Function compile flags: /Ogtp
; File d:\metin2\metin2\client_source_clean\client_source_clean\source\userinterface\pythonplayermodule.cpp
;	COMDAT ?playerRegisterCacheEffect@@YAPAU_object@@PAU1@0@Z
_TEXT	SEGMENT
_iEft$ = -8						; size = 4
_szFileName$ = -4					; size = 4
_poSelf$ = 8						; size = 4
_poArgs$ = 12						; size = 4
?playerRegisterCacheEffect@@YAPAU_object@@PAU1@0@Z PROC	; playerRegisterCacheEffect, COMDAT

; 362  : {

  00000	55		 push	 ebp
  00001	8b ec		 mov	 ebp, esp
  00003	83 ec 08	 sub	 esp, 8

; 363  : 	int iEft;
; 364  : 	if (!PyTuple_GetInteger(poArgs, 0, &iEft))

  00006	8d 45 f8	 lea	 eax, DWORD PTR _iEft$[ebp]
  00009	50		 push	 eax
  0000a	6a 00		 push	 0
  0000c	ff 75 0c	 push	 DWORD PTR _poArgs$[ebp]
  0000f	e8 00 00 00 00	 call	 ?PyTuple_GetInteger@@YA_NPAU_object@@HPAH@Z ; PyTuple_GetInteger
  00014	83 c4 0c	 add	 esp, 12			; 0000000cH
  00017	84 c0		 test	 al, al
  00019	75 09		 jne	 SHORT $LN3@playerRegi
$LN8@playerRegi:

; 365  : 		return Py_BadArgument();

  0001b	e8 00 00 00 00	 call	 ?Py_BadArgument@@YAPAU_object@@XZ ; Py_BadArgument

; 376  : }

  00020	8b e5		 mov	 esp, ebp
  00022	5d		 pop	 ebp
  00023	c3		 ret	 0
$LN3@playerRegi:

; 366  : 
; 367  : 	char* szFileName;
; 368  : 	if (!PyTuple_GetString(poArgs, 1, &szFileName))

  00024	8d 45 fc	 lea	 eax, DWORD PTR _szFileName$[ebp]
  00027	50		 push	 eax
  00028	6a 01		 push	 1
  0002a	ff 75 0c	 push	 DWORD PTR _poArgs$[ebp]
  0002d	e8 00 00 00 00	 call	 ?PyTuple_GetString@@YA_NPAU_object@@HPAPAD@Z ; PyTuple_GetString
  00032	83 c4 0c	 add	 esp, 12			; 0000000cH
  00035	84 c0		 test	 al, al
  00037	74 e2		 je	 SHORT $LN8@playerRegi

; 369  : 		return Py_BadArgument();
; 370  : 
; 371  : 	CPythonPlayer & rkPlayer = CPythonPlayer::Instance();
; 372  : 	if (!rkPlayer.RegisterEffect(iEft, szFileName, true))

  00039	8b 0d 00 00 00
	00		 mov	 ecx, DWORD PTR ?ms_singleton@?$CSingleton@VCPythonPlayer@@@@0PAVCPythonPlayer@@A ; CSingleton<CPythonPlayer>::ms_singleton
  0003f	6a 01		 push	 1
  00041	ff 75 fc	 push	 DWORD PTR _szFileName$[ebp]
  00044	ff 75 f8	 push	 DWORD PTR _iEft$[ebp]
  00047	e8 00 00 00 00	 call	 ?RegisterEffect@CPythonPlayer@@QAE_NKPBD_N@Z ; CPythonPlayer::RegisterEffect
  0004c	84 c0		 test	 al, al
  0004e	75 17		 jne	 SHORT $LN1@playerRegi

; 373  : 		return Py_BuildException("CPythonPlayer::RegisterEffect(eEft=%d, szFileName=%s", iEft, szFileName);

  00050	ff 75 fc	 push	 DWORD PTR _szFileName$[ebp]
  00053	ff 75 f8	 push	 DWORD PTR _iEft$[ebp]
  00056	68 00 00 00 00	 push	 OFFSET ??_C@_0DF@ILFGGFEI@CPythonPlayer?3?3RegisterEffect?$CIeE@
  0005b	e8 00 00 00 00	 call	 ?Py_BuildException@@YAPAU_object@@PBDZZ ; Py_BuildException
  00060	83 c4 0c	 add	 esp, 12			; 0000000cH

; 376  : }

  00063	8b e5		 mov	 esp, ebp
  00065	5d		 pop	 ebp
  00066	c3		 ret	 0
$LN1@playerRegi:

; 374  : 
; 375  : 	return Py_BuildNone();

  00067	e8 00 00 00 00	 call	 ?Py_BuildNone@@YAPAU_object@@XZ ; Py_BuildNone

; 376  : }

  0006c	8b e5		 mov	 esp, ebp
  0006e	5d		 pop	 ebp
  0006f	c3		 ret	 0
?playerRegisterCacheEffect@@YAPAU_object@@PAU1@0@Z ENDP	; playerRegisterCacheEffect
_TEXT	ENDS
; Function compile flags: /Ogtp
; File d:\metin2\metin2\client_source_clean\client_source_clean\source\userinterface\pythonplayermodule.cpp
;	COMDAT ?playerSetAttackKeyState@@YAPAU_object@@PAU1@0@Z
_TEXT	SEGMENT
_isPressed$ = -4					; size = 4
_poSelf$ = 8						; size = 4
_poArgs$ = 12						; size = 4
?playerSetAttackKeyState@@YAPAU_object@@PAU1@0@Z PROC	; playerSetAttackKeyState, COMDAT

; 379  : {

  00000	55		 push	 ebp
  00001	8b ec		 mov	 ebp, esp
  00003	51		 push	 ecx

; 380  : 	int isPressed;
; 381  : 	if (!PyTuple_GetInteger(poArgs, 0, &isPressed))

  00004	8d 45 fc	 lea	 eax, DWORD PTR _isPressed$[ebp]
  00007	50		 push	 eax
  00008	6a 00		 push	 0
  0000a	ff 75 0c	 push	 DWORD PTR _poArgs$[ebp]
  0000d	e8 00 00 00 00	 call	 ?PyTuple_GetInteger@@YA_NPAU_object@@HPAH@Z ; PyTuple_GetInteger
  00012	83 c4 0c	 add	 esp, 12			; 0000000cH
  00015	84 c0		 test	 al, al
  00017	75 11		 jne	 SHORT $LN1@playerSetA

; 382  : 		return Py_BuildException("playerSetAttackKeyState(isPressed) - There is no first argument");

  00019	68 00 00 00 00	 push	 OFFSET ??_C@_0EA@OHLDKNFC@playerSetAttackKeyState?$CIisPresse@
  0001e	e8 00 00 00 00	 call	 ?Py_BuildException@@YAPAU_object@@PBDZZ ; Py_BuildException
  00023	83 c4 04	 add	 esp, 4

; 387  : }

  00026	8b e5		 mov	 esp, ebp
  00028	5d		 pop	 ebp
  00029	c3		 ret	 0
$LN1@playerSetA:

; 383  : 
; 384  : 	CPythonPlayer & rkPlayer = CPythonPlayer::Instance();
; 385  : 	rkPlayer.SetAttackKeyState(isPressed ? true : false);

  0002a	83 7d fc 00	 cmp	 DWORD PTR _isPressed$[ebp], 0
  0002e	8b 0d 00 00 00
	00		 mov	 ecx, DWORD PTR ?ms_singleton@?$CSingleton@VCPythonPlayer@@@@0PAVCPythonPlayer@@A ; CSingleton<CPythonPlayer>::ms_singleton
  00034	0f 95 c0	 setne	 al
  00037	0f b6 c0	 movzx	 eax, al
  0003a	50		 push	 eax
  0003b	e8 00 00 00 00	 call	 ?SetAttackKeyState@CPythonPlayer@@QAEX_N@Z ; CPythonPlayer::SetAttackKeyState

; 386  : 	return Py_BuildNone();

  00040	e8 00 00 00 00	 call	 ?Py_BuildNone@@YAPAU_object@@XZ ; Py_BuildNone

; 387  : }

  00045	8b e5		 mov	 esp, ebp
  00047	5d		 pop	 ebp
  00048	c3		 ret	 0
?playerSetAttackKeyState@@YAPAU_object@@PAU1@0@Z ENDP	; playerSetAttackKeyState
_TEXT	ENDS
; Function compile flags: /Ogtp
; File d:\metin2\metin2\client_source_clean\client_source_clean\source\userinterface\pythonplayermodule.cpp
;	COMDAT ?playerSetSingleDIKKeyState@@YAPAU_object@@PAU1@0@Z
_TEXT	SEGMENT
_eDIK$ = -8						; size = 4
_isPressed$ = -4					; size = 4
_poSelf$ = 8						; size = 4
_poArgs$ = 12						; size = 4
?playerSetSingleDIKKeyState@@YAPAU_object@@PAU1@0@Z PROC ; playerSetSingleDIKKeyState, COMDAT

; 390  : {

  00000	55		 push	 ebp
  00001	8b ec		 mov	 ebp, esp
  00003	83 ec 08	 sub	 esp, 8

; 391  : 	int eDIK;
; 392  : 	if (!PyTuple_GetInteger(poArgs, 0, &eDIK))

  00006	8d 45 f8	 lea	 eax, DWORD PTR _eDIK$[ebp]
  00009	50		 push	 eax
  0000a	6a 00		 push	 0
  0000c	ff 75 0c	 push	 DWORD PTR _poArgs$[ebp]
  0000f	e8 00 00 00 00	 call	 ?PyTuple_GetInteger@@YA_NPAU_object@@HPAH@Z ; PyTuple_GetInteger
  00014	83 c4 0c	 add	 esp, 12			; 0000000cH
  00017	84 c0		 test	 al, al
  00019	75 11		 jne	 SHORT $LN2@playerSetS

; 393  : 		return Py_BuildException("playerSetSingleDIKKeyState(eDIK, isPressed) - There is no first argument");

  0001b	68 00 00 00 00	 push	 OFFSET ??_C@_0EJ@BNKMOLIP@playerSetSingleDIKKeyState?$CIeDIK?0@
  00020	e8 00 00 00 00	 call	 ?Py_BuildException@@YAPAU_object@@PBDZZ ; Py_BuildException
  00025	83 c4 04	 add	 esp, 4

; 402  : }

  00028	8b e5		 mov	 esp, ebp
  0002a	5d		 pop	 ebp
  0002b	c3		 ret	 0
$LN2@playerSetS:

; 394  : 
; 395  : 	int isPressed;
; 396  : 	if (!PyTuple_GetInteger(poArgs, 1, &isPressed))

  0002c	8d 45 fc	 lea	 eax, DWORD PTR _isPressed$[ebp]
  0002f	50		 push	 eax
  00030	6a 01		 push	 1
  00032	ff 75 0c	 push	 DWORD PTR _poArgs$[ebp]
  00035	e8 00 00 00 00	 call	 ?PyTuple_GetInteger@@YA_NPAU_object@@HPAH@Z ; PyTuple_GetInteger
  0003a	83 c4 0c	 add	 esp, 12			; 0000000cH
  0003d	84 c0		 test	 al, al
  0003f	75 11		 jne	 SHORT $LN1@playerSetS

; 397  : 		return Py_BuildException("playerSetSingleDIKKeyState(eDIK, isPressed) - There is no second argument");

  00041	68 00 00 00 00	 push	 OFFSET ??_C@_0EK@IDBGKDBN@playerSetSingleDIKKeyState?$CIeDIK?0@
  00046	e8 00 00 00 00	 call	 ?Py_BuildException@@YAPAU_object@@PBDZZ ; Py_BuildException
  0004b	83 c4 04	 add	 esp, 4

; 402  : }

  0004e	8b e5		 mov	 esp, ebp
  00050	5d		 pop	 ebp
  00051	c3		 ret	 0
$LN1@playerSetS:

; 398  : 
; 399  : 	CPythonPlayer & rkPlayer = CPythonPlayer::Instance();
; 400  : 	rkPlayer.NEW_SetSingleDIKKeyState(eDIK, isPressed ? true : false);

  00052	83 7d fc 00	 cmp	 DWORD PTR _isPressed$[ebp], 0
  00056	8b 0d 00 00 00
	00		 mov	 ecx, DWORD PTR ?ms_singleton@?$CSingleton@VCPythonPlayer@@@@0PAVCPythonPlayer@@A ; CSingleton<CPythonPlayer>::ms_singleton
  0005c	0f 95 c0	 setne	 al
  0005f	0f b6 c0	 movzx	 eax, al
  00062	50		 push	 eax
  00063	ff 75 f8	 push	 DWORD PTR _eDIK$[ebp]
  00066	e8 00 00 00 00	 call	 ?NEW_SetSingleDIKKeyState@CPythonPlayer@@QAEXH_N@Z ; CPythonPlayer::NEW_SetSingleDIKKeyState

; 401  : 	return Py_BuildNone();

  0006b	e8 00 00 00 00	 call	 ?Py_BuildNone@@YAPAU_object@@XZ ; Py_BuildNone

; 402  : }

  00070	8b e5		 mov	 esp, ebp
  00072	5d		 pop	 ebp
  00073	c3		 ret	 0
?playerSetSingleDIKKeyState@@YAPAU_object@@PAU1@0@Z ENDP ; playerSetSingleDIKKeyState
_TEXT	ENDS
; Function compile flags: /Ogtp
; File d:\metin2\metin2\client_source_clean\client_source_clean\source\userinterface\pythonplayermodule.cpp
;	COMDAT ?playerEndKeyWalkingImmediately@@YAPAU_object@@PAU1@0@Z
_TEXT	SEGMENT
_poSelf$ = 8						; size = 4
_poArgs$ = 12						; size = 4
?playerEndKeyWalkingImmediately@@YAPAU_object@@PAU1@0@Z PROC ; playerEndKeyWalkingImmediately, COMDAT

; 406  : 	CPythonPlayer::Instance().NEW_Stop();

  00000	8b 0d 00 00 00
	00		 mov	 ecx, DWORD PTR ?ms_singleton@?$CSingleton@VCPythonPlayer@@@@0PAVCPythonPlayer@@A ; CSingleton<CPythonPlayer>::ms_singleton
  00006	e8 00 00 00 00	 call	 ?NEW_Stop@CPythonPlayer@@QAEXXZ ; CPythonPlayer::NEW_Stop

; 407  : 	return Py_BuildNone();

  0000b	e9 00 00 00 00	 jmp	 ?Py_BuildNone@@YAPAU_object@@XZ ; Py_BuildNone
?playerEndKeyWalkingImmediately@@YAPAU_object@@PAU1@0@Z ENDP ; playerEndKeyWalkingImmediately
_TEXT	ENDS
; Function compile flags: /Ogtp
; File d:\metin2\metin2\client_source_clean\client_source_clean\source\userinterface\pythonplayermodule.cpp
;	COMDAT ?playerStartMouseWalking@@YAPAU_object@@PAU1@0@Z
_TEXT	SEGMENT
_poSelf$ = 8						; size = 4
_poArgs$ = 12						; size = 4
?playerStartMouseWalking@@YAPAU_object@@PAU1@0@Z PROC	; playerStartMouseWalking, COMDAT

; 413  : 	return Py_BuildNone();

  00000	e9 00 00 00 00	 jmp	 ?Py_BuildNone@@YAPAU_object@@XZ ; Py_BuildNone
?playerStartMouseWalking@@YAPAU_object@@PAU1@0@Z ENDP	; playerStartMouseWalking
_TEXT	ENDS
; Function compile flags: /Ogtp
; File d:\metin2\metin2\client_source_clean\client_source_clean\source\userinterface\pythonplayermodule.cpp
;	COMDAT ?playerEndMouseWalking@@YAPAU_object@@PAU1@0@Z
_TEXT	SEGMENT
_poSelf$ = 8						; size = 4
_poArgs$ = 12						; size = 4
?playerEndMouseWalking@@YAPAU_object@@PAU1@0@Z PROC	; playerEndMouseWalking, COMDAT

; 418  : 	return Py_BuildNone();

  00000	e9 00 00 00 00	 jmp	 ?Py_BuildNone@@YAPAU_object@@XZ ; Py_BuildNone
?playerEndMouseWalking@@YAPAU_object@@PAU1@0@Z ENDP	; playerEndMouseWalking
_TEXT	ENDS
; Function compile flags: /Ogtp
; File d:\metin2\metin2\client_source_clean\client_source_clean\source\userinterface\pythonplayermodule.cpp
;	COMDAT ?playerResetCameraRotation@@YAPAU_object@@PAU1@0@Z
_TEXT	SEGMENT
_poSelf$ = 8						; size = 4
_poArgs$ = 12						; size = 4
?playerResetCameraRotation@@YAPAU_object@@PAU1@0@Z PROC	; playerResetCameraRotation, COMDAT

; 423  : 	CPythonPlayer::Instance().NEW_ResetCameraRotation();

  00000	e8 00 00 00 00	 call	 ?NEW_ResetCameraRotation@CPythonPlayer@@QAEXXZ ; CPythonPlayer::NEW_ResetCameraRotation

; 424  : 	return Py_BuildNone();

  00005	e9 00 00 00 00	 jmp	 ?Py_BuildNone@@YAPAU_object@@XZ ; Py_BuildNone
?playerResetCameraRotation@@YAPAU_object@@PAU1@0@Z ENDP	; playerResetCameraRotation
_TEXT	ENDS
; Function compile flags: /Ogtp
; File d:\metin2\metin2\client_source_clean\client_source_clean\source\userinterface\pythonplayermodule.cpp
;	COMDAT ?playerSetAutoCameraRotationSpeed@@YAPAU_object@@PAU1@0@Z
_TEXT	SEGMENT
_fCmrRotSpd$ = -4					; size = 4
_poSelf$ = 8						; size = 4
_poArgs$ = 12						; size = 4
?playerSetAutoCameraRotationSpeed@@YAPAU_object@@PAU1@0@Z PROC ; playerSetAutoCameraRotationSpeed, COMDAT

; 428  : {

  00000	55		 push	 ebp
  00001	8b ec		 mov	 ebp, esp
  00003	51		 push	 ecx

; 429  : 	float fCmrRotSpd;
; 430  : 	if (!PyTuple_GetFloat(poArgs, 0, &fCmrRotSpd))

  00004	8d 45 fc	 lea	 eax, DWORD PTR _fCmrRotSpd$[ebp]
  00007	50		 push	 eax
  00008	6a 00		 push	 0
  0000a	ff 75 0c	 push	 DWORD PTR _poArgs$[ebp]
  0000d	e8 00 00 00 00	 call	 ?PyTuple_GetFloat@@YA_NPAU_object@@HPAM@Z ; PyTuple_GetFloat
  00012	83 c4 0c	 add	 esp, 12			; 0000000cH
  00015	84 c0		 test	 al, al
  00017	75 0e		 jne	 SHORT $LN1@playerSetA

; 431  : 		return Py_BuildException();	

  00019	6a 00		 push	 0
  0001b	e8 00 00 00 00	 call	 ?Py_BuildException@@YAPAU_object@@PBDZZ ; Py_BuildException
  00020	83 c4 04	 add	 esp, 4

; 436  : }

  00023	8b e5		 mov	 esp, ebp
  00025	5d		 pop	 ebp
  00026	c3		 ret	 0
$LN1@playerSetA:

; 432  : 
; 433  : 	CPythonPlayer& rkPlayer=CPythonPlayer::Instance();
; 434  : 	rkPlayer.NEW_SetAutoCameraRotationSpeed(fCmrRotSpd);

  00027	f3 0f 10 4d fc	 movss	 xmm1, DWORD PTR _fCmrRotSpd$[ebp]
  0002c	8b 0d 00 00 00
	00		 mov	 ecx, DWORD PTR ?ms_singleton@?$CSingleton@VCPythonPlayer@@@@0PAVCPythonPlayer@@A ; CSingleton<CPythonPlayer>::ms_singleton
  00032	e8 00 00 00 00	 call	 ?NEW_SetAutoCameraRotationSpeed@CPythonPlayer@@QAEXM@Z ; CPythonPlayer::NEW_SetAutoCameraRotationSpeed

; 435  : 	return Py_BuildNone();

  00037	e8 00 00 00 00	 call	 ?Py_BuildNone@@YAPAU_object@@XZ ; Py_BuildNone

; 436  : }

  0003c	8b e5		 mov	 esp, ebp
  0003e	5d		 pop	 ebp
  0003f	c3		 ret	 0
?playerSetAutoCameraRotationSpeed@@YAPAU_object@@PAU1@0@Z ENDP ; playerSetAutoCameraRotationSpeed
_TEXT	ENDS
; Function compile flags: /Ogtp
; File d:\metin2\metin2\client_source_clean\client_source_clean\source\userinterface\pythonplayermodule.cpp
;	COMDAT ?playerSetMouseState@@YAPAU_object@@PAU1@0@Z
_TEXT	SEGMENT
_eMBT$ = -8						; size = 4
_eMBS$ = -4						; size = 4
_poSelf$ = 8						; size = 4
_poArgs$ = 12						; size = 4
?playerSetMouseState@@YAPAU_object@@PAU1@0@Z PROC	; playerSetMouseState, COMDAT

; 439  : {

  00000	55		 push	 ebp
  00001	8b ec		 mov	 ebp, esp
  00003	83 ec 08	 sub	 esp, 8

; 440  : 	int eMBT;
; 441  : 	if (!PyTuple_GetInteger(poArgs, 0, &eMBT))

  00006	8d 45 f8	 lea	 eax, DWORD PTR _eMBT$[ebp]
  00009	50		 push	 eax
  0000a	6a 00		 push	 0
  0000c	ff 75 0c	 push	 DWORD PTR _poArgs$[ebp]
  0000f	e8 00 00 00 00	 call	 ?PyTuple_GetInteger@@YA_NPAU_object@@HPAH@Z ; PyTuple_GetInteger
  00014	83 c4 0c	 add	 esp, 12			; 0000000cH
  00017	84 c0		 test	 al, al
  00019	75 0e		 jne	 SHORT $LN2@playerSetM
$LN7@playerSetM:

; 442  : 		return Py_BuildException();	

  0001b	6a 00		 push	 0
  0001d	e8 00 00 00 00	 call	 ?Py_BuildException@@YAPAU_object@@PBDZZ ; Py_BuildException
  00022	83 c4 04	 add	 esp, 4

; 452  : }

  00025	8b e5		 mov	 esp, ebp
  00027	5d		 pop	 ebp
  00028	c3		 ret	 0
$LN2@playerSetM:

; 443  : 
; 444  : 	int eMBS;
; 445  : 	if (!PyTuple_GetInteger(poArgs, 1, &eMBS))

  00029	8d 45 fc	 lea	 eax, DWORD PTR _eMBS$[ebp]
  0002c	50		 push	 eax
  0002d	6a 01		 push	 1
  0002f	ff 75 0c	 push	 DWORD PTR _poArgs$[ebp]
  00032	e8 00 00 00 00	 call	 ?PyTuple_GetInteger@@YA_NPAU_object@@HPAH@Z ; PyTuple_GetInteger
  00037	83 c4 0c	 add	 esp, 12			; 0000000cH
  0003a	84 c0		 test	 al, al
  0003c	74 dd		 je	 SHORT $LN7@playerSetM

; 446  : 		return Py_BuildException();	
; 447  : 
; 448  : 	CPythonPlayer& rkPlayer=CPythonPlayer::Instance();
; 449  : 	rkPlayer.NEW_SetMouseState(eMBT, eMBS);

  0003e	ff 75 fc	 push	 DWORD PTR _eMBS$[ebp]
  00041	8b 0d 00 00 00
	00		 mov	 ecx, DWORD PTR ?ms_singleton@?$CSingleton@VCPythonPlayer@@@@0PAVCPythonPlayer@@A ; CSingleton<CPythonPlayer>::ms_singleton
  00047	ff 75 f8	 push	 DWORD PTR _eMBT$[ebp]
  0004a	e8 00 00 00 00	 call	 ?NEW_SetMouseState@CPythonPlayer@@QAE_NHH@Z ; CPythonPlayer::NEW_SetMouseState

; 450  : 
; 451  : 	return Py_BuildNone();

  0004f	e8 00 00 00 00	 call	 ?Py_BuildNone@@YAPAU_object@@XZ ; Py_BuildNone

; 452  : }

  00054	8b e5		 mov	 esp, ebp
  00056	5d		 pop	 ebp
  00057	c3		 ret	 0
?playerSetMouseState@@YAPAU_object@@PAU1@0@Z ENDP	; playerSetMouseState
_TEXT	ENDS
; Function compile flags: /Ogtp
; File d:\metin2\metin2\client_source_clean\client_source_clean\source\userinterface\pythonplayermodule.cpp
;	COMDAT ?playerSetMouseFunc@@YAPAU_object@@PAU1@0@Z
_TEXT	SEGMENT
_eMBT$ = -8						; size = 4
_eMBS$ = -4						; size = 4
_poSelf$ = 8						; size = 4
_poArgs$ = 12						; size = 4
?playerSetMouseFunc@@YAPAU_object@@PAU1@0@Z PROC	; playerSetMouseFunc, COMDAT

; 455  : {

  00000	55		 push	 ebp
  00001	8b ec		 mov	 ebp, esp
  00003	83 ec 08	 sub	 esp, 8

; 456  : 	int eMBT;
; 457  : 	if (!PyTuple_GetInteger(poArgs, 0, &eMBT))

  00006	8d 45 f8	 lea	 eax, DWORD PTR _eMBT$[ebp]
  00009	50		 push	 eax
  0000a	6a 00		 push	 0
  0000c	ff 75 0c	 push	 DWORD PTR _poArgs$[ebp]
  0000f	e8 00 00 00 00	 call	 ?PyTuple_GetInteger@@YA_NPAU_object@@HPAH@Z ; PyTuple_GetInteger
  00014	83 c4 0c	 add	 esp, 12			; 0000000cH
  00017	84 c0		 test	 al, al
  00019	75 0e		 jne	 SHORT $LN2@playerSetM
$LN7@playerSetM:

; 458  : 		return Py_BuildException();	

  0001b	6a 00		 push	 0
  0001d	e8 00 00 00 00	 call	 ?Py_BuildException@@YAPAU_object@@PBDZZ ; Py_BuildException
  00022	83 c4 04	 add	 esp, 4

; 468  : }

  00025	8b e5		 mov	 esp, ebp
  00027	5d		 pop	 ebp
  00028	c3		 ret	 0
$LN2@playerSetM:

; 459  : 
; 460  : 	int eMBS;
; 461  : 	if (!PyTuple_GetInteger(poArgs, 1, &eMBS))

  00029	8d 45 fc	 lea	 eax, DWORD PTR _eMBS$[ebp]
  0002c	50		 push	 eax
  0002d	6a 01		 push	 1
  0002f	ff 75 0c	 push	 DWORD PTR _poArgs$[ebp]
  00032	e8 00 00 00 00	 call	 ?PyTuple_GetInteger@@YA_NPAU_object@@HPAH@Z ; PyTuple_GetInteger
  00037	83 c4 0c	 add	 esp, 12			; 0000000cH
  0003a	84 c0		 test	 al, al
  0003c	74 dd		 je	 SHORT $LN7@playerSetM

; 462  : 		return Py_BuildException();	
; 463  : 
; 464  : 	CPythonPlayer& rkPlayer=CPythonPlayer::Instance();
; 465  : 	rkPlayer.NEW_SetMouseFunc(eMBT, eMBS);

  0003e	ff 75 fc	 push	 DWORD PTR _eMBS$[ebp]
  00041	8b 0d 00 00 00
	00		 mov	 ecx, DWORD PTR ?ms_singleton@?$CSingleton@VCPythonPlayer@@@@0PAVCPythonPlayer@@A ; CSingleton<CPythonPlayer>::ms_singleton
  00047	ff 75 f8	 push	 DWORD PTR _eMBT$[ebp]
  0004a	e8 00 00 00 00	 call	 ?NEW_SetMouseFunc@CPythonPlayer@@QAE_NHH@Z ; CPythonPlayer::NEW_SetMouseFunc

; 466  : 
; 467  : 	return Py_BuildNone();

  0004f	e8 00 00 00 00	 call	 ?Py_BuildNone@@YAPAU_object@@XZ ; Py_BuildNone

; 468  : }

  00054	8b e5		 mov	 esp, ebp
  00056	5d		 pop	 ebp
  00057	c3		 ret	 0
?playerSetMouseFunc@@YAPAU_object@@PAU1@0@Z ENDP	; playerSetMouseFunc
_TEXT	ENDS
; Function compile flags: /Ogtp
; File d:\metin2\metin2\client_source_clean\client_source_clean\source\userinterface\pythonplayermodule.cpp
;	COMDAT ?playerGetMouseFunc@@YAPAU_object@@PAU1@0@Z
_TEXT	SEGMENT
_eMBT$ = -4						; size = 4
_poSelf$ = 8						; size = 4
_poArgs$ = 12						; size = 4
?playerGetMouseFunc@@YAPAU_object@@PAU1@0@Z PROC	; playerGetMouseFunc, COMDAT

; 471  : {

  00000	55		 push	 ebp
  00001	8b ec		 mov	 ebp, esp
  00003	51		 push	 ecx

; 472  : 	int eMBT;
; 473  : 	if (!PyTuple_GetInteger(poArgs, 0, &eMBT))

  00004	8d 45 fc	 lea	 eax, DWORD PTR _eMBT$[ebp]
  00007	50		 push	 eax
  00008	6a 00		 push	 0
  0000a	ff 75 0c	 push	 DWORD PTR _poArgs$[ebp]
  0000d	e8 00 00 00 00	 call	 ?PyTuple_GetInteger@@YA_NPAU_object@@HPAH@Z ; PyTuple_GetInteger
  00012	83 c4 0c	 add	 esp, 12			; 0000000cH
  00015	84 c0		 test	 al, al
  00017	75 0e		 jne	 SHORT $LN1@playerGetM

; 474  : 		return Py_BuildException();	

  00019	6a 00		 push	 0
  0001b	e8 00 00 00 00	 call	 ?Py_BuildException@@YAPAU_object@@PBDZZ ; Py_BuildException
  00020	83 c4 04	 add	 esp, 4

; 478  : }

  00023	8b e5		 mov	 esp, ebp
  00025	5d		 pop	 ebp
  00026	c3		 ret	 0
$LN1@playerGetM:

; 475  : 
; 476  : 	CPythonPlayer& rkPlayer=CPythonPlayer::Instance();
; 477  : 	return Py_BuildValue("i", rkPlayer.NEW_GetMouseFunc(eMBT));

  00027	ff 75 fc	 push	 DWORD PTR _eMBT$[ebp]
  0002a	8b 0d 00 00 00
	00		 mov	 ecx, DWORD PTR ?ms_singleton@?$CSingleton@VCPythonPlayer@@@@0PAVCPythonPlayer@@A ; CSingleton<CPythonPlayer>::ms_singleton
  00030	e8 00 00 00 00	 call	 ?NEW_GetMouseFunc@CPythonPlayer@@QAEHH@Z ; CPythonPlayer::NEW_GetMouseFunc
  00035	50		 push	 eax
  00036	68 00 00 00 00	 push	 OFFSET ??_C@_01KBJDNOO@i?$AA@
  0003b	ff 15 00 00 00
	00		 call	 DWORD PTR __imp__Py_BuildValue
  00041	83 c4 08	 add	 esp, 8

; 478  : }

  00044	8b e5		 mov	 esp, ebp
  00046	5d		 pop	 ebp
  00047	c3		 ret	 0
?playerGetMouseFunc@@YAPAU_object@@PAU1@0@Z ENDP	; playerGetMouseFunc
_TEXT	ENDS
; Function compile flags: /Ogtp
; File d:\metin2\metin2\client_source_clean\client_source_clean\source\userinterface\pythonplayermodule.cpp
;	COMDAT ?playerSetMouseMiddleButtonState@@YAPAU_object@@PAU1@0@Z
_TEXT	SEGMENT
_eMBS$ = -4						; size = 4
_poSelf$ = 8						; size = 4
_poArgs$ = 12						; size = 4
?playerSetMouseMiddleButtonState@@YAPAU_object@@PAU1@0@Z PROC ; playerSetMouseMiddleButtonState, COMDAT

; 481  : {

  00000	55		 push	 ebp
  00001	8b ec		 mov	 ebp, esp
  00003	51		 push	 ecx

; 482  : 	int eMBS;
; 483  : 	if (!PyTuple_GetInteger(poArgs, 0, &eMBS))

  00004	8d 45 fc	 lea	 eax, DWORD PTR _eMBS$[ebp]
  00007	50		 push	 eax
  00008	6a 00		 push	 0
  0000a	ff 75 0c	 push	 DWORD PTR _poArgs$[ebp]
  0000d	e8 00 00 00 00	 call	 ?PyTuple_GetInteger@@YA_NPAU_object@@HPAH@Z ; PyTuple_GetInteger
  00012	83 c4 0c	 add	 esp, 12			; 0000000cH
  00015	84 c0		 test	 al, al
  00017	75 0e		 jne	 SHORT $LN1@playerSetM

; 484  : 		return Py_BuildException();	

  00019	6a 00		 push	 0
  0001b	e8 00 00 00 00	 call	 ?Py_BuildException@@YAPAU_object@@PBDZZ ; Py_BuildException
  00020	83 c4 04	 add	 esp, 4

; 490  : }

  00023	8b e5		 mov	 esp, ebp
  00025	5d		 pop	 ebp
  00026	c3		 ret	 0
$LN1@playerSetM:

; 485  : 
; 486  : 	CPythonPlayer& rkPlayer=CPythonPlayer::Instance();
; 487  : 	rkPlayer.NEW_SetMouseMiddleButtonState(eMBS);

  00027	ff 75 fc	 push	 DWORD PTR _eMBS$[ebp]
  0002a	8b 0d 00 00 00
	00		 mov	 ecx, DWORD PTR ?ms_singleton@?$CSingleton@VCPythonPlayer@@@@0PAVCPythonPlayer@@A ; CSingleton<CPythonPlayer>::ms_singleton
  00030	e8 00 00 00 00	 call	 ?NEW_SetMouseMiddleButtonState@CPythonPlayer@@QAEXH@Z ; CPythonPlayer::NEW_SetMouseMiddleButtonState

; 488  : 
; 489  : 	return Py_BuildNone();

  00035	e8 00 00 00 00	 call	 ?Py_BuildNone@@YAPAU_object@@XZ ; Py_BuildNone

; 490  : }

  0003a	8b e5		 mov	 esp, ebp
  0003c	5d		 pop	 ebp
  0003d	c3		 ret	 0
?playerSetMouseMiddleButtonState@@YAPAU_object@@PAU1@0@Z ENDP ; playerSetMouseMiddleButtonState
_TEXT	ENDS
; Function compile flags: /Ogtp
; File d:\metin2\metin2\client_source_clean\client_source_clean\source\userinterface\pythonplayermodule.cpp
;	COMDAT ?playerGetName@@YAPAU_object@@PAU1@0@Z
_TEXT	SEGMENT
_poSelf$ = 8						; size = 4
_poArgs$ = 12						; size = 4
?playerGetName@@YAPAU_object@@PAU1@0@Z PROC		; playerGetName, COMDAT

; 496  : 	return Py_BuildValue("s", CPythonPlayer::Instance().GetName()); 

  00000	8b 0d 00 00 00
	00		 mov	 ecx, DWORD PTR ?ms_singleton@?$CSingleton@VCPythonPlayer@@@@0PAVCPythonPlayer@@A ; CSingleton<CPythonPlayer>::ms_singleton
  00006	83 c1 04	 add	 ecx, 4
  00009	8b 01		 mov	 eax, DWORD PTR [ecx]
  0000b	ff 50 14	 call	 DWORD PTR [eax+20]
  0000e	50		 push	 eax
  0000f	68 00 00 00 00	 push	 OFFSET ??_C@_01LKDEMHDF@s?$AA@
  00014	ff 15 00 00 00
	00		 call	 DWORD PTR __imp__Py_BuildValue
  0001a	83 c4 08	 add	 esp, 8

; 497  : }

  0001d	c3		 ret	 0
?playerGetName@@YAPAU_object@@PAU1@0@Z ENDP		; playerGetName
_TEXT	ENDS
; Function compile flags: /Ogtp
; File d:\metin2\metin2\client_source_clean\client_source_clean\source\userinterface\pythonplayermodule.cpp
;	COMDAT ?playerGetRace@@YAPAU_object@@PAU1@0@Z
_TEXT	SEGMENT
_poSelf$ = 8						; size = 4
_poArgs$ = 12						; size = 4
?playerGetRace@@YAPAU_object@@PAU1@0@Z PROC		; playerGetRace, COMDAT

; 501  : 	return Py_BuildValue("i", CPythonPlayer::Instance().GetRace());

  00000	8b 0d 00 00 00
	00		 mov	 ecx, DWORD PTR ?ms_singleton@?$CSingleton@VCPythonPlayer@@@@0PAVCPythonPlayer@@A ; CSingleton<CPythonPlayer>::ms_singleton
  00006	e8 00 00 00 00	 call	 ?GetRace@CPythonPlayer@@QAEKXZ ; CPythonPlayer::GetRace
  0000b	50		 push	 eax
  0000c	68 00 00 00 00	 push	 OFFSET ??_C@_01KBJDNOO@i?$AA@
  00011	ff 15 00 00 00
	00		 call	 DWORD PTR __imp__Py_BuildValue
  00017	83 c4 08	 add	 esp, 8

; 502  : }

  0001a	c3		 ret	 0
?playerGetRace@@YAPAU_object@@PAU1@0@Z ENDP		; playerGetRace
_TEXT	ENDS
; Function compile flags: /Ogtp
; File d:\metin2\metin2\client_source_clean\client_source_clean\source\userinterface\pythonplayermodule.cpp
; File d:\metin2\metin2\client_source_clean\client_source_clean\source\userinterface\instancebase.h
; File d:\metin2\metin2\client_source_clean\client_source_clean\source\userinterface\pythonplayermodule.cpp
;	COMDAT ?playerGetJob@@YAPAU_object@@PAU1@0@Z
_TEXT	SEGMENT
_poSelf$ = 8						; size = 4
_poArgs$ = 12						; size = 4
?playerGetJob@@YAPAU_object@@PAU1@0@Z PROC		; playerGetJob, COMDAT

; 506  : 	int race = CPythonPlayer::Instance().GetRace();

  00000	8b 0d 00 00 00
	00		 mov	 ecx, DWORD PTR ?ms_singleton@?$CSingleton@VCPythonPlayer@@@@0PAVCPythonPlayer@@A ; CSingleton<CPythonPlayer>::ms_singleton
  00006	e8 00 00 00 00	 call	 ?GetRace@CPythonPlayer@@QAEKXZ ; CPythonPlayer::GetRace
; File d:\metin2\metin2\client_source_clean\client_source_clean\source\userinterface\instancebase.h

; 1109 : 	return race % JOB_NUM;

  0000b	25 03 00 00 80	 and	 eax, -2147483645	; 80000003H
  00010	79 05		 jns	 SHORT $LN7@playerGetJ
  00012	48		 dec	 eax
  00013	83 c8 fc	 or	 eax, -4			; fffffffcH
  00016	40		 inc	 eax
$LN7@playerGetJ:
; File d:\metin2\metin2\client_source_clean\client_source_clean\source\userinterface\pythonplayermodule.cpp

; 508  : 	return Py_BuildValue("i", job);

  00017	50		 push	 eax
  00018	68 00 00 00 00	 push	 OFFSET ??_C@_01KBJDNOO@i?$AA@
  0001d	ff 15 00 00 00
	00		 call	 DWORD PTR __imp__Py_BuildValue
  00023	83 c4 08	 add	 esp, 8

; 509  : }

  00026	c3		 ret	 0
?playerGetJob@@YAPAU_object@@PAU1@0@Z ENDP		; playerGetJob
_TEXT	ENDS
; Function compile flags: /Ogtp
; File d:\metin2\metin2\client_source_clean\client_source_clean\source\userinterface\pythonplayermodule.cpp
;	COMDAT ?playerGetPlayTime@@YAPAU_object@@PAU1@0@Z
_TEXT	SEGMENT
_poSelf$ = 8						; size = 4
_poArgs$ = 12						; size = 4
?playerGetPlayTime@@YAPAU_object@@PAU1@0@Z PROC		; playerGetPlayTime, COMDAT

; 513  : 	return Py_BuildValue("i", CPythonPlayer::Instance().GetPlayTime()); 

  00000	8b 0d 00 00 00
	00		 mov	 ecx, DWORD PTR ?ms_singleton@?$CSingleton@VCPythonPlayer@@@@0PAVCPythonPlayer@@A ; CSingleton<CPythonPlayer>::ms_singleton
  00006	e8 00 00 00 00	 call	 ?GetPlayTime@CPythonPlayer@@QAEKXZ ; CPythonPlayer::GetPlayTime
  0000b	50		 push	 eax
  0000c	68 00 00 00 00	 push	 OFFSET ??_C@_01KBJDNOO@i?$AA@
  00011	ff 15 00 00 00
	00		 call	 DWORD PTR __imp__Py_BuildValue
  00017	83 c4 08	 add	 esp, 8

; 514  : }

  0001a	c3		 ret	 0
?playerGetPlayTime@@YAPAU_object@@PAU1@0@Z ENDP		; playerGetPlayTime
_TEXT	ENDS
; Function compile flags: /Ogtp
; File d:\metin2\metin2\client_source_clean\client_source_clean\source\userinterface\pythonplayermodule.cpp
;	COMDAT ?playerSetPlayTime@@YAPAU_object@@PAU1@0@Z
_TEXT	SEGMENT
_iTime$ = -4						; size = 4
_poSelf$ = 8						; size = 4
_poArgs$ = 12						; size = 4
?playerSetPlayTime@@YAPAU_object@@PAU1@0@Z PROC		; playerSetPlayTime, COMDAT

; 517  : {

  00000	55		 push	 ebp
  00001	8b ec		 mov	 ebp, esp
  00003	51		 push	 ecx

; 518  : 	int iTime;
; 519  : 	if (!PyTuple_GetInteger(poArgs, 0, &iTime))

  00004	8d 45 fc	 lea	 eax, DWORD PTR _iTime$[ebp]
  00007	50		 push	 eax
  00008	6a 00		 push	 0
  0000a	ff 75 0c	 push	 DWORD PTR _poArgs$[ebp]
  0000d	e8 00 00 00 00	 call	 ?PyTuple_GetInteger@@YA_NPAU_object@@HPAH@Z ; PyTuple_GetInteger
  00012	83 c4 0c	 add	 esp, 12			; 0000000cH
  00015	84 c0		 test	 al, al
  00017	75 0e		 jne	 SHORT $LN1@playerSetP

; 520  : 		return Py_BuildException();

  00019	6a 00		 push	 0
  0001b	e8 00 00 00 00	 call	 ?Py_BuildException@@YAPAU_object@@PBDZZ ; Py_BuildException
  00020	83 c4 04	 add	 esp, 4

; 524  : }

  00023	8b e5		 mov	 esp, ebp
  00025	5d		 pop	 ebp
  00026	c3		 ret	 0
$LN1@playerSetP:

; 521  : 
; 522  : 	CPythonPlayer::Instance().SetPlayTime(iTime);

  00027	ff 75 fc	 push	 DWORD PTR _iTime$[ebp]
  0002a	8b 0d 00 00 00
	00		 mov	 ecx, DWORD PTR ?ms_singleton@?$CSingleton@VCPythonPlayer@@@@0PAVCPythonPlayer@@A ; CSingleton<CPythonPlayer>::ms_singleton
  00030	e8 00 00 00 00	 call	 ?SetPlayTime@CPythonPlayer@@QAEXK@Z ; CPythonPlayer::SetPlayTime

; 523  : 	return Py_BuildNone();

  00035	e8 00 00 00 00	 call	 ?Py_BuildNone@@YAPAU_object@@XZ ; Py_BuildNone

; 524  : }

  0003a	8b e5		 mov	 esp, ebp
  0003c	5d		 pop	 ebp
  0003d	c3		 ret	 0
?playerSetPlayTime@@YAPAU_object@@PAU1@0@Z ENDP		; playerSetPlayTime
_TEXT	ENDS
; Function compile flags: /Ogtp
; File d:\metin2\metin2\client_source_clean\client_source_clean\source\userinterface\pythonplayermodule.cpp
;	COMDAT ?playerIsSkillCoolTime@@YAPAU_object@@PAU1@0@Z
_TEXT	SEGMENT
_iSlotIndex$ = -4					; size = 4
_poSelf$ = 8						; size = 4
_poArgs$ = 12						; size = 4
?playerIsSkillCoolTime@@YAPAU_object@@PAU1@0@Z PROC	; playerIsSkillCoolTime, COMDAT

; 527  : {

  00000	55		 push	 ebp
  00001	8b ec		 mov	 ebp, esp
  00003	51		 push	 ecx

; 528  : 	int iSlotIndex;
; 529  : 	if (!PyTuple_GetInteger(poArgs, 0, &iSlotIndex))

  00004	8d 45 fc	 lea	 eax, DWORD PTR _iSlotIndex$[ebp]
  00007	50		 push	 eax
  00008	6a 00		 push	 0
  0000a	ff 75 0c	 push	 DWORD PTR _poArgs$[ebp]
  0000d	e8 00 00 00 00	 call	 ?PyTuple_GetInteger@@YA_NPAU_object@@HPAH@Z ; PyTuple_GetInteger
  00012	83 c4 0c	 add	 esp, 12			; 0000000cH
  00015	84 c0		 test	 al, al
  00017	75 0e		 jne	 SHORT $LN1@playerIsSk

; 530  : 		return Py_BuildException();

  00019	6a 00		 push	 0
  0001b	e8 00 00 00 00	 call	 ?Py_BuildException@@YAPAU_object@@PBDZZ ; Py_BuildException
  00020	83 c4 04	 add	 esp, 4

; 533  : }

  00023	8b e5		 mov	 esp, ebp
  00025	5d		 pop	 ebp
  00026	c3		 ret	 0
$LN1@playerIsSk:

; 531  : 
; 532  : 	return Py_BuildValue("i", CPythonPlayer::Instance().IsSkillCoolTime(iSlotIndex));

  00027	ff 75 fc	 push	 DWORD PTR _iSlotIndex$[ebp]
  0002a	8b 0d 00 00 00
	00		 mov	 ecx, DWORD PTR ?ms_singleton@?$CSingleton@VCPythonPlayer@@@@0PAVCPythonPlayer@@A ; CSingleton<CPythonPlayer>::ms_singleton
  00030	e8 00 00 00 00	 call	 ?IsSkillCoolTime@CPythonPlayer@@QAEHK@Z ; CPythonPlayer::IsSkillCoolTime
  00035	50		 push	 eax
  00036	68 00 00 00 00	 push	 OFFSET ??_C@_01KBJDNOO@i?$AA@
  0003b	ff 15 00 00 00
	00		 call	 DWORD PTR __imp__Py_BuildValue
  00041	83 c4 08	 add	 esp, 8

; 533  : }

  00044	8b e5		 mov	 esp, ebp
  00046	5d		 pop	 ebp
  00047	c3		 ret	 0
?playerIsSkillCoolTime@@YAPAU_object@@PAU1@0@Z ENDP	; playerIsSkillCoolTime
_TEXT	ENDS
; Function compile flags: /Ogtp
; File d:\metin2\metin2\client_source_clean\client_source_clean\source\userinterface\pythonplayermodule.cpp
;	COMDAT ?playerGetSkillCoolTime@@YAPAU_object@@PAU1@0@Z
_TEXT	SEGMENT
_fCoolTime$1$ = -8					; size = 4
_iSlotIndex$ = -4					; size = 4
_poSelf$ = 8						; size = 4
_poArgs$ = 12						; size = 4
?playerGetSkillCoolTime@@YAPAU_object@@PAU1@0@Z PROC	; playerGetSkillCoolTime, COMDAT

; 536  : {

  00000	55		 push	 ebp
  00001	8b ec		 mov	 ebp, esp
  00003	83 ec 08	 sub	 esp, 8

; 537  : 	int iSlotIndex;
; 538  : 	if (!PyTuple_GetInteger(poArgs, 0, &iSlotIndex))

  00006	8d 45 fc	 lea	 eax, DWORD PTR _iSlotIndex$[ebp]
  00009	50		 push	 eax
  0000a	6a 00		 push	 0
  0000c	ff 75 0c	 push	 DWORD PTR _poArgs$[ebp]
  0000f	e8 00 00 00 00	 call	 ?PyTuple_GetInteger@@YA_NPAU_object@@HPAH@Z ; PyTuple_GetInteger
  00014	83 c4 0c	 add	 esp, 12			; 0000000cH
  00017	84 c0		 test	 al, al
  00019	75 0e		 jne	 SHORT $LN1@playerGetS

; 539  : 		return Py_BuildException();

  0001b	6a 00		 push	 0
  0001d	e8 00 00 00 00	 call	 ?Py_BuildException@@YAPAU_object@@PBDZZ ; Py_BuildException
  00022	83 c4 04	 add	 esp, 4

; 544  : }

  00025	8b e5		 mov	 esp, ebp
  00027	5d		 pop	 ebp
  00028	c3		 ret	 0
$LN1@playerGetS:

; 540  : 
; 541  : 	float fCoolTime = CPythonPlayer::Instance().GetSkillCoolTime(iSlotIndex);

  00029	8b 55 fc	 mov	 edx, DWORD PTR _iSlotIndex$[ebp]
  0002c	8b 0d 00 00 00
	00		 mov	 ecx, DWORD PTR ?ms_singleton@?$CSingleton@VCPythonPlayer@@@@0PAVCPythonPlayer@@A ; CSingleton<CPythonPlayer>::ms_singleton
  00032	52		 push	 edx
  00033	e8 00 00 00 00	 call	 ?GetSkillCoolTime@CPythonPlayer@@QAEMK@Z ; CPythonPlayer::GetSkillCoolTime

; 542  : 	float fElapsedCoolTime = CPythonPlayer::Instance().GetSkillElapsedCoolTime(iSlotIndex);

  00038	52		 push	 edx
  00039	f3 0f 11 45 f8	 movss	 DWORD PTR _fCoolTime$1$[ebp], xmm0
  0003e	e8 00 00 00 00	 call	 ?GetSkillElapsedCoolTime@CPythonPlayer@@QAEMK@Z ; CPythonPlayer::GetSkillElapsedCoolTime
  00043	0f 57 c9	 xorps	 xmm1, xmm1

; 543  : 	return Py_BuildValue("ff", fCoolTime, fElapsedCoolTime);

  00046	83 ec 10	 sub	 esp, 16			; 00000010H
  00049	f3 0f 5a c8	 cvtss2sd xmm1, xmm0
  0004d	f3 0f 10 45 f8	 movss	 xmm0, DWORD PTR _fCoolTime$1$[ebp]
  00052	0f 5a c0	 cvtps2pd xmm0, xmm0
  00055	f2 0f 11 4c 24
	08		 movsd	 QWORD PTR [esp+8], xmm1
  0005b	f2 0f 11 04 24	 movsd	 QWORD PTR [esp], xmm0
  00060	68 00 00 00 00	 push	 OFFSET ??_C@_02HPEDFNFO@ff?$AA@
  00065	ff 15 00 00 00
	00		 call	 DWORD PTR __imp__Py_BuildValue
  0006b	83 c4 14	 add	 esp, 20			; 00000014H

; 544  : }

  0006e	8b e5		 mov	 esp, ebp
  00070	5d		 pop	 ebp
  00071	c3		 ret	 0
?playerGetSkillCoolTime@@YAPAU_object@@PAU1@0@Z ENDP	; playerGetSkillCoolTime
_TEXT	ENDS
; Function compile flags: /Ogtp
; File d:\metin2\metin2\client_source_clean\client_source_clean\source\userinterface\pythonplayermodule.cpp
;	COMDAT ?playerIsSkillActive@@YAPAU_object@@PAU1@0@Z
_TEXT	SEGMENT
_iSlotIndex$ = -4					; size = 4
_poSelf$ = 8						; size = 4
_poArgs$ = 12						; size = 4
?playerIsSkillActive@@YAPAU_object@@PAU1@0@Z PROC	; playerIsSkillActive, COMDAT

; 547  : {

  00000	55		 push	 ebp
  00001	8b ec		 mov	 ebp, esp
  00003	51		 push	 ecx

; 548  : 	int iSlotIndex;
; 549  : 	if (!PyTuple_GetInteger(poArgs, 0, &iSlotIndex))

  00004	8d 45 fc	 lea	 eax, DWORD PTR _iSlotIndex$[ebp]
  00007	50		 push	 eax
  00008	6a 00		 push	 0
  0000a	ff 75 0c	 push	 DWORD PTR _poArgs$[ebp]
  0000d	e8 00 00 00 00	 call	 ?PyTuple_GetInteger@@YA_NPAU_object@@HPAH@Z ; PyTuple_GetInteger
  00012	83 c4 0c	 add	 esp, 12			; 0000000cH
  00015	84 c0		 test	 al, al
  00017	75 0e		 jne	 SHORT $LN1@playerIsSk

; 550  : 		return Py_BuildException();

  00019	6a 00		 push	 0
  0001b	e8 00 00 00 00	 call	 ?Py_BuildException@@YAPAU_object@@PBDZZ ; Py_BuildException
  00020	83 c4 04	 add	 esp, 4

; 553  : }

  00023	8b e5		 mov	 esp, ebp
  00025	5d		 pop	 ebp
  00026	c3		 ret	 0
$LN1@playerIsSk:

; 551  : 
; 552  : 	return Py_BuildValue("i", CPythonPlayer::Instance().IsSkillActive(iSlotIndex));

  00027	ff 75 fc	 push	 DWORD PTR _iSlotIndex$[ebp]
  0002a	8b 0d 00 00 00
	00		 mov	 ecx, DWORD PTR ?ms_singleton@?$CSingleton@VCPythonPlayer@@@@0PAVCPythonPlayer@@A ; CSingleton<CPythonPlayer>::ms_singleton
  00030	e8 00 00 00 00	 call	 ?IsSkillActive@CPythonPlayer@@QAEHK@Z ; CPythonPlayer::IsSkillActive
  00035	50		 push	 eax
  00036	68 00 00 00 00	 push	 OFFSET ??_C@_01KBJDNOO@i?$AA@
  0003b	ff 15 00 00 00
	00		 call	 DWORD PTR __imp__Py_BuildValue
  00041	83 c4 08	 add	 esp, 8

; 553  : }

  00044	8b e5		 mov	 esp, ebp
  00046	5d		 pop	 ebp
  00047	c3		 ret	 0
?playerIsSkillActive@@YAPAU_object@@PAU1@0@Z ENDP	; playerIsSkillActive
_TEXT	ENDS
; Function compile flags: /Ogtp
; File d:\metin2\metin2\client_source_clean\client_source_clean\source\userinterface\pythonplayermodule.cpp
;	COMDAT ?playerUseGuildSkill@@YAPAU_object@@PAU1@0@Z
_TEXT	SEGMENT
_iSkillSlotIndex$ = -4					; size = 4
_poSelf$ = 8						; size = 4
_poArgs$ = 12						; size = 4
?playerUseGuildSkill@@YAPAU_object@@PAU1@0@Z PROC	; playerUseGuildSkill, COMDAT

; 556  : {

  00000	55		 push	 ebp
  00001	8b ec		 mov	 ebp, esp
  00003	51		 push	 ecx

; 557  : 	int iSkillSlotIndex;
; 558  : 	if (!PyTuple_GetInteger(poArgs, 0, &iSkillSlotIndex))

  00004	8d 45 fc	 lea	 eax, DWORD PTR _iSkillSlotIndex$[ebp]
  00007	50		 push	 eax
  00008	6a 00		 push	 0
  0000a	ff 75 0c	 push	 DWORD PTR _poArgs$[ebp]
  0000d	e8 00 00 00 00	 call	 ?PyTuple_GetInteger@@YA_NPAU_object@@HPAH@Z ; PyTuple_GetInteger
  00012	83 c4 0c	 add	 esp, 12			; 0000000cH
  00015	84 c0		 test	 al, al
  00017	75 0e		 jne	 SHORT $LN1@playerUseG

; 559  : 		return Py_BuildException();

  00019	6a 00		 push	 0
  0001b	e8 00 00 00 00	 call	 ?Py_BuildException@@YAPAU_object@@PBDZZ ; Py_BuildException
  00020	83 c4 04	 add	 esp, 4

; 563  : }

  00023	8b e5		 mov	 esp, ebp
  00025	5d		 pop	 ebp
  00026	c3		 ret	 0
$LN1@playerUseG:

; 560  : 
; 561  : 	CPythonPlayer::Instance().UseGuildSkill(iSkillSlotIndex);

  00027	ff 75 fc	 push	 DWORD PTR _iSkillSlotIndex$[ebp]
  0002a	8b 0d 00 00 00
	00		 mov	 ecx, DWORD PTR ?ms_singleton@?$CSingleton@VCPythonPlayer@@@@0PAVCPythonPlayer@@A ; CSingleton<CPythonPlayer>::ms_singleton
  00030	e8 00 00 00 00	 call	 ?UseGuildSkill@CPythonPlayer@@QAEXK@Z ; CPythonPlayer::UseGuildSkill

; 562  : 	return Py_BuildNone();

  00035	e8 00 00 00 00	 call	 ?Py_BuildNone@@YAPAU_object@@XZ ; Py_BuildNone

; 563  : }

  0003a	8b e5		 mov	 esp, ebp
  0003c	5d		 pop	 ebp
  0003d	c3		 ret	 0
?playerUseGuildSkill@@YAPAU_object@@PAU1@0@Z ENDP	; playerUseGuildSkill
_TEXT	ENDS
; Function compile flags: /Ogtp
; File d:\metin2\metin2\client_source_clean\client_source_clean\source\userinterface\pythonplayermodule.cpp
;	COMDAT ?playerAffectIndexToSkillIndex@@YAPAU_object@@PAU1@0@Z
_TEXT	SEGMENT
_dwSkillIndex$ = -8					; size = 4
_iAffectIndex$ = -4					; size = 4
_poSelf$ = 8						; size = 4
_poArgs$ = 12						; size = 4
?playerAffectIndexToSkillIndex@@YAPAU_object@@PAU1@0@Z PROC ; playerAffectIndexToSkillIndex, COMDAT

; 566  : {

  00000	55		 push	 ebp
  00001	8b ec		 mov	 ebp, esp
  00003	83 ec 08	 sub	 esp, 8

; 567  : 	int iAffectIndex;
; 568  : 	if (!PyTuple_GetInteger(poArgs, 0, &iAffectIndex))

  00006	8d 45 fc	 lea	 eax, DWORD PTR _iAffectIndex$[ebp]
  00009	50		 push	 eax
  0000a	6a 00		 push	 0
  0000c	ff 75 0c	 push	 DWORD PTR _poArgs$[ebp]
  0000f	e8 00 00 00 00	 call	 ?PyTuple_GetInteger@@YA_NPAU_object@@HPAH@Z ; PyTuple_GetInteger
  00014	83 c4 0c	 add	 esp, 12			; 0000000cH
  00017	84 c0		 test	 al, al
  00019	75 0e		 jne	 SHORT $LN2@playerAffe

; 569  : 		return Py_BuildException();

  0001b	6a 00		 push	 0
  0001d	e8 00 00 00 00	 call	 ?Py_BuildException@@YAPAU_object@@PBDZZ ; Py_BuildException
  00022	83 c4 04	 add	 esp, 4

; 576  : }

  00025	8b e5		 mov	 esp, ebp
  00027	5d		 pop	 ebp
  00028	c3		 ret	 0
$LN2@playerAffe:

; 570  : 
; 571  : 	DWORD dwSkillIndex;
; 572  : 	if (!CPythonPlayer::Instance().AffectIndexToSkillIndex(iAffectIndex, &dwSkillIndex))

  00029	8b 0d 00 00 00
	00		 mov	 ecx, DWORD PTR ?ms_singleton@?$CSingleton@VCPythonPlayer@@@@0PAVCPythonPlayer@@A ; CSingleton<CPythonPlayer>::ms_singleton
  0002f	8d 45 f8	 lea	 eax, DWORD PTR _dwSkillIndex$[ebp]
  00032	50		 push	 eax
  00033	ff 75 fc	 push	 DWORD PTR _iAffectIndex$[ebp]
  00036	e8 00 00 00 00	 call	 ?AffectIndexToSkillIndex@CPythonPlayer@@QAE_NKPAK@Z ; CPythonPlayer::AffectIndexToSkillIndex
  0003b	84 c0		 test	 al, al
  0003d	75 14		 jne	 SHORT $LN1@playerAffe

; 573  : 		return Py_BuildValue("i", 0);

  0003f	6a 00		 push	 0

; 574  : 
; 575  : 	return Py_BuildValue("i", dwSkillIndex);

  00041	68 00 00 00 00	 push	 OFFSET ??_C@_01KBJDNOO@i?$AA@
  00046	ff 15 00 00 00
	00		 call	 DWORD PTR __imp__Py_BuildValue
  0004c	83 c4 08	 add	 esp, 8

; 576  : }

  0004f	8b e5		 mov	 esp, ebp
  00051	5d		 pop	 ebp
  00052	c3		 ret	 0
$LN1@playerAffe:

; 574  : 
; 575  : 	return Py_BuildValue("i", dwSkillIndex);

  00053	ff 75 f8	 push	 DWORD PTR _dwSkillIndex$[ebp]
  00056	68 00 00 00 00	 push	 OFFSET ??_C@_01KBJDNOO@i?$AA@
  0005b	ff 15 00 00 00
	00		 call	 DWORD PTR __imp__Py_BuildValue
  00061	83 c4 08	 add	 esp, 8

; 576  : }

  00064	8b e5		 mov	 esp, ebp
  00066	5d		 pop	 ebp
  00067	c3		 ret	 0
?playerAffectIndexToSkillIndex@@YAPAU_object@@PAU1@0@Z ENDP ; playerAffectIndexToSkillIndex
_TEXT	ENDS
; Function compile flags: /Ogtp
; File d:\metin2\metin2\client_source_clean\client_source_clean\source\userinterface\pythonplayermodule.cpp
;	COMDAT ?playerGetEXP@@YAPAU_object@@PAU1@0@Z
_TEXT	SEGMENT
_poSelf$ = 8						; size = 4
_poArgs$ = 12						; size = 4
?playerGetEXP@@YAPAU_object@@PAU1@0@Z PROC		; playerGetEXP, COMDAT

; 580  : 	DWORD dwEXP = CPythonPlayer::Instance().GetStatus(POINT_EXP);

  00000	8b 0d 00 00 00
	00		 mov	 ecx, DWORD PTR ?ms_singleton@?$CSingleton@VCPythonPlayer@@@@0PAVCPythonPlayer@@A ; CSingleton<CPythonPlayer>::ms_singleton
  00006	83 c1 04	 add	 ecx, 4
  00009	6a 03		 push	 3
  0000b	8b 01		 mov	 eax, DWORD PTR [ecx]
  0000d	ff 50 10	 call	 DWORD PTR [eax+16]

; 581  : 	return Py_BuildValue("l", dwEXP);

  00010	50		 push	 eax
  00011	68 00 00 00 00	 push	 OFFSET ??_C@_01HHGOMJKL@l?$AA@
  00016	ff 15 00 00 00
	00		 call	 DWORD PTR __imp__Py_BuildValue
  0001c	83 c4 08	 add	 esp, 8

; 582  : }

  0001f	c3		 ret	 0
?playerGetEXP@@YAPAU_object@@PAU1@0@Z ENDP		; playerGetEXP
_TEXT	ENDS
; Function compile flags: /Ogtp
; File d:\metin2\metin2\client_source_clean\client_source_clean\source\userinterface\pythonplayermodule.cpp
;	COMDAT ?playerGetStatus@@YAPAU_object@@PAU1@0@Z
_TEXT	SEGMENT
_iType$ = -4						; size = 4
