; Listing generated by Microsoft (R) Optimizing Compiler Version 18.00.40629.0 

	TITLE	D:\Metin2\Metin2\client_source_clean\client_source_clean\source\UserInterface\PythonNetworkStreamModule.cpp
	.686P
	.XMM
	include listing.inc
	.model	flat

INCLUDELIB OLDNAMES

PUBLIC	??_C@_0BI@HFMJEOAC@GetBettingGuildWarValue?$AA@	; `string'
PUBLIC	??_C@_0EE@CPCFCFHF@netSendGuildRemoveMemberPacket?$CIs@ ; `string'
PUBLIC	??_C@_0O@JMAHAJJH@SetServerInfo?$AA@		; `string'
PUBLIC	??_C@_0BH@LKCAJGCH@EnableChatInsultFilter?$AA@	; `string'
PUBLIC	??_C@_0BG@NJCKCHAI@PreserveServerCommand?$AA@	; `string'
PUBLIC	??_C@_0O@ODBJLKOA@GetServerInfo?$AA@		; `string'
PUBLIC	??_C@_09CFNAMFEF@StartGame?$AA@			; `string'
PUBLIC	??_C@_0BK@PJDKKIPH@GetPreservedServerCommand?$AA@ ; `string'
PUBLIC	??_C@_06OCDJGLIF@IsTest?$AA@			; `string'
PUBLIC	??_C@_04EIDOEOJH@Warp?$AA@			; `string'
PUBLIC	??_C@_0P@EPNPIBON@IsChatInsultIn?$AA@		; `string'
PUBLIC	??_C@_0O@OFMEOEDD@SetMarkServer?$AA@		; `string'
PUBLIC	??_C@_0P@NAIDDMMD@LoadInsultList?$AA@		; `string'
PUBLIC	??_C@_0L@CJJGFLBC@IsInsultIn?$AA@		; `string'
PUBLIC	??_C@_0N@OBKBFHKO@UploadSymbol?$AA@		; `string'
PUBLIC	??_C@_0L@JEGFHCJL@UploadMark?$AA@		; `string'
PUBLIC	??_C@_0BA@BPHKBGOL@GetMainActorVID?$AA@		; `string'
PUBLIC	??_C@_0M@GGDMINDM@GetEmpireID?$AA@		; `string'
PUBLIC	??_C@_0BD@JOIEFGML@GetMainActorEmpire?$AA@	; `string'
PUBLIC	??_C@_0BB@ICEJKPHA@GetMainActorRace?$AA@	; `string'
PUBLIC	??_C@_0CD@PJJNPONG@GetAccountCharacterSlotDataInteg@ ; `string'
PUBLIC	??_C@_0BH@GCCMJIJB@GetMainActorSkillGroup?$AA@	; `string'
PUBLIC	??_C@_0BG@NAMIDKHD@GetFieldMusicFileName?$AA@	; `string'
PUBLIC	??_C@_0CC@DLIFIOE@GetAccountCharacterSlotDataStrin@ ; `string'
PUBLIC	??_C@_0BE@BCCLDKB@ToggleGameDebugInfo?$AA@	; `string'
PUBLIC	??_C@_0BE@MHKBLINM@GetFieldMusicVolume?$AA@	; `string'
PUBLIC	??_C@_0P@EKNNFAK@SetPhaseWindow?$AA@		; `string'
PUBLIC	??_C@_0N@GLEGMFLM@SetLoginInfo?$AA@		; `string'
PUBLIC	??_C@_0BN@KOOLAHFA@SetServerCommandParserWindow?$AA@ ; `string'
PUBLIC	??_C@_0BB@NNDKGCIK@ClearPhaseWindow?$AA@	; `string'
PUBLIC	??_C@_0L@EELFNDHB@SetHandler?$AA@		; `string'
PUBLIC	??_C@_0BL@NJAILJBB@SetAccountConnectorHandler?$AA@ ; `string'
PUBLIC	??_C@_0BF@LOLMIHDO@SetTCPSendBufferSize?$AA@	; `string'
PUBLIC	??_C@_0BF@KAEIEPML@SetTCPRecvBufferSize?$AA@	; `string'
PUBLIC	??_C@_0M@PAACKIAL@DirectEnter?$AA@		; `string'
PUBLIC	??_C@_0BF@GPIIIFGB@SetUDPRecvBufferSize?$AA@	; `string'
PUBLIC	??_C@_08ENBHLCHD@ExitGame?$AA@			; `string'
PUBLIC	??_C@_0L@LPFGMFBP@LogOutGame?$AA@		; `string'
PUBLIC	??_C@_0L@HNEKCIDO@ConnectTCP?$AA@		; `string'
PUBLIC	??_C@_0BA@ILFBLEPH@ExitApplication?$AA@		; `string'
PUBLIC	??_C@_0BH@CIOLKAIG@ConnectToAccountServer?$AA@	; `string'
PUBLIC	??_C@_0L@MALJFJNO@ConnectUDP?$AA@		; `string'
PUBLIC	??_C@_0BK@GJKBNMLJ@SendChinaMatrixCardPacket?$AA@ ; `string'
PUBLIC	??_C@_0BA@CNDIKGCL@SendLoginPacket?$AA@		; `string'
PUBLIC	??_C@_0BH@IIELEKKA@SendSelectEmpirePacket?$AA@	; `string'
PUBLIC	??_C@_0BK@KNELICML@SendRunupMatrixCardPacket?$AA@ ; `string'
PUBLIC	??_C@_0BF@ODLJDBF@SendChangeNamePacket?$AA@	; `string'
PUBLIC	??_C@_0BK@MIKAHKDI@SendSelectCharacterPacket?$AA@ ; `string'
PUBLIC	??_C@_0BL@PMHPNGGJ@SendDestroyCharacterPacket?$AA@ ; `string'
PUBLIC	??_C@_0BK@NPKEAJJ@SendCreateCharacterPacket?$AA@ ; `string'
PUBLIC	??_C@_0BC@NHAKBOCP@SendItemUsePacket?$AA@	; `string'
PUBLIC	??_C@_0BE@NBECPFPH@SendEnterGamePacket?$AA@	; `string'
PUBLIC	??_C@_0BD@ICCAOJBA@SendItemDropPacket?$AA@	; `string'
PUBLIC	??_C@_0BI@OBDMDOIB@SendItemUseToItemPacket?$AA@	; `string'
PUBLIC	??_C@_0BC@NEDFAOHK@SendElkDropPacket?$AA@	; `string'
PUBLIC	??_C@_0BG@PNFNACGL@SendItemDropPacketNew?$AA@	; `string'
PUBLIC	??_C@_0BD@BPAFBGKI@SendItemMovePacket?$AA@	; `string'
PUBLIC	??_C@_0BG@ONKCIEDE@SendGoldDropPacketNew?$AA@	; `string'
PUBLIC	??_C@_0BD@FMAJCJM@SendGiveItemPacket?$AA@	; `string'
PUBLIC	??_C@_0BF@PJHEIMI@SendItemPickUpPacket?$AA@	; `string'
PUBLIC	??_C@_0L@CMGJAGDM@Disconnect?$AA@		; `string'
PUBLIC	??_C@_0BA@NKMDDBDL@SetOfflinePhase?$AA@		; `string'
PUBLIC	??_C@_0P@FJOINOIH@SendChatPacket?$AA@		; `string'
PUBLIC	??_C@_09HENONEEN@IsConnect?$AA@			; `string'
PUBLIC	??_C@_0BC@KNMEABPD@SendWhisperPacket?$AA@	; `string'
PUBLIC	??_C@_0N@BJHGOHPC@SendEmoticon?$AA@		; `string'
PUBLIC	??_C@_0BM@KAMAKIKL@SendCharacterPositionPacket?$AA@ ; `string'
PUBLIC	??_C@_0BI@BFCIMAOL@SendMobileMessagePacket?$AA@	; `string'
PUBLIC	??_C@_0BC@FPBLEBCL@SendShopBuyPacket?$AA@	; `string'
PUBLIC	??_C@_0BC@HEOMKCAE@SendShopEndPacket?$AA@	; `string'
PUBLIC	??_C@_0BG@BGJEIPGN@SendShopSellPacketNew?$AA@	; `string'
PUBLIC	??_C@_0BD@BFMEHPEE@SendShopSellPacket?$AA@	; `string'
PUBLIC	??_C@_0BK@IIFDLCNA@SendExchangeItemAddPacket?$AA@ ; `string'
PUBLIC	??_C@_0BI@BGNKGFKO@SendExchangeStartPacket?$AA@	; `string'
PUBLIC	??_C@_0BJ@CGGGIOGM@SendExchangeElkAddPacket?$AA@ ; `string'
PUBLIC	??_C@_0BK@KKOEHGGC@SendExchangeItemDelPacket?$AA@ ; `string'
PUBLIC	??_C@_0BH@NCONKHHB@SendExchangeExitPacket?$AA@	; `string'
PUBLIC	??_C@_0BJ@OFKJBLDC@SendExchangeAcceptPacket?$AA@ ; `string'
PUBLIC	??_C@_0BH@MCKLKDJM@RegisterEmoticonString?$AA@	; `string'
PUBLIC	??_C@_0BC@FMJHAGEI@SendOnClickPacket?$AA@	; `string'
PUBLIC	??_C@_0BN@MPMOLLL@SendMessengerAddByNamePacket?$AA@ ; `string'
PUBLIC	??_C@_0BM@CFLPIFFM@SendMessengerAddByVIDPacket?$AA@ ; `string'
PUBLIC	??_C@_0BG@IFGKMOED@SendPartyInvitePacket?$AA@	; `string'
PUBLIC	??_C@_0BK@GIIDGGBB@SendMessengerRemovePacket?$AA@ ; `string'
PUBLIC	??_C@_0BE@JHFPDGFP@SendPartyExitPacket?$AA@	; `string'
PUBLIC	??_C@_0BM@PFAFFBJO@SendPartyInviteAnswerPacket?$AA@ ; `string'
PUBLIC	??_C@_0BI@LNEGCCFH@SendPartySetStatePacket?$AA@	; `string'
PUBLIC	??_C@_0BG@JAJGIHK@SendPartyRemovePacket?$AA@	; `string'
PUBLIC	??_C@_0BJ@JGBOMHFI@SendPartyParameterPacket?$AA@ ; `string'
PUBLIC	??_C@_0BI@EONDHFJL@SendPartyUseSkillPacket?$AA@	; `string'
PUBLIC	??_C@_0BP@MLAJADAA@SendSafeboxWithdrawMoneyPacket?$AA@ ; `string'
PUBLIC	??_C@_0BL@CAAOLIHO@SendSafeboxSaveMoneyPacket?$AA@ ; `string'
PUBLIC	??_C@_0BK@LJAMACPE@SendSafeboxCheckoutPacket?$AA@ ; `string'
PUBLIC	??_C@_0BJ@HNJCKALG@SendSafeboxCheckinPacket?$AA@ ; `string'
PUBLIC	??_C@_0BH@BDNDNKGE@SendMallCheckoutPacket?$AA@	; `string'
PUBLIC	??_C@_0BK@JMMAEJFJ@SendSafeboxItemMovePacket?$AA@ ; `string'
PUBLIC	??_C@_0BL@BJLFPMAE@SendQuestInputStringPacket?$AA@ ; `string'
PUBLIC	??_C@_0BK@HLNHPAPM@SendAnswerMakeGuildPacket?$AA@ ; `string'
PUBLIC	??_C@_0BJ@MFJNIJIJ@SendGuildAddMemberPacket?$AA@ ; `string'
PUBLIC	??_C@_0BH@HMDNFHNB@SendQuestConfirmPacket?$AA@	; `string'
PUBLIC	??_C@_0BP@ODLEJFMG@SendGuildChangeGradeNamePacket?$AA@ ; `string'
PUBLIC	??_C@_0BM@GAJEHHNG@SendGuildRemoveMemberPacket?$AA@ ; `string'
PUBLIC	??_C@_0BF@OAFAHAKB@SendGuildOfferPacket?$AA@	; `string'
PUBLIC	??_C@_0CE@EFLFPPCO@SendGuildChangeGradeAuthorityPac@ ; `string'
PUBLIC	??_C@_0BN@MBNLMFLO@SendGuildDeleteCommentPacket?$AA@ ; `string'
PUBLIC	??_C@_0BL@JLEHIONL@SendGuildPostCommentPacket?$AA@ ; `string'
PUBLIC	??_C@_0CB@KOIDGNFC@SendGuildChangeMemberGradePacket@ ; `string'
PUBLIC	??_C@_0BP@BKEOCNGM@SendGuildRefreshCommentsPacket?$AA@ ; `string'
PUBLIC	??_C@_0CD@BMLIKMKL@SendGuildChangeMemberGeneralPack@ ; `string'
PUBLIC	??_C@_0BI@HICDMLJH@SendGuildUseSkillPacket?$AA@	; `string'
PUBLIC	??_C@_0BJ@LKJGDIEE@SendGuildChargeGSPPacket?$AA@ ; `string'
PUBLIC	??_C@_0BM@KLBFEJBI@SendGuildInviteAnswerPacket?$AA@ ; `string'
PUBLIC	??_C@_0BN@BPJGBHPL@SendGuildWithdrawMoneyPacket?$AA@ ; `string'
PUBLIC	??_C@_0BM@HDHMFNNO@SendGuildDepositMoneyPacket?$AA@ ; `string'
PUBLIC	??_C@_0BB@MBCAEHJO@SendRefinePacket?$AA@	; `string'
PUBLIC	??_C@_0BM@NLIMKJKK@SendRequestRefineInfoPacket?$AA@ ; `string'
PUBLIC	??_C@_0BG@HLIDKLKJ@SetPacketSequenceMode?$AA@	; `string'
PUBLIC	??_C@_0BF@HEJDCMFH@SendSelectItemPacket?$AA@	; `string'
PUBLIC	??_C@_0BC@NOAKHLIH@SetSkillGroupFake?$AA@	; `string'
PUBLIC	??_C@_0BG@KCIMJDEA@SetEmpireLanguageMode?$AA@	; `string'
PUBLIC	??_C@_0BD@PIFKMNDO@DisconnectUploader?$AA@	; `string'
PUBLIC	??_C@_0BA@EGLEIBFB@SendGuildSymbol?$AA@		; `string'
PUBLIC	??_C@_0BB@CABIEEGM@RegisterErrorLog?$AA@	; `string'
PUBLIC	??_C@_0BA@ILHNHDAK@RecvGuildSymbol?$AA@		; `string'
PUBLIC	??_C@_0L@LILDODAP@ERROR_NONE?$AA@		; `string'
PUBLIC	??_C@_03NBFOK@net?$AA@				; `string'
PUBLIC	??_C@_0BA@NEJKKBEJ@ERROR_LOAD_MARK?$AA@		; `string'
PUBLIC	??_C@_0BK@BILAANNF@ERROR_CONNECT_MARK_SERVER?$AA@ ; `string'
PUBLIC	??_C@_0BC@GOIIBBEJ@ERROR_MARK_HEIGHT?$AA@	; `string'
PUBLIC	??_C@_0BB@FEGLKDMB@ERROR_MARK_WIDTH?$AA@	; `string'
PUBLIC	??_C@_0CA@JMHMMKLO@ERROR_MARK_CHECK_NEED_RECONNECT?$AA@ ; `string'
PUBLIC	??_C@_0CB@BOPIDGGI@ERROR_MARK_UPLOAD_NEED_RECONNECT@ ; `string'
PUBLIC	??_C@_0BE@EBCKEIDN@PHASE_WINDOW_SELECT?$AA@	; `string'
PUBLIC	??_C@_0BD@JBLBGAIB@PHASE_WINDOW_LOGIN?$AA@	; `string'
PUBLIC	??_C@_0BC@PFELHICG@PHASE_WINDOW_LOAD?$AA@	; `string'
PUBLIC	??_C@_0BE@PAOFIFBD@PHASE_WINDOW_CREATE?$AA@	; `string'
PUBLIC	??_C@_0BE@IIMEMMI@PHASE_WINDOW_EMPIRE?$AA@	; `string'
PUBLIC	??_C@_0BC@HCEFPGCB@PHASE_WINDOW_GAME?$AA@	; `string'
PUBLIC	??_C@_0BK@HDGGAJBJ@ACCOUNT_CHARACTER_SLOT_ID?$AA@ ; `string'
PUBLIC	??_C@_0BC@BCDCNNFP@PHASE_WINDOW_LOGO?$AA@	; `string'
PUBLIC	??_C@_0BM@DNOALMKC@ACCOUNT_CHARACTER_SLOT_RACE?$AA@ ; `string'
PUBLIC	??_C@_0BM@JCGOOLCL@ACCOUNT_CHARACTER_SLOT_NAME?$AA@ ; `string'
PUBLIC	??_C@_0BL@MPBHOFJE@ACCOUNT_CHARACTER_SLOT_STR?$AA@ ; `string'
PUBLIC	??_C@_0BN@MPLCEAPH@ACCOUNT_CHARACTER_SLOT_LEVEL?$AA@ ; `string'
PUBLIC	??_C@_0BL@LHFINDEP@ACCOUNT_CHARACTER_SLOT_INT?$AA@ ; `string'
PUBLIC	??_C@_0BL@OFNCKLHP@ACCOUNT_CHARACTER_SLOT_DEX?$AA@ ; `string'
PUBLIC	??_C@_0CA@KFILFMPG@ACCOUNT_CHARACTER_SLOT_PLAYTIME?$AA@ ; `string'
PUBLIC	??_C@_0BL@PICCMPNB@ACCOUNT_CHARACTER_SLOT_HTH?$AA@ ; `string'
PUBLIC	??_C@_0BM@CNLCDDNB@ACCOUNT_CHARACTER_SLOT_ADDR?$AA@ ; `string'
PUBLIC	??_C@_0BM@JNGCLJJM@ACCOUNT_CHARACTER_SLOT_FORM?$AA@ ; `string'
PUBLIC	??_C@_0CA@GFKKICFN@ACCOUNT_CHARACTER_SLOT_GUILD_ID?$AA@ ; `string'
PUBLIC	??_C@_0BM@OJMCHCKG@ACCOUNT_CHARACTER_SLOT_PORT?$AA@ ; `string'
PUBLIC	??_C@_0CI@NIHCCHJE@ACCOUNT_CHARACTER_SLOT_CHANGE_NA@ ; `string'
PUBLIC	??_C@_0CC@HMBBCNEO@ACCOUNT_CHARACTER_SLOT_GUILD_NAM@ ; `string'
PUBLIC	??_C@_0BH@IJCJGIEO@SERVER_COMMAND_LOG_OUT?$AA@	; `string'
PUBLIC	??_C@_0BM@BPKEDCMB@ACCOUNT_CHARACTER_SLOT_HAIR?$AA@ ; `string'
PUBLIC	??_C@_0BE@FCDHFIHM@SERVER_COMMAND_QUIT?$AA@	; `string'
PUBLIC	??_C@_0CK@IDBHOJE@SERVER_COMMAND_RETURN_TO_SELECT_@ ; `string'
PUBLIC	??_C@_08HPFPLIJI@EMPIRE_B?$AA@			; `string'
PUBLIC	??_C@_08FEHCOLFL@EMPIRE_A?$AA@			; `string'
PUBLIC	??_C@_0BK@IMPJEABP@DS_SUB_HEADER_REFINE_FAIL?$AA@ ; `string'
PUBLIC	??_C@_08GGEEIJNJ@EMPIRE_C?$AA@			; `string'
PUBLIC	??_C@_0CL@CHMHFOOJ@DS_SUB_HEADER_REFINE_FAIL_INVALI@ ; `string'
PUBLIC	??_C@_0CF@NHMIOPGD@DS_SUB_HEADER_REFINE_FAIL_MAX_RE@ ; `string'
PUBLIC	??_C@_0CO@HIKHGDBM@DS_SUB_HEADER_REFINE_FAIL_NOT_EN@ ; `string'
PUBLIC	??_C@_0CL@DKLCPNME@DS_SUB_HEADER_REFINE_FAIL_NOT_EN@ ; `string'
PUBLIC	??_C@_0BN@OJONLPHM@DS_SUB_HEADER_REFINE_SUCCEED?$AA@ ; `string'
PUBLIC	??_C@_0CM@PJCLJBCJ@DS_SUB_HEADER_REFINE_FAIL_TOO_MU@ ; `string'
EXTRN	?SetPacketSequenceMode@CNetworkStream@@QAEX_N@Z:PROC ; CNetworkStream::SetPacketSequenceMode
EXTRN	?PyTuple_GetInteger@@YA_NPAU_object@@HPAE@Z:PROC ; PyTuple_GetInteger
EXTRN	?PyTuple_GetByte@@YA_NPAU_object@@HPAE@Z:PROC	; PyTuple_GetByte
EXTRN	?PyTuple_GetInteger@@YA_NPAU_object@@HPAG@Z:PROC ; PyTuple_GetInteger
;	COMDAT ?s_methods@?1??initnet@@YAXXZ@4PAUPyMethodDef@@A
_DATA	SEGMENT
?s_methods@?1??initnet@@YAXXZ@4PAUPyMethodDef@@A DD FLAT:??_C@_0BI@HFMJEOAC@GetBettingGuildWarValue?$AA@ ; `initnet'::`2'::s_methods
	DD	FLAT:?netGetBettingGuildWarValue@@YAPAU_object@@PAU1@0@Z
	DD	01H
	ORG $+4
	DD	FLAT:??_C@_0BH@LKCAJGCH@EnableChatInsultFilter?$AA@
	DD	FLAT:?netEnableChatInsultFilter@@YAPAU_object@@PAU1@0@Z
	DD	01H
	ORG $+4
	DD	FLAT:??_C@_0O@JMAHAJJH@SetServerInfo?$AA@
	DD	FLAT:?netSetServerInfo@@YAPAU_object@@PAU1@0@Z
	DD	01H
	ORG $+4
	DD	FLAT:??_C@_0O@ODBJLKOA@GetServerInfo?$AA@
	DD	FLAT:?netGetServerInfo@@YAPAU_object@@PAU1@0@Z
	DD	01H
	ORG $+4
	DD	FLAT:??_C@_0BG@NJCKCHAI@PreserveServerCommand?$AA@
	DD	FLAT:?netPreserveServerCommand@@YAPAU_object@@PAU1@0@Z
	DD	01H
	ORG $+4
	DD	FLAT:??_C@_0BK@PJDKKIPH@GetPreservedServerCommand?$AA@
	DD	FLAT:?netGetPreservedServerCommand@@YAPAU_object@@PAU1@0@Z
	DD	01H
	ORG $+4
	DD	FLAT:??_C@_09CFNAMFEF@StartGame?$AA@
	DD	FLAT:?netStartGame@@YAPAU_object@@PAU1@0@Z
	DD	01H
	ORG $+4
	DD	FLAT:??_C@_04EIDOEOJH@Warp?$AA@
	DD	FLAT:?netWarp@@YAPAU_object@@PAU1@0@Z
	DD	01H
	ORG $+4
	DD	FLAT:??_C@_06OCDJGLIF@IsTest?$AA@
	DD	FLAT:?netIsTest@@YAPAU_object@@PAU1@0@Z
	DD	01H
	ORG $+4
	DD	FLAT:??_C@_0O@OFMEOEDD@SetMarkServer?$AA@
	DD	FLAT:?netSetMarkServer@@YAPAU_object@@PAU1@0@Z
	DD	01H
	ORG $+4
	DD	FLAT:??_C@_0P@EPNPIBON@IsChatInsultIn?$AA@
	DD	FLAT:?netIsChatInsultIn@@YAPAU_object@@PAU1@0@Z
	DD	01H
	ORG $+4
	DD	FLAT:??_C@_0L@CJJGFLBC@IsInsultIn?$AA@
	DD	FLAT:?netIsInsultIn@@YAPAU_object@@PAU1@0@Z
	DD	01H
	ORG $+4
	DD	FLAT:??_C@_0P@NAIDDMMD@LoadInsultList?$AA@
	DD	FLAT:?netLoadInsultList@@YAPAU_object@@PAU1@0@Z
	DD	01H
	ORG $+4
	DD	FLAT:??_C@_0L@JEGFHCJL@UploadMark?$AA@
	DD	FLAT:?netUploadMark@@YAPAU_object@@PAU1@0@Z
	DD	01H
	ORG $+4
	DD	FLAT:??_C@_0N@OBKBFHKO@UploadSymbol?$AA@
	DD	FLAT:?netUploadSymbol@@YAPAU_object@@PAU1@0@Z
	DD	01H
	ORG $+4
	DD	FLAT:??_C@_0L@EAKBLDCO@GetGuildID?$AA@
	DD	FLAT:?netGetGuildID@@YAPAU_object@@PAU1@0@Z
	DD	01H
	ORG $+4
	DD	FLAT:??_C@_0M@GGDMINDM@GetEmpireID?$AA@
	DD	FLAT:?netGetEmpireID@@YAPAU_object@@PAU1@0@Z
	DD	01H
	ORG $+4
	DD	FLAT:??_C@_0BA@BPHKBGOL@GetMainActorVID?$AA@
	DD	FLAT:?netGetMainActorVID@@YAPAU_object@@PAU1@0@Z
	DD	01H
	ORG $+4
	DD	FLAT:??_C@_0BB@ICEJKPHA@GetMainActorRace?$AA@
	DD	FLAT:?netGetMainActorRace@@YAPAU_object@@PAU1@0@Z
	DD	01H
	ORG $+4
	DD	FLAT:??_C@_0BD@JOIEFGML@GetMainActorEmpire?$AA@
	DD	FLAT:?netGetMainActorEmpire@@YAPAU_object@@PAU1@0@Z
	DD	01H
	ORG $+4
	DD	FLAT:??_C@_0BH@GCCMJIJB@GetMainActorSkillGroup?$AA@
	DD	FLAT:?netGetMainActorSkillGroup@@YAPAU_object@@PAU1@0@Z
	DD	01H
	ORG $+4
	DD	FLAT:??_C@_0CD@PJJNPONG@GetAccountCharacterSlotDataInteg@
	DD	FLAT:?netGetAccountCharacterSlotDataInteger@@YAPAU_object@@PAU1@0@Z
	DD	01H
	ORG $+4
	DD	FLAT:??_C@_0CC@DLIFIOE@GetAccountCharacterSlotDataStrin@
	DD	FLAT:?netGetAccountCharacterSlotDataString@@YAPAU_object@@PAU1@0@Z
	DD	01H
	ORG $+4
	DD	FLAT:??_C@_0BG@NAMIDKHD@GetFieldMusicFileName?$AA@
	DD	FLAT:?netGetFieldMusicFileName@@YAPAU_object@@PAU1@0@Z
	DD	01H
	ORG $+4
	DD	FLAT:??_C@_0BE@MHKBLINM@GetFieldMusicVolume?$AA@
	DD	FLAT:?netGetFieldMusicVolume@@YAPAU_object@@PAU1@0@Z
	DD	01H
	ORG $+4
	DD	FLAT:??_C@_0BE@BCCLDKB@ToggleGameDebugInfo?$AA@
	DD	FLAT:?netToggleGameDebugInfo@@YAPAU_object@@PAU1@0@Z
	DD	01H
	ORG $+4
	DD	FLAT:??_C@_0N@GLEGMFLM@SetLoginInfo?$AA@
	DD	FLAT:?netSetLoginInfo@@YAPAU_object@@PAU1@0@Z
	DD	01H
	ORG $+4
	DD	FLAT:??_C@_0P@EKNNFAK@SetPhaseWindow?$AA@
	DD	FLAT:?netSetPhaseWindow@@YAPAU_object@@PAU1@0@Z
	DD	01H
	ORG $+4
	DD	FLAT:??_C@_0BB@NNDKGCIK@ClearPhaseWindow?$AA@
	DD	FLAT:?netClearPhaseWindow@@YAPAU_object@@PAU1@0@Z
	DD	01H
	ORG $+4
	DD	FLAT:??_C@_0BN@KOOLAHFA@SetServerCommandParserWindow?$AA@
	DD	FLAT:?netSetServerCommandParserWindow@@YAPAU_object@@PAU1@0@Z
	DD	01H
	ORG $+4
	DD	FLAT:??_C@_0BL@NJAILJBB@SetAccountConnectorHandler?$AA@
	DD	FLAT:?netSetAccountConnectorHandler@@YAPAU_object@@PAU1@0@Z
	DD	01H
	ORG $+4
	DD	FLAT:??_C@_0L@EELFNDHB@SetHandler?$AA@
	DD	FLAT:?netSetHandler@@YAPAU_object@@PAU1@0@Z
	DD	01H
	ORG $+4
	DD	FLAT:??_C@_0BF@KAEIEPML@SetTCPRecvBufferSize?$AA@
	DD	FLAT:?netSetTCPRecvBufferSize@@YAPAU_object@@PAU1@0@Z
	DD	01H
	ORG $+4
	DD	FLAT:??_C@_0BF@LOLMIHDO@SetTCPSendBufferSize?$AA@
	DD	FLAT:?netSetTCPSendBufferSize@@YAPAU_object@@PAU1@0@Z
	DD	01H
	ORG $+4
	DD	FLAT:??_C@_0BF@GPIIIFGB@SetUDPRecvBufferSize?$AA@
	DD	FLAT:?netSetUDPRecvBufferSize@@YAPAU_object@@PAU1@0@Z
	DD	01H
	ORG $+4
	DD	FLAT:??_C@_0M@PAACKIAL@DirectEnter?$AA@
	DD	FLAT:?netDirectEnter@@YAPAU_object@@PAU1@0@Z
	DD	01H
	ORG $+4
	DD	FLAT:??_C@_0L@LPFGMFBP@LogOutGame?$AA@
	DD	FLAT:?netLogOutGame@@YAPAU_object@@PAU1@0@Z
	DD	01H
	ORG $+4
	DD	FLAT:??_C@_08ENBHLCHD@ExitGame?$AA@
	DD	FLAT:?netExitGame@@YAPAU_object@@PAU1@0@Z
	DD	01H
	ORG $+4
	DD	FLAT:??_C@_0BA@ILFBLEPH@ExitApplication?$AA@
	DD	FLAT:?netExitApplication@@YAPAU_object@@PAU1@0@Z
	DD	01H
	ORG $+4
	DD	FLAT:??_C@_0L@HNEKCIDO@ConnectTCP?$AA@
	DD	FLAT:?netConnectTCP@@YAPAU_object@@PAU1@0@Z
	DD	01H
	ORG $+4
	DD	FLAT:??_C@_0L@MALJFJNO@ConnectUDP?$AA@
	DD	FLAT:?netConnectUDP@@YAPAU_object@@PAU1@0@Z
	DD	01H
	ORG $+4
	DD	FLAT:??_C@_0BH@CIOLKAIG@ConnectToAccountServer?$AA@
	DD	FLAT:?netConnectToAccountServer@@YAPAU_object@@PAU1@0@Z
	DD	01H
	ORG $+4
	DD	FLAT:??_C@_0BA@CNDIKGCL@SendLoginPacket?$AA@
	DD	FLAT:?netSendLoginPacket@@YAPAU_object@@PAU1@0@Z
	DD	01H
	ORG $+4
	DD	FLAT:??_C@_0BK@GJKBNMLJ@SendChinaMatrixCardPacket?$AA@
	DD	FLAT:?netSendChinaMatrixCardPacket@@YAPAU_object@@PAU1@0@Z
	DD	01H
	ORG $+4
	DD	FLAT:??_C@_0BK@KNELICML@SendRunupMatrixCardPacket?$AA@
	DD	FLAT:?netSendRunupMatrixCardPacket@@YAPAU_object@@PAU1@0@Z
	DD	01H
	ORG $+4
	DD	FLAT:??_C@_0BP@JFBAGMPA@SendNEWCIBNPasspodAnswerPacket?$AA@
	DD	FLAT:?netSendNEWCIBNPasspodAnswerPacket@@YAPAU_object@@PAU1@0@Z
	DD	01H
	ORG $+4
	DD	FLAT:??_C@_0BH@IIELEKKA@SendSelectEmpirePacket?$AA@
	DD	FLAT:?netSendSelectEmpirePacket@@YAPAU_object@@PAU1@0@Z
	DD	01H
	ORG $+4
	DD	FLAT:??_C@_0BK@MIKAHKDI@SendSelectCharacterPacket?$AA@
	DD	FLAT:?netSendSelectCharacterPacket@@YAPAU_object@@PAU1@0@Z
	DD	01H
	ORG $+4
	DD	FLAT:??_C@_0BF@ODLJDBF@SendChangeNamePacket?$AA@
	DD	FLAT:?netSendChangeNamePacket@@YAPAU_object@@PAU1@0@Z
	DD	01H
	ORG $+4
	DD	FLAT:??_C@_0BK@NPKEAJJ@SendCreateCharacterPacket?$AA@
	DD	FLAT:?netSendCreateCharacterPacket@@YAPAU_object@@PAU1@0@Z
	DD	01H
	ORG $+4
	DD	FLAT:??_C@_0BL@PMHPNGGJ@SendDestroyCharacterPacket?$AA@
	DD	FLAT:?netSendDestroyCharacterPacket@@YAPAU_object@@PAU1@0@Z
	DD	01H
	ORG $+4
	DD	FLAT:??_C@_0BE@NBECPFPH@SendEnterGamePacket?$AA@
	DD	FLAT:?netSendEnterGamePacket@@YAPAU_object@@PAU1@0@Z
	DD	01H
	ORG $+4
	DD	FLAT:??_C@_0BC@NHAKBOCP@SendItemUsePacket?$AA@
	DD	FLAT:?netSendItemUsePacket@@YAPAU_object@@PAU1@0@Z
	DD	01H
	ORG $+4
	DD	FLAT:??_C@_0BI@OBDMDOIB@SendItemUseToItemPacket?$AA@
	DD	FLAT:?netSendItemUseToItemPacket@@YAPAU_object@@PAU1@0@Z
	DD	01H
	ORG $+4
	DD	FLAT:??_C@_0BD@ICCAOJBA@SendItemDropPacket?$AA@
	DD	FLAT:?netSendItemDropPacket@@YAPAU_object@@PAU1@0@Z
	DD	01H
	ORG $+4
	DD	FLAT:??_C@_0BG@PNFNACGL@SendItemDropPacketNew?$AA@
	DD	FLAT:?netSendItemDropPacketNew@@YAPAU_object@@PAU1@0@Z
	DD	01H
	ORG $+4
	DD	FLAT:??_C@_0BC@NEDFAOHK@SendElkDropPacket?$AA@
	DD	FLAT:?netSendElkDropPacket@@YAPAU_object@@PAU1@0@Z
	DD	01H
	ORG $+4
	DD	FLAT:??_C@_0BG@ONKCIEDE@SendGoldDropPacketNew?$AA@
	DD	FLAT:?netSendGoldDropPacketNew@@YAPAU_object@@PAU1@0@Z
	DD	01H
	ORG $+4
	DD	FLAT:??_C@_0BD@BPAFBGKI@SendItemMovePacket?$AA@
	DD	FLAT:?netSendItemMovePacket@@YAPAU_object@@PAU1@0@Z
	DD	01H
	ORG $+4
	DD	FLAT:??_C@_0BF@PJHEIMI@SendItemPickUpPacket?$AA@
	DD	FLAT:?netSendItemPickUpPacket@@YAPAU_object@@PAU1@0@Z
	DD	01H
	ORG $+4
	DD	FLAT:??_C@_0BD@FMAJCJM@SendGiveItemPacket?$AA@
	DD	FLAT:?netSendGiveItemPacket@@YAPAU_object@@PAU1@0@Z
	DD	01H
	ORG $+4
	DD	FLAT:??_C@_0BA@NKMDDBDL@SetOfflinePhase?$AA@
	DD	FLAT:?netSetOfflinePhase@@YAPAU_object@@PAU1@0@Z
	DD	01H
	ORG $+4
	DD	FLAT:??_C@_0L@CMGJAGDM@Disconnect?$AA@
	DD	FLAT:?netDisconnect@@YAPAU_object@@PAU1@0@Z
	DD	01H
	ORG $+4
	DD	FLAT:??_C@_09HENONEEN@IsConnect?$AA@
	DD	FLAT:?netIsConnect@@YAPAU_object@@PAU1@0@Z
	DD	01H
	ORG $+4
	DD	FLAT:??_C@_0P@FJOINOIH@SendChatPacket?$AA@
	DD	FLAT:?netSendChatPacket@@YAPAU_object@@PAU1@0@Z
	DD	01H
	ORG $+4
	DD	FLAT:??_C@_0N@BJHGOHPC@SendEmoticon?$AA@
	DD	FLAT:?netSendEmoticon@@YAPAU_object@@PAU1@0@Z
	DD	01H
	ORG $+4
	DD	FLAT:??_C@_0BC@KNMEABPD@SendWhisperPacket?$AA@
	DD	FLAT:?netSendWhisperPacket@@YAPAU_object@@PAU1@0@Z
	DD	01H
	ORG $+4
	DD	FLAT:??_C@_0BI@BFCIMAOL@SendMobileMessagePacket?$AA@
	DD	FLAT:?netSendMobileMessagePacket@@YAPAU_object@@PAU1@0@Z
	DD	01H
	ORG $+4
	DD	FLAT:??_C@_0BM@KAMAKIKL@SendCharacterPositionPacket?$AA@
	DD	FLAT:?netSendCharacterPositionPacket@@YAPAU_object@@PAU1@0@Z
	DD	01H
	ORG $+4
	DD	FLAT:??_C@_0BC@HEOMKCAE@SendShopEndPacket?$AA@
	DD	FLAT:?netSendShopEndPacket@@YAPAU_object@@PAU1@0@Z
	DD	01H
	ORG $+4
	DD	FLAT:??_C@_0BC@FPBLEBCL@SendShopBuyPacket?$AA@
	DD	FLAT:?netSendShopBuyPacket@@YAPAU_object@@PAU1@0@Z
	DD	01H
	ORG $+4
	DD	FLAT:??_C@_0BD@BFMEHPEE@SendShopSellPacket?$AA@
	DD	FLAT:?netSendShopSellPacket@@YAPAU_object@@PAU1@0@Z
	DD	01H
	ORG $+4
	DD	FLAT:??_C@_0BG@BGJEIPGN@SendShopSellPacketNew?$AA@
	DD	FLAT:?netSendShopSellPacketNew@@YAPAU_object@@PAU1@0@Z
	DD	01H
	ORG $+4
	DD	FLAT:??_C@_0BI@BGNKGFKO@SendExchangeStartPacket?$AA@
	DD	FLAT:?netSendExchangeStartPacket@@YAPAU_object@@PAU1@0@Z
	DD	01H
	ORG $+4
	DD	FLAT:??_C@_0BK@IIFDLCNA@SendExchangeItemAddPacket?$AA@
	DD	FLAT:?netSendExchangeItemAddPacket@@YAPAU_object@@PAU1@0@Z
	DD	01H
	ORG $+4
	DD	FLAT:??_C@_0BK@KKOEHGGC@SendExchangeItemDelPacket?$AA@
	DD	FLAT:?netSendExchangeItemDelPacket@@YAPAU_object@@PAU1@0@Z
	DD	01H
	ORG $+4
	DD	FLAT:??_C@_0BJ@CGGGIOGM@SendExchangeElkAddPacket?$AA@
	DD	FLAT:?netSendExchangeElkAddPacket@@YAPAU_object@@PAU1@0@Z
	DD	01H
	ORG $+4
	DD	FLAT:??_C@_0BJ@OFKJBLDC@SendExchangeAcceptPacket?$AA@
	DD	FLAT:?netSendExchangeAcceptPacket@@YAPAU_object@@PAU1@0@Z
	DD	01H
	ORG $+4
	DD	FLAT:??_C@_0BH@NCONKHHB@SendExchangeExitPacket?$AA@
	DD	FLAT:?netSendExchangeExitPacket@@YAPAU_object@@PAU1@0@Z
	DD	01H
	ORG $+4
	DD	FLAT:??_C@_0BC@FMJHAGEI@SendOnClickPacket?$AA@
	DD	FLAT:?netOnClickPacket@@YAPAU_object@@PAU1@0@Z
	DD	01H
	ORG $+4
	DD	FLAT:??_C@_0BH@MCKLKDJM@RegisterEmoticonString?$AA@
	DD	FLAT:?netRegisterEmoticonString@@YAPAU_object@@PAU1@0@Z
	DD	01H
	ORG $+4
	DD	FLAT:??_C@_0BM@CFLPIFFM@SendMessengerAddByVIDPacket?$AA@
	DD	FLAT:?netSendMessengerAddByVIDPacket@@YAPAU_object@@PAU1@0@Z
	DD	01H
	ORG $+4
	DD	FLAT:??_C@_0BN@MPMOLLL@SendMessengerAddByNamePacket?$AA@
	DD	FLAT:?netSendMessengerAddByNamePacket@@YAPAU_object@@PAU1@0@Z
	DD	01H
	ORG $+4
	DD	FLAT:??_C@_0BK@GIIDGGBB@SendMessengerRemovePacket?$AA@
	DD	FLAT:?netSendMessengerRemovePacket@@YAPAU_object@@PAU1@0@Z
	DD	01H
	ORG $+4
	DD	FLAT:??_C@_0BG@IFGKMOED@SendPartyInvitePacket?$AA@
	DD	FLAT:?netSendPartyInvitePacket@@YAPAU_object@@PAU1@0@Z
	DD	01H
	ORG $+4
	DD	FLAT:??_C@_0BM@PFAFFBJO@SendPartyInviteAnswerPacket?$AA@
	DD	FLAT:?netSendPartyInviteAnswerPacket@@YAPAU_object@@PAU1@0@Z
	DD	01H
	ORG $+4
	DD	FLAT:??_C@_0BE@JHFPDGFP@SendPartyExitPacket?$AA@
	DD	FLAT:?netSendPartyExitPacket@@YAPAU_object@@PAU1@0@Z
	DD	01H
	ORG $+4
	DD	FLAT:??_C@_0BG@JAJGIHK@SendPartyRemovePacket?$AA@
	DD	FLAT:?netSendPartyRemovePacket@@YAPAU_object@@PAU1@0@Z
	DD	01H
	ORG $+4
	DD	FLAT:??_C@_0BI@LNEGCCFH@SendPartySetStatePacket?$AA@
	DD	FLAT:?netSendPartySetStatePacket@@YAPAU_object@@PAU1@0@Z
	DD	01H
	ORG $+4
	DD	FLAT:??_C@_0BI@EONDHFJL@SendPartyUseSkillPacket?$AA@
	DD	FLAT:?netSendPartyUseSkillPacket@@YAPAU_object@@PAU1@0@Z
	DD	01H
	ORG $+4
	DD	FLAT:??_C@_0BJ@JGBOMHFI@SendPartyParameterPacket?$AA@
	DD	FLAT:?netSendPartyParameterPacket@@YAPAU_object@@PAU1@0@Z
	DD	01H
	ORG $+4
	DD	FLAT:??_C@_0BL@CAAOLIHO@SendSafeboxSaveMoneyPacket?$AA@
	DD	FLAT:?netSendSafeboxSaveMoneyPacket@@YAPAU_object@@PAU1@0@Z
	DD	01H
	ORG $+4
	DD	FLAT:??_C@_0BP@MLAJADAA@SendSafeboxWithdrawMoneyPacket?$AA@
	DD	FLAT:?netSendSafeboxWithdrawMoneyPacket@@YAPAU_object@@PAU1@0@Z
	DD	01H
	ORG $+4
	DD	FLAT:??_C@_0BJ@HNJCKALG@SendSafeboxCheckinPacket?$AA@
	DD	FLAT:?netSendSafeboxCheckinPacket@@YAPAU_object@@PAU1@0@Z
	DD	01H
	ORG $+4
	DD	FLAT:??_C@_0BK@LJAMACPE@SendSafeboxCheckoutPacket?$AA@
	DD	FLAT:?netSendSafeboxCheckoutPacket@@YAPAU_object@@PAU1@0@Z
	DD	01H
	ORG $+4
	DD	FLAT:??_C@_0BK@JMMAEJFJ@SendSafeboxItemMovePacket?$AA@
	DD	FLAT:?netSendSafeboxItemMovePacket@@YAPAU_object@@PAU1@0@Z
	DD	01H
	ORG $+4
	DD	FLAT:??_C@_0BH@BDNDNKGE@SendMallCheckoutPacket?$AA@
	DD	FLAT:?netSendMallCheckoutPacket@@YAPAU_object@@PAU1@0@Z
	DD	01H
	ORG $+4
	DD	FLAT:??_C@_0BK@HLNHPAPM@SendAnswerMakeGuildPacket?$AA@
	DD	FLAT:?netSendAnswerMakeGuildPacket@@YAPAU_object@@PAU1@0@Z
	DD	01H
	ORG $+4
	DD	FLAT:??_C@_0BL@BJLFPMAE@SendQuestInputStringPacket?$AA@
	DD	FLAT:?netSendQuestInputStringPacket@@YAPAU_object@@PAU1@0@Z
	DD	01H
	ORG $+4
	DD	FLAT:??_C@_0BH@HMDNFHNB@SendQuestConfirmPacket?$AA@
	DD	FLAT:?netSendQuestConfirmPacket@@YAPAU_object@@PAU1@0@Z
	DD	01H
	ORG $+4
	DD	FLAT:??_C@_0BJ@MFJNIJIJ@SendGuildAddMemberPacket?$AA@
	DD	FLAT:?netSendGuildAddMemberPacket@@YAPAU_object@@PAU1@0@Z
	DD	01H
	ORG $+4
	DD	FLAT:??_C@_0BM@GAJEHHNG@SendGuildRemoveMemberPacket?$AA@
	DD	FLAT:?netSendGuildRemoveMemberPacket@@YAPAU_object@@PAU1@0@Z
	DD	01H
	ORG $+4
	DD	FLAT:??_C@_0BP@ODLEJFMG@SendGuildChangeGradeNamePacket?$AA@
	DD	FLAT:?netSendGuildChangeGradeNamePacket@@YAPAU_object@@PAU1@0@Z
	DD	01H
	ORG $+4
	DD	FLAT:??_C@_0CE@EFLFPPCO@SendGuildChangeGradeAuthorityPac@
	DD	FLAT:?netSendGuildChangeGradeAuthorityPacket@@YAPAU_object@@PAU1@0@Z
	DD	01H
	ORG $+4
	DD	FLAT:??_C@_0BF@OAFAHAKB@SendGuildOfferPacket?$AA@
	DD	FLAT:?netSendGuildOfferPacket@@YAPAU_object@@PAU1@0@Z
	DD	01H
	ORG $+4
	DD	FLAT:??_C@_0BL@JLEHIONL@SendGuildPostCommentPacket?$AA@
	DD	FLAT:?netSnedGuildPostCommentPacket@@YAPAU_object@@PAU1@0@Z
	DD	01H
	ORG $+4
	DD	FLAT:??_C@_0BN@MBNLMFLO@SendGuildDeleteCommentPacket?$AA@
	DD	FLAT:?netSnedGuildDeleteCommentPacket@@YAPAU_object@@PAU1@0@Z
	DD	01H
	ORG $+4
	DD	FLAT:??_C@_0BP@BKEOCNGM@SendGuildRefreshCommentsPacket?$AA@
	DD	FLAT:?netSendGuildRefreshCommentsPacket@@YAPAU_object@@PAU1@0@Z
	DD	01H
	ORG $+4
	DD	FLAT:??_C@_0CB@KOIDGNFC@SendGuildChangeMemberGradePacket@
	DD	FLAT:?netSendGuildChangeMemberGradePacket@@YAPAU_object@@PAU1@0@Z
	DD	01H
	ORG $+4
	DD	FLAT:??_C@_0BI@HICDMLJH@SendGuildUseSkillPacket?$AA@
	DD	FLAT:?netSendGuildUseSkillPacket@@YAPAU_object@@PAU1@0@Z
	DD	01H
	ORG $+4
	DD	FLAT:??_C@_0CD@BMLIKMKL@SendGuildChangeMemberGeneralPack@
	DD	FLAT:?netSendGuildChangeMemberGeneralPacket@@YAPAU_object@@PAU1@0@Z
	DD	01H
	ORG $+4
	DD	FLAT:??_C@_0BM@KLBFEJBI@SendGuildInviteAnswerPacket?$AA@
	DD	FLAT:?netSendGuildInviteAnswerPacket@@YAPAU_object@@PAU1@0@Z
	DD	01H
	ORG $+4
	DD	FLAT:??_C@_0BJ@LKJGDIEE@SendGuildChargeGSPPacket?$AA@
	DD	FLAT:?netSendGuildChargeGSPPacket@@YAPAU_object@@PAU1@0@Z
	DD	01H
	ORG $+4
	DD	FLAT:??_C@_0BM@HDHMFNNO@SendGuildDepositMoneyPacket?$AA@
	DD	FLAT:?netSendGuildDepositMoneyPacket@@YAPAU_object@@PAU1@0@Z
	DD	01H
	ORG $+4
	DD	FLAT:??_C@_0BN@BPJGBHPL@SendGuildWithdrawMoneyPacket?$AA@
	DD	FLAT:?netSendGuildWithdrawMoneyPacket@@YAPAU_object@@PAU1@0@Z
	DD	01H
	ORG $+4
	DD	FLAT:??_C@_0BM@NLIMKJKK@SendRequestRefineInfoPacket?$AA@
	DD	FLAT:?netSendRequestRefineInfoPacket@@YAPAU_object@@PAU1@0@Z
	DD	01H
	ORG $+4
	DD	FLAT:??_C@_0BB@MBCAEHJO@SendRefinePacket?$AA@
	DD	FLAT:?netSendRefinePacket@@YAPAU_object@@PAU1@0@Z
	DD	01H
	ORG $+4
	DD	FLAT:??_C@_0BF@HEJDCMFH@SendSelectItemPacket?$AA@
	DD	FLAT:?netSendSelectItemPacket@@YAPAU_object@@PAU1@0@Z
	DD	01H
	ORG $+4
	DD	FLAT:??_C@_0BG@HLIDKLKJ@SetPacketSequenceMode?$AA@
	DD	FLAT:?netSetPacketSequenceMode@@YAPAU_object@@PAU1@0@Z
	DD	01H
	ORG $+4
	DD	FLAT:??_C@_0BG@KCIMJDEA@SetEmpireLanguageMode?$AA@
	DD	FLAT:?netSetEmpireLanguageMode@@YAPAU_object@@PAU1@0@Z
	DD	01H
	ORG $+4
	DD	FLAT:??_C@_0BC@NOAKHLIH@SetSkillGroupFake?$AA@
	DD	FLAT:?netSetSkillGroupFake@@YAPAU_object@@PAU1@0@Z
	DD	01H
	ORG $+4
	DD	FLAT:??_C@_0BA@EGLEIBFB@SendGuildSymbol?$AA@
	DD	FLAT:?netSendGuildSymbol@@YAPAU_object@@PAU1@0@Z
	DD	01H
	ORG $+4
	DD	FLAT:??_C@_0BD@PIFKMNDO@DisconnectUploader?$AA@
	DD	FLAT:?netDisconnectUploader@@YAPAU_object@@PAU1@0@Z
	DD	01H
	ORG $+4
	DD	FLAT:??_C@_0BA@ILHNHDAK@RecvGuildSymbol?$AA@
	DD	FLAT:?netRecvGuildSymbol@@YAPAU_object@@PAU1@0@Z
	DD	01H
	ORG $+4
	DD	FLAT:??_C@_0BB@CABIEEGM@RegisterErrorLog?$AA@
	DD	FLAT:?netRegisterErrorLog@@YAPAU_object@@PAU1@0@Z
	DD	01H
	ORG $+4
	DD	00H
	DD	00H
	DD	00H
	ORG $+4
_DATA	ENDS
;	COMDAT ??_C@_0CM@PJCLJBCJ@DS_SUB_HEADER_REFINE_FAIL_TOO_MU@
CONST	SEGMENT
??_C@_0CM@PJCLJBCJ@DS_SUB_HEADER_REFINE_FAIL_TOO_MU@ DB 'DS_SUB_HEADER_RE'
	DB	'FINE_FAIL_TOO_MUCH_MATERIAL', 00H		; `string'
CONST	ENDS
;	COMDAT ??_C@_0BN@OJONLPHM@DS_SUB_HEADER_REFINE_SUCCEED?$AA@
CONST	SEGMENT
??_C@_0BN@OJONLPHM@DS_SUB_HEADER_REFINE_SUCCEED?$AA@ DB 'DS_SUB_HEADER_RE'
	DB	'FINE_SUCCEED', 00H				; `string'
CONST	ENDS
;	COMDAT ??_C@_0CL@DKLCPNME@DS_SUB_HEADER_REFINE_FAIL_NOT_EN@
CONST	SEGMENT
??_C@_0CL@DKLCPNME@DS_SUB_HEADER_REFINE_FAIL_NOT_EN@ DB 'DS_SUB_HEADER_RE'
	DB	'FINE_FAIL_NOT_ENOUGH_MONEY', 00H		; `string'
CONST	ENDS
;	COMDAT ??_C@_0CO@HIKHGDBM@DS_SUB_HEADER_REFINE_FAIL_NOT_EN@
CONST	SEGMENT
??_C@_0CO@HIKHGDBM@DS_SUB_HEADER_REFINE_FAIL_NOT_EN@ DB 'DS_SUB_HEADER_RE'
	DB	'FINE_FAIL_NOT_ENOUGH_MATERIAL', 00H		; `string'
CONST	ENDS
;	COMDAT ??_C@_0CF@NHMIOPGD@DS_SUB_HEADER_REFINE_FAIL_MAX_RE@
CONST	SEGMENT
??_C@_0CF@NHMIOPGD@DS_SUB_HEADER_REFINE_FAIL_MAX_RE@ DB 'DS_SUB_HEADER_RE'
	DB	'FINE_FAIL_MAX_REFINE', 00H			; `string'
CONST	ENDS
;	COMDAT ??_C@_0CL@CHMHFOOJ@DS_SUB_HEADER_REFINE_FAIL_INVALI@
CONST	SEGMENT
??_C@_0CL@CHMHFOOJ@DS_SUB_HEADER_REFINE_FAIL_INVALI@ DB 'DS_SUB_HEADER_RE'
	DB	'FINE_FAIL_INVALID_MATERIAL', 00H		; `string'
CONST	ENDS
;	COMDAT ??_C@_08GGEEIJNJ@EMPIRE_C?$AA@
CONST	SEGMENT
??_C@_08GGEEIJNJ@EMPIRE_C?$AA@ DB 'EMPIRE_C', 00H	; `string'
CONST	ENDS
;	COMDAT ??_C@_0BK@IMPJEABP@DS_SUB_HEADER_REFINE_FAIL?$AA@
CONST	SEGMENT
??_C@_0BK@IMPJEABP@DS_SUB_HEADER_REFINE_FAIL?$AA@ DB 'DS_SUB_HEADER_REFIN'
	DB	'E_FAIL', 00H				; `string'
CONST	ENDS
;	COMDAT ??_C@_08FEHCOLFL@EMPIRE_A?$AA@
CONST	SEGMENT
??_C@_08FEHCOLFL@EMPIRE_A?$AA@ DB 'EMPIRE_A', 00H	; `string'
CONST	ENDS
;	COMDAT ??_C@_08HPFPLIJI@EMPIRE_B?$AA@
CONST	SEGMENT
??_C@_08HPFPLIJI@EMPIRE_B?$AA@ DB 'EMPIRE_B', 00H	; `string'
CONST	ENDS
;	COMDAT ??_C@_0CK@IDBHOJE@SERVER_COMMAND_RETURN_TO_SELECT_@
CONST	SEGMENT
??_C@_0CK@IDBHOJE@SERVER_COMMAND_RETURN_TO_SELECT_@ DB 'SERVER_COMMAND_RE'
	DB	'TURN_TO_SELECT_CHARACTER', 00H		; `string'
CONST	ENDS
;	COMDAT ??_C@_0BE@FCDHFIHM@SERVER_COMMAND_QUIT?$AA@
CONST	SEGMENT
??_C@_0BE@FCDHFIHM@SERVER_COMMAND_QUIT?$AA@ DB 'SERVER_COMMAND_QUIT', 00H ; `string'
CONST	ENDS
;	COMDAT ??_C@_0BM@BPKEDCMB@ACCOUNT_CHARACTER_SLOT_HAIR?$AA@
CONST	SEGMENT
??_C@_0BM@BPKEDCMB@ACCOUNT_CHARACTER_SLOT_HAIR?$AA@ DB 'ACCOUNT_CHARACTER'
	DB	'_SLOT_HAIR', 00H				; `string'
CONST	ENDS
;	COMDAT ??_C@_0BH@IJCJGIEO@SERVER_COMMAND_LOG_OUT?$AA@
CONST	SEGMENT
??_C@_0BH@IJCJGIEO@SERVER_COMMAND_LOG_OUT?$AA@ DB 'SERVER_COMMAND_LOG_OUT'
	DB	00H						; `string'
CONST	ENDS
;	COMDAT ??_C@_0CC@HMBBCNEO@ACCOUNT_CHARACTER_SLOT_GUILD_NAM@
CONST	SEGMENT
??_C@_0CC@HMBBCNEO@ACCOUNT_CHARACTER_SLOT_GUILD_NAM@ DB 'ACCOUNT_CHARACTE'
	DB	'R_SLOT_GUILD_NAME', 00H			; `string'
CONST	ENDS
;	COMDAT ??_C@_0CI@NIHCCHJE@ACCOUNT_CHARACTER_SLOT_CHANGE_NA@
CONST	SEGMENT
??_C@_0CI@NIHCCHJE@ACCOUNT_CHARACTER_SLOT_CHANGE_NA@ DB 'ACCOUNT_CHARACTE'
	DB	'R_SLOT_CHANGE_NAME_FLAG', 00H		; `string'
CONST	ENDS
;	COMDAT ??_C@_0BM@OJMCHCKG@ACCOUNT_CHARACTER_SLOT_PORT?$AA@
CONST	SEGMENT
??_C@_0BM@OJMCHCKG@ACCOUNT_CHARACTER_SLOT_PORT?$AA@ DB 'ACCOUNT_CHARACTER'
	DB	'_SLOT_PORT', 00H				; `string'
CONST	ENDS
;	COMDAT ??_C@_0CA@GFKKICFN@ACCOUNT_CHARACTER_SLOT_GUILD_ID?$AA@
CONST	SEGMENT
??_C@_0CA@GFKKICFN@ACCOUNT_CHARACTER_SLOT_GUILD_ID?$AA@ DB 'ACCOUNT_CHARA'
	DB	'CTER_SLOT_GUILD_ID', 00H			; `string'
CONST	ENDS
;	COMDAT ??_C@_0BM@JNGCLJJM@ACCOUNT_CHARACTER_SLOT_FORM?$AA@
CONST	SEGMENT
??_C@_0BM@JNGCLJJM@ACCOUNT_CHARACTER_SLOT_FORM?$AA@ DB 'ACCOUNT_CHARACTER'
	DB	'_SLOT_FORM', 00H				; `string'
CONST	ENDS
;	COMDAT ??_C@_0BM@CNLCDDNB@ACCOUNT_CHARACTER_SLOT_ADDR?$AA@
CONST	SEGMENT
??_C@_0BM@CNLCDDNB@ACCOUNT_CHARACTER_SLOT_ADDR?$AA@ DB 'ACCOUNT_CHARACTER'
	DB	'_SLOT_ADDR', 00H				; `string'
CONST	ENDS
;	COMDAT ??_C@_0BL@PICCMPNB@ACCOUNT_CHARACTER_SLOT_HTH?$AA@
CONST	SEGMENT
??_C@_0BL@PICCMPNB@ACCOUNT_CHARACTER_SLOT_HTH?$AA@ DB 'ACCOUNT_CHARACTER_'
	DB	'SLOT_HTH', 00H				; `string'
CONST	ENDS
;	COMDAT ??_C@_0CA@KFILFMPG@ACCOUNT_CHARACTER_SLOT_PLAYTIME?$AA@
CONST	SEGMENT
??_C@_0CA@KFILFMPG@ACCOUNT_CHARACTER_SLOT_PLAYTIME?$AA@ DB 'ACCOUNT_CHARA'
	DB	'CTER_SLOT_PLAYTIME', 00H			; `string'
CONST	ENDS
;	COMDAT ??_C@_0BL@OFNCKLHP@ACCOUNT_CHARACTER_SLOT_DEX?$AA@
CONST	SEGMENT
??_C@_0BL@OFNCKLHP@ACCOUNT_CHARACTER_SLOT_DEX?$AA@ DB 'ACCOUNT_CHARACTER_'
	DB	'SLOT_DEX', 00H				; `string'
CONST	ENDS
;	COMDAT ??_C@_0BL@LHFINDEP@ACCOUNT_CHARACTER_SLOT_INT?$AA@
CONST	SEGMENT
??_C@_0BL@LHFINDEP@ACCOUNT_CHARACTER_SLOT_INT?$AA@ DB 'ACCOUNT_CHARACTER_'
	DB	'SLOT_INT', 00H				; `string'
CONST	ENDS
;	COMDAT ??_C@_0BN@MPLCEAPH@ACCOUNT_CHARACTER_SLOT_LEVEL?$AA@
CONST	SEGMENT
??_C@_0BN@MPLCEAPH@ACCOUNT_CHARACTER_SLOT_LEVEL?$AA@ DB 'ACCOUNT_CHARACTE'
	DB	'R_SLOT_LEVEL', 00H				; `string'
CONST	ENDS
;	COMDAT ??_C@_0BL@MPBHOFJE@ACCOUNT_CHARACTER_SLOT_STR?$AA@
CONST	SEGMENT
??_C@_0BL@MPBHOFJE@ACCOUNT_CHARACTER_SLOT_STR?$AA@ DB 'ACCOUNT_CHARACTER_'
	DB	'SLOT_STR', 00H				; `string'
CONST	ENDS
;	COMDAT ??_C@_0BM@JCGOOLCL@ACCOUNT_CHARACTER_SLOT_NAME?$AA@
CONST	SEGMENT
??_C@_0BM@JCGOOLCL@ACCOUNT_CHARACTER_SLOT_NAME?$AA@ DB 'ACCOUNT_CHARACTER'
	DB	'_SLOT_NAME', 00H				; `string'
CONST	ENDS
;	COMDAT ??_C@_0BM@DNOALMKC@ACCOUNT_CHARACTER_SLOT_RACE?$AA@
CONST	SEGMENT
??_C@_0BM@DNOALMKC@ACCOUNT_CHARACTER_SLOT_RACE?$AA@ DB 'ACCOUNT_CHARACTER'
	DB	'_SLOT_RACE', 00H				; `string'
CONST	ENDS
;	COMDAT ??_C@_0BC@BCDCNNFP@PHASE_WINDOW_LOGO?$AA@
CONST	SEGMENT
??_C@_0BC@BCDCNNFP@PHASE_WINDOW_LOGO?$AA@ DB 'PHASE_WINDOW_LOGO', 00H ; `string'
CONST	ENDS
;	COMDAT ??_C@_0BK@HDGGAJBJ@ACCOUNT_CHARACTER_SLOT_ID?$AA@
CONST	SEGMENT
??_C@_0BK@HDGGAJBJ@ACCOUNT_CHARACTER_SLOT_ID?$AA@ DB 'ACCOUNT_CHARACTER_S'
	DB	'LOT_ID', 00H				; `string'
CONST	ENDS
;	COMDAT ??_C@_0BC@HCEFPGCB@PHASE_WINDOW_GAME?$AA@
CONST	SEGMENT
??_C@_0BC@HCEFPGCB@PHASE_WINDOW_GAME?$AA@ DB 'PHASE_WINDOW_GAME', 00H ; `string'
CONST	ENDS
;	COMDAT ??_C@_0BE@IIMEMMI@PHASE_WINDOW_EMPIRE?$AA@
CONST	SEGMENT
??_C@_0BE@IIMEMMI@PHASE_WINDOW_EMPIRE?$AA@ DB 'PHASE_WINDOW_EMPIRE', 00H ; `string'
CONST	ENDS
;	COMDAT ??_C@_0BE@PAOFIFBD@PHASE_WINDOW_CREATE?$AA@
CONST	SEGMENT
??_C@_0BE@PAOFIFBD@PHASE_WINDOW_CREATE?$AA@ DB 'PHASE_WINDOW_CREATE', 00H ; `string'
CONST	ENDS
;	COMDAT ??_C@_0BC@PFELHICG@PHASE_WINDOW_LOAD?$AA@
CONST	SEGMENT
??_C@_0BC@PFELHICG@PHASE_WINDOW_LOAD?$AA@ DB 'PHASE_WINDOW_LOAD', 00H ; `string'
CONST	ENDS
;	COMDAT ??_C@_0BD@JBLBGAIB@PHASE_WINDOW_LOGIN?$AA@
CONST	SEGMENT
??_C@_0BD@JBLBGAIB@PHASE_WINDOW_LOGIN?$AA@ DB 'PHASE_WINDOW_LOGIN', 00H ; `string'
CONST	ENDS
;	COMDAT ??_C@_0BE@EBCKEIDN@PHASE_WINDOW_SELECT?$AA@
CONST	SEGMENT
??_C@_0BE@EBCKEIDN@PHASE_WINDOW_SELECT?$AA@ DB 'PHASE_WINDOW_SELECT', 00H ; `string'
CONST	ENDS
;	COMDAT ??_C@_0CB@BOPIDGGI@ERROR_MARK_UPLOAD_NEED_RECONNECT@
CONST	SEGMENT
??_C@_0CB@BOPIDGGI@ERROR_MARK_UPLOAD_NEED_RECONNECT@ DB 'ERROR_MARK_UPLOA'
	DB	'D_NEED_RECONNECT', 00H			; `string'
CONST	ENDS
;	COMDAT ??_C@_0CA@JMHMMKLO@ERROR_MARK_CHECK_NEED_RECONNECT?$AA@
CONST	SEGMENT
??_C@_0CA@JMHMMKLO@ERROR_MARK_CHECK_NEED_RECONNECT?$AA@ DB 'ERROR_MARK_CH'
	DB	'ECK_NEED_RECONNECT', 00H			; `string'
CONST	ENDS
;	COMDAT ??_C@_0BB@FEGLKDMB@ERROR_MARK_WIDTH?$AA@
CONST	SEGMENT
??_C@_0BB@FEGLKDMB@ERROR_MARK_WIDTH?$AA@ DB 'ERROR_MARK_WIDTH', 00H ; `string'
CONST	ENDS
;	COMDAT ??_C@_0BC@GOIIBBEJ@ERROR_MARK_HEIGHT?$AA@
CONST	SEGMENT
??_C@_0BC@GOIIBBEJ@ERROR_MARK_HEIGHT?$AA@ DB 'ERROR_MARK_HEIGHT', 00H ; `string'
CONST	ENDS
;	COMDAT ??_C@_0BK@BILAANNF@ERROR_CONNECT_MARK_SERVER?$AA@
CONST	SEGMENT
??_C@_0BK@BILAANNF@ERROR_CONNECT_MARK_SERVER?$AA@ DB 'ERROR_CONNECT_MARK_'
	DB	'SERVER', 00H				; `string'
CONST	ENDS
;	COMDAT ??_C@_0BA@NEJKKBEJ@ERROR_LOAD_MARK?$AA@
CONST	SEGMENT
??_C@_0BA@NEJKKBEJ@ERROR_LOAD_MARK?$AA@ DB 'ERROR_LOAD_MARK', 00H ; `string'
CONST	ENDS
;	COMDAT ??_C@_03NBFOK@net?$AA@
CONST	SEGMENT
??_C@_03NBFOK@net?$AA@ DB 'net', 00H			; `string'
CONST	ENDS
;	COMDAT ??_C@_0L@LILDODAP@ERROR_NONE?$AA@
CONST	SEGMENT
??_C@_0L@LILDODAP@ERROR_NONE?$AA@ DB 'ERROR_NONE', 00H	; `string'
CONST	ENDS
;	COMDAT ??_C@_0BA@ILHNHDAK@RecvGuildSymbol?$AA@
CONST	SEGMENT
??_C@_0BA@ILHNHDAK@RecvGuildSymbol?$AA@ DB 'RecvGuildSymbol', 00H ; `string'
CONST	ENDS
;	COMDAT ??_C@_0BB@CABIEEGM@RegisterErrorLog?$AA@
CONST	SEGMENT
??_C@_0BB@CABIEEGM@RegisterErrorLog?$AA@ DB 'RegisterErrorLog', 00H ; `string'
CONST	ENDS
;	COMDAT ??_C@_0BA@EGLEIBFB@SendGuildSymbol?$AA@
CONST	SEGMENT
??_C@_0BA@EGLEIBFB@SendGuildSymbol?$AA@ DB 'SendGuildSymbol', 00H ; `string'
CONST	ENDS
;	COMDAT ??_C@_0BD@PIFKMNDO@DisconnectUploader?$AA@
CONST	SEGMENT
??_C@_0BD@PIFKMNDO@DisconnectUploader?$AA@ DB 'DisconnectUploader', 00H ; `string'
CONST	ENDS
;	COMDAT ??_C@_0BG@KCIMJDEA@SetEmpireLanguageMode?$AA@
CONST	SEGMENT
??_C@_0BG@KCIMJDEA@SetEmpireLanguageMode?$AA@ DB 'SetEmpireLanguageMode', 00H ; `string'
CONST	ENDS
;	COMDAT ??_C@_0BC@NOAKHLIH@SetSkillGroupFake?$AA@
CONST	SEGMENT
??_C@_0BC@NOAKHLIH@SetSkillGroupFake?$AA@ DB 'SetSkillGroupFake', 00H ; `string'
CONST	ENDS
;	COMDAT ??_C@_0BF@HEJDCMFH@SendSelectItemPacket?$AA@
CONST	SEGMENT
??_C@_0BF@HEJDCMFH@SendSelectItemPacket?$AA@ DB 'SendSelectItemPacket', 00H ; `string'
CONST	ENDS
;	COMDAT ??_C@_0BG@HLIDKLKJ@SetPacketSequenceMode?$AA@
CONST	SEGMENT
??_C@_0BG@HLIDKLKJ@SetPacketSequenceMode?$AA@ DB 'SetPacketSequenceMode', 00H ; `string'
CONST	ENDS
;	COMDAT ??_C@_0BM@NLIMKJKK@SendRequestRefineInfoPacket?$AA@
CONST	SEGMENT
??_C@_0BM@NLIMKJKK@SendRequestRefineInfoPacket?$AA@ DB 'SendRequestRefine'
	DB	'InfoPacket', 00H				; `string'
CONST	ENDS
;	COMDAT ??_C@_0BB@MBCAEHJO@SendRefinePacket?$AA@
CONST	SEGMENT
??_C@_0BB@MBCAEHJO@SendRefinePacket?$AA@ DB 'SendRefinePacket', 00H ; `string'
CONST	ENDS
;	COMDAT ??_C@_0BM@HDHMFNNO@SendGuildDepositMoneyPacket?$AA@
CONST	SEGMENT
??_C@_0BM@HDHMFNNO@SendGuildDepositMoneyPacket?$AA@ DB 'SendGuildDepositM'
	DB	'oneyPacket', 00H				; `string'
CONST	ENDS
;	COMDAT ??_C@_0BN@BPJGBHPL@SendGuildWithdrawMoneyPacket?$AA@
CONST	SEGMENT
??_C@_0BN@BPJGBHPL@SendGuildWithdrawMoneyPacket?$AA@ DB 'SendGuildWithdra'
	DB	'wMoneyPacket', 00H				; `string'
CONST	ENDS
;	COMDAT ??_C@_0BM@KLBFEJBI@SendGuildInviteAnswerPacket?$AA@
CONST	SEGMENT
??_C@_0BM@KLBFEJBI@SendGuildInviteAnswerPacket?$AA@ DB 'SendGuildInviteAn'
	DB	'swerPacket', 00H				; `string'
CONST	ENDS
;	COMDAT ??_C@_0BJ@LKJGDIEE@SendGuildChargeGSPPacket?$AA@
CONST	SEGMENT
??_C@_0BJ@LKJGDIEE@SendGuildChargeGSPPacket?$AA@ DB 'SendGuildChargeGSPPa'
	DB	'cket', 00H					; `string'
CONST	ENDS
;	COMDAT ??_C@_0BI@HICDMLJH@SendGuildUseSkillPacket?$AA@
CONST	SEGMENT
??_C@_0BI@HICDMLJH@SendGuildUseSkillPacket?$AA@ DB 'SendGuildUseSkillPack'
	DB	'et', 00H					; `string'
CONST	ENDS
;	COMDAT ??_C@_0CD@BMLIKMKL@SendGuildChangeMemberGeneralPack@
CONST	SEGMENT
??_C@_0CD@BMLIKMKL@SendGuildChangeMemberGeneralPack@ DB 'SendGuildChangeM'
	DB	'emberGeneralPacket', 00H			; `string'
CONST	ENDS
;	COMDAT ??_C@_0BP@BKEOCNGM@SendGuildRefreshCommentsPacket?$AA@
CONST	SEGMENT
??_C@_0BP@BKEOCNGM@SendGuildRefreshCommentsPacket?$AA@ DB 'SendGuildRefre'
	DB	'shCommentsPacket', 00H			; `string'
CONST	ENDS
;	COMDAT ??_C@_0CB@KOIDGNFC@SendGuildChangeMemberGradePacket@
CONST	SEGMENT
??_C@_0CB@KOIDGNFC@SendGuildChangeMemberGradePacket@ DB 'SendGuildChangeM'
	DB	'emberGradePacket', 00H			; `string'
CONST	ENDS
;	COMDAT ??_C@_0BL@JLEHIONL@SendGuildPostCommentPacket?$AA@
CONST	SEGMENT
??_C@_0BL@JLEHIONL@SendGuildPostCommentPacket?$AA@ DB 'SendGuildPostComme'
	DB	'ntPacket', 00H				; `string'
CONST	ENDS
;	COMDAT ??_C@_0BN@MBNLMFLO@SendGuildDeleteCommentPacket?$AA@
CONST	SEGMENT
??_C@_0BN@MBNLMFLO@SendGuildDeleteCommentPacket?$AA@ DB 'SendGuildDeleteC'
	DB	'ommentPacket', 00H				; `string'
CONST	ENDS
;	COMDAT ??_C@_0CE@EFLFPPCO@SendGuildChangeGradeAuthorityPac@
CONST	SEGMENT
??_C@_0CE@EFLFPPCO@SendGuildChangeGradeAuthorityPac@ DB 'SendGuildChangeG'
	DB	'radeAuthorityPacket', 00H			; `string'
CONST	ENDS
;	COMDAT ??_C@_0BF@OAFAHAKB@SendGuildOfferPacket?$AA@
CONST	SEGMENT
??_C@_0BF@OAFAHAKB@SendGuildOfferPacket?$AA@ DB 'SendGuildOfferPacket', 00H ; `string'
CONST	ENDS
;	COMDAT ??_C@_0BM@GAJEHHNG@SendGuildRemoveMemberPacket?$AA@
CONST	SEGMENT
??_C@_0BM@GAJEHHNG@SendGuildRemoveMemberPacket?$AA@ DB 'SendGuildRemoveMe'
	DB	'mberPacket', 00H				; `string'
CONST	ENDS
;	COMDAT ??_C@_0BP@ODLEJFMG@SendGuildChangeGradeNamePacket?$AA@
CONST	SEGMENT
??_C@_0BP@ODLEJFMG@SendGuildChangeGradeNamePacket?$AA@ DB 'SendGuildChang'
	DB	'eGradeNamePacket', 00H			; `string'
CONST	ENDS
;	COMDAT ??_C@_0BH@HMDNFHNB@SendQuestConfirmPacket?$AA@
CONST	SEGMENT
??_C@_0BH@HMDNFHNB@SendQuestConfirmPacket?$AA@ DB 'SendQuestConfirmPacket'
	DB	00H						; `string'
CONST	ENDS
;	COMDAT ??_C@_0BJ@MFJNIJIJ@SendGuildAddMemberPacket?$AA@
CONST	SEGMENT
??_C@_0BJ@MFJNIJIJ@SendGuildAddMemberPacket?$AA@ DB 'SendGuildAddMemberPa'
	DB	'cket', 00H					; `string'
CONST	ENDS
;	COMDAT ??_C@_0BK@HLNHPAPM@SendAnswerMakeGuildPacket?$AA@
CONST	SEGMENT
??_C@_0BK@HLNHPAPM@SendAnswerMakeGuildPacket?$AA@ DB 'SendAnswerMakeGuild'
	DB	'Packet', 00H				; `string'
CONST	ENDS
;	COMDAT ??_C@_0BL@BJLFPMAE@SendQuestInputStringPacket?$AA@
CONST	SEGMENT
??_C@_0BL@BJLFPMAE@SendQuestInputStringPacket?$AA@ DB 'SendQuestInputStri'
	DB	'ngPacket', 00H				; `string'
CONST	ENDS
;	COMDAT ??_C@_0BK@JMMAEJFJ@SendSafeboxItemMovePacket?$AA@
CONST	SEGMENT
??_C@_0BK@JMMAEJFJ@SendSafeboxItemMovePacket?$AA@ DB 'SendSafeboxItemMove'
	DB	'Packet', 00H				; `string'
CONST	ENDS
;	COMDAT ??_C@_0BH@BDNDNKGE@SendMallCheckoutPacket?$AA@
CONST	SEGMENT
??_C@_0BH@BDNDNKGE@SendMallCheckoutPacket?$AA@ DB 'SendMallCheckoutPacket'
	DB	00H						; `string'
CONST	ENDS
;	COMDAT ??_C@_0BJ@HNJCKALG@SendSafeboxCheckinPacket?$AA@
CONST	SEGMENT
??_C@_0BJ@HNJCKALG@SendSafeboxCheckinPacket?$AA@ DB 'SendSafeboxCheckinPa'
	DB	'cket', 00H					; `string'
CONST	ENDS
;	COMDAT ??_C@_0BK@LJAMACPE@SendSafeboxCheckoutPacket?$AA@
CONST	SEGMENT
??_C@_0BK@LJAMACPE@SendSafeboxCheckoutPacket?$AA@ DB 'SendSafeboxCheckout'
	DB	'Packet', 00H				; `string'
CONST	ENDS
;	COMDAT ??_C@_0BL@CAAOLIHO@SendSafeboxSaveMoneyPacket?$AA@
CONST	SEGMENT
??_C@_0BL@CAAOLIHO@SendSafeboxSaveMoneyPacket?$AA@ DB 'SendSafeboxSaveMon'
	DB	'eyPacket', 00H				; `string'
CONST	ENDS
;	COMDAT ??_C@_0BP@MLAJADAA@SendSafeboxWithdrawMoneyPacket?$AA@
CONST	SEGMENT
??_C@_0BP@MLAJADAA@SendSafeboxWithdrawMoneyPacket?$AA@ DB 'SendSafeboxWit'
	DB	'hdrawMoneyPacket', 00H			; `string'
CONST	ENDS
;	COMDAT ??_C@_0BI@EONDHFJL@SendPartyUseSkillPacket?$AA@
CONST	SEGMENT
??_C@_0BI@EONDHFJL@SendPartyUseSkillPacket?$AA@ DB 'SendPartyUseSkillPack'
	DB	'et', 00H					; `string'
CONST	ENDS
;	COMDAT ??_C@_0BJ@JGBOMHFI@SendPartyParameterPacket?$AA@
CONST	SEGMENT
??_C@_0BJ@JGBOMHFI@SendPartyParameterPacket?$AA@ DB 'SendPartyParameterPa'
	DB	'cket', 00H					; `string'
CONST	ENDS
;	COMDAT ??_C@_0BG@JAJGIHK@SendPartyRemovePacket?$AA@
CONST	SEGMENT
??_C@_0BG@JAJGIHK@SendPartyRemovePacket?$AA@ DB 'SendPartyRemovePacket', 00H ; `string'
CONST	ENDS
;	COMDAT ??_C@_0BI@LNEGCCFH@SendPartySetStatePacket?$AA@
CONST	SEGMENT
??_C@_0BI@LNEGCCFH@SendPartySetStatePacket?$AA@ DB 'SendPartySetStatePack'
	DB	'et', 00H					; `string'
CONST	ENDS
;	COMDAT ??_C@_0BM@PFAFFBJO@SendPartyInviteAnswerPacket?$AA@
CONST	SEGMENT
??_C@_0BM@PFAFFBJO@SendPartyInviteAnswerPacket?$AA@ DB 'SendPartyInviteAn'
	DB	'swerPacket', 00H				; `string'
CONST	ENDS
;	COMDAT ??_C@_0BE@JHFPDGFP@SendPartyExitPacket?$AA@
CONST	SEGMENT
??_C@_0BE@JHFPDGFP@SendPartyExitPacket?$AA@ DB 'SendPartyExitPacket', 00H ; `string'
CONST	ENDS
;	COMDAT ??_C@_0BK@GIIDGGBB@SendMessengerRemovePacket?$AA@
CONST	SEGMENT
??_C@_0BK@GIIDGGBB@SendMessengerRemovePacket?$AA@ DB 'SendMessengerRemove'
	DB	'Packet', 00H				; `string'
CONST	ENDS
;	COMDAT ??_C@_0BG@IFGKMOED@SendPartyInvitePacket?$AA@
CONST	SEGMENT
??_C@_0BG@IFGKMOED@SendPartyInvitePacket?$AA@ DB 'SendPartyInvitePacket', 00H ; `string'
CONST	ENDS
;	COMDAT ??_C@_0BM@CFLPIFFM@SendMessengerAddByVIDPacket?$AA@
CONST	SEGMENT
??_C@_0BM@CFLPIFFM@SendMessengerAddByVIDPacket?$AA@ DB 'SendMessengerAddB'
	DB	'yVIDPacket', 00H				; `string'
CONST	ENDS
;	COMDAT ??_C@_0BN@MPMOLLL@SendMessengerAddByNamePacket?$AA@
CONST	SEGMENT
??_C@_0BN@MPMOLLL@SendMessengerAddByNamePacket?$AA@ DB 'SendMessengerAddB'
	DB	'yNamePacket', 00H				; `string'
CONST	ENDS
;	COMDAT ??_C@_0BC@FMJHAGEI@SendOnClickPacket?$AA@
CONST	SEGMENT
??_C@_0BC@FMJHAGEI@SendOnClickPacket?$AA@ DB 'SendOnClickPacket', 00H ; `string'
CONST	ENDS
;	COMDAT ??_C@_0BH@MCKLKDJM@RegisterEmoticonString?$AA@
CONST	SEGMENT
??_C@_0BH@MCKLKDJM@RegisterEmoticonString?$AA@ DB 'RegisterEmoticonString'
	DB	00H						; `string'
CONST	ENDS
;	COMDAT ??_C@_0BJ@OFKJBLDC@SendExchangeAcceptPacket?$AA@
CONST	SEGMENT
??_C@_0BJ@OFKJBLDC@SendExchangeAcceptPacket?$AA@ DB 'SendExchangeAcceptPa'
	DB	'cket', 00H					; `string'
CONST	ENDS
;	COMDAT ??_C@_0BH@NCONKHHB@SendExchangeExitPacket?$AA@
CONST	SEGMENT
??_C@_0BH@NCONKHHB@SendExchangeExitPacket?$AA@ DB 'SendExchangeExitPacket'
	DB	00H						; `string'
CONST	ENDS
;	COMDAT ??_C@_0BK@KKOEHGGC@SendExchangeItemDelPacket?$AA@
CONST	SEGMENT
??_C@_0BK@KKOEHGGC@SendExchangeItemDelPacket?$AA@ DB 'SendExchangeItemDel'
	DB	'Packet', 00H				; `string'
CONST	ENDS
;	COMDAT ??_C@_0BJ@CGGGIOGM@SendExchangeElkAddPacket?$AA@
CONST	SEGMENT
??_C@_0BJ@CGGGIOGM@SendExchangeElkAddPacket?$AA@ DB 'SendExchangeElkAddPa'
	DB	'cket', 00H					; `string'
CONST	ENDS
;	COMDAT ??_C@_0BI@BGNKGFKO@SendExchangeStartPacket?$AA@
CONST	SEGMENT
??_C@_0BI@BGNKGFKO@SendExchangeStartPacket?$AA@ DB 'SendExchangeStartPack'
	DB	'et', 00H					; `string'
CONST	ENDS
;	COMDAT ??_C@_0BK@IIFDLCNA@SendExchangeItemAddPacket?$AA@
CONST	SEGMENT
??_C@_0BK@IIFDLCNA@SendExchangeItemAddPacket?$AA@ DB 'SendExchangeItemAdd'
	DB	'Packet', 00H				; `string'
CONST	ENDS
;	COMDAT ??_C@_0BD@BFMEHPEE@SendShopSellPacket?$AA@
CONST	SEGMENT
??_C@_0BD@BFMEHPEE@SendShopSellPacket?$AA@ DB 'SendShopSellPacket', 00H ; `string'
CONST	ENDS
;	COMDAT ??_C@_0BG@BGJEIPGN@SendShopSellPacketNew?$AA@
CONST	SEGMENT
??_C@_0BG@BGJEIPGN@SendShopSellPacketNew?$AA@ DB 'SendShopSellPacketNew', 00H ; `string'
CONST	ENDS
;	COMDAT ??_C@_0BC@HEOMKCAE@SendShopEndPacket?$AA@
CONST	SEGMENT
??_C@_0BC@HEOMKCAE@SendShopEndPacket?$AA@ DB 'SendShopEndPacket', 00H ; `string'
CONST	ENDS
;	COMDAT ??_C@_0BC@FPBLEBCL@SendShopBuyPacket?$AA@
CONST	SEGMENT
??_C@_0BC@FPBLEBCL@SendShopBuyPacket?$AA@ DB 'SendShopBuyPacket', 00H ; `string'
CONST	ENDS
;	COMDAT ??_C@_0BI@BFCIMAOL@SendMobileMessagePacket?$AA@
CONST	SEGMENT
??_C@_0BI@BFCIMAOL@SendMobileMessagePacket?$AA@ DB 'SendMobileMessagePack'
	DB	'et', 00H					; `string'
CONST	ENDS
;	COMDAT ??_C@_0BM@KAMAKIKL@SendCharacterPositionPacket?$AA@
CONST	SEGMENT
??_C@_0BM@KAMAKIKL@SendCharacterPositionPacket?$AA@ DB 'SendCharacterPosi'
	DB	'tionPacket', 00H				; `string'
CONST	ENDS
;	COMDAT ??_C@_0N@BJHGOHPC@SendEmoticon?$AA@
CONST	SEGMENT
??_C@_0N@BJHGOHPC@SendEmoticon?$AA@ DB 'SendEmoticon', 00H ; `string'
CONST	ENDS
;	COMDAT ??_C@_0BC@KNMEABPD@SendWhisperPacket?$AA@
CONST	SEGMENT
??_C@_0BC@KNMEABPD@SendWhisperPacket?$AA@ DB 'SendWhisperPacket', 00H ; `string'
CONST	ENDS
;	COMDAT ??_C@_09HENONEEN@IsConnect?$AA@
CONST	SEGMENT
??_C@_09HENONEEN@IsConnect?$AA@ DB 'IsConnect', 00H	; `string'
CONST	ENDS
;	COMDAT ??_C@_0P@FJOINOIH@SendChatPacket?$AA@
CONST	SEGMENT
??_C@_0P@FJOINOIH@SendChatPacket?$AA@ DB 'SendChatPacket', 00H ; `string'
CONST	ENDS
;	COMDAT ??_C@_0BA@NKMDDBDL@SetOfflinePhase?$AA@
CONST	SEGMENT
??_C@_0BA@NKMDDBDL@SetOfflinePhase?$AA@ DB 'SetOfflinePhase', 00H ; `string'
CONST	ENDS
;	COMDAT ??_C@_0L@CMGJAGDM@Disconnect?$AA@
CONST	SEGMENT
??_C@_0L@CMGJAGDM@Disconnect?$AA@ DB 'Disconnect', 00H	; `string'
CONST	ENDS
;	COMDAT ??_C@_0BF@PJHEIMI@SendItemPickUpPacket?$AA@
CONST	SEGMENT
??_C@_0BF@PJHEIMI@SendItemPickUpPacket?$AA@ DB 'SendItemPickUpPacket', 00H ; `string'
CONST	ENDS
;	COMDAT ??_C@_0BD@FMAJCJM@SendGiveItemPacket?$AA@
CONST	SEGMENT
??_C@_0BD@FMAJCJM@SendGiveItemPacket?$AA@ DB 'SendGiveItemPacket', 00H ; `string'
CONST	ENDS
;	COMDAT ??_C@_0BG@ONKCIEDE@SendGoldDropPacketNew?$AA@
CONST	SEGMENT
??_C@_0BG@ONKCIEDE@SendGoldDropPacketNew?$AA@ DB 'SendGoldDropPacketNew', 00H ; `string'
CONST	ENDS
;	COMDAT ??_C@_0BD@BPAFBGKI@SendItemMovePacket?$AA@
CONST	SEGMENT
??_C@_0BD@BPAFBGKI@SendItemMovePacket?$AA@ DB 'SendItemMovePacket', 00H ; `string'
CONST	ENDS
;	COMDAT ??_C@_0BG@PNFNACGL@SendItemDropPacketNew?$AA@
CONST	SEGMENT
??_C@_0BG@PNFNACGL@SendItemDropPacketNew?$AA@ DB 'SendItemDropPacketNew', 00H ; `string'
CONST	ENDS
;	COMDAT ??_C@_0BC@NEDFAOHK@SendElkDropPacket?$AA@
CONST	SEGMENT
??_C@_0BC@NEDFAOHK@SendElkDropPacket?$AA@ DB 'SendElkDropPacket', 00H ; `string'
CONST	ENDS
;	COMDAT ??_C@_0BI@OBDMDOIB@SendItemUseToItemPacket?$AA@
CONST	SEGMENT
??_C@_0BI@OBDMDOIB@SendItemUseToItemPacket?$AA@ DB 'SendItemUseToItemPack'
	DB	'et', 00H					; `string'
CONST	ENDS
;	COMDAT ??_C@_0BD@ICCAOJBA@SendItemDropPacket?$AA@
CONST	SEGMENT
??_C@_0BD@ICCAOJBA@SendItemDropPacket?$AA@ DB 'SendItemDropPacket', 00H ; `string'
CONST	ENDS
;	COMDAT ??_C@_0BE@NBECPFPH@SendEnterGamePacket?$AA@
CONST	SEGMENT
??_C@_0BE@NBECPFPH@SendEnterGamePacket?$AA@ DB 'SendEnterGamePacket', 00H ; `string'
CONST	ENDS
;	COMDAT ??_C@_0BC@NHAKBOCP@SendItemUsePacket?$AA@
CONST	SEGMENT
??_C@_0BC@NHAKBOCP@SendItemUsePacket?$AA@ DB 'SendItemUsePacket', 00H ; `string'
CONST	ENDS
;	COMDAT ??_C@_0BK@NPKEAJJ@SendCreateCharacterPacket?$AA@
CONST	SEGMENT
??_C@_0BK@NPKEAJJ@SendCreateCharacterPacket?$AA@ DB 'SendCreateCharacterP'
	DB	'acket', 00H					; `string'
CONST	ENDS
;	COMDAT ??_C@_0BL@PMHPNGGJ@SendDestroyCharacterPacket?$AA@
CONST	SEGMENT
??_C@_0BL@PMHPNGGJ@SendDestroyCharacterPacket?$AA@ DB 'SendDestroyCharact'
	DB	'erPacket', 00H				; `string'
CONST	ENDS
;	COMDAT ??_C@_0BK@MIKAHKDI@SendSelectCharacterPacket?$AA@
CONST	SEGMENT
??_C@_0BK@MIKAHKDI@SendSelectCharacterPacket?$AA@ DB 'SendSelectCharacter'
	DB	'Packet', 00H				; `string'
CONST	ENDS
;	COMDAT ??_C@_0BF@ODLJDBF@SendChangeNamePacket?$AA@
CONST	SEGMENT
??_C@_0BF@ODLJDBF@SendChangeNamePacket?$AA@ DB 'SendChangeNamePacket', 00H ; `string'
CONST	ENDS
;	COMDAT ??_C@_0BK@KNELICML@SendRunupMatrixCardPacket?$AA@
CONST	SEGMENT
??_C@_0BK@KNELICML@SendRunupMatrixCardPacket?$AA@ DB 'SendRunupMatrixCard'
	DB	'Packet', 00H				; `string'
CONST	ENDS
;	COMDAT ??_C@_0BH@IIELEKKA@SendSelectEmpirePacket?$AA@
CONST	SEGMENT
??_C@_0BH@IIELEKKA@SendSelectEmpirePacket?$AA@ DB 'SendSelectEmpirePacket'
	DB	00H						; `string'
CONST	ENDS
;	COMDAT ??_C@_0BA@CNDIKGCL@SendLoginPacket?$AA@
CONST	SEGMENT
??_C@_0BA@CNDIKGCL@SendLoginPacket?$AA@ DB 'SendLoginPacket', 00H ; `string'
CONST	ENDS
;	COMDAT ??_C@_0BK@GJKBNMLJ@SendChinaMatrixCardPacket?$AA@
CONST	SEGMENT
??_C@_0BK@GJKBNMLJ@SendChinaMatrixCardPacket?$AA@ DB 'SendChinaMatrixCard'
	DB	'Packet', 00H				; `string'
CONST	ENDS
;	COMDAT ??_C@_0L@MALJFJNO@ConnectUDP?$AA@
CONST	SEGMENT
??_C@_0L@MALJFJNO@ConnectUDP?$AA@ DB 'ConnectUDP', 00H	; `string'
CONST	ENDS
;	COMDAT ??_C@_0BH@CIOLKAIG@ConnectToAccountServer?$AA@
CONST	SEGMENT
??_C@_0BH@CIOLKAIG@ConnectToAccountServer?$AA@ DB 'ConnectToAccountServer'
	DB	00H						; `string'
CONST	ENDS
;	COMDAT ??_C@_0BA@ILFBLEPH@ExitApplication?$AA@
CONST	SEGMENT
??_C@_0BA@ILFBLEPH@ExitApplication?$AA@ DB 'ExitApplication', 00H ; `string'
CONST	ENDS
;	COMDAT ??_C@_0L@HNEKCIDO@ConnectTCP?$AA@
CONST	SEGMENT
??_C@_0L@HNEKCIDO@ConnectTCP?$AA@ DB 'ConnectTCP', 00H	; `string'
CONST	ENDS
;	COMDAT ??_C@_0L@LPFGMFBP@LogOutGame?$AA@
CONST	SEGMENT
??_C@_0L@LPFGMFBP@LogOutGame?$AA@ DB 'LogOutGame', 00H	; `string'
CONST	ENDS
;	COMDAT ??_C@_08ENBHLCHD@ExitGame?$AA@
CONST	SEGMENT
??_C@_08ENBHLCHD@ExitGame?$AA@ DB 'ExitGame', 00H	; `string'
CONST	ENDS
;	COMDAT ??_C@_0BF@GPIIIFGB@SetUDPRecvBufferSize?$AA@
CONST	SEGMENT
??_C@_0BF@GPIIIFGB@SetUDPRecvBufferSize?$AA@ DB 'SetUDPRecvBufferSize', 00H ; `string'
CONST	ENDS
;	COMDAT ??_C@_0M@PAACKIAL@DirectEnter?$AA@
CONST	SEGMENT
??_C@_0M@PAACKIAL@DirectEnter?$AA@ DB 'DirectEnter', 00H ; `string'
CONST	ENDS
;	COMDAT ??_C@_0BF@KAEIEPML@SetTCPRecvBufferSize?$AA@
CONST	SEGMENT
??_C@_0BF@KAEIEPML@SetTCPRecvBufferSize?$AA@ DB 'SetTCPRecvBufferSize', 00H ; `string'
CONST	ENDS
;	COMDAT ??_C@_0BF@LOLMIHDO@SetTCPSendBufferSize?$AA@
CONST	SEGMENT
??_C@_0BF@LOLMIHDO@SetTCPSendBufferSize?$AA@ DB 'SetTCPSendBufferSize', 00H ; `string'
CONST	ENDS
;	COMDAT ??_C@_0BL@NJAILJBB@SetAccountConnectorHandler?$AA@
CONST	SEGMENT
??_C@_0BL@NJAILJBB@SetAccountConnectorHandler?$AA@ DB 'SetAccountConnecto'
	DB	'rHandler', 00H				; `string'
CONST	ENDS
;	COMDAT ??_C@_0L@EELFNDHB@SetHandler?$AA@
CONST	SEGMENT
??_C@_0L@EELFNDHB@SetHandler?$AA@ DB 'SetHandler', 00H	; `string'
CONST	ENDS
;	COMDAT ??_C@_0BB@NNDKGCIK@ClearPhaseWindow?$AA@
CONST	SEGMENT
??_C@_0BB@NNDKGCIK@ClearPhaseWindow?$AA@ DB 'ClearPhaseWindow', 00H ; `string'
CONST	ENDS
;	COMDAT ??_C@_0BN@KOOLAHFA@SetServerCommandParserWindow?$AA@
CONST	SEGMENT
??_C@_0BN@KOOLAHFA@SetServerCommandParserWindow?$AA@ DB 'SetServerCommand'
	DB	'ParserWindow', 00H				; `string'
CONST	ENDS
;	COMDAT ??_C@_0N@GLEGMFLM@SetLoginInfo?$AA@
CONST	SEGMENT
??_C@_0N@GLEGMFLM@SetLoginInfo?$AA@ DB 'SetLoginInfo', 00H ; `string'
CONST	ENDS
;	COMDAT ??_C@_0P@EKNNFAK@SetPhaseWindow?$AA@
CONST	SEGMENT
??_C@_0P@EKNNFAK@SetPhaseWindow?$AA@ DB 'SetPhaseWindow', 00H ; `string'
CONST	ENDS
;	COMDAT ??_C@_0BE@MHKBLINM@GetFieldMusicVolume?$AA@
CONST	SEGMENT
??_C@_0BE@MHKBLINM@GetFieldMusicVolume?$AA@ DB 'GetFieldMusicVolume', 00H ; `string'
CONST	ENDS
;	COMDAT ??_C@_0BE@BCCLDKB@ToggleGameDebugInfo?$AA@
CONST	SEGMENT
??_C@_0BE@BCCLDKB@ToggleGameDebugInfo?$AA@ DB 'ToggleGameDebugInfo', 00H ; `string'
CONST	ENDS
;	COMDAT ??_C@_0CC@DLIFIOE@GetAccountCharacterSlotDataStrin@
CONST	SEGMENT
??_C@_0CC@DLIFIOE@GetAccountCharacterSlotDataStrin@ DB 'GetAccountCharact'
	DB	'erSlotDataString', 00H			; `string'
CONST	ENDS
;	COMDAT ??_C@_0BG@NAMIDKHD@GetFieldMusicFileName?$AA@
CONST	SEGMENT
??_C@_0BG@NAMIDKHD@GetFieldMusicFileName?$AA@ DB 'GetFieldMusicFileName', 00H ; `string'
CONST	ENDS
;	COMDAT ??_C@_0BH@GCCMJIJB@GetMainActorSkillGroup?$AA@
CONST	SEGMENT
??_C@_0BH@GCCMJIJB@GetMainActorSkillGroup?$AA@ DB 'GetMainActorSkillGroup'
	DB	00H						; `string'
CONST	ENDS
;	COMDAT ??_C@_0CD@PJJNPONG@GetAccountCharacterSlotDataInteg@
CONST	SEGMENT
??_C@_0CD@PJJNPONG@GetAccountCharacterSlotDataInteg@ DB 'GetAccountCharac'
	DB	'terSlotDataInteger', 00H			; `string'
CONST	ENDS
;	COMDAT ??_C@_0BB@ICEJKPHA@GetMainActorRace?$AA@
CONST	SEGMENT
??_C@_0BB@ICEJKPHA@GetMainActorRace?$AA@ DB 'GetMainActorRace', 00H ; `string'
CONST	ENDS
;	COMDAT ??_C@_0BD@JOIEFGML@GetMainActorEmpire?$AA@
CONST	SEGMENT
??_C@_0BD@JOIEFGML@GetMainActorEmpire?$AA@ DB 'GetMainActorEmpire', 00H ; `string'
CONST	ENDS
;	COMDAT ??_C@_0M@GGDMINDM@GetEmpireID?$AA@
CONST	SEGMENT
??_C@_0M@GGDMINDM@GetEmpireID?$AA@ DB 'GetEmpireID', 00H ; `string'
CONST	ENDS
;	COMDAT ??_C@_0BA@BPHKBGOL@GetMainActorVID?$AA@
CONST	SEGMENT
??_C@_0BA@BPHKBGOL@GetMainActorVID?$AA@ DB 'GetMainActorVID', 00H ; `string'
CONST	ENDS
;	COMDAT ??_C@_0L@JEGFHCJL@UploadMark?$AA@
CONST	SEGMENT
??_C@_0L@JEGFHCJL@UploadMark?$AA@ DB 'UploadMark', 00H	; `string'
CONST	ENDS
;	COMDAT ??_C@_0N@OBKBFHKO@UploadSymbol?$AA@
CONST	SEGMENT
??_C@_0N@OBKBFHKO@UploadSymbol?$AA@ DB 'UploadSymbol', 00H ; `string'
CONST	ENDS
;	COMDAT ??_C@_0L@CJJGFLBC@IsInsultIn?$AA@
CONST	SEGMENT
??_C@_0L@CJJGFLBC@IsInsultIn?$AA@ DB 'IsInsultIn', 00H	; `string'
CONST	ENDS
;	COMDAT ??_C@_0P@NAIDDMMD@LoadInsultList?$AA@
CONST	SEGMENT
??_C@_0P@NAIDDMMD@LoadInsultList?$AA@ DB 'LoadInsultList', 00H ; `string'
CONST	ENDS
;	COMDAT ??_C@_0O@OFMEOEDD@SetMarkServer?$AA@
CONST	SEGMENT
??_C@_0O@OFMEOEDD@SetMarkServer?$AA@ DB 'SetMarkServer', 00H ; `string'
CONST	ENDS
;	COMDAT ??_C@_0P@EPNPIBON@IsChatInsultIn?$AA@
CONST	SEGMENT
??_C@_0P@EPNPIBON@IsChatInsultIn?$AA@ DB 'IsChatInsultIn', 00H ; `string'
CONST	ENDS
;	COMDAT ??_C@_04EIDOEOJH@Warp?$AA@
CONST	SEGMENT
??_C@_04EIDOEOJH@Warp?$AA@ DB 'Warp', 00H		; `string'
CONST	ENDS
;	COMDAT ??_C@_06OCDJGLIF@IsTest?$AA@
CONST	SEGMENT
??_C@_06OCDJGLIF@IsTest?$AA@ DB 'IsTest', 00H		; `string'
CONST	ENDS
;	COMDAT ??_C@_0BK@PJDKKIPH@GetPreservedServerCommand?$AA@
CONST	SEGMENT
??_C@_0BK@PJDKKIPH@GetPreservedServerCommand?$AA@ DB 'GetPreservedServerC'
	DB	'ommand', 00H				; `string'
CONST	ENDS
;	COMDAT ??_C@_09CFNAMFEF@StartGame?$AA@
CONST	SEGMENT
??_C@_09CFNAMFEF@StartGame?$AA@ DB 'StartGame', 00H	; `string'
CONST	ENDS
;	COMDAT ??_C@_0O@ODBJLKOA@GetServerInfo?$AA@
CONST	SEGMENT
??_C@_0O@ODBJLKOA@GetServerInfo?$AA@ DB 'GetServerInfo', 00H ; `string'
CONST	ENDS
;	COMDAT ??_C@_0BG@NJCKCHAI@PreserveServerCommand?$AA@
CONST	SEGMENT
??_C@_0BG@NJCKCHAI@PreserveServerCommand?$AA@ DB 'PreserveServerCommand', 00H ; `string'
CONST	ENDS
;	COMDAT ??_C@_0BH@LKCAJGCH@EnableChatInsultFilter?$AA@
CONST	SEGMENT
??_C@_0BH@LKCAJGCH@EnableChatInsultFilter?$AA@ DB 'EnableChatInsultFilter'
	DB	00H						; `string'
CONST	ENDS
;	COMDAT ??_C@_0O@JMAHAJJH@SetServerInfo?$AA@
CONST	SEGMENT
??_C@_0O@JMAHAJJH@SetServerInfo?$AA@ DB 'SetServerInfo', 00H ; `string'
CONST	ENDS
;	COMDAT ??_C@_0EE@CPCFCFHF@netSendGuildRemoveMemberPacket?$CIs@
CONST	SEGMENT
??_C@_0EE@CPCFCFHF@netSendGuildRemoveMemberPacket?$CIs@ DB 'netSendGuildR'
	DB	'emoveMemberPacket(szKey=%s) - Can''t Find Guild Member', 0aH, 00H ; `string'
CONST	ENDS
;	COMDAT ??_C@_0BI@HFMJEOAC@GetBettingGuildWarValue?$AA@
CONST	SEGMENT
??_C@_0BI@HFMJEOAC@GetBettingGuildWarValue?$AA@ DB 'GetBettingGuildWarVal'
	DB	'ue', 00H					; `string'
PUBLIC	??0SItemPos@@QAE@XZ				; SItemPos::SItemPos
PUBLIC	??0SItemPos@@QAE@EG@Z				; SItemPos::SItemPos
PUBLIC	??$construct@V?$basic_string@DU?$char_traits@D@std@@V?$allocator@D@2@@std@@V12@@?$allocator@U?$_List_node@V?$basic_string@DU?$char_traits@D@std@@V?$allocator@D@2@@std@@PAX@std@@@std@@QAEXPAV?$basic_string@DU?$char_traits@D@std@@V?$allocator@D@2@@1@$$QAV21@@Z ; std::allocator<std::_List_node<std::basic_string<char,std::char_traits<char>,std::allocator<char> >,void *> >::construct<std::basic_string<char,std::char_traits<char>,std::allocator<char> >,std::basic_string<char,std::char_traits<char>,std::allocator<char> > >
PUBLIC	??$construct@V?$basic_string@DU?$char_traits@D@std@@V?$allocator@D@2@@std@@V12@@?$allocator_traits@V?$allocator@U?$_List_node@V?$basic_string@DU?$char_traits@D@std@@V?$allocator@D@2@@std@@PAX@std@@@std@@@std@@SAXAAV?$allocator@U?$_List_node@V?$basic_string@DU?$char_traits@D@std@@V?$allocator@D@2@@std@@PAX@std@@@1@PAV?$basic_string@DU?$char_traits@D@std@@V?$allocator@D@2@@1@$$QAV31@@Z ; std::allocator_traits<std::allocator<std::_List_node<std::basic_string<char,std::char_traits<char>,std::allocator<char> >,void *> > >::construct<std::basic_string<char,std::char_traits<char>,std::allocator<char> >,std::basic_string<char,std::char_traits<char>,std::allocator<char> > >
PUBLIC	??$construct@V?$basic_string@DU?$char_traits@D@std@@V?$allocator@D@2@@std@@V12@@?$_Wrap_alloc@V?$allocator@U?$_List_node@V?$basic_string@DU?$char_traits@D@std@@V?$allocator@D@2@@std@@PAX@std@@@std@@@std@@QAEXPAV?$basic_string@DU?$char_traits@D@std@@V?$allocator@D@2@@1@$$QAV21@@Z ; std::_Wrap_alloc<std::allocator<std::_List_node<std::basic_string<char,std::char_traits<char>,std::allocator<char> >,void *> > >::construct<std::basic_string<char,std::char_traits<char>,std::allocator<char> >,std::basic_string<char,std::char_traits<char>,std::allocator<char> > >
PUBLIC	??$construct@KAAK@?$allocator@K@std@@QAEXPAKAAK@Z ; std::allocator<unsigned long>::construct<unsigned long,unsigned long &>
PUBLIC	?construct@?$allocator@K@std@@QAEXPAKABK@Z	; std::allocator<unsigned long>::construct
PUBLIC	??$_Buynode@V?$basic_string@DU?$char_traits@D@std@@V?$allocator@D@2@@std@@@?$_List_buy@V?$basic_string@DU?$char_traits@D@std@@V?$allocator@D@2@@std@@V?$allocator@V?$basic_string@DU?$char_traits@D@std@@V?$allocator@D@2@@std@@@2@@std@@QAEPAU?$_List_node@V?$basic_string@DU?$char_traits@D@std@@V?$allocator@D@2@@std@@PAX@1@PAU21@0$$QAV?$basic_string@DU?$char_traits@D@std@@V?$allocator@D@2@@1@@Z ; std::_List_buy<std::basic_string<char,std::char_traits<char>,std::allocator<char> >,std::allocator<std::basic_string<char,std::char_traits<char>,std::allocator<char> > > >::_Buynode<std::basic_string<char,std::char_traits<char>,std::allocator<char> > >
PUBLIC	??$construct@KABK@?$allocator_traits@V?$allocator@K@std@@@std@@SAXAAV?$allocator@K@1@PAKABK@Z ; std::allocator_traits<std::allocator<unsigned long> >::construct<unsigned long,unsigned long const &>
PUBLIC	??$construct@KAAK@?$allocator_traits@V?$allocator@K@std@@@std@@SAXAAV?$allocator@K@1@PAKAAK@Z ; std::allocator_traits<std::allocator<unsigned long> >::construct<unsigned long,unsigned long &>
PUBLIC	??$_Insert@V?$basic_string@DU?$char_traits@D@std@@V?$allocator@D@2@@std@@@?$list@V?$basic_string@DU?$char_traits@D@std@@V?$allocator@D@2@@std@@V?$allocator@V?$basic_string@DU?$char_traits@D@std@@V?$allocator@D@2@@std@@@2@@std@@QAEXV?$_List_unchecked_const_iterator@V?$_List_val@U?$_List_simple_types@V?$basic_string@DU?$char_traits@D@std@@V?$allocator@D@2@@std@@@std@@@std@@U_Iterator_base0@2@@1@$$QAV?$basic_string@DU?$char_traits@D@std@@V?$allocator@D@2@@1@@Z ; std::list<std::basic_string<char,std::char_traits<char>,std::allocator<char> >,std::allocator<std::basic_string<char,std::char_traits<char>,std::allocator<char> > > >::_Insert<std::basic_string<char,std::char_traits<char>,std::allocator<char> > >
PUBLIC	??$construct@KABK@?$_Wrap_alloc@V?$allocator@K@std@@@std@@QAEXPAKABK@Z ; std::_Wrap_alloc<std::allocator<unsigned long> >::construct<unsigned long,unsigned long const &>
PUBLIC	??$construct@KAAK@?$_Wrap_alloc@V?$allocator@K@std@@@std@@QAEXPAKAAK@Z ; std::_Wrap_alloc<std::allocator<unsigned long> >::construct<unsigned long,unsigned long &>
PUBLIC	??$addressof@$$CBK@std@@YAPBKABK@Z		; std::addressof<unsigned long const >
PUBLIC	??E?$_List_const_iterator@V?$_List_val@U?$_List_simple_types@V?$basic_string@DU?$char_traits@D@std@@V?$allocator@D@2@@std@@@std@@@std@@@std@@QAE?AV01@H@Z ; std::_List_const_iterator<std::_List_val<std::_List_simple_types<std::basic_string<char,std::char_traits<char>,std::allocator<char> > > > >::operator++
PUBLIC	?_Unlinknode@?$list@V?$basic_string@DU?$char_traits@D@std@@V?$allocator@D@2@@std@@V?$allocator@V?$basic_string@DU?$char_traits@D@std@@V?$allocator@D@2@@std@@@2@@std@@QAEPAU?$_List_node@V?$basic_string@DU?$char_traits@D@std@@V?$allocator@D@2@@std@@PAX@2@V?$_List_const_iterator@V?$_List_val@U?$_List_simple_types@V?$basic_string@DU?$char_traits@D@std@@V?$allocator@D@2@@std@@@std@@@std@@@2@@Z ; std::list<std::basic_string<char,std::char_traits<char>,std::allocator<char> >,std::allocator<std::basic_string<char,std::char_traits<char>,std::allocator<char> > > >::_Unlinknode
PUBLIC	?_Make_iter@?$list@V?$basic_string@DU?$char_traits@D@std@@V?$allocator@D@2@@std@@V?$allocator@V?$basic_string@DU?$char_traits@D@std@@V?$allocator@D@2@@std@@@2@@std@@QBE?AV?$_List_iterator@V?$_List_val@U?$_List_simple_types@V?$basic_string@DU?$char_traits@D@std@@V?$allocator@D@2@@std@@@std@@@std@@@2@V?$_List_const_iterator@V?$_List_val@U?$_List_simple_types@V?$basic_string@DU?$char_traits@D@std@@V?$allocator@D@2@@std@@@std@@@std@@@2@@Z ; std::list<std::basic_string<char,std::char_traits<char>,std::allocator<char> >,std::allocator<std::basic_string<char,std::char_traits<char>,std::allocator<char> > > >::_Make_iter
PUBLIC	?erase@?$list@V?$basic_string@DU?$char_traits@D@std@@V?$allocator@D@2@@std@@V?$allocator@V?$basic_string@DU?$char_traits@D@std@@V?$allocator@D@2@@std@@@2@@std@@QAE?AV?$_List_iterator@V?$_List_val@U?$_List_simple_types@V?$basic_string@DU?$char_traits@D@std@@V?$allocator@D@2@@std@@@std@@@std@@@2@V?$_List_const_iterator@V?$_List_val@U?$_List_simple_types@V?$basic_string@DU?$char_traits@D@std@@V?$allocator@D@2@@std@@@std@@@std@@@2@@Z ; std::list<std::basic_string<char,std::char_traits<char>,std::allocator<char> >,std::allocator<std::basic_string<char,std::char_traits<char>,std::allocator<char> > > >::erase
PUBLIC	?Instance@?$CSingleton@VCAccountConnector@@@@SAAAVCAccountConnector@@XZ ; CSingleton<CAccountConnector>::Instance
PUBLIC	?pop_front@?$list@V?$basic_string@DU?$char_traits@D@std@@V?$allocator@D@2@@std@@V?$allocator@V?$basic_string@DU?$char_traits@D@std@@V?$allocator@D@2@@std@@@2@@std@@QAEXXZ ; std::list<std::basic_string<char,std::char_traits<char>,std::allocator<char> >,std::allocator<std::basic_string<char,std::char_traits<char>,std::allocator<char> > > >::pop_front
PUBLIC	?front@?$list@V?$basic_string@DU?$char_traits@D@std@@V?$allocator@D@2@@std@@V?$allocator@V?$basic_string@DU?$char_traits@D@std@@V?$allocator@D@2@@std@@@2@@std@@QAEAAV?$basic_string@DU?$char_traits@D@std@@V?$allocator@D@2@@2@XZ ; std::list<std::basic_string<char,std::char_traits<char>,std::allocator<char> >,std::allocator<std::basic_string<char,std::char_traits<char>,std::allocator<char> > > >::front
PUBLIC	?empty@?$list@V?$basic_string@DU?$char_traits@D@std@@V?$allocator@D@2@@std@@V?$allocator@V?$basic_string@DU?$char_traits@D@std@@V?$allocator@D@2@@std@@@2@@std@@QBE_NXZ ; std::list<std::basic_string<char,std::char_traits<char>,std::allocator<char> >,std::allocator<std::basic_string<char,std::char_traits<char>,std::allocator<char> > > >::empty
PUBLIC	?push_back@?$list@V?$basic_string@DU?$char_traits@D@std@@V?$allocator@D@2@@std@@V?$allocator@V?$basic_string@DU?$char_traits@D@std@@V?$allocator@D@2@@std@@@2@@std@@QAEX$$QAV?$basic_string@DU?$char_traits@D@std@@V?$allocator@D@2@@2@@Z ; std::list<std::basic_string<char,std::char_traits<char>,std::allocator<char> >,std::allocator<std::basic_string<char,std::char_traits<char>,std::allocator<char> > > >::push_back
PUBLIC	?push_back@?$vector@KV?$allocator@K@std@@@std@@QAEXABK@Z ; std::vector<unsigned long,std::allocator<unsigned long> >::push_back
PUBLIC	?initnet@@YAXXZ					; initnet
PUBLIC	?netRegisterErrorLog@@YAPAU_object@@PAU1@0@Z	; netRegisterErrorLog
PUBLIC	?netRecvGuildSymbol@@YAPAU_object@@PAU1@0@Z	; netRecvGuildSymbol
PUBLIC	?netDisconnectUploader@@YAPAU_object@@PAU1@0@Z	; netDisconnectUploader
PUBLIC	?netSendGuildSymbol@@YAPAU_object@@PAU1@0@Z	; netSendGuildSymbol
PUBLIC	?netSetSkillGroupFake@@YAPAU_object@@PAU1@0@Z	; netSetSkillGroupFake
PUBLIC	?netSetEmpireLanguageMode@@YAPAU_object@@PAU1@0@Z ; netSetEmpireLanguageMode
PUBLIC	?netSetPacketSequenceMode@@YAPAU_object@@PAU1@0@Z ; netSetPacketSequenceMode
PUBLIC	?netSendSelectItemPacket@@YAPAU_object@@PAU1@0@Z ; netSendSelectItemPacket
PUBLIC	?netSendRefinePacket@@YAPAU_object@@PAU1@0@Z	; netSendRefinePacket
PUBLIC	?netSendRequestRefineInfoPacket@@YAPAU_object@@PAU1@0@Z ; netSendRequestRefineInfoPacket
PUBLIC	?netSendGuildWithdrawMoneyPacket@@YAPAU_object@@PAU1@0@Z ; netSendGuildWithdrawMoneyPacket
PUBLIC	?netSendGuildDepositMoneyPacket@@YAPAU_object@@PAU1@0@Z ; netSendGuildDepositMoneyPacket
PUBLIC	?netSendGuildChargeGSPPacket@@YAPAU_object@@PAU1@0@Z ; netSendGuildChargeGSPPacket
PUBLIC	?netSendGuildInviteAnswerPacket@@YAPAU_object@@PAU1@0@Z ; netSendGuildInviteAnswerPacket
PUBLIC	?netSendGuildChangeMemberGeneralPacket@@YAPAU_object@@PAU1@0@Z ; netSendGuildChangeMemberGeneralPacket
PUBLIC	?netSendGuildUseSkillPacket@@YAPAU_object@@PAU1@0@Z ; netSendGuildUseSkillPacket
PUBLIC	?netSendGuildChangeMemberGradePacket@@YAPAU_object@@PAU1@0@Z ; netSendGuildChangeMemberGradePacket
PUBLIC	?netSendGuildRefreshCommentsPacket@@YAPAU_object@@PAU1@0@Z ; netSendGuildRefreshCommentsPacket
PUBLIC	?netSnedGuildDeleteCommentPacket@@YAPAU_object@@PAU1@0@Z ; netSnedGuildDeleteCommentPacket
PUBLIC	?netSnedGuildPostCommentPacket@@YAPAU_object@@PAU1@0@Z ; netSnedGuildPostCommentPacket
PUBLIC	?netSendGuildOfferPacket@@YAPAU_object@@PAU1@0@Z ; netSendGuildOfferPacket
PUBLIC	?netSendGuildChangeGradeAuthorityPacket@@YAPAU_object@@PAU1@0@Z ; netSendGuildChangeGradeAuthorityPacket
PUBLIC	?netSendGuildChangeGradeNamePacket@@YAPAU_object@@PAU1@0@Z ; netSendGuildChangeGradeNamePacket
PUBLIC	?netSendGuildRemoveMemberPacket@@YAPAU_object@@PAU1@0@Z ; netSendGuildRemoveMemberPacket
PUBLIC	?netSendGuildAddMemberPacket@@YAPAU_object@@PAU1@0@Z ; netSendGuildAddMemberPacket
PUBLIC	?netSendQuestConfirmPacket@@YAPAU_object@@PAU1@0@Z ; netSendQuestConfirmPacket
PUBLIC	?netSendQuestInputStringPacket@@YAPAU_object@@PAU1@0@Z ; netSendQuestInputStringPacket
PUBLIC	?netSendAnswerMakeGuildPacket@@YAPAU_object@@PAU1@0@Z ; netSendAnswerMakeGuildPacket
PUBLIC	?netSendMallCheckoutPacket@@YAPAU_object@@PAU1@0@Z ; netSendMallCheckoutPacket
PUBLIC	?netSendSafeboxItemMovePacket@@YAPAU_object@@PAU1@0@Z ; netSendSafeboxItemMovePacket
PUBLIC	?netSendSafeboxCheckoutPacket@@YAPAU_object@@PAU1@0@Z ; netSendSafeboxCheckoutPacket
PUBLIC	?netSendSafeboxCheckinPacket@@YAPAU_object@@PAU1@0@Z ; netSendSafeboxCheckinPacket
PUBLIC	?netSendSafeboxWithdrawMoneyPacket@@YAPAU_object@@PAU1@0@Z ; netSendSafeboxWithdrawMoneyPacket
PUBLIC	?netSendSafeboxSaveMoneyPacket@@YAPAU_object@@PAU1@0@Z ; netSendSafeboxSaveMoneyPacket
PUBLIC	?netSendPartyParameterPacket@@YAPAU_object@@PAU1@0@Z ; netSendPartyParameterPacket
PUBLIC	?netSendPartyUseSkillPacket@@YAPAU_object@@PAU1@0@Z ; netSendPartyUseSkillPacket
PUBLIC	?netSendPartySetStatePacket@@YAPAU_object@@PAU1@0@Z ; netSendPartySetStatePacket
PUBLIC	?netSendPartyRemovePacket@@YAPAU_object@@PAU1@0@Z ; netSendPartyRemovePacket
PUBLIC	?netSendPartyExitPacket@@YAPAU_object@@PAU1@0@Z	; netSendPartyExitPacket
PUBLIC	?netSendPartyInviteAnswerPacket@@YAPAU_object@@PAU1@0@Z ; netSendPartyInviteAnswerPacket
PUBLIC	?netSendPartyInvitePacket@@YAPAU_object@@PAU1@0@Z ; netSendPartyInvitePacket
PUBLIC	?netSendMessengerRemovePacket@@YAPAU_object@@PAU1@0@Z ; netSendMessengerRemovePacket
PUBLIC	?netSendMessengerAddByNamePacket@@YAPAU_object@@PAU1@0@Z ; netSendMessengerAddByNamePacket
PUBLIC	?netSendMessengerAddByVIDPacket@@YAPAU_object@@PAU1@0@Z ; netSendMessengerAddByVIDPacket
PUBLIC	?netRegisterEmoticonString@@YAPAU_object@@PAU1@0@Z ; netRegisterEmoticonString
PUBLIC	?netToggleGameDebugInfo@@YAPAU_object@@PAU1@0@Z	; netToggleGameDebugInfo
PUBLIC	?netIsConnect@@YAPAU_object@@PAU1@0@Z		; netIsConnect
PUBLIC	?netDisconnect@@YAPAU_object@@PAU1@0@Z		; netDisconnect
PUBLIC	?netLogOutGame@@YAPAU_object@@PAU1@0@Z		; netLogOutGame
PUBLIC	?netExitGame@@YAPAU_object@@PAU1@0@Z		; netExitGame
PUBLIC	?netExitApplication@@YAPAU_object@@PAU1@0@Z	; netExitApplication
PUBLIC	?netSendExchangeExitPacket@@YAPAU_object@@PAU1@0@Z ; netSendExchangeExitPacket
PUBLIC	?netSendExchangeAcceptPacket@@YAPAU_object@@PAU1@0@Z ; netSendExchangeAcceptPacket
PUBLIC	?netSendExchangeItemDelPacket@@YAPAU_object@@PAU1@0@Z ; netSendExchangeItemDelPacket
PUBLIC	?netSendExchangeItemAddPacket@@YAPAU_object@@PAU1@0@Z ; netSendExchangeItemAddPacket
PUBLIC	?netSendExchangeElkAddPacket@@YAPAU_object@@PAU1@0@Z ; netSendExchangeElkAddPacket
PUBLIC	?netSendExchangeStartPacket@@YAPAU_object@@PAU1@0@Z ; netSendExchangeStartPacket
PUBLIC	?netSendShopSellPacketNew@@YAPAU_object@@PAU1@0@Z ; netSendShopSellPacketNew
PUBLIC	?netSendShopSellPacket@@YAPAU_object@@PAU1@0@Z	; netSendShopSellPacket
PUBLIC	?netSendShopBuyPacket@@YAPAU_object@@PAU1@0@Z	; netSendShopBuyPacket
PUBLIC	?netSendShopEndPacket@@YAPAU_object@@PAU1@0@Z	; netSendShopEndPacket
PUBLIC	?netSendGiveItemPacket@@YAPAU_object@@PAU1@0@Z	; netSendGiveItemPacket
PUBLIC	?netSendItemPickUpPacket@@YAPAU_object@@PAU1@0@Z ; netSendItemPickUpPacket
PUBLIC	?netSendItemMovePacket@@YAPAU_object@@PAU1@0@Z	; netSendItemMovePacket
PUBLIC	?netSendGoldDropPacketNew@@YAPAU_object@@PAU1@0@Z ; netSendGoldDropPacketNew
PUBLIC	?netSendElkDropPacket@@YAPAU_object@@PAU1@0@Z	; netSendElkDropPacket
PUBLIC	?netSendItemDropPacketNew@@YAPAU_object@@PAU1@0@Z ; netSendItemDropPacketNew
PUBLIC	?netSendItemDropPacket@@YAPAU_object@@PAU1@0@Z	; netSendItemDropPacket
PUBLIC	?netSendItemUseToItemPacket@@YAPAU_object@@PAU1@0@Z ; netSendItemUseToItemPacket
PUBLIC	?netSendItemUsePacket@@YAPAU_object@@PAU1@0@Z	; netSendItemUsePacket
PUBLIC	?netOnClickPacket@@YAPAU_object@@PAU1@0@Z	; netOnClickPacket
PUBLIC	?netSendEnterGamePacket@@YAPAU_object@@PAU1@0@Z	; netSendEnterGamePacket
PUBLIC	?netSendDestroyCharacterPacket@@YAPAU_object@@PAU1@0@Z ; netSendDestroyCharacterPacket
PUBLIC	?netSendCreateCharacterPacket@@YAPAU_object@@PAU1@0@Z ; netSendCreateCharacterPacket
PUBLIC	?netSendEmoticon@@YAPAU_object@@PAU1@0@Z	; netSendEmoticon
PUBLIC	?netSendChatPacket@@YAPAU_object@@PAU1@0@Z	; netSendChatPacket
PUBLIC	?netSendCharacterPositionPacket@@YAPAU_object@@PAU1@0@Z ; netSendCharacterPositionPacket
PUBLIC	?netSendMobileMessagePacket@@YAPAU_object@@PAU1@0@Z ; netSendMobileMessagePacket
PUBLIC	?netSendWhisperPacket@@YAPAU_object@@PAU1@0@Z	; netSendWhisperPacket
PUBLIC	?netIsInsultIn@@YAPAU_object@@PAU1@0@Z		; netIsInsultIn
PUBLIC	?netIsChatInsultIn@@YAPAU_object@@PAU1@0@Z	; netIsChatInsultIn
PUBLIC	?netEnableChatInsultFilter@@YAPAU_object@@PAU1@0@Z ; netEnableChatInsultFilter
PUBLIC	?netSendChangeNamePacket@@YAPAU_object@@PAU1@0@Z ; netSendChangeNamePacket
PUBLIC	?netSendSelectCharacterPacket@@YAPAU_object@@PAU1@0@Z ; netSendSelectCharacterPacket
PUBLIC	?netDirectEnter@@YAPAU_object@@PAU1@0@Z		; netDirectEnter
PUBLIC	?netSendNEWCIBNPasspodAnswerPacket@@YAPAU_object@@PAU1@0@Z ; netSendNEWCIBNPasspodAnswerPacket
PUBLIC	?netSendRunupMatrixCardPacket@@YAPAU_object@@PAU1@0@Z ; netSendRunupMatrixCardPacket
PUBLIC	?netSendChinaMatrixCardPacket@@YAPAU_object@@PAU1@0@Z ; netSendChinaMatrixCardPacket
PUBLIC	?netSendLoginPacket@@YAPAU_object@@PAU1@0@Z	; netSendLoginPacket
PUBLIC	?netSendSelectEmpirePacket@@YAPAU_object@@PAU1@0@Z ; netSendSelectEmpirePacket
PUBLIC	?netSetOfflinePhase@@YAPAU_object@@PAU1@0@Z	; netSetOfflinePhase
PUBLIC	?netSetLoginInfo@@YAPAU_object@@PAU1@0@Z	; netSetLoginInfo
PUBLIC	?netConnectToAccountServer@@YAPAU_object@@PAU1@0@Z ; netConnectToAccountServer
PUBLIC	?netConnectUDP@@YAPAU_object@@PAU1@0@Z		; netConnectUDP
PUBLIC	?netConnectTCP@@YAPAU_object@@PAU1@0@Z		; netConnectTCP
PUBLIC	?netSetMarkServer@@YAPAU_object@@PAU1@0@Z	; netSetMarkServer
PUBLIC	?netSetUDPRecvBufferSize@@YAPAU_object@@PAU1@0@Z ; netSetUDPRecvBufferSize
PUBLIC	?netSetTCPSendBufferSize@@YAPAU_object@@PAU1@0@Z ; netSetTCPSendBufferSize
PUBLIC	?netSetTCPRecvBufferSize@@YAPAU_object@@PAU1@0@Z ; netSetTCPRecvBufferSize
PUBLIC	?netSetHandler@@YAPAU_object@@PAU1@0@Z		; netSetHandler
PUBLIC	?netSetAccountConnectorHandler@@YAPAU_object@@PAU1@0@Z ; netSetAccountConnectorHandler
PUBLIC	?netSetServerCommandParserWindow@@YAPAU_object@@PAU1@0@Z ; netSetServerCommandParserWindow
PUBLIC	?netClearPhaseWindow@@YAPAU_object@@PAU1@0@Z	; netClearPhaseWindow
PUBLIC	?netSetPhaseWindow@@YAPAU_object@@PAU1@0@Z	; netSetPhaseWindow
PUBLIC	?netGetFieldMusicVolume@@YAPAU_object@@PAU1@0@Z	; netGetFieldMusicVolume
PUBLIC	?netGetFieldMusicFileName@@YAPAU_object@@PAU1@0@Z ; netGetFieldMusicFileName
PUBLIC	?netGetAccountCharacterSlotDataString@@YAPAU_object@@PAU1@0@Z ; netGetAccountCharacterSlotDataString
PUBLIC	?netGetAccountCharacterSlotDataInteger@@YAPAU_object@@PAU1@0@Z ; netGetAccountCharacterSlotDataInteger
PUBLIC	?netGetMainActorSkillGroup@@YAPAU_object@@PAU1@0@Z ; netGetMainActorSkillGroup
PUBLIC	?netGetMainActorEmpire@@YAPAU_object@@PAU1@0@Z	; netGetMainActorEmpire
PUBLIC	?netGetMainActorRace@@YAPAU_object@@PAU1@0@Z	; netGetMainActorRace
PUBLIC	?netGetMainActorVID@@YAPAU_object@@PAU1@0@Z	; netGetMainActorVID
PUBLIC	?netGetEmpireID@@YAPAU_object@@PAU1@0@Z		; netGetEmpireID
PUBLIC	?netGetGuildID@@YAPAU_object@@PAU1@0@Z		; netGetGuildID
PUBLIC	?netUploadSymbol@@YAPAU_object@@PAU1@0@Z	; netUploadSymbol
PUBLIC	?netUploadMark@@YAPAU_object@@PAU1@0@Z		; netUploadMark
PUBLIC	?netLoadInsultList@@YAPAU_object@@PAU1@0@Z	; netLoadInsultList
PUBLIC	?netWarp@@YAPAU_object@@PAU1@0@Z		; netWarp
PUBLIC	?netIsTest@@YAPAU_object@@PAU1@0@Z		; netIsTest
PUBLIC	?netStartGame@@YAPAU_object@@PAU1@0@Z		; netStartGame
PUBLIC	?netGetPreservedServerCommand@@YAPAU_object@@PAU1@0@Z ; netGetPreservedServerCommand
PUBLIC	?netPreserveServerCommand@@YAPAU_object@@PAU1@0@Z ; netPreserveServerCommand
PUBLIC	?netGetServerInfo@@YAPAU_object@@PAU1@0@Z	; netGetServerInfo
PUBLIC	?netSetServerInfo@@YAPAU_object@@PAU1@0@Z	; netSetServerInfo
PUBLIC	?netGetBettingGuildWarValue@@YAPAU_object@@PAU1@0@Z ; netGetBettingGuildWarValue
PUBLIC	?g_kList_strCommand@@3V?$list@V?$basic_string@DU?$char_traits@D@std@@V?$allocator@D@2@@std@@V?$allocator@V?$basic_string@DU?$char_traits@D@std@@V?$allocator@D@2@@std@@@2@@std@@A ; g_kList_strCommand
	ALIGN	8

?g_kList_strCommand@@3V?$list@V?$basic_string@DU?$char_traits@D@std@@V?$allocator@D@2@@std@@V?$allocator@V?$basic_string@DU?$char_traits@D@std@@V?$allocator@D@2@@std@@@2@@std@@A DQ 01H DUP (?) ; g_kList_strCommand
_BSS	ENDS
;	COMDAT xdata$x
xdata$x	SEGMENT
__ehfuncinfo$?netPreserveServerCommand@@YAPAU_object@@PAU1@0@Z DD 019930522H
	DD	01H
	DD	FLAT:__unwindtable$?netPreserveServerCommand@@YAPAU_object@@PAU1@0@Z
	DD	2 DUP(00H)
	DD	2 DUP(00H)
	DD	00H
	DD	01H
__unwindtable$?netPreserveServerCommand@@YAPAU_object@@PAU1@0@Z DD 0ffffffffH
	DD	FLAT:__unwindfunclet$?netPreserveServerCommand@@YAPAU_object@@PAU1@0@Z$0
xdata$x	ENDS
;	COMDAT xdata$x
xdata$x	SEGMENT
__ehfuncinfo$?netSendGuildSymbol@@YAPAU_object@@PAU1@0@Z DD 019930522H
	DD	01H
	DD	FLAT:__unwindtable$?netSendGuildSymbol@@YAPAU_object@@PAU1@0@Z
	DD	2 DUP(00H)
	DD	2 DUP(00H)
	DD	00H
	DD	01H
__unwindtable$?netSendGuildSymbol@@YAPAU_object@@PAU1@0@Z DD 0ffffffffH
	DD	FLAT:__unwindfunclet$?netSendGuildSymbol@@YAPAU_object@@PAU1@0@Z$0
xdata$x	ENDS
;	COMDAT xdata$x
xdata$x	SEGMENT
__ehfuncinfo$?netRecvGuildSymbol@@YAPAU_object@@PAU1@0@Z DD 019930522H
	DD	02H
	DD	FLAT:__unwindtable$?netRecvGuildSymbol@@YAPAU_object@@PAU1@0@Z
	DD	2 DUP(00H)
	DD	2 DUP(00H)
	DD	00H
	DD	01H
__unwindtable$?netRecvGuildSymbol@@YAPAU_object@@PAU1@0@Z DD 0ffffffffH
	DD	FLAT:__unwindfunclet$?netRecvGuildSymbol@@YAPAU_object@@PAU1@0@Z$0
	DD	00H
	DD	FLAT:__unwindfunclet$?netRecvGuildSymbol@@YAPAU_object@@PAU1@0@Z$1
_gs_stServerInfo DB 00H
	DB	15 DUP(00H)
	DD	00H
	DD	0fH
_gs_stServerInfo$initializer$ DD FLAT:??__Egs_stServerInfo@@YAXXZ
_g_kList_strCommand$initializer$ DD FLAT:??__Eg_kList_strCommand@@YAXXZ
; Function compile flags: /Ogtp
; File d:\metin2\metin2\client_source_clean\client_source_clean\source\userinterface\pythonnetworkstreammodule.cpp
;	COMDAT ??__Egs_stServerInfo@@YAXXZ
text$di	SEGMENT
??__Egs_stServerInfo@@YAXXZ PROC			; `dynamic initializer for 'gs_stServerInfo'', COMDAT

; 10   : static std::string gs_stServerInfo;

  00000	68 00 00 00 00	 push	 OFFSET ??__Fgs_stServerInfo@@YAXXZ ; `dynamic atexit destructor for 'gs_stServerInfo''
  00005	e8 00 00 00 00	 call	 _atexit
  0000a	59		 pop	 ecx
  0000b	c3		 ret	 0
??__Egs_stServerInfo@@YAXXZ ENDP			; `dynamic initializer for 'gs_stServerInfo''
text$di	ENDS
; Function compile flags: /Ogtp
; File c:\program files (x86)\microsoft visual studio 12.0\vc\include\xstring
; File c:\program files (x86)\microsoft visual studio 12.0\vc\include\xmemory0
; File c:\program files (x86)\microsoft visual studio 12.0\vc\include\xstring
; File c:\program files (x86)\microsoft visual studio 12.0\vc\include\iosfwd
;	COMDAT ??__Fgs_stServerInfo@@YAXXZ
text$yd	SEGMENT
$T1 = -1						; size = 1
$T2 = -1						; size = 1
??__Fgs_stServerInfo@@YAXXZ PROC			; `dynamic atexit destructor for 'gs_stServerInfo'', COMDAT
  00000	55		 push	 ebp
  00001	8b ec		 mov	 ebp, esp
  00003	51		 push	 ecx
; File c:\program files (x86)\microsoft visual studio 12.0\vc\include\xstring

; 2275 : 		else if (this->_BUF_SIZE <= this->_Myres)

  00004	83 3d 14 00 00
	00 10		 cmp	 DWORD PTR _gs_stServerInfo+20, 16 ; 00000010H
  0000b	72 2e		 jb	 SHORT $LN23@dynamic
  0000d	56		 push	 esi

; 2276 : 			{	// copy any leftovers to small buffer and deallocate
; 2277 : 			pointer _Ptr = this->_Bx._Ptr;

  0000e	8b 35 00 00 00
	00		 mov	 esi, DWORD PTR _gs_stServerInfo

; 684  : 		return (_Alty());

  00014	8d 4d ff	 lea	 ecx, DWORD PTR $T2[ebp]
  00017	e8 00 00 00 00	 call	 ??0?$_Wrap_alloc@V?$allocator@D@std@@@std@@QAE@XZ ; std::_Wrap_alloc<std::allocator<char> >::_Wrap_alloc<std::allocator<char> >

; 2278 : 			this->_Getal().destroy(&this->_Bx._Ptr);

  0001c	68 00 00 00 00	 push	 OFFSET _gs_stServerInfo
  00021	8d 4d ff	 lea	 ecx, DWORD PTR $T2[ebp]
  00024	e8 00 00 00 00	 call	 ??$destroy@PAD@?$_Wrap_alloc@V?$allocator@D@std@@@std@@QAEXPAPAD@Z ; std::_Wrap_alloc<std::allocator<char> >::destroy<char *>

; 684  : 		return (_Alty());

  00029	8d 4d ff	 lea	 ecx, DWORD PTR $T1[ebp]
  0002c	e8 00 00 00 00	 call	 ??0?$_Wrap_alloc@V?$allocator@D@std@@@std@@QAE@XZ ; std::_Wrap_alloc<std::allocator<char> >::_Wrap_alloc<std::allocator<char> >
; File c:\program files (x86)\microsoft visual studio 12.0\vc\include\xmemory0

; 573  : 		::operator delete(_Ptr);

  00031	56		 push	 esi
  00032	e8 00 00 00 00	 call	 ??3@YAXPAX@Z		; operator delete
  00037	83 c4 04	 add	 esp, 4
  0003a	5e		 pop	 esi
$LN23@dynamic:
; File c:\program files (x86)\microsoft visual studio 12.0\vc\include\xstring

; 2284 : 		this->_Myres = this->_BUF_SIZE - 1;

  0003b	c7 05 14 00 00
	00 0f 00 00 00	 mov	 DWORD PTR _gs_stServerInfo+20, 15 ; 0000000fH

; 685  : 		}
; 686  : 	};
; 687  : 
; 688  : 		// TEMPLATE CLASS basic_string
; 689  : template<class _Elem,
; 690  : 	class _Traits,
; 691  : 	class _Alloc>
; 692  : 	class basic_string
; 693  : 		: public _String_alloc<!is_empty<_Alloc>::value,
; 694  : 			_String_base_types<_Elem, _Alloc> >
; 695  : 	{	// null-terminated transparent array of elements
; 696  : public:
; 697  : 	typedef basic_string<_Elem, _Traits, _Alloc> _Myt;
; 698  : 	typedef _String_alloc<!is_empty<_Alloc>::value,
; 699  : 		_String_base_types<_Elem, _Alloc> > _Mybase;
; 700  : 	typedef _Traits traits_type;
; 701  : 	typedef _Alloc allocator_type;
; 702  : 
; 703  : 	typedef typename _Mybase::_Alty _Alty;
; 704  : 
; 705  : 	typedef typename _Mybase::value_type value_type;
; 706  : 	typedef typename _Mybase::size_type size_type;
; 707  : 	typedef typename _Mybase::difference_type difference_type;
; 708  : 	typedef typename _Mybase::pointer pointer;
; 709  : 	typedef typename _Mybase::const_pointer const_pointer;
; 710  : 	typedef typename _Mybase::reference reference;
; 711  : 	typedef typename _Mybase::const_reference const_reference;
; 712  : 
; 713  : 	typedef typename _Mybase::iterator iterator;
; 714  : 	typedef typename _Mybase::const_iterator const_iterator;
; 715  : 
; 716  : 	typedef _STD reverse_iterator<iterator> reverse_iterator;
; 717  : 	typedef _STD reverse_iterator<const_iterator> const_reverse_iterator;
; 718  : 
; 719  : 	basic_string(const _Myt& _Right)
; 720  : 
; 721  : 		: _Mybase(_Right._Getal().select_on_container_copy_construction())
; 722  : 
; 723  : 
; 724  : 		{	// construct by copying _Right
; 725  : 		_Tidy();
; 726  : 		assign(_Right, 0, npos);
; 727  : 		}
; 728  : 
; 729  : 	basic_string(const _Myt& _Right, const _Alloc& _Al)
; 730  : 		: _Mybase(_Al)
; 731  : 		{	// construct by copying with allocator
; 732  : 		_Tidy();
; 733  : 		assign(_Right, 0, npos);
; 734  : 		}
; 735  : 
; 736  : 	basic_string()
; 737  : 		: _Mybase()
; 738  : 		{	// construct empty string
; 739  : 		_Tidy();
; 740  : 		}
; 741  : 
; 742  : 	explicit basic_string(const _Alloc& _Al)
; 743  : 		: _Mybase(_Al)
; 744  : 		{	// construct empty string with allocator
; 745  : 		_Tidy();
; 746  : 		}
; 747  : 
; 748  : 	basic_string(const _Myt& _Right, size_type _Roff,
; 749  : 		size_type _Count = npos)
; 750  : 		: _Mybase(_Right._Getal())
; 751  : 		{	// construct from _Right [_Roff, _Roff + _Count)
; 752  : 		_Tidy();
; 753  : 		assign(_Right, _Roff, _Count);
; 754  : 		}
; 755  : 
; 756  : 	basic_string(const _Myt& _Right, size_type _Roff, size_type _Count,
; 757  : 		const _Alloc& _Al)
; 758  : 		: _Mybase(_Al)
; 759  : 		{	// construct from _Right [_Roff, _Roff + _Count) with allocator
; 760  : 		_Tidy();
; 761  : 		assign(_Right, _Roff, _Count);
; 762  : 		}
; 763  : 
; 764  : 	basic_string(const _Elem *_Ptr, size_type _Count)
; 765  : 		: _Mybase()
; 766  : 		{	// construct from [_Ptr, _Ptr + _Count)
; 767  : 		_Tidy();
; 768  : 		assign(_Ptr, _Count);
; 769  : 		}
; 770  : 
; 771  : 	basic_string(const _Elem *_Ptr, size_type _Count, const _Alloc& _Al)
; 772  : 		: _Mybase(_Al)
; 773  : 		{	// construct from [_Ptr, _Ptr + _Count) with allocator
; 774  : 		_Tidy();
; 775  : 		assign(_Ptr, _Count);
; 776  : 		}
; 777  : 
; 778  : 	basic_string(const _Elem *_Ptr)
; 779  : 		: _Mybase()
; 780  : 		{	// construct from [_Ptr, <null>)
; 781  : 		_Tidy();
; 782  : 		assign(_Ptr);
; 783  : 		}
; 784  : 
; 785  : 	basic_string(const _Elem *_Ptr, const _Alloc& _Al)
; 786  : 		: _Mybase(_Al)
; 787  : 		{	// construct from [_Ptr, <null>) with allocator
; 788  : 		_Tidy();
; 789  : 		assign(_Ptr);
; 790  : 		}
; 791  : 
; 792  : 	basic_string(size_type _Count, _Elem _Ch)
; 793  : 		: _Mybase()
; 794  : 		{	// construct from _Count * _Ch
; 795  : 		_Tidy();
; 796  : 		assign(_Count, _Ch);
; 797  : 		}
; 798  : 
; 799  : 	basic_string(size_type _Count, _Elem _Ch, const _Alloc& _Al)
; 800  : 		: _Mybase(_Al)
; 801  : 		{	// construct from _Count * _Ch with allocator
; 802  : 		_Tidy();
; 803  : 		assign(_Count, _Ch);
; 804  : 		}
; 805  : 
; 806  : 	template<class _Iter,
; 807  : 		class = typename enable_if<_Is_iterator<_Iter>::value,
; 808  : 			void>::type>
; 809  : 		basic_string(_Iter _First, _Iter _Last)
; 810  : 		: _Mybase()
; 811  : 		{	// construct from [_First, _Last)
; 812  : 		_Tidy();
; 813  : 		_Construct(_First, _Last, _Iter_cat(_First));
; 814  : 		}
; 815  : 
; 816  : 	template<class _Iter,
; 817  : 		class = typename enable_if<_Is_iterator<_Iter>::value,
; 818  : 			void>::type>
; 819  : 		basic_string(_Iter _First, _Iter _Last, const _Alloc& _Al)
; 820  : 		: _Mybase(_Al)
; 821  : 		{	// construct from [_First, _Last) with allocator
; 822  : 		_Tidy();
; 823  : 		_Construct(_First, _Last, _Iter_cat(_First));
; 824  : 		}
; 825  : 
; 826  : 	template<class _Iter>
; 827  : 		void _Construct(_Iter _First,
; 828  : 			_Iter _Last, input_iterator_tag)
; 829  : 		{	// initialize from [_First, _Last), input iterators
; 830  : 		_TRY_BEGIN
; 831  : 		for (; _First != _Last; ++_First)
; 832  : 			append((size_type)1, (_Elem)*_First);
; 833  : 		_CATCH_ALL
; 834  : 		_Tidy(true);
; 835  : 		_RERAISE;
; 836  : 		_CATCH_END
; 837  : 		}
; 838  : 
; 839  : 	template<class _Iter>
; 840  : 		void _Construct(_Iter _First,
; 841  : 			_Iter _Last, forward_iterator_tag)
; 842  : 		{	// initialize from [_First, _Last), forward iterators
; 843  : 		_DEBUG_RANGE(_First, _Last);
; 844  : 		size_type _Count = 0;
; 845  : 		_Distance(_First, _Last, _Count);
; 846  : 		reserve(_Count);
; 847  : 
; 848  : 		_TRY_BEGIN
; 849  : 		for (; _First != _Last; ++_First)
; 850  : 			append((size_type)1, (_Elem)*_First);
; 851  : 		_CATCH_ALL
; 852  : 		_Tidy(true);
; 853  : 		_RERAISE;
; 854  : 		_CATCH_END
; 855  : 		}
; 856  : 
; 857  : 	basic_string(const_pointer _First, const_pointer _Last)
; 858  : 		: _Mybase()
; 859  : 		{	// construct from [_First, _Last), const pointers
; 860  : 		_DEBUG_RANGE(_First, _Last);
; 861  : 		_Tidy();
; 862  : 		if (_First != _Last)
; 863  : 			assign(&*_First, _Last - _First);
; 864  : 		}
; 865  : 
; 866  : 	basic_string(const_pointer _First, const_pointer _Last,
; 867  : 		const _Alloc& _Al)
; 868  : 		: _Mybase(_Al)
; 869  : 		{	// construct from [_First, _Last), const pointers
; 870  : 		_DEBUG_RANGE(_First, _Last);
; 871  : 		_Tidy();
; 872  : 		if (_First != _Last)
; 873  : 			assign(&*_First, _Last - _First);
; 874  : 		}
; 875  : 
; 876  : 	basic_string(const_iterator _First, const_iterator _Last)
; 877  : 		: _Mybase()
; 878  : 		{	// construct from [_First, _Last), const_iterators
; 879  : 		_DEBUG_RANGE(_First, _Last);
; 880  : 		_Tidy();
; 881  : 		if (_First != _Last)
; 882  : 			assign(&*_First, _Last - _First);
; 883  : 		}
; 884  : 
; 885  : 	basic_string(_Myt&& _Right) _NOEXCEPT
; 886  : 		: _Mybase(_Right._Getal())
; 887  : 		{	// construct by moving _Right
; 888  : 		_Tidy();
; 889  : 		_Assign_rv(_STD forward<_Myt>(_Right));
; 890  : 		}
; 891  : 
; 892  : 	basic_string(_Myt&& _Right, const _Alloc& _Al)
; 893  : 		: _Mybase(_Al)
; 894  : 		{	// construct by moving _Right, allocator
; 895  : 		if (this->_Getal() != _Right._Getal())
; 896  : 			assign(_Right.begin(), _Right.end());
; 897  : 		else
; 898  : 			_Assign_rv(_STD forward<_Myt>(_Right));
; 899  : 		}
; 900  : 
; 901  : 	_Myt& operator=(_Myt&& _Right) _NOEXCEPT
; 902  : 		{	// assign by moving _Right
; 903  : 		if (this != &_Right)
; 904  : 			{	// different, assign it
; 905  : 			_Tidy(true);
; 906  : 
; 907  : 			if (_Alty::propagate_on_container_move_assignment::value
; 908  : 				&& this->_Getal() != _Right._Getal())
; 909  : 				this->_Change_alloc(_Right._Getal());
; 910  : 
; 911  : 			if (this->_Getal() != _Right._Getal())
; 912  : 				assign(_Right.begin(), _Right.end());
; 913  : 			else
; 914  : 				_Assign_rv(_STD forward<_Myt>(_Right));
; 915  : 			}
; 916  : 		return (*this);
; 917  : 		}
; 918  : 
; 919  : 	_Myt& assign(_Myt&& _Right) _NOEXCEPT
; 920  : 		{	// assign by moving _Right
; 921  : 		if (this == &_Right)
; 922  : 			;
; 923  : 		else if (get_allocator() != _Right.get_allocator()
; 924  : 			&& this->_BUF_SIZE <= _Right._Myres)
; 925  : 			*this = _Right;
; 926  : 		else
; 927  : 			{	// not same, clear this and steal from _Right
; 928  : 			_Tidy(true);
; 929  : 			_Assign_rv(_STD forward<_Myt>(_Right));
; 930  : 			}
; 931  : 		return (*this);
; 932  : 		}
; 933  : 
; 934  : 	void _Assign_rv(_Myt&& _Right)
; 935  : 		{	// assign by moving _Right
; 936  : 		if (_Right._Myres < this->_BUF_SIZE)
; 937  : 			_Traits::move(this->_Bx._Buf, _Right._Bx._Buf,
; 938  : 				_Right._Mysize + 1);
; 939  : 		else
; 940  : 			{	// copy pointer
; 941  : 			this->_Getal().construct(&this->_Bx._Ptr, _Right._Bx._Ptr);
; 942  : 			_Right._Bx._Ptr = pointer();
; 943  : 			}
; 944  : 		this->_Mysize = _Right._Mysize;
; 945  : 		this->_Myres = _Right._Myres;
; 946  : 		_Right._Tidy();
; 947  : 		}
; 948  : 
; 949  : 	basic_string(_XSTD initializer_list<_Elem> _Ilist,
; 950  : 		const _Alloc& _Al = allocator_type())
; 951  : 		: _Mybase(_Al)
; 952  : 		{	// construct from initializer_list
; 953  : 		_Tidy();
; 954  : 		assign(_Ilist.begin(), _Ilist.end());
; 955  : 		}
; 956  : 
; 957  : 	_Myt& operator=(_XSTD initializer_list<_Elem> _Ilist)
; 958  : 		{	// assign initializer_list
; 959  : 		return (assign(_Ilist.begin(), _Ilist.end()));
; 960  : 		}
; 961  : 
; 962  : 	_Myt& operator+=(_XSTD initializer_list<_Elem> _Ilist)
; 963  : 		{	// append initializer_list
; 964  : 		return (append(_Ilist.begin(), _Ilist.end()));
; 965  : 		}
; 966  : 
; 967  : 	_Myt& assign(_XSTD initializer_list<_Elem> _Ilist)
; 968  : 		{	// assign initializer_list
; 969  : 		return (assign(_Ilist.begin(), _Ilist.end()));
; 970  : 		}
; 971  : 
; 972  : 	_Myt& append(_XSTD initializer_list<_Elem> _Ilist)
; 973  : 		{	// append initializer_list
; 974  : 		return (append(_Ilist.begin(), _Ilist.end()));
; 975  : 		}
; 976  : 
; 977  : 	iterator insert(const_iterator _Where,
; 978  : 		_XSTD initializer_list<_Elem> _Ilist)
; 979  : 		{	// insert initializer_list
; 980  : 		return (insert(_Where, _Ilist.begin(), _Ilist.end()));
; 981  : 		}
; 982  : 
; 983  : 	_Myt& replace(const_iterator _First, const_iterator _Last,
; 984  : 		_XSTD initializer_list<_Elem> _Ilist)
; 985  : 		{	// replace with initializer_list
; 986  : 		return (replace(_First, _Last, _Ilist.begin(), _Ilist.end()));
; 987  : 		}
; 988  : 
; 989  : 	~basic_string() _NOEXCEPT
; 990  : 		{	// destroy the string
; 991  : 		_Tidy(true);
; 992  : 		}
; 993  : 
; 994  : 	_PGLOBAL static const size_type npos;	// bad/missing length/position
; 995  : 
; 996  : 	_Myt& operator=(const _Myt& _Right)
; 997  : 		{	// assign _Right
; 998  : 		if (this != &_Right)
; 999  : 			{	// different, assign it
; 1000 : 			if (this->_Getal() != _Right._Getal()
; 1001 : 				&& _Alty::propagate_on_container_copy_assignment::value)
; 1002 : 				{	// change allocator before copying
; 1003 : 				_Tidy(true);
; 1004 : 				this->_Change_alloc(_Right._Getal());
; 1005 : 				}
; 1006 : 
; 1007 : 			assign(_Right);
; 1008 : 			}
; 1009 : 		return (*this);
; 1010 : 		}
; 1011 : 
; 1012 : 	_Myt& operator=(const _Elem *_Ptr)
; 1013 : 		{	// assign [_Ptr, <null>)
; 1014 : 		return (assign(_Ptr));
; 1015 : 		}
; 1016 : 
; 1017 : 	_Myt& operator=(_Elem _Ch)
; 1018 : 		{	// assign 1 * _Ch
; 1019 : 		return (assign(1, _Ch));
; 1020 : 		}
; 1021 : 
; 1022 : 	_Myt& operator+=(const _Myt& _Right)
; 1023 : 		{	// append _Right
; 1024 : 		return (append(_Right));
; 1025 : 		}
; 1026 : 
; 1027 : 	_Myt& operator+=(const _Elem *_Ptr)
; 1028 : 		{	// append [_Ptr, <null>)
; 1029 : 		return (append(_Ptr));
; 1030 : 		}
; 1031 : 
; 1032 : 	_Myt& operator+=(_Elem _Ch)
; 1033 : 		{	// append 1 * _Ch
; 1034 : 		return (append((size_type)1, _Ch));
; 1035 : 		}
; 1036 : 
; 1037 : 	_Myt& append(const _Myt& _Right)
; 1038 : 		{	// append _Right
; 1039 : 		return (append(_Right, 0, npos));
; 1040 : 		}
; 1041 : 
; 1042 : 	_Myt& append(const _Myt& _Right,
; 1043 : 		size_type _Roff, size_type _Count)
; 1044 : 		{	// append _Right [_Roff, _Roff + _Count)
; 1045 : 		if (_Right.size() < _Roff)
; 1046 : 			_Xran();	// _Roff off end
; 1047 : 		size_type _Num = _Right.size() - _Roff;
; 1048 : 		if (_Num < _Count)
; 1049 : 			_Count = _Num;	// trim _Count to size
; 1050 : 		if (npos - this->_Mysize <= _Count)
; 1051 : 			_Xlen();	// result too long
; 1052 : 
; 1053 : 		if (0 < _Count && _Grow(_Num = this->_Mysize + _Count))
; 1054 : 			{	// make room and append new stuff
; 1055 : 			_Traits::copy(this->_Myptr() + this->_Mysize,
; 1056 : 				_Right._Myptr() + _Roff, _Count);
; 1057 : 			_Eos(_Num);
; 1058 : 			}
; 1059 : 		return (*this);
; 1060 : 		}
; 1061 : 
; 1062 : 	_Myt& append(const _Elem *_Ptr, size_type _Count)
; 1063 : 		{	// append [_Ptr, _Ptr + _Count)
; 1064 :  #if _ITERATOR_DEBUG_LEVEL == 2
; 1065 : 		if (_Count != 0)
; 1066 : 			_DEBUG_POINTER(_Ptr);
; 1067 :  #endif /* _ITERATOR_DEBUG_LEVEL == 2 */
; 1068 : 
; 1069 : 		if (_Inside(_Ptr))
; 1070 : 			return (append(*this,
; 1071 : 				_Ptr - this->_Myptr(), _Count));	// substring
; 1072 : 		if (npos - this->_Mysize <= _Count)
; 1073 : 			_Xlen();	// result too long
; 1074 : 
; 1075 : 		size_type _Num;
; 1076 : 		if (0 < _Count && _Grow(_Num = this->_Mysize + _Count))
; 1077 : 			{	// make room and append new stuff
; 1078 : 			_Traits::copy(this->_Myptr() + this->_Mysize, _Ptr, _Count);
; 1079 : 			_Eos(_Num);
; 1080 : 			}
; 1081 : 		return (*this);
; 1082 : 		}
; 1083 : 
; 1084 : 	_Myt& append(const _Elem *_Ptr)
; 1085 : 		{	// append [_Ptr, <null>)
; 1086 : 		_DEBUG_POINTER(_Ptr);
; 1087 : 		return (append(_Ptr, _Traits::length(_Ptr)));
; 1088 : 		}
; 1089 : 
; 1090 : 	_Myt& append(size_type _Count, _Elem _Ch)
; 1091 : 		{	// append _Count * _Ch
; 1092 : 		if (npos - this->_Mysize <= _Count)
; 1093 : 			_Xlen();	// result too long
; 1094 : 
; 1095 : 		size_type _Num;
; 1096 : 		if (0 < _Count && _Grow(_Num = this->_Mysize + _Count))
; 1097 : 			{	// make room and append new stuff using assign
; 1098 : 			_Chassign(this->_Mysize, _Count, _Ch);
; 1099 : 			_Eos(_Num);
; 1100 : 			}
; 1101 : 		return (*this);
; 1102 : 		}
; 1103 : 
; 1104 : 	template<class _Iter>
; 1105 : 		typename enable_if<_Is_iterator<_Iter>::value,
; 1106 : 			_Myt&>::type
; 1107 : 		append(_Iter _First, _Iter _Last)
; 1108 : 		{	// append [_First, _Last), input iterators
; 1109 : 		return (replace(end(), end(), _First, _Last));
; 1110 : 		}
; 1111 : 
; 1112 : 	_Myt& append(const_pointer _First, const_pointer _Last)
; 1113 : 		{	// append [_First, _Last), const pointers
; 1114 : 		return (replace(end(), end(), _First, _Last));
; 1115 : 		}
; 1116 : 
; 1117 : 	_Myt& append(const_iterator _First, const_iterator _Last)
; 1118 : 		{	// append [_First, _Last), const_iterators
; 1119 : 		return (replace(end(), end(), _First, _Last));
; 1120 : 		}
; 1121 : 
; 1122 : 	_Myt& assign(const _Myt& _Right)
; 1123 : 		{	// assign _Right
; 1124 : 		return (assign(_Right, 0, npos));
; 1125 : 		}
; 1126 : 
; 1127 : 	_Myt& assign(const _Myt& _Right,
; 1128 : 		size_type _Roff, size_type _Count)
; 1129 : 		{	// assign _Right [_Roff, _Roff + _Count)
; 1130 : 		if (_Right.size() < _Roff)
; 1131 : 			_Xran();	// _Roff off end
; 1132 : 		size_type _Num = _Right.size() - _Roff;
; 1133 : 		if (_Count < _Num)
; 1134 : 			_Num = _Count;	// trim _Num to size
; 1135 : 
; 1136 : 		if (this == &_Right)
; 1137 : 			erase((size_type)(_Roff + _Num)), erase(0, _Roff);	// substring
; 1138 : 		else if (_Grow(_Num))
; 1139 : 			{	// make room and assign new stuff
; 1140 : 			_Traits::copy(this->_Myptr(),
; 1141 : 				_Right._Myptr() + _Roff, _Num);
; 1142 : 			_Eos(_Num);
; 1143 : 			}
; 1144 : 		return (*this);
; 1145 : 		}
; 1146 : 
; 1147 : 	_Myt& assign(const _Elem *_Ptr, size_type _Count)
; 1148 : 		{	// assign [_Ptr, _Ptr + _Count)
; 1149 :  #if _ITERATOR_DEBUG_LEVEL == 2
; 1150 : 		if (_Count != 0)
; 1151 : 			_DEBUG_POINTER(_Ptr);
; 1152 :  #endif /* _ITERATOR_DEBUG_LEVEL == 2 */
; 1153 : 
; 1154 : 		if (_Inside(_Ptr))
; 1155 : 			return (assign(*this,
; 1156 : 				_Ptr - this->_Myptr(), _Count));	// substring
; 1157 : 
; 1158 : 		if (_Grow(_Count))
; 1159 : 			{	// make room and assign new stuff
; 1160 : 			_Traits::copy(this->_Myptr(), _Ptr, _Count);
; 1161 : 			_Eos(_Count);
; 1162 : 			}
; 1163 : 		return (*this);
; 1164 : 		}
; 1165 : 
; 1166 : 	_Myt& assign(const _Elem *_Ptr)
; 1167 : 		{	// assign [_Ptr, <null>)
; 1168 : 		_DEBUG_POINTER(_Ptr);
; 1169 : 		return (assign(_Ptr, _Traits::length(_Ptr)));
; 1170 : 		}
; 1171 : 
; 1172 : 	_Myt& assign(size_type _Count, _Elem _Ch)
; 1173 : 		{	// assign _Count * _Ch
; 1174 : 		if (_Count == npos)
; 1175 : 			_Xlen();	// result too long
; 1176 : 
; 1177 : 		if (_Grow(_Count))
; 1178 : 			{	// make room and assign new stuff
; 1179 : 			_Chassign(0, _Count, _Ch);
; 1180 : 			_Eos(_Count);
; 1181 : 			}
; 1182 : 		return (*this);
; 1183 : 		}
; 1184 : 
; 1185 : 	template<class _Iter>
; 1186 : 		typename enable_if<_Is_iterator<_Iter>::value,
; 1187 : 			_Myt&>::type
; 1188 : 		assign(_Iter _First, _Iter _Last)
; 1189 : 		{	// assign [_First, _Last), input iterators
; 1190 : 		return (replace(begin(), end(), _First, _Last));
; 1191 : 		}
; 1192 : 
; 1193 : 	_Myt& assign(const_pointer _First, const_pointer _Last)
; 1194 : 		{	// assign [_First, _Last), const pointers
; 1195 : 		return (replace(begin(), end(), _First, _Last));
; 1196 : 		}
; 1197 : 
; 1198 : 	_Myt& assign(const_iterator _First, const_iterator _Last)
; 1199 : 		{	// assign [_First, _Last), const_iterators
; 1200 : 		return (replace(begin(), end(), _First, _Last));
; 1201 : 		}
; 1202 : 
; 1203 : 	_Myt& insert(size_type _Off, const _Myt& _Right)
; 1204 : 		{	// insert _Right at _Off
; 1205 : 		return (insert(_Off, _Right, 0, npos));
; 1206 : 		}
; 1207 : 
; 1208 : 	_Myt& insert(size_type _Off,
; 1209 : 		const _Myt& _Right, size_type _Roff, size_type _Count)
; 1210 : 		{	// insert _Right [_Roff, _Roff + _Count) at _Off
; 1211 : 		if (this->_Mysize < _Off || _Right.size() < _Roff)
; 1212 : 			_Xran();	// _Off or _Roff off end
; 1213 : 		size_type _Num = _Right.size() - _Roff;
; 1214 : 		if (_Num < _Count)
; 1215 : 			_Count = _Num;	// trim _Count to size
; 1216 : 		if (npos - this->_Mysize <= _Count)
; 1217 : 			_Xlen();	// result too long
; 1218 : 
; 1219 : 		if (0 < _Count && _Grow(_Num = this->_Mysize + _Count))
; 1220 : 			{	// make room and insert new stuff
; 1221 : 			_Traits::move(this->_Myptr() + _Off + _Count,
; 1222 : 				this->_Myptr() + _Off,
; 1223 : 				this->_Mysize - _Off);	// empty out hole
; 1224 : 			if (this == &_Right)
; 1225 : 				_Traits::move(this->_Myptr() + _Off,
; 1226 : 					this->_Myptr() + (_Off < _Roff ? _Roff + _Count : _Roff),
; 1227 : 						_Count);	// substring
; 1228 : 			else
; 1229 : 				_Traits::copy(this->_Myptr() + _Off,
; 1230 : 					_Right._Myptr() + _Roff, _Count);	// fill hole
; 1231 : 			_Eos(_Num);
; 1232 : 			}
; 1233 : 		return (*this);
; 1234 : 		}
; 1235 : 
; 1236 : 	_Myt& insert(size_type _Off,
; 1237 : 		const _Elem *_Ptr, size_type _Count)
; 1238 : 		{	// insert [_Ptr, _Ptr + _Count) at _Off
; 1239 :  #if _ITERATOR_DEBUG_LEVEL == 2
; 1240 : 		if (_Count != 0)
; 1241 : 			_DEBUG_POINTER(_Ptr);
; 1242 :  #endif /* _ITERATOR_DEBUG_LEVEL == 2 */
; 1243 : 
; 1244 : 		if (_Inside(_Ptr))
; 1245 : 			return (insert(_Off, *this,
; 1246 : 				_Ptr - this->_Myptr(), _Count));	// substring
; 1247 : 		if (this->_Mysize < _Off)
; 1248 : 			_Xran();	// _Off off end
; 1249 : 		if (npos - this->_Mysize <= _Count)
; 1250 : 			_Xlen();	// result too long
; 1251 : 		size_type _Num;
; 1252 : 		if (0 < _Count && _Grow(_Num = this->_Mysize + _Count))
; 1253 : 			{	// make room and insert new stuff
; 1254 : 			_Traits::move(this->_Myptr() + _Off + _Count,
; 1255 : 				this->_Myptr() + _Off,
; 1256 : 				this->_Mysize - _Off);	// empty out hole
; 1257 : 			_Traits::copy(this->_Myptr() + _Off, _Ptr, _Count);	// fill hole
; 1258 : 			_Eos(_Num);
; 1259 : 			}
; 1260 : 		return (*this);
; 1261 : 		}
; 1262 : 
; 1263 : 	_Myt& insert(size_type _Off, const _Elem *_Ptr)
; 1264 : 		{	// insert [_Ptr, <null>) at _Off
; 1265 : 		_DEBUG_POINTER(_Ptr);
; 1266 : 		return (insert(_Off, _Ptr, _Traits::length(_Ptr)));
; 1267 : 		}
; 1268 : 
; 1269 : 	_Myt& insert(size_type _Off,
; 1270 : 		size_type _Count, _Elem _Ch)
; 1271 : 		{	// insert _Count * _Ch at _Off
; 1272 : 		if (this->_Mysize < _Off)
; 1273 : 			_Xran();	// _Off off end
; 1274 : 		if (npos - this->_Mysize <= _Count)
; 1275 : 			_Xlen();	// result too long
; 1276 : 		size_type _Num;
; 1277 : 		if (0 < _Count && _Grow(_Num = this->_Mysize + _Count))
; 1278 : 			{	// make room and insert new stuff
; 1279 : 			_Traits::move(this->_Myptr() + _Off + _Count,
; 1280 : 				this->_Myptr() + _Off,
; 1281 : 				this->_Mysize - _Off);	// empty out hole
; 1282 : 			_Chassign(_Off, _Count, _Ch);	// fill hole
; 1283 : 			_Eos(_Num);
; 1284 : 			}
; 1285 : 		return (*this);
; 1286 : 		}
; 1287 : 
; 1288 : 	iterator insert(const_iterator _Where)
; 1289 : 		{	// insert <null> at _Where
; 1290 : 		return (insert(_Where, _Elem()));
; 1291 : 		}
; 1292 : 
; 1293 : 	iterator insert(const_iterator _Where, _Elem _Ch)
; 1294 : 		{	// insert _Ch at _Where
; 1295 : 		size_type _Off = _Pdif(_Where, begin());
; 1296 : 		insert(_Off, 1, _Ch);
; 1297 : 		return (begin() + _Off);
; 1298 : 		}
; 1299 : 
; 1300 : 	iterator insert(const_iterator _Where, size_type _Count, _Elem _Ch)
; 1301 : 		{	// insert _Count * _Elem at _Where
; 1302 : 		size_type _Off = _Pdif(_Where, begin());
; 1303 : 		insert(_Off, _Count, _Ch);
; 1304 : 		return (begin() + _Off);
; 1305 : 		}
; 1306 : 
; 1307 : 	template<class _Iter>
; 1308 : 		typename enable_if<_Is_iterator<_Iter>::value,
; 1309 : 			iterator>::type
; 1310 : 		insert(const_iterator _Where, _Iter _First, _Iter _Last)
; 1311 : 		{	// insert [_First, _Last) at _Where, input iterators
; 1312 : 		size_type _Off = _Pdif(_Where, begin());
; 1313 : 		replace(_Where, _Where, _First, _Last);
; 1314 : 		return (begin() + _Off);
; 1315 : 		}
; 1316 : 
; 1317 : 	iterator insert(const_iterator _Where,
; 1318 : 		const_pointer _First, const_pointer _Last)
; 1319 : 		{	// insert [_First, _Last) at _Where, const pointers
; 1320 : 		size_type _Off = _Pdif(_Where, begin());
; 1321 : 		replace(_Where, _Where, _First, _Last);
; 1322 : 		return (begin() + _Off);
; 1323 : 		}
; 1324 : 
; 1325 : 	iterator insert(const_iterator _Where,
; 1326 : 		const_iterator _First, const_iterator _Last)
; 1327 : 		{	// insert [_First, _Last) at _Where, const_iterators
; 1328 : 		size_type _Off = _Pdif(_Where, begin());
; 1329 : 		replace(_Where, _Where, _First, _Last);
; 1330 : 		return (begin() + _Off);
; 1331 : 		}
; 1332 : 
; 1333 : 	_Myt& erase(size_type _Off = 0)
; 1334 : 		{	// erase elements [_Off, ...)
; 1335 : 		if (this->_Mysize < _Off)
; 1336 : 			_Xran();	// _Off off end
; 1337 : 		_Eos(_Off);
; 1338 : 		return (*this);
; 1339 : 		}
; 1340 : 
; 1341 : 	_Myt& erase(size_type _Off, size_type _Count)
; 1342 : 		{	// erase elements [_Off, _Off + _Count)
; 1343 : 		if (this->_Mysize < _Off)
; 1344 : 			_Xran();	// _Off off end
; 1345 : 		if (this->_Mysize - _Off <= _Count)
; 1346 : 			_Eos(_Off);	// erase elements [_Off, ...)
; 1347 : 		else if (0 < _Count)
; 1348 : 			{	// move elements down
; 1349 : 			value_type *_Ptr = this->_Myptr() + _Off;
; 1350 : 			size_type _Newsize = this->_Mysize - _Count;
; 1351 : 			_Traits::move(_Ptr, _Ptr + _Count, _Newsize - _Off);
; 1352 : 			_Eos(_Newsize);
; 1353 : 			}
; 1354 : 		return (*this);
; 1355 : 		}
; 1356 : 
; 1357 : 	iterator erase(const_iterator _Where)
; 1358 : 		{	// erase element at _Where
; 1359 : 		size_type _Count = _Pdif(_Where, begin());
; 1360 : 		erase(_Count, 1);
; 1361 : 		return (_STRING_ITERATOR(this->_Myptr() + _Count));
; 1362 : 		}
; 1363 : 
; 1364 : 	iterator erase(const_iterator _First, const_iterator _Last)
; 1365 : 		{	// erase substring [_First, _Last)
; 1366 : 		_DEBUG_RANGE(_First, _Last);
; 1367 : 		size_type _Count = _Pdif(_First, begin());
; 1368 : 		erase(_Count, _Pdif(_Last, _First));
; 1369 : 		return (_STRING_ITERATOR(this->_Myptr() + _Count));
; 1370 : 		}
; 1371 : 
; 1372 : 	void clear() _NOEXCEPT
; 1373 : 		{	// erase all
; 1374 : 		_Eos(0);
; 1375 : 		}
; 1376 : 
; 1377 : 	_Myt& replace(size_type _Off, size_type _N0, const _Myt& _Right)
; 1378 : 		{	// replace [_Off, _Off + _N0) with _Right
; 1379 : 		return (replace(_Off, _N0, _Right, 0, npos));
; 1380 : 		}
; 1381 : 
; 1382 : 	_Myt& replace(size_type _Off,
; 1383 : 		size_type _N0, const _Myt& _Right, size_type _Roff, size_type _Count)
; 1384 : 		{	// replace [_Off, _Off + _N0) with _Right [_Roff, _Roff + _Count)
; 1385 : 		if (this->_Mysize < _Off || _Right.size() < _Roff)
; 1386 : 			_Xran();	// _Off or _Roff off end
; 1387 : 		if (this->_Mysize - _Off < _N0)
; 1388 : 			_N0 = this->_Mysize - _Off;	// trim _N0 to size
; 1389 : 		size_type _Num = _Right.size() - _Roff;
; 1390 : 		if (_Num < _Count)
; 1391 : 			_Count = _Num;	// trim _Count to size
; 1392 : 		if (npos - _Count <= this->_Mysize - _N0)
; 1393 : 			_Xlen();	// result too long
; 1394 : 
; 1395 : 		size_type _Nm = this->_Mysize - _N0 - _Off;	// length of kept tail
; 1396 : 		size_type _Newsize = this->_Mysize + _Count - _N0;
; 1397 : 		if (this->_Mysize < _Newsize)
; 1398 : 			_Grow(_Newsize);
; 1399 : 
; 1400 : 		if (this != &_Right)
; 1401 : 			{	// no overlap, just move down and copy in new stuff
; 1402 : 			_Traits::move(this->_Myptr() + _Off + _Count,
; 1403 : 				this->_Myptr() + _Off + _N0, _Nm);	// empty hole
; 1404 : 			_Traits::copy(this->_Myptr() + _Off,
; 1405 : 				_Right._Myptr() + _Roff, _Count);	// fill hole
; 1406 : 			}
; 1407 : 		else if (_Count <= _N0)
; 1408 : 			{	// hole doesn't get larger, just copy in substring
; 1409 : 			_Traits::move(this->_Myptr() + _Off,
; 1410 : 				this->_Myptr() + _Roff, _Count);	// fill hole
; 1411 : 			_Traits::move(this->_Myptr() + _Off + _Count,
; 1412 : 				this->_Myptr() + _Off + _N0, _Nm);	// move tail down
; 1413 : 			}
; 1414 : 		else if (_Roff <= _Off)
; 1415 : 			{	// hole gets larger, substring begins before hole
; 1416 : 			_Traits::move(this->_Myptr() + _Off + _Count,
; 1417 : 				this->_Myptr() + _Off + _N0, _Nm);	// move tail down
; 1418 : 			_Traits::move(this->_Myptr() + _Off,
; 1419 : 				this->_Myptr() + _Roff, _Count);	// fill hole
; 1420 : 			}
; 1421 : 		else if (_Off + _N0 <= _Roff)
; 1422 : 			{	// hole gets larger, substring begins after hole
; 1423 : 			_Traits::move(this->_Myptr() + _Off + _Count,
; 1424 : 				this->_Myptr() + _Off + _N0, _Nm);	// move tail down
; 1425 : 			_Traits::move(this->_Myptr() + _Off,
; 1426 : 				this->_Myptr() + (_Roff + _Count - _N0),
; 1427 : 				_Count);	// fill hole
; 1428 : 			}
; 1429 : 		else
; 1430 : 			{	// hole gets larger, substring begins in hole
; 1431 : 			_Traits::move(this->_Myptr() + _Off,
; 1432 : 				this->_Myptr() + _Roff, _N0);	// fill old hole
; 1433 : 			_Traits::move(this->_Myptr() + _Off + _Count,
; 1434 : 				this->_Myptr() + _Off + _N0, _Nm);	// move tail down
; 1435 : 			_Traits::move(this->_Myptr() + _Off + _N0,
; 1436 : 				this->_Myptr() + _Roff + _Count,
; 1437 : 				_Count - _N0);	// fill rest of new hole
; 1438 : 			}
; 1439 : 
; 1440 : 		_Eos(_Newsize);
; 1441 : 		return (*this);
; 1442 : 		}
; 1443 : 
; 1444 : 	_Myt& replace(size_type _Off,
; 1445 : 		size_type _N0, const _Elem *_Ptr, size_type _Count)
; 1446 : 		{	// replace [_Off, _Off + _N0) with [_Ptr, _Ptr + _Count)
; 1447 :  #if _ITERATOR_DEBUG_LEVEL == 2
; 1448 : 		if (_Count != 0)
; 1449 : 			_DEBUG_POINTER(_Ptr);
; 1450 :  #endif /* _ITERATOR_DEBUG_LEVEL == 2 */
; 1451 : 
; 1452 : 		if (_Inside(_Ptr))
; 1453 : 			return (replace(_Off, _N0, *this,
; 1454 : 				_Ptr - this->_Myptr(),
; 1455 : 				_Count));	// substring, replace carefully
; 1456 : 		if (this->_Mysize < _Off)
; 1457 : 			_Xran();	// _Off off end
; 1458 : 		if (this->_Mysize - _Off < _N0)
; 1459 : 			_N0 = this->_Mysize - _Off;	// trim _N0 to size
; 1460 : 		if (npos - _Count <= this->_Mysize - _N0)
; 1461 : 			_Xlen();	// result too long
; 1462 : 		size_type _Nm = this->_Mysize - _N0 - _Off;
; 1463 : 
; 1464 : 		if (_Count < _N0)
; 1465 : 			_Traits::move(this->_Myptr() + _Off + _Count,
; 1466 : 				this->_Myptr() + _Off + _N0,
; 1467 : 				_Nm);	// smaller hole, move tail up
; 1468 : 		size_type _Num;
; 1469 : 		if ((0 < _Count || 0 < _N0)
; 1470 : 			&& _Grow(_Num = this->_Mysize + _Count - _N0))
; 1471 : 			{	// make room and rearrange
; 1472 : 			if (_N0 < _Count)
; 1473 : 				_Traits::move(this->_Myptr() + _Off + _Count,
; 1474 : 					this->_Myptr() + _Off + _N0, _Nm);	// move tail down
; 1475 : 			_Traits::copy(this->_Myptr() + _Off, _Ptr, _Count);	// fill hole
; 1476 : 			_Eos(_Num);
; 1477 : 			}
; 1478 : 		return (*this);
; 1479 : 		}
; 1480 : 
; 1481 : 	_Myt& replace(size_type _Off, size_type _N0, const _Elem *_Ptr)
; 1482 : 		{	// replace [_Off, _Off + _N0) with [_Ptr, <null>)
; 1483 : 		_DEBUG_POINTER(_Ptr);
; 1484 : 		return (replace(_Off, _N0, _Ptr, _Traits::length(_Ptr)));
; 1485 : 		}
; 1486 : 
; 1487 : 	_Myt& replace(size_type _Off,
; 1488 : 		size_type _N0, size_type _Count, _Elem _Ch)
; 1489 : 		{	// replace [_Off, _Off + _N0) with _Count * _Ch
; 1490 : 		if (this->_Mysize < _Off)
; 1491 : 			_Xran();	// _Off off end
; 1492 : 		if (this->_Mysize - _Off < _N0)
; 1493 : 			_N0 = this->_Mysize - _Off;	// trim _N0 to size
; 1494 : 		if (npos - _Count <= this->_Mysize - _N0)
; 1495 : 			_Xlen();	// result too long
; 1496 : 		size_type _Nm = this->_Mysize - _N0 - _Off;
; 1497 : 
; 1498 : 		if (_Count < _N0)
; 1499 : 			_Traits::move(this->_Myptr() + _Off + _Count,
; 1500 : 				this->_Myptr() + _Off + _N0,
; 1501 : 				_Nm);	// smaller hole, move tail up
; 1502 : 		size_type _Num;
; 1503 : 		if ((0 < _Count || 0 < _N0)
; 1504 : 			&& _Grow(_Num = this->_Mysize + _Count - _N0))
; 1505 : 			{	// make room and rearrange
; 1506 : 			if (_N0 < _Count)
; 1507 : 				_Traits::move(this->_Myptr() + _Off + _Count,
; 1508 : 					this->_Myptr() + _Off + _N0, _Nm);	// move tail down
; 1509 : 			_Chassign(_Off, _Count, _Ch);	// fill hole
; 1510 : 			_Eos(_Num);
; 1511 : 			}
; 1512 : 		return (*this);
; 1513 : 		}
; 1514 : 
; 1515 : 	_Myt& replace(const_iterator _First, const_iterator _Last,
; 1516 : 		const _Myt& _Right)
; 1517 : 		{	// replace [_First, _Last) with _Right
; 1518 : 		return (replace(
; 1519 : 			_Pdif(_First, begin()), _Pdif(_Last, _First), _Right));
; 1520 : 		}
; 1521 : 
; 1522 : 	_Myt& replace(const_iterator _First, const_iterator _Last,
; 1523 : 		const _Elem *_Ptr, size_type _Count)
; 1524 : 		{	// replace [_First, _Last) with [_Ptr, _Ptr + _Count)
; 1525 : 		return (replace(
; 1526 : 			_Pdif(_First, begin()), _Pdif(_Last, _First), _Ptr, _Count));
; 1527 : 		}
; 1528 : 
; 1529 : 	_Myt& replace(const_iterator _First, const_iterator _Last,
; 1530 : 		const _Elem *_Ptr)
; 1531 : 		{	// replace [_First, _Last) with [_Ptr, <null>)
; 1532 : 		return (replace(
; 1533 : 			_Pdif(_First, begin()), _Pdif(_Last, _First), _Ptr));
; 1534 : 		}
; 1535 : 
; 1536 : 	_Myt& replace(const_iterator _First, const_iterator _Last,
; 1537 : 		size_type _Count, _Elem _Ch)
; 1538 : 		{	// replace [_First, _Last) with _Count * _Ch
; 1539 : 		return (replace(
; 1540 : 			_Pdif(_First, begin()), _Pdif(_Last, _First), _Count, _Ch));
; 1541 : 		}
; 1542 : 
; 1543 : 	template<class _Iter>
; 1544 : 		typename enable_if<_Is_iterator<_Iter>::value,
; 1545 : 			_Myt&>::type
; 1546 : 		replace(const_iterator _First, const_iterator _Last,
; 1547 : 			_Iter _First2, _Iter _Last2)
; 1548 : 		{	// replace [_First, _Last) with [_First2, _Last2), input iterators
; 1549 : 		_Myt _Right(_First2, _Last2);
; 1550 : 		replace(_First, _Last, _Right);
; 1551 : 		return (*this);
; 1552 : 		}
; 1553 : 
; 1554 : 	_Myt& replace(const_iterator _First, const_iterator _Last,
; 1555 : 		const_pointer _First2, const_pointer _Last2)
; 1556 : 		{	// replace [_First, _Last) with [_First2, _Last2), const pointers
; 1557 : 		if (_First2 == _Last2)
; 1558 : 			erase(_Pdif(_First, begin()), _Pdif(_Last, _First));
; 1559 : 		else
; 1560 : 			replace(_Pdif(_First, begin()), _Pdif(_Last, _First),
; 1561 : 				&*_First2, _Last2 - _First2);
; 1562 : 		return (*this);
; 1563 : 		}
; 1564 : 
; 1565 : 	_Myt& replace(const_iterator _First, const_iterator _Last,
; 1566 : 		pointer _First2, pointer _Last2)
; 1567 : 		{	// replace [_First, _Last) with [_First2, _Last2), const pointers
; 1568 : 		if (_First2 == _Last2)
; 1569 : 			erase(_Pdif(_First, begin()), _Pdif(_Last, _First));
; 1570 : 		else
; 1571 : 			replace(_Pdif(_First, begin()), _Pdif(_Last, _First),
; 1572 : 				&*_First2, _Last2 - _First2);
; 1573 : 		return (*this);
; 1574 : 		}
; 1575 : 
; 1576 : 	_Myt& replace(const_iterator _First, const_iterator _Last,
; 1577 : 		const_iterator _First2, const_iterator _Last2)
; 1578 : 		{	// replace [_First, _Last) with [_First2, _Last2), const_iterators
; 1579 : 		if (_First2 == _Last2)
; 1580 : 			erase(_Pdif(_First, begin()), _Pdif(_Last, _First));
; 1581 : 		else
; 1582 : 			replace(_Pdif(_First, begin()), _Pdif(_Last, _First),
; 1583 : 				&*_First2, _Last2 - _First2);
; 1584 : 		return (*this);
; 1585 : 		}
; 1586 : 
; 1587 : 	_Myt& replace(const_iterator _First, const_iterator _Last,
; 1588 : 		iterator _First2, iterator _Last2)
; 1589 : 		{	// replace [_First, _Last) with [_First2, _Last2), const_iterators
; 1590 : 		if (_First2 == _Last2)
; 1591 : 			erase(_Pdif(_First, begin()), _Pdif(_Last, _First));
; 1592 : 		else
; 1593 : 			replace(_Pdif(_First, begin()), _Pdif(_Last, _First),
; 1594 : 				&*_First2, _Last2 - _First2);
; 1595 : 		return (*this);
; 1596 : 		}
; 1597 : 
; 1598 : 	iterator begin() _NOEXCEPT
; 1599 : 		{	// return iterator for beginning of mutable sequence
; 1600 : 		return (_STRING_ITERATOR(this->_Myptr()));
; 1601 : 		}
; 1602 : 
; 1603 : 	const_iterator begin() const _NOEXCEPT
; 1604 : 		{	// return iterator for beginning of nonmutable sequence
; 1605 : 		return (_STRING_CONST_ITERATOR(this->_Myptr()));
; 1606 : 		}
; 1607 : 
; 1608 : 	iterator end() _NOEXCEPT
; 1609 : 		{	// return iterator for end of mutable sequence
; 1610 : 		return (_STRING_ITERATOR(this->_Myptr() + this->_Mysize));
; 1611 : 		}
; 1612 : 
; 1613 : 	const_iterator end() const _NOEXCEPT
; 1614 : 		{	// return iterator for end of nonmutable sequence
; 1615 : 		return (_STRING_CONST_ITERATOR(this->_Myptr() + this->_Mysize));
; 1616 : 		}
; 1617 : 
; 1618 : 	reverse_iterator rbegin() _NOEXCEPT
; 1619 : 		{	// return iterator for beginning of reversed mutable sequence
; 1620 : 		return (reverse_iterator(end()));
; 1621 : 		}
; 1622 : 
; 1623 : 	const_reverse_iterator rbegin() const _NOEXCEPT
; 1624 : 		{	// return iterator for beginning of reversed nonmutable sequence
; 1625 : 		return (const_reverse_iterator(end()));
; 1626 : 		}
; 1627 : 
; 1628 : 	reverse_iterator rend() _NOEXCEPT
; 1629 : 		{	// return iterator for end of reversed mutable sequence
; 1630 : 		return (reverse_iterator(begin()));
; 1631 : 		}
; 1632 : 
; 1633 : 	const_reverse_iterator rend() const _NOEXCEPT
; 1634 : 		{	// return iterator for end of reversed nonmutable sequence
; 1635 : 		return (const_reverse_iterator(begin()));
; 1636 : 		}
; 1637 : 
; 1638 : 	const_iterator cbegin() const _NOEXCEPT
; 1639 : 		{	// return iterator for beginning of nonmutable sequence
; 1640 : 		return (((const _Myt *)this)->begin());
; 1641 : 		}
; 1642 : 
; 1643 : 	const_iterator cend() const _NOEXCEPT
; 1644 : 		{	// return iterator for end of nonmutable sequence
; 1645 : 		return (((const _Myt *)this)->end());
; 1646 : 		}
; 1647 : 
; 1648 : 	const_reverse_iterator crbegin() const _NOEXCEPT
; 1649 : 		{	// return iterator for beginning of reversed nonmutable sequence
; 1650 : 		return (((const _Myt *)this)->rbegin());
; 1651 : 		}
; 1652 : 
; 1653 : 	const_reverse_iterator crend() const _NOEXCEPT
; 1654 : 		{	// return iterator for end of reversed nonmutable sequence
; 1655 : 		return (((const _Myt *)this)->rend());
; 1656 : 		}
; 1657 : 
; 1658 : 	void shrink_to_fit()
; 1659 : 		{	// reduce capacity
; 1660 : 		if ((size() | this->_ALLOC_MASK) < capacity())
; 1661 : 			{	// worth shrinking, do it
; 1662 : 			_Myt _Tmp(*this);
; 1663 : 			swap(_Tmp);
; 1664 : 			}
; 1665 : 		}
; 1666 : 
; 1667 : 	reference at(size_type _Off)
; 1668 : 		{	// subscript mutable sequence with checking
; 1669 : 		if (this->_Mysize <= _Off)
; 1670 : 			_Xran();	// _Off off end
; 1671 : 		return (this->_Myptr()[_Off]);
; 1672 : 		}
; 1673 : 
; 1674 : 	const_reference at(size_type _Off) const
; 1675 : 		{	// subscript nonmutable sequence with checking
; 1676 : 		if (this->_Mysize <= _Off)
; 1677 : 			_Xran();	// _Off off end
; 1678 : 		return (this->_Myptr()[_Off]);
; 1679 : 		}
; 1680 : 
; 1681 : 	reference operator[](size_type _Off)
; 1682 : 		{	// subscript mutable sequence
; 1683 :  #if _ITERATOR_DEBUG_LEVEL == 2
; 1684 : 		if (this->_Mysize < _Off)	// sic
; 1685 : 			_DEBUG_ERROR("string subscript out of range");
; 1686 : 
; 1687 :  #elif _ITERATOR_DEBUG_LEVEL == 1
; 1688 : 		_SCL_SECURE_VALIDATE_RANGE(_Off <= this->_Mysize);	// sic
; 1689 :  #endif /* _ITERATOR_DEBUG_LEVEL == 2 */
; 1690 : 
; 1691 : 		return (this->_Myptr()[_Off]);
; 1692 : 		}
; 1693 : 
; 1694 : 	const_reference operator[](size_type _Off) const
; 1695 : 		{	// subscript nonmutable sequence
; 1696 :  #if _ITERATOR_DEBUG_LEVEL == 2
; 1697 : 		if (this->_Mysize < _Off)	// sic
; 1698 : 			_DEBUG_ERROR("string subscript out of range");
; 1699 : 
; 1700 :  #elif _ITERATOR_DEBUG_LEVEL == 1
; 1701 : 		_SCL_SECURE_VALIDATE_RANGE(_Off <= this->_Mysize);	// sic
; 1702 :  #endif /* _ITERATOR_DEBUG_LEVEL == 2 */
; 1703 : 
; 1704 : 		return (this->_Myptr()[_Off]);
; 1705 : 		}
; 1706 : 
; 1707 : 	void push_back(_Elem _Ch)
; 1708 : 		{	// insert element at end
; 1709 : 		insert(end(), _Ch);
; 1710 : 		}
; 1711 : 
; 1712 : 	void pop_back()
; 1713 : 		{	// erase element at end
; 1714 : 		erase(this->_Mysize - 1);	// throws if _Mysize == 0
; 1715 : 		}
; 1716 : 
; 1717 : 	reference front()
; 1718 : 		{	// return first element of mutable sequence
; 1719 : 		return (*begin());
; 1720 : 		}
; 1721 : 
; 1722 : 	const_reference front() const
; 1723 : 		{	// return first element of nonmutable sequence
; 1724 : 		return (*begin());
; 1725 : 		}
; 1726 : 
; 1727 : 	reference back()
; 1728 : 		{	// return last element of mutable sequence
; 1729 : 		return (*(end() - 1));
; 1730 : 		}
; 1731 : 
; 1732 : 	const_reference back() const
; 1733 : 		{	// return last element of nonmutable sequence
; 1734 : 		return (*(end() - 1));
; 1735 : 		}
; 1736 : 
; 1737 : 	const _Elem *c_str() const _NOEXCEPT
; 1738 : 		{	// return pointer to null-terminated nonmutable array
; 1739 : 		return (this->_Myptr());
; 1740 : 		}
; 1741 : 
; 1742 : 	const _Elem *data() const _NOEXCEPT
; 1743 : 		{	// return pointer to nonmutable array
; 1744 : 		return (c_str());
; 1745 : 		}
; 1746 : 
; 1747 : 	size_type length() const _NOEXCEPT
; 1748 : 		{	// return length of sequence
; 1749 : 		return (this->_Mysize);
; 1750 : 		}
; 1751 : 
; 1752 : 	size_type size() const _NOEXCEPT
; 1753 : 		{	// return length of sequence
; 1754 : 		return (this->_Mysize);
; 1755 : 		}
; 1756 : 
; 1757 : 	size_type max_size() const _NOEXCEPT
; 1758 : 		{	// return maximum possible length of sequence
; 1759 : 		size_type _Num = this->_Getal().max_size();
; 1760 : 		return (_Num <= 1 ? 1 : _Num - 1);
; 1761 : 		}
; 1762 : 
; 1763 : 	void resize(size_type _Newsize)
; 1764 : 		{	// determine new length, padding with null elements as needed
; 1765 : 		resize(_Newsize, _Elem());
; 1766 : 		}
; 1767 : 
; 1768 : 	void resize(size_type _Newsize, _Elem _Ch)
; 1769 : 		{	// determine new length, padding with _Ch elements as needed
; 1770 : 		if (_Newsize <= this->_Mysize)
; 1771 : 			_Eos(_Newsize);
; 1772 : 		else
; 1773 : 			append(_Newsize - this->_Mysize, _Ch);
; 1774 : 		}
; 1775 : 
; 1776 : 	size_type capacity() const _NOEXCEPT
; 1777 : 		{	// return current length of allocated storage
; 1778 : 		return (this->_Myres);
; 1779 : 		}
; 1780 : 
; 1781 : 	void reserve(size_type _Newcap = 0)
; 1782 : 		{	// determine new minimum length of allocated storage
; 1783 : 		if (this->_Mysize <= _Newcap && this->_Myres != _Newcap)
; 1784 : 			{	// change reservation
; 1785 : 			size_type _Size = this->_Mysize;
; 1786 : 			if (_Grow(_Newcap, true))
; 1787 : 				_Eos(_Size);
; 1788 : 			}
; 1789 : 		}
; 1790 : 
; 1791 : 	bool empty() const _NOEXCEPT
; 1792 : 		{	// test if sequence is empty
; 1793 : 		return (this->_Mysize == 0);
; 1794 : 		}
; 1795 : 
; 1796 : 	_SCL_INSECURE_DEPRECATE
; 1797 : 
; 1798 : 	size_type copy(_Elem *_Ptr,
; 1799 : 		size_type _Count, size_type _Off = 0) const
; 1800 : 		{	// copy [_Off, _Off + _Count) to [_Ptr, _Ptr + _Count)
; 1801 :  #if _ITERATOR_DEBUG_LEVEL == 2
; 1802 : 		if (_Count != 0)
; 1803 : 			_DEBUG_POINTER(_Ptr);
; 1804 :  #endif /* _ITERATOR_DEBUG_LEVEL == 2 */
; 1805 : 
; 1806 : 		if (this->_Mysize < _Off)
; 1807 : 			_Xran();	// _Off off end
; 1808 : 		if (this->_Mysize - _Off < _Count)
; 1809 : 			_Count = this->_Mysize - _Off;
; 1810 : 		_Traits::copy(_Ptr, this->_Myptr() + _Off, _Count);
; 1811 : 		return (_Count);
; 1812 : 		}
; 1813 : 
; 1814 : 	size_type _Copy_s(_Elem *_Dest, size_type _Dest_size,
; 1815 : 		size_type _Count, size_type _Off = 0) const
; 1816 : 		{	// copy [_Off, _Off + _Count) to [_Dest, _Dest + _Count)
; 1817 :  #if _ITERATOR_DEBUG_LEVEL == 2
; 1818 : 		if (_Count != 0)
; 1819 : 			_DEBUG_POINTER(_Dest);
; 1820 :  #endif /* _ITERATOR_DEBUG_LEVEL == 2 */
; 1821 : 
; 1822 : 		if (this->_Mysize < _Off)
; 1823 : 			_Xran();	// _Off off end
; 1824 : 		if (this->_Mysize - _Off < _Count)
; 1825 : 			_Count = this->_Mysize - _Off;
; 1826 : 		_Traits::_Copy_s(_Dest, _Dest_size, this->_Myptr() + _Off, _Count);
; 1827 : 		return (_Count);
; 1828 : 		}
; 1829 : 
; 1830 : 	void _Swap_bx(_Myt& _Right)
; 1831 : 		{	// exchange _Bx with _Right._Bx
; 1832 : 		if (this->_BUF_SIZE <= this->_Myres)
; 1833 : 			if (this->_BUF_SIZE <= _Right._Myres)
; 1834 : 				_Swap_adl(this->_Bx._Ptr, _Right._Bx._Ptr);
; 1835 : 			else
; 1836 : 				{	// swap large with small
; 1837 : 				pointer _Ptr = this->_Bx._Ptr;
; 1838 : 				this->_Getal().destroy(&this->_Bx._Ptr);
; 1839 : 				_Traits::copy(this->_Bx._Buf,
; 1840 : 					_Right._Bx._Buf, _Right._Mysize + 1);
; 1841 : 				this->_Getal().construct(&_Right._Bx._Ptr, _Ptr);
; 1842 : 				}
; 1843 : 		else
; 1844 : 			if (_Right._Myres < this->_BUF_SIZE)
; 1845 : 				_STD swap(this->_Bx._Buf, _Right._Bx._Buf);
; 1846 : 			else
; 1847 : 				{	// swap small with large
; 1848 : 				pointer _Ptr = _Right._Bx._Ptr;
; 1849 : 				this->_Getal().destroy(&_Right._Bx._Ptr);
; 1850 : 				_Traits::copy(_Right._Bx._Buf,
; 1851 : 					this->_Bx._Buf, this->_Mysize + 1);
; 1852 : 				this->_Getal().construct(&this->_Bx._Ptr, _Ptr);
; 1853 : 				}
; 1854 : 		}
; 1855 : 
; 1856 : 	void swap(_Myt& _Right)
; 1857 : 		{	// exchange contents with _Right
; 1858 : 		if (this == &_Right)
; 1859 : 			;	// same object, do nothing
; 1860 : 		else if (this->_Getal() == _Right._Getal())
; 1861 : 			{	// same allocator, swap control information
; 1862 : 			this->_Swap_all(_Right);
; 1863 : 			_Swap_bx(_Right);
; 1864 : 			_STD swap(this->_Mysize, _Right._Mysize);
; 1865 : 			_STD swap(this->_Myres, _Right._Myres);
; 1866 : 			}
; 1867 : 
; 1868 : 		else if (_Alty::propagate_on_container_swap::value)
; 1869 : 			{	// swap allocators and control information
; 1870 : 			this->_Swap_alloc(_Right);
; 1871 : 			_Swap_bx(_Right);
; 1872 : 			_STD swap(this->_Bx, _Right._Bx);	// pointer bitwise copyable?
; 1873 : 			_STD swap(this->_Mysize, _Right._Mysize);
; 1874 : 			_STD swap(this->_Myres, _Right._Myres);
; 1875 : 			}
; 1876 : 
; 1877 : 		else
; 1878 : 			{	// different allocator, do multiple assigns
; 1879 : 			_Myt _Tmp = *this;
; 1880 : 
; 1881 : 			*this = _Right;
; 1882 : 			_Right = _Tmp;
; 1883 : 			}
; 1884 : 		}
; 1885 : 
; 1886 : 	size_type find(const _Myt& _Right, size_type _Off = 0) const _NOEXCEPT
; 1887 : 		{	// look for _Right beginning at or after _Off
; 1888 : 		return (find(_Right._Myptr(), _Off, _Right.size()));
; 1889 : 		}
; 1890 : 
; 1891 : 	size_type find(const _Elem *_Ptr,
; 1892 : 		size_type _Off, size_type _Count) const
; 1893 : 		{	// look for [_Ptr, _Ptr + _Count) beginning at or after _Off
; 1894 :  #if _ITERATOR_DEBUG_LEVEL == 2
; 1895 : 		if (_Count != 0)
; 1896 : 			_DEBUG_POINTER(_Ptr);
; 1897 :  #endif /* _ITERATOR_DEBUG_LEVEL == 2 */
; 1898 : 
; 1899 : 		if (_Count == 0 && _Off <= this->_Mysize)
; 1900 : 			return (_Off);	// null string always matches (if inside string)
; 1901 : 
; 1902 : 		size_type _Nm;
; 1903 : 		if (_Off < this->_Mysize && _Count <= (_Nm = this->_Mysize - _Off))
; 1904 : 			{	// room for match, look for it
; 1905 : 			const _Elem *_Uptr, *_Vptr;
; 1906 : 			for (_Nm -= _Count - 1, _Vptr = this->_Myptr() + _Off;
; 1907 : 				(_Uptr = _Traits::find(_Vptr, _Nm, *_Ptr)) != 0;
; 1908 : 				_Nm -= _Uptr - _Vptr + 1, _Vptr = _Uptr + 1)
; 1909 : 				if (_Traits::compare(_Uptr, _Ptr, _Count) == 0)
; 1910 : 					return (_Uptr - this->_Myptr());	// found a match
; 1911 : 			}
; 1912 : 
; 1913 : 		return (npos);	// no match
; 1914 : 		}
; 1915 : 
; 1916 : 	size_type find(const _Elem *_Ptr, size_type _Off = 0) const
; 1917 : 		{	// look for [_Ptr, <null>) beginning at or after _Off
; 1918 : 		_DEBUG_POINTER(_Ptr);
; 1919 : 		return (find(_Ptr, _Off, _Traits::length(_Ptr)));
; 1920 : 		}
; 1921 : 
; 1922 : 	size_type find(_Elem _Ch, size_type _Off = 0) const
; 1923 : 		{	// look for _Ch at or after _Off
; 1924 : 		return (find((const _Elem *)&_Ch, _Off, 1));
; 1925 : 		}
; 1926 : 
; 1927 : 	size_type rfind(const _Myt& _Right, size_type _Off = npos) const _NOEXCEPT
; 1928 : 		{	// look for _Right beginning before _Off
; 1929 : 		return (rfind(_Right._Myptr(), _Off, _Right.size()));
; 1930 : 		}
; 1931 : 
; 1932 : 	size_type rfind(const _Elem *_Ptr,
; 1933 : 		size_type _Off, size_type _Count) const
; 1934 : 		{	// look for [_Ptr, _Ptr + _Count) beginning before _Off
; 1935 :  #if _ITERATOR_DEBUG_LEVEL == 2
; 1936 : 		if (_Count != 0)
; 1937 : 			_DEBUG_POINTER(_Ptr);
; 1938 :  #endif /* _ITERATOR_DEBUG_LEVEL == 2 */
; 1939 : 
; 1940 : 		if (_Count == 0)
; 1941 : 			return (_Off < this->_Mysize ? _Off
; 1942 : 				: this->_Mysize);	// null always matches
; 1943 : 		if (_Count <= this->_Mysize)
; 1944 : 			{	// room for match, look for it
; 1945 : 			const _Elem *_Uptr = this->_Myptr() +
; 1946 : 				(_Off < this->_Mysize - _Count ? _Off
; 1947 : 					: this->_Mysize - _Count);
; 1948 : 			for (; ; --_Uptr)
; 1949 : 				if (_Traits::eq(*_Uptr, *_Ptr)
; 1950 : 					&& _Traits::compare(_Uptr, _Ptr, _Count) == 0)
; 1951 : 					return (_Uptr - this->_Myptr());	// found a match
; 1952 : 				else if (_Uptr == this->_Myptr())
; 1953 : 					break;	// at beginning, no more chance for match
; 1954 : 			}
; 1955 : 
; 1956 : 		return (npos);	// no match
; 1957 : 		}
; 1958 : 
; 1959 : 	size_type rfind(const _Elem *_Ptr, size_type _Off = npos) const
; 1960 : 		{	// look for [_Ptr, <null>) beginning before _Off
; 1961 : 		_DEBUG_POINTER(_Ptr);
; 1962 : 		return (rfind(_Ptr, _Off, _Traits::length(_Ptr)));
; 1963 : 		}
; 1964 : 
; 1965 : 	size_type rfind(_Elem _Ch, size_type _Off = npos) const
; 1966 : 		{	// look for _Ch before _Off
; 1967 : 		return (rfind((const _Elem *)&_Ch, _Off, 1));
; 1968 : 		}
; 1969 : 
; 1970 : 	size_type find_first_of(const _Myt& _Right,
; 1971 : 		size_type _Off = 0) const _NOEXCEPT
; 1972 : 		{	// look for one of _Right at or after _Off
; 1973 : 		return (find_first_of(_Right._Myptr(), _Off, _Right.size()));
; 1974 : 		}
; 1975 : 
; 1976 : 	size_type find_first_of(const _Elem *_Ptr,
; 1977 : 		size_type _Off, size_type _Count) const
; 1978 : 		{	// look for one of [_Ptr, _Ptr + _Count) at or after _Off
; 1979 :  #if _ITERATOR_DEBUG_LEVEL == 2
; 1980 : 		if (_Count != 0)
; 1981 : 			_DEBUG_POINTER(_Ptr);
; 1982 :  #endif /* _ITERATOR_DEBUG_LEVEL == 2 */
; 1983 : 
; 1984 : 		if (0 < _Count && _Off < this->_Mysize)
; 1985 : 			{	// room for match, look for it
; 1986 : 			const _Elem *const _Vptr = this->_Myptr() + this->_Mysize;
; 1987 : 			for (const _Elem *_Uptr = this->_Myptr() + _Off;
; 1988 : 				_Uptr < _Vptr; ++_Uptr)
; 1989 : 				if (_Traits::find(_Ptr, _Count, *_Uptr) != 0)
; 1990 : 					return (_Uptr - this->_Myptr());	// found a match
; 1991 : 			}
; 1992 : 
; 1993 : 		return (npos);	// no match
; 1994 : 		}
; 1995 : 
; 1996 : 	size_type find_first_of(const _Elem *_Ptr,
; 1997 : 		size_type _Off = 0) const
; 1998 : 		{	// look for one of [_Ptr, <null>) at or after _Off
; 1999 : 		_DEBUG_POINTER(_Ptr);
; 2000 : 		return (find_first_of(_Ptr, _Off, _Traits::length(_Ptr)));
; 2001 : 		}
; 2002 : 
; 2003 : 	size_type find_first_of(_Elem _Ch,
; 2004 : 		size_type _Off = 0) const
; 2005 : 		{	// look for _Ch at or after _Off
; 2006 : 		return (find((const _Elem *)&_Ch, _Off, 1));
; 2007 : 		}
; 2008 : 
; 2009 : 	size_type find_last_of(const _Myt& _Right,
; 2010 : 		size_type _Off = npos) const _NOEXCEPT
; 2011 : 		{	// look for one of _Right before _Off
; 2012 : 		return (find_last_of(_Right._Myptr(), _Off, _Right.size()));
; 2013 : 		}
; 2014 : 
; 2015 : 	size_type find_last_of(const _Elem *_Ptr,
; 2016 : 		size_type _Off, size_type _Count) const
; 2017 : 		{	// look for one of [_Ptr, _Ptr + _Count) before _Off
; 2018 :  #if _ITERATOR_DEBUG_LEVEL == 2
; 2019 : 		if (_Count != 0)
; 2020 : 			_DEBUG_POINTER(_Ptr);
; 2021 :  #endif /* _ITERATOR_DEBUG_LEVEL == 2 */
; 2022 : 
; 2023 : 		if (0 < _Count && 0 < this->_Mysize)
; 2024 : 			{	// worth searching, do it
; 2025 : 			const _Elem *_Uptr = this->_Myptr()
; 2026 : 				+ (_Off < this->_Mysize ? _Off : this->_Mysize - 1);
; 2027 : 			for (; ; --_Uptr)
; 2028 : 				if (_Traits::find(_Ptr, _Count, *_Uptr) != 0)
; 2029 : 					return (_Uptr - this->_Myptr());	// found a match
; 2030 : 				else if (_Uptr == this->_Myptr())
; 2031 : 					break;	// at beginning, no more chance for match
; 2032 : 			}
; 2033 : 
; 2034 : 		return (npos);	// no match
; 2035 : 		}
; 2036 : 
; 2037 : 	size_type find_last_of(const _Elem *_Ptr,
; 2038 : 		size_type _Off = npos) const
; 2039 : 		{	// look for one of [_Ptr, <null>) before _Off
; 2040 : 		_DEBUG_POINTER(_Ptr);
; 2041 : 		return (find_last_of(_Ptr, _Off, _Traits::length(_Ptr)));
; 2042 : 		}
; 2043 : 
; 2044 : 	size_type find_last_of(_Elem _Ch,
; 2045 : 		size_type _Off = npos) const
; 2046 : 		{	// look for _Ch before _Off
; 2047 : 		return (rfind((const _Elem *)&_Ch, _Off, 1));
; 2048 : 		}
; 2049 : 
; 2050 : 	size_type find_first_not_of(const _Myt& _Right,
; 2051 : 		size_type _Off = 0) const _NOEXCEPT
; 2052 : 		{	// look for none of _Right at or after _Off
; 2053 : 		return (find_first_not_of(_Right._Myptr(), _Off,
; 2054 : 			_Right.size()));
; 2055 : 		}
; 2056 : 
; 2057 : 	size_type find_first_not_of(const _Elem *_Ptr,
; 2058 : 		size_type _Off, size_type _Count) const
; 2059 : 		{	// look for none of [_Ptr, _Ptr + _Count) at or after _Off
; 2060 :  #if _ITERATOR_DEBUG_LEVEL == 2
; 2061 : 		if (_Count != 0)
; 2062 : 			_DEBUG_POINTER(_Ptr);
; 2063 :  #endif /* _ITERATOR_DEBUG_LEVEL == 2 */
; 2064 : 
; 2065 : 		if (_Off < this->_Mysize)
; 2066 : 			{	// room for match, look for it
; 2067 : 			const _Elem *const _Vptr = this->_Myptr() + this->_Mysize;
; 2068 : 			for (const _Elem *_Uptr = this->_Myptr() + _Off;
; 2069 : 				_Uptr < _Vptr; ++_Uptr)
; 2070 : 				if (_Traits::find(_Ptr, _Count, *_Uptr) == 0)
; 2071 : 					return (_Uptr - this->_Myptr());
; 2072 : 			}
; 2073 : 		return (npos);
; 2074 : 		}
; 2075 : 
; 2076 : 	size_type find_first_not_of(const _Elem *_Ptr,
; 2077 : 		size_type _Off = 0) const
; 2078 : 		{	// look for one of [_Ptr, <null>) at or after _Off
; 2079 : 		_DEBUG_POINTER(_Ptr);
; 2080 : 		return (find_first_not_of(_Ptr, _Off, _Traits::length(_Ptr)));
; 2081 : 		}
; 2082 : 
; 2083 : 	size_type find_first_not_of(_Elem _Ch,
; 2084 : 		size_type _Off = 0) const
; 2085 : 		{	// look for non _Ch at or after _Off
; 2086 : 		return (find_first_not_of((const _Elem *)&_Ch, _Off, 1));
; 2087 : 		}
; 2088 : 
; 2089 : 	size_type find_last_not_of(const _Myt& _Right,
; 2090 : 		size_type _Off = npos) const _NOEXCEPT
; 2091 : 		{	// look for none of _Right before _Off
; 2092 : 		return (find_last_not_of(_Right._Myptr(), _Off, _Right.size()));
; 2093 : 		}
; 2094 : 
; 2095 : 	size_type find_last_not_of(const _Elem *_Ptr,
; 2096 : 		size_type _Off, size_type _Count) const
; 2097 : 		{	// look for none of [_Ptr, _Ptr + _Count) before _Off
; 2098 :  #if _ITERATOR_DEBUG_LEVEL == 2
; 2099 : 		if (_Count != 0)
; 2100 : 			_DEBUG_POINTER(_Ptr);
; 2101 :  #endif /* _ITERATOR_DEBUG_LEVEL == 2 */
; 2102 : 
; 2103 : 		if (0 < this->_Mysize)
; 2104 : 			{	// worth searching, do it
; 2105 : 			const _Elem *_Uptr = this->_Myptr()
; 2106 : 				+ (_Off < this->_Mysize ? _Off : this->_Mysize - 1);
; 2107 : 			for (; ; --_Uptr)
; 2108 : 				if (_Traits::find(_Ptr, _Count, *_Uptr) == 0)
; 2109 : 					return (_Uptr - this->_Myptr());
; 2110 : 				else if (_Uptr == this->_Myptr())
; 2111 : 					break;
; 2112 : 			}
; 2113 : 		return (npos);
; 2114 : 		}
; 2115 : 
; 2116 : 	size_type find_last_not_of(const _Elem *_Ptr,
; 2117 : 		size_type _Off = npos) const
; 2118 : 		{	// look for none of [_Ptr, <null>) before _Off
; 2119 : 		_DEBUG_POINTER(_Ptr);
; 2120 : 		return (find_last_not_of(_Ptr, _Off, _Traits::length(_Ptr)));
; 2121 : 		}
; 2122 : 
; 2123 : 	size_type find_last_not_of(_Elem _Ch,
; 2124 : 		size_type _Off = npos) const
; 2125 : 		{	// look for non _Ch before _Off
; 2126 : 		return (find_last_not_of((const _Elem *)&_Ch, _Off, 1));
; 2127 : 		}
; 2128 : 
; 2129 : 	_Myt substr(size_type _Off = 0, size_type _Count = npos) const
; 2130 : 		{	// return [_Off, _Off + _Count) as new string
; 2131 : 		return (_Myt(*this, _Off, _Count, get_allocator()));
; 2132 : 		}
; 2133 : 
; 2134 : 	int compare(const _Myt& _Right) const _NOEXCEPT
; 2135 : 		{	// compare [0, _Mysize) with _Right
; 2136 : 		return (compare(0, this->_Mysize, _Right._Myptr(), _Right.size()));
; 2137 : 		}
; 2138 : 
; 2139 : 	int compare(size_type _Off, size_type _N0,
; 2140 : 		const _Myt& _Right) const
; 2141 : 		{	// compare [_Off, _Off + _N0) with _Right
; 2142 : 		return (compare(_Off, _N0, _Right, 0, npos));
; 2143 : 		}
; 2144 : 
; 2145 : 	int compare(size_type _Off,
; 2146 : 		size_type _N0, const _Myt& _Right,
; 2147 : 		size_type _Roff, size_type _Count) const
; 2148 : 		{	// compare [_Off, _Off + _N0) with _Right [_Roff, _Roff + _Count)
; 2149 : 		if (_Right.size() < _Roff)
; 2150 : 			_Xran();	// _Off off end
; 2151 : 		if (_Right._Mysize - _Roff < _Count)
; 2152 : 			_Count = _Right._Mysize - _Roff;	// trim _Count to size
; 2153 : 		return (compare(_Off, _N0, _Right._Myptr() + _Roff, _Count));
; 2154 : 		}
; 2155 : 
; 2156 : 	int compare(const _Elem *_Ptr) const
; 2157 : 		{	// compare [0, _Mysize) with [_Ptr, <null>)
; 2158 : 		_DEBUG_POINTER(_Ptr);
; 2159 : 		return (compare(0, this->_Mysize, _Ptr, _Traits::length(_Ptr)));
; 2160 : 		}
; 2161 : 
; 2162 : 	int compare(size_type _Off, size_type _N0, const _Elem *_Ptr) const
; 2163 : 		{	// compare [_Off, _Off + _N0) with [_Ptr, <null>)
; 2164 : 		_DEBUG_POINTER(_Ptr);
; 2165 : 		return (compare(_Off, _N0, _Ptr, _Traits::length(_Ptr)));
; 2166 : 		}
; 2167 : 
; 2168 : 	int compare(size_type _Off,
; 2169 : 		size_type _N0, const _Elem *_Ptr, size_type _Count) const
; 2170 : 		{	// compare [_Off, _Off + _N0) with [_Ptr, _Ptr + _Count)
; 2171 :  #if _ITERATOR_DEBUG_LEVEL == 2
; 2172 : 		if (_Count != 0)
; 2173 : 			_DEBUG_POINTER(_Ptr);
; 2174 :  #endif /* _ITERATOR_DEBUG_LEVEL == 2 */
; 2175 : 
; 2176 : 		if (this->_Mysize < _Off)
; 2177 : 			_Xran();	// _Off off end
; 2178 : 		if (this->_Mysize - _Off < _N0)
; 2179 : 			_N0 = this->_Mysize - _Off;	// trim _N0 to size
; 2180 : 
; 2181 : 		size_type _Ans = _Traits::compare(this->_Myptr() + _Off, _Ptr,
; 2182 : 			_N0 < _Count ? _N0 : _Count);
; 2183 : 		return (_Ans != 0 ? (int)_Ans : _N0 < _Count ? -1
; 2184 : 			: _N0 == _Count ? 0 : +1);
; 2185 : 		}
; 2186 : 
; 2187 : 	allocator_type get_allocator() const _NOEXCEPT
; 2188 : 		{	// return allocator object for values
; 2189 : 		return (this->_Getal());
; 2190 : 		}
; 2191 : 
; 2192 : 	void _Chassign(size_type _Off, size_type _Count, _Elem _Ch)
; 2193 : 		{	// assign _Count copies of _Ch beginning at _Off
; 2194 : 		if (_Count == 1)
; 2195 : 			_Traits::assign(*(this->_Myptr() + _Off), _Ch);
; 2196 : 		else
; 2197 : 			_Traits::assign(this->_Myptr() + _Off, _Count, _Ch);
; 2198 : 		}
; 2199 : 
; 2200 : 	void _Copy(size_type _Newsize, size_type _Oldlen)
; 2201 : 		{	// copy _Oldlen elements to newly allocated buffer
; 2202 : 		size_type _Newres = _Newsize | this->_ALLOC_MASK;
; 2203 : 		if (max_size() < _Newres)
; 2204 : 			_Newres = _Newsize;	// undo roundup if too big
; 2205 : 		else if (this->_Myres / 2 <= _Newres / 3)
; 2206 : 			;
; 2207 : 		else if (this->_Myres <= max_size() - this->_Myres / 2)
; 2208 : 			_Newres = this->_Myres
; 2209 : 				+ this->_Myres / 2;	// grow exponentially if possible
; 2210 : 		else
; 2211 : 			_Newres = max_size();	// settle for max_size()
; 2212 : 
; 2213 : 		_Elem *_Ptr;
; 2214 : 		_TRY_BEGIN
; 2215 : 			_Ptr = this->_Getal().allocate(_Newres + 1);
; 2216 : 		_CATCH_ALL
; 2217 : 			_Newres = _Newsize;	// allocation failed, undo roundup and retry
; 2218 : 			_TRY_BEGIN
; 2219 : 				_Ptr = this->_Getal().allocate(_Newres + 1);
; 2220 : 			_CATCH_ALL
; 2221 : 			_Tidy(true);	// failed again, discard storage and reraise
; 2222 : 			_RERAISE;
; 2223 : 			_CATCH_END
; 2224 : 		_CATCH_END
; 2225 : 
; 2226 : 		if (0 < _Oldlen)
; 2227 : 			_Traits::copy(_Ptr, this->_Myptr(),
; 2228 : 				_Oldlen);	// copy existing elements
; 2229 : 		_Tidy(true);
; 2230 : 		this->_Getal().construct(&this->_Bx._Ptr, _Ptr);
; 2231 : 		this->_Myres = _Newres;
; 2232 : 		_Eos(_Oldlen);
; 2233 : 		}
; 2234 : 
; 2235 : 	void _Eos(size_type _Newsize)
; 2236 : 		{	// set new length and null terminator
; 2237 : 		_Traits::assign(this->_Myptr()[this->_Mysize = _Newsize], _Elem());

  00045	c7 05 10 00 00
	00 00 00 00 00	 mov	 DWORD PTR _gs_stServerInfo+16, 0
; File c:\program files (x86)\microsoft visual studio 12.0\vc\include\iosfwd

; 564  : 		_Left = _Right;

  0004f	c6 05 00 00 00
	00 00		 mov	 BYTE PTR _gs_stServerInfo, 0
  00056	8b e5		 mov	 esp, ebp
  00058	5d		 pop	 ebp
  00059	c3		 ret	 0
??__Fgs_stServerInfo@@YAXXZ ENDP			; `dynamic atexit destructor for 'gs_stServerInfo''
text$yd	ENDS
; Function compile flags: /Ogtp
; File d:\metin2\metin2\client_source_clean\client_source_clean\source\userinterface\pythonnetworkstreammodule.cpp
; File c:\program files (x86)\microsoft visual studio 12.0\vc\include\list
; File d:\metin2\metin2\client_source_clean\client_source_clean\source\userinterface\pythonnetworkstreammodule.cpp
; File c:\program files (x86)\microsoft visual studio 12.0\vc\include\list
; File d:\metin2\metin2\client_source_clean\client_source_clean\source\userinterface\pythonnetworkstreammodule.cpp
;	COMDAT ??__Eg_kList_strCommand@@YAXXZ
text$di	SEGMENT
??__Eg_kList_strCommand@@YAXXZ PROC			; `dynamic initializer for 'g_kList_strCommand'', COMDAT
; File c:\program files (x86)\microsoft visual studio 12.0\vc\include\list

; 767  : 		return (_Buynode0(_Nodeptr(), _Nodeptr()));

  00000	6a 00		 push	 0
  00002	6a 00		 push	 0
  00004	b9 00 00 00 00	 mov	 ecx, OFFSET ?g_kList_strCommand@@3V?$list@V?$basic_string@DU?$char_traits@D@std@@V?$allocator@D@2@@std@@V?$allocator@V?$basic_string@DU?$char_traits@D@std@@V?$allocator@D@2@@std@@@2@@std@@A ; g_kList_strCommand
  00009	e8 00 00 00 00	 call	 ?_Buynode0@?$_List_alloc@$0A@U?$_List_base_types@V?$basic_string@DU?$char_traits@D@std@@V?$allocator@D@2@@std@@V?$allocator@V?$basic_string@DU?$char_traits@D@std@@V?$allocator@D@2@@std@@@2@@std@@@std@@QAEPAU?$_List_node@V?$basic_string@DU?$char_traits@D@std@@V?$allocator@D@2@@std@@PAX@2@PAU32@0@Z ; std::_List_alloc<0,std::_List_base_types<std::basic_string<char,std::char_traits<char>,std::allocator<char> >,std::allocator<std::basic_string<char,std::char_traits<char>,std::allocator<char> > > > >::_Buynode0
; File d:\metin2\metin2\client_source_clean\client_source_clean\source\userinterface\pythonnetworkstreammodule.cpp

; 12   : std::list<std::string> g_kList_strCommand;

  0000e	68 00 00 00 00	 push	 OFFSET ??__Fg_kList_strCommand@@YAXXZ ; `dynamic atexit destructor for 'g_kList_strCommand''
; File c:\program files (x86)\microsoft visual studio 12.0\vc\include\list

; 702  : 		this->_Myhead = _Buyheadnode();

  00013	a3 00 00 00 00	 mov	 DWORD PTR ?g_kList_strCommand@@3V?$list@V?$basic_string@DU?$char_traits@D@std@@V?$allocator@D@2@@std@@V?$allocator@V?$basic_string@DU?$char_traits@D@std@@V?$allocator@D@2@@std@@@2@@std@@A, eax
; File d:\metin2\metin2\client_source_clean\client_source_clean\source\userinterface\pythonnetworkstreammodule.cpp

; 12   : std::list<std::string> g_kList_strCommand;

  00018	e8 00 00 00 00	 call	 _atexit
  0001d	59		 pop	 ecx
  0001e	c3		 ret	 0
??__Eg_kList_strCommand@@YAXXZ ENDP			; `dynamic initializer for 'g_kList_strCommand''
text$di	ENDS
; Function compile flags: /Ogtp
; File c:\program files (x86)\microsoft visual studio 12.0\vc\include\list
; File c:\program files (x86)\microsoft visual studio 12.0\vc\include\xmemory0
;	COMDAT ??__Fg_kList_strCommand@@YAXXZ
text$yd	SEGMENT
$T1 = -1						; size = 1
$T2 = -1						; size = 1
$T3 = -1						; size = 1
??__Fg_kList_strCommand@@YAXXZ PROC			; `dynamic atexit destructor for 'g_kList_strCommand'', COMDAT
  00000	55		 push	 ebp
  00001	8b ec		 mov	 ebp, esp
  00003	51		 push	 ecx
  00004	56		 push	 esi
; File c:\program files (x86)\microsoft visual studio 12.0\vc\include\list

; 1883 : 		clear();

  00005	b9 00 00 00 00	 mov	 ecx, OFFSET ?g_kList_strCommand@@3V?$list@V?$basic_string@DU?$char_traits@D@std@@V?$allocator@D@2@@std@@V?$allocator@V?$basic_string@DU?$char_traits@D@std@@V?$allocator@D@2@@std@@@2@@std@@A ; g_kList_strCommand
  0000a	e8 00 00 00 00	 call	 ?clear@?$list@V?$basic_string@DU?$char_traits@D@std@@V?$allocator@D@2@@std@@V?$allocator@V?$basic_string@DU?$char_traits@D@std@@V?$allocator@D@2@@std@@@2@@std@@QAEXXZ ; std::list<std::basic_string<char,std::char_traits<char>,std::allocator<char> >,std::allocator<std::basic_string<char,std::char_traits<char>,std::allocator<char> > > >::clear

; 539  : 		}
; 540  : 
; 541  : 	static reference _Myval(_Nodeptr _Pnode)
; 542  : 		{	// return reference to value in node
; 543  : 		return ((reference)_Pnode->_Myval);
; 544  : 		}
; 545  : 
; 546  : 	_Nodeptr _Myhead;	// pointer to head node
; 547  : 	size_type _Mysize;	// number of elements
; 548  : 	};
; 549  : 
; 550  : 		// TEMPLATE CLASS _List_alloc
; 551  : template<bool _Al_has_storage,
; 552  : 	class _Alloc_types>
; 553  : 	class _List_alloc
; 554  : 		: public _List_val<typename _Alloc_types::_Val_types>
; 555  : 	{	// base class for list to hold allocator with storage
; 556  : public:
; 557  : 	typename _Alloc_types::_Alnod_type _Alnod;	// allocator object
; 558  : 
; 559  : 	typedef _List_alloc<_Al_has_storage, _Alloc_types> _Myt;
; 560  : 	typedef typename _Alloc_types::_Alloc _Alloc;
; 561  : 	typedef typename _Alloc_types::_Alnod_type _Alty;
; 562  : 	typedef typename _Alloc_types::_Node _Node;
; 563  : 	typedef typename _Alloc_types::_Nodeptr _Nodeptr;
; 564  : 
; 565  :  #if _ITERATOR_DEBUG_LEVEL == 0
; 566  : 	_List_alloc(const _Alloc& _Al = _Alloc())
; 567  : 		: _Alnod(_Al)
; 568  : 		{	// construct head node, allocator from _Al
; 569  : 		this->_Myhead = _Buyheadnode();
; 570  : 		}
; 571  : 
; 572  : 	~_List_alloc() _NOEXCEPT
; 573  : 		{	// destroy head node
; 574  : 		_Freeheadnode(this->_Myhead);
; 575  : 		}
; 576  : 
; 577  : 	void _Change_alloc(const _Alty& _Al)
; 578  : 		{	// replace old allocator
; 579  : 		this->_Alnod = _Al;
; 580  : 		}
; 581  : 
; 582  : 	void _Swap_alloc(_Myt& _Right)
; 583  : 		{	// swap allocators
; 584  : 		_Swap_adl(this->_Alnod, _Right._Alnod);
; 585  : 		}
; 586  : 
; 587  :  #else /* _ITERATOR_DEBUG_LEVEL == 0 */
; 588  : 	_List_alloc(const _Alloc& _Al = _Alloc())
; 589  : 		: _Alnod(_Al)
; 590  : 		{	// construct head node, allocator from _Al
; 591  : 		this->_Myhead = _Buyheadnode();
; 592  : 		_TRY_BEGIN
; 593  : 		_Alloc_proxy();
; 594  : 		_CATCH_ALL
; 595  : 		_Freeheadnode(this->_Myhead);
; 596  : 		_RERAISE;
; 597  : 		_CATCH_END
; 598  : 		}
; 599  : 
; 600  : 	~_List_alloc() _NOEXCEPT
; 601  : 		{	// destroy proxy
; 602  : 		_Freeheadnode(this->_Myhead);
; 603  : 		_Free_proxy();
; 604  : 		}
; 605  : 
; 606  : 	void _Change_alloc(const _Alty& _Al)
; 607  : 		{	// replace old allocator
; 608  : 		_Free_proxy();
; 609  : 		this->_Alnod = _Al;
; 610  : 		_Alloc_proxy();
; 611  : 		}
; 612  : 
; 613  : 	void _Swap_alloc(_Myt& _Right)
; 614  : 		{	// swap allocators
; 615  : 		_Swap_adl(this->_Alnod, _Right._Alnod);
; 616  : 		_Swap_adl(this->_Myproxy, _Right._Myproxy);
; 617  : 		}
; 618  : 
; 619  : 	void _Alloc_proxy()
; 620  : 		{	// construct proxy from _Alnod
; 621  : 		typename _Alty::template rebind<_Container_proxy>::other
; 622  : 			_Alproxy(this->_Alnod);
; 623  : 		this->_Myproxy = _Alproxy.allocate(1);
; 624  : 		_Alproxy.construct(this->_Myproxy, _Container_proxy());
; 625  : 		this->_Myproxy->_Mycont = this;
; 626  : 		}
; 627  : 
; 628  : 	void _Free_proxy()
; 629  : 		{	// destroy proxy
; 630  : 		typename _Alty::template rebind<_Container_proxy>::other
; 631  : 			_Alproxy(this->_Alnod);
; 632  : 		this->_Orphan_all();
; 633  : 		_Alproxy.destroy(this->_Myproxy);
; 634  : 		_Alproxy.deallocate(this->_Myproxy, 1);
; 635  : 		this->_Myproxy = 0;
; 636  : 		}
; 637  :  #endif /* _ITERATOR_DEBUG_LEVEL == 0 */
; 638  : 
; 639  : 	_Nodeptr _Buyheadnode()
; 640  : 		{	// get head node using current allocator
; 641  : 		return (_Buynode0(_Nodeptr(), _Nodeptr()));
; 642  : 		}
; 643  : 
; 644  : 	void _Freeheadnode(_Nodeptr _Pnode)
; 645  : 		{	// free head node using current allocator
; 646  : 		this->_Alnod.destroy(
; 647  : 			_STD addressof(this->_Nextnode(_Pnode)));
; 648  : 		this->_Alnod.destroy(
; 649  : 			_STD addressof(this->_Prevnode(_Pnode)));
; 650  : 		this->_Alnod.deallocate(_Pnode, 1);
; 651  : 		}
; 652  : 
; 653  : 	_Nodeptr _Buynode0(_Nodeptr _Next,
; 654  : 		_Nodeptr _Prev)
; 655  : 		{	// allocate a node and set links
; 656  : 		_Nodeptr _Pnode = this->_Alnod.allocate(1);
; 657  : 
; 658  : 		if (_Next == _Nodeptr())
; 659  : 			{	// point at self
; 660  : 			_Next = _Pnode;
; 661  : 			_Prev = _Pnode;
; 662  : 			}
; 663  : 		_TRY_BEGIN
; 664  : 		this->_Alnod.construct(
; 665  : 			_STD addressof(this->_Nextnode(_Pnode)), _Next);
; 666  : 		this->_Alnod.construct(
; 667  : 			_STD addressof(this->_Prevnode(_Pnode)), _Prev);
; 668  : 		_CATCH_ALL
; 669  : 		this->_Alnod.deallocate(_Pnode, 1);
; 670  : 		_RERAISE;
; 671  : 		_CATCH_END
; 672  : 
; 673  : 		return (_Pnode);
; 674  : 		}
; 675  : 
; 676  : 	_Alty& _Getal()
; 677  : 		{	// get reference to allocator
; 678  : 		return (this->_Alnod);
; 679  : 		}
; 680  : 
; 681  : 	const _Alty& _Getal() const
; 682  : 		{	// get reference to allocator
; 683  : 		return (this->_Alnod);
; 684  : 		}
; 685  : 	};
; 686  : 
; 687  : 		// TEMPLATE CLASS _List_alloc
; 688  : template<class _Alloc_types>
; 689  : 	class _List_alloc<false, _Alloc_types>
; 690  : 		: public _List_val<typename _Alloc_types::_Val_types>
; 691  : 	{	// base class for list to hold allocator with no storage
; 692  : public:
; 693  : 	typedef _List_alloc<false, _Alloc_types> _Myt;
; 694  : 	typedef typename _Alloc_types::_Alloc _Alloc;
; 695  : 	typedef typename _Alloc_types::_Alnod_type _Alty;
; 696  : 	typedef typename _Alloc_types::_Node _Node;
; 697  : 	typedef typename _Alloc_types::_Nodeptr _Nodeptr;
; 698  : 
; 699  :  #if _ITERATOR_DEBUG_LEVEL == 0
; 700  : 	_List_alloc(const _Alloc& = _Alloc())
; 701  : 		{	// construct head node, allocator from _Al
; 702  : 		this->_Myhead = _Buyheadnode();
; 703  : 		}
; 704  : 
; 705  : 	~_List_alloc() _NOEXCEPT
; 706  : 		{	// destroy head node
; 707  : 		_Freeheadnode(this->_Myhead);

  0000f	8b 35 00 00 00
	00		 mov	 esi, DWORD PTR ?g_kList_strCommand@@3V?$list@V?$basic_string@DU?$char_traits@D@std@@V?$allocator@D@2@@std@@V?$allocator@V?$basic_string@DU?$char_traits@D@std@@V?$allocator@D@2@@std@@@2@@std@@A

; 776  : 		this->_Getal().deallocate(_Pnode, 1);
; 777  : 		}
; 778  : 
; 779  : 	_Nodeptr _Buynode0(_Nodeptr _Next,
; 780  : 		_Nodeptr _Prev)
; 781  : 		{	// allocate a node and set links
; 782  : 		_Nodeptr _Pnode = this->_Getal().allocate(1);
; 783  : 
; 784  : 		if (_Next == _Nodeptr())
; 785  : 			{	// point at self
; 786  : 			_Next = _Pnode;
; 787  : 			_Prev = _Pnode;
; 788  : 			}
; 789  : 		_TRY_BEGIN
; 790  : 		this->_Getal().construct(
; 791  : 			_STD addressof(this->_Nextnode(_Pnode)), _Next);
; 792  : 		this->_Getal().construct(
; 793  : 			_STD addressof(this->_Prevnode(_Pnode)), _Prev);
; 794  : 		_CATCH_ALL
; 795  : 		this->_Getal().deallocate(_Pnode, 1);
; 796  : 		_RERAISE;
; 797  : 		_CATCH_END
; 798  : 
; 799  : 		return (_Pnode);
; 800  : 		}
; 801  : 
; 802  : 	_Alty _Getal() const
; 803  : 		{	// get reference to allocator
; 804  : 		return (_Alty());

  00015	8d 4d ff	 lea	 ecx, DWORD PTR $T3[ebp]
  00018	e8 00 00 00 00	 call	 ??0?$_Wrap_alloc@V?$allocator@U?$_List_node@V?$basic_string@DU?$char_traits@D@std@@V?$allocator@D@2@@std@@PAX@std@@@std@@@std@@QAE@XZ ; std::_Wrap_alloc<std::allocator<std::_List_node<std::basic_string<char,std::char_traits<char>,std::allocator<char> >,void *> > >::_Wrap_alloc<std::allocator<std::_List_node<std::basic_string<char,std::char_traits<char>,std::allocator<char> >,void *> > >

; 708  : 		}
; 709  : 
; 710  : 	void _Change_alloc(const _Alty&)
; 711  : 		{	// replace old allocator
; 712  : 		}
; 713  : 
; 714  : 	void _Swap_alloc(_Myt&)
; 715  : 		{	// swap allocators
; 716  : 		}
; 717  : 
; 718  :  #else /* _ITERATOR_DEBUG_LEVEL == 0 */
; 719  : 	_List_alloc(const _Alloc& = _Alloc())
; 720  : 		{	// construct allocators from _Al
; 721  : 		this->_Myhead = _Buyheadnode();
; 722  : 		_TRY_BEGIN
; 723  : 		_Alloc_proxy();
; 724  : 		_CATCH_ALL
; 725  : 		_Freeheadnode(this->_Myhead);
; 726  : 		_RERAISE;
; 727  : 		_CATCH_END
; 728  : 		}
; 729  : 
; 730  : 	~_List_alloc() _NOEXCEPT
; 731  : 		{	// destroy proxy
; 732  : 		_Freeheadnode(this->_Myhead);
; 733  : 		_Free_proxy();
; 734  : 		}
; 735  : 
; 736  : 	void _Change_alloc(const _Alty&)
; 737  : 		{	// replace old allocator
; 738  : 		}
; 739  : 
; 740  : 	void _Swap_alloc(_Myt& _Right)
; 741  : 		{	// swap allocators
; 742  : 		_Swap_adl(this->_Myproxy, _Right._Myproxy);
; 743  : 		}
; 744  : 
; 745  : 	void _Alloc_proxy()
; 746  : 		{	// construct proxy from _Alnod
; 747  : 		typename _Alty::template rebind<_Container_proxy>::other
; 748  : 			_Alproxy;
; 749  : 		this->_Myproxy = _Alproxy.allocate(1);
; 750  : 		_Alproxy.construct(this->_Myproxy, _Container_proxy());
; 751  : 		this->_Myproxy->_Mycont = this;
; 752  : 		}
; 753  : 
; 754  : 	void _Free_proxy()
; 755  : 		{	// destroy proxy
; 756  : 		typename _Alty::template rebind<_Container_proxy>::other
; 757  : 			_Alproxy;
; 758  : 		this->_Orphan_all();
; 759  : 		_Alproxy.destroy(this->_Myproxy);
; 760  : 		_Alproxy.deallocate(this->_Myproxy, 1);
; 761  : 		this->_Myproxy = 0;
; 762  : 		}
; 763  :  #endif /* _ITERATOR_DEBUG_LEVEL == 0 */
; 764  : 
; 765  : 	_Nodeptr _Buyheadnode()
; 766  : 		{	// get head node using current allocator
; 767  : 		return (_Buynode0(_Nodeptr(), _Nodeptr()));
; 768  : 		}
; 769  : 
; 770  : 	void _Freeheadnode(_Nodeptr _Pnode)
; 771  : 		{	// free head node using current allocator
; 772  : 		this->_Getal().destroy(
; 773  : 			_STD addressof(this->_Nextnode(_Pnode)));

  0001d	56		 push	 esi
  0001e	8d 4d ff	 lea	 ecx, DWORD PTR $T3[ebp]
  00021	e8 00 00 00 00	 call	 ??$destroy@PAU?$_List_node@V?$basic_string@DU?$char_traits@D@std@@V?$allocator@D@2@@std@@PAX@std@@@?$_Wrap_alloc@V?$allocator@U?$_List_node@V?$basic_string@DU?$char_traits@D@std@@V?$allocator@D@2@@std@@PAX@std@@@std@@@std@@QAEXPAPAU?$_List_node@V?$basic_string@DU?$char_traits@D@std@@V?$allocator@D@2@@std@@PAX@1@@Z ; std::_Wrap_alloc<std::allocator<std::_List_node<std::basic_string<char,std::char_traits<char>,std::allocator<char> >,void *> > >::destroy<std::_List_node<std::basic_string<char,std::char_traits<char>,std::allocator<char> >,void *> *>

; 776  : 		this->_Getal().deallocate(_Pnode, 1);
; 777  : 		}
; 778  : 
; 779  : 	_Nodeptr _Buynode0(_Nodeptr _Next,
; 780  : 		_Nodeptr _Prev)
; 781  : 		{	// allocate a node and set links
; 782  : 		_Nodeptr _Pnode = this->_Getal().allocate(1);
; 783  : 
; 784  : 		if (_Next == _Nodeptr())
; 785  : 			{	// point at self
; 786  : 			_Next = _Pnode;
; 787  : 			_Prev = _Pnode;
; 788  : 			}
; 789  : 		_TRY_BEGIN
; 790  : 		this->_Getal().construct(
; 791  : 			_STD addressof(this->_Nextnode(_Pnode)), _Next);
; 792  : 		this->_Getal().construct(
; 793  : 			_STD addressof(this->_Prevnode(_Pnode)), _Prev);
; 794  : 		_CATCH_ALL
; 795  : 		this->_Getal().deallocate(_Pnode, 1);
; 796  : 		_RERAISE;
; 797  : 		_CATCH_END
; 798  : 
; 799  : 		return (_Pnode);
; 800  : 		}
; 801  : 
; 802  : 	_Alty _Getal() const
; 803  : 		{	// get reference to allocator
; 804  : 		return (_Alty());

  00026	8d 4d ff	 lea	 ecx, DWORD PTR $T2[ebp]
  00029	e8 00 00 00 00	 call	 ??0?$_Wrap_alloc@V?$allocator@U?$_List_node@V?$basic_string@DU?$char_traits@D@std@@V?$allocator@D@2@@std@@PAX@std@@@std@@@std@@QAE@XZ ; std::_Wrap_alloc<std::allocator<std::_List_node<std::basic_string<char,std::char_traits<char>,std::allocator<char> >,void *> > >::_Wrap_alloc<std::allocator<std::_List_node<std::basic_string<char,std::char_traits<char>,std::allocator<char> >,void *> > >

; 538  : 		return ((_Nodepref)_Pnode->_Prev);

  0002e	8d 46 04	 lea	 eax, DWORD PTR [esi+4]

; 774  : 		this->_Getal().destroy(
; 775  : 			_STD addressof(this->_Prevnode(_Pnode)));

  00031	50		 push	 eax
  00032	8d 4d ff	 lea	 ecx, DWORD PTR $T2[ebp]
  00035	e8 00 00 00 00	 call	 ??$destroy@PAU?$_List_node@V?$basic_string@DU?$char_traits@D@std@@V?$allocator@D@2@@std@@PAX@std@@@?$_Wrap_alloc@V?$allocator@U?$_List_node@V?$basic_string@DU?$char_traits@D@std@@V?$allocator@D@2@@std@@PAX@std@@@std@@@std@@QAEXPAPAU?$_List_node@V?$basic_string@DU?$char_traits@D@std@@V?$allocator@D@2@@std@@PAX@1@@Z ; std::_Wrap_alloc<std::allocator<std::_List_node<std::basic_string<char,std::char_traits<char>,std::allocator<char> >,void *> > >::destroy<std::_List_node<std::basic_string<char,std::char_traits<char>,std::allocator<char> >,void *> *>

; 776  : 		this->_Getal().deallocate(_Pnode, 1);
; 777  : 		}
; 778  : 
; 779  : 	_Nodeptr _Buynode0(_Nodeptr _Next,
; 780  : 		_Nodeptr _Prev)
; 781  : 		{	// allocate a node and set links
; 782  : 		_Nodeptr _Pnode = this->_Getal().allocate(1);
; 783  : 
; 784  : 		if (_Next == _Nodeptr())
; 785  : 			{	// point at self
; 786  : 			_Next = _Pnode;
; 787  : 			_Prev = _Pnode;
; 788  : 			}
; 789  : 		_TRY_BEGIN
; 790  : 		this->_Getal().construct(
; 791  : 			_STD addressof(this->_Nextnode(_Pnode)), _Next);
; 792  : 		this->_Getal().construct(
; 793  : 			_STD addressof(this->_Prevnode(_Pnode)), _Prev);
; 794  : 		_CATCH_ALL
; 795  : 		this->_Getal().deallocate(_Pnode, 1);
; 796  : 		_RERAISE;
; 797  : 		_CATCH_END
; 798  : 
; 799  : 		return (_Pnode);
; 800  : 		}
; 801  : 
; 802  : 	_Alty _Getal() const
; 803  : 		{	// get reference to allocator
; 804  : 		return (_Alty());

  0003a	8d 4d ff	 lea	 ecx, DWORD PTR $T1[ebp]
  0003d	e8 00 00 00 00	 call	 ??0?$_Wrap_alloc@V?$allocator@U?$_List_node@V?$basic_string@DU?$char_traits@D@std@@V?$allocator@D@2@@std@@PAX@std@@@std@@@std@@QAE@XZ ; std::_Wrap_alloc<std::allocator<std::_List_node<std::basic_string<char,std::char_traits<char>,std::allocator<char> >,void *> > >::_Wrap_alloc<std::allocator<std::_List_node<std::basic_string<char,std::char_traits<char>,std::allocator<char> >,void *> > >
; File c:\program files (x86)\microsoft visual studio 12.0\vc\include\xmemory0

; 573  : 		::operator delete(_Ptr);

  00042	56		 push	 esi
  00043	e8 00 00 00 00	 call	 ??3@YAXPAX@Z		; operator delete
  00048	83 c4 04	 add	 esp, 4
  0004b	5e		 pop	 esi
  0004c	8b e5		 mov	 esp, ebp
  0004e	5d		 pop	 ebp
  0004f	c3		 ret	 0
??__Fg_kList_strCommand@@YAXXZ ENDP			; `dynamic atexit destructor for 'g_kList_strCommand''
text$yd	ENDS
; Function compile flags: /Ogtp
; File d:\metin2\metin2\client_source_clean\client_source_clean\source\userinterface\pythonnetworkstreammodule.cpp
;	COMDAT ?netGetBettingGuildWarValue@@YAPAU_object@@PAU1@0@Z
_TEXT	SEGMENT
_szName$ = -4						; size = 4
_poSelf$ = 8						; size = 4
_poArgs$ = 12						; size = 4
?netGetBettingGuildWarValue@@YAPAU_object@@PAU1@0@Z PROC ; netGetBettingGuildWarValue, COMDAT

; 15   : {

  00000	55		 push	 ebp
  00001	8b ec		 mov	 ebp, esp
  00003	51		 push	 ecx

; 16   : 	char* szName;
; 17   : 	if (!PyTuple_GetString(poArgs, 0, &szName))

  00004	8d 45 fc	 lea	 eax, DWORD PTR _szName$[ebp]
  00007	50		 push	 eax
  00008	6a 00		 push	 0
  0000a	ff 75 0c	 push	 DWORD PTR _poArgs$[ebp]
  0000d	e8 00 00 00 00	 call	 ?PyTuple_GetString@@YA_NPAU_object@@HPAPAD@Z ; PyTuple_GetString
  00012	83 c4 0c	 add	 esp, 12			; 0000000cH
  00015	84 c0		 test	 al, al
  00017	75 0e		 jne	 SHORT $LN1@netGetBett

; 18   : 		return Py_BuildException();

  00019	6a 00		 push	 0
  0001b	e8 00 00 00 00	 call	 ?Py_BuildException@@YAPAU_object@@PBDZZ ; Py_BuildException
  00020	83 c4 04	 add	 esp, 4

; 23   : }

  00023	8b e5		 mov	 esp, ebp
  00025	5d		 pop	 ebp
  00026	c3		 ret	 0
$LN1@netGetBett:

; 19   : 
; 20   : 	
; 21   : 	CPythonNetworkStream& rkNetStream=CPythonNetworkStream::Instance();
; 22   : 	return Py_BuildValue("i", rkNetStream.EXPORT_GetBettingGuildWarValue(szName));

  00027	ff 75 fc	 push	 DWORD PTR _szName$[ebp]
  0002a	8b 0d 00 00 00
	00		 mov	 ecx, DWORD PTR ?ms_singleton@?$CSingleton@VCPythonNetworkStream@@@@0PAVCPythonNetworkStream@@A ; CSingleton<CPythonNetworkStream>::ms_singleton
  00030	e8 00 00 00 00	 call	 ?EXPORT_GetBettingGuildWarValue@CPythonNetworkStream@@QAEKPBD@Z ; CPythonNetworkStream::EXPORT_GetBettingGuildWarValue
  00035	50		 push	 eax
  00036	68 00 00 00 00	 push	 OFFSET ??_C@_01KBJDNOO@i?$AA@
  0003b	ff 15 00 00 00
	00		 call	 DWORD PTR __imp__Py_BuildValue
  00041	83 c4 08	 add	 esp, 8

; 23   : }

  00044	8b e5		 mov	 esp, ebp
  00046	5d		 pop	 ebp
  00047	c3		 ret	 0
?netGetBettingGuildWarValue@@YAPAU_object@@PAU1@0@Z ENDP ; netGetBettingGuildWarValue
_TEXT	ENDS
; Function compile flags: /Ogtp
; File d:\metin2\metin2\client_source_clean\client_source_clean\source\userinterface\pythonnetworkstreammodule.cpp
; File c:\program files (x86)\microsoft visual studio 12.0\vc\include\iosfwd
; File c:\program files (x86)\microsoft visual studio 12.0\vc\include\xstring
; File d:\metin2\metin2\client_source_clean\client_source_clean\source\userinterface\pythonnetworkstreammodule.cpp
;	COMDAT ?netSetServerInfo@@YAPAU_object@@PAU1@0@Z
_TEXT	SEGMENT
_szFileName$ = -4					; size = 4
_poSelf$ = 8						; size = 4
_poArgs$ = 12						; size = 4
?netSetServerInfo@@YAPAU_object@@PAU1@0@Z PROC		; netSetServerInfo, COMDAT

; 26   : {

  00000	55		 push	 ebp
  00001	8b ec		 mov	 ebp, esp
  00003	51		 push	 ecx

; 27   : 	char* szFileName;
; 28   : 	if (!PyTuple_GetString(poArgs, 0, &szFileName))

  00004	8d 45 fc	 lea	 eax, DWORD PTR _szFileName$[ebp]
  00007	50		 push	 eax
  00008	6a 00		 push	 0
  0000a	ff 75 0c	 push	 DWORD PTR _poArgs$[ebp]
  0000d	e8 00 00 00 00	 call	 ?PyTuple_GetString@@YA_NPAU_object@@HPAPAD@Z ; PyTuple_GetString
  00012	83 c4 0c	 add	 esp, 12			; 0000000cH
  00015	84 c0		 test	 al, al
  00017	75 0e		 jne	 SHORT $LN1@netSetServ

; 29   : 		return Py_BuildException();

  00019	6a 00		 push	 0
  0001b	e8 00 00 00 00	 call	 ?Py_BuildException@@YAPAU_object@@PBDZZ ; Py_BuildException
  00020	83 c4 04	 add	 esp, 4

; 33   : }

  00023	8b e5		 mov	 esp, ebp
  00025	5d		 pop	 ebp
  00026	c3		 ret	 0
$LN1@netSetServ:
; File c:\program files (x86)\microsoft visual studio 12.0\vc\include\iosfwd

; 523  : 			: _CSTD strlen(_First));

  00027	8b 55 fc	 mov	 edx, DWORD PTR _szFileName$[ebp]
  0002a	80 3a 00	 cmp	 BYTE PTR [edx], 0
  0002d	75 04		 jne	 SHORT $LN10@netSetServ
  0002f	33 c9		 xor	 ecx, ecx
  00031	eb 17		 jmp	 SHORT $LN11@netSetServ
$LN10@netSetServ:
  00033	8b ca		 mov	 ecx, edx
  00035	56		 push	 esi
  00036	8d 71 01	 lea	 esi, DWORD PTR [ecx+1]
  00039	8d a4 24 00 00
	00 00		 npad	 7
$LL12@netSetServ:
  00040	8a 01		 mov	 al, BYTE PTR [ecx]
  00042	41		 inc	 ecx
  00043	84 c0		 test	 al, al
  00045	75 f9		 jne	 SHORT $LL12@netSetServ
  00047	2b ce		 sub	 ecx, esi
  00049	5e		 pop	 esi
$LN11@netSetServ:
; File c:\program files (x86)\microsoft visual studio 12.0\vc\include\xstring

; 1169 : 		return (assign(_Ptr, _Traits::length(_Ptr)));

  0004a	51		 push	 ecx
  0004b	52		 push	 edx
  0004c	b9 00 00 00 00	 mov	 ecx, OFFSET _gs_stServerInfo
  00051	e8 00 00 00 00	 call	 ?assign@?$basic_string@DU?$char_traits@D@std@@V?$allocator@D@2@@std@@QAEAAV12@PBDI@Z ; std::basic_string<char,std::char_traits<char>,std::allocator<char> >::assign
; File d:\metin2\metin2\client_source_clean\client_source_clean\source\userinterface\pythonnetworkstreammodule.cpp

; 32   : 	return Py_BuildNone();

  00056	e8 00 00 00 00	 call	 ?Py_BuildNone@@YAPAU_object@@XZ ; Py_BuildNone

; 33   : }

  0005b	8b e5		 mov	 esp, ebp
  0005d	5d		 pop	 ebp
  0005e	c3		 ret	 0
?netSetServerInfo@@YAPAU_object@@PAU1@0@Z ENDP		; netSetServerInfo
_TEXT	ENDS
; Function compile flags: /Ogtp
; File d:\metin2\metin2\client_source_clean\client_source_clean\source\userinterface\pythonnetworkstreammodule.cpp
; File c:\program files (x86)\microsoft visual studio 12.0\vc\include\xstring
; File d:\metin2\metin2\client_source_clean\client_source_clean\source\userinterface\pythonnetworkstreammodule.cpp
;	COMDAT ?netGetServerInfo@@YAPAU_object@@PAU1@0@Z
_TEXT	SEGMENT
_poSelf$ = 8						; size = 4
_poArgs$ = 12						; size = 4
?netGetServerInfo@@YAPAU_object@@PAU1@0@Z PROC		; netGetServerInfo, COMDAT
; File c:\program files (x86)\microsoft visual studio 12.0\vc\include\xstring

; 520  : 			: this->_Bx._Buf);

  00000	83 3d 14 00 00
	00 10		 cmp	 DWORD PTR _gs_stServerInfo+20, 16 ; 00000010H
  00007	b8 00 00 00 00	 mov	 eax, OFFSET _gs_stServerInfo
  0000c	0f 43 05 00 00
	00 00		 cmovae	 eax, DWORD PTR _gs_stServerInfo
; File d:\metin2\metin2\client_source_clean\client_source_clean\source\userinterface\pythonnetworkstreammodule.cpp

; 37   : 	return Py_BuildValue("s", gs_stServerInfo.c_str());

  00013	50		 push	 eax
  00014	68 00 00 00 00	 push	 OFFSET ??_C@_01LKDEMHDF@s?$AA@
  00019	ff 15 00 00 00
	00		 call	 DWORD PTR __imp__Py_BuildValue
  0001f	83 c4 08	 add	 esp, 8

; 38   : }

  00022	c3		 ret	 0
?netGetServerInfo@@YAPAU_object@@PAU1@0@Z ENDP		; netGetServerInfo
_TEXT	ENDS
; Function compile flags: /Ogtp
; File d:\metin2\metin2\client_source_clean\client_source_clean\source\userinterface\pythonnetworkstreammodule.cpp
; File c:\program files (x86)\microsoft visual studio 12.0\vc\include\iosfwd
; File c:\program files (x86)\microsoft visual studio 12.0\vc\include\xstring
; File c:\program files (x86)\microsoft visual studio 12.0\vc\include\iosfwd
; File c:\program files (x86)\microsoft visual studio 12.0\vc\include\xstring
; File d:\metin2\metin2\client_source_clean\client_source_clean\source\userinterface\pythonnetworkstreammodule.cpp
; File c:\program files (x86)\microsoft visual studio 12.0\vc\include\list
; File d:\metin2\metin2\client_source_clean\client_source_clean\source\userinterface\pythonnetworkstreammodule.cpp
; File c:\program files (x86)\microsoft visual studio 12.0\vc\include\list
; File c:\program files (x86)\microsoft visual studio 12.0\vc\include\xstring
; File c:\program files (x86)\microsoft visual studio 12.0\vc\include\xmemory0
; File c:\program files (x86)\microsoft visual studio 12.0\vc\include\xstring
; File c:\program files (x86)\microsoft visual studio 12.0\vc\include\iosfwd
; File d:\metin2\metin2\client_source_clean\client_source_clean\source\userinterface\pythonnetworkstreammodule.cpp
;	COMDAT ?netPreserveServerCommand@@YAPAU_object@@PAU1@0@Z
_TEXT	SEGMENT
_szLine$ = -48						; size = 4
$T2 = -44						; size = 24
__$ArrayPad$ = -20					; size = 4
__$EHRec$ = -12						; size = 12
_poSelf$ = 8						; size = 4
_poArgs$ = 12						; size = 4
?netPreserveServerCommand@@YAPAU_object@@PAU1@0@Z PROC	; netPreserveServerCommand, COMDAT

; 41   : {

  00000	55		 push	 ebp
  00001	8b ec		 mov	 ebp, esp
  00003	83 e4 f8	 and	 esp, -8			; fffffff8H
  00006	6a ff		 push	 -1
  00008	68 00 00 00 00	 push	 __ehhandler$?netPreserveServerCommand@@YAPAU_object@@PAU1@0@Z
  0000d	64 a1 00 00 00
	00		 mov	 eax, DWORD PTR fs:0
  00013	50		 push	 eax
  00014	83 ec 24	 sub	 esp, 36			; 00000024H
  00017	a1 00 00 00 00	 mov	 eax, DWORD PTR ___security_cookie
  0001c	33 c4		 xor	 eax, esp
  0001e	89 44 24 1c	 mov	 DWORD PTR __$ArrayPad$[esp+48], eax
  00022	56		 push	 esi
  00023	57		 push	 edi
  00024	a1 00 00 00 00	 mov	 eax, DWORD PTR ___security_cookie
  00029	33 c4		 xor	 eax, esp
  0002b	50		 push	 eax
  0002c	8d 44 24 30	 lea	 eax, DWORD PTR __$EHRec$[esp+60]
  00030	64 a3 00 00 00
	00		 mov	 DWORD PTR fs:0, eax
  00036	8b 45 0c	 mov	 eax, DWORD PTR _poArgs$[ebp]

; 42   : 	char* szLine;
; 43   : 	if (!PyTuple_GetString(poArgs, 0, &szLine))

  00039	8d 4c 24 0c	 lea	 ecx, DWORD PTR _szLine$[esp+60]
  0003d	51		 push	 ecx
  0003e	6a 00		 push	 0
  00040	50		 push	 eax
  00041	e8 00 00 00 00	 call	 ?PyTuple_GetString@@YA_NPAU_object@@HPAPAD@Z ; PyTuple_GetString
  00046	83 c4 0c	 add	 esp, 12			; 0000000cH
  00049	84 c0		 test	 al, al
  0004b	75 0f		 jne	 SHORT $LN1@netPreserv

; 44   : 		return Py_BuildException();

  0004d	6a 00		 push	 0
  0004f	e8 00 00 00 00	 call	 ?Py_BuildException@@YAPAU_object@@PBDZZ ; Py_BuildException
  00054	83 c4 04	 add	 esp, 4
  00057	e9 b9 00 00 00	 jmp	 $LN2@netPreserv
$LN1@netPreserv:
; File c:\program files (x86)\microsoft visual studio 12.0\vc\include\iosfwd

; 523  : 			: _CSTD strlen(_First));

  0005c	8b 54 24 0c	 mov	 edx, DWORD PTR _szLine$[esp+60]
; File c:\program files (x86)\microsoft visual studio 12.0\vc\include\xstring

; 2284 : 		this->_Myres = this->_BUF_SIZE - 1;

  00060	c7 44 24 24 0f
	00 00 00	 mov	 DWORD PTR $T2[esp+80], 15 ; 0000000fH

; 1170 : 		}
; 1171 : 
; 1172 : 	_Myt& assign(size_type _Count, _Elem _Ch)
; 1173 : 		{	// assign _Count * _Ch
; 1174 : 		if (_Count == npos)
; 1175 : 			_Xlen();	// result too long
; 1176 : 
; 1177 : 		if (_Grow(_Count))
; 1178 : 			{	// make room and assign new stuff
; 1179 : 			_Chassign(0, _Count, _Ch);
; 1180 : 			_Eos(_Count);
; 1181 : 			}
; 1182 : 		return (*this);
; 1183 : 		}
; 1184 : 
; 1185 : 	template<class _Iter>
; 1186 : 		typename enable_if<_Is_iterator<_Iter>::value,
; 1187 : 			_Myt&>::type
; 1188 : 		assign(_Iter _First, _Iter _Last)
; 1189 : 		{	// assign [_First, _Last), input iterators
; 1190 : 		return (replace(begin(), end(), _First, _Last));
; 1191 : 		}
; 1192 : 
; 1193 : 	_Myt& assign(const_pointer _First, const_pointer _Last)
; 1194 : 		{	// assign [_First, _Last), const pointers
; 1195 : 		return (replace(begin(), end(), _First, _Last));
; 1196 : 		}
; 1197 : 
; 1198 : 	_Myt& assign(const_iterator _First, const_iterator _Last)
; 1199 : 		{	// assign [_First, _Last), const_iterators
; 1200 : 		return (replace(begin(), end(), _First, _Last));
; 1201 : 		}
; 1202 : 
; 1203 : 	_Myt& insert(size_type _Off, const _Myt& _Right)
; 1204 : 		{	// insert _Right at _Off
; 1205 : 		return (insert(_Off, _Right, 0, npos));
; 1206 : 		}
; 1207 : 
; 1208 : 	_Myt& insert(size_type _Off,
; 1209 : 		const _Myt& _Right, size_type _Roff, size_type _Count)
; 1210 : 		{	// insert _Right [_Roff, _Roff + _Count) at _Off
; 1211 : 		if (this->_Mysize < _Off || _Right.size() < _Roff)
; 1212 : 			_Xran();	// _Off or _Roff off end
; 1213 : 		size_type _Num = _Right.size() - _Roff;
; 1214 : 		if (_Num < _Count)
; 1215 : 			_Count = _Num;	// trim _Count to size
; 1216 : 		if (npos - this->_Mysize <= _Count)
; 1217 : 			_Xlen();	// result too long
; 1218 : 
; 1219 : 		if (0 < _Count && _Grow(_Num = this->_Mysize + _Count))
; 1220 : 			{	// make room and insert new stuff
; 1221 : 			_Traits::move(this->_Myptr() + _Off + _Count,
; 1222 : 				this->_Myptr() + _Off,
; 1223 : 				this->_Mysize - _Off);	// empty out hole
; 1224 : 			if (this == &_Right)
; 1225 : 				_Traits::move(this->_Myptr() + _Off,
; 1226 : 					this->_Myptr() + (_Off < _Roff ? _Roff + _Count : _Roff),
; 1227 : 						_Count);	// substring
; 1228 : 			else
; 1229 : 				_Traits::copy(this->_Myptr() + _Off,
; 1230 : 					_Right._Myptr() + _Roff, _Count);	// fill hole
; 1231 : 			_Eos(_Num);
; 1232 : 			}
; 1233 : 		return (*this);
; 1234 : 		}
; 1235 : 
; 1236 : 	_Myt& insert(size_type _Off,
; 1237 : 		const _Elem *_Ptr, size_type _Count)
; 1238 : 		{	// insert [_Ptr, _Ptr + _Count) at _Off
; 1239 :  #if _ITERATOR_DEBUG_LEVEL == 2
; 1240 : 		if (_Count != 0)
; 1241 : 			_DEBUG_POINTER(_Ptr);
; 1242 :  #endif /* _ITERATOR_DEBUG_LEVEL == 2 */
; 1243 : 
; 1244 : 		if (_Inside(_Ptr))
; 1245 : 			return (insert(_Off, *this,
; 1246 : 				_Ptr - this->_Myptr(), _Count));	// substring
; 1247 : 		if (this->_Mysize < _Off)
; 1248 : 			_Xran();	// _Off off end
; 1249 : 		if (npos - this->_Mysize <= _Count)
; 1250 : 			_Xlen();	// result too long
; 1251 : 		size_type _Num;
; 1252 : 		if (0 < _Count && _Grow(_Num = this->_Mysize + _Count))
; 1253 : 			{	// make room and insert new stuff
; 1254 : 			_Traits::move(this->_Myptr() + _Off + _Count,
; 1255 : 				this->_Myptr() + _Off,
; 1256 : 				this->_Mysize - _Off);	// empty out hole
; 1257 : 			_Traits::copy(this->_Myptr() + _Off, _Ptr, _Count);	// fill hole
; 1258 : 			_Eos(_Num);
; 1259 : 			}
; 1260 : 		return (*this);
; 1261 : 		}
; 1262 : 
; 1263 : 	_Myt& insert(size_type _Off, const _Elem *_Ptr)
; 1264 : 		{	// insert [_Ptr, <null>) at _Off
; 1265 : 		_DEBUG_POINTER(_Ptr);
; 1266 : 		return (insert(_Off, _Ptr, _Traits::length(_Ptr)));
; 1267 : 		}
; 1268 : 
; 1269 : 	_Myt& insert(size_type _Off,
; 1270 : 		size_type _Count, _Elem _Ch)
; 1271 : 		{	// insert _Count * _Ch at _Off
; 1272 : 		if (this->_Mysize < _Off)
; 1273 : 			_Xran();	// _Off off end
; 1274 : 		if (npos - this->_Mysize <= _Count)
; 1275 : 			_Xlen();	// result too long
; 1276 : 		size_type _Num;
; 1277 : 		if (0 < _Count && _Grow(_Num = this->_Mysize + _Count))
; 1278 : 			{	// make room and insert new stuff
; 1279 : 			_Traits::move(this->_Myptr() + _Off + _Count,
; 1280 : 				this->_Myptr() + _Off,
; 1281 : 				this->_Mysize - _Off);	// empty out hole
; 1282 : 			_Chassign(_Off, _Count, _Ch);	// fill hole
; 1283 : 			_Eos(_Num);
; 1284 : 			}
; 1285 : 		return (*this);
; 1286 : 		}
; 1287 : 
; 1288 : 	iterator insert(const_iterator _Where)
; 1289 : 		{	// insert <null> at _Where
; 1290 : 		return (insert(_Where, _Elem()));
; 1291 : 		}
; 1292 : 
; 1293 : 	iterator insert(const_iterator _Where, _Elem _Ch)
; 1294 : 		{	// insert _Ch at _Where
; 1295 : 		size_type _Off = _Pdif(_Where, begin());
; 1296 : 		insert(_Off, 1, _Ch);
; 1297 : 		return (begin() + _Off);
; 1298 : 		}
; 1299 : 
; 1300 : 	iterator insert(const_iterator _Where, size_type _Count, _Elem _Ch)
; 1301 : 		{	// insert _Count * _Elem at _Where
; 1302 : 		size_type _Off = _Pdif(_Where, begin());
; 1303 : 		insert(_Off, _Count, _Ch);
; 1304 : 		return (begin() + _Off);
; 1305 : 		}
; 1306 : 
; 1307 : 	template<class _Iter>
; 1308 : 		typename enable_if<_Is_iterator<_Iter>::value,
; 1309 : 			iterator>::type
; 1310 : 		insert(const_iterator _Where, _Iter _First, _Iter _Last)
; 1311 : 		{	// insert [_First, _Last) at _Where, input iterators
; 1312 : 		size_type _Off = _Pdif(_Where, begin());
; 1313 : 		replace(_Where, _Where, _First, _Last);
; 1314 : 		return (begin() + _Off);
; 1315 : 		}
; 1316 : 
; 1317 : 	iterator insert(const_iterator _Where,
; 1318 : 		const_pointer _First, const_pointer _Last)
; 1319 : 		{	// insert [_First, _Last) at _Where, const pointers
; 1320 : 		size_type _Off = _Pdif(_Where, begin());
; 1321 : 		replace(_Where, _Where, _First, _Last);
; 1322 : 		return (begin() + _Off);
; 1323 : 		}
; 1324 : 
; 1325 : 	iterator insert(const_iterator _Where,
; 1326 : 		const_iterator _First, const_iterator _Last)
; 1327 : 		{	// insert [_First, _Last) at _Where, const_iterators
; 1328 : 		size_type _Off = _Pdif(_Where, begin());
; 1329 : 		replace(_Where, _Where, _First, _Last);
; 1330 : 		return (begin() + _Off);
; 1331 : 		}
; 1332 : 
; 1333 : 	_Myt& erase(size_type _Off = 0)
; 1334 : 		{	// erase elements [_Off, ...)
; 1335 : 		if (this->_Mysize < _Off)
; 1336 : 			_Xran();	// _Off off end
; 1337 : 		_Eos(_Off);
; 1338 : 		return (*this);
; 1339 : 		}
; 1340 : 
; 1341 : 	_Myt& erase(size_type _Off, size_type _Count)
; 1342 : 		{	// erase elements [_Off, _Off + _Count)
; 1343 : 		if (this->_Mysize < _Off)
; 1344 : 			_Xran();	// _Off off end
; 1345 : 		if (this->_Mysize - _Off <= _Count)
; 1346 : 			_Eos(_Off);	// erase elements [_Off, ...)
; 1347 : 		else if (0 < _Count)
; 1348 : 			{	// move elements down
; 1349 : 			value_type *_Ptr = this->_Myptr() + _Off;
; 1350 : 			size_type _Newsize = this->_Mysize - _Count;
; 1351 : 			_Traits::move(_Ptr, _Ptr + _Count, _Newsize - _Off);
; 1352 : 			_Eos(_Newsize);
; 1353 : 			}
; 1354 : 		return (*this);
; 1355 : 		}
; 1356 : 
; 1357 : 	iterator erase(const_iterator _Where)
; 1358 : 		{	// erase element at _Where
; 1359 : 		size_type _Count = _Pdif(_Where, begin());
; 1360 : 		erase(_Count, 1);
; 1361 : 		return (_STRING_ITERATOR(this->_Myptr() + _Count));
; 1362 : 		}
; 1363 : 
; 1364 : 	iterator erase(const_iterator _First, const_iterator _Last)
; 1365 : 		{	// erase substring [_First, _Last)
; 1366 : 		_DEBUG_RANGE(_First, _Last);
; 1367 : 		size_type _Count = _Pdif(_First, begin());
; 1368 : 		erase(_Count, _Pdif(_Last, _First));
; 1369 : 		return (_STRING_ITERATOR(this->_Myptr() + _Count));
; 1370 : 		}
; 1371 : 
; 1372 : 	void clear() _NOEXCEPT
; 1373 : 		{	// erase all
; 1374 : 		_Eos(0);
; 1375 : 		}
; 1376 : 
; 1377 : 	_Myt& replace(size_type _Off, size_type _N0, const _Myt& _Right)
; 1378 : 		{	// replace [_Off, _Off + _N0) with _Right
; 1379 : 		return (replace(_Off, _N0, _Right, 0, npos));
; 1380 : 		}
; 1381 : 
; 1382 : 	_Myt& replace(size_type _Off,
; 1383 : 		size_type _N0, const _Myt& _Right, size_type _Roff, size_type _Count)
; 1384 : 		{	// replace [_Off, _Off + _N0) with _Right [_Roff, _Roff + _Count)
; 1385 : 		if (this->_Mysize < _Off || _Right.size() < _Roff)
; 1386 : 			_Xran();	// _Off or _Roff off end
; 1387 : 		if (this->_Mysize - _Off < _N0)
; 1388 : 			_N0 = this->_Mysize - _Off;	// trim _N0 to size
; 1389 : 		size_type _Num = _Right.size() - _Roff;
; 1390 : 		if (_Num < _Count)
; 1391 : 			_Count = _Num;	// trim _Count to size
; 1392 : 		if (npos - _Count <= this->_Mysize - _N0)
; 1393 : 			_Xlen();	// result too long
; 1394 : 
; 1395 : 		size_type _Nm = this->_Mysize - _N0 - _Off;	// length of kept tail
; 1396 : 		size_type _Newsize = this->_Mysize + _Count - _N0;
; 1397 : 		if (this->_Mysize < _Newsize)
; 1398 : 			_Grow(_Newsize);
; 1399 : 
; 1400 : 		if (this != &_Right)
; 1401 : 			{	// no overlap, just move down and copy in new stuff
; 1402 : 			_Traits::move(this->_Myptr() + _Off + _Count,
; 1403 : 				this->_Myptr() + _Off + _N0, _Nm);	// empty hole
; 1404 : 			_Traits::copy(this->_Myptr() + _Off,
; 1405 : 				_Right._Myptr() + _Roff, _Count);	// fill hole
; 1406 : 			}
; 1407 : 		else if (_Count <= _N0)
; 1408 : 			{	// hole doesn't get larger, just copy in substring
; 1409 : 			_Traits::move(this->_Myptr() + _Off,
; 1410 : 				this->_Myptr() + _Roff, _Count);	// fill hole
; 1411 : 			_Traits::move(this->_Myptr() + _Off + _Count,
; 1412 : 				this->_Myptr() + _Off + _N0, _Nm);	// move tail down
; 1413 : 			}
; 1414 : 		else if (_Roff <= _Off)
; 1415 : 			{	// hole gets larger, substring begins before hole
; 1416 : 			_Traits::move(this->_Myptr() + _Off + _Count,
; 1417 : 				this->_Myptr() + _Off + _N0, _Nm);	// move tail down
; 1418 : 			_Traits::move(this->_Myptr() + _Off,
; 1419 : 				this->_Myptr() + _Roff, _Count);	// fill hole
; 1420 : 			}
; 1421 : 		else if (_Off + _N0 <= _Roff)
; 1422 : 			{	// hole gets larger, substring begins after hole
; 1423 : 			_Traits::move(this->_Myptr() + _Off + _Count,
; 1424 : 				this->_Myptr() + _Off + _N0, _Nm);	// move tail down
; 1425 : 			_Traits::move(this->_Myptr() + _Off,
; 1426 : 				this->_Myptr() + (_Roff + _Count - _N0),
; 1427 : 				_Count);	// fill hole
; 1428 : 			}
; 1429 : 		else
; 1430 : 			{	// hole gets larger, substring begins in hole
; 1431 : 			_Traits::move(this->_Myptr() + _Off,
; 1432 : 				this->_Myptr() + _Roff, _N0);	// fill old hole
; 1433 : 			_Traits::move(this->_Myptr() + _Off + _Count,
; 1434 : 				this->_Myptr() + _Off + _N0, _Nm);	// move tail down
; 1435 : 			_Traits::move(this->_Myptr() + _Off + _N0,
; 1436 : 				this->_Myptr() + _Roff + _Count,
; 1437 : 				_Count - _N0);	// fill rest of new hole
; 1438 : 			}
; 1439 : 
; 1440 : 		_Eos(_Newsize);
; 1441 : 		return (*this);
; 1442 : 		}
; 1443 : 
; 1444 : 	_Myt& replace(size_type _Off,
; 1445 : 		size_type _N0, const _Elem *_Ptr, size_type _Count)
; 1446 : 		{	// replace [_Off, _Off + _N0) with [_Ptr, _Ptr + _Count)
; 1447 :  #if _ITERATOR_DEBUG_LEVEL == 2
; 1448 : 		if (_Count != 0)
; 1449 : 			_DEBUG_POINTER(_Ptr);
; 1450 :  #endif /* _ITERATOR_DEBUG_LEVEL == 2 */
; 1451 : 
; 1452 : 		if (_Inside(_Ptr))
; 1453 : 			return (replace(_Off, _N0, *this,
; 1454 : 				_Ptr - this->_Myptr(),
; 1455 : 				_Count));	// substring, replace carefully
; 1456 : 		if (this->_Mysize < _Off)
; 1457 : 			_Xran();	// _Off off end
; 1458 : 		if (this->_Mysize - _Off < _N0)
; 1459 : 			_N0 = this->_Mysize - _Off;	// trim _N0 to size
; 1460 : 		if (npos - _Count <= this->_Mysize - _N0)
; 1461 : 			_Xlen();	// result too long
; 1462 : 		size_type _Nm = this->_Mysize - _N0 - _Off;
; 1463 : 
; 1464 : 		if (_Count < _N0)
; 1465 : 			_Traits::move(this->_Myptr() + _Off + _Count,
; 1466 : 				this->_Myptr() + _Off + _N0,
; 1467 : 				_Nm);	// smaller hole, move tail up
; 1468 : 		size_type _Num;
; 1469 : 		if ((0 < _Count || 0 < _N0)
; 1470 : 			&& _Grow(_Num = this->_Mysize + _Count - _N0))
; 1471 : 			{	// make room and rearrange
; 1472 : 			if (_N0 < _Count)
; 1473 : 				_Traits::move(this->_Myptr() + _Off + _Count,
; 1474 : 					this->_Myptr() + _Off + _N0, _Nm);	// move tail down
; 1475 : 			_Traits::copy(this->_Myptr() + _Off, _Ptr, _Count);	// fill hole
; 1476 : 			_Eos(_Num);
; 1477 : 			}
; 1478 : 		return (*this);
; 1479 : 		}
; 1480 : 
; 1481 : 	_Myt& replace(size_type _Off, size_type _N0, const _Elem *_Ptr)
; 1482 : 		{	// replace [_Off, _Off + _N0) with [_Ptr, <null>)
; 1483 : 		_DEBUG_POINTER(_Ptr);
; 1484 : 		return (replace(_Off, _N0, _Ptr, _Traits::length(_Ptr)));
; 1485 : 		}
; 1486 : 
; 1487 : 	_Myt& replace(size_type _Off,
; 1488 : 		size_type _N0, size_type _Count, _Elem _Ch)
; 1489 : 		{	// replace [_Off, _Off + _N0) with _Count * _Ch
; 1490 : 		if (this->_Mysize < _Off)
; 1491 : 			_Xran();	// _Off off end
; 1492 : 		if (this->_Mysize - _Off < _N0)
; 1493 : 			_N0 = this->_Mysize - _Off;	// trim _N0 to size
; 1494 : 		if (npos - _Count <= this->_Mysize - _N0)
; 1495 : 			_Xlen();	// result too long
; 1496 : 		size_type _Nm = this->_Mysize - _N0 - _Off;
; 1497 : 
; 1498 : 		if (_Count < _N0)
; 1499 : 			_Traits::move(this->_Myptr() + _Off + _Count,
; 1500 : 				this->_Myptr() + _Off + _N0,
; 1501 : 				_Nm);	// smaller hole, move tail up
; 1502 : 		size_type _Num;
; 1503 : 		if ((0 < _Count || 0 < _N0)
; 1504 : 			&& _Grow(_Num = this->_Mysize + _Count - _N0))
; 1505 : 			{	// make room and rearrange
; 1506 : 			if (_N0 < _Count)
; 1507 : 				_Traits::move(this->_Myptr() + _Off + _Count,
; 1508 : 					this->_Myptr() + _Off + _N0, _Nm);	// move tail down
; 1509 : 			_Chassign(_Off, _Count, _Ch);	// fill hole
; 1510 : 			_Eos(_Num);
; 1511 : 			}
; 1512 : 		return (*this);
; 1513 : 		}
; 1514 : 
; 1515 : 	_Myt& replace(const_iterator _First, const_iterator _Last,
; 1516 : 		const _Myt& _Right)
; 1517 : 		{	// replace [_First, _Last) with _Right
; 1518 : 		return (replace(
; 1519 : 			_Pdif(_First, begin()), _Pdif(_Last, _First), _Right));
; 1520 : 		}
; 1521 : 
; 1522 : 	_Myt& replace(const_iterator _First, const_iterator _Last,
; 1523 : 		const _Elem *_Ptr, size_type _Count)
; 1524 : 		{	// replace [_First, _Last) with [_Ptr, _Ptr + _Count)
; 1525 : 		return (replace(
; 1526 : 			_Pdif(_First, begin()), _Pdif(_Last, _First), _Ptr, _Count));
; 1527 : 		}
; 1528 : 
; 1529 : 	_Myt& replace(const_iterator _First, const_iterator _Last,
; 1530 : 		const _Elem *_Ptr)
; 1531 : 		{	// replace [_First, _Last) with [_Ptr, <null>)
; 1532 : 		return (replace(
; 1533 : 			_Pdif(_First, begin()), _Pdif(_Last, _First), _Ptr));
; 1534 : 		}
; 1535 : 
; 1536 : 	_Myt& replace(const_iterator _First, const_iterator _Last,
; 1537 : 		size_type _Count, _Elem _Ch)
; 1538 : 		{	// replace [_First, _Last) with _Count * _Ch
; 1539 : 		return (replace(
; 1540 : 			_Pdif(_First, begin()), _Pdif(_Last, _First), _Count, _Ch));
; 1541 : 		}
; 1542 : 
; 1543 : 	template<class _Iter>
; 1544 : 		typename enable_if<_Is_iterator<_Iter>::value,
; 1545 : 			_Myt&>::type
; 1546 : 		replace(const_iterator _First, const_iterator _Last,
; 1547 : 			_Iter _First2, _Iter _Last2)
; 1548 : 		{	// replace [_First, _Last) with [_First2, _Last2), input iterators
; 1549 : 		_Myt _Right(_First2, _Last2);
; 1550 : 		replace(_First, _Last, _Right);
; 1551 : 		return (*this);
; 1552 : 		}
; 1553 : 
; 1554 : 	_Myt& replace(const_iterator _First, const_iterator _Last,
; 1555 : 		const_pointer _First2, const_pointer _Last2)
; 1556 : 		{	// replace [_First, _Last) with [_First2, _Last2), const pointers
; 1557 : 		if (_First2 == _Last2)
; 1558 : 			erase(_Pdif(_First, begin()), _Pdif(_Last, _First));
; 1559 : 		else
; 1560 : 			replace(_Pdif(_First, begin()), _Pdif(_Last, _First),
; 1561 : 				&*_First2, _Last2 - _First2);
; 1562 : 		return (*this);
; 1563 : 		}
; 1564 : 
; 1565 : 	_Myt& replace(const_iterator _First, const_iterator _Last,
; 1566 : 		pointer _First2, pointer _Last2)
; 1567 : 		{	// replace [_First, _Last) with [_First2, _Last2), const pointers
; 1568 : 		if (_First2 == _Last2)
; 1569 : 			erase(_Pdif(_First, begin()), _Pdif(_Last, _First));
; 1570 : 		else
; 1571 : 			replace(_Pdif(_First, begin()), _Pdif(_Last, _First),
; 1572 : 				&*_First2, _Last2 - _First2);
; 1573 : 		return (*this);
; 1574 : 		}
; 1575 : 
; 1576 : 	_Myt& replace(const_iterator _First, const_iterator _Last,
; 1577 : 		const_iterator _First2, const_iterator _Last2)
; 1578 : 		{	// replace [_First, _Last) with [_First2, _Last2), const_iterators
; 1579 : 		if (_First2 == _Last2)
; 1580 : 			erase(_Pdif(_First, begin()), _Pdif(_Last, _First));
; 1581 : 		else
; 1582 : 			replace(_Pdif(_First, begin()), _Pdif(_Last, _First),
; 1583 : 				&*_First2, _Last2 - _First2);
; 1584 : 		return (*this);
; 1585 : 		}
; 1586 : 
; 1587 : 	_Myt& replace(const_iterator _First, const_iterator _Last,
; 1588 : 		iterator _First2, iterator _Last2)
; 1589 : 		{	// replace [_First, _Last) with [_First2, _Last2), const_iterators
; 1590 : 		if (_First2 == _Last2)
; 1591 : 			erase(_Pdif(_First, begin()), _Pdif(_Last, _First));
; 1592 : 		else
; 1593 : 			replace(_Pdif(_First, begin()), _Pdif(_Last, _First),
; 1594 : 				&*_First2, _Last2 - _First2);
; 1595 : 		return (*this);
; 1596 : 		}
; 1597 : 
; 1598 : 	iterator begin() _NOEXCEPT
; 1599 : 		{	// return iterator for beginning of mutable sequence
; 1600 : 		return (_STRING_ITERATOR(this->_Myptr()));
; 1601 : 		}
; 1602 : 
; 1603 : 	const_iterator begin() const _NOEXCEPT
; 1604 : 		{	// return iterator for beginning of nonmutable sequence
; 1605 : 		return (_STRING_CONST_ITERATOR(this->_Myptr()));
; 1606 : 		}
; 1607 : 
; 1608 : 	iterator end() _NOEXCEPT
; 1609 : 		{	// return iterator for end of mutable sequence
; 1610 : 		return (_STRING_ITERATOR(this->_Myptr() + this->_Mysize));
; 1611 : 		}
; 1612 : 
; 1613 : 	const_iterator end() const _NOEXCEPT
; 1614 : 		{	// return iterator for end of nonmutable sequence
; 1615 : 		return (_STRING_CONST_ITERATOR(this->_Myptr() + this->_Mysize));
; 1616 : 		}
; 1617 : 
; 1618 : 	reverse_iterator rbegin() _NOEXCEPT
; 1619 : 		{	// return iterator for beginning of reversed mutable sequence
; 1620 : 		return (reverse_iterator(end()));
; 1621 : 		}
; 1622 : 
; 1623 : 	const_reverse_iterator rbegin() const _NOEXCEPT
; 1624 : 		{	// return iterator for beginning of reversed nonmutable sequence
; 1625 : 		return (const_reverse_iterator(end()));
; 1626 : 		}
; 1627 : 
; 1628 : 	reverse_iterator rend() _NOEXCEPT
; 1629 : 		{	// return iterator for end of reversed mutable sequence
; 1630 : 		return (reverse_iterator(begin()));
; 1631 : 		}
; 1632 : 
; 1633 : 	const_reverse_iterator rend() const _NOEXCEPT
; 1634 : 		{	// return iterator for end of reversed nonmutable sequence
; 1635 : 		return (const_reverse_iterator(begin()));
; 1636 : 		}
; 1637 : 
; 1638 : 	const_iterator cbegin() const _NOEXCEPT
; 1639 : 		{	// return iterator for beginning of nonmutable sequence
; 1640 : 		return (((const _Myt *)this)->begin());
; 1641 : 		}
; 1642 : 
; 1643 : 	const_iterator cend() const _NOEXCEPT
; 1644 : 		{	// return iterator for end of nonmutable sequence
; 1645 : 		return (((const _Myt *)this)->end());
; 1646 : 		}
; 1647 : 
; 1648 : 	const_reverse_iterator crbegin() const _NOEXCEPT
; 1649 : 		{	// return iterator for beginning of reversed nonmutable sequence
; 1650 : 		return (((const _Myt *)this)->rbegin());
; 1651 : 		}
; 1652 : 
; 1653 : 	const_reverse_iterator crend() const _NOEXCEPT
; 1654 : 		{	// return iterator for end of reversed nonmutable sequence
; 1655 : 		return (((const _Myt *)this)->rend());
; 1656 : 		}
; 1657 : 
; 1658 : 	void shrink_to_fit()
; 1659 : 		{	// reduce capacity
; 1660 : 		if ((size() | this->_ALLOC_MASK) < capacity())
; 1661 : 			{	// worth shrinking, do it
; 1662 : 			_Myt _Tmp(*this);
; 1663 : 			swap(_Tmp);
; 1664 : 			}
; 1665 : 		}
; 1666 : 
; 1667 : 	reference at(size_type _Off)
; 1668 : 		{	// subscript mutable sequence with checking
; 1669 : 		if (this->_Mysize <= _Off)
; 1670 : 			_Xran();	// _Off off end
; 1671 : 		return (this->_Myptr()[_Off]);
; 1672 : 		}
; 1673 : 
; 1674 : 	const_reference at(size_type _Off) const
; 1675 : 		{	// subscript nonmutable sequence with checking
; 1676 : 		if (this->_Mysize <= _Off)
; 1677 : 			_Xran();	// _Off off end
; 1678 : 		return (this->_Myptr()[_Off]);
; 1679 : 		}
; 1680 : 
; 1681 : 	reference operator[](size_type _Off)
; 1682 : 		{	// subscript mutable sequence
; 1683 :  #if _ITERATOR_DEBUG_LEVEL == 2
; 1684 : 		if (this->_Mysize < _Off)	// sic
; 1685 : 			_DEBUG_ERROR("string subscript out of range");
; 1686 : 
; 1687 :  #elif _ITERATOR_DEBUG_LEVEL == 1
; 1688 : 		_SCL_SECURE_VALIDATE_RANGE(_Off <= this->_Mysize);	// sic
; 1689 :  #endif /* _ITERATOR_DEBUG_LEVEL == 2 */
; 1690 : 
; 1691 : 		return (this->_Myptr()[_Off]);
; 1692 : 		}
; 1693 : 
; 1694 : 	const_reference operator[](size_type _Off) const
; 1695 : 		{	// subscript nonmutable sequence
; 1696 :  #if _ITERATOR_DEBUG_LEVEL == 2
; 1697 : 		if (this->_Mysize < _Off)	// sic
; 1698 : 			_DEBUG_ERROR("string subscript out of range");
; 1699 : 
; 1700 :  #elif _ITERATOR_DEBUG_LEVEL == 1
; 1701 : 		_SCL_SECURE_VALIDATE_RANGE(_Off <= this->_Mysize);	// sic
; 1702 :  #endif /* _ITERATOR_DEBUG_LEVEL == 2 */
; 1703 : 
; 1704 : 		return (this->_Myptr()[_Off]);
; 1705 : 		}
; 1706 : 
; 1707 : 	void push_back(_Elem _Ch)
; 1708 : 		{	// insert element at end
; 1709 : 		insert(end(), _Ch);
; 1710 : 		}
; 1711 : 
; 1712 : 	void pop_back()
; 1713 : 		{	// erase element at end
; 1714 : 		erase(this->_Mysize - 1);	// throws if _Mysize == 0
; 1715 : 		}
; 1716 : 
; 1717 : 	reference front()
; 1718 : 		{	// return first element of mutable sequence
; 1719 : 		return (*begin());
; 1720 : 		}
; 1721 : 
; 1722 : 	const_reference front() const
; 1723 : 		{	// return first element of nonmutable sequence
; 1724 : 		return (*begin());
; 1725 : 		}
; 1726 : 
; 1727 : 	reference back()
; 1728 : 		{	// return last element of mutable sequence
; 1729 : 		return (*(end() - 1));
; 1730 : 		}
; 1731 : 
; 1732 : 	const_reference back() const
; 1733 : 		{	// return last element of nonmutable sequence
; 1734 : 		return (*(end() - 1));
; 1735 : 		}
; 1736 : 
; 1737 : 	const _Elem *c_str() const _NOEXCEPT
; 1738 : 		{	// return pointer to null-terminated nonmutable array
; 1739 : 		return (this->_Myptr());
; 1740 : 		}
; 1741 : 
; 1742 : 	const _Elem *data() const _NOEXCEPT
; 1743 : 		{	// return pointer to nonmutable array
; 1744 : 		return (c_str());
; 1745 : 		}
; 1746 : 
; 1747 : 	size_type length() const _NOEXCEPT
; 1748 : 		{	// return length of sequence
; 1749 : 		return (this->_Mysize);
; 1750 : 		}
; 1751 : 
; 1752 : 	size_type size() const _NOEXCEPT
; 1753 : 		{	// return length of sequence
; 1754 : 		return (this->_Mysize);
; 1755 : 		}
; 1756 : 
; 1757 : 	size_type max_size() const _NOEXCEPT
; 1758 : 		{	// return maximum possible length of sequence
; 1759 : 		size_type _Num = this->_Getal().max_size();
; 1760 : 		return (_Num <= 1 ? 1 : _Num - 1);
; 1761 : 		}
; 1762 : 
; 1763 : 	void resize(size_type _Newsize)
; 1764 : 		{	// determine new length, padding with null elements as needed
; 1765 : 		resize(_Newsize, _Elem());
; 1766 : 		}
; 1767 : 
; 1768 : 	void resize(size_type _Newsize, _Elem _Ch)
; 1769 : 		{	// determine new length, padding with _Ch elements as needed
; 1770 : 		if (_Newsize <= this->_Mysize)
; 1771 : 			_Eos(_Newsize);
; 1772 : 		else
; 1773 : 			append(_Newsize - this->_Mysize, _Ch);
; 1774 : 		}
; 1775 : 
; 1776 : 	size_type capacity() const _NOEXCEPT
; 1777 : 		{	// return current length of allocated storage
; 1778 : 		return (this->_Myres);
; 1779 : 		}
; 1780 : 
; 1781 : 	void reserve(size_type _Newcap = 0)
; 1782 : 		{	// determine new minimum length of allocated storage
; 1783 : 		if (this->_Mysize <= _Newcap && this->_Myres != _Newcap)
; 1784 : 			{	// change reservation
; 1785 : 			size_type _Size = this->_Mysize;
; 1786 : 			if (_Grow(_Newcap, true))
; 1787 : 				_Eos(_Size);
; 1788 : 			}
; 1789 : 		}
; 1790 : 
; 1791 : 	bool empty() const _NOEXCEPT
; 1792 : 		{	// test if sequence is empty
; 1793 : 		return (this->_Mysize == 0);
; 1794 : 		}
; 1795 : 
; 1796 : 	_SCL_INSECURE_DEPRECATE
; 1797 : 
; 1798 : 	size_type copy(_Elem *_Ptr,
; 1799 : 		size_type _Count, size_type _Off = 0) const
; 1800 : 		{	// copy [_Off, _Off + _Count) to [_Ptr, _Ptr + _Count)
; 1801 :  #if _ITERATOR_DEBUG_LEVEL == 2
; 1802 : 		if (_Count != 0)
; 1803 : 			_DEBUG_POINTER(_Ptr);
; 1804 :  #endif /* _ITERATOR_DEBUG_LEVEL == 2 */
; 1805 : 
; 1806 : 		if (this->_Mysize < _Off)
; 1807 : 			_Xran();	// _Off off end
; 1808 : 		if (this->_Mysize - _Off < _Count)
; 1809 : 			_Count = this->_Mysize - _Off;
; 1810 : 		_Traits::copy(_Ptr, this->_Myptr() + _Off, _Count);
; 1811 : 		return (_Count);
; 1812 : 		}
; 1813 : 
; 1814 : 	size_type _Copy_s(_Elem *_Dest, size_type _Dest_size,
; 1815 : 		size_type _Count, size_type _Off = 0) const
; 1816 : 		{	// copy [_Off, _Off + _Count) to [_Dest, _Dest + _Count)
; 1817 :  #if _ITERATOR_DEBUG_LEVEL == 2
; 1818 : 		if (_Count != 0)
; 1819 : 			_DEBUG_POINTER(_Dest);
; 1820 :  #endif /* _ITERATOR_DEBUG_LEVEL == 2 */
; 1821 : 
; 1822 : 		if (this->_Mysize < _Off)
; 1823 : 			_Xran();	// _Off off end
; 1824 : 		if (this->_Mysize - _Off < _Count)
; 1825 : 			_Count = this->_Mysize - _Off;
; 1826 : 		_Traits::_Copy_s(_Dest, _Dest_size, this->_Myptr() + _Off, _Count);
; 1827 : 		return (_Count);
; 1828 : 		}
; 1829 : 
; 1830 : 	void _Swap_bx(_Myt& _Right)
; 1831 : 		{	// exchange _Bx with _Right._Bx
; 1832 : 		if (this->_BUF_SIZE <= this->_Myres)
; 1833 : 			if (this->_BUF_SIZE <= _Right._Myres)
; 1834 : 				_Swap_adl(this->_Bx._Ptr, _Right._Bx._Ptr);
; 1835 : 			else
; 1836 : 				{	// swap large with small
; 1837 : 				pointer _Ptr = this->_Bx._Ptr;
; 1838 : 				this->_Getal().destroy(&this->_Bx._Ptr);
; 1839 : 				_Traits::copy(this->_Bx._Buf,
; 1840 : 					_Right._Bx._Buf, _Right._Mysize + 1);
; 1841 : 				this->_Getal().construct(&_Right._Bx._Ptr, _Ptr);
; 1842 : 				}
; 1843 : 		else
; 1844 : 			if (_Right._Myres < this->_BUF_SIZE)
; 1845 : 				_STD swap(this->_Bx._Buf, _Right._Bx._Buf);
; 1846 : 			else
; 1847 : 				{	// swap small with large
; 1848 : 				pointer _Ptr = _Right._Bx._Ptr;
; 1849 : 				this->_Getal().destroy(&_Right._Bx._Ptr);
; 1850 : 				_Traits::copy(_Right._Bx._Buf,
; 1851 : 					this->_Bx._Buf, this->_Mysize + 1);
; 1852 : 				this->_Getal().construct(&this->_Bx._Ptr, _Ptr);
; 1853 : 				}
; 1854 : 		}
; 1855 : 
; 1856 : 	void swap(_Myt& _Right)
; 1857 : 		{	// exchange contents with _Right
; 1858 : 		if (this == &_Right)
; 1859 : 			;	// same object, do nothing
; 1860 : 		else if (this->_Getal() == _Right._Getal())
; 1861 : 			{	// same allocator, swap control information
; 1862 : 			this->_Swap_all(_Right);
; 1863 : 			_Swap_bx(_Right);
; 1864 : 			_STD swap(this->_Mysize, _Right._Mysize);
; 1865 : 			_STD swap(this->_Myres, _Right._Myres);
; 1866 : 			}
; 1867 : 
; 1868 : 		else if (_Alty::propagate_on_container_swap::value)
; 1869 : 			{	// swap allocators and control information
; 1870 : 			this->_Swap_alloc(_Right);
; 1871 : 			_Swap_bx(_Right);
; 1872 : 			_STD swap(this->_Bx, _Right._Bx);	// pointer bitwise copyable?
; 1873 : 			_STD swap(this->_Mysize, _Right._Mysize);
; 1874 : 			_STD swap(this->_Myres, _Right._Myres);
; 1875 : 			}
; 1876 : 
; 1877 : 		else
; 1878 : 			{	// different allocator, do multiple assigns
; 1879 : 			_Myt _Tmp = *this;
; 1880 : 
; 1881 : 			*this = _Right;
; 1882 : 			_Right = _Tmp;
; 1883 : 			}
; 1884 : 		}
; 1885 : 
; 1886 : 	size_type find(const _Myt& _Right, size_type _Off = 0) const _NOEXCEPT
; 1887 : 		{	// look for _Right beginning at or after _Off
; 1888 : 		return (find(_Right._Myptr(), _Off, _Right.size()));
; 1889 : 		}
; 1890 : 
; 1891 : 	size_type find(const _Elem *_Ptr,
; 1892 : 		size_type _Off, size_type _Count) const
; 1893 : 		{	// look for [_Ptr, _Ptr + _Count) beginning at or after _Off
; 1894 :  #if _ITERATOR_DEBUG_LEVEL == 2
; 1895 : 		if (_Count != 0)
; 1896 : 			_DEBUG_POINTER(_Ptr);
; 1897 :  #endif /* _ITERATOR_DEBUG_LEVEL == 2 */
; 1898 : 
; 1899 : 		if (_Count == 0 && _Off <= this->_Mysize)
; 1900 : 			return (_Off);	// null string always matches (if inside string)
; 1901 : 
; 1902 : 		size_type _Nm;
; 1903 : 		if (_Off < this->_Mysize && _Count <= (_Nm = this->_Mysize - _Off))
; 1904 : 			{	// room for match, look for it
; 1905 : 			const _Elem *_Uptr, *_Vptr;
; 1906 : 			for (_Nm -= _Count - 1, _Vptr = this->_Myptr() + _Off;
; 1907 : 				(_Uptr = _Traits::find(_Vptr, _Nm, *_Ptr)) != 0;
; 1908 : 				_Nm -= _Uptr - _Vptr + 1, _Vptr = _Uptr + 1)
; 1909 : 				if (_Traits::compare(_Uptr, _Ptr, _Count) == 0)
; 1910 : 					return (_Uptr - this->_Myptr());	// found a match
; 1911 : 			}
; 1912 : 
; 1913 : 		return (npos);	// no match
; 1914 : 		}
; 1915 : 
; 1916 : 	size_type find(const _Elem *_Ptr, size_type _Off = 0) const
; 1917 : 		{	// look for [_Ptr, <null>) beginning at or after _Off
; 1918 : 		_DEBUG_POINTER(_Ptr);
; 1919 : 		return (find(_Ptr, _Off, _Traits::length(_Ptr)));
; 1920 : 		}
; 1921 : 
; 1922 : 	size_type find(_Elem _Ch, size_type _Off = 0) const
; 1923 : 		{	// look for _Ch at or after _Off
; 1924 : 		return (find((const _Elem *)&_Ch, _Off, 1));
; 1925 : 		}
; 1926 : 
; 1927 : 	size_type rfind(const _Myt& _Right, size_type _Off = npos) const _NOEXCEPT
; 1928 : 		{	// look for _Right beginning before _Off
; 1929 : 		return (rfind(_Right._Myptr(), _Off, _Right.size()));
; 1930 : 		}
; 1931 : 
; 1932 : 	size_type rfind(const _Elem *_Ptr,
; 1933 : 		size_type _Off, size_type _Count) const
; 1934 : 		{	// look for [_Ptr, _Ptr + _Count) beginning before _Off
; 1935 :  #if _ITERATOR_DEBUG_LEVEL == 2
; 1936 : 		if (_Count != 0)
; 1937 : 			_DEBUG_POINTER(_Ptr);
; 1938 :  #endif /* _ITERATOR_DEBUG_LEVEL == 2 */
; 1939 : 
; 1940 : 		if (_Count == 0)
; 1941 : 			return (_Off < this->_Mysize ? _Off
; 1942 : 				: this->_Mysize);	// null always matches
; 1943 : 		if (_Count <= this->_Mysize)
; 1944 : 			{	// room for match, look for it
; 1945 : 			const _Elem *_Uptr = this->_Myptr() +
; 1946 : 				(_Off < this->_Mysize - _Count ? _Off
; 1947 : 					: this->_Mysize - _Count);
; 1948 : 			for (; ; --_Uptr)
; 1949 : 				if (_Traits::eq(*_Uptr, *_Ptr)
; 1950 : 					&& _Traits::compare(_Uptr, _Ptr, _Count) == 0)
; 1951 : 					return (_Uptr - this->_Myptr());	// found a match
; 1952 : 				else if (_Uptr == this->_Myptr())
; 1953 : 					break;	// at beginning, no more chance for match
; 1954 : 			}
; 1955 : 
; 1956 : 		return (npos);	// no match
; 1957 : 		}
; 1958 : 
; 1959 : 	size_type rfind(const _Elem *_Ptr, size_type _Off = npos) const
; 1960 : 		{	// look for [_Ptr, <null>) beginning before _Off
; 1961 : 		_DEBUG_POINTER(_Ptr);
; 1962 : 		return (rfind(_Ptr, _Off, _Traits::length(_Ptr)));
; 1963 : 		}
; 1964 : 
; 1965 : 	size_type rfind(_Elem _Ch, size_type _Off = npos) const
; 1966 : 		{	// look for _Ch before _Off
; 1967 : 		return (rfind((const _Elem *)&_Ch, _Off, 1));
; 1968 : 		}
; 1969 : 
; 1970 : 	size_type find_first_of(const _Myt& _Right,
; 1971 : 		size_type _Off = 0) const _NOEXCEPT
; 1972 : 		{	// look for one of _Right at or after _Off
; 1973 : 		return (find_first_of(_Right._Myptr(), _Off, _Right.size()));
; 1974 : 		}
; 1975 : 
; 1976 : 	size_type find_first_of(const _Elem *_Ptr,
; 1977 : 		size_type _Off, size_type _Count) const
; 1978 : 		{	// look for one of [_Ptr, _Ptr + _Count) at or after _Off
; 1979 :  #if _ITERATOR_DEBUG_LEVEL == 2
; 1980 : 		if (_Count != 0)
; 1981 : 			_DEBUG_POINTER(_Ptr);
; 1982 :  #endif /* _ITERATOR_DEBUG_LEVEL == 2 */
; 1983 : 
; 1984 : 		if (0 < _Count && _Off < this->_Mysize)
; 1985 : 			{	// room for match, look for it
; 1986 : 			const _Elem *const _Vptr = this->_Myptr() + this->_Mysize;
; 1987 : 			for (const _Elem *_Uptr = this->_Myptr() + _Off;
; 1988 : 				_Uptr < _Vptr; ++_Uptr)
; 1989 : 				if (_Traits::find(_Ptr, _Count, *_Uptr) != 0)
; 1990 : 					return (_Uptr - this->_Myptr());	// found a match
; 1991 : 			}
; 1992 : 
; 1993 : 		return (npos);	// no match
; 1994 : 		}
; 1995 : 
; 1996 : 	size_type find_first_of(const _Elem *_Ptr,
; 1997 : 		size_type _Off = 0) const
; 1998 : 		{	// look for one of [_Ptr, <null>) at or after _Off
; 1999 : 		_DEBUG_POINTER(_Ptr);
; 2000 : 		return (find_first_of(_Ptr, _Off, _Traits::length(_Ptr)));
; 2001 : 		}
; 2002 : 
; 2003 : 	size_type find_first_of(_Elem _Ch,
; 2004 : 		size_type _Off = 0) const
; 2005 : 		{	// look for _Ch at or after _Off
; 2006 : 		return (find((const _Elem *)&_Ch, _Off, 1));
; 2007 : 		}
; 2008 : 
; 2009 : 	size_type find_last_of(const _Myt& _Right,
; 2010 : 		size_type _Off = npos) const _NOEXCEPT
; 2011 : 		{	// look for one of _Right before _Off
; 2012 : 		return (find_last_of(_Right._Myptr(), _Off, _Right.size()));
; 2013 : 		}
; 2014 : 
; 2015 : 	size_type find_last_of(const _Elem *_Ptr,
; 2016 : 		size_type _Off, size_type _Count) const
; 2017 : 		{	// look for one of [_Ptr, _Ptr + _Count) before _Off
; 2018 :  #if _ITERATOR_DEBUG_LEVEL == 2
; 2019 : 		if (_Count != 0)
; 2020 : 			_DEBUG_POINTER(_Ptr);
; 2021 :  #endif /* _ITERATOR_DEBUG_LEVEL == 2 */
; 2022 : 
; 2023 : 		if (0 < _Count && 0 < this->_Mysize)
; 2024 : 			{	// worth searching, do it
; 2025 : 			const _Elem *_Uptr = this->_Myptr()
; 2026 : 				+ (_Off < this->_Mysize ? _Off : this->_Mysize - 1);
; 2027 : 			for (; ; --_Uptr)
; 2028 : 				if (_Traits::find(_Ptr, _Count, *_Uptr) != 0)
; 2029 : 					return (_Uptr - this->_Myptr());	// found a match
; 2030 : 				else if (_Uptr == this->_Myptr())
; 2031 : 					break;	// at beginning, no more chance for match
; 2032 : 			}
; 2033 : 
; 2034 : 		return (npos);	// no match
; 2035 : 		}
; 2036 : 
; 2037 : 	size_type find_last_of(const _Elem *_Ptr,
; 2038 : 		size_type _Off = npos) const
; 2039 : 		{	// look for one of [_Ptr, <null>) before _Off
; 2040 : 		_DEBUG_POINTER(_Ptr);
; 2041 : 		return (find_last_of(_Ptr, _Off, _Traits::length(_Ptr)));
; 2042 : 		}
; 2043 : 
; 2044 : 	size_type find_last_of(_Elem _Ch,
; 2045 : 		size_type _Off = npos) const
; 2046 : 		{	// look for _Ch before _Off
; 2047 : 		return (rfind((const _Elem *)&_Ch, _Off, 1));
; 2048 : 		}
; 2049 : 
; 2050 : 	size_type find_first_not_of(const _Myt& _Right,
; 2051 : 		size_type _Off = 0) const _NOEXCEPT
; 2052 : 		{	// look for none of _Right at or after _Off
; 2053 : 		return (find_first_not_of(_Right._Myptr(), _Off,
; 2054 : 			_Right.size()));
; 2055 : 		}
; 2056 : 
; 2057 : 	size_type find_first_not_of(const _Elem *_Ptr,
; 2058 : 		size_type _Off, size_type _Count) const
; 2059 : 		{	// look for none of [_Ptr, _Ptr + _Count) at or after _Off
; 2060 :  #if _ITERATOR_DEBUG_LEVEL == 2
; 2061 : 		if (_Count != 0)
; 2062 : 			_DEBUG_POINTER(_Ptr);
; 2063 :  #endif /* _ITERATOR_DEBUG_LEVEL == 2 */
; 2064 : 
; 2065 : 		if (_Off < this->_Mysize)
; 2066 : 			{	// room for match, look for it
; 2067 : 			const _Elem *const _Vptr = this->_Myptr() + this->_Mysize;
; 2068 : 			for (const _Elem *_Uptr = this->_Myptr() + _Off;
; 2069 : 				_Uptr < _Vptr; ++_Uptr)
; 2070 : 				if (_Traits::find(_Ptr, _Count, *_Uptr) == 0)
; 2071 : 					return (_Uptr - this->_Myptr());
; 2072 : 			}
; 2073 : 		return (npos);
; 2074 : 		}
; 2075 : 
; 2076 : 	size_type find_first_not_of(const _Elem *_Ptr,
; 2077 : 		size_type _Off = 0) const
; 2078 : 		{	// look for one of [_Ptr, <null>) at or after _Off
; 2079 : 		_DEBUG_POINTER(_Ptr);
; 2080 : 		return (find_first_not_of(_Ptr, _Off, _Traits::length(_Ptr)));
; 2081 : 		}
; 2082 : 
; 2083 : 	size_type find_first_not_of(_Elem _Ch,
; 2084 : 		size_type _Off = 0) const
; 2085 : 		{	// look for non _Ch at or after _Off
; 2086 : 		return (find_first_not_of((const _Elem *)&_Ch, _Off, 1));
; 2087 : 		}
; 2088 : 
; 2089 : 	size_type find_last_not_of(const _Myt& _Right,
; 2090 : 		size_type _Off = npos) const _NOEXCEPT
; 2091 : 		{	// look for none of _Right before _Off
; 2092 : 		return (find_last_not_of(_Right._Myptr(), _Off, _Right.size()));
; 2093 : 		}
; 2094 : 
; 2095 : 	size_type find_last_not_of(const _Elem *_Ptr,
; 2096 : 		size_type _Off, size_type _Count) const
; 2097 : 		{	// look for none of [_Ptr, _Ptr + _Count) before _Off
; 2098 :  #if _ITERATOR_DEBUG_LEVEL == 2
; 2099 : 		if (_Count != 0)
; 2100 : 			_DEBUG_POINTER(_Ptr);
; 2101 :  #endif /* _ITERATOR_DEBUG_LEVEL == 2 */
; 2102 : 
; 2103 : 		if (0 < this->_Mysize)
; 2104 : 			{	// worth searching, do it
; 2105 : 			const _Elem *_Uptr = this->_Myptr()
; 2106 : 				+ (_Off < this->_Mysize ? _Off : this->_Mysize - 1);
; 2107 : 			for (; ; --_Uptr)
; 2108 : 				if (_Traits::find(_Ptr, _Count, *_Uptr) == 0)
; 2109 : 					return (_Uptr - this->_Myptr());
; 2110 : 				else if (_Uptr == this->_Myptr())
; 2111 : 					break;
; 2112 : 			}
; 2113 : 		return (npos);
; 2114 : 		}
; 2115 : 
; 2116 : 	size_type find_last_not_of(const _Elem *_Ptr,
; 2117 : 		size_type _Off = npos) const
; 2118 : 		{	// look for none of [_Ptr, <null>) before _Off
; 2119 : 		_DEBUG_POINTER(_Ptr);
; 2120 : 		return (find_last_not_of(_Ptr, _Off, _Traits::length(_Ptr)));
; 2121 : 		}
; 2122 : 
; 2123 : 	size_type find_last_not_of(_Elem _Ch,
; 2124 : 		size_type _Off = npos) const
; 2125 : 		{	// look for non _Ch before _Off
; 2126 : 		return (find_last_not_of((const _Elem *)&_Ch, _Off, 1));
; 2127 : 		}
; 2128 : 
; 2129 : 	_Myt substr(size_type _Off = 0, size_type _Count = npos) const
; 2130 : 		{	// return [_Off, _Off + _Count) as new string
; 2131 : 		return (_Myt(*this, _Off, _Count, get_allocator()));
; 2132 : 		}
; 2133 : 
; 2134 : 	int compare(const _Myt& _Right) const _NOEXCEPT
; 2135 : 		{	// compare [0, _Mysize) with _Right
; 2136 : 		return (compare(0, this->_Mysize, _Right._Myptr(), _Right.size()));
; 2137 : 		}
; 2138 : 
; 2139 : 	int compare(size_type _Off, size_type _N0,
; 2140 : 		const _Myt& _Right) const
; 2141 : 		{	// compare [_Off, _Off + _N0) with _Right
; 2142 : 		return (compare(_Off, _N0, _Right, 0, npos));
; 2143 : 		}
; 2144 : 
; 2145 : 	int compare(size_type _Off,
; 2146 : 		size_type _N0, const _Myt& _Right,
; 2147 : 		size_type _Roff, size_type _Count) const
; 2148 : 		{	// compare [_Off, _Off + _N0) with _Right [_Roff, _Roff + _Count)
; 2149 : 		if (_Right.size() < _Roff)
; 2150 : 			_Xran();	// _Off off end
; 2151 : 		if (_Right._Mysize - _Roff < _Count)
; 2152 : 			_Count = _Right._Mysize - _Roff;	// trim _Count to size
; 2153 : 		return (compare(_Off, _N0, _Right._Myptr() + _Roff, _Count));
; 2154 : 		}
; 2155 : 
; 2156 : 	int compare(const _Elem *_Ptr) const
; 2157 : 		{	// compare [0, _Mysize) with [_Ptr, <null>)
; 2158 : 		_DEBUG_POINTER(_Ptr);
; 2159 : 		return (compare(0, this->_Mysize, _Ptr, _Traits::length(_Ptr)));
; 2160 : 		}
; 2161 : 
; 2162 : 	int compare(size_type _Off, size_type _N0, const _Elem *_Ptr) const
; 2163 : 		{	// compare [_Off, _Off + _N0) with [_Ptr, <null>)
; 2164 : 		_DEBUG_POINTER(_Ptr);
; 2165 : 		return (compare(_Off, _N0, _Ptr, _Traits::length(_Ptr)));
; 2166 : 		}
; 2167 : 
; 2168 : 	int compare(size_type _Off,
; 2169 : 		size_type _N0, const _Elem *_Ptr, size_type _Count) const
; 2170 : 		{	// compare [_Off, _Off + _N0) with [_Ptr, _Ptr + _Count)
; 2171 :  #if _ITERATOR_DEBUG_LEVEL == 2
; 2172 : 		if (_Count != 0)
; 2173 : 			_DEBUG_POINTER(_Ptr);
; 2174 :  #endif /* _ITERATOR_DEBUG_LEVEL == 2 */
; 2175 : 
; 2176 : 		if (this->_Mysize < _Off)
; 2177 : 			_Xran();	// _Off off end
; 2178 : 		if (this->_Mysize - _Off < _N0)
; 2179 : 			_N0 = this->_Mysize - _Off;	// trim _N0 to size
; 2180 : 
; 2181 : 		size_type _Ans = _Traits::compare(this->_Myptr() + _Off, _Ptr,
; 2182 : 			_N0 < _Count ? _N0 : _Count);
; 2183 : 		return (_Ans != 0 ? (int)_Ans : _N0 < _Count ? -1
; 2184 : 			: _N0 == _Count ? 0 : +1);
; 2185 : 		}
; 2186 : 
; 2187 : 	allocator_type get_allocator() const _NOEXCEPT
; 2188 : 		{	// return allocator object for values
; 2189 : 		return (this->_Getal());
; 2190 : 		}
; 2191 : 
; 2192 : 	void _Chassign(size_type _Off, size_type _Count, _Elem _Ch)
; 2193 : 		{	// assign _Count copies of _Ch beginning at _Off
; 2194 : 		if (_Count == 1)
; 2195 : 			_Traits::assign(*(this->_Myptr() + _Off), _Ch);
; 2196 : 		else
; 2197 : 			_Traits::assign(this->_Myptr() + _Off, _Count, _Ch);
; 2198 : 		}
; 2199 : 
; 2200 : 	void _Copy(size_type _Newsize, size_type _Oldlen)
; 2201 : 		{	// copy _Oldlen elements to newly allocated buffer
; 2202 : 		size_type _Newres = _Newsize | this->_ALLOC_MASK;
; 2203 : 		if (max_size() < _Newres)
; 2204 : 			_Newres = _Newsize;	// undo roundup if too big
; 2205 : 		else if (this->_Myres / 2 <= _Newres / 3)
; 2206 : 			;
; 2207 : 		else if (this->_Myres <= max_size() - this->_Myres / 2)
; 2208 : 			_Newres = this->_Myres
; 2209 : 				+ this->_Myres / 2;	// grow exponentially if possible
; 2210 : 		else
; 2211 : 			_Newres = max_size();	// settle for max_size()
; 2212 : 
; 2213 : 		_Elem *_Ptr;
; 2214 : 		_TRY_BEGIN
; 2215 : 			_Ptr = this->_Getal().allocate(_Newres + 1);
; 2216 : 		_CATCH_ALL
; 2217 : 			_Newres = _Newsize;	// allocation failed, undo roundup and retry
; 2218 : 			_TRY_BEGIN
; 2219 : 				_Ptr = this->_Getal().allocate(_Newres + 1);
; 2220 : 			_CATCH_ALL
; 2221 : 			_Tidy(true);	// failed again, discard storage and reraise
; 2222 : 			_RERAISE;
; 2223 : 			_CATCH_END
; 2224 : 		_CATCH_END
; 2225 : 
; 2226 : 		if (0 < _Oldlen)
; 2227 : 			_Traits::copy(_Ptr, this->_Myptr(),
; 2228 : 				_Oldlen);	// copy existing elements
; 2229 : 		_Tidy(true);
; 2230 : 		this->_Getal().construct(&this->_Bx._Ptr, _Ptr);
; 2231 : 		this->_Myres = _Newres;
; 2232 : 		_Eos(_Oldlen);
; 2233 : 		}
; 2234 : 
; 2235 : 	void _Eos(size_type _Newsize)
; 2236 : 		{	// set new length and null terminator
; 2237 : 		_Traits::assign(this->_Myptr()[this->_Mysize = _Newsize], _Elem());

  00068	c7 44 24 20 00
	00 00 00	 mov	 DWORD PTR $T2[esp+76], 0
; File c:\program files (x86)\microsoft visual studio 12.0\vc\include\iosfwd

; 564  : 		_Left = _Right;

  00070	c6 44 24 10 00	 mov	 BYTE PTR $T2[esp+60], 0

; 523  : 			: _CSTD strlen(_First));

  00075	80 3a 00	 cmp	 BYTE PTR [edx], 0
  00078	75 04		 jne	 SHORT $LN47@netPreserv
  0007a	33 c9		 xor	 ecx, ecx
  0007c	eb 0e		 jmp	 SHORT $LN48@netPreserv
$LN47@netPreserv:
  0007e	8b ca		 mov	 ecx, edx
  00080	8d 71 01	 lea	 esi, DWORD PTR [ecx+1]
$LL123@netPreserv:
  00083	8a 01		 mov	 al, BYTE PTR [ecx]
  00085	41		 inc	 ecx
  00086	84 c0		 test	 al, al
  00088	75 f9		 jne	 SHORT $LL123@netPreserv
  0008a	2b ce		 sub	 ecx, esi
$LN48@netPreserv:
; File c:\program files (x86)\microsoft visual studio 12.0\vc\include\xstring

; 1169 : 		return (assign(_Ptr, _Traits::length(_Ptr)));

  0008c	51		 push	 ecx
  0008d	52		 push	 edx
  0008e	8d 4c 24 18	 lea	 ecx, DWORD PTR $T2[esp+68]
  00092	e8 00 00 00 00	 call	 ?assign@?$basic_string@DU?$char_traits@D@std@@V?$allocator@D@2@@std@@QAEAAV12@PBDI@Z ; std::basic_string<char,std::char_traits<char>,std::allocator<char> >::assign
; File d:\metin2\metin2\client_source_clean\client_source_clean\source\userinterface\pythonnetworkstreammodule.cpp

; 46   : 	g_kList_strCommand.push_back(szLine);

  00097	c7 44 24 38 00
	00 00 00	 mov	 DWORD PTR __$EHRec$[esp+68], 0
; File c:\program files (x86)\microsoft visual studio 12.0\vc\include\list

; 1062 : 				_STD forward<_Valty>(_Val)...);

  0009f	8d 44 24 10	 lea	 eax, DWORD PTR $T2[esp+60]

; 96   : 		return (_Ptr);

  000a3	8b 3d 00 00 00
	00		 mov	 edi, DWORD PTR ?g_kList_strCommand@@3V?$list@V?$basic_string@DU?$char_traits@D@std@@V?$allocator@D@2@@std@@V?$allocator@V?$basic_string@DU?$char_traits@D@std@@V?$allocator@D@2@@std@@@2@@std@@A

; 1062 : 				_STD forward<_Valty>(_Val)...);

  000a9	50		 push	 eax
  000aa	ff 77 04	 push	 DWORD PTR [edi+4]
  000ad	57		 push	 edi
  000ae	e8 00 00 00 00	 call	 ??$_Buynode@V?$basic_string@DU?$char_traits@D@std@@V?$allocator@D@2@@std@@@?$_List_buy@V?$basic_string@DU?$char_traits@D@std@@V?$allocator@D@2@@std@@V?$allocator@V?$basic_string@DU?$char_traits@D@std@@V?$allocator@D@2@@std@@@2@@std@@QAEPAU?$_List_node@V?$basic_string@DU?$char_traits@D@std@@V?$allocator@D@2@@std@@PAX@1@PAU21@0$$QAV?$basic_string@DU?$char_traits@D@std@@V?$allocator@D@2@@1@@Z ; std::_List_buy<std::basic_string<char,std::char_traits<char>,std::allocator<char> >,std::allocator<std::basic_string<char,std::char_traits<char>,std::allocator<char> > > >::_Buynode<std::basic_string<char,std::char_traits<char>,std::allocator<char> > >

; 1066 : 		}
; 1067 : 
; 1068 : 
; 1069 : 	list(_XSTD initializer_list<_Ty> _Ilist,
; 1070 : 		const _Alloc& _Al = allocator_type())
; 1071 : 		: _Mybase(_Al)
; 1072 : 		{	// construct from initializer_list
; 1073 : 		insert(begin(), _Ilist.begin(), _Ilist.end());
; 1074 : 		}
; 1075 : 
; 1076 : 	_Myt& operator=(_XSTD initializer_list<_Ty> _Ilist)
; 1077 : 		{	// assign initializer_list
; 1078 : 		assign(_Ilist.begin(), _Ilist.end());
; 1079 : 		return (*this);
; 1080 : 		}
; 1081 : 
; 1082 : 	void assign(_XSTD initializer_list<_Ty> _Ilist)
; 1083 : 		{	// assign initializer_list
; 1084 : 		assign(_Ilist.begin(), _Ilist.end());
; 1085 : 		}
; 1086 : 
; 1087 : 	iterator insert(const_iterator _Where,
; 1088 : 		_XSTD initializer_list<_Ty> _Ilist)
; 1089 : 		{	// insert initializer_list
; 1090 : 		return (insert(_Where, _Ilist.begin(), _Ilist.end()));
; 1091 : 		}
; 1092 : 
; 1093 : 	~list() _NOEXCEPT
; 1094 : 		{	// destroy the object
; 1095 : 		_Tidy();
; 1096 : 		}
; 1097 : 
; 1098 : 	_Myt& operator=(const _Myt& _Right)
; 1099 : 		{	// assign _Right
; 1100 : 		if (this != &_Right)
; 1101 : 			{	// different, assign it
; 1102 : 			if (this->_Getal() != _Right._Getal()
; 1103 : 				&& _Alty::propagate_on_container_copy_assignment::value)
; 1104 : 				{	// change allocator before copying
; 1105 : 				clear();
; 1106 : 				this->_Change_alloc(_Right._Getal());
; 1107 : 				}
; 1108 : 
; 1109 : 			assign(_Right.begin(), _Right.end());
; 1110 : 			}
; 1111 : 		return (*this);
; 1112 : 		}
; 1113 : 
; 1114 : 	iterator begin() _NOEXCEPT
; 1115 : 		{	// return iterator for beginning of mutable sequence
; 1116 : 		return (iterator(this->_Nextnode(this->_Myhead), this));
; 1117 : 		}
; 1118 : 
; 1119 : 	const_iterator begin() const _NOEXCEPT
; 1120 : 		{	// return iterator for beginning of nonmutable sequence
; 1121 : 		return (const_iterator(this->_Nextnode(this->_Myhead), this));
; 1122 : 		}
; 1123 : 
; 1124 : 	iterator end() _NOEXCEPT
; 1125 : 		{	// return iterator for end of mutable sequence
; 1126 : 		return (iterator(this->_Myhead, this));
; 1127 : 		}
; 1128 : 
; 1129 : 	const_iterator end() const _NOEXCEPT
; 1130 : 		{	// return iterator for end of nonmutable sequence
; 1131 : 		return (const_iterator(this->_Myhead, this));
; 1132 : 		}
; 1133 : 
; 1134 : 	_Unchecked_iterator _Unchecked_begin()
; 1135 : 		{	// return iterator for beginning of mutable sequence
; 1136 : 		return (_Unchecked_iterator(this->_Nextnode(this->_Myhead),
; 1137 : 			this));
; 1138 : 		}
; 1139 : 
; 1140 : 	_Unchecked_const_iterator _Unchecked_begin() const
; 1141 : 		{	// return iterator for beginning of nonmutable sequence
; 1142 : 		return (_Unchecked_const_iterator(this->_Nextnode(this->_Myhead),
; 1143 : 			this));
; 1144 : 		}
; 1145 : 
; 1146 : 	_Unchecked_iterator _Unchecked_end()
; 1147 : 		{	// return unchecked iterator for end of mutable sequence
; 1148 : 		return (_Unchecked_iterator(this->_Myhead, this));
; 1149 : 		}
; 1150 : 
; 1151 : 	_Unchecked_const_iterator _Unchecked_end() const
; 1152 : 		{	// return unchecked iterator for end of nonmutable sequence
; 1153 : 		return (_Unchecked_const_iterator(this->_Myhead, this));
; 1154 : 		}
; 1155 : 
; 1156 : 	iterator _Make_iter(const_iterator _Where) const _NOEXCEPT
; 1157 : 		{	// make iterator from const_iterator
; 1158 : 		return (iterator(_Where._Ptr, this));
; 1159 : 		}
; 1160 : 
; 1161 : 	iterator _Make_iter(_Unchecked_const_iterator _Where) const
; 1162 : 		{	// make iterator from _Unchecked_const_iterator
; 1163 : 		return (iterator(_Where._Ptr, this));
; 1164 : 		}
; 1165 : 
; 1166 : 	reverse_iterator rbegin() _NOEXCEPT
; 1167 : 		{	// return iterator for beginning of reversed mutable sequence
; 1168 : 		return (reverse_iterator(end()));
; 1169 : 		}
; 1170 : 
; 1171 : 	const_reverse_iterator rbegin() const _NOEXCEPT
; 1172 : 		{	// return iterator for beginning of reversed nonmutable sequence
; 1173 : 		return (const_reverse_iterator(end()));
; 1174 : 		}
; 1175 : 
; 1176 : 	reverse_iterator rend() _NOEXCEPT
; 1177 : 		{	// return iterator for end of reversed mutable sequence
; 1178 : 		return (reverse_iterator(begin()));
; 1179 : 		}
; 1180 : 
; 1181 : 	const_reverse_iterator rend() const _NOEXCEPT
; 1182 : 		{	// return iterator for end of reversed nonmutable sequence
; 1183 : 		return (const_reverse_iterator(begin()));
; 1184 : 		}
; 1185 : 
; 1186 : 	const_iterator cbegin() const _NOEXCEPT
; 1187 : 		{	// return iterator for beginning of nonmutable sequence
; 1188 : 		return (((const _Myt *)this)->begin());
; 1189 : 		}
; 1190 : 
; 1191 : 	const_iterator cend() const _NOEXCEPT
; 1192 : 		{	// return iterator for end of nonmutable sequence
; 1193 : 		return (((const _Myt *)this)->end());
; 1194 : 		}
; 1195 : 
; 1196 : 	const_reverse_iterator crbegin() const _NOEXCEPT
; 1197 : 		{	// return iterator for beginning of reversed nonmutable sequence
; 1198 : 		return (((const _Myt *)this)->rbegin());
; 1199 : 		}
; 1200 : 
; 1201 : 	const_reverse_iterator crend() const _NOEXCEPT
; 1202 : 		{	// return iterator for end of reversed nonmutable sequence
; 1203 : 		return (((const _Myt *)this)->rend());
; 1204 : 		}
; 1205 : 
; 1206 : 	void resize(size_type _Newsize)
; 1207 : 		{	// determine new length, padding with _Ty() elements as needed
; 1208 : 		if (this->_Mysize < _Newsize)
; 1209 : 			{	// pad to make larger
; 1210 : 			size_type _Count = 0;
; 1211 : 			_TRY_BEGIN
; 1212 : 			for (; this->_Mysize < _Newsize; ++_Count)
; 1213 : 				_Insert(_Unchecked_end());
; 1214 : 			_CATCH_ALL
; 1215 : 			for (; 0 < _Count; --_Count)
; 1216 : 				pop_back();	// undo inserts
; 1217 : 			_RERAISE;
; 1218 : 			_CATCH_END
; 1219 : 			}
; 1220 : 		else
; 1221 : 			while (_Newsize < this->_Mysize)
; 1222 : 				pop_back();
; 1223 : 		}
; 1224 : 
; 1225 : 	void resize(size_type _Newsize, const _Ty& _Val)
; 1226 : 		{	// determine new length, padding with _Val elements as needed
; 1227 : 		if (this->_Mysize < _Newsize)
; 1228 : 			_Insert_n(_Unchecked_end(), _Newsize - this->_Mysize, _Val);
; 1229 : 		else
; 1230 : 			while (_Newsize < this->_Mysize)
; 1231 : 				pop_back();
; 1232 : 		}
; 1233 : 
; 1234 : 	size_type size() const _NOEXCEPT
; 1235 : 		{	// return length of sequence
; 1236 : 		return (this->_Mysize);
; 1237 : 		}
; 1238 : 
; 1239 : 	size_type max_size() const _NOEXCEPT
; 1240 : 		{	// return maximum possible length of sequence
; 1241 : 		return (this->_Getal().max_size());
; 1242 : 		}
; 1243 : 
; 1244 : 	bool empty() const _NOEXCEPT
; 1245 : 		{	// test if sequence is empty
; 1246 : 		return (this->_Mysize == 0);
; 1247 : 		}
; 1248 : 
; 1249 : 	allocator_type get_allocator() const _NOEXCEPT
; 1250 : 		{	// return allocator object for values
; 1251 : 		return (this->_Getal());
; 1252 : 		}
; 1253 : 
; 1254 : 	reference front()
; 1255 : 		{	// return first element of mutable sequence
; 1256 : 		return (*begin());
; 1257 : 		}
; 1258 : 
; 1259 : 	const_reference front() const
; 1260 : 		{	// return first element of nonmutable sequence
; 1261 : 		return (*begin());
; 1262 : 		}
; 1263 : 
; 1264 : 	reference back()
; 1265 : 		{	// return last element of mutable sequence
; 1266 : 		return (*(--end()));
; 1267 : 		}
; 1268 : 
; 1269 : 	const_reference back() const
; 1270 : 		{	// return last element of nonmutable sequence
; 1271 : 		return (*(--end()));
; 1272 : 		}
; 1273 : 
; 1274 : 	void push_front(const _Ty& _Val)
; 1275 : 		{	// insert element at beginning
; 1276 : 		_Insert(_Unchecked_begin(), _Val);
; 1277 : 		}
; 1278 : 
; 1279 : 	void pop_front()
; 1280 : 		{	// erase element at beginning
; 1281 : 		erase(begin());
; 1282 : 		}
; 1283 : 
; 1284 : 	void push_back(const _Ty& _Val)
; 1285 : 		{	// insert element at end
; 1286 : 		_Insert(_Unchecked_end(), _Val);
; 1287 : 		}
; 1288 : 
; 1289 : 	void pop_back()
; 1290 : 		{	// erase element at end
; 1291 : 		erase(--end());
; 1292 : 		}
; 1293 : 
; 1294 : 	template<class _Iter>
; 1295 : 		typename enable_if<_Is_iterator<_Iter>::value,
; 1296 : 			void>::type
; 1297 : 		assign(_Iter _First, _Iter _Last)
; 1298 : 		{	// assign [_First, _Last), input iterators
; 1299 : 		iterator _Old = begin();
; 1300 : 		_TRY_BEGIN
; 1301 : 		for (; _First != _Last && _Old != end(); ++_First, ++_Old)
; 1302 : 			_Reusenode(_Old, *_First);
; 1303 : 		for (; _First != _Last; ++_First)
; 1304 : 			_Insert(_Unchecked_end(), *_First);
; 1305 : 		_CATCH_ALL
; 1306 : 		clear();
; 1307 : 		_RERAISE;
; 1308 : 		_CATCH_END
; 1309 : 		erase(_Old, end());
; 1310 : 		}
; 1311 : 
; 1312 : 	template<class _TArg>
; 1313 : 		void _Reusenode(iterator _Where, _TArg&& _Arg)
; 1314 : 		{	// destroy the element at _Where and reconstruct from _Arg
; 1315 : 		_TRY_BEGIN
; 1316 : 		this->_Getal().destroy(
; 1317 : 			_STD addressof(this->_Myval(_Where._Ptr)));
; 1318 : 		this->_Getal().construct(
; 1319 : 			_STD addressof(this->_Myval(_Where._Ptr)),
; 1320 : 			_STD forward<_TArg>(_Arg));
; 1321 : 		_CATCH_ALL
; 1322 : 		_Unlinknode(_Where);
; 1323 : 		this->_Getal().destroy(
; 1324 : 			_STD addressof(this->_Nextnode(_Where._Ptr)));
; 1325 : 		this->_Getal().destroy(
; 1326 : 			_STD addressof(this->_Prevnode(_Where._Ptr)));
; 1327 : 		this->_Getal().deallocate(_Where._Ptr, 1);
; 1328 : 		_RERAISE;
; 1329 : 		_CATCH_END
; 1330 : 		}
; 1331 : 
; 1332 : 	void assign(size_type _Count, const _Ty& _Val)
; 1333 : 		{	// assign _Count * _Val
; 1334 : 		clear();
; 1335 : 		_Insert_n(_Unchecked_begin(), _Count, _Val);
; 1336 : 		}
; 1337 : 
; 1338 : 	iterator insert(const_iterator _Where, const _Ty& _Val)
; 1339 : 		{	// insert _Val at _Where
; 1340 :  #if _ITERATOR_DEBUG_LEVEL == 2
; 1341 : 		if (_Where._Getcont() != this)
; 1342 : 			_DEBUG_ERROR("list insert iterator outside range");
; 1343 :  #endif /* _ITERATOR_DEBUG_LEVEL == 2 */
; 1344 : 
; 1345 : 		_Insert(_Where._Unchecked(), _Val);
; 1346 : 		return (_Make_iter(--_Where));
; 1347 : 		}
; 1348 : 
; 1349 : 	iterator insert(const_iterator _Where, size_type _Count, const _Ty& _Val)
; 1350 : 		{	// insert _Count * _Val at _Where
; 1351 :  #if _ITERATOR_DEBUG_LEVEL == 2
; 1352 : 		if (_Where._Getcont() != this)
; 1353 : 			_DEBUG_ERROR("list insert iterator outside range");
; 1354 :  #endif /* _ITERATOR_DEBUG_LEVEL == 2 */
; 1355 : 
; 1356 : 		iterator _Prev = _Make_iter(_Where);
; 1357 : 		if (_Prev == begin())
; 1358 : 			{	// insert sequence at beginning
; 1359 : 			_Insert_n(_Where._Unchecked(), _Count, _Val);
; 1360 : 			return (begin());
; 1361 : 			}
; 1362 : 		else
; 1363 : 			{	// insert sequence not at beginning
; 1364 : 			--_Prev;
; 1365 : 			_Insert_n(_Where._Unchecked(), _Count, _Val);
; 1366 : 			return (++_Prev);
; 1367 : 			}
; 1368 : 		}
; 1369 : 
; 1370 : 	template<class _Iter>
; 1371 : 		typename enable_if<_Is_iterator<_Iter>::value,
; 1372 : 			iterator>::type
; 1373 : 		insert(const_iterator _Where, _Iter _First, _Iter _Last)
; 1374 : 		{	// insert [_First, _Last) at _Where
; 1375 :  #if _ITERATOR_DEBUG_LEVEL == 2
; 1376 : 		if (_Where._Getcont() != this)
; 1377 : 			_DEBUG_ERROR("list insert iterator outside range");
; 1378 :  #endif /* _ITERATOR_DEBUG_LEVEL == 2 */
; 1379 : 
; 1380 : 		iterator _Prev = _Make_iter(_Where);
; 1381 : 		if (_Prev == begin())
; 1382 : 			{	// insert sequence at beginning
; 1383 : 			_Insert_range(_Where._Unchecked(), _First, _Last,
; 1384 : 				_Iter_cat(_First));
; 1385 : 			return (begin());
; 1386 : 			}
; 1387 : 		else
; 1388 : 			{	// insert sequence not at beginning
; 1389 : 			--_Prev;
; 1390 : 			_Insert_range(_Where._Unchecked(), _First, _Last,
; 1391 : 				_Iter_cat(_First));
; 1392 : 			return (++_Prev);
; 1393 : 			}
; 1394 : 		}
; 1395 : 
; 1396 : 	template<class _Iter>
; 1397 : 		void _Insert_range(_Unchecked_const_iterator _Where,
; 1398 : 			_Iter _First, _Iter _Last, input_iterator_tag)
; 1399 : 		{	// insert [_First, _Last) at _Where, input iterators
; 1400 : 		size_type _Num = 0;
; 1401 : 
; 1402 : 		_TRY_BEGIN
; 1403 : 		for (; _First != _Last; ++_First, ++_Num)
; 1404 : 			_Insert(_Where, *_First);
; 1405 : 		_CATCH_ALL
; 1406 : 		for (; 0 < _Num; --_Num)
; 1407 : 			{	// undo inserts
; 1408 : 			_Unchecked_const_iterator _Before = _Where;
; 1409 : 			_Unchecked_erase(--_Before);
; 1410 : 			}
; 1411 : 		_RERAISE;
; 1412 : 		_CATCH_END
; 1413 : 		}
; 1414 : 
; 1415 : 	template<class _Iter>
; 1416 : 		void _Insert_range(_Unchecked_const_iterator _Where,
; 1417 : 			_Iter _First, _Iter _Last, forward_iterator_tag)
; 1418 : 		{	// insert [_First, _Last) at _Where, forward iterators
; 1419 : 		_DEBUG_RANGE(_First, _Last);
; 1420 : 		_Iter _Next = _First;
; 1421 : 
; 1422 : 		_TRY_BEGIN
; 1423 : 		for (; _First != _Last; ++_First)
; 1424 : 			_Insert(_Where, *_First);
; 1425 : 		_CATCH_ALL
; 1426 : 		for (; _Next != _First; ++_Next)
; 1427 : 			{	// undo inserts
; 1428 : 			_Unchecked_const_iterator _Before = _Where;
; 1429 : 			_Unchecked_erase(--_Before);
; 1430 : 			}
; 1431 : 		_RERAISE;
; 1432 : 		_CATCH_END
; 1433 : 		}
; 1434 : 
; 1435 : 	_Nodeptr _Unlinknode(const_iterator _Where)
; 1436 : 		{	// unlink node at _Where from the list
; 1437 :  #if _ITERATOR_DEBUG_LEVEL == 2
; 1438 : 		if (_Where._Getcont() != this || _Where._Ptr == this->_Myhead)
; 1439 : 			_DEBUG_ERROR("list erase iterator outside range");
; 1440 : 		_Nodeptr _Pnode = (_Where)._Mynode();
; 1441 : 		_Orphan_ptr(*this, _Pnode);
; 1442 : 
; 1443 :  #else /* _ITERATOR_DEBUG_LEVEL == 2 */
; 1444 : 		_Nodeptr _Pnode = (_Where)._Mynode();
; 1445 :  #endif /* _ITERATOR_DEBUG_LEVEL == 2 */
; 1446 : 
; 1447 : 		this->_Nextnode(this->_Prevnode(_Pnode)) =
; 1448 : 			this->_Nextnode(_Pnode);
; 1449 : 		this->_Prevnode(this->_Nextnode(_Pnode)) =
; 1450 : 			this->_Prevnode(_Pnode);
; 1451 : 
; 1452 : 		--this->_Mysize;
; 1453 : 		return (_Pnode);
; 1454 : 		}
; 1455 : 
; 1456 : 	iterator erase(const_iterator _Where)
; 1457 : 		{	// erase element at _Where
; 1458 : 		_Nodeptr _Pnode = _Unlinknode(_Where++);
; 1459 : 		this->_Freenode(_Pnode);
; 1460 : 		return (_Make_iter(_Where));
; 1461 : 		}
; 1462 : 
; 1463 : 	void _Unchecked_erase(_Unchecked_const_iterator _Where)
; 1464 : 		{	// erase element at _Where
; 1465 : 		_Nodeptr _Pnode = _Where._Mynode();
; 1466 : 
; 1467 : 		this->_Nextnode(this->_Prevnode(_Pnode)) =
; 1468 : 			this->_Nextnode(_Pnode);
; 1469 : 		this->_Prevnode(this->_Nextnode(_Pnode)) =
; 1470 : 			this->_Prevnode(_Pnode);
; 1471 : 		this->_Freenode(_Pnode);
; 1472 : 		--this->_Mysize;
; 1473 : 		}
; 1474 : 
; 1475 : 	iterator erase(const_iterator _First, const_iterator _Last)
; 1476 : 		{	// erase [_First, _Last)
; 1477 : 		if (_First == begin() && _Last == end())
; 1478 : 			{	// erase all and return fresh iterator
; 1479 : 			clear();
; 1480 : 			return (end());
; 1481 : 			}
; 1482 : 		else
; 1483 : 			{	// erase subrange
; 1484 : 			while (_First != _Last)
; 1485 : 				_First = erase(_First);
; 1486 : 			return (_Make_iter(_Last));
; 1487 : 			}
; 1488 : 		}
; 1489 : 
; 1490 : 	void clear() _NOEXCEPT
; 1491 : 		{	// erase all
; 1492 :  #if _ITERATOR_DEBUG_LEVEL == 2
; 1493 : 		this->_Orphan_ptr(*this, nullptr);
; 1494 :  #endif /* _ITERATOR_DEBUG_LEVEL == 2 */
; 1495 : 
; 1496 : 		_Nodeptr _Pnode = this->_Nextnode(this->_Myhead);
; 1497 : 		this->_Nextnode(this->_Myhead) = this->_Myhead;
; 1498 : 		this->_Prevnode(this->_Myhead) = this->_Myhead;
; 1499 : 		this->_Mysize = 0;
; 1500 : 
; 1501 : 		for (_Nodeptr _Pnext; _Pnode != this->_Myhead; _Pnode = _Pnext)
; 1502 : 			{	// delete an element
; 1503 : 			_Pnext = this->_Nextnode(_Pnode);
; 1504 : 			this->_Freenode(_Pnode);
; 1505 : 			}
; 1506 : 		}
; 1507 : 
; 1508 : 	void swap(_Myt& _Right)
; 1509 : 		{	// exchange contents with _Right
; 1510 : 		if (this == &_Right)
; 1511 : 			;	// same object, do nothing
; 1512 : 		else if (this->_Getal() == _Right._Getal())
; 1513 : 			{	// same allocator, swap control information
; 1514 : 			this->_Swap_all(_Right);
; 1515 : 			_Swap_adl(this->_Myhead, _Right._Myhead);
; 1516 : 			_STD swap(this->_Mysize, _Right._Mysize);
; 1517 : 			}
; 1518 : 
; 1519 : 		else if (_Alty::propagate_on_container_swap::value)
; 1520 : 			{	// swap allocators and control information
; 1521 : 			this->_Swap_alloc(_Right);
; 1522 : 			_Swap_adl(this->_Myhead, _Right._Myhead);
; 1523 : 			_STD swap(this->_Mysize, _Right._Mysize);
; 1524 : 			}
; 1525 : 
; 1526 : 		else	// containers are incompatible
; 1527 : 
; 1528 :  #if _ITERATOR_DEBUG_LEVEL == 2
; 1529 : 			_DEBUG_ERROR("list containers incompatible for swap");
; 1530 : 
; 1531 :  #else /* ITERATOR_DEBUG_LEVEL == 2 */
; 1532 : 			_XSTD terminate();
; 1533 :  #endif /* ITERATOR_DEBUG_LEVEL == 2 */
; 1534 : 		}
; 1535 : 
; 1536 : 	void splice(const_iterator _Where, _Myt& _Right)
; 1537 : 		{	// splice all of _Right at _Where
; 1538 : 		if (this != &_Right && !_Right.empty())
; 1539 : 			{	// worth splicing, do it
; 1540 : 			_Splice(_Where, _Right, _Right.begin(), _Right.end(),
; 1541 : 				_Right._Mysize);
; 1542 : 			}
; 1543 : 		}
; 1544 : 
; 1545 : 	void splice(const_iterator _Where, _Myt&& _Right)
; 1546 : 		{	// splice all of _Right at _Where
; 1547 : 		splice(_Where, (_Myt&)_Right);
; 1548 : 		}
; 1549 : 
; 1550 : 	void splice(const_iterator _Where, _Myt& _Right,
; 1551 : 		const_iterator _First)
; 1552 : 		{	// splice _Right [_First, _First + 1) at _Where
; 1553 :  #if _ITERATOR_DEBUG_LEVEL == 2
; 1554 : 		if (_First == _Right.end())
; 1555 : 			_DEBUG_ERROR("list splice iterator outside range");
; 1556 : 		else
; 1557 : 
; 1558 :  #else /* _ITERATOR_DEBUG_LEVEL == 2 */
; 1559 : 		if (_First != _Right.end())
; 1560 :  #endif /* _ITERATOR_DEBUG_LEVEL == 2 */
; 1561 : 
; 1562 : 			{	// element exists, try splice
; 1563 : 			const_iterator _Last = _First;
; 1564 : 			++_Last;
; 1565 : 			if (this != &_Right
; 1566 : 				|| (_Where != _First && _Where != _Last))
; 1567 : 				_Splice(_Where, _Right, _First, _Last, 1);
; 1568 : 			}
; 1569 : 		}
; 1570 : 
; 1571 : 	void splice(const_iterator _Where, _Myt&& _Right,
; 1572 : 		const_iterator _First)
; 1573 : 		{	// splice _Right [_First, _First + 1) at _Where
; 1574 : 		splice(_Where, (_Myt&)_Right, _First);
; 1575 : 		}
; 1576 : 
; 1577 : 	void splice(const_iterator _Where,
; 1578 : 		_Myt& _Right, const_iterator _First, const_iterator _Last)
; 1579 : 		{	// splice _Right [_First, _Last) at _Where
; 1580 : 		if (_First != _Last && (this != &_Right || _Where != _Last))
; 1581 : 			{	// worth splicing, do it
; 1582 : 			size_type _Count = 0;
; 1583 : 
; 1584 : 			if (this == &_Right)
; 1585 : 				;	// just rearrange this list
; 1586 : 			else if (_First == _Right.begin() && _Last == _Right.end())
; 1587 : 				_Count = _Right._Mysize;	// splice in whole list
; 1588 : 			else
; 1589 : 				{	// count nodes and check for knot
; 1590 : 				const_iterator _Next = _First;
; 1591 : 
; 1592 : 				for (; _Next != _Last; ++_Next, ++_Count)
; 1593 : 					if (_Next == _Right.end())
; 1594 : 						_Xlength_error("list<T> bad splice");
; 1595 : 				}
; 1596 : 			_Splice(_Where, _Right, _First, _Last, _Count);
; 1597 : 			}
; 1598 : 		}
; 1599 : 
; 1600 : 	void splice(const_iterator _Where,
; 1601 : 		_Myt&& _Right, const_iterator _First, const_iterator _Last)
; 1602 : 		{	// splice _Right [_First, _Last) at _Where
; 1603 : 		splice(_Where, (_Myt&)_Right, _First, _Last);
; 1604 : 		}
; 1605 : 
; 1606 : 	void remove(const _Ty& _Val)
; 1607 : 		{	// erase each element matching _Val
; 1608 : 		iterator _Val_it = end();
; 1609 : 
; 1610 : 		for (iterator _First = begin(); _First != end(); )
; 1611 : 			if (*_First == _Val)
; 1612 : 				if (_STD addressof(*_First) == _STD addressof(_Val))
; 1613 : 					_Val_it = _First++;
; 1614 : 				else
; 1615 : 					_First = erase(_First);
; 1616 : 			else
; 1617 : 				++_First;
; 1618 : 
; 1619 : 		if (_Val_it != end())
; 1620 : 			erase(_Val_it);
; 1621 : 		}
; 1622 : 
; 1623 : 	template<class _Pr1>
; 1624 : 		void remove_if(_Pr1 _Pred)
; 1625 : 		{	// erase each element satisfying _Pred
; 1626 : 		for (iterator _First = begin(); _First != end(); )
; 1627 : 			if (_Pred(*_First))
; 1628 : 				_First = erase(_First);
; 1629 : 			else
; 1630 : 				++_First;
; 1631 : 		}
; 1632 : 
; 1633 : 	void unique()
; 1634 : 		{	// erase each element matching previous
; 1635 : 		unique(equal_to<>());
; 1636 : 		}
; 1637 : 
; 1638 : 	template<class _Pr2>
; 1639 : 		void unique(_Pr2 _Pred)
; 1640 : 		{	// erase each element satisfying _Pred with previous
; 1641 : 		const _Nodeptr _Phead = this->_Myhead;
; 1642 : 		_Nodeptr _Pprev = this->_Nextnode(_Phead);
; 1643 : 		_Nodeptr _Pnode = this->_Nextnode(_Pprev);
; 1644 : 
; 1645 : 		while (_Pnode != _Phead)
; 1646 : 			if (_Pred(_Pprev->_Myval, _Pnode->_Myval))
; 1647 : 				{	// match, remove it
; 1648 : 				const _Nodeptr _Perase = _Pnode;
; 1649 : 				_Pnode = this->_Nextnode(_Pnode);
; 1650 : 
; 1651 : 				this->_Nextnode(_Pprev) = _Pnode;
; 1652 : 				this->_Prevnode(_Pnode) = _Pprev;
; 1653 : 				this->_Freenode(_Perase);
; 1654 : 
; 1655 : 				--this->_Mysize;
; 1656 : 				}
; 1657 : 			else
; 1658 : 				{	// no match, advance
; 1659 : 				_Pprev = _Pnode;
; 1660 : 				_Pnode = this->_Nextnode(_Pnode);
; 1661 : 				}
; 1662 : 		}
; 1663 : 
; 1664 : 	void merge(_Myt& _Right)
; 1665 : 		{	// merge in elements from _Right, both ordered by operator<
; 1666 : 		merge(_Right, less<>());
; 1667 : 		}
; 1668 : 
; 1669 : 	void merge(_Myt&& _Right)
; 1670 : 		{	// merge in elements from _Right, both ordered by operator<
; 1671 : 		merge((_Myt&)_Right);
; 1672 : 		}
; 1673 : 
; 1674 : 	template<class _Pr2>
; 1675 : 		void merge(_Myt& _Right, _Pr2 _Pred)
; 1676 : 		{	// merge in elements from _Right, both ordered by _Pred
; 1677 : 		if (&_Right != this)
; 1678 : 			{	// safe to merge, do it
; 1679 : 			iterator _First1 = begin(), _Last1 = end();
; 1680 : 			iterator _First2 = _Right.begin(), _Last2 = _Right.end();
; 1681 : 			_DEBUG_ORDER_PRED(_First1, _Last1, _Pred);
; 1682 : 			_DEBUG_ORDER_PRED(_First2, _Last2, _Pred);
; 1683 : 
; 1684 : 			while (_First1 != _Last1 && _First2 != _Last2)
; 1685 : 				if (_DEBUG_LT_PRED(_Pred, *_First2, *_First1))
; 1686 : 					{	// splice in an element from _Right
; 1687 : 					iterator _Mid2 = _First2;
; 1688 : 					_Splice(_First1, _Right, _First2, ++_Mid2, 1);
; 1689 : 					_First2 = _Mid2;
; 1690 : 					}
; 1691 : 				else
; 1692 : 					++_First1;
; 1693 : 
; 1694 : 			if (_First2 != _Last2)
; 1695 : 				_Splice(_Last1, _Right, _First2, _Last2,
; 1696 : 					_Right._Mysize);	// splice remainder of _Right
; 1697 : 			}
; 1698 : 		}
; 1699 : 
; 1700 : 	template<class _Pr2>
; 1701 : 		void merge(_Myt&& _Right, _Pr2 _Pred)
; 1702 : 		{	// merge in elements from _Right, both ordered by _Pred
; 1703 : 		merge((_Myt&)_Right, _Pred);
; 1704 : 		}
; 1705 : 
; 1706 : 	void sort()
; 1707 : 		{	// order sequence, using operator<
; 1708 : 		sort(less<>());
; 1709 : 		}
; 1710 : 
; 1711 : 	template<class _Pr2>
; 1712 : 		void sort(_Pr2 _Pred)
; 1713 : 		{	// order sequence, using _Pred
; 1714 : 		if (2 <= this->_Mysize)
; 1715 : 			{	// worth sorting, do it
; 1716 : 			const size_t _MAXBINS = 25;
; 1717 : 			_Myt _Templist(this->_Getal()), _Binlist[_MAXBINS + 1];
; 1718 : 			size_t _Maxbin = 0;
; 1719 : 
; 1720 : 			while (!empty())
; 1721 : 				{	// sort another element, using bins
; 1722 : 				_Templist._Splice_same(_Templist.begin(), *this, begin(),
; 1723 : 					++begin(), 1);
; 1724 : 
; 1725 : 				size_t _Bin;
; 1726 : 				for (_Bin = 0; _Bin < _Maxbin && !_Binlist[_Bin].empty();
; 1727 : 					++_Bin)
; 1728 : 					{	// merge into ever larger bins
; 1729 : 					_Binlist[_Bin].merge(_Templist, _Pred);
; 1730 : 					_Binlist[_Bin].swap(_Templist);
; 1731 : 					}
; 1732 : 
; 1733 : 				if (_Bin == _MAXBINS)
; 1734 : 					_Binlist[_Bin - 1].merge(_Templist, _Pred);
; 1735 : 				else
; 1736 : 					{	// spill to new bin, while they last
; 1737 : 					_Binlist[_Bin].swap(_Templist);
; 1738 : 					if (_Bin == _Maxbin)
; 1739 : 						++_Maxbin;
; 1740 : 					}
; 1741 : 				}
; 1742 : 
; 1743 : 			for (size_t _Bin = 1; _Bin < _Maxbin; ++_Bin)
; 1744 : 				_Binlist[_Bin].merge(_Binlist[_Bin - 1],
; 1745 : 					_Pred);	// merge up
; 1746 : 
; 1747 : 			_Analysis_assume_(0 < _Maxbin);
; 1748 : 
; 1749 : 			splice(begin(), _Binlist[_Maxbin - 1]);	// result in last bin
; 1750 : 			}
; 1751 : 		}
; 1752 : 
; 1753 : 	void reverse() _NOEXCEPT
; 1754 : 		{	// reverse sequence
; 1755 : 		const _Nodeptr _Phead = this->_Myhead;
; 1756 : 		_Nodeptr _Pnode = _Phead;
; 1757 : 
; 1758 : 		for (; ; )
; 1759 : 			{	// flip pointers in a node
; 1760 : 			const _Nodeptr _Pnext = this->_Nextnode(_Pnode);
; 1761 : 			this->_Nextnode(_Pnode) = this->_Prevnode(_Pnode);
; 1762 : 			this->_Prevnode(_Pnode) = _Pnext;
; 1763 : 
; 1764 : 			if (_Pnext == _Phead)
; 1765 : 				break;
; 1766 : 			_Pnode = _Pnext;
; 1767 : 			}
; 1768 : 		}
; 1769 : 
; 1770 : 	void _Splice(const_iterator _Where,
; 1771 : 		_Myt& _Right, const_iterator _First, const_iterator _Last,
; 1772 : 		size_type _Count)
; 1773 : 		{	// splice _Right [_First, _Last) before _Where
; 1774 :  #if _ITERATOR_DEBUG_LEVEL == 2
; 1775 : 		if (_Where._Getcont() != this)
; 1776 : 			_DEBUG_ERROR("list splice iterator outside range");
; 1777 : 		if (this->_Getal() != _Right._Getal())
; 1778 : 			_DEBUG_ERROR("list containers incompatible for splice");
; 1779 : 
; 1780 : 		if (this != &_Right)
; 1781 : 			{	// transfer ownership
; 1782 : 			_Lockit _Lock(_LOCK_DEBUG);
; 1783 : 
; 1784 : 			const bool _One = _Count == 1;
; 1785 : 			const bool _All = _Count == _Right.size();
; 1786 : 			const bool _Some = !_One && !_All;
; 1787 : 
; 1788 : 			_Nodeptr _Oldprev = _First._Ptr->_Prev;
; 1789 : 
; 1790 : 			if (_Some)
; 1791 : 				for (_Nodeptr _Ptr = _First._Ptr; _Ptr != _Last._Ptr;
; 1792 : 					_Ptr = _Ptr->_Next)
; 1793 : 					{	// mark _Prev pointers
; 1794 : 					_Ptr->_Prev = 0;
; 1795 : 					}
; 1796 : 
; 1797 : 			const_iterator **_Pnext = (const_iterator **)_Right._Getpfirst();
; 1798 : 
; 1799 : 			if (_Pnext == 0)
; 1800 : 				_DEBUG_ERROR("list container corrupted");
; 1801 : 
; 1802 : 			while (*_Pnext != 0)
; 1803 : 				{	// check the iterator
; 1804 : 				const_iterator& _Iter = **_Pnext;
; 1805 : 
; 1806 : 				if ((_One && _Iter._Ptr == _First._Ptr)
; 1807 : 					|| (_All && _Iter._Ptr != _Right._Myhead)
; 1808 : 					|| (_Some && _Iter._Ptr->_Prev == 0))
; 1809 : 					{	// adopt the iterator
; 1810 : 					*_Pnext = (const_iterator *)_Iter._Mynextiter;
; 1811 : 					_Iter._Myproxy = this->_Myproxy;
; 1812 : 					_Iter._Mynextiter = this->_Myproxy->_Myfirstiter;
; 1813 : 					this->_Myproxy->_Myfirstiter = &_Iter;
; 1814 : 					}
; 1815 : 				else
; 1816 : 					{	// skip the iterator
; 1817 : 					_Pnext = (const_iterator **)_Iter._Getpnext();
; 1818 : 					}
; 1819 : 				}
; 1820 : 
; 1821 : 			if (_Some)
; 1822 : 				for (_Nodeptr _Ptr = _First._Ptr; _Ptr != _Last._Ptr;
; 1823 : 					_Ptr = _Ptr->_Next)
; 1824 : 					{	// restore _Prev pointers
; 1825 : 					_Ptr->_Prev = _Oldprev;
; 1826 : 					_Oldprev = _Ptr;
; 1827 : 					}
; 1828 : 			}
; 1829 : 
; 1830 :  #else /* _ITERATOR_DEBUG_LEVEL == 2 */
; 1831 : 		if (this->_Getal() != _Right._Getal())
; 1832 : 			_XSTD terminate();
; 1833 :  #endif /* _ITERATOR_DEBUG_LEVEL == 2 */
; 1834 : 
; 1835 : 		_Splice_same(_Where, _Right, _First, _Last, _Count);
; 1836 : 		}
; 1837 : 
; 1838 : 	void _Splice_same(const_iterator _Where,
; 1839 : 		_Myt& _Right, const_iterator _First, const_iterator _Last,
; 1840 : 		size_type _Count)
; 1841 : 		{	// splice _Right [_First, _Last) before _Where
; 1842 : 		if (this != &_Right)
; 1843 : 			{	// splicing from another list, adjust counts
; 1844 : 			_Incsize(_Count);
; 1845 : 			_Right._Mysize -= _Count;
; 1846 : 			}
; 1847 : 		this->_Nextnode(this->_Prevnode(_First._Mynode())) =
; 1848 : 			_Last._Mynode();
; 1849 : 		this->_Nextnode(this->_Prevnode(_Last._Mynode())) =
; 1850 : 			_Where._Mynode();
; 1851 : 		this->_Nextnode(this->_Prevnode(_Where._Mynode())) =
; 1852 : 			_First._Mynode();
; 1853 : 
; 1854 : 		_Nodeptr _Pnode = this->_Prevnode(_Where._Mynode());
; 1855 : 		this->_Prevnode(_Where._Mynode()) =
; 1856 : 			this->_Prevnode(_Last._Mynode());
; 1857 : 		this->_Prevnode(_Last._Mynode()) =
; 1858 : 			this->_Prevnode(_First._Mynode());
; 1859 : 		this->_Prevnode(_First._Mynode()) = _Pnode;
; 1860 : 		}
; 1861 : 
; 1862 : 	void _Unchecked_splice(_Unchecked_const_iterator _Where,
; 1863 : 		_Unchecked_const_iterator _First,
; 1864 : 		_Unchecked_const_iterator _Last)
; 1865 : 		{	// splice [_First, _Last) before _Where
; 1866 : 		this->_Nextnode(this->_Prevnode(_First._Mynode())) =
; 1867 : 			_Last._Mynode();
; 1868 : 		this->_Nextnode(this->_Prevnode(_Last._Mynode())) =
; 1869 : 			_Where._Mynode();
; 1870 : 		this->_Nextnode(this->_Prevnode(_Where._Mynode())) =
; 1871 : 			_First._Mynode();
; 1872 : 
; 1873 : 		_Nodeptr _Pnode = this->_Prevnode(_Where._Mynode());
; 1874 : 		this->_Prevnode(_Where._Mynode()) =
; 1875 : 			this->_Prevnode(_Last._Mynode());
; 1876 : 		this->_Prevnode(_Last._Mynode()) =
; 1877 : 			this->_Prevnode(_First._Mynode());
; 1878 : 		this->_Prevnode(_First._Mynode()) = _Pnode;
; 1879 : 		}
; 1880 : 
; 1881 : 	void _Tidy()
; 1882 : 		{	// free all storage
; 1883 : 		clear();
; 1884 : 		}
; 1885 : 
; 1886 : 	void _Insert_n(_Unchecked_const_iterator _Where,
; 1887 : 		size_type _Count, const _Ty& _Val)
; 1888 : 		{	// insert _Count * _Val at _Where
; 1889 : 		size_type _Countsave = _Count;
; 1890 : 
; 1891 : 		_TRY_BEGIN
; 1892 : 		for (; 0 < _Count; --_Count)
; 1893 : 			_Insert(_Where, _Val);
; 1894 : 		_CATCH_ALL
; 1895 : 		for (; _Count < _Countsave; ++_Count)
; 1896 : 			{	// undo inserts
; 1897 : 			_Unchecked_const_iterator _Before = _Where;
; 1898 : 			_Unchecked_erase(--_Before);
; 1899 : 			}
; 1900 : 		_RERAISE;
; 1901 : 		_CATCH_END
; 1902 : 		}
; 1903 : 
; 1904 : 	void _Incsize(size_type _Count)
; 1905 : 		{	// alter element count, with checking
; 1906 : 		if (max_size() - this->_Mysize - 1 < _Count)

  000b3	8b 15 04 00 00
	00		 mov	 edx, DWORD PTR ?g_kList_strCommand@@3V?$list@V?$basic_string@DU?$char_traits@D@std@@V?$allocator@D@2@@std@@V?$allocator@V?$basic_string@DU?$char_traits@D@std@@V?$allocator@D@2@@std@@@2@@std@@A+4
  000b9	b9 fe ff ff 07	 mov	 ecx, 134217726		; 07fffffeH
  000be	2b ca		 sub	 ecx, edx

; 1062 : 				_STD forward<_Valty>(_Val)...);

  000c0	8b f0		 mov	 esi, eax

; 1066 : 		}
; 1067 : 
; 1068 : 
; 1069 : 	list(_XSTD initializer_list<_Ty> _Ilist,
; 1070 : 		const _Alloc& _Al = allocator_type())
; 1071 : 		: _Mybase(_Al)
; 1072 : 		{	// construct from initializer_list
; 1073 : 		insert(begin(), _Ilist.begin(), _Ilist.end());
; 1074 : 		}
; 1075 : 
; 1076 : 	_Myt& operator=(_XSTD initializer_list<_Ty> _Ilist)
; 1077 : 		{	// assign initializer_list
; 1078 : 		assign(_Ilist.begin(), _Ilist.end());
; 1079 : 		return (*this);
; 1080 : 		}
; 1081 : 
; 1082 : 	void assign(_XSTD initializer_list<_Ty> _Ilist)
; 1083 : 		{	// assign initializer_list
; 1084 : 		assign(_Ilist.begin(), _Ilist.end());
; 1085 : 		}
; 1086 : 
; 1087 : 	iterator insert(const_iterator _Where,
; 1088 : 		_XSTD initializer_list<_Ty> _Ilist)
; 1089 : 		{	// insert initializer_list
; 1090 : 		return (insert(_Where, _Ilist.begin(), _Ilist.end()));
; 1091 : 		}
; 1092 : 
; 1093 : 	~list() _NOEXCEPT
; 1094 : 		{	// destroy the object
; 1095 : 		_Tidy();
; 1096 : 		}
; 1097 : 
; 1098 : 	_Myt& operator=(const _Myt& _Right)
; 1099 : 		{	// assign _Right
; 1100 : 		if (this != &_Right)
; 1101 : 			{	// different, assign it
; 1102 : 			if (this->_Getal() != _Right._Getal()
; 1103 : 				&& _Alty::propagate_on_container_copy_assignment::value)
; 1104 : 				{	// change allocator before copying
; 1105 : 				clear();
; 1106 : 				this->_Change_alloc(_Right._Getal());
; 1107 : 				}
; 1108 : 
; 1109 : 			assign(_Right.begin(), _Right.end());
; 1110 : 			}
; 1111 : 		return (*this);
; 1112 : 		}
; 1113 : 
; 1114 : 	iterator begin() _NOEXCEPT
; 1115 : 		{	// return iterator for beginning of mutable sequence
; 1116 : 		return (iterator(this->_Nextnode(this->_Myhead), this));
; 1117 : 		}
; 1118 : 
; 1119 : 	const_iterator begin() const _NOEXCEPT
; 1120 : 		{	// return iterator for beginning of nonmutable sequence
; 1121 : 		return (const_iterator(this->_Nextnode(this->_Myhead), this));
; 1122 : 		}
; 1123 : 
; 1124 : 	iterator end() _NOEXCEPT
; 1125 : 		{	// return iterator for end of mutable sequence
; 1126 : 		return (iterator(this->_Myhead, this));
; 1127 : 		}
; 1128 : 
; 1129 : 	const_iterator end() const _NOEXCEPT
; 1130 : 		{	// return iterator for end of nonmutable sequence
; 1131 : 		return (const_iterator(this->_Myhead, this));
; 1132 : 		}
; 1133 : 
; 1134 : 	_Unchecked_iterator _Unchecked_begin()
; 1135 : 		{	// return iterator for beginning of mutable sequence
; 1136 : 		return (_Unchecked_iterator(this->_Nextnode(this->_Myhead),
; 1137 : 			this));
; 1138 : 		}
; 1139 : 
; 1140 : 	_Unchecked_const_iterator _Unchecked_begin() const
; 1141 : 		{	// return iterator for beginning of nonmutable sequence
; 1142 : 		return (_Unchecked_const_iterator(this->_Nextnode(this->_Myhead),
; 1143 : 			this));
; 1144 : 		}
; 1145 : 
; 1146 : 	_Unchecked_iterator _Unchecked_end()
; 1147 : 		{	// return unchecked iterator for end of mutable sequence
; 1148 : 		return (_Unchecked_iterator(this->_Myhead, this));
; 1149 : 		}
; 1150 : 
; 1151 : 	_Unchecked_const_iterator _Unchecked_end() const
; 1152 : 		{	// return unchecked iterator for end of nonmutable sequence
; 1153 : 		return (_Unchecked_const_iterator(this->_Myhead, this));
; 1154 : 		}
; 1155 : 
; 1156 : 	iterator _Make_iter(const_iterator _Where) const _NOEXCEPT
; 1157 : 		{	// make iterator from const_iterator
; 1158 : 		return (iterator(_Where._Ptr, this));
; 1159 : 		}
; 1160 : 
; 1161 : 	iterator _Make_iter(_Unchecked_const_iterator _Where) const
; 1162 : 		{	// make iterator from _Unchecked_const_iterator
; 1163 : 		return (iterator(_Where._Ptr, this));
; 1164 : 		}
; 1165 : 
; 1166 : 	reverse_iterator rbegin() _NOEXCEPT
; 1167 : 		{	// return iterator for beginning of reversed mutable sequence
; 1168 : 		return (reverse_iterator(end()));
; 1169 : 		}
; 1170 : 
; 1171 : 	const_reverse_iterator rbegin() const _NOEXCEPT
; 1172 : 		{	// return iterator for beginning of reversed nonmutable sequence
; 1173 : 		return (const_reverse_iterator(end()));
; 1174 : 		}
; 1175 : 
; 1176 : 	reverse_iterator rend() _NOEXCEPT
; 1177 : 		{	// return iterator for end of reversed mutable sequence
; 1178 : 		return (reverse_iterator(begin()));
; 1179 : 		}
; 1180 : 
; 1181 : 	const_reverse_iterator rend() const _NOEXCEPT
; 1182 : 		{	// return iterator for end of reversed nonmutable sequence
; 1183 : 		return (const_reverse_iterator(begin()));
; 1184 : 		}
; 1185 : 
; 1186 : 	const_iterator cbegin() const _NOEXCEPT
; 1187 : 		{	// return iterator for beginning of nonmutable sequence
; 1188 : 		return (((const _Myt *)this)->begin());
; 1189 : 		}
; 1190 : 
; 1191 : 	const_iterator cend() const _NOEXCEPT
; 1192 : 		{	// return iterator for end of nonmutable sequence
; 1193 : 		return (((const _Myt *)this)->end());
; 1194 : 		}
; 1195 : 
; 1196 : 	const_reverse_iterator crbegin() const _NOEXCEPT
; 1197 : 		{	// return iterator for beginning of reversed nonmutable sequence
; 1198 : 		return (((const _Myt *)this)->rbegin());
; 1199 : 		}
; 1200 : 
; 1201 : 	const_reverse_iterator crend() const _NOEXCEPT
; 1202 : 		{	// return iterator for end of reversed nonmutable sequence
; 1203 : 		return (((const _Myt *)this)->rend());
; 1204 : 		}
; 1205 : 
; 1206 : 	void resize(size_type _Newsize)
; 1207 : 		{	// determine new length, padding with _Ty() elements as needed
; 1208 : 		if (this->_Mysize < _Newsize)
; 1209 : 			{	// pad to make larger
; 1210 : 			size_type _Count = 0;
; 1211 : 			_TRY_BEGIN
; 1212 : 			for (; this->_Mysize < _Newsize; ++_Count)
; 1213 : 				_Insert(_Unchecked_end());
; 1214 : 			_CATCH_ALL
; 1215 : 			for (; 0 < _Count; --_Count)
; 1216 : 				pop_back();	// undo inserts
; 1217 : 			_RERAISE;
; 1218 : 			_CATCH_END
; 1219 : 			}
; 1220 : 		else
; 1221 : 			while (_Newsize < this->_Mysize)
; 1222 : 				pop_back();
; 1223 : 		}
; 1224 : 
; 1225 : 	void resize(size_type _Newsize, const _Ty& _Val)
; 1226 : 		{	// determine new length, padding with _Val elements as needed
; 1227 : 		if (this->_Mysize < _Newsize)
; 1228 : 			_Insert_n(_Unchecked_end(), _Newsize - this->_Mysize, _Val);
; 1229 : 		else
; 1230 : 			while (_Newsize < this->_Mysize)
; 1231 : 				pop_back();
; 1232 : 		}
; 1233 : 
; 1234 : 	size_type size() const _NOEXCEPT
; 1235 : 		{	// return length of sequence
; 1236 : 		return (this->_Mysize);
; 1237 : 		}
; 1238 : 
; 1239 : 	size_type max_size() const _NOEXCEPT
; 1240 : 		{	// return maximum possible length of sequence
; 1241 : 		return (this->_Getal().max_size());
; 1242 : 		}
; 1243 : 
; 1244 : 	bool empty() const _NOEXCEPT
; 1245 : 		{	// test if sequence is empty
; 1246 : 		return (this->_Mysize == 0);
; 1247 : 		}
; 1248 : 
; 1249 : 	allocator_type get_allocator() const _NOEXCEPT
; 1250 : 		{	// return allocator object for values
; 1251 : 		return (this->_Getal());
; 1252 : 		}
; 1253 : 
; 1254 : 	reference front()
; 1255 : 		{	// return first element of mutable sequence
; 1256 : 		return (*begin());
; 1257 : 		}
; 1258 : 
; 1259 : 	const_reference front() const
; 1260 : 		{	// return first element of nonmutable sequence
; 1261 : 		return (*begin());
; 1262 : 		}
; 1263 : 
; 1264 : 	reference back()
; 1265 : 		{	// return last element of mutable sequence
; 1266 : 		return (*(--end()));
; 1267 : 		}
; 1268 : 
; 1269 : 	const_reference back() const
; 1270 : 		{	// return last element of nonmutable sequence
; 1271 : 		return (*(--end()));
; 1272 : 		}
; 1273 : 
; 1274 : 	void push_front(const _Ty& _Val)
; 1275 : 		{	// insert element at beginning
; 1276 : 		_Insert(_Unchecked_begin(), _Val);
; 1277 : 		}
; 1278 : 
; 1279 : 	void pop_front()
; 1280 : 		{	// erase element at beginning
; 1281 : 		erase(begin());
; 1282 : 		}
; 1283 : 
; 1284 : 	void push_back(const _Ty& _Val)
; 1285 : 		{	// insert element at end
; 1286 : 		_Insert(_Unchecked_end(), _Val);
; 1287 : 		}
; 1288 : 
; 1289 : 	void pop_back()
; 1290 : 		{	// erase element at end
; 1291 : 		erase(--end());
; 1292 : 		}
; 1293 : 
; 1294 : 	template<class _Iter>
; 1295 : 		typename enable_if<_Is_iterator<_Iter>::value,
; 1296 : 			void>::type
; 1297 : 		assign(_Iter _First, _Iter _Last)
; 1298 : 		{	// assign [_First, _Last), input iterators
; 1299 : 		iterator _Old = begin();
; 1300 : 		_TRY_BEGIN
; 1301 : 		for (; _First != _Last && _Old != end(); ++_First, ++_Old)
; 1302 : 			_Reusenode(_Old, *_First);
; 1303 : 		for (; _First != _Last; ++_First)
; 1304 : 			_Insert(_Unchecked_end(), *_First);
; 1305 : 		_CATCH_ALL
; 1306 : 		clear();
; 1307 : 		_RERAISE;
; 1308 : 		_CATCH_END
; 1309 : 		erase(_Old, end());
; 1310 : 		}
; 1311 : 
; 1312 : 	template<class _TArg>
; 1313 : 		void _Reusenode(iterator _Where, _TArg&& _Arg)
; 1314 : 		{	// destroy the element at _Where and reconstruct from _Arg
