; Listing generated by Microsoft (R) Optimizing Compiler Version 18.00.40629.0 

	TITLE	D:\Metin2\Metin2\client_source_clean\client_source_clean\source\UserInterface\PythonPackModule.cpp
	.686P
	.XMM
	include listing.inc
	.model	flat

INCLUDELIB OLDNAMES

PUBLIC	?g_adwDecryptKey@@3PAKA				; g_adwDecryptKey
PUBLIC	?g_adwEncryptKey@@3PAKA				; g_adwEncryptKey
PUBLIC	??_C@_04DJODFCKA@?4pyc?$AA@			; `string'
PUBLIC	??_C@_03DEFKFCAB@?4py?$AA@			; `string'
PUBLIC	??_C@_05IDMALMPP@Exist?$AA@			; `string'
PUBLIC	??_C@_04LCMACLFG@?4txt?$AA@			; `string'
PUBLIC	??_C@_04IPANLPFO@pack?$AA@			; `string'
PUBLIC	??_C@_03NNDHPFFO@Get?$AA@			; `string'
EXTRN	_strrchr:PROC
EXTRN	_tea_encrypt:PROC
?g_adwDecryptKey@@3PAKA DD 04H DUP (?)			; g_adwDecryptKey
?g_adwEncryptKey@@3PAKA DD 04H DUP (?)			; g_adwEncryptKey
_BSS	ENDS
;	COMDAT ??_C@_03NNDHPFFO@Get?$AA@
CONST	SEGMENT
??_C@_03NNDHPFFO@Get?$AA@ DB 'Get', 00H			; `string'
CONST	ENDS
;	COMDAT ??_C@_04IPANLPFO@pack?$AA@
CONST	SEGMENT
??_C@_04IPANLPFO@pack?$AA@ DB 'pack', 00H		; `string'
CONST	ENDS
;	COMDAT ??_C@_04LCMACLFG@?4txt?$AA@
CONST	SEGMENT
??_C@_04LCMACLFG@?4txt?$AA@ DB '.txt', 00H		; `string'
CONST	ENDS
;	COMDAT ??_C@_05IDMALMPP@Exist?$AA@
CONST	SEGMENT
??_C@_05IDMALMPP@Exist?$AA@ DB 'Exist', 00H		; `string'
CONST	ENDS
;	COMDAT ??_C@_03DEFKFCAB@?4py?$AA@
CONST	SEGMENT
??_C@_03DEFKFCAB@?4py?$AA@ DB '.py', 00H		; `string'
CONST	ENDS
;	COMDAT ??_C@_04DJODFCKA@?4pyc?$AA@
CONST	SEGMENT
??_C@_04DJODFCKA@?4pyc?$AA@ DB '.pyc', 00H		; `string'
CONST	ENDS
;	COMDAT ?s_methods@?1??initpack@@YAXXZ@4PAUPyMethodDef@@A
_DATA	SEGMENT
?s_methods@?1??initpack@@YAXXZ@4PAUPyMethodDef@@A DD FLAT:??_C@_05IDMALMPP@Exist?$AA@ ; `initpack'::`2'::s_methods
	DD	FLAT:?packExist@@YAPAU_object@@PAU1@0@Z
	DD	01H
	ORG $+4
	DD	FLAT:??_C@_03NNDHPFFO@Get?$AA@
	DD	FLAT:?packGet@@YAPAU_object@@PAU1@0@Z
	DD	01H
	ORG $+4
	DD	00H
	DD	00H
	ORG $+8
PUBLIC	?strrchr@@YAPADPADH@Z				; strrchr
PUBLIC	?initpack@@YAXXZ				; initpack
PUBLIC	?packGet@@YAPAU_object@@PAU1@0@Z		; packGet
PUBLIC	?packExist@@YAPAU_object@@PAU1@0@Z		; packExist
PUBLIC	?GetKey_20050304Myevan@@YAPBEXZ			; GetKey_20050304Myevan
PUBLIC	?__BuildClientKey_20050304Myevan@CAccountConnector@@IAEXXZ ; CAccountConnector::__BuildClientKey_20050304Myevan
PUBLIC	?s_adwKey@?1??GetKey_20050304Myevan@@YAPBEXZ@4RCKC ; `GetKey_20050304Myevan'::`2'::s_adwKey
	ALIGN	4

_piecewise_construct DB 01H DUP (?)
_BSS	ENDS
;	COMDAT ?s_adwKey@?1??GetKey_20050304Myevan@@YAPBEXZ@4RCKC
_BSS	SEGMENT
?s_adwKey@?1??GetKey_20050304Myevan@@YAPBEXZ@4RCKC DD 0792H DUP (?) ; `GetKey_20050304Myevan'::`2'::s_adwKey
_BSS	ENDS
;	COMDAT xdata$x
xdata$x	SEGMENT
__ehfuncinfo$?packGet@@YAPAU_object@@PAU1@0@Z DD 019930522H
	DD	01H
	DD	FLAT:__unwindtable$?packGet@@YAPAU_object@@PAU1@0@Z
	DD	2 DUP(00H)
	DD	2 DUP(00H)
	DD	00H
	DD	01H
__unwindtable$?packGet@@YAPAU_object@@PAU1@0@Z DD 0ffffffffH
	DD	FLAT:__unwindfunclet$?packGet@@YAPAU_object@@PAU1@0@Z$0
; Function compile flags: /Ogtp
; File d:\metin2\metin2\client_source_clean\client_source_clean\source\userinterface\pythonpackmodule.cpp
;	COMDAT ?__BuildClientKey_20050304Myevan@CAccountConnector@@IAEXXZ
_TEXT	SEGMENT
?__BuildClientKey_20050304Myevan@CAccountConnector@@IAEXXZ PROC ; CAccountConnector::__BuildClientKey_20050304Myevan, COMDAT
; _this$dead$ = ecx

; 29   : {

  00000	56		 push	 esi
  00001	57		 push	 edi

; 30   : 	const BYTE * c_pszKey = GetKey_20050304Myevan();

  00002	e8 00 00 00 00	 call	 ?GetKey_20050304Myevan@@YAPBEXZ ; GetKey_20050304Myevan
  00007	8b f8		 mov	 edi, eax

; 31   : 	memcpy(g_adwEncryptKey, c_pszKey+157, 16);
; 32   : 
; 33   : 	for (DWORD i = 0; i < 4; ++i)

  00009	33 f6		 xor	 esi, esi
  0000b	f3 0f 6f 87 9d
	00 00 00	 movdqu	 xmm0, XMMWORD PTR [edi+157]
  00013	f3 0f 7f 05 00
	00 00 00	 movdqu	 XMMWORD PTR ?g_adwEncryptKey@@3PAKA, xmm0
  0001b	eb 03 8d 49 00	 npad	 5
$LL3@BuildClien:

; 34   : 		g_adwEncryptKey[i] = random();

  00020	e8 00 00 00 00	 call	 ?random@@YAKXZ		; random
  00025	89 86 00 00 00
	00		 mov	 DWORD PTR ?g_adwEncryptKey@@3PAKA[esi], eax
  0002b	83 c6 04	 add	 esi, 4
  0002e	83 fe 10	 cmp	 esi, 16			; 00000010H
  00031	72 ed		 jb	 SHORT $LL3@BuildClien

; 35   : 
; 36   : 	tea_encrypt((DWORD *) g_adwDecryptKey, (const DWORD *) g_adwEncryptKey, (const DWORD *) (c_pszKey+37), 16);

  00033	6a 10		 push	 16			; 00000010H
  00035	8d 47 25	 lea	 eax, DWORD PTR [edi+37]
  00038	50		 push	 eax
  00039	68 00 00 00 00	 push	 OFFSET ?g_adwEncryptKey@@3PAKA ; g_adwEncryptKey
  0003e	68 00 00 00 00	 push	 OFFSET ?g_adwDecryptKey@@3PAKA ; g_adwDecryptKey
  00043	e8 00 00 00 00	 call	 _tea_encrypt
  00048	83 c4 10	 add	 esp, 16			; 00000010H
  0004b	5f		 pop	 edi
  0004c	5e		 pop	 esi

; 37   : //	TEA_Encrypt((DWORD *) g_adwDecryptKey, (const DWORD *) g_adwEncryptKey, (const DWORD *) (c_pszKey+37), 16);
; 38   : }

  0004d	c3		 ret	 0
?__BuildClientKey_20050304Myevan@CAccountConnector@@IAEXXZ ENDP ; CAccountConnector::__BuildClientKey_20050304Myevan
_TEXT	ENDS
; Function compile flags: /Ogtp
; File d:\metin2\metin2\client_source_clean\client_source_clean\source\userinterface\pythonpackmodule.cpp
;	COMDAT ?GetKey_20050304Myevan@@YAPBEXZ
_TEXT	SEGMENT
_seed$ = -4						; size = 4
?GetKey_20050304Myevan@@YAPBEXZ PROC			; GetKey_20050304Myevan, COMDAT

; 12   : {

  00000	55		 push	 ebp
  00001	8b ec		 mov	 ebp, esp
  00003	51		 push	 ecx

; 13   : 	volatile static DWORD s_adwKey[1938];
; 14   : 
; 15   : 	volatile DWORD seed=1491971513;

  00004	c7 45 fc b9 ad
	ed 58		 mov	 DWORD PTR _seed$[ebp], 1491971513 ; 58edadb9H

; 16   : 	for (UINT i=0; i<BYTE(seed); i++)

  0000b	33 c0		 xor	 eax, eax
  0000d	38 45 fc	 cmp	 BYTE PTR _seed$[ebp], al
  00010	76 21		 jbe	 SHORT $LN10@GetKey_200
$LL3@GetKey_200:

; 17   : 	{
; 18   : 		seed^=2148941891;

  00012	81 75 fc 43 40
	16 80		 xor	 DWORD PTR _seed$[ebp], -2146025405 ; 80164043H

; 19   : 		seed+=3592385981;

  00019	81 45 fc bd 75
	1f d6		 add	 DWORD PTR _seed$[ebp], -702581315 ; d61f75bdH

; 20   : 		s_adwKey[i]=seed;

  00020	8b 4d fc	 mov	 ecx, DWORD PTR _seed$[ebp]
  00023	89 0c 85 00 00
	00 00		 mov	 DWORD PTR ?s_adwKey@?1??GetKey_20050304Myevan@@YAPBEXZ@4RCKC[eax*4], ecx
  0002a	40		 inc	 eax
  0002b	0f b6 4d fc	 movzx	 ecx, BYTE PTR _seed$[ebp]
  0002f	3b c1		 cmp	 eax, ecx
  00031	72 df		 jb	 SHORT $LL3@GetKey_200
$LN10@GetKey_200:

; 21   : 	}
; 22   : 
; 23   : 	return (const BYTE*)s_adwKey;

  00033	b8 00 00 00 00	 mov	 eax, OFFSET ?s_adwKey@?1??GetKey_20050304Myevan@@YAPBEXZ@4RCKC ; `GetKey_20050304Myevan'::`2'::s_adwKey

; 24   : }

  00038	8b e5		 mov	 esp, ebp
  0003a	5d		 pop	 ebp
  0003b	c3		 ret	 0
?GetKey_20050304Myevan@@YAPBEXZ ENDP			; GetKey_20050304Myevan
_TEXT	ENDS
; Function compile flags: /Ogtp
; File d:\metin2\metin2\client_source_clean\client_source_clean\source\userinterface\pythonpackmodule.cpp
;	COMDAT ?packExist@@YAPAU_object@@PAU1@0@Z
_TEXT	SEGMENT
_strFileName$ = -4					; size = 4
_poSelf$ = 8						; size = 4
_poArgs$ = 12						; size = 4
?packExist@@YAPAU_object@@PAU1@0@Z PROC			; packExist, COMDAT

; 42   : {

  00000	55		 push	 ebp
  00001	8b ec		 mov	 ebp, esp
  00003	51		 push	 ecx

; 43   : 	char * strFileName;
; 44   : 
; 45   : 	if (!PyTuple_GetString(poArgs, 0, &strFileName))

  00004	8d 45 fc	 lea	 eax, DWORD PTR _strFileName$[ebp]
  00007	50		 push	 eax
  00008	6a 00		 push	 0
  0000a	ff 75 0c	 push	 DWORD PTR _poArgs$[ebp]
  0000d	e8 00 00 00 00	 call	 ?PyTuple_GetString@@YA_NPAU_object@@HPAPAD@Z ; PyTuple_GetString
  00012	83 c4 0c	 add	 esp, 12			; 0000000cH
  00015	84 c0		 test	 al, al
  00017	75 0e		 jne	 SHORT $LN1@packExist

; 46   : 		return Py_BuildException();

  00019	6a 00		 push	 0
  0001b	e8 00 00 00 00	 call	 ?Py_BuildException@@YAPAU_object@@PBDZZ ; Py_BuildException
  00020	83 c4 04	 add	 esp, 4

; 49   : }

  00023	8b e5		 mov	 esp, ebp
  00025	5d		 pop	 ebp
  00026	c3		 ret	 0
$LN1@packExist:

; 47   : 
; 48   : 	return Py_BuildValue("i", CEterPackManager::Instance().isExist(strFileName)?1:0);

  00027	ff 75 fc	 push	 DWORD PTR _strFileName$[ebp]
  0002a	8b 0d 00 00 00
	00		 mov	 ecx, DWORD PTR ?ms_singleton@?$CSingleton@VCEterPackManager@@@@0PAVCEterPackManager@@A ; CSingleton<CEterPackManager>::ms_singleton
  00030	e8 00 00 00 00	 call	 ?isExist@CEterPackManager@@QAE_NPBD@Z ; CEterPackManager::isExist
  00035	33 c9		 xor	 ecx, ecx
  00037	84 c0		 test	 al, al
  00039	0f 95 c1	 setne	 cl
  0003c	51		 push	 ecx
  0003d	68 00 00 00 00	 push	 OFFSET ??_C@_01KBJDNOO@i?$AA@
  00042	ff 15 00 00 00
	00		 call	 DWORD PTR __imp__Py_BuildValue
  00048	83 c4 08	 add	 esp, 8

; 49   : }

  0004b	8b e5		 mov	 esp, ebp
  0004d	5d		 pop	 ebp
  0004e	c3		 ret	 0
?packExist@@YAPAU_object@@PAU1@0@Z ENDP			; packExist
_TEXT	ENDS
; Function compile flags: /Ogtp
; File d:\metin2\metin2\client_source_clean\client_source_clean\source\userinterface\pythonpackmodule.cpp
; File c:\program files (x86)\microsoft visual studio 12.0\vc\include\string.h
; File d:\metin2\metin2\client_source_clean\client_source_clean\source\userinterface\pythonpackmodule.cpp
; File c:\program files (x86)\microsoft visual studio 12.0\vc\include\string.h
; File d:\metin2\metin2\client_source_clean\client_source_clean\source\userinterface\pythonpackmodule.cpp
;	COMDAT ?packGet@@YAPAU_object@@PAU1@0@Z
_TEXT	SEGMENT
_strFileName$ = -348					; size = 4
_pData$2 = -344						; size = 4
_file$3 = -340						; size = 324
__$ArrayPad$ = -16					; size = 4
__$EHRec$ = -12						; size = 12
_poSelf$ = 8						; size = 4
_poArgs$ = 12						; size = 4
?packGet@@YAPAU_object@@PAU1@0@Z PROC			; packGet, COMDAT

; 52   : {

  00000	55		 push	 ebp
  00001	8b ec		 mov	 ebp, esp
  00003	6a ff		 push	 -1
  00005	68 00 00 00 00	 push	 __ehhandler$?packGet@@YAPAU_object@@PAU1@0@Z
  0000a	64 a1 00 00 00
	00		 mov	 eax, DWORD PTR fs:0
  00010	50		 push	 eax
  00011	81 ec 50 01 00
	00		 sub	 esp, 336		; 00000150H
  00017	a1 00 00 00 00	 mov	 eax, DWORD PTR ___security_cookie
  0001c	33 c5		 xor	 eax, ebp
  0001e	89 45 f0	 mov	 DWORD PTR __$ArrayPad$[ebp], eax
  00021	56		 push	 esi
  00022	50		 push	 eax
  00023	8d 45 f4	 lea	 eax, DWORD PTR __$EHRec$[ebp]
  00026	64 a3 00 00 00
	00		 mov	 DWORD PTR fs:0, eax
  0002c	8b 45 0c	 mov	 eax, DWORD PTR _poArgs$[ebp]

; 53   : 	char * strFileName;
; 54   : 	
; 55   : 	if (!PyTuple_GetString(poArgs, 0, &strFileName))

  0002f	8d 8d a4 fe ff
	ff		 lea	 ecx, DWORD PTR _strFileName$[ebp]
  00035	51		 push	 ecx
  00036	6a 00		 push	 0
  00038	50		 push	 eax
  00039	e8 00 00 00 00	 call	 ?PyTuple_GetString@@YA_NPAU_object@@HPAPAD@Z ; PyTuple_GetString
  0003e	83 c4 0c	 add	 esp, 12			; 0000000cH
  00041	84 c0		 test	 al, al
  00043	0f 84 d7 00 00
	00		 je	 $LN3@packGet
; File c:\program files (x86)\microsoft visual studio 12.0\vc\include\string.h

; 226  :         { return (char*)strrchr((const char*)_Str, _Ch); }

  00049	6a 2e		 push	 46			; 0000002eH
  0004b	ff b5 a4 fe ff
	ff		 push	 DWORD PTR _strFileName$[ebp]
  00051	e8 00 00 00 00	 call	 _strrchr
; File d:\metin2\metin2\client_source_clean\client_source_clean\source\userinterface\pythonpackmodule.cpp

; 59   : 	const char* pcExt = strrchr(strFileName, '.');

  00056	8b f0		 mov	 esi, eax
; File c:\program files (x86)\microsoft visual studio 12.0\vc\include\string.h

; 226  :         { return (char*)strrchr((const char*)_Str, _Ch); }

  00058	83 c4 08	 add	 esp, 8
; File d:\metin2\metin2\client_source_clean\client_source_clean\source\userinterface\pythonpackmodule.cpp

; 60   : 	if (pcExt) // 확장자가 있고

  0005b	85 f6		 test	 esi, esi
  0005d	0f 84 bd 00 00
	00		 je	 $LN3@packGet

; 61   : 	{
; 62   : 		if ((stricmp(pcExt, ".py") == 0) ||
; 63   : 			(stricmp(pcExt, ".pyc") == 0) ||
; 64   : 			(stricmp(pcExt, ".txt") == 0))

  00063	68 00 00 00 00	 push	 OFFSET ??_C@_03DEFKFCAB@?4py?$AA@
  00068	56		 push	 esi
  00069	e8 00 00 00 00	 call	 __stricmp
  0006e	83 c4 08	 add	 esp, 8
  00071	85 c0		 test	 eax, eax
  00073	74 28		 je	 SHORT $LN2@packGet
  00075	68 00 00 00 00	 push	 OFFSET ??_C@_04DJODFCKA@?4pyc?$AA@
  0007a	56		 push	 esi
  0007b	e8 00 00 00 00	 call	 __stricmp
  00080	83 c4 08	 add	 esp, 8
  00083	85 c0		 test	 eax, eax
  00085	74 16		 je	 SHORT $LN2@packGet
  00087	68 00 00 00 00	 push	 OFFSET ??_C@_04LCMACLFG@?4txt?$AA@
  0008c	56		 push	 esi
  0008d	e8 00 00 00 00	 call	 __stricmp
  00092	83 c4 08	 add	 esp, 8
  00095	85 c0		 test	 eax, eax
  00097	0f 85 83 00 00
	00		 jne	 $LN3@packGet
$LN2@packGet:

; 65   : 		{
; 66   : 			CMappedFile file;

  0009d	8d 8d ac fe ff
	ff		 lea	 ecx, DWORD PTR _file$3[ebp]
  000a3	e8 00 00 00 00	 call	 ??0CMappedFile@@QAE@XZ	; CMappedFile::CMappedFile

; 67   : 			const void * pData = NULL;
; 68   : 
; 69   : 			if (CEterPackManager::Instance().Get(file,strFileName,&pData))

  000a8	8d 85 a8 fe ff
	ff		 lea	 eax, DWORD PTR _pData$2[ebp]
  000ae	c7 45 fc 00 00
	00 00		 mov	 DWORD PTR __$EHRec$[ebp+8], 0
  000b5	8b 0d 00 00 00
	00		 mov	 ecx, DWORD PTR ?ms_singleton@?$CSingleton@VCEterPackManager@@@@0PAVCEterPackManager@@A ; CSingleton<CEterPackManager>::ms_singleton
  000bb	50		 push	 eax
  000bc	ff b5 a4 fe ff
	ff		 push	 DWORD PTR _strFileName$[ebp]
  000c2	8d 85 ac fe ff
	ff		 lea	 eax, DWORD PTR _file$3[ebp]
  000c8	c7 85 a8 fe ff
	ff 00 00 00 00	 mov	 DWORD PTR _pData$2[ebp], 0
  000d2	50		 push	 eax
  000d3	e8 00 00 00 00	 call	 ?Get@CEterPackManager@@QAE_NAAVCMappedFile@@PBDPAPBX@Z ; CEterPackManager::Get

; 70   : 				return Py_BuildValue("s#",pData, file.Size());

  000d8	8d 8d ac fe ff
	ff		 lea	 ecx, DWORD PTR _file$3[ebp]
  000de	84 c0		 test	 al, al
  000e0	74 32		 je	 SHORT $LN1@packGet
  000e2	e8 00 00 00 00	 call	 ?Size@CMappedFile@@QAEKXZ ; CMappedFile::Size
  000e7	50		 push	 eax
  000e8	ff b5 a8 fe ff
	ff		 push	 DWORD PTR _pData$2[ebp]
  000ee	68 00 00 00 00	 push	 OFFSET ??_C@_02OIKAIHIF@s?$CD?$AA@
  000f3	ff 15 00 00 00
	00		 call	 DWORD PTR __imp__Py_BuildValue
  000f9	83 c4 0c	 add	 esp, 12			; 0000000cH
  000fc	c7 45 fc ff ff
	ff ff		 mov	 DWORD PTR __$EHRec$[ebp+8], -1
  00103	8d 8d ac fe ff
	ff		 lea	 ecx, DWORD PTR _file$3[ebp]
  00109	8b f0		 mov	 esi, eax
  0010b	e8 00 00 00 00	 call	 ??1CMappedFile@@UAE@XZ	; CMappedFile::~CMappedFile
  00110	8b c6		 mov	 eax, esi
  00112	eb 16		 jmp	 SHORT $LN6@packGet
$LN1@packGet:

; 71   : 		}

  00114	c7 45 fc ff ff
	ff ff		 mov	 DWORD PTR __$EHRec$[ebp+8], -1
  0011b	e8 00 00 00 00	 call	 ??1CMappedFile@@UAE@XZ	; CMappedFile::~CMappedFile
$LN3@packGet:

; 72   : 	}
; 73   : 
; 74   : 	return Py_BuildException();

  00120	6a 00		 push	 0
  00122	e8 00 00 00 00	 call	 ?Py_BuildException@@YAPAU_object@@PBDZZ ; Py_BuildException
  00127	83 c4 04	 add	 esp, 4
$LN6@packGet:

; 75   : }

  0012a	8b 4d f4	 mov	 ecx, DWORD PTR __$EHRec$[ebp]
  0012d	64 89 0d 00 00
	00 00		 mov	 DWORD PTR fs:0, ecx
  00134	59		 pop	 ecx
  00135	5e		 pop	 esi
  00136	8b 4d f0	 mov	 ecx, DWORD PTR __$ArrayPad$[ebp]
  00139	33 cd		 xor	 ecx, ebp
  0013b	e8 00 00 00 00	 call	 @__security_check_cookie@4
  00140	8b e5		 mov	 esp, ebp
  00142	5d		 pop	 ebp
  00143	c3		 ret	 0
_TEXT	ENDS
;	COMDAT text$x
text$x	SEGMENT
__unwindfunclet$?packGet@@YAPAU_object@@PAU1@0@Z$0:
  00000	8d 8d ac fe ff
	ff		 lea	 ecx, DWORD PTR _file$3[ebp]
  00006	e9 00 00 00 00	 jmp	 ??1CMappedFile@@UAE@XZ	; CMappedFile::~CMappedFile
__ehhandler$?packGet@@YAPAU_object@@PAU1@0@Z:
  0000b	8b 54 24 08	 mov	 edx, DWORD PTR [esp+8]
  0000f	8d 42 0c	 lea	 eax, DWORD PTR [edx+12]
  00012	8b 8a a8 fe ff
	ff		 mov	 ecx, DWORD PTR [edx-344]
  00018	33 c8		 xor	 ecx, eax
  0001a	e8 00 00 00 00	 call	 @__security_check_cookie@4
  0001f	8b 4a fc	 mov	 ecx, DWORD PTR [edx-4]
  00022	33 c8		 xor	 ecx, eax
  00024	e8 00 00 00 00	 call	 @__security_check_cookie@4
  00029	b8 00 00 00 00	 mov	 eax, OFFSET __ehfuncinfo$?packGet@@YAPAU_object@@PAU1@0@Z
  0002e	e9 00 00 00 00	 jmp	 ___CxxFrameHandler3
text$x	ENDS
?packGet@@YAPAU_object@@PAU1@0@Z ENDP			; packGet
; Function compile flags: /Ogtp
; File d:\metin2\metin2\client_source_clean\client_source_clean\source\userinterface\pythonpackmodule.cpp
;	COMDAT ?initpack@@YAXXZ
_TEXT	SEGMENT
?initpack@@YAXXZ PROC					; initpack, COMDAT

; 79   : 	static PyMethodDef s_methods[] =
; 80   : 	{
; 81   : 		{ "Exist",		packExist,		METH_VARARGS },
; 82   : 		{ "Get",		packGet,		METH_VARARGS },
; 83   : 		{ NULL, NULL },		
; 84   : 	};
; 85   : 	
; 86   : 	Py_InitModule("pack", s_methods);

  00000	68 f5 03 00 00	 push	 1013			; 000003f5H
  00005	6a 00		 push	 0
  00007	6a 00		 push	 0
  00009	68 00 00 00 00	 push	 OFFSET ?s_methods@?1??initpack@@YAXXZ@4PAUPyMethodDef@@A
  0000e	68 00 00 00 00	 push	 OFFSET ??_C@_04IPANLPFO@pack?$AA@
  00013	ff 15 00 00 00
	00		 call	 DWORD PTR __imp__Py_InitModule4
  00019	83 c4 14	 add	 esp, 20			; 00000014H

; 87   : }

  0001c	c3		 ret	 0
?initpack@@YAXXZ ENDP					; initpack
_TEXT	ENDS
; Function compile flags: /Ogtp
; File c:\program files (x86)\microsoft visual studio 12.0\vc\include\string.h
;	COMDAT ?strrchr@@YAPADPADH@Z
_TEXT	SEGMENT
__Str$ = 8						; size = 4
__Ch$ = 12						; size = 4
?strrchr@@YAPADPADH@Z PROC				; strrchr, COMDAT

; 226  :         { return (char*)strrchr((const char*)_Str, _Ch); }

  00000	55		 push	 ebp
  00001	8b ec		 mov	 ebp, esp
  00003	5d		 pop	 ebp
  00004	e9 00 00 00 00	 jmp	 _strrchr
?strrchr@@YAPADPADH@Z ENDP				; strrchr
_TEXT	ENDS
END
