; Listing generated by Microsoft (R) Optimizing Compiler Version 18.00.40629.0 

	TITLE	D:\Metin2\Metin2\client_source_clean\client_source_clean\source\UserInterface\PythonApplicationProcedure.cpp
	.686P
	.XMM
	include listing.inc
	.model	flat

INCLUDELIB OLDNAMES

EXTRN	?WindowProcedure@CMSApplication@@MAEJPAUHWND__@@IIJ@Z:PROC ; CMSApplication::WindowProcedure
EXTRN	?ResizeBackBuffer@CGraphicDevice@@QAE_NII@Z:PROC ; CGraphicDevice::ResizeBackBuffer
EXTRN	?RunMouseMiddleButtonUp@CWindowManager@UI@@QAEXJJ@Z:PROC ; UI::CWindowManager::RunMouseMiddleButtonUp
EXTRN	_WebBrowser_IsVisible:PROC
EXTRN	?RunMouseMiddleButtonDown@CWindowManager@UI@@QAEXJJ@Z:PROC ; UI::CWindowManager::RunMouseMiddleButtonDown
EXTRN	__imp__GetCapture@0:PROC
EXTRN	?WMChar@CIME@@QAEJPAUHWND__@@IIJ@Z:PROC		; CIME::WMChar
EXTRN	?WMEndComposition@CIME@@QAEJPAUHWND__@@IIJ@Z:PROC ; CIME::WMEndComposition
EXTRN	?WMNotify@CIME@@QAEJPAUHWND__@@IIJ@Z:PROC	; CIME::WMNotify
EXTRN	?WMStartComposition@CIME@@QAEJPAUHWND__@@IIJ@Z:PROC ; CIME::WMStartComposition
EXTRN	?WMComposition@CIME@@QAEJPAUHWND__@@IIJ@Z:PROC	; CIME::WMComposition
EXTRN	?SaveVolume@CSoundManager@@QAEXXZ:PROC		; CSoundManager::SaveVolume
EXTRN	?WMInputLanguage@CIME@@QAEJPAUHWND__@@IIJ@Z:PROC ; CIME::WMInputLanguage
EXTRN	?RestoreVolume@CSoundManager@@QAEXXZ:PROC	; CSoundManager::RestoreVolume
EXTRN	__imp__ShowWindow@8:PROC
EXTRN	__imp__ChangeDisplaySettingsA@8:PROC
EXTRN	__imp__ReleaseCapture@0:PROC
EXTRN	__imp__SetCapture@4:PROC
;	COMDAT ?s_yDownPosition@?1??WindowProcedure@CPythonApplication@@MAEJPAUHWND__@@IIJ@Z@4HA
_BSS	SEGMENT
?s_yDownPosition@?1??WindowProcedure@CPythonApplication@@MAEJPAUHWND__@@IIJ@Z@4HA DD 01H DUP (?) ; `CPythonApplication::WindowProcedure'::`2'::s_yDownPosition
_BSS	ENDS
;	COMDAT ?s_xDownPosition@?1??WindowProcedure@CPythonApplication@@MAEJPAUHWND__@@IIJ@Z@4HA
_BSS	SEGMENT
?s_xDownPosition@?1??WindowProcedure@CPythonApplication@@MAEJPAUHWND__@@IIJ@Z@4HA DD 01H DUP (?) ; `CPythonApplication::WindowProcedure'::`2'::s_xDownPosition
_gs_nMouseCaptureRef DD 01H DUP (?)
_BSS	ENDS
PUBLIC	?__MinimizeFullScreenWindow@CPythonApplication@@IAEXPAUHWND__@@KK@Z ; CPythonApplication::__MinimizeFullScreenWindow
PUBLIC	?SafeReleaseCapture@CPythonApplication@@QAEXXZ	; CPythonApplication::SafeReleaseCapture
PUBLIC	?SafeSetCapture@CPythonApplication@@QAEXXZ	; CPythonApplication::SafeSetCapture
PUBLIC	?__SetFullScreenWindow@CPythonApplication@@IAEXPAUHWND__@@KKK@Z ; CPythonApplication::__SetFullScreenWindow
PUBLIC	?WindowProcedure@CPythonApplication@@MAEJPAUHWND__@@IIJ@Z ; CPythonApplication::WindowProcedure
	ALIGN	4

_piecewise_construct DB 01H DUP (?)
_BSS	ENDS
; Function compile flags: /Ogtp
; File d:\metin2\metin2\client_source_clean\client_source_clean\source\userinterface\pythonapplicationprocedure.cpp
;	COMDAT ?WindowProcedure@CPythonApplication@@MAEJPAUHWND__@@IIJ@Z
_TEXT	SEGMENT
_rcWnd$1 = -20						; size = 16
_rcWnd$2 = -20						; size = 16
__$ArrayPad$ = -4					; size = 4
_hWnd$ = 8						; size = 4
_uiMsg$ = 12						; size = 4
_wParam$ = 16						; size = 4
_lParam$ = 20						; size = 4
?WindowProcedure@CPythonApplication@@MAEJPAUHWND__@@IIJ@Z PROC ; CPythonApplication::WindowProcedure, COMDAT
; _this$ = ecx

; 50   : {

  00000	55		 push	 ebp
  00001	8b ec		 mov	 ebp, esp
  00003	83 ec 14	 sub	 esp, 20			; 00000014H
  00006	a1 00 00 00 00	 mov	 eax, DWORD PTR ___security_cookie
  0000b	33 c5		 xor	 eax, ebp
  0000d	89 45 fc	 mov	 DWORD PTR __$ArrayPad$[ebp], eax
  00010	53		 push	 ebx
  00011	8b 5d 08	 mov	 ebx, DWORD PTR _hWnd$[ebp]
  00014	56		 push	 esi
  00015	57		 push	 edi

; 51   : 	const int c_DoubleClickTime = 300;
; 52   : 	const int c_DoubleClickBox = 5;
; 53   : 	static int s_xDownPosition = 0;
; 54   : 	static int s_yDownPosition = 0;	
; 55   : 
; 56   : 	switch (uiMsg)

  00016	8b 7d 0c	 mov	 edi, DWORD PTR _uiMsg$[ebp]
  00019	8b f1		 mov	 esi, ecx
  0001b	83 ff 1c	 cmp	 edi, 28			; 0000001cH
  0001e	0f 87 00 01 00
	00		 ja	 $LN57@WindowProc
  00024	74 7a		 je	 SHORT $LN50@WindowProc
  00026	8b c7		 mov	 eax, edi
  00028	83 e8 02	 sub	 eax, 2
  0002b	0f 84 32 03 00
	00		 je	 $LN2@WindowProc
  00031	83 e8 03	 sub	 eax, 3
  00034	74 23		 je	 SHORT $LN23@WindowProc
  00036	83 e8 0b	 sub	 eax, 11			; 0000000bH
  00039	0f 85 c5 04 00
	00		 jne	 $LN89@WindowProc

; 261  : 				}
; 262  : 			}
; 263  : 			break;
; 264  : 
; 265  : 		case WM_CLOSE:
; 266  : #ifdef _DEBUG
; 267  : 			PostQuitMessage(0);
; 268  : #else	
; 269  : 			RunPressExitKey();

  0003f	e8 00 00 00 00	 call	 ?RunPressExitKey@CPythonApplication@@QAEXXZ ; CPythonApplication::RunPressExitKey
  00044	5f		 pop	 edi
  00045	5e		 pop	 esi

; 270  : #endif
; 271  : 			return 0;

  00046	33 c0		 xor	 eax, eax
  00048	5b		 pop	 ebx

; 281  : }

  00049	8b 4d fc	 mov	 ecx, DWORD PTR __$ArrayPad$[ebp]
  0004c	33 cd		 xor	 ecx, ebp
  0004e	e8 00 00 00 00	 call	 @__security_check_cookie@4
  00053	8b e5		 mov	 esp, ebp
  00055	5d		 pop	 ebp
  00056	c2 10 00	 ret	 16			; 00000010H
$LN23@WindowProc:

; 192  : 
; 193  : 		case WM_SIZE:
; 194  : 			switch (wParam)

  00059	8b 45 10	 mov	 eax, DWORD PTR _wParam$[ebp]
  0005c	8b c8		 mov	 ecx, eax
  0005e	83 e9 00	 sub	 ecx, 0
  00061	74 05		 je	 SHORT $LN20@WindowProc
  00063	83 e9 02	 sub	 ecx, 2
  00066	75 27		 jne	 SHORT $LN21@WindowProc
$LN20@WindowProc:

; 195  : 			{
; 196  : 				case SIZE_RESTORED:
; 197  : 				case SIZE_MAXIMIZED:
; 198  : 					{
; 199  : 						RECT rcWnd; 
; 200  : 						GetClientRect(&rcWnd); 

  00068	8d 45 ec	 lea	 eax, DWORD PTR _rcWnd$2[ebp]
  0006b	8b ce		 mov	 ecx, esi
  0006d	50		 push	 eax
  0006e	e8 00 00 00 00	 call	 ?GetClientRect@CMSWindow@@QAEXPAUtagRECT@@@Z ; CMSWindow::GetClientRect

; 201  : 				
; 202  : 						UINT uWidth=rcWnd.right-rcWnd.left; 
; 203  : 						UINT uHeight=rcWnd.bottom-rcWnd.left; 

  00073	8b 45 f8	 mov	 eax, DWORD PTR _rcWnd$2[ebp+12]

; 204  : 						m_grpDevice.ResizeBackBuffer(uWidth, uHeight);				

  00076	8d 8e 54 d8 01
	00		 lea	 ecx, DWORD PTR [esi+120916]
  0007c	2b 45 ec	 sub	 eax, DWORD PTR _rcWnd$2[ebp]
  0007f	50		 push	 eax
  00080	8b 45 f4	 mov	 eax, DWORD PTR _rcWnd$2[ebp+8]
  00083	2b 45 ec	 sub	 eax, DWORD PTR _rcWnd$2[ebp]
  00086	50		 push	 eax
  00087	e8 00 00 00 00	 call	 ?ResizeBackBuffer@CGraphicDevice@@QAE_NII@Z ; CGraphicDevice::ResizeBackBuffer
  0008c	8b 45 10	 mov	 eax, DWORD PTR _wParam$[ebp]
$LN21@WindowProc:

; 205  : 					}
; 206  : 					break;
; 207  : 			}
; 208  : 
; 209  : 			if (wParam==SIZE_MINIMIZED)

  0008f	83 f8 01	 cmp	 eax, 1
  00092	0f 94 c0	 sete	 al
  00095	88 86 b0 00 02
	00		 mov	 BYTE PTR [esi+131248], al

; 210  : 				m_isMinimizedWnd=true;
; 211  : 			else
; 212  : 				m_isMinimizedWnd=false;
; 213  : 
; 214  : 			OnSizeChange(short(LOWORD(lParam)), short(HIWORD(lParam)));
; 215  : 
; 216  : 			break;

  0009b	e9 64 04 00 00	 jmp	 $LN89@WindowProc
$LN50@WindowProc:

; 57   : 	{
; 58   : 		case WM_ACTIVATEAPP:
; 59   : 			{
; 60   : 				m_isActivateWnd = (wParam == WA_ACTIVE) || (wParam == WA_CLICKACTIVE);

  000a0	8b 45 10	 mov	 eax, DWORD PTR _wParam$[ebp]
  000a3	83 f8 01	 cmp	 eax, 1
  000a6	74 09		 je	 SHORT $LN55@WindowProc
  000a8	83 f8 02	 cmp	 eax, 2
  000ab	74 04		 je	 SHORT $LN55@WindowProc
  000ad	33 c0		 xor	 eax, eax
  000af	eb 05		 jmp	 SHORT $LN56@WindowProc
$LN55@WindowProc:
  000b1	b8 01 00 00 00	 mov	 eax, 1
$LN56@WindowProc:
  000b6	88 86 b1 00 02
	00		 mov	 BYTE PTR [esi+131249], al

; 61   : 
; 62   : 				if (m_isActivateWnd)
; 63   : 				{
; 64   : 					m_SoundManager.RestoreVolume();

  000bc	8d 8e e8 00 00
	00		 lea	 ecx, DWORD PTR [esi+232]
  000c2	84 c0		 test	 al, al
  000c4	74 35		 je	 SHORT $LN49@WindowProc
  000c6	e8 00 00 00 00	 call	 ?RestoreVolume@CSoundManager@@QAEXXZ ; CSoundManager::RestoreVolume

; 65   : 
; 66   : 					//////////////////
; 67   : 
; 68   : 					if (m_isWindowFullScreenEnable)

  000cb	83 be b4 00 02
	00 00		 cmp	 DWORD PTR [esi+131252], 0
  000d2	0f 84 2c 04 00
	00		 je	 $LN89@WindowProc

; 69   : 					{
; 70   : 						__SetFullScreenWindow(hWnd, m_dwWidth, m_dwHeight, m_pySystem.GetBPP());

  000d8	8d 8e 70 d8 01
	00		 lea	 ecx, DWORD PTR [esi+120944]
  000de	e8 00 00 00 00	 call	 ?GetBPP@CPythonSystem@@QAEKXZ ; CPythonSystem::GetBPP
  000e3	50		 push	 eax
  000e4	ff b6 88 ff 01
	00		 push	 DWORD PTR [esi+130952]
  000ea	ff b6 84 ff 01
	00		 push	 DWORD PTR [esi+130948]
  000f0	51		 push	 ecx
  000f1	e8 00 00 00 00	 call	 ?__SetFullScreenWindow@CPythonApplication@@IAEXPAUHWND__@@KKK@Z ; CPythonApplication::__SetFullScreenWindow

; 71   : 					}
; 72   : 				}
; 73   : 				else

  000f6	e9 09 04 00 00	 jmp	 $LN89@WindowProc
$LN49@WindowProc:

; 74   : 				{
; 75   : 					m_SoundManager.SaveVolume();

  000fb	e8 00 00 00 00	 call	 ?SaveVolume@CSoundManager@@QAEXXZ ; CSoundManager::SaveVolume

; 76   : 
; 77   : 					//////////////////
; 78   : 
; 79   : 					if (m_isWindowFullScreenEnable)

  00100	83 be b4 00 02
	00 00		 cmp	 DWORD PTR [esi+131252], 0
  00107	0f 84 f7 03 00
	00		 je	 $LN89@WindowProc

; 80   : 					{
; 81   : 						__MinimizeFullScreenWindow(hWnd, m_dwWidth, m_dwHeight);

  0010d	ff b6 88 ff 01
	00		 push	 DWORD PTR [esi+130952]
  00113	ff b6 84 ff 01
	00		 push	 DWORD PTR [esi+130948]
  00119	53		 push	 ebx
  0011a	e8 00 00 00 00	 call	 ?__MinimizeFullScreenWindow@CPythonApplication@@IAEXPAUHWND__@@KK@Z ; CPythonApplication::__MinimizeFullScreenWindow

; 82   : 					}
; 83   : 				}
; 84   : 			}
; 85   : 			break;

  0011f	e9 e0 03 00 00	 jmp	 $LN89@WindowProc
$LN57@WindowProc:

; 51   : 	const int c_DoubleClickTime = 300;
; 52   : 	const int c_DoubleClickBox = 5;
; 53   : 	static int s_xDownPosition = 0;
; 54   : 	static int s_yDownPosition = 0;	
; 55   : 
; 56   : 	switch (uiMsg)

  00124	81 ff 0d 01 00
	00		 cmp	 edi, 269		; 0000010dH
  0012a	0f 87 31 01 00
	00		 ja	 $LN58@WindowProc
  00130	0f 84 fe 00 00
	00		 je	 $LN44@WindowProc
  00136	8d 47 e0	 lea	 eax, DWORD PTR [edi-32]
  00139	3d e5 00 00 00	 cmp	 eax, 229		; 000000e5H
  0013e	0f 87 c0 03 00
	00		 ja	 $LN89@WindowProc
  00144	0f b6 80 00 00
	00 00		 movzx	 eax, BYTE PTR $LN76@WindowProc[eax]
  0014b	ff 24 85 00 00
	00 00		 jmp	 DWORD PTR $LN91@WindowProc[eax*4]
$LN45@WindowProc:

; 86   : 
; 87   : 		case WM_INPUTLANGCHANGE:
; 88   : 			return CPythonIME::Instance().WMInputLanguage(hWnd, uiMsg, wParam, lParam);

  00152	ff 75 14	 push	 DWORD PTR _lParam$[ebp]
  00155	8b 0d 00 00 00
	00		 mov	 ecx, DWORD PTR ?ms_singleton@?$CSingleton@VCPythonIME@@@@0PAVCPythonIME@@A ; CSingleton<CPythonIME>::ms_singleton
  0015b	ff 75 10	 push	 DWORD PTR _wParam$[ebp]
  0015e	57		 push	 edi
  0015f	53		 push	 ebx
  00160	8d 49 04	 lea	 ecx, DWORD PTR [ecx+4]
  00163	e8 00 00 00 00	 call	 ?WMInputLanguage@CIME@@QAEJPAUHWND__@@IIJ@Z ; CIME::WMInputLanguage
  00168	5f		 pop	 edi
  00169	5e		 pop	 esi
  0016a	5b		 pop	 ebx

; 281  : }

  0016b	8b 4d fc	 mov	 ecx, DWORD PTR __$ArrayPad$[ebp]
  0016e	33 cd		 xor	 ecx, ebp
  00170	e8 00 00 00 00	 call	 @__security_check_cookie@4
  00175	8b e5		 mov	 esp, ebp
  00177	5d		 pop	 ebp
  00178	c2 10 00	 ret	 16			; 00000010H
$LN39@WindowProc:

; 110  : 
; 111  : 		case WM_CHAR:
; 112  : 			return CPythonIME::Instance().WMChar(hWnd, uiMsg, wParam, lParam);

  0017b	ff 75 14	 push	 DWORD PTR _lParam$[ebp]
  0017e	8b 0d 00 00 00
	00		 mov	 ecx, DWORD PTR ?ms_singleton@?$CSingleton@VCPythonIME@@@@0PAVCPythonIME@@A ; CSingleton<CPythonIME>::ms_singleton
  00184	ff 75 10	 push	 DWORD PTR _wParam$[ebp]
  00187	57		 push	 edi
  00188	53		 push	 ebx
  00189	8d 49 04	 lea	 ecx, DWORD PTR [ecx+4]
  0018c	e8 00 00 00 00	 call	 ?WMChar@CIME@@QAEJPAUHWND__@@IIJ@Z ; CIME::WMChar
  00191	5f		 pop	 edi
  00192	5e		 pop	 esi
  00193	5b		 pop	 ebx

; 281  : }

  00194	8b 4d fc	 mov	 ecx, DWORD PTR __$ArrayPad$[ebp]
  00197	33 cd		 xor	 ecx, ebp
  00199	e8 00 00 00 00	 call	 @__security_check_cookie@4
  0019e	8b e5		 mov	 esp, ebp
  001a0	5d		 pop	 ebp
  001a1	c2 10 00	 ret	 16			; 00000010H
$LN38@WindowProc:

; 113  : 			break;
; 114  : 
; 115  : 		case WM_KEYDOWN:
; 116  : 			OnIMEKeyDown(LOWORD(wParam));

  001a4	8b 45 10	 mov	 eax, DWORD PTR _wParam$[ebp]
  001a7	0f b7 c0	 movzx	 eax, ax
  001aa	50		 push	 eax
  001ab	e8 00 00 00 00	 call	 ?OnIMEKeyDown@CPythonApplication@@IAEXH@Z ; CPythonApplication::OnIMEKeyDown

; 117  : 			break;

  001b0	e9 4f 03 00 00	 jmp	 $LN89@WindowProc
$LN12@WindowProc:

; 226  : 				OnSizeChange(short(LOWORD(lParam)), short(HIWORD(lParam)));
; 227  : 			}
; 228  : 			break; 
; 229  : 
; 230  : 		case WM_SYSKEYDOWN:
; 231  : 			switch (LOWORD(wParam))
; 232  : 			{
; 233  : 				case VK_F10:
; 234  : 					break;
; 235  : 			}
; 236  : 			break;
; 237  : 
; 238  : 		case WM_SYSKEYUP:
; 239  : 			switch(LOWORD(wParam))

  001b5	8b 45 10	 mov	 eax, DWORD PTR _wParam$[ebp]
  001b8	66 83 f8 12	 cmp	 ax, 18			; 00000012H
  001bc	0f 85 45 03 00
	00		 jne	 $LN78@WindowProc

; 240  : 			{
; 241  : 				case 18:
; 242  : 					return FALSE;

  001c2	5f		 pop	 edi
  001c3	5e		 pop	 esi
  001c4	33 c0		 xor	 eax, eax
  001c6	5b		 pop	 ebx

; 281  : }

  001c7	8b 4d fc	 mov	 ecx, DWORD PTR __$ArrayPad$[ebp]
  001ca	33 cd		 xor	 ecx, ebp
  001cc	e8 00 00 00 00	 call	 @__security_check_cookie@4
  001d1	8b e5		 mov	 esp, ebp
  001d3	5d		 pop	 ebp
  001d4	c2 10 00	 ret	 16			; 00000010H
$LN7@WindowProc:

; 243  : 					break;
; 244  : 				case VK_F10:
; 245  : 					break;
; 246  : 			}
; 247  : 			break;
; 248  : 
; 249  : 		case WM_SETCURSOR:
; 250  : 			if (IsActive())

  001d7	e8 00 00 00 00	 call	 ?IsActive@CMSWindow@@QAE_NXZ ; CMSWindow::IsActive
  001dc	84 c0		 test	 al, al
  001de	0f 84 20 03 00
	00		 je	 $LN89@WindowProc

; 251  : 			{
; 252  : 				if (m_bCursorVisible && CURSOR_MODE_HARDWARE == m_iCursorMode)

  001e4	83 be 84 00 02
	00 00		 cmp	 DWORD PTR [esi+131204], 0
  001eb	74 2a		 je	 SHORT $LN5@WindowProc
  001ed	83 be 8c 00 02
	00 00		 cmp	 DWORD PTR [esi+131212], 0
  001f4	75 21		 jne	 SHORT $LN5@WindowProc

; 253  : 				{
; 254  : 					SetCursor((HCURSOR) m_hCurrentCursor);

  001f6	ff b6 80 00 02
	00		 push	 DWORD PTR [esi+131200]
  001fc	ff 15 00 00 00
	00		 call	 DWORD PTR __imp__SetCursor@4
  00202	5f		 pop	 edi
  00203	5e		 pop	 esi

; 255  : 					return 0;

  00204	33 c0		 xor	 eax, eax
  00206	5b		 pop	 ebx

; 281  : }

  00207	8b 4d fc	 mov	 ecx, DWORD PTR __$ArrayPad$[ebp]
  0020a	33 cd		 xor	 ecx, ebp
  0020c	e8 00 00 00 00	 call	 @__security_check_cookie@4
  00211	8b e5		 mov	 esp, ebp
  00213	5d		 pop	 ebp
  00214	c2 10 00	 ret	 16			; 00000010H
$LN5@WindowProc:

; 256  : 				}
; 257  : 				else
; 258  : 				{
; 259  : 					SetCursor(NULL);

  00217	6a 00		 push	 0
  00219	ff 15 00 00 00
	00		 call	 DWORD PTR __imp__SetCursor@4
  0021f	5f		 pop	 edi
  00220	5e		 pop	 esi

; 260  : 					return 0;

  00221	33 c0		 xor	 eax, eax
  00223	5b		 pop	 ebx

; 281  : }

  00224	8b 4d fc	 mov	 ecx, DWORD PTR __$ArrayPad$[ebp]
  00227	33 cd		 xor	 ecx, ebp
  00229	e8 00 00 00 00	 call	 @__security_check_cookie@4
  0022e	8b e5		 mov	 esp, ebp
  00230	5d		 pop	 ebp
  00231	c2 10 00	 ret	 16			; 00000010H
$LN44@WindowProc:

; 89   : 			break;
; 90   : 
; 91   : 		case WM_IME_STARTCOMPOSITION:
; 92   : 			return CPythonIME::Instance().WMStartComposition(hWnd, uiMsg, wParam, lParam);

  00234	ff 75 14	 push	 DWORD PTR _lParam$[ebp]
  00237	8b 0d 00 00 00
	00		 mov	 ecx, DWORD PTR ?ms_singleton@?$CSingleton@VCPythonIME@@@@0PAVCPythonIME@@A ; CSingleton<CPythonIME>::ms_singleton
  0023d	ff 75 10	 push	 DWORD PTR _wParam$[ebp]
  00240	68 0d 01 00 00	 push	 269			; 0000010dH
  00245	53		 push	 ebx
  00246	8d 49 04	 lea	 ecx, DWORD PTR [ecx+4]
  00249	e8 00 00 00 00	 call	 ?WMStartComposition@CIME@@QAEJPAUHWND__@@IIJ@Z ; CIME::WMStartComposition
  0024e	5f		 pop	 edi
  0024f	5e		 pop	 esi
  00250	5b		 pop	 ebx

; 281  : }

  00251	8b 4d fc	 mov	 ecx, DWORD PTR __$ArrayPad$[ebp]
  00254	33 cd		 xor	 ecx, ebp
  00256	e8 00 00 00 00	 call	 @__security_check_cookie@4
  0025b	8b e5		 mov	 esp, ebp
  0025d	5d		 pop	 ebp
  0025e	c2 10 00	 ret	 16			; 00000010H
$LN58@WindowProc:

; 51   : 	const int c_DoubleClickTime = 300;
; 52   : 	const int c_DoubleClickBox = 5;
; 53   : 	static int s_xDownPosition = 0;
; 54   : 	static int s_yDownPosition = 0;	
; 55   : 
; 56   : 	switch (uiMsg)

  00261	81 ff 01 02 00
	00		 cmp	 edi, 513		; 00000201H
  00267	0f 87 0b 01 00
	00		 ja	 $LN59@WindowProc
  0026d	74 6a		 je	 SHORT $LN37@WindowProc
  0026f	8b c7		 mov	 eax, edi
  00271	2d 0e 01 00 00	 sub	 eax, 270		; 0000010eH
  00276	74 34		 je	 SHORT $LN42@WindowProc
  00278	48		 dec	 eax
  00279	0f 85 85 02 00
	00		 jne	 $LN89@WindowProc

; 93   : 			break;
; 94   : 
; 95   : 		case WM_IME_COMPOSITION:
; 96   : 			return CPythonIME::Instance().WMComposition(hWnd, uiMsg, wParam, lParam);

  0027f	ff 75 14	 push	 DWORD PTR _lParam$[ebp]
  00282	8b 0d 00 00 00
	00		 mov	 ecx, DWORD PTR ?ms_singleton@?$CSingleton@VCPythonIME@@@@0PAVCPythonIME@@A ; CSingleton<CPythonIME>::ms_singleton
  00288	ff 75 10	 push	 DWORD PTR _wParam$[ebp]
  0028b	68 0f 01 00 00	 push	 271			; 0000010fH
  00290	53		 push	 ebx
  00291	8d 49 04	 lea	 ecx, DWORD PTR [ecx+4]
  00294	e8 00 00 00 00	 call	 ?WMComposition@CIME@@QAEJPAUHWND__@@IIJ@Z ; CIME::WMComposition
  00299	5f		 pop	 edi
  0029a	5e		 pop	 esi
  0029b	5b		 pop	 ebx

; 281  : }

  0029c	8b 4d fc	 mov	 ecx, DWORD PTR __$ArrayPad$[ebp]
  0029f	33 cd		 xor	 ecx, ebp
  002a1	e8 00 00 00 00	 call	 @__security_check_cookie@4
  002a6	8b e5		 mov	 esp, ebp
  002a8	5d		 pop	 ebp
  002a9	c2 10 00	 ret	 16			; 00000010H
$LN42@WindowProc:

; 97   : 			break;
; 98   : 
; 99   : 		case WM_IME_ENDCOMPOSITION:
; 100  : 			return CPythonIME::Instance().WMEndComposition(hWnd, uiMsg, wParam, lParam);

  002ac	ff 75 14	 push	 DWORD PTR _lParam$[ebp]
  002af	8b 0d 00 00 00
	00		 mov	 ecx, DWORD PTR ?ms_singleton@?$CSingleton@VCPythonIME@@@@0PAVCPythonIME@@A ; CSingleton<CPythonIME>::ms_singleton
  002b5	ff 75 10	 push	 DWORD PTR _wParam$[ebp]
  002b8	68 0e 01 00 00	 push	 270			; 0000010eH
  002bd	53		 push	 ebx
  002be	8d 49 04	 lea	 ecx, DWORD PTR [ecx+4]
  002c1	e8 00 00 00 00	 call	 ?WMEndComposition@CIME@@QAEJPAUHWND__@@IIJ@Z ; CIME::WMEndComposition
  002c6	5f		 pop	 edi
  002c7	5e		 pop	 esi
  002c8	5b		 pop	 ebx

; 281  : }

  002c9	8b 4d fc	 mov	 ecx, DWORD PTR __$ArrayPad$[ebp]
  002cc	33 cd		 xor	 ecx, ebp
  002ce	e8 00 00 00 00	 call	 @__security_check_cookie@4
  002d3	8b e5		 mov	 esp, ebp
  002d5	5d		 pop	 ebp
  002d6	c2 10 00	 ret	 16			; 00000010H
$LN37@WindowProc:

; 118  : 
; 119  : 		case WM_LBUTTONDOWN:
; 120  : 			SafeSetCapture();

  002d9	e8 00 00 00 00	 call	 ?SafeSetCapture@CPythonApplication@@QAEXXZ ; CPythonApplication::SafeSetCapture

; 121  : 
; 122  : 			if (ELTimer_GetMSec() - m_dwLButtonDownTime < c_DoubleClickTime &&
; 123  : 				abs(LOWORD(lParam) - s_xDownPosition) < c_DoubleClickBox &&
; 124  : 				abs(HIWORD(lParam) - s_yDownPosition) < c_DoubleClickBox)

  002de	e8 00 00 00 00	 call	 ?ELTimer_GetMSec@@YAKXZ	; ELTimer_GetMSec
  002e3	2b 86 70 00 02
	00		 sub	 eax, DWORD PTR [esi+131184]
  002e9	8b 5d 14	 mov	 ebx, DWORD PTR _lParam$[ebp]
  002ec	3d 2c 01 00 00	 cmp	 eax, 300		; 0000012cH
  002f1	73 43		 jae	 SHORT $LN36@WindowProc
  002f3	0f b7 c3	 movzx	 eax, bx
  002f6	2b 05 00 00 00
	00		 sub	 eax, DWORD PTR ?s_xDownPosition@?1??WindowProcedure@CPythonApplication@@MAEJPAUHWND__@@IIJ@Z@4HA
  002fc	99		 cdq
  002fd	33 c2		 xor	 eax, edx
  002ff	2b c2		 sub	 eax, edx
  00301	83 f8 05	 cmp	 eax, 5
  00304	7d 30		 jge	 SHORT $LN36@WindowProc
  00306	8b fb		 mov	 edi, ebx
  00308	c1 ef 10	 shr	 edi, 16			; 00000010H
  0030b	8b c7		 mov	 eax, edi
  0030d	2b 05 00 00 00
	00		 sub	 eax, DWORD PTR ?s_yDownPosition@?1??WindowProcedure@CPythonApplication@@MAEJPAUHWND__@@IIJ@Z@4HA
  00313	99		 cdq
  00314	33 c2		 xor	 eax, edx
  00316	2b c2		 sub	 eax, edx
  00318	83 f8 05	 cmp	 eax, 5
  0031b	7d 19		 jge	 SHORT $LN36@WindowProc

; 125  : 			{
; 126  : 				m_dwLButtonDownTime = 0;
; 127  : 
; 128  : 				OnMouseLeftButtonDoubleClick(short(LOWORD(lParam)), short(HIWORD(lParam)));

  0031d	0f bf c7	 movsx	 eax, di
  00320	50		 push	 eax
  00321	0f bf c3	 movsx	 eax, bx
  00324	50		 push	 eax
  00325	c7 86 70 00 02
	00 00 00 00 00	 mov	 DWORD PTR [esi+131184], 0
  0032f	e8 00 00 00 00	 call	 ?OnMouseLeftButtonDoubleClick@CPythonApplication@@IAEXHH@Z ; CPythonApplication::OnMouseLeftButtonDoubleClick

; 129  : 			}
; 130  : 			else

  00334	eb 1d		 jmp	 SHORT $LN35@WindowProc
$LN36@WindowProc:

; 131  : 			{
; 132  : 				m_dwLButtonDownTime = ELTimer_GetMSec();

  00336	e8 00 00 00 00	 call	 ?ELTimer_GetMSec@@YAKXZ	; ELTimer_GetMSec

; 133  : 
; 134  : 				OnMouseLeftButtonDown(short(LOWORD(lParam)), short(HIWORD(lParam)));

  0033b	8b fb		 mov	 edi, ebx
  0033d	89 86 70 00 02
	00		 mov	 DWORD PTR [esi+131184], eax
  00343	c1 ef 10	 shr	 edi, 16			; 00000010H
  00346	0f bf c7	 movsx	 eax, di
  00349	50		 push	 eax
  0034a	0f bf c3	 movsx	 eax, bx
  0034d	50		 push	 eax
  0034e	e8 00 00 00 00	 call	 ?OnMouseLeftButtonDown@CPythonApplication@@IAEXHH@Z ; CPythonApplication::OnMouseLeftButtonDown
$LN35@WindowProc:

; 135  : 			}
; 136  : 
; 137  : 			s_xDownPosition = LOWORD(lParam);

  00353	0f b7 c3	 movzx	 eax, bx
  00356	a3 00 00 00 00	 mov	 DWORD PTR ?s_xDownPosition@?1??WindowProcedure@CPythonApplication@@MAEJPAUHWND__@@IIJ@Z@4HA, eax

; 138  : 			s_yDownPosition = HIWORD(lParam);

  0035b	0f b7 c7	 movzx	 eax, di
  0035e	a3 00 00 00 00	 mov	 DWORD PTR ?s_yDownPosition@?1??WindowProcedure@CPythonApplication@@MAEJPAUHWND__@@IIJ@Z@4HA, eax
$LN2@WindowProc:

; 139  : 			return 0;

  00363	5f		 pop	 edi
  00364	5e		 pop	 esi
  00365	33 c0		 xor	 eax, eax
  00367	5b		 pop	 ebx

; 281  : }

  00368	8b 4d fc	 mov	 ecx, DWORD PTR __$ArrayPad$[ebp]
  0036b	33 cd		 xor	 ecx, ebp
  0036d	e8 00 00 00 00	 call	 @__security_check_cookie@4
  00372	8b e5		 mov	 esp, ebp
  00374	5d		 pop	 ebp
  00375	c2 10 00	 ret	 16			; 00000010H
$LN59@WindowProc:

; 51   : 	const int c_DoubleClickTime = 300;
; 52   : 	const int c_DoubleClickBox = 5;
; 53   : 	static int s_xDownPosition = 0;
; 54   : 	static int s_yDownPosition = 0;	
; 55   : 
; 56   : 	switch (uiMsg)

  00378	8d 87 fe fd ff
	ff		 lea	 eax, DWORD PTR [edi-514]
  0037e	3d 80 00 00 00	 cmp	 eax, 128		; 00000080H
  00383	0f 87 7b 01 00
	00		 ja	 $LN89@WindowProc
  00389	0f b6 80 00 00
	00 00		 movzx	 eax, BYTE PTR $LN77@WindowProc[eax]
  00390	ff 24 85 00 00
	00 00		 jmp	 DWORD PTR $LN92@WindowProc[eax*4]
$LN41@WindowProc:

; 101  : 			break;
; 102  : 
; 103  : 		case WM_IME_NOTIFY:
; 104  : 			return CPythonIME::Instance().WMNotify(hWnd, uiMsg, wParam, lParam);

  00397	ff 75 14	 push	 DWORD PTR _lParam$[ebp]
  0039a	8b 0d 00 00 00
	00		 mov	 ecx, DWORD PTR ?ms_singleton@?$CSingleton@VCPythonIME@@@@0PAVCPythonIME@@A ; CSingleton<CPythonIME>::ms_singleton
  003a0	ff 75 10	 push	 DWORD PTR _wParam$[ebp]
  003a3	57		 push	 edi
  003a4	53		 push	 ebx
  003a5	8d 49 04	 lea	 ecx, DWORD PTR [ecx+4]
  003a8	e8 00 00 00 00	 call	 ?WMNotify@CIME@@QAEJPAUHWND__@@IIJ@Z ; CIME::WMNotify
  003ad	5f		 pop	 edi
  003ae	5e		 pop	 esi
  003af	5b		 pop	 ebx

; 281  : }

  003b0	8b 4d fc	 mov	 ecx, DWORD PTR __$ArrayPad$[ebp]
  003b3	33 cd		 xor	 ecx, ebp
  003b5	e8 00 00 00 00	 call	 @__security_check_cookie@4
  003ba	8b e5		 mov	 esp, ebp
  003bc	5d		 pop	 ebp
  003bd	c2 10 00	 ret	 16			; 00000010H
$LN40@WindowProc:

; 105  : 			break;
; 106  : 
; 107  : 		case WM_IME_SETCONTEXT:
; 108  : 			lParam &= ~(ISC_SHOWUICOMPOSITIONWINDOW | ISC_SHOWUIALLCANDIDATEWINDOW);

  003c0	81 65 14 f0 ff
	ff 7f		 and	 DWORD PTR _lParam$[ebp], 2147483632 ; 7ffffff0H

; 109  : 			break;

  003c7	e9 38 01 00 00	 jmp	 $LN89@WindowProc
$LN34@WindowProc:

; 140  : 
; 141  : 		case WM_LBUTTONUP:
; 142  : 			m_dwLButtonUpTime = ELTimer_GetMSec();

  003cc	e8 00 00 00 00	 call	 ?ELTimer_GetMSec@@YAKXZ	; ELTimer_GetMSec
  003d1	89 86 74 00 02
	00		 mov	 DWORD PTR [esi+131188], eax

; 143  : 
; 144  : 			if (hWnd == GetCapture())

  003d7	ff 15 00 00 00
	00		 call	 DWORD PTR __imp__GetCapture@0
  003dd	3b d8		 cmp	 ebx, eax
  003df	75 82		 jne	 SHORT $LN2@WindowProc

; 145  : 			{
; 146  : 				SafeReleaseCapture();

  003e1	e8 00 00 00 00	 call	 ?SafeReleaseCapture@CPythonApplication@@QAEXXZ ; CPythonApplication::SafeReleaseCapture

; 147  : 				OnMouseLeftButtonUp(short(LOWORD(lParam)), short(HIWORD(lParam)));

  003e6	8b 4d 14	 mov	 ecx, DWORD PTR _lParam$[ebp]
  003e9	8b c1		 mov	 eax, ecx
  003eb	c1 e8 10	 shr	 eax, 16			; 00000010H
  003ee	98		 cwde
  003ef	50		 push	 eax
  003f0	0f bf c1	 movsx	 eax, cx
  003f3	50		 push	 eax
  003f4	e8 00 00 00 00	 call	 ?OnMouseLeftButtonUp@CPythonApplication@@IAEXHH@Z ; CPythonApplication::OnMouseLeftButtonUp
  003f9	5f		 pop	 edi
  003fa	5e		 pop	 esi

; 148  : 			}
; 149  : 			return 0;

  003fb	33 c0		 xor	 eax, eax
  003fd	5b		 pop	 ebx

; 281  : }

  003fe	8b 4d fc	 mov	 ecx, DWORD PTR __$ArrayPad$[ebp]
  00401	33 cd		 xor	 ecx, ebp
  00403	e8 00 00 00 00	 call	 @__security_check_cookie@4
  00408	8b e5		 mov	 esp, ebp
  0040a	5d		 pop	 ebp
  0040b	c2 10 00	 ret	 16			; 00000010H
$LN32@WindowProc:

; 150  : 
; 151  : 		case WM_MBUTTONDOWN:
; 152  : 			SafeSetCapture();

  0040e	e8 00 00 00 00	 call	 ?SafeSetCapture@CPythonApplication@@QAEXXZ ; CPythonApplication::SafeSetCapture

; 153  : 
; 154  : 			UI::CWindowManager::Instance().RunMouseMiddleButtonDown(short(LOWORD(lParam)), short(HIWORD(lParam)));

  00413	8b 4d 14	 mov	 ecx, DWORD PTR _lParam$[ebp]
  00416	8b c1		 mov	 eax, ecx
  00418	c1 e8 10	 shr	 eax, 16			; 00000010H
  0041b	98		 cwde
  0041c	50		 push	 eax
  0041d	0f bf c1	 movsx	 eax, cx
  00420	8b 0d 00 00 00
	00		 mov	 ecx, DWORD PTR ?ms_singleton@?$CSingleton@VCWindowManager@UI@@@@0PAVCWindowManager@UI@@A ; CSingleton<UI::CWindowManager>::ms_singleton
  00426	50		 push	 eax
  00427	e8 00 00 00 00	 call	 ?RunMouseMiddleButtonDown@CWindowManager@UI@@QAEXJJ@Z ; UI::CWindowManager::RunMouseMiddleButtonDown

; 155  : //			OnMouseMiddleButtonDown(short(LOWORD(lParam)), short(HIWORD(lParam)));
; 156  : 			break;

  0042c	e9 d3 00 00 00	 jmp	 $LN89@WindowProc
$LN31@WindowProc:

; 157  : 
; 158  : 		case WM_MBUTTONUP:
; 159  : 			if (GetCapture() == hWnd)

  00431	ff 15 00 00 00
	00		 call	 DWORD PTR __imp__GetCapture@0
  00437	3b c3		 cmp	 eax, ebx
  00439	0f 85 c5 00 00
	00		 jne	 $LN89@WindowProc

; 160  : 			{
; 161  : 				SafeReleaseCapture();

  0043f	e8 00 00 00 00	 call	 ?SafeReleaseCapture@CPythonApplication@@QAEXXZ ; CPythonApplication::SafeReleaseCapture

; 162  : 
; 163  : 				UI::CWindowManager::Instance().RunMouseMiddleButtonUp(short(LOWORD(lParam)), short(HIWORD(lParam)));

  00444	8b 4d 14	 mov	 ecx, DWORD PTR _lParam$[ebp]
  00447	8b c1		 mov	 eax, ecx
  00449	c1 e8 10	 shr	 eax, 16			; 00000010H
  0044c	98		 cwde
  0044d	50		 push	 eax
  0044e	0f bf c1	 movsx	 eax, cx
  00451	8b 0d 00 00 00
	00		 mov	 ecx, DWORD PTR ?ms_singleton@?$CSingleton@VCWindowManager@UI@@@@0PAVCWindowManager@UI@@A ; CSingleton<UI::CWindowManager>::ms_singleton
  00457	50		 push	 eax
  00458	e8 00 00 00 00	 call	 ?RunMouseMiddleButtonUp@CWindowManager@UI@@QAEXJJ@Z ; UI::CWindowManager::RunMouseMiddleButtonUp

; 164  : //				OnMouseMiddleButtonUp(short(LOWORD(lParam)), short(HIWORD(lParam)));
; 165  : 			}
; 166  : 			break;

  0045d	e9 a2 00 00 00	 jmp	 $LN89@WindowProc
$LN29@WindowProc:

; 167  : 
; 168  : 		case WM_RBUTTONDOWN:
; 169  : 			SafeSetCapture();

  00462	e8 00 00 00 00	 call	 ?SafeSetCapture@CPythonApplication@@QAEXXZ ; CPythonApplication::SafeSetCapture

; 170  : 			OnMouseRightButtonDown(short(LOWORD(lParam)), short(HIWORD(lParam)));

  00467	8b 4d 14	 mov	 ecx, DWORD PTR _lParam$[ebp]
  0046a	8b c1		 mov	 eax, ecx
  0046c	c1 e8 10	 shr	 eax, 16			; 00000010H
  0046f	98		 cwde
  00470	50		 push	 eax
  00471	0f bf c1	 movsx	 eax, cx
  00474	50		 push	 eax
  00475	e8 00 00 00 00	 call	 ?OnMouseRightButtonDown@CPythonApplication@@IAEXHH@Z ; CPythonApplication::OnMouseRightButtonDown
  0047a	5f		 pop	 edi
  0047b	5e		 pop	 esi

; 171  : 			return 0;

  0047c	33 c0		 xor	 eax, eax
  0047e	5b		 pop	 ebx

; 281  : }

  0047f	8b 4d fc	 mov	 ecx, DWORD PTR __$ArrayPad$[ebp]
  00482	33 cd		 xor	 ecx, ebp
  00484	e8 00 00 00 00	 call	 @__security_check_cookie@4
  00489	8b e5		 mov	 esp, ebp
  0048b	5d		 pop	 ebp
  0048c	c2 10 00	 ret	 16			; 00000010H
$LN28@WindowProc:

; 172  : 
; 173  : 		case WM_RBUTTONUP:
; 174  : 			if (hWnd == GetCapture()) 

  0048f	ff 15 00 00 00
	00		 call	 DWORD PTR __imp__GetCapture@0
  00495	3b d8		 cmp	 ebx, eax
  00497	0f 85 c6 fe ff
	ff		 jne	 $LN2@WindowProc

; 175  : 			{
; 176  : 				SafeReleaseCapture();

  0049d	e8 00 00 00 00	 call	 ?SafeReleaseCapture@CPythonApplication@@QAEXXZ ; CPythonApplication::SafeReleaseCapture

; 177  : 
; 178  : 				OnMouseRightButtonUp(short(LOWORD(lParam)), short(HIWORD(lParam)));

  004a2	8b 4d 14	 mov	 ecx, DWORD PTR _lParam$[ebp]
  004a5	8b c1		 mov	 eax, ecx
  004a7	c1 e8 10	 shr	 eax, 16			; 00000010H
  004aa	98		 cwde
  004ab	50		 push	 eax
  004ac	0f bf c1	 movsx	 eax, cx
  004af	50		 push	 eax
  004b0	e8 00 00 00 00	 call	 ?OnMouseRightButtonUp@CPythonApplication@@IAEXHH@Z ; CPythonApplication::OnMouseRightButtonUp
  004b5	5f		 pop	 edi
  004b6	5e		 pop	 esi

; 179  : 			}
; 180  : 			return 0;

  004b7	33 c0		 xor	 eax, eax
  004b9	5b		 pop	 ebx

; 281  : }

  004ba	8b 4d fc	 mov	 ecx, DWORD PTR __$ArrayPad$[ebp]
  004bd	33 cd		 xor	 ecx, ebp
  004bf	e8 00 00 00 00	 call	 @__security_check_cookie@4
  004c4	8b e5		 mov	 esp, ebp
  004c6	5d		 pop	 ebp
  004c7	c2 10 00	 ret	 16			; 00000010H
$LN26@WindowProc:

; 181  : 
; 182  : 		case 0x20a:
; 183  : 			if (WebBrowser_IsVisible())

  004ca	e8 00 00 00 00	 call	 _WebBrowser_IsVisible
  004cf	85 c0		 test	 eax, eax
  004d1	75 31		 jne	 SHORT $LN89@WindowProc

; 184  : 			{
; 185  : 				// 웹브라우저 상태일때는 휠 작동 안되도록 처리
; 186  : 			}
; 187  : 			else
; 188  : 			{
; 189  : 				OnMouseWheel(short(HIWORD(wParam)));

  004d3	8b 45 10	 mov	 eax, DWORD PTR _wParam$[ebp]
  004d6	c1 e8 10	 shr	 eax, 16			; 00000010H
  004d9	98		 cwde
  004da	50		 push	 eax
  004db	e8 00 00 00 00	 call	 ?OnMouseWheel@CPythonApplication@@IAEXH@Z ; CPythonApplication::OnMouseWheel

; 190  : 			}
; 191  : 			break;

  004e0	eb 22		 jmp	 SHORT $LN89@WindowProc
$LN17@WindowProc:

; 217  : 
; 218  : 		case WM_EXITSIZEMOVE:    
; 219  : 			{
; 220  : 				RECT rcWnd; 
; 221  : 				GetClientRect(&rcWnd); 

  004e2	8d 45 ec	 lea	 eax, DWORD PTR _rcWnd$1[ebp]
  004e5	50		 push	 eax
  004e6	e8 00 00 00 00	 call	 ?GetClientRect@CMSWindow@@QAEXPAUtagRECT@@@Z ; CMSWindow::GetClientRect

; 222  : 				
; 223  : 				UINT uWidth=rcWnd.right-rcWnd.left; 
; 224  : 				UINT uHeight=rcWnd.bottom-rcWnd.left; 

  004eb	8b 45 f8	 mov	 eax, DWORD PTR _rcWnd$1[ebp+12]

; 225  : 				m_grpDevice.ResizeBackBuffer(uWidth, uHeight);				

  004ee	8d 8e 54 d8 01
	00		 lea	 ecx, DWORD PTR [esi+120916]
  004f4	2b 45 ec	 sub	 eax, DWORD PTR _rcWnd$1[ebp]
  004f7	50		 push	 eax
  004f8	8b 45 f4	 mov	 eax, DWORD PTR _rcWnd$1[ebp+8]
  004fb	2b 45 ec	 sub	 eax, DWORD PTR _rcWnd$1[ebp]
  004fe	50		 push	 eax
  004ff	e8 00 00 00 00	 call	 ?ResizeBackBuffer@CGraphicDevice@@QAE_NII@Z ; CGraphicDevice::ResizeBackBuffer
$LN89@WindowProc:
  00504	8b 45 10	 mov	 eax, DWORD PTR _wParam$[ebp]
$LN78@WindowProc:

; 272  : 
; 273  : 		case WM_DESTROY:
; 274  : 			return 0;
; 275  : 		default:
; 276  : 			//Tracenf("%x msg %x", timeGetTime(), uiMsg);
; 277  : 			break;
; 278  : 	}	
; 279  : 
; 280  : 	return CMSApplication::WindowProcedure(hWnd, uiMsg, wParam, lParam);

  00507	ff 75 14	 push	 DWORD PTR _lParam$[ebp]
  0050a	8b ce		 mov	 ecx, esi
  0050c	50		 push	 eax
  0050d	57		 push	 edi
  0050e	53		 push	 ebx
  0050f	e8 00 00 00 00	 call	 ?WindowProcedure@CMSApplication@@MAEJPAUHWND__@@IIJ@Z ; CMSApplication::WindowProcedure

; 281  : }

  00514	8b 4d fc	 mov	 ecx, DWORD PTR __$ArrayPad$[ebp]
  00517	5f		 pop	 edi
  00518	5e		 pop	 esi
  00519	33 cd		 xor	 ecx, ebp
  0051b	5b		 pop	 ebx
  0051c	e8 00 00 00 00	 call	 @__security_check_cookie@4
  00521	8b e5		 mov	 esp, ebp
  00523	5d		 pop	 ebp
  00524	c2 10 00	 ret	 16			; 00000010H
  00527	90		 npad	 1
$LN91@WindowProc:
  00528	00 00 00 00	 DD	 $LN7@WindowProc
  0052c	00 00 00 00	 DD	 $LN45@WindowProc
  00530	00 00 00 00	 DD	 $LN38@WindowProc
  00534	00 00 00 00	 DD	 $LN39@WindowProc
  00538	00 00 00 00	 DD	 $LN89@WindowProc
  0053c	00 00 00 00	 DD	 $LN12@WindowProc
  00540	00 00 00 00	 DD	 $LN89@WindowProc
$LN76@WindowProc:
  00544	00		 DB	 0
  00545	06		 DB	 6
  00546	06		 DB	 6
  00547	06		 DB	 6
  00548	06		 DB	 6
  00549	06		 DB	 6
  0054a	06		 DB	 6
  0054b	06		 DB	 6
  0054c	06		 DB	 6
  0054d	06		 DB	 6
  0054e	06		 DB	 6
  0054f	06		 DB	 6
  00550	06		 DB	 6
  00551	06		 DB	 6
  00552	06		 DB	 6
  00553	06		 DB	 6
  00554	06		 DB	 6
  00555	06		 DB	 6
  00556	06		 DB	 6
  00557	06		 DB	 6
  00558	06		 DB	 6
  00559	06		 DB	 6
  0055a	06		 DB	 6
  0055b	06		 DB	 6
  0055c	06		 DB	 6
  0055d	06		 DB	 6
  0055e	06		 DB	 6
  0055f	06		 DB	 6
  00560	06		 DB	 6
  00561	06		 DB	 6
  00562	06		 DB	 6
  00563	06		 DB	 6
  00564	06		 DB	 6
  00565	06		 DB	 6
  00566	06		 DB	 6
  00567	06		 DB	 6
  00568	06		 DB	 6
  00569	06		 DB	 6
  0056a	06		 DB	 6
  0056b	06		 DB	 6
  0056c	06		 DB	 6
  0056d	06		 DB	 6
  0056e	06		 DB	 6
  0056f	06		 DB	 6
  00570	06		 DB	 6
  00571	06		 DB	 6
  00572	06		 DB	 6
  00573	06		 DB	 6
  00574	06		 DB	 6
  00575	01		 DB	 1
  00576	06		 DB	 6
  00577	06		 DB	 6
  00578	06		 DB	 6
  00579	06		 DB	 6
  0057a	06		 DB	 6
  0057b	06		 DB	 6
  0057c	06		 DB	 6
  0057d	06		 DB	 6
  0057e	06		 DB	 6
  0057f	06		 DB	 6
  00580	06		 DB	 6
  00581	06		 DB	 6
  00582	06		 DB	 6
  00583	06		 DB	 6
  00584	06		 DB	 6
  00585	06		 DB	 6
  00586	06		 DB	 6
  00587	06		 DB	 6
  00588	06		 DB	 6
  00589	06		 DB	 6
  0058a	06		 DB	 6
  0058b	06		 DB	 6
  0058c	06		 DB	 6
  0058d	06		 DB	 6
  0058e	06		 DB	 6
  0058f	06		 DB	 6
  00590	06		 DB	 6
  00591	06		 DB	 6
  00592	06		 DB	 6
  00593	06		 DB	 6
  00594	06		 DB	 6
  00595	06		 DB	 6
  00596	06		 DB	 6
  00597	06		 DB	 6
  00598	06		 DB	 6
  00599	06		 DB	 6
  0059a	06		 DB	 6
  0059b	06		 DB	 6
  0059c	06		 DB	 6
  0059d	06		 DB	 6
  0059e	06		 DB	 6
  0059f	06		 DB	 6
  005a0	06		 DB	 6
  005a1	06		 DB	 6
  005a2	06		 DB	 6
  005a3	06		 DB	 6
  005a4	06		 DB	 6
  005a5	06		 DB	 6
  005a6	06		 DB	 6
  005a7	06		 DB	 6
  005a8	06		 DB	 6
  005a9	06		 DB	 6
  005aa	06		 DB	 6
  005ab	06		 DB	 6
  005ac	06		 DB	 6
  005ad	06		 DB	 6
  005ae	06		 DB	 6
  005af	06		 DB	 6
  005b0	06		 DB	 6
  005b1	06		 DB	 6
  005b2	06		 DB	 6
  005b3	06		 DB	 6
  005b4	06		 DB	 6
  005b5	06		 DB	 6
  005b6	06		 DB	 6
  005b7	06		 DB	 6
  005b8	06		 DB	 6
  005b9	06		 DB	 6
  005ba	06		 DB	 6
  005bb	06		 DB	 6
  005bc	06		 DB	 6
  005bd	06		 DB	 6
  005be	06		 DB	 6
  005bf	06		 DB	 6
  005c0	06		 DB	 6
  005c1	06		 DB	 6
  005c2	06		 DB	 6
  005c3	06		 DB	 6
  005c4	06		 DB	 6
  005c5	06		 DB	 6
  005c6	06		 DB	 6
  005c7	06		 DB	 6
  005c8	06		 DB	 6
  005c9	06		 DB	 6
  005ca	06		 DB	 6
  005cb	06		 DB	 6
  005cc	06		 DB	 6
  005cd	06		 DB	 6
  005ce	06		 DB	 6
  005cf	06		 DB	 6
  005d0	06		 DB	 6
  005d1	06		 DB	 6
  005d2	06		 DB	 6
  005d3	06		 DB	 6
  005d4	06		 DB	 6
  005d5	06		 DB	 6
  005d6	06		 DB	 6
  005d7	06		 DB	 6
  005d8	06		 DB	 6
  005d9	06		 DB	 6
  005da	06		 DB	 6
  005db	06		 DB	 6
  005dc	06		 DB	 6
  005dd	06		 DB	 6
  005de	06		 DB	 6
  005df	06		 DB	 6
  005e0	06		 DB	 6
  005e1	06		 DB	 6
  005e2	06		 DB	 6
  005e3	06		 DB	 6
  005e4	06		 DB	 6
  005e5	06		 DB	 6
  005e6	06		 DB	 6
  005e7	06		 DB	 6
  005e8	06		 DB	 6
  005e9	06		 DB	 6
  005ea	06		 DB	 6
  005eb	06		 DB	 6
  005ec	06		 DB	 6
  005ed	06		 DB	 6
  005ee	06		 DB	 6
  005ef	06		 DB	 6
  005f0	06		 DB	 6
  005f1	06		 DB	 6
  005f2	06		 DB	 6
  005f3	06		 DB	 6
  005f4	06		 DB	 6
  005f5	06		 DB	 6
  005f6	06		 DB	 6
  005f7	06		 DB	 6
  005f8	06		 DB	 6
  005f9	06		 DB	 6
  005fa	06		 DB	 6
  005fb	06		 DB	 6
  005fc	06		 DB	 6
  005fd	06		 DB	 6
  005fe	06		 DB	 6
  005ff	06		 DB	 6
  00600	06		 DB	 6
  00601	06		 DB	 6
  00602	06		 DB	 6
  00603	06		 DB	 6
  00604	06		 DB	 6
  00605	06		 DB	 6
  00606	06		 DB	 6
  00607	06		 DB	 6
  00608	06		 DB	 6
  00609	06		 DB	 6
  0060a	06		 DB	 6
  0060b	06		 DB	 6
  0060c	06		 DB	 6
  0060d	06		 DB	 6
  0060e	06		 DB	 6
  0060f	06		 DB	 6
  00610	06		 DB	 6
  00611	06		 DB	 6
  00612	06		 DB	 6
  00613	06		 DB	 6
  00614	06		 DB	 6
  00615	06		 DB	 6
  00616	06		 DB	 6
  00617	06		 DB	 6
  00618	06		 DB	 6
  00619	06		 DB	 6
  0061a	06		 DB	 6
  0061b	06		 DB	 6
  0061c	06		 DB	 6
  0061d	06		 DB	 6
  0061e	06		 DB	 6
  0061f	06		 DB	 6
  00620	06		 DB	 6
  00621	06		 DB	 6
  00622	06		 DB	 6
  00623	06		 DB	 6
  00624	02		 DB	 2
  00625	06		 DB	 6
  00626	03		 DB	 3
  00627	06		 DB	 6
  00628	04		 DB	 4
  00629	05		 DB	 5
  0062a	8b ff		 npad	 2
$LN92@WindowProc:
  0062c	00 00 00 00	 DD	 $LN34@WindowProc
  00630	00 00 00 00	 DD	 $LN29@WindowProc
  00634	00 00 00 00	 DD	 $LN28@WindowProc
  00638	00 00 00 00	 DD	 $LN32@WindowProc
  0063c	00 00 00 00	 DD	 $LN31@WindowProc
  00640	00 00 00 00	 DD	 $LN26@WindowProc
  00644	00 00 00 00	 DD	 $LN17@WindowProc
  00648	00 00 00 00	 DD	 $LN40@WindowProc
  0064c	00 00 00 00	 DD	 $LN41@WindowProc
  00650	00 00 00 00	 DD	 $LN89@WindowProc
$LN77@WindowProc:
  00654	00		 DB	 0
  00655	09		 DB	 9
  00656	01		 DB	 1
  00657	02		 DB	 2
  00658	09		 DB	 9
  00659	03		 DB	 3
  0065a	04		 DB	 4
  0065b	09		 DB	 9
  0065c	05		 DB	 5
  0065d	09		 DB	 9
  0065e	09		 DB	 9
  0065f	09		 DB	 9
  00660	09		 DB	 9
  00661	09		 DB	 9
  00662	09		 DB	 9
  00663	09		 DB	 9
  00664	09		 DB	 9
  00665	09		 DB	 9
  00666	09		 DB	 9
  00667	09		 DB	 9
  00668	09		 DB	 9
  00669	09		 DB	 9
  0066a	09		 DB	 9
  0066b	09		 DB	 9
  0066c	09		 DB	 9
  0066d	09		 DB	 9
  0066e	09		 DB	 9
  0066f	09		 DB	 9
  00670	09		 DB	 9
  00671	09		 DB	 9
  00672	09		 DB	 9
  00673	09		 DB	 9
  00674	09		 DB	 9
  00675	09		 DB	 9
  00676	09		 DB	 9
  00677	09		 DB	 9
  00678	09		 DB	 9
  00679	09		 DB	 9
  0067a	09		 DB	 9
  0067b	09		 DB	 9
  0067c	09		 DB	 9
  0067d	09		 DB	 9
  0067e	09		 DB	 9
  0067f	09		 DB	 9
  00680	09		 DB	 9
  00681	09		 DB	 9
  00682	09		 DB	 9
  00683	09		 DB	 9
  00684	06		 DB	 6
  00685	09		 DB	 9
  00686	09		 DB	 9
  00687	09		 DB	 9
  00688	09		 DB	 9
  00689	09		 DB	 9
  0068a	09		 DB	 9
  0068b	09		 DB	 9
  0068c	09		 DB	 9
  0068d	09		 DB	 9
  0068e	09		 DB	 9
  0068f	09		 DB	 9
  00690	09		 DB	 9
  00691	09		 DB	 9
  00692	09		 DB	 9
  00693	09		 DB	 9
  00694	09		 DB	 9
  00695	09		 DB	 9
  00696	09		 DB	 9
  00697	09		 DB	 9
  00698	09		 DB	 9
  00699	09		 DB	 9
  0069a	09		 DB	 9
  0069b	09		 DB	 9
  0069c	09		 DB	 9
  0069d	09		 DB	 9
  0069e	09		 DB	 9
  0069f	09		 DB	 9
  006a0	09		 DB	 9
  006a1	09		 DB	 9
  006a2	09		 DB	 9
  006a3	09		 DB	 9
  006a4	09		 DB	 9
  006a5	09		 DB	 9
  006a6	09		 DB	 9
  006a7	09		 DB	 9
  006a8	09		 DB	 9
  006a9	09		 DB	 9
  006aa	09		 DB	 9
  006ab	09		 DB	 9
  006ac	09		 DB	 9
  006ad	09		 DB	 9
  006ae	09		 DB	 9
  006af	09		 DB	 9
  006b0	09		 DB	 9
  006b1	09		 DB	 9
  006b2	09		 DB	 9
  006b3	09		 DB	 9
  006b4	09		 DB	 9
  006b5	09		 DB	 9
  006b6	09		 DB	 9
  006b7	09		 DB	 9
  006b8	09		 DB	 9
  006b9	09		 DB	 9
  006ba	09		 DB	 9
  006bb	09		 DB	 9
  006bc	09		 DB	 9
  006bd	09		 DB	 9
  006be	09		 DB	 9
  006bf	09		 DB	 9
  006c0	09		 DB	 9
  006c1	09		 DB	 9
  006c2	09		 DB	 9
  006c3	09		 DB	 9
  006c4	09		 DB	 9
  006c5	09		 DB	 9
  006c6	09		 DB	 9
  006c7	09		 DB	 9
  006c8	09		 DB	 9
  006c9	09		 DB	 9
  006ca	09		 DB	 9
  006cb	09		 DB	 9
  006cc	09		 DB	 9
  006cd	09		 DB	 9
  006ce	09		 DB	 9
  006cf	09		 DB	 9
  006d0	09		 DB	 9
  006d1	09		 DB	 9
  006d2	09		 DB	 9
  006d3	07		 DB	 7
  006d4	08		 DB	 8
?WindowProcedure@CPythonApplication@@MAEJPAUHWND__@@IIJ@Z ENDP ; CPythonApplication::WindowProcedure
_TEXT	ENDS
; Function compile flags: /Ogtp
; File d:\metin2\metin2\client_source_clean\client_source_clean\source\userinterface\pythonapplicationprocedure.cpp
;	COMDAT ?__SetFullScreenWindow@CPythonApplication@@IAEXPAUHWND__@@KKK@Z
_TEXT	SEGMENT
_DevMode$ = -160					; size = 156
__$ArrayPad$ = -4					; size = 4
_hWnd$dead$ = 8						; size = 4
_dwWidth$ = 12						; size = 4
_dwHeight$ = 16						; size = 4
_dwBPP$ = 20						; size = 4
?__SetFullScreenWindow@CPythonApplication@@IAEXPAUHWND__@@KKK@Z PROC ; CPythonApplication::__SetFullScreenWindow, COMDAT
; _this$dead$ = ecx

; 24   : {

  00000	55		 push	 ebp
  00001	8b ec		 mov	 ebp, esp
  00003	81 ec a0 00 00
	00		 sub	 esp, 160		; 000000a0H
  00009	a1 00 00 00 00	 mov	 eax, DWORD PTR ___security_cookie
  0000e	33 c5		 xor	 eax, ebp
  00010	89 45 fc	 mov	 DWORD PTR __$ArrayPad$[ebp], eax

; 25   : 	DEVMODE DevMode;
; 26   : 	DevMode.dmSize = sizeof(DevMode);

  00013	b8 9c 00 00 00	 mov	 eax, 156		; 0000009cH

; 27   : 	DevMode.dmBitsPerPel = dwBPP;
; 28   : 	DevMode.dmPelsWidth = dwWidth;
; 29   : 	DevMode.dmPelsHeight = dwHeight;
; 30   : 	DevMode.dmFields = DM_BITSPERPEL | DM_PELSWIDTH | DM_PELSHEIGHT;

  00018	c7 45 88 00 00
	1c 00		 mov	 DWORD PTR _DevMode$[ebp+40], 1835008 ; 001c0000H
  0001f	66 89 45 84	 mov	 WORD PTR _DevMode$[ebp+36], ax
  00023	8b 45 14	 mov	 eax, DWORD PTR _dwBPP$[ebp]
  00026	89 45 c8	 mov	 DWORD PTR _DevMode$[ebp+104], eax
  00029	8b 45 0c	 mov	 eax, DWORD PTR _dwWidth$[ebp]
  0002c	89 45 cc	 mov	 DWORD PTR _DevMode$[ebp+108], eax
  0002f	8b 45 10	 mov	 eax, DWORD PTR _dwHeight$[ebp]
  00032	89 45 d0	 mov	 DWORD PTR _DevMode$[ebp+112], eax

; 31   : 
; 32   : 	LONG Error = ChangeDisplaySettings(&DevMode, CDS_FULLSCREEN);

  00035	8d 85 60 ff ff
	ff		 lea	 eax, DWORD PTR _DevMode$[ebp]
  0003b	6a 04		 push	 4
  0003d	50		 push	 eax
  0003e	ff 15 00 00 00
	00		 call	 DWORD PTR __imp__ChangeDisplaySettingsA@8

; 33   : 	if(Error == DISP_CHANGE_RESTART)

  00044	83 f8 01	 cmp	 eax, 1
  00047	75 0a		 jne	 SHORT $LN1@SetFullScr

; 34   : 	{
; 35   : 		ChangeDisplaySettings(0,0);

  00049	6a 00		 push	 0
  0004b	6a 00		 push	 0
  0004d	ff 15 00 00 00
	00		 call	 DWORD PTR __imp__ChangeDisplaySettingsA@8
$LN1@SetFullScr:

; 36   : 	}
; 37   : }

  00053	8b 4d fc	 mov	 ecx, DWORD PTR __$ArrayPad$[ebp]
  00056	33 cd		 xor	 ecx, ebp
  00058	e8 00 00 00 00	 call	 @__security_check_cookie@4
  0005d	8b e5		 mov	 esp, ebp
  0005f	5d		 pop	 ebp
  00060	c2 10 00	 ret	 16			; 00000010H
?__SetFullScreenWindow@CPythonApplication@@IAEXPAUHWND__@@KKK@Z ENDP ; CPythonApplication::__SetFullScreenWindow
_TEXT	ENDS
; Function compile flags: /Ogtp
; File d:\metin2\metin2\client_source_clean\client_source_clean\source\userinterface\pythonapplicationprocedure.cpp
;	COMDAT ?SafeSetCapture@CPythonApplication@@QAEXXZ
_TEXT	SEGMENT
?SafeSetCapture@CPythonApplication@@QAEXXZ PROC		; CPythonApplication::SafeSetCapture, COMDAT
; _this$ = ecx

; 12   : 	SetCapture(m_hWnd);

  00000	ff 71 04	 push	 DWORD PTR [ecx+4]
  00003	ff 15 00 00 00
	00		 call	 DWORD PTR __imp__SetCapture@4

; 13   : 	gs_nMouseCaptureRef++;

  00009	ff 05 00 00 00
	00		 inc	 DWORD PTR _gs_nMouseCaptureRef

; 14   : }

  0000f	c3		 ret	 0
?SafeSetCapture@CPythonApplication@@QAEXXZ ENDP		; CPythonApplication::SafeSetCapture
_TEXT	ENDS
; Function compile flags: /Ogtp
; File d:\metin2\metin2\client_source_clean\client_source_clean\source\userinterface\pythonapplicationprocedure.cpp
;	COMDAT ?SafeReleaseCapture@CPythonApplication@@QAEXXZ
_TEXT	SEGMENT
?SafeReleaseCapture@CPythonApplication@@QAEXXZ PROC	; CPythonApplication::SafeReleaseCapture, COMDAT
; _this$dead$ = ecx

; 18   : 	gs_nMouseCaptureRef--;

  00000	ff 0d 00 00 00
	00		 dec	 DWORD PTR _gs_nMouseCaptureRef

; 19   : 	if (gs_nMouseCaptureRef==0)

  00006	75 06		 jne	 SHORT $LN1@SafeReleas

; 20   : 		ReleaseCapture();

  00008	ff 25 00 00 00
	00		 jmp	 DWORD PTR __imp__ReleaseCapture@0
$LN1@SafeReleas:

; 21   : }

  0000e	c3		 ret	 0
?SafeReleaseCapture@CPythonApplication@@QAEXXZ ENDP	; CPythonApplication::SafeReleaseCapture
_TEXT	ENDS
; Function compile flags: /Ogtp
; File d:\metin2\metin2\client_source_clean\client_source_clean\source\userinterface\pythonapplicationprocedure.cpp
;	COMDAT ?__MinimizeFullScreenWindow@CPythonApplication@@IAEXPAUHWND__@@KK@Z
_TEXT	SEGMENT
_hWnd$ = 8						; size = 4
_dwWidth$ = 12						; size = 4
_dwHeight$ = 16						; size = 4
?__MinimizeFullScreenWindow@CPythonApplication@@IAEXPAUHWND__@@KK@Z PROC ; CPythonApplication::__MinimizeFullScreenWindow, COMDAT
; _this$dead$ = ecx

; 40   : {

  00000	55		 push	 ebp
  00001	8b ec		 mov	 ebp, esp

; 41   : 	ChangeDisplaySettings(0, 0);

  00003	6a 00		 push	 0
  00005	6a 00		 push	 0
  00007	ff 15 00 00 00
	00		 call	 DWORD PTR __imp__ChangeDisplaySettingsA@8

; 42   : 	SetWindowPos(hWnd, 0, 0, 0,
; 43   : 				 dwWidth,
; 44   : 				 dwHeight,
; 45   : 				 SWP_SHOWWINDOW);

  0000d	6a 40		 push	 64			; 00000040H
  0000f	ff 75 10	 push	 DWORD PTR _dwHeight$[ebp]
  00012	ff 75 0c	 push	 DWORD PTR _dwWidth$[ebp]
  00015	6a 00		 push	 0
  00017	6a 00		 push	 0
  00019	6a 00		 push	 0
  0001b	ff 75 08	 push	 DWORD PTR _hWnd$[ebp]
  0001e	ff 15 00 00 00
	00		 call	 DWORD PTR __imp__SetWindowPos@28

; 46   : 	ShowWindow(hWnd, SW_MINIMIZE);

  00024	6a 06		 push	 6
  00026	ff 75 08	 push	 DWORD PTR _hWnd$[ebp]
  00029	ff 15 00 00 00
	00		 call	 DWORD PTR __imp__ShowWindow@8

; 47   : }

  0002f	5d		 pop	 ebp
  00030	c2 0c 00	 ret	 12			; 0000000cH
?__MinimizeFullScreenWindow@CPythonApplication@@IAEXPAUHWND__@@KK@Z ENDP ; CPythonApplication::__MinimizeFullScreenWindow
_TEXT	ENDS
END
