; Listing generated by Microsoft (R) Optimizing Compiler Version 18.00.40629.0 

	TITLE	D:\Metin2\Metin2\client_source_clean\client_source_clean\source\UserInterface\PythonCharacterManagerModule.cpp
	.686P
	.XMM
	include listing.inc
	.model	flat

INCLUDELIB OLDNAMES

PUBLIC	??_C@_0N@DAOJGGNH@pos?$DN?$CI?$CFd?0?5?$CFd?$CJ?$AA@ ; `string'
PUBLIC	??_C@_0DD@OOILPMAD@VID?5?$CFd?5?$CIisRegistered?$DN?$CFd?0?5isAlive@ ; `string'
PUBLIC	??_C@_0BL@MNEPJNPF@RaceData?5has?5not?5selected?$CB?$AA@ ; `string'
PUBLIC	??_C@_0CA@PANOAEAA@Failed?5to?5SetMotionRandomWeight?$AA@ ; `string'
PUBLIC	??_C@_0BP@GOFKKANP@Failed?5to?5load?5race?5data?5?3?5?$CFs?6?$AA@ ; `string'
PUBLIC	??_C@_0BC@BKLPPNOE@SetEmpireNameMode?$AA@	; `string'
PUBLIC	??_C@_0L@HLMOHPB@GetVIDInfo?$AA@		; `string'
PUBLIC	??_C@_0N@GBMNDJED@GetPickedVID?$AA@		; `string'
PUBLIC	??_C@_0O@MHKAJHDG@SetShapeModel?$AA@		; `string'
PUBLIC	??_C@_0BA@HPLHAKEG@AppendShapeSkin?$AA@		; `string'
PUBLIC	??_C@_0M@LPKBIHHH@SetPathName?$AA@		; `string'
PUBLIC	??_C@_0N@GHFJHKGH@LoadRaceData?$AA@		; `string'
PUBLIC	??_C@_0BC@DAGLOOBN@LoadLocalRaceData?$AA@	; `string'
PUBLIC	??_C@_0L@PAJHIMBB@CreateRace?$AA@		; `string'
PUBLIC	??_C@_0L@NJAJBJJE@SelectRace?$AA@		; `string'
PUBLIC	??_C@_0BK@DPJBIBKK@RegisterAttachingBoneName?$AA@ ; `string'
PUBLIC	??_C@_0BD@JDOLIM@RegisterMotionMode?$AA@	; `string'
PUBLIC	??_C@_0BG@OCGHAGOD@SetMotionRandomWeight?$AA@	; `string'
PUBLIC	??_C@_0BF@PLDGGJNA@RegisterNormalAttack?$AA@	; `string'
PUBLIC	??_C@_0BD@DNKMMCHM@ReserveComboAttack?$AA@	; `string'
PUBLIC	??_C@_0BE@OMDLDMGO@RegisterComboAttack?$AA@	; `string'
PUBLIC	??_C@_0BG@COOOACPC@ReserveComboAttackNew?$AA@	; `string'
PUBLIC	??_C@_0BH@NFBILPOJ@RegisterComboAttackNew?$AA@	; `string'
PUBLIC	??_C@_0BD@JFBGJILK@RegisterMotionData?$AA@	; `string'
PUBLIC	??_C@_0BB@HNIEHNII@RegisterRaceName?$AA@	; `string'
PUBLIC	??_C@_0BE@HJOOIAPM@RegisterRaceSrcName?$AA@	; `string'
PUBLIC	??_C@_0BI@FCNOCDC@RegisterCacheMotionData?$AA@	; `string'
PUBLIC	??_C@_09FHCBCPJO@SetAffect?$AA@			; `string'
PUBLIC	??_C@_0M@CGAMKJOI@SetEmoticon?$AA@		; `string'
PUBLIC	??_C@_0BD@POCMNAMG@IsPossibleEmoticon?$AA@	; `string'
PUBLIC	??_C@_0P@HDADHLLI@RegisterEffect?$AA@		; `string'
PUBLIC	??_C@_0BE@EGCDGLCF@RegisterCacheEffect?$AA@	; `string'
PUBLIC	??_C@_0BE@LLPKKHNJ@RegisterPointEffect?$AA@	; `string'
PUBLIC	??_C@_0BA@NPGECIIB@ShowPointEffect?$AA@		; `string'
PUBLIC	??_C@_0BE@FHPGPJOE@ToggleDirectionLine?$AA@	; `string'
PUBLIC	??_C@_0P@BIEBGJOI@SetMovingSpeed?$AA@		; `string'
PUBLIC	??_C@_0L@BNCPBKEF@SetDustGap?$AA@		; `string'
PUBLIC	??_C@_0BA@JCKJBNGJ@SetHorseDustGap?$AA@		; `string'
PUBLIC	??_C@_0BC@MEILBMBD@RegisterTitleName?$AA@	; `string'
PUBLIC	??_C@_0BC@GAIKKIED@RegisterNameColor?$AA@	; `string'
PUBLIC	??_C@_0BD@CPPGJOLK@RegisterTitleColor?$AA@	; `string'
PUBLIC	??_C@_06CGKFKBGO@chrmgr?$AA@			; `string'
PUBLIC	??_C@_0O@FOILFLOP@NAMECOLOR_MOB?$AA@		; `string'
PUBLIC	??_C@_0O@ECFPCBAN@NAMECOLOR_NPC?$AA@		; `string'
PUBLIC	??_C@_0N@HFDLLOOL@NAMECOLOR_PC?$AA@		; `string'
PUBLIC	??_C@_0BF@PFPMAJFA@NAMECOLOR_EMPIRE_MOB?$AA@	; `string'
PUBLIC	??_C@_0BF@OJCIHDLC@NAMECOLOR_EMPIRE_NPC?$AA@	; `string'
PUBLIC	??_C@_0BE@NDFEFIME@NAMECOLOR_EMPIRE_PC?$AA@	; `string'
PUBLIC	??_C@_0P@KKNBBHPK@NAMECOLOR_FUNC?$AA@		; `string'
PUBLIC	??_C@_0N@LNOCDEOD@NAMECOLOR_PK?$AA@		; `string'
PUBLIC	??_C@_0O@JHPLDMIB@NAMECOLOR_PVP?$AA@		; `string'
PUBLIC	??_C@_0BA@HFPCKBBO@NAMECOLOR_PARTY?$AA@		; `string'
PUBLIC	??_C@_0P@FMPJHCIG@NAMECOLOR_WARP?$AA@		; `string'
PUBLIC	??_C@_0BD@KCIPKGLN@NAMECOLOR_WAYPOINT?$AA@	; `string'
PUBLIC	??_C@_0BA@OIOEHMPC@NAMECOLOR_EXTRA?$AA@		; `string'
PUBLIC	??_C@_0BH@CICELGM@EFFECT_SPAWN_DISAPPEAR?$AA@	; `string'
PUBLIC	??_C@_0BE@IMMEKAGC@EFFECT_SPAWN_APPEAR?$AA@	; `string'
PUBLIC	??_C@_0M@HJGLKAFL@EFFECT_DUST?$AA@		; `string'
PUBLIC	??_C@_0BC@IMCHDDJP@EFFECT_HORSE_DUST?$AA@	; `string'
PUBLIC	??_C@_0M@KHLHAKMF@EFFECT_STUN?$AA@		; `string'
PUBLIC	??_C@_0L@MLLFBJIP@EFFECT_HIT?$AA@		; `string'
PUBLIC	??_C@_0BE@OHNAJENN@EFFECT_FLAME_ATTACK?$AA@	; `string'
PUBLIC	??_C@_0BB@GKHDFHPF@EFFECT_FLAME_HIT?$AA@	; `string'
PUBLIC	??_C@_0BE@MMPNMHBO@EFFECT_FLAME_ATTACH?$AA@	; `string'
PUBLIC	??_C@_0BH@LIICDLOG@EFFECT_ELECTRIC_ATTACK?$AA@	; `string'
PUBLIC	??_C@_0BE@DDJNHBFG@EFFECT_ELECTRIC_HIT?$AA@	; `string'
PUBLIC	??_C@_0BH@JDKPGICF@EFFECT_ELECTRIC_ATTACH?$AA@	; `string'
PUBLIC	??_C@_0O@IICIGFKH@EFFECT_SELECT?$AA@		; `string'
PUBLIC	??_C@_0O@KHEKIEOF@EFFECT_TARGET?$AA@		; `string'
PUBLIC	??_C@_0BA@DGHICDHC@EFFECT_CRITICAL?$AA@		; `string'
PUBLIC	??_C@_0BF@CKINGCNE@EFFECT_DAMAGE_TARGET?$AA@	; `string'
PUBLIC	??_C@_0BJ@EHADMOLO@EFFECT_DAMAGE_NOT_TARGET?$AA@ ; `string'
PUBLIC	??_C@_0BJ@LBPHCJON@EFFECT_DAMAGE_SELFDAMAGE?$AA@ ; `string'
PUBLIC	??_C@_0BK@DDHKDNJN@EFFECT_DAMAGE_SELFDAMAGE2?$AA@ ; `string'
PUBLIC	??_C@_0BF@JBDJDOOB@EFFECT_DAMAGE_POISON?$AA@	; `string'
PUBLIC	??_C@_0BD@HAKEDKPM@EFFECT_DAMAGE_MISS?$AA@	; `string'
PUBLIC	??_C@_0BJ@OOAALGB@EFFECT_DAMAGE_TARGETMISS?$AA@	; `string'
PUBLIC	??_C@_0BH@LJEMOOEK@EFFECT_DAMAGE_CRITICAL?$AA@	; `string'
PUBLIC	??_C@_0P@KMPGDLGB@EFFECT_LEVELUP?$AA@		; `string'
PUBLIC	??_C@_0P@KGMCLBIE@EFFECT_SKILLUP?$AA@		; `string'
PUBLIC	??_C@_0BA@FDCHOHC@EFFECT_HPUP_RED?$AA@		; `string'
PUBLIC	??_C@_0BB@OMECPCHO@EFFECT_SPUP_BLUE?$AA@	; `string'
PUBLIC	??_C@_0BF@KGBLOADC@EFFECT_SPEEDUP_GREEN?$AA@	; `string'
PUBLIC	??_C@_0BD@NFLNKENB@EFFECT_DXUP_PURPLE?$AA@	; `string'
PUBLIC	??_C@_0BB@MJKAFPM@EFFECT_PENETRATE?$AA@		; `string'
PUBLIC	??_C@_0N@FHECDOCO@EFFECT_BLOCK?$AA@		; `string'
PUBLIC	??_C@_0N@IIDAKFLA@EFFECT_DODGE?$AA@		; `string'
PUBLIC	??_C@_0BD@KGHDJJHH@EFFECT_FIRECRACKER?$AA@	; `string'
PUBLIC	??_C@_0BA@LEFHDKNA@EFFECT_SPIN_TOP?$AA@		; `string'
PUBLIC	??_C@_0O@FKAHCBBH@EFFECT_WEAPON?$AA@		; `string'
PUBLIC	??_C@_0O@LEENICEP@EFFECT_AFFECT?$AA@		; `string'
PUBLIC	??_C@_0BA@LLIBADMN@EFFECT_EMOTICON?$AA@		; `string'
PUBLIC	??_C@_0O@MBIOGBFC@EFFECT_EMPIRE?$AA@		; `string'
PUBLIC	??_C@_0P@JLGAELEM@EFFECT_REFINED?$AA@		; `string'
PUBLIC	??_C@_0P@OAEAICFL@EFFECT_SUCCESS?$AA@		; `string'
PUBLIC	??_C@_0M@EPHKINAM@EFFECT_FAIL?$AA@		; `string'
PUBLIC	??_C@_0BC@EDPMLGPA@EFFECT_FR_SUCCESS?$AA@	; `string'
PUBLIC	??_C@_0CB@FJAJJPKE@EFFECT_LEVELUP_ON_14_FOR_GERMANY@ ; `string'
PUBLIC	??_C@_0CE@DPEKOHBD@EFFECT_LEVELUP_UNDER_15_FOR_GERM@ ; `string'
PUBLIC	??_C@_0BH@KDDKMBMB@EFFECT_PERCENT_DAMAGE1?$AA@	; `string'
PUBLIC	??_C@_0BH@IIBHJCAC@EFFECT_PERCENT_DAMAGE2?$AA@	; `string'
PUBLIC	??_C@_0BH@JBAMKDED@EFFECT_PERCENT_DAMAGE3?$AA@	; `string'
PUBLIC	??_C@_0BB@LPHIBMMP@EFFECT_AUTO_HPUP?$AA@	; `string'
PUBLIC	??_C@_0BB@KIEILKFM@EFFECT_AUTO_SPUP?$AA@	; `string'
PUBLIC	??_C@_0BK@JCIOPIOG@EFFECT_RAMADAN_RING_EQUIP?$AA@ ; `string'
PUBLIC	??_C@_0BN@NGBKKLJA@EFFECT_HALLOWEEN_CANDY_EQUIP?$AA@ ; `string'
PUBLIC	??_C@_0BM@DAACAMNP@EFFECT_HAPPINESS_RING_EQUIP?$AA@ ; `string'
PUBLIC	??_C@_0BK@MMIJIEDM@EFFECT_LOVE_PENDANT_EQUIP?$AA@ ; `string'
PUBLIC	?ms_singleton@?$CSingleton@VCRaceManager@@@@0PAVCRaceManager@@A ; CSingleton<CRaceManager>::ms_singleton
EXTRN	?AppendShapeSkin@CRaceData@@QAEXIIPBD0@Z:PROC	; CRaceData::AppendShapeSkin
EXTRN	?ShowDirectionLine@CActorInstance@@SAX_N@Z:PROC	; CActorInstance::ShowDirectionLine
EXTRN	?RegisterRaceName@CRaceManager@@QAEXKPBD@Z:PROC	; CRaceManager::RegisterRaceName
EXTRN	?SetShapeModel@CRaceData@@QAEXIPBD@Z:PROC	; CRaceData::SetShapeModel
EXTRN	?RegisterRaceSrcName@CRaceManager@@QAEXPBD0@Z:PROC ; CRaceManager::RegisterRaceSrcName
EXTRN	?LoadStaticCache@CResourceManager@@QAEXPBD@Z:PROC ; CResourceManager::LoadStaticCache
EXTRN	?MIN@@YAHHH@Z:PROC				; MIN
EXTRN	?RegisterMotionData@CRaceData@@QAEPAVCGraphicThing@@GGPBDE@Z:PROC ; CRaceData::RegisterMotionData
EXTRN	?GetFullPathFileName@CRaceManager@@QAEPBDPBD@Z:PROC ; CRaceManager::GetFullPathFileName
EXTRN	?LoadRaceData@CRaceData@@QAEHPBD@Z:PROC		; CRaceData::LoadRaceData
EXTRN	?ReserveComboAttack@CRaceData@@QAEXGGK@Z:PROC	; CRaceData::ReserveComboAttack
EXTRN	?RegisterComboAttack@CRaceData@@QAEXGGKG@Z:PROC	; CRaceData::RegisterComboAttack
EXTRN	?SetMotionRandomWeight@CRaceData@@QAE_NGGGE@Z:PROC ; CRaceData::SetMotionRandomWeight
EXTRN	?RegisterNormalAttack@CRaceData@@QAEXGG@Z:PROC	; CRaceData::RegisterNormalAttack
EXTRN	?RegisterAttachingBoneName@CRaceData@@QAEXKPBD@Z:PROC ; CRaceData::RegisterAttachingBoneName
EXTRN	?RegisterMotionMode@CRaceData@@QAEXG@Z:PROC	; CRaceData::RegisterMotionMode
EXTRN	?SelectRace@CRaceManager@@QAEXK@Z:PROC		; CRaceManager::SelectRace
EXTRN	?GetSelectedRaceDataPointer@CRaceManager@@QAEPAVCRaceData@@XZ:PROC ; CRaceManager::GetSelectedRaceDataPointer
EXTRN	?SetPathName@CRaceManager@@QAEXPBD@Z:PROC	; CRaceManager::SetPathName
EXTRN	?CreateRace@CRaceManager@@QAEXK@Z:PROC		; CRaceManager::CreateRace
;	COMDAT ?ms_singleton@?$CSingleton@VCRaceManager@@@@0PAVCRaceManager@@A
_BSS	SEGMENT
?ms_singleton@?$CSingleton@VCRaceManager@@@@0PAVCRaceManager@@A DD 01H DUP (?) ; CSingleton<CRaceManager>::ms_singleton
_BSS	ENDS
;	COMDAT ?s_isVisible@?1??chrmgrToggleDirectionLine@@YAPAU_object@@PAU2@0@Z@4_NA
_DATA	SEGMENT
?s_isVisible@?1??chrmgrToggleDirectionLine@@YAPAU_object@@PAU2@0@Z@4_NA DB 01H ; `chrmgrToggleDirectionLine'::`2'::s_isVisible
_DATA	ENDS
;	COMDAT ?s_methods@?1??initchrmgr@@YAXXZ@4PAUPyMethodDef@@A
_DATA	SEGMENT
?s_methods@?1??initchrmgr@@YAXXZ@4PAUPyMethodDef@@A DD FLAT:??_C@_0BC@BKLPPNOE@SetEmpireNameMode?$AA@ ; `initchrmgr'::`2'::s_methods
	DD	FLAT:?chrmgrSetEmpireNameMode@@YAPAU_object@@PAU1@0@Z
	DD	01H
	ORG $+4
	DD	FLAT:??_C@_0L@HLMOHPB@GetVIDInfo?$AA@
	DD	FLAT:?chrmgrGetVIDInfo@@YAPAU_object@@PAU1@0@Z
	DD	01H
	ORG $+4
	DD	FLAT:??_C@_0N@GBMNDJED@GetPickedVID?$AA@
	DD	FLAT:?chrmgrGetPickedVID@@YAPAU_object@@PAU1@0@Z
	DD	01H
	ORG $+4
	DD	FLAT:??_C@_0O@MHKAJHDG@SetShapeModel?$AA@
	DD	FLAT:?chrmgrSetShapeModel@@YAPAU_object@@PAU1@0@Z
	DD	01H
	ORG $+4
	DD	FLAT:??_C@_0BA@HPLHAKEG@AppendShapeSkin?$AA@
	DD	FLAT:?chrmgrAppendShapeSkin@@YAPAU_object@@PAU1@0@Z
	DD	01H
	ORG $+4
	DD	FLAT:??_C@_0M@LPKBIHHH@SetPathName?$AA@
	DD	FLAT:?chrmgrSetPathName@@YAPAU_object@@PAU1@0@Z
	DD	01H
	ORG $+4
	DD	FLAT:??_C@_0N@GHFJHKGH@LoadRaceData?$AA@
	DD	FLAT:?chrmgrLoadRaceData@@YAPAU_object@@PAU1@0@Z
	DD	01H
	ORG $+4
	DD	FLAT:??_C@_0BC@DAGLOOBN@LoadLocalRaceData?$AA@
	DD	FLAT:?chrmgrLoadLocalRaceData@@YAPAU_object@@PAU1@0@Z
	DD	01H
	ORG $+4
	DD	FLAT:??_C@_0L@PAJHIMBB@CreateRace?$AA@
	DD	FLAT:?chrmgrCreateRace@@YAPAU_object@@PAU1@0@Z
	DD	01H
	ORG $+4
	DD	FLAT:??_C@_0L@NJAJBJJE@SelectRace?$AA@
	DD	FLAT:?chrmgrSelectRace@@YAPAU_object@@PAU1@0@Z
	DD	01H
	ORG $+4
	DD	FLAT:??_C@_0BK@DPJBIBKK@RegisterAttachingBoneName?$AA@
	DD	FLAT:?chrmgrRegisterAttachingBoneName@@YAPAU_object@@PAU1@0@Z
	DD	01H
	ORG $+4
	DD	FLAT:??_C@_0BD@JDOLIM@RegisterMotionMode?$AA@
	DD	FLAT:?chrmgrRegisterMotionMode@@YAPAU_object@@PAU1@0@Z
	DD	01H
	ORG $+4
	DD	FLAT:??_C@_0BG@OCGHAGOD@SetMotionRandomWeight?$AA@
	DD	FLAT:?chrmgrSetMotionRandomWeight@@YAPAU_object@@PAU1@0@Z
	DD	01H
	ORG $+4
	DD	FLAT:??_C@_0BF@PLDGGJNA@RegisterNormalAttack?$AA@
	DD	FLAT:?chrmgrRegisterNormalAttack@@YAPAU_object@@PAU1@0@Z
	DD	01H
	ORG $+4
	DD	FLAT:??_C@_0BD@DNKMMCHM@ReserveComboAttack?$AA@
	DD	FLAT:?chrmgrReserveComboAttack@@YAPAU_object@@PAU1@0@Z
	DD	01H
	ORG $+4
	DD	FLAT:??_C@_0BE@OMDLDMGO@RegisterComboAttack?$AA@
	DD	FLAT:?chrmgrRegisterComboAttack@@YAPAU_object@@PAU1@0@Z
	DD	01H
	ORG $+4
	DD	FLAT:??_C@_0BG@COOOACPC@ReserveComboAttackNew?$AA@
	DD	FLAT:?chrmgrReserveComboAttackNew@@YAPAU_object@@PAU1@0@Z
	DD	01H
	ORG $+4
	DD	FLAT:??_C@_0BH@NFBILPOJ@RegisterComboAttackNew?$AA@
	DD	FLAT:?chrmgrRegisterComboAttackNew@@YAPAU_object@@PAU1@0@Z
	DD	01H
	ORG $+4
	DD	FLAT:??_C@_0BD@JFBGJILK@RegisterMotionData?$AA@
	DD	FLAT:?chrmgrRegisterMotionData@@YAPAU_object@@PAU1@0@Z
	DD	01H
	ORG $+4
	DD	FLAT:??_C@_0BB@HNIEHNII@RegisterRaceName?$AA@
	DD	FLAT:?chrmgrRegisterRaceName@@YAPAU_object@@PAU1@0@Z
	DD	01H
	ORG $+4
	DD	FLAT:??_C@_0BE@HJOOIAPM@RegisterRaceSrcName?$AA@
	DD	FLAT:?chrmgrRegisterRaceSrcName@@YAPAU_object@@PAU1@0@Z
	DD	01H
	ORG $+4
	DD	FLAT:??_C@_0BI@FCNOCDC@RegisterCacheMotionData?$AA@
	DD	FLAT:?chrmgrRegisterCacheMotionData@@YAPAU_object@@PAU1@0@Z
	DD	01H
	ORG $+4
	DD	FLAT:??_C@_09FHCBCPJO@SetAffect?$AA@
	DD	FLAT:?chrmgrSetAffect@@YAPAU_object@@PAU1@0@Z
	DD	01H
	ORG $+4
	DD	FLAT:??_C@_0M@CGAMKJOI@SetEmoticon?$AA@
	DD	FLAT:?chrmgrSetEmoticon@@YAPAU_object@@PAU1@0@Z
	DD	01H
	ORG $+4
	DD	FLAT:??_C@_0BD@POCMNAMG@IsPossibleEmoticon?$AA@
	DD	FLAT:?chrmgrIsPossibleEmoticon@@YAPAU_object@@PAU1@0@Z
	DD	01H
	ORG $+4
	DD	FLAT:??_C@_0P@HDADHLLI@RegisterEffect?$AA@
	DD	FLAT:?chrmgrRegisterEffect@@YAPAU_object@@PAU1@0@Z
	DD	01H
	ORG $+4
	DD	FLAT:??_C@_0BE@EGCDGLCF@RegisterCacheEffect?$AA@
	DD	FLAT:?chrmgrRegisterCacheEffect@@YAPAU_object@@PAU1@0@Z
	DD	01H
	ORG $+4
	DD	FLAT:??_C@_0BE@LLPKKHNJ@RegisterPointEffect?$AA@
	DD	FLAT:?chrmgrRegisterPointEffect@@YAPAU_object@@PAU1@0@Z
	DD	01H
	ORG $+4
	DD	FLAT:??_C@_0BA@NPGECIIB@ShowPointEffect?$AA@
	DD	FLAT:?chrmgrShowPointEffect@@YAPAU_object@@PAU1@0@Z
	DD	01H
	ORG $+4
	DD	FLAT:??_C@_0BE@FHPGPJOE@ToggleDirectionLine?$AA@
	DD	FLAT:?chrmgrToggleDirectionLine@@YAPAU_object@@PAU1@0@Z
	DD	01H
	ORG $+4
	DD	FLAT:??_C@_0P@BIEBGJOI@SetMovingSpeed?$AA@
	DD	FLAT:?chrmgrSetMovingSpeed@@YAPAU_object@@PAU1@0@Z
	DD	01H
	ORG $+4
	DD	FLAT:??_C@_0L@BNCPBKEF@SetDustGap?$AA@
	DD	FLAT:?chrmgrSetDustGap@@YAPAU_object@@PAU1@0@Z
	DD	01H
	ORG $+4
	DD	FLAT:??_C@_0BA@JCKJBNGJ@SetHorseDustGap?$AA@
	DD	FLAT:?chrmgrSetHorseDustGap@@YAPAU_object@@PAU1@0@Z
	DD	01H
	ORG $+4
	DD	FLAT:??_C@_0BC@MEILBMBD@RegisterTitleName?$AA@
	DD	FLAT:?chrmgrRegisterTitleName@@YAPAU_object@@PAU1@0@Z
	DD	01H
	ORG $+4
	DD	FLAT:??_C@_0BC@GAIKKIED@RegisterNameColor?$AA@
	DD	FLAT:?chrmgrRegisterNameColor@@YAPAU_object@@PAU1@0@Z
	DD	01H
	ORG $+4
	DD	FLAT:??_C@_0BD@CPPGJOLK@RegisterTitleColor?$AA@
	DD	FLAT:?chrmgrRegisterTitleColor@@YAPAU_object@@PAU1@0@Z
	DD	01H
	ORG $+4
	DD	00H
	DD	00H
	DD	00H
	ORG $+4
_DATA	ENDS
;	COMDAT ??_C@_0BK@MMIJIEDM@EFFECT_LOVE_PENDANT_EQUIP?$AA@
CONST	SEGMENT
??_C@_0BK@MMIJIEDM@EFFECT_LOVE_PENDANT_EQUIP?$AA@ DB 'EFFECT_LOVE_PENDANT'
	DB	'_EQUIP', 00H				; `string'
CONST	ENDS
;	COMDAT ??_C@_0BM@DAACAMNP@EFFECT_HAPPINESS_RING_EQUIP?$AA@
CONST	SEGMENT
??_C@_0BM@DAACAMNP@EFFECT_HAPPINESS_RING_EQUIP?$AA@ DB 'EFFECT_HAPPINESS_'
	DB	'RING_EQUIP', 00H				; `string'
CONST	ENDS
;	COMDAT ??_C@_0BN@NGBKKLJA@EFFECT_HALLOWEEN_CANDY_EQUIP?$AA@
CONST	SEGMENT
??_C@_0BN@NGBKKLJA@EFFECT_HALLOWEEN_CANDY_EQUIP?$AA@ DB 'EFFECT_HALLOWEEN'
	DB	'_CANDY_EQUIP', 00H				; `string'
CONST	ENDS
;	COMDAT ??_C@_0BK@JCIOPIOG@EFFECT_RAMADAN_RING_EQUIP?$AA@
CONST	SEGMENT
??_C@_0BK@JCIOPIOG@EFFECT_RAMADAN_RING_EQUIP?$AA@ DB 'EFFECT_RAMADAN_RING'
	DB	'_EQUIP', 00H				; `string'
CONST	ENDS
;	COMDAT ??_C@_0BB@KIEILKFM@EFFECT_AUTO_SPUP?$AA@
CONST	SEGMENT
??_C@_0BB@KIEILKFM@EFFECT_AUTO_SPUP?$AA@ DB 'EFFECT_AUTO_SPUP', 00H ; `string'
CONST	ENDS
;	COMDAT ??_C@_0BB@LPHIBMMP@EFFECT_AUTO_HPUP?$AA@
CONST	SEGMENT
??_C@_0BB@LPHIBMMP@EFFECT_AUTO_HPUP?$AA@ DB 'EFFECT_AUTO_HPUP', 00H ; `string'
CONST	ENDS
;	COMDAT ??_C@_0BH@JBAMKDED@EFFECT_PERCENT_DAMAGE3?$AA@
CONST	SEGMENT
??_C@_0BH@JBAMKDED@EFFECT_PERCENT_DAMAGE3?$AA@ DB 'EFFECT_PERCENT_DAMAGE3'
	DB	00H						; `string'
CONST	ENDS
;	COMDAT ??_C@_0BH@IIBHJCAC@EFFECT_PERCENT_DAMAGE2?$AA@
CONST	SEGMENT
??_C@_0BH@IIBHJCAC@EFFECT_PERCENT_DAMAGE2?$AA@ DB 'EFFECT_PERCENT_DAMAGE2'
	DB	00H						; `string'
CONST	ENDS
;	COMDAT ??_C@_0BH@KDDKMBMB@EFFECT_PERCENT_DAMAGE1?$AA@
CONST	SEGMENT
??_C@_0BH@KDDKMBMB@EFFECT_PERCENT_DAMAGE1?$AA@ DB 'EFFECT_PERCENT_DAMAGE1'
	DB	00H						; `string'
CONST	ENDS
;	COMDAT ??_C@_0CE@DPEKOHBD@EFFECT_LEVELUP_UNDER_15_FOR_GERM@
CONST	SEGMENT
??_C@_0CE@DPEKOHBD@EFFECT_LEVELUP_UNDER_15_FOR_GERM@ DB 'EFFECT_LEVELUP_U'
	DB	'NDER_15_FOR_GERMANY', 00H			; `string'
CONST	ENDS
;	COMDAT ??_C@_0CB@FJAJJPKE@EFFECT_LEVELUP_ON_14_FOR_GERMANY@
CONST	SEGMENT
??_C@_0CB@FJAJJPKE@EFFECT_LEVELUP_ON_14_FOR_GERMANY@ DB 'EFFECT_LEVELUP_O'
	DB	'N_14_FOR_GERMANY', 00H			; `string'
CONST	ENDS
;	COMDAT ??_C@_0BC@EDPMLGPA@EFFECT_FR_SUCCESS?$AA@
CONST	SEGMENT
??_C@_0BC@EDPMLGPA@EFFECT_FR_SUCCESS?$AA@ DB 'EFFECT_FR_SUCCESS', 00H ; `string'
CONST	ENDS
;	COMDAT ??_C@_0M@EPHKINAM@EFFECT_FAIL?$AA@
CONST	SEGMENT
??_C@_0M@EPHKINAM@EFFECT_FAIL?$AA@ DB 'EFFECT_FAIL', 00H ; `string'
CONST	ENDS
;	COMDAT ??_C@_0P@OAEAICFL@EFFECT_SUCCESS?$AA@
CONST	SEGMENT
??_C@_0P@OAEAICFL@EFFECT_SUCCESS?$AA@ DB 'EFFECT_SUCCESS', 00H ; `string'
CONST	ENDS
;	COMDAT ??_C@_0P@JLGAELEM@EFFECT_REFINED?$AA@
CONST	SEGMENT
??_C@_0P@JLGAELEM@EFFECT_REFINED?$AA@ DB 'EFFECT_REFINED', 00H ; `string'
CONST	ENDS
;	COMDAT ??_C@_0O@MBIOGBFC@EFFECT_EMPIRE?$AA@
CONST	SEGMENT
??_C@_0O@MBIOGBFC@EFFECT_EMPIRE?$AA@ DB 'EFFECT_EMPIRE', 00H ; `string'
CONST	ENDS
;	COMDAT ??_C@_0BA@LLIBADMN@EFFECT_EMOTICON?$AA@
CONST	SEGMENT
??_C@_0BA@LLIBADMN@EFFECT_EMOTICON?$AA@ DB 'EFFECT_EMOTICON', 00H ; `string'
CONST	ENDS
;	COMDAT ??_C@_0O@LEENICEP@EFFECT_AFFECT?$AA@
CONST	SEGMENT
??_C@_0O@LEENICEP@EFFECT_AFFECT?$AA@ DB 'EFFECT_AFFECT', 00H ; `string'
CONST	ENDS
;	COMDAT ??_C@_0O@FKAHCBBH@EFFECT_WEAPON?$AA@
CONST	SEGMENT
??_C@_0O@FKAHCBBH@EFFECT_WEAPON?$AA@ DB 'EFFECT_WEAPON', 00H ; `string'
CONST	ENDS
;	COMDAT ??_C@_0BA@LEFHDKNA@EFFECT_SPIN_TOP?$AA@
CONST	SEGMENT
??_C@_0BA@LEFHDKNA@EFFECT_SPIN_TOP?$AA@ DB 'EFFECT_SPIN_TOP', 00H ; `string'
CONST	ENDS
;	COMDAT ??_C@_0BD@KGHDJJHH@EFFECT_FIRECRACKER?$AA@
CONST	SEGMENT
??_C@_0BD@KGHDJJHH@EFFECT_FIRECRACKER?$AA@ DB 'EFFECT_FIRECRACKER', 00H ; `string'
CONST	ENDS
;	COMDAT ??_C@_0N@IIDAKFLA@EFFECT_DODGE?$AA@
CONST	SEGMENT
??_C@_0N@IIDAKFLA@EFFECT_DODGE?$AA@ DB 'EFFECT_DODGE', 00H ; `string'
CONST	ENDS
;	COMDAT ??_C@_0N@FHECDOCO@EFFECT_BLOCK?$AA@
CONST	SEGMENT
??_C@_0N@FHECDOCO@EFFECT_BLOCK?$AA@ DB 'EFFECT_BLOCK', 00H ; `string'
CONST	ENDS
;	COMDAT ??_C@_0BB@MJKAFPM@EFFECT_PENETRATE?$AA@
CONST	SEGMENT
??_C@_0BB@MJKAFPM@EFFECT_PENETRATE?$AA@ DB 'EFFECT_PENETRATE', 00H ; `string'
CONST	ENDS
;	COMDAT ??_C@_0BD@NFLNKENB@EFFECT_DXUP_PURPLE?$AA@
CONST	SEGMENT
??_C@_0BD@NFLNKENB@EFFECT_DXUP_PURPLE?$AA@ DB 'EFFECT_DXUP_PURPLE', 00H ; `string'
CONST	ENDS
;	COMDAT ??_C@_0BF@KGBLOADC@EFFECT_SPEEDUP_GREEN?$AA@
CONST	SEGMENT
??_C@_0BF@KGBLOADC@EFFECT_SPEEDUP_GREEN?$AA@ DB 'EFFECT_SPEEDUP_GREEN', 00H ; `string'
CONST	ENDS
;	COMDAT ??_C@_0BB@OMECPCHO@EFFECT_SPUP_BLUE?$AA@
CONST	SEGMENT
??_C@_0BB@OMECPCHO@EFFECT_SPUP_BLUE?$AA@ DB 'EFFECT_SPUP_BLUE', 00H ; `string'
CONST	ENDS
;	COMDAT ??_C@_0BA@FDCHOHC@EFFECT_HPUP_RED?$AA@
CONST	SEGMENT
??_C@_0BA@FDCHOHC@EFFECT_HPUP_RED?$AA@ DB 'EFFECT_HPUP_RED', 00H ; `string'
CONST	ENDS
;	COMDAT ??_C@_0P@KGMCLBIE@EFFECT_SKILLUP?$AA@
CONST	SEGMENT
??_C@_0P@KGMCLBIE@EFFECT_SKILLUP?$AA@ DB 'EFFECT_SKILLUP', 00H ; `string'
CONST	ENDS
;	COMDAT ??_C@_0P@KMPGDLGB@EFFECT_LEVELUP?$AA@
CONST	SEGMENT
??_C@_0P@KMPGDLGB@EFFECT_LEVELUP?$AA@ DB 'EFFECT_LEVELUP', 00H ; `string'
CONST	ENDS
;	COMDAT ??_C@_0BH@LJEMOOEK@EFFECT_DAMAGE_CRITICAL?$AA@
CONST	SEGMENT
??_C@_0BH@LJEMOOEK@EFFECT_DAMAGE_CRITICAL?$AA@ DB 'EFFECT_DAMAGE_CRITICAL'
	DB	00H						; `string'
CONST	ENDS
;	COMDAT ??_C@_0BJ@OOAALGB@EFFECT_DAMAGE_TARGETMISS?$AA@
CONST	SEGMENT
??_C@_0BJ@OOAALGB@EFFECT_DAMAGE_TARGETMISS?$AA@ DB 'EFFECT_DAMAGE_TARGETM'
	DB	'ISS', 00H					; `string'
CONST	ENDS
;	COMDAT ??_C@_0BD@HAKEDKPM@EFFECT_DAMAGE_MISS?$AA@
CONST	SEGMENT
??_C@_0BD@HAKEDKPM@EFFECT_DAMAGE_MISS?$AA@ DB 'EFFECT_DAMAGE_MISS', 00H ; `string'
CONST	ENDS
;	COMDAT ??_C@_0BF@JBDJDOOB@EFFECT_DAMAGE_POISON?$AA@
CONST	SEGMENT
??_C@_0BF@JBDJDOOB@EFFECT_DAMAGE_POISON?$AA@ DB 'EFFECT_DAMAGE_POISON', 00H ; `string'
CONST	ENDS
;	COMDAT ??_C@_0BK@DDHKDNJN@EFFECT_DAMAGE_SELFDAMAGE2?$AA@
CONST	SEGMENT
??_C@_0BK@DDHKDNJN@EFFECT_DAMAGE_SELFDAMAGE2?$AA@ DB 'EFFECT_DAMAGE_SELFD'
	DB	'AMAGE2', 00H				; `string'
CONST	ENDS
;	COMDAT ??_C@_0BJ@LBPHCJON@EFFECT_DAMAGE_SELFDAMAGE?$AA@
CONST	SEGMENT
??_C@_0BJ@LBPHCJON@EFFECT_DAMAGE_SELFDAMAGE?$AA@ DB 'EFFECT_DAMAGE_SELFDA'
	DB	'MAGE', 00H					; `string'
CONST	ENDS
;	COMDAT ??_C@_0BJ@EHADMOLO@EFFECT_DAMAGE_NOT_TARGET?$AA@
CONST	SEGMENT
??_C@_0BJ@EHADMOLO@EFFECT_DAMAGE_NOT_TARGET?$AA@ DB 'EFFECT_DAMAGE_NOT_TA'
	DB	'RGET', 00H					; `string'
CONST	ENDS
;	COMDAT ??_C@_0BF@CKINGCNE@EFFECT_DAMAGE_TARGET?$AA@
CONST	SEGMENT
??_C@_0BF@CKINGCNE@EFFECT_DAMAGE_TARGET?$AA@ DB 'EFFECT_DAMAGE_TARGET', 00H ; `string'
CONST	ENDS
;	COMDAT ??_C@_0BA@DGHICDHC@EFFECT_CRITICAL?$AA@
CONST	SEGMENT
??_C@_0BA@DGHICDHC@EFFECT_CRITICAL?$AA@ DB 'EFFECT_CRITICAL', 00H ; `string'
CONST	ENDS
;	COMDAT ??_C@_0O@KHEKIEOF@EFFECT_TARGET?$AA@
CONST	SEGMENT
??_C@_0O@KHEKIEOF@EFFECT_TARGET?$AA@ DB 'EFFECT_TARGET', 00H ; `string'
CONST	ENDS
;	COMDAT ??_C@_0O@IICIGFKH@EFFECT_SELECT?$AA@
CONST	SEGMENT
??_C@_0O@IICIGFKH@EFFECT_SELECT?$AA@ DB 'EFFECT_SELECT', 00H ; `string'
CONST	ENDS
;	COMDAT ??_C@_0BH@JDKPGICF@EFFECT_ELECTRIC_ATTACH?$AA@
CONST	SEGMENT
??_C@_0BH@JDKPGICF@EFFECT_ELECTRIC_ATTACH?$AA@ DB 'EFFECT_ELECTRIC_ATTACH'
	DB	00H						; `string'
CONST	ENDS
;	COMDAT ??_C@_0BE@DDJNHBFG@EFFECT_ELECTRIC_HIT?$AA@
CONST	SEGMENT
??_C@_0BE@DDJNHBFG@EFFECT_ELECTRIC_HIT?$AA@ DB 'EFFECT_ELECTRIC_HIT', 00H ; `string'
CONST	ENDS
;	COMDAT ??_C@_0BH@LIICDLOG@EFFECT_ELECTRIC_ATTACK?$AA@
CONST	SEGMENT
??_C@_0BH@LIICDLOG@EFFECT_ELECTRIC_ATTACK?$AA@ DB 'EFFECT_ELECTRIC_ATTACK'
	DB	00H						; `string'
CONST	ENDS
;	COMDAT ??_C@_0BE@MMPNMHBO@EFFECT_FLAME_ATTACH?$AA@
CONST	SEGMENT
??_C@_0BE@MMPNMHBO@EFFECT_FLAME_ATTACH?$AA@ DB 'EFFECT_FLAME_ATTACH', 00H ; `string'
CONST	ENDS
;	COMDAT ??_C@_0BB@GKHDFHPF@EFFECT_FLAME_HIT?$AA@
CONST	SEGMENT
??_C@_0BB@GKHDFHPF@EFFECT_FLAME_HIT?$AA@ DB 'EFFECT_FLAME_HIT', 00H ; `string'
CONST	ENDS
;	COMDAT ??_C@_0BE@OHNAJENN@EFFECT_FLAME_ATTACK?$AA@
CONST	SEGMENT
??_C@_0BE@OHNAJENN@EFFECT_FLAME_ATTACK?$AA@ DB 'EFFECT_FLAME_ATTACK', 00H ; `string'
CONST	ENDS
;	COMDAT ??_C@_0L@MLLFBJIP@EFFECT_HIT?$AA@
CONST	SEGMENT
??_C@_0L@MLLFBJIP@EFFECT_HIT?$AA@ DB 'EFFECT_HIT', 00H	; `string'
CONST	ENDS
;	COMDAT ??_C@_0M@KHLHAKMF@EFFECT_STUN?$AA@
CONST	SEGMENT
??_C@_0M@KHLHAKMF@EFFECT_STUN?$AA@ DB 'EFFECT_STUN', 00H ; `string'
CONST	ENDS
;	COMDAT ??_C@_0BC@IMCHDDJP@EFFECT_HORSE_DUST?$AA@
CONST	SEGMENT
??_C@_0BC@IMCHDDJP@EFFECT_HORSE_DUST?$AA@ DB 'EFFECT_HORSE_DUST', 00H ; `string'
CONST	ENDS
;	COMDAT ??_C@_0M@HJGLKAFL@EFFECT_DUST?$AA@
CONST	SEGMENT
??_C@_0M@HJGLKAFL@EFFECT_DUST?$AA@ DB 'EFFECT_DUST', 00H ; `string'
CONST	ENDS
;	COMDAT ??_C@_0BE@IMMEKAGC@EFFECT_SPAWN_APPEAR?$AA@
CONST	SEGMENT
??_C@_0BE@IMMEKAGC@EFFECT_SPAWN_APPEAR?$AA@ DB 'EFFECT_SPAWN_APPEAR', 00H ; `string'
CONST	ENDS
;	COMDAT ??_C@_0BH@CICELGM@EFFECT_SPAWN_DISAPPEAR?$AA@
CONST	SEGMENT
??_C@_0BH@CICELGM@EFFECT_SPAWN_DISAPPEAR?$AA@ DB 'EFFECT_SPAWN_DISAPPEAR', 00H ; `string'
CONST	ENDS
;	COMDAT ??_C@_0BA@OIOEHMPC@NAMECOLOR_EXTRA?$AA@
CONST	SEGMENT
??_C@_0BA@OIOEHMPC@NAMECOLOR_EXTRA?$AA@ DB 'NAMECOLOR_EXTRA', 00H ; `string'
CONST	ENDS
;	COMDAT ??_C@_0BD@KCIPKGLN@NAMECOLOR_WAYPOINT?$AA@
CONST	SEGMENT
??_C@_0BD@KCIPKGLN@NAMECOLOR_WAYPOINT?$AA@ DB 'NAMECOLOR_WAYPOINT', 00H ; `string'
CONST	ENDS
;	COMDAT ??_C@_0P@FMPJHCIG@NAMECOLOR_WARP?$AA@
CONST	SEGMENT
??_C@_0P@FMPJHCIG@NAMECOLOR_WARP?$AA@ DB 'NAMECOLOR_WARP', 00H ; `string'
CONST	ENDS
;	COMDAT ??_C@_0BA@HFPCKBBO@NAMECOLOR_PARTY?$AA@
CONST	SEGMENT
??_C@_0BA@HFPCKBBO@NAMECOLOR_PARTY?$AA@ DB 'NAMECOLOR_PARTY', 00H ; `string'
CONST	ENDS
;	COMDAT ??_C@_0O@JHPLDMIB@NAMECOLOR_PVP?$AA@
CONST	SEGMENT
??_C@_0O@JHPLDMIB@NAMECOLOR_PVP?$AA@ DB 'NAMECOLOR_PVP', 00H ; `string'
CONST	ENDS
;	COMDAT ??_C@_0N@LNOCDEOD@NAMECOLOR_PK?$AA@
CONST	SEGMENT
??_C@_0N@LNOCDEOD@NAMECOLOR_PK?$AA@ DB 'NAMECOLOR_PK', 00H ; `string'
CONST	ENDS
;	COMDAT ??_C@_0P@KKNBBHPK@NAMECOLOR_FUNC?$AA@
CONST	SEGMENT
??_C@_0P@KKNBBHPK@NAMECOLOR_FUNC?$AA@ DB 'NAMECOLOR_FUNC', 00H ; `string'
CONST	ENDS
;	COMDAT ??_C@_0BE@NDFEFIME@NAMECOLOR_EMPIRE_PC?$AA@
CONST	SEGMENT
??_C@_0BE@NDFEFIME@NAMECOLOR_EMPIRE_PC?$AA@ DB 'NAMECOLOR_EMPIRE_PC', 00H ; `string'
CONST	ENDS
;	COMDAT ??_C@_0BF@OJCIHDLC@NAMECOLOR_EMPIRE_NPC?$AA@
CONST	SEGMENT
??_C@_0BF@OJCIHDLC@NAMECOLOR_EMPIRE_NPC?$AA@ DB 'NAMECOLOR_EMPIRE_NPC', 00H ; `string'
CONST	ENDS
;	COMDAT ??_C@_0BF@PFPMAJFA@NAMECOLOR_EMPIRE_MOB?$AA@
CONST	SEGMENT
??_C@_0BF@PFPMAJFA@NAMECOLOR_EMPIRE_MOB?$AA@ DB 'NAMECOLOR_EMPIRE_MOB', 00H ; `string'
CONST	ENDS
;	COMDAT ??_C@_0N@HFDLLOOL@NAMECOLOR_PC?$AA@
CONST	SEGMENT
??_C@_0N@HFDLLOOL@NAMECOLOR_PC?$AA@ DB 'NAMECOLOR_PC', 00H ; `string'
CONST	ENDS
;	COMDAT ??_C@_0O@ECFPCBAN@NAMECOLOR_NPC?$AA@
CONST	SEGMENT
??_C@_0O@ECFPCBAN@NAMECOLOR_NPC?$AA@ DB 'NAMECOLOR_NPC', 00H ; `string'
CONST	ENDS
;	COMDAT ??_C@_0O@FOILFLOP@NAMECOLOR_MOB?$AA@
CONST	SEGMENT
??_C@_0O@FOILFLOP@NAMECOLOR_MOB?$AA@ DB 'NAMECOLOR_MOB', 00H ; `string'
CONST	ENDS
;	COMDAT ??_C@_06CGKFKBGO@chrmgr?$AA@
CONST	SEGMENT
??_C@_06CGKFKBGO@chrmgr?$AA@ DB 'chrmgr', 00H		; `string'
CONST	ENDS
;	COMDAT ??_C@_0BD@CPPGJOLK@RegisterTitleColor?$AA@
CONST	SEGMENT
??_C@_0BD@CPPGJOLK@RegisterTitleColor?$AA@ DB 'RegisterTitleColor', 00H ; `string'
CONST	ENDS
;	COMDAT ??_C@_0BC@GAIKKIED@RegisterNameColor?$AA@
CONST	SEGMENT
??_C@_0BC@GAIKKIED@RegisterNameColor?$AA@ DB 'RegisterNameColor', 00H ; `string'
CONST	ENDS
;	COMDAT ??_C@_0BC@MEILBMBD@RegisterTitleName?$AA@
CONST	SEGMENT
??_C@_0BC@MEILBMBD@RegisterTitleName?$AA@ DB 'RegisterTitleName', 00H ; `string'
CONST	ENDS
;	COMDAT ??_C@_0BA@JCKJBNGJ@SetHorseDustGap?$AA@
CONST	SEGMENT
??_C@_0BA@JCKJBNGJ@SetHorseDustGap?$AA@ DB 'SetHorseDustGap', 00H ; `string'
CONST	ENDS
;	COMDAT ??_C@_0L@BNCPBKEF@SetDustGap?$AA@
CONST	SEGMENT
??_C@_0L@BNCPBKEF@SetDustGap?$AA@ DB 'SetDustGap', 00H	; `string'
CONST	ENDS
;	COMDAT ??_C@_0P@BIEBGJOI@SetMovingSpeed?$AA@
CONST	SEGMENT
??_C@_0P@BIEBGJOI@SetMovingSpeed?$AA@ DB 'SetMovingSpeed', 00H ; `string'
CONST	ENDS
;	COMDAT ??_C@_0BE@FHPGPJOE@ToggleDirectionLine?$AA@
CONST	SEGMENT
??_C@_0BE@FHPGPJOE@ToggleDirectionLine?$AA@ DB 'ToggleDirectionLine', 00H ; `string'
CONST	ENDS
;	COMDAT ??_C@_0BA@NPGECIIB@ShowPointEffect?$AA@
CONST	SEGMENT
??_C@_0BA@NPGECIIB@ShowPointEffect?$AA@ DB 'ShowPointEffect', 00H ; `string'
CONST	ENDS
;	COMDAT ??_C@_0BE@LLPKKHNJ@RegisterPointEffect?$AA@
CONST	SEGMENT
??_C@_0BE@LLPKKHNJ@RegisterPointEffect?$AA@ DB 'RegisterPointEffect', 00H ; `string'
CONST	ENDS
;	COMDAT ??_C@_0BE@EGCDGLCF@RegisterCacheEffect?$AA@
CONST	SEGMENT
??_C@_0BE@EGCDGLCF@RegisterCacheEffect?$AA@ DB 'RegisterCacheEffect', 00H ; `string'
CONST	ENDS
;	COMDAT ??_C@_0P@HDADHLLI@RegisterEffect?$AA@
CONST	SEGMENT
??_C@_0P@HDADHLLI@RegisterEffect?$AA@ DB 'RegisterEffect', 00H ; `string'
CONST	ENDS
;	COMDAT ??_C@_0BD@POCMNAMG@IsPossibleEmoticon?$AA@
CONST	SEGMENT
??_C@_0BD@POCMNAMG@IsPossibleEmoticon?$AA@ DB 'IsPossibleEmoticon', 00H ; `string'
CONST	ENDS
;	COMDAT ??_C@_0M@CGAMKJOI@SetEmoticon?$AA@
CONST	SEGMENT
??_C@_0M@CGAMKJOI@SetEmoticon?$AA@ DB 'SetEmoticon', 00H ; `string'
CONST	ENDS
;	COMDAT ??_C@_09FHCBCPJO@SetAffect?$AA@
CONST	SEGMENT
??_C@_09FHCBCPJO@SetAffect?$AA@ DB 'SetAffect', 00H	; `string'
CONST	ENDS
;	COMDAT ??_C@_0BI@FCNOCDC@RegisterCacheMotionData?$AA@
CONST	SEGMENT
??_C@_0BI@FCNOCDC@RegisterCacheMotionData?$AA@ DB 'RegisterCacheMotionDat'
	DB	'a', 00H					; `string'
CONST	ENDS
;	COMDAT ??_C@_0BE@HJOOIAPM@RegisterRaceSrcName?$AA@
CONST	SEGMENT
??_C@_0BE@HJOOIAPM@RegisterRaceSrcName?$AA@ DB 'RegisterRaceSrcName', 00H ; `string'
CONST	ENDS
;	COMDAT ??_C@_0BB@HNIEHNII@RegisterRaceName?$AA@
CONST	SEGMENT
??_C@_0BB@HNIEHNII@RegisterRaceName?$AA@ DB 'RegisterRaceName', 00H ; `string'
CONST	ENDS
;	COMDAT ??_C@_0BD@JFBGJILK@RegisterMotionData?$AA@
CONST	SEGMENT
??_C@_0BD@JFBGJILK@RegisterMotionData?$AA@ DB 'RegisterMotionData', 00H ; `string'
CONST	ENDS
;	COMDAT ??_C@_0BH@NFBILPOJ@RegisterComboAttackNew?$AA@
CONST	SEGMENT
??_C@_0BH@NFBILPOJ@RegisterComboAttackNew?$AA@ DB 'RegisterComboAttackNew'
	DB	00H						; `string'
CONST	ENDS
;	COMDAT ??_C@_0BG@COOOACPC@ReserveComboAttackNew?$AA@
CONST	SEGMENT
??_C@_0BG@COOOACPC@ReserveComboAttackNew?$AA@ DB 'ReserveComboAttackNew', 00H ; `string'
CONST	ENDS
;	COMDAT ??_C@_0BE@OMDLDMGO@RegisterComboAttack?$AA@
CONST	SEGMENT
??_C@_0BE@OMDLDMGO@RegisterComboAttack?$AA@ DB 'RegisterComboAttack', 00H ; `string'
CONST	ENDS
;	COMDAT ??_C@_0BD@DNKMMCHM@ReserveComboAttack?$AA@
CONST	SEGMENT
??_C@_0BD@DNKMMCHM@ReserveComboAttack?$AA@ DB 'ReserveComboAttack', 00H ; `string'
CONST	ENDS
;	COMDAT ??_C@_0BF@PLDGGJNA@RegisterNormalAttack?$AA@
CONST	SEGMENT
??_C@_0BF@PLDGGJNA@RegisterNormalAttack?$AA@ DB 'RegisterNormalAttack', 00H ; `string'
CONST	ENDS
;	COMDAT ??_C@_0BG@OCGHAGOD@SetMotionRandomWeight?$AA@
CONST	SEGMENT
??_C@_0BG@OCGHAGOD@SetMotionRandomWeight?$AA@ DB 'SetMotionRandomWeight', 00H ; `string'
CONST	ENDS
;	COMDAT ??_C@_0BD@JDOLIM@RegisterMotionMode?$AA@
CONST	SEGMENT
??_C@_0BD@JDOLIM@RegisterMotionMode?$AA@ DB 'RegisterMotionMode', 00H ; `string'
CONST	ENDS
;	COMDAT ??_C@_0BK@DPJBIBKK@RegisterAttachingBoneName?$AA@
CONST	SEGMENT
??_C@_0BK@DPJBIBKK@RegisterAttachingBoneName?$AA@ DB 'RegisterAttachingBo'
	DB	'neName', 00H				; `string'
CONST	ENDS
;	COMDAT ??_C@_0L@NJAJBJJE@SelectRace?$AA@
CONST	SEGMENT
??_C@_0L@NJAJBJJE@SelectRace?$AA@ DB 'SelectRace', 00H	; `string'
CONST	ENDS
;	COMDAT ??_C@_0L@PAJHIMBB@CreateRace?$AA@
CONST	SEGMENT
??_C@_0L@PAJHIMBB@CreateRace?$AA@ DB 'CreateRace', 00H	; `string'
CONST	ENDS
;	COMDAT ??_C@_0BC@DAGLOOBN@LoadLocalRaceData?$AA@
CONST	SEGMENT
??_C@_0BC@DAGLOOBN@LoadLocalRaceData?$AA@ DB 'LoadLocalRaceData', 00H ; `string'
CONST	ENDS
;	COMDAT ??_C@_0N@GHFJHKGH@LoadRaceData?$AA@
CONST	SEGMENT
??_C@_0N@GHFJHKGH@LoadRaceData?$AA@ DB 'LoadRaceData', 00H ; `string'
CONST	ENDS
;	COMDAT ??_C@_0M@LPKBIHHH@SetPathName?$AA@
CONST	SEGMENT
??_C@_0M@LPKBIHHH@SetPathName?$AA@ DB 'SetPathName', 00H ; `string'
CONST	ENDS
;	COMDAT ??_C@_0BA@HPLHAKEG@AppendShapeSkin?$AA@
CONST	SEGMENT
??_C@_0BA@HPLHAKEG@AppendShapeSkin?$AA@ DB 'AppendShapeSkin', 00H ; `string'
CONST	ENDS
;	COMDAT ??_C@_0O@MHKAJHDG@SetShapeModel?$AA@
CONST	SEGMENT
??_C@_0O@MHKAJHDG@SetShapeModel?$AA@ DB 'SetShapeModel', 00H ; `string'
CONST	ENDS
;	COMDAT ??_C@_0N@GBMNDJED@GetPickedVID?$AA@
CONST	SEGMENT
??_C@_0N@GBMNDJED@GetPickedVID?$AA@ DB 'GetPickedVID', 00H ; `string'
CONST	ENDS
;	COMDAT ??_C@_0L@HLMOHPB@GetVIDInfo?$AA@
CONST	SEGMENT
??_C@_0L@HLMOHPB@GetVIDInfo?$AA@ DB 'GetVIDInfo', 00H	; `string'
CONST	ENDS
;	COMDAT ??_C@_0BC@BKLPPNOE@SetEmpireNameMode?$AA@
CONST	SEGMENT
??_C@_0BC@BKLPPNOE@SetEmpireNameMode?$AA@ DB 'SetEmpireNameMode', 00H ; `string'
CONST	ENDS
;	COMDAT ??_C@_0BP@GOFKKANP@Failed?5to?5load?5race?5data?5?3?5?$CFs?6?$AA@
CONST	SEGMENT
??_C@_0BP@GOFKKANP@Failed?5to?5load?5race?5data?5?3?5?$CFs?6?$AA@ DB 'Fai'
	DB	'led to load race data : %s', 0aH, 00H	; `string'
CONST	ENDS
;	COMDAT ??_C@_0CA@PANOAEAA@Failed?5to?5SetMotionRandomWeight?$AA@
CONST	SEGMENT
??_C@_0CA@PANOAEAA@Failed?5to?5SetMotionRandomWeight?$AA@ DB 'Failed to S'
	DB	'etMotionRandomWeight', 00H			; `string'
CONST	ENDS
;	COMDAT ??_C@_0BL@MNEPJNPF@RaceData?5has?5not?5selected?$CB?$AA@
CONST	SEGMENT
??_C@_0BL@MNEPJNPF@RaceData?5has?5not?5selected?$CB?$AA@ DB 'RaceData has'
	DB	' not selected!', 00H			; `string'
CONST	ENDS
;	COMDAT ??_C@_0DD@OOILPMAD@VID?5?$CFd?5?$CIisRegistered?$DN?$CFd?0?5isAlive@
CONST	SEGMENT
??_C@_0DD@OOILPMAD@VID?5?$CFd?5?$CIisRegistered?$DN?$CFd?0?5isAlive@ DB 'V'
	DB	'ID %d (isRegistered=%d, isAlive=%d, isDead=%d) %s', 00H ; `string'
CONST	ENDS
;	COMDAT ??_C@_0N@DAOJGGNH@pos?$DN?$CI?$CFd?0?5?$CFd?$CJ?$AA@
CONST	SEGMENT
??_C@_0N@DAOJGGNH@pos?$DN?$CI?$CFd?0?5?$CFd?$CJ?$AA@ DB 'pos=(%d, %d)', 00H ; `string'
PUBLIC	?GetFileName@CResource@@QBEPBDXZ		; CResource::GetFileName
PUBLIC	?Instance@?$CSingleton@VCRaceManager@@@@SAAAVCRaceManager@@XZ ; CSingleton<CRaceManager>::Instance
PUBLIC	?initchrmgr@@YAXXZ				; initchrmgr
PUBLIC	?chrmgrIsPossibleEmoticon@@YAPAU_object@@PAU1@0@Z ; chrmgrIsPossibleEmoticon
PUBLIC	?chrmgrSetEmoticon@@YAPAU_object@@PAU1@0@Z	; chrmgrSetEmoticon
PUBLIC	?IsPossibleEmoticon@CPythonCharacterManager@@QAE_NK@Z ; CPythonCharacterManager::IsPossibleEmoticon
PUBLIC	?SetEmoticon@CPythonCharacterManager@@QAEXKK@Z	; CPythonCharacterManager::SetEmoticon
PUBLIC	?chrmgrSetAffect@@YAPAU_object@@PAU1@0@Z	; chrmgrSetAffect
PUBLIC	?SCRIPT_SetAffect@CPythonCharacterManager@@QAEXKKH@Z ; CPythonCharacterManager::SCRIPT_SetAffect
PUBLIC	?chrmgrShowPointEffect@@YAPAU_object@@PAU1@0@Z	; chrmgrShowPointEffect
PUBLIC	?chrmgrRegisterPointEffect@@YAPAU_object@@PAU1@0@Z ; chrmgrRegisterPointEffect
PUBLIC	?chrmgrToggleDirectionLine@@YAPAU_object@@PAU1@0@Z ; chrmgrToggleDirectionLine
PUBLIC	?chrmgrSetHorseDustGap@@YAPAU_object@@PAU1@0@Z	; chrmgrSetHorseDustGap
PUBLIC	?chrmgrSetDustGap@@YAPAU_object@@PAU1@0@Z	; chrmgrSetDustGap
PUBLIC	?chrmgrRegisterCacheEffect@@YAPAU_object@@PAU1@0@Z ; chrmgrRegisterCacheEffect
PUBLIC	?chrmgrRegisterEffect@@YAPAU_object@@PAU1@0@Z	; chrmgrRegisterEffect
PUBLIC	?chrmgrSetMovingSpeed@@YAPAU_object@@PAU1@0@Z	; chrmgrSetMovingSpeed
PUBLIC	?chrmgrAppendShapeSkin@@YAPAU_object@@PAU1@0@Z	; chrmgrAppendShapeSkin
PUBLIC	?chrmgrSetShapeModel@@YAPAU_object@@PAU1@0@Z	; chrmgrSetShapeModel
PUBLIC	?chrmgrRegisterRaceName@@YAPAU_object@@PAU1@0@Z	; chrmgrRegisterRaceName
PUBLIC	?chrmgrRegisterRaceSrcName@@YAPAU_object@@PAU1@0@Z ; chrmgrRegisterRaceSrcName
PUBLIC	?chrmgrRegisterMotionData@@YAPAU_object@@PAU1@0@Z ; chrmgrRegisterMotionData
PUBLIC	?chrmgrRegisterCacheMotionData@@YAPAU_object@@PAU1@0@Z ; chrmgrRegisterCacheMotionData
PUBLIC	?chrmgrLoadLocalRaceData@@YAPAU_object@@PAU1@0@Z ; chrmgrLoadLocalRaceData
PUBLIC	?chrmgrLoadRaceData@@YAPAU_object@@PAU1@0@Z	; chrmgrLoadRaceData
PUBLIC	?chrmgrRegisterComboAttackNew@@YAPAU_object@@PAU1@0@Z ; chrmgrRegisterComboAttackNew
PUBLIC	?chrmgrReserveComboAttackNew@@YAPAU_object@@PAU1@0@Z ; chrmgrReserveComboAttackNew
PUBLIC	?chrmgrRegisterComboAttack@@YAPAU_object@@PAU1@0@Z ; chrmgrRegisterComboAttack
PUBLIC	?chrmgrReserveComboAttack@@YAPAU_object@@PAU1@0@Z ; chrmgrReserveComboAttack
PUBLIC	?chrmgrRegisterNormalAttack@@YAPAU_object@@PAU1@0@Z ; chrmgrRegisterNormalAttack
PUBLIC	?chrmgrSetMotionRandomWeight@@YAPAU_object@@PAU1@0@Z ; chrmgrSetMotionRandomWeight
PUBLIC	?chrmgrRegisterMotionMode@@YAPAU_object@@PAU1@0@Z ; chrmgrRegisterMotionMode
PUBLIC	?chrmgrRegisterAttachingBoneName@@YAPAU_object@@PAU1@0@Z ; chrmgrRegisterAttachingBoneName
PUBLIC	?chrmgrSelectRace@@YAPAU_object@@PAU1@0@Z	; chrmgrSelectRace
PUBLIC	?chrmgrCreateRace@@YAPAU_object@@PAU1@0@Z	; chrmgrCreateRace
PUBLIC	?chrmgrSetPathName@@YAPAU_object@@PAU1@0@Z	; chrmgrSetPathName
PUBLIC	?chrmgrGetVIDInfo@@YAPAU_object@@PAU1@0@Z	; chrmgrGetVIDInfo
PUBLIC	?chrmgrGetPickedVID@@YAPAU_object@@PAU1@0@Z	; chrmgrGetPickedVID
PUBLIC	?chrmgrRegisterTitleColor@@YAPAU_object@@PAU1@0@Z ; chrmgrRegisterTitleColor
PUBLIC	?chrmgrRegisterNameColor@@YAPAU_object@@PAU1@0@Z ; chrmgrRegisterNameColor
PUBLIC	?chrmgrRegisterTitleName@@YAPAU_object@@PAU1@0@Z ; chrmgrRegisterTitleName
PUBLIC	?chrmgrSetEmpireNameMode@@YAPAU_object@@PAU1@0@Z ; chrmgrSetEmpireNameMode
	ALIGN	4

_piecewise_construct DB 01H DUP (?)
_BSS	ENDS
; Function compile flags: /Ogtp
; File d:\metin2\metin2\client_source_clean\client_source_clean\source\userinterface\pythoncharactermanagermodule.cpp
;	COMDAT ?chrmgrSetEmpireNameMode@@YAPAU_object@@PAU1@0@Z
_TEXT	SEGMENT
_iEnable$ = -4						; size = 4
_poSelf$ = 8						; size = 4
_poArgs$ = 12						; size = 4
?chrmgrSetEmpireNameMode@@YAPAU_object@@PAU1@0@Z PROC	; chrmgrSetEmpireNameMode, COMDAT

; 12   : {

  00000	55		 push	 ebp
  00001	8b ec		 mov	 ebp, esp
  00003	51		 push	 ecx

; 13   : 	int	iEnable;
; 14   : 	if (!PyTuple_GetInteger(poArgs, 0, &iEnable))

  00004	8d 45 fc	 lea	 eax, DWORD PTR _iEnable$[ebp]
  00007	50		 push	 eax
  00008	6a 00		 push	 0
  0000a	ff 75 0c	 push	 DWORD PTR _poArgs$[ebp]
  0000d	e8 00 00 00 00	 call	 ?PyTuple_GetInteger@@YA_NPAU_object@@HPAH@Z ; PyTuple_GetInteger
  00012	83 c4 0c	 add	 esp, 12			; 0000000cH
  00015	84 c0		 test	 al, al
  00017	75 09		 jne	 SHORT $LN1@chrmgrSetE

; 15   : 		return Py_BadArgument();

  00019	e8 00 00 00 00	 call	 ?Py_BadArgument@@YAPAU_object@@XZ ; Py_BadArgument

; 21   : }

  0001e	8b e5		 mov	 esp, ebp
  00020	5d		 pop	 ebp
  00021	c3		 ret	 0
$LN1@chrmgrSetE:

; 16   : 
; 17   : 	CInstanceBase::SetEmpireNameMode(iEnable ? true : false);

  00022	83 7d fc 00	 cmp	 DWORD PTR _iEnable$[ebp], 0
  00026	0f 95 c1	 setne	 cl
  00029	e8 00 00 00 00	 call	 ?SetEmpireNameMode@CInstanceBase@@SAX_N@Z ; CInstanceBase::SetEmpireNameMode

; 18   : 	CPythonCharacterManager::Instance().RefreshAllPCTextTail();

  0002e	8b 0d 00 00 00
	00		 mov	 ecx, DWORD PTR ?ms_singleton@?$CSingleton@VCPythonCharacterManager@@@@0PAVCPythonCharacterManager@@A ; CSingleton<CPythonCharacterManager>::ms_singleton
  00034	e8 00 00 00 00	 call	 ?RefreshAllPCTextTail@CPythonCharacterManager@@QAEXXZ ; CPythonCharacterManager::RefreshAllPCTextTail

; 19   : 
; 20   : 	return Py_BuildNone();

  00039	e8 00 00 00 00	 call	 ?Py_BuildNone@@YAPAU_object@@XZ ; Py_BuildNone

; 21   : }

  0003e	8b e5		 mov	 esp, ebp
  00040	5d		 pop	 ebp
  00041	c3		 ret	 0
?chrmgrSetEmpireNameMode@@YAPAU_object@@PAU1@0@Z ENDP	; chrmgrSetEmpireNameMode
_TEXT	ENDS
; Function compile flags: /Ogtp
; File d:\metin2\metin2\client_source_clean\client_source_clean\source\userinterface\pythoncharactermanagermodule.cpp
;	COMDAT ?chrmgrRegisterTitleName@@YAPAU_object@@PAU1@0@Z
_TEXT	SEGMENT
_iIndex$ = -8						; size = 4
_szTitleName$ = -4					; size = 4
_poSelf$ = 8						; size = 4
_poArgs$ = 12						; size = 4
?chrmgrRegisterTitleName@@YAPAU_object@@PAU1@0@Z PROC	; chrmgrRegisterTitleName, COMDAT

; 24   : {

  00000	55		 push	 ebp
  00001	8b ec		 mov	 ebp, esp
  00003	83 ec 08	 sub	 esp, 8

; 25   : 	int	iIndex;
; 26   : 	if (!PyTuple_GetInteger(poArgs, 0, &iIndex))

  00006	8d 45 f8	 lea	 eax, DWORD PTR _iIndex$[ebp]
  00009	50		 push	 eax
  0000a	6a 00		 push	 0
  0000c	ff 75 0c	 push	 DWORD PTR _poArgs$[ebp]
  0000f	e8 00 00 00 00	 call	 ?PyTuple_GetInteger@@YA_NPAU_object@@HPAH@Z ; PyTuple_GetInteger
  00014	83 c4 0c	 add	 esp, 12			; 0000000cH
  00017	84 c0		 test	 al, al
  00019	75 09		 jne	 SHORT $LN2@chrmgrRegi
$LN5@chrmgrRegi:

; 27   : 		return Py_BadArgument();

  0001b	e8 00 00 00 00	 call	 ?Py_BadArgument@@YAPAU_object@@XZ ; Py_BadArgument

; 34   : }

  00020	8b e5		 mov	 esp, ebp
  00022	5d		 pop	 ebp
  00023	c3		 ret	 0
$LN2@chrmgrRegi:

; 28   : 	char * szTitleName;
; 29   : 	if (!PyTuple_GetString(poArgs, 1, &szTitleName))

  00024	8d 45 fc	 lea	 eax, DWORD PTR _szTitleName$[ebp]
  00027	50		 push	 eax
  00028	6a 01		 push	 1
  0002a	ff 75 0c	 push	 DWORD PTR _poArgs$[ebp]
  0002d	e8 00 00 00 00	 call	 ?PyTuple_GetString@@YA_NPAU_object@@HPAPAD@Z ; PyTuple_GetString
  00032	83 c4 0c	 add	 esp, 12			; 0000000cH
  00035	84 c0		 test	 al, al
  00037	74 e2		 je	 SHORT $LN5@chrmgrRegi

; 30   : 		return Py_BadArgument();
; 31   : 
; 32   : 	CInstanceBase::RegisterTitleName(iIndex, szTitleName);

  00039	8b 55 fc	 mov	 edx, DWORD PTR _szTitleName$[ebp]
  0003c	8b 4d f8	 mov	 ecx, DWORD PTR _iIndex$[ebp]
  0003f	e8 00 00 00 00	 call	 ?RegisterTitleName@CInstanceBase@@SAXHPBD@Z ; CInstanceBase::RegisterTitleName

; 33   : 	return Py_BuildNone();

  00044	e8 00 00 00 00	 call	 ?Py_BuildNone@@YAPAU_object@@XZ ; Py_BuildNone

; 34   : }

  00049	8b e5		 mov	 esp, ebp
  0004b	5d		 pop	 ebp
  0004c	c3		 ret	 0
?chrmgrRegisterTitleName@@YAPAU_object@@PAU1@0@Z ENDP	; chrmgrRegisterTitleName
_TEXT	ENDS
; Function compile flags: /Ogtp
; File d:\metin2\metin2\client_source_clean\client_source_clean\source\userinterface\pythoncharactermanagermodule.cpp
;	COMDAT ?chrmgrRegisterNameColor@@YAPAU_object@@PAU1@0@Z
_TEXT	SEGMENT
_index$ = -16						; size = 4
_ir$ = -12						; size = 4
_ig$ = -8						; size = 4
_ib$ = -4						; size = 4
_poSelf$ = 8						; size = 4
_poArgs$ = 12						; size = 4
?chrmgrRegisterNameColor@@YAPAU_object@@PAU1@0@Z PROC	; chrmgrRegisterNameColor, COMDAT

; 37   : {	

  00000	55		 push	 ebp
  00001	8b ec		 mov	 ebp, esp
  00003	83 ec 10	 sub	 esp, 16			; 00000010H

; 38   : 	int index;
; 39   : 	if (!PyTuple_GetInteger(poArgs, 0, &index))

  00006	8d 45 f0	 lea	 eax, DWORD PTR _index$[ebp]
  00009	56		 push	 esi
  0000a	8b 75 0c	 mov	 esi, DWORD PTR _poArgs$[ebp]
  0000d	50		 push	 eax
  0000e	6a 00		 push	 0
  00010	56		 push	 esi
  00011	e8 00 00 00 00	 call	 ?PyTuple_GetInteger@@YA_NPAU_object@@HPAH@Z ; PyTuple_GetInteger
  00016	83 c4 0c	 add	 esp, 12			; 0000000cH
  00019	84 c0		 test	 al, al
  0001b	75 0a		 jne	 SHORT $LN4@chrmgrRegi
$LN7@chrmgrRegi:

; 40   : 		return Py_BadArgument();

  0001d	e8 00 00 00 00	 call	 ?Py_BadArgument@@YAPAU_object@@XZ ; Py_BadArgument
  00022	5e		 pop	 esi

; 54   : }

  00023	8b e5		 mov	 esp, ebp
  00025	5d		 pop	 ebp
  00026	c3		 ret	 0
$LN4@chrmgrRegi:

; 41   : 	
; 42   : 	int ir;
; 43   : 	if (!PyTuple_GetInteger(poArgs, 1, &ir))

  00027	8d 45 f4	 lea	 eax, DWORD PTR _ir$[ebp]
  0002a	50		 push	 eax
  0002b	6a 01		 push	 1
  0002d	56		 push	 esi
  0002e	e8 00 00 00 00	 call	 ?PyTuple_GetInteger@@YA_NPAU_object@@HPAH@Z ; PyTuple_GetInteger
  00033	83 c4 0c	 add	 esp, 12			; 0000000cH
  00036	84 c0		 test	 al, al
  00038	74 e3		 je	 SHORT $LN7@chrmgrRegi

; 44   : 		return Py_BadArgument();
; 45   : 	int ig;
; 46   : 	if (!PyTuple_GetInteger(poArgs, 2, &ig))

  0003a	8d 45 f8	 lea	 eax, DWORD PTR _ig$[ebp]
  0003d	50		 push	 eax
  0003e	6a 02		 push	 2
  00040	56		 push	 esi
  00041	e8 00 00 00 00	 call	 ?PyTuple_GetInteger@@YA_NPAU_object@@HPAH@Z ; PyTuple_GetInteger
  00046	83 c4 0c	 add	 esp, 12			; 0000000cH
  00049	84 c0		 test	 al, al
  0004b	74 d0		 je	 SHORT $LN7@chrmgrRegi

; 47   : 		return Py_BadArgument();
; 48   : 	int ib;
; 49   : 	if (!PyTuple_GetInteger(poArgs, 3, &ib))

  0004d	8d 45 fc	 lea	 eax, DWORD PTR _ib$[ebp]
  00050	50		 push	 eax
  00051	6a 03		 push	 3
  00053	56		 push	 esi
  00054	e8 00 00 00 00	 call	 ?PyTuple_GetInteger@@YA_NPAU_object@@HPAH@Z ; PyTuple_GetInteger
  00059	83 c4 0c	 add	 esp, 12			; 0000000cH
  0005c	84 c0		 test	 al, al
  0005e	74 bd		 je	 SHORT $LN7@chrmgrRegi

; 50   : 		return Py_BadArgument();
; 51   : 
; 52   : 	CInstanceBase::RegisterNameColor(index, ir, ig, ib);

  00060	ff 75 fc	 push	 DWORD PTR _ib$[ebp]
  00063	8b 55 f4	 mov	 edx, DWORD PTR _ir$[ebp]
  00066	ff 75 f8	 push	 DWORD PTR _ig$[ebp]
  00069	8b 4d f0	 mov	 ecx, DWORD PTR _index$[ebp]
  0006c	e8 00 00 00 00	 call	 ?RegisterNameColor@CInstanceBase@@SA_NIIII@Z ; CInstanceBase::RegisterNameColor
  00071	83 c4 08	 add	 esp, 8

; 53   : 	return Py_BuildNone();

  00074	e8 00 00 00 00	 call	 ?Py_BuildNone@@YAPAU_object@@XZ ; Py_BuildNone
  00079	5e		 pop	 esi

; 54   : }

  0007a	8b e5		 mov	 esp, ebp
  0007c	5d		 pop	 ebp
  0007d	c3		 ret	 0
?chrmgrRegisterNameColor@@YAPAU_object@@PAU1@0@Z ENDP	; chrmgrRegisterNameColor
_TEXT	ENDS
; Function compile flags: /Ogtp
; File d:\metin2\metin2\client_source_clean\client_source_clean\source\userinterface\pythoncharactermanagermodule.cpp
;	COMDAT ?chrmgrRegisterTitleColor@@YAPAU_object@@PAU1@0@Z
_TEXT	SEGMENT
_iIndex$ = -16						; size = 4
_ir$ = -12						; size = 4
_ig$ = -8						; size = 4
_ib$ = -4						; size = 4
_poSelf$ = 8						; size = 4
_poArgs$ = 12						; size = 4
?chrmgrRegisterTitleColor@@YAPAU_object@@PAU1@0@Z PROC	; chrmgrRegisterTitleColor, COMDAT

; 57   : {

  00000	55		 push	 ebp
  00001	8b ec		 mov	 ebp, esp
  00003	83 ec 10	 sub	 esp, 16			; 00000010H

; 58   : 	int	iIndex;
; 59   : 	if (!PyTuple_GetInteger(poArgs, 0, &iIndex))

  00006	8d 45 f0	 lea	 eax, DWORD PTR _iIndex$[ebp]
  00009	56		 push	 esi
  0000a	8b 75 0c	 mov	 esi, DWORD PTR _poArgs$[ebp]
  0000d	50		 push	 eax
  0000e	6a 00		 push	 0
  00010	56		 push	 esi
  00011	e8 00 00 00 00	 call	 ?PyTuple_GetInteger@@YA_NPAU_object@@HPAH@Z ; PyTuple_GetInteger
  00016	83 c4 0c	 add	 esp, 12			; 0000000cH
  00019	84 c0		 test	 al, al
  0001b	75 0a		 jne	 SHORT $LN4@chrmgrRegi
$LN7@chrmgrRegi:

; 60   : 		return Py_BadArgument();

  0001d	e8 00 00 00 00	 call	 ?Py_BadArgument@@YAPAU_object@@XZ ; Py_BadArgument
  00022	5e		 pop	 esi

; 73   : }

  00023	8b e5		 mov	 esp, ebp
  00025	5d		 pop	 ebp
  00026	c3		 ret	 0
$LN4@chrmgrRegi:

; 61   : 	int ir;
; 62   : 	if (!PyTuple_GetInteger(poArgs, 1, &ir))

  00027	8d 45 f4	 lea	 eax, DWORD PTR _ir$[ebp]
  0002a	50		 push	 eax
  0002b	6a 01		 push	 1
  0002d	56		 push	 esi
  0002e	e8 00 00 00 00	 call	 ?PyTuple_GetInteger@@YA_NPAU_object@@HPAH@Z ; PyTuple_GetInteger
  00033	83 c4 0c	 add	 esp, 12			; 0000000cH
  00036	84 c0		 test	 al, al
  00038	74 e3		 je	 SHORT $LN7@chrmgrRegi

; 63   : 		return Py_BadArgument();
; 64   : 	int ig;
; 65   : 	if (!PyTuple_GetInteger(poArgs, 2, &ig))

  0003a	8d 45 f8	 lea	 eax, DWORD PTR _ig$[ebp]
  0003d	50		 push	 eax
  0003e	6a 02		 push	 2
  00040	56		 push	 esi
  00041	e8 00 00 00 00	 call	 ?PyTuple_GetInteger@@YA_NPAU_object@@HPAH@Z ; PyTuple_GetInteger
  00046	83 c4 0c	 add	 esp, 12			; 0000000cH
  00049	84 c0		 test	 al, al
  0004b	74 d0		 je	 SHORT $LN7@chrmgrRegi

; 66   : 		return Py_BadArgument();
; 67   : 	int ib;
; 68   : 	if (!PyTuple_GetInteger(poArgs, 3, &ib))

  0004d	8d 45 fc	 lea	 eax, DWORD PTR _ib$[ebp]
  00050	50		 push	 eax
  00051	6a 03		 push	 3
  00053	56		 push	 esi
  00054	e8 00 00 00 00	 call	 ?PyTuple_GetInteger@@YA_NPAU_object@@HPAH@Z ; PyTuple_GetInteger
  00059	83 c4 0c	 add	 esp, 12			; 0000000cH
  0005c	84 c0		 test	 al, al
  0005e	74 bd		 je	 SHORT $LN7@chrmgrRegi

; 69   : 		return Py_BadArgument();
; 70   : 
; 71   : 	CInstanceBase::RegisterTitleColor(iIndex, ir, ig, ib);

  00060	ff 75 fc	 push	 DWORD PTR _ib$[ebp]
  00063	8b 55 f4	 mov	 edx, DWORD PTR _ir$[ebp]
  00066	ff 75 f8	 push	 DWORD PTR _ig$[ebp]
  00069	8b 4d f0	 mov	 ecx, DWORD PTR _iIndex$[ebp]
  0006c	e8 00 00 00 00	 call	 ?RegisterTitleColor@CInstanceBase@@SA_NIIII@Z ; CInstanceBase::RegisterTitleColor
  00071	83 c4 08	 add	 esp, 8

; 72   : 	return Py_BuildNone();

  00074	e8 00 00 00 00	 call	 ?Py_BuildNone@@YAPAU_object@@XZ ; Py_BuildNone
  00079	5e		 pop	 esi

; 73   : }

  0007a	8b e5		 mov	 esp, ebp
  0007c	5d		 pop	 ebp
  0007d	c3		 ret	 0
?chrmgrRegisterTitleColor@@YAPAU_object@@PAU1@0@Z ENDP	; chrmgrRegisterTitleColor
_TEXT	ENDS
; Function compile flags: /Ogtp
; File d:\metin2\metin2\client_source_clean\client_source_clean\source\userinterface\pythoncharactermanagermodule.cpp
;	COMDAT ?chrmgrGetPickedVID@@YAPAU_object@@PAU1@0@Z
_TEXT	SEGMENT
_dwPickedActorID$ = -4					; size = 4
_poSelf$ = 8						; size = 4
_poArgs$ = 12						; size = 4
?chrmgrGetPickedVID@@YAPAU_object@@PAU1@0@Z PROC	; chrmgrGetPickedVID, COMDAT

; 76   : {

  00000	55		 push	 ebp
  00001	8b ec		 mov	 ebp, esp
  00003	51		 push	 ecx

; 77   : 	CPythonCharacterManager& rkChrMgr=CPythonCharacterManager::Instance();
; 78   : 
; 79   : 	DWORD dwPickedActorID;
; 80   : 	if (rkChrMgr.OLD_GetPickedInstanceVID(&dwPickedActorID))

  00004	8b 0d 00 00 00
	00		 mov	 ecx, DWORD PTR ?ms_singleton@?$CSingleton@VCPythonCharacterManager@@@@0PAVCPythonCharacterManager@@A ; CSingleton<CPythonCharacterManager>::ms_singleton
  0000a	8d 45 fc	 lea	 eax, DWORD PTR _dwPickedActorID$[ebp]
  0000d	50		 push	 eax
  0000e	e8 00 00 00 00	 call	 ?OLD_GetPickedInstanceVID@CPythonCharacterManager@@QAE_NPAK@Z ; CPythonCharacterManager::OLD_GetPickedInstanceVID
  00013	84 c0		 test	 al, al
  00015	74 15		 je	 SHORT $LN2@chrmgrGetP

; 81   : 		return Py_BuildValue("i", dwPickedActorID);

  00017	ff 75 fc	 push	 DWORD PTR _dwPickedActorID$[ebp]

; 82   : 	else
; 83   : 		return Py_BuildValue("i", -1);

  0001a	68 00 00 00 00	 push	 OFFSET ??_C@_01KBJDNOO@i?$AA@
  0001f	ff 15 00 00 00
	00		 call	 DWORD PTR __imp__Py_BuildValue
  00025	83 c4 08	 add	 esp, 8

; 84   : }

  00028	8b e5		 mov	 esp, ebp
  0002a	5d		 pop	 ebp
  0002b	c3		 ret	 0
$LN2@chrmgrGetP:

; 82   : 	else
; 83   : 		return Py_BuildValue("i", -1);

  0002c	6a ff		 push	 -1
  0002e	68 00 00 00 00	 push	 OFFSET ??_C@_01KBJDNOO@i?$AA@
  00033	ff 15 00 00 00
	00		 call	 DWORD PTR __imp__Py_BuildValue
  00039	83 c4 08	 add	 esp, 8

; 84   : }

  0003c	8b e5		 mov	 esp, ebp
  0003e	5d		 pop	 ebp
  0003f	c3		 ret	 0
?chrmgrGetPickedVID@@YAPAU_object@@PAU1@0@Z ENDP	; chrmgrGetPickedVID
_TEXT	ENDS
; Function compile flags: /Ogtp
; File d:\metin2\metin2\client_source_clean\client_source_clean\source\userinterface\pythoncharactermanagermodule.cpp
;	COMDAT ?chrmgrGetVIDInfo@@YAPAU_object@@PAU1@0@Z
_TEXT	SEGMENT
_kPPosInst$1 = -1308					; size = 12
_yInst$2 = -1296					; size = 4
_xInst$3 = -1292					; size = 4
_nVID$ = -1288						; size = 4
_szInfo$ = -1284					; size = 1024
_szDetail$ = -260					; size = 256
__$ArrayPad$ = -4					; size = 4
_poSelf$ = 8						; size = 4
_poArgs$ = 12						; size = 4
?chrmgrGetVIDInfo@@YAPAU_object@@PAU1@0@Z PROC		; chrmgrGetVIDInfo, COMDAT

; 87   : {

  00000	55		 push	 ebp
  00001	8b ec		 mov	 ebp, esp
  00003	81 ec 1c 05 00
	00		 sub	 esp, 1308		; 0000051cH
  00009	a1 00 00 00 00	 mov	 eax, DWORD PTR ___security_cookie
  0000e	33 c5		 xor	 eax, ebp
  00010	89 45 fc	 mov	 DWORD PTR __$ArrayPad$[ebp], eax
  00013	8b 45 0c	 mov	 eax, DWORD PTR _poArgs$[ebp]

; 88   : 	int	nVID;
; 89   : 	if (!PyTuple_GetInteger(poArgs, 0, &nVID))

  00016	8d 8d f8 fa ff
	ff		 lea	 ecx, DWORD PTR _nVID$[ebp]
  0001c	51		 push	 ecx
  0001d	6a 00		 push	 0
  0001f	50		 push	 eax
  00020	e8 00 00 00 00	 call	 ?PyTuple_GetInteger@@YA_NPAU_object@@HPAH@Z ; PyTuple_GetInteger
  00025	83 c4 0c	 add	 esp, 12			; 0000000cH
  00028	84 c0		 test	 al, al
  0002a	75 13		 jne	 SHORT $LN2@chrmgrGetV

; 90   : 		return Py_BadArgument();

  0002c	e8 00 00 00 00	 call	 ?Py_BadArgument@@YAPAU_object@@XZ ; Py_BadArgument

; 120  : }

  00031	8b 4d fc	 mov	 ecx, DWORD PTR __$ArrayPad$[ebp]
  00034	33 cd		 xor	 ecx, ebp
  00036	e8 00 00 00 00	 call	 @__security_check_cookie@4
  0003b	8b e5		 mov	 esp, ebp
  0003d	5d		 pop	 ebp
  0003e	c3		 ret	 0
$LN2@chrmgrGetV:
  0003f	56		 push	 esi
  00040	57		 push	 edi

; 91   : 
; 92   : 	CPythonCharacterManager& rkChrMgr=CPythonCharacterManager::Instance();

  00041	8b 3d 00 00 00
	00		 mov	 edi, DWORD PTR ?ms_singleton@?$CSingleton@VCPythonCharacterManager@@@@0PAVCPythonCharacterManager@@A ; CSingleton<CPythonCharacterManager>::ms_singleton

; 93   : 
; 94   : 	char szDetail[256]="";

  00047	8d 85 fd fe ff
	ff		 lea	 eax, DWORD PTR _szDetail$[ebp+1]
  0004d	68 ff 00 00 00	 push	 255			; 000000ffH
  00052	6a 00		 push	 0
  00054	50		 push	 eax
  00055	c6 85 fc fe ff
	ff 00		 mov	 BYTE PTR _szDetail$[ebp], 0
  0005c	e8 00 00 00 00	 call	 _memset

; 95   : 	CInstanceBase* pkInstBase=rkChrMgr.GetInstancePtr(nVID);

  00061	8b 47 04	 mov	 eax, DWORD PTR [edi+4]
  00064	8d 4f 04	 lea	 ecx, DWORD PTR [edi+4]
  00067	83 c4 0c	 add	 esp, 12			; 0000000cH
  0006a	ff b5 f8 fa ff
	ff		 push	 DWORD PTR _nVID$[ebp]
  00070	ff 50 08	 call	 DWORD PTR [eax+8]

; 96   : 	if (pkInstBase)

  00073	85 c0		 test	 eax, eax
  00075	74 63		 je	 SHORT $LN1@chrmgrGetV

; 97   : 	{
; 98   : 		TPixelPosition kPPosInst;
; 99   : 		pkInstBase->NEW_GetPixelPosition(&kPPosInst);

  00077	8d 8d e4 fa ff
	ff		 lea	 ecx, DWORD PTR _kPPosInst$1[ebp]
  0007d	51		 push	 ecx
  0007e	8b c8		 mov	 ecx, eax
  00080	e8 00 00 00 00	 call	 ?NEW_GetPixelPosition@CInstanceBase@@QAEXPAUD3DXVECTOR3@@@Z ; CInstanceBase::NEW_GetPixelPosition

; 100  : 
; 101  : 		LONG xInst=kPPosInst.x;

  00085	f3 0f 2c 85 e4
	fa ff ff	 cvttss2si eax, DWORD PTR _kPPosInst$1[ebp]

; 102  : 		LONG yInst=kPPosInst.y;
; 103  : 
; 104  : 		CPythonBackground& rkBG=CPythonBackground::Instance();
; 105  : 		rkBG.LocalPositionToGlobalPosition(xInst, yInst);

  0008d	8b 0d 00 00 00
	00		 mov	 ecx, DWORD PTR ?ms_singleton@?$CSingleton@VCPythonBackground@@@@0PAVCPythonBackground@@A ; CSingleton<CPythonBackground>::ms_singleton
  00093	89 85 f4 fa ff
	ff		 mov	 DWORD PTR _xInst$3[ebp], eax
  00099	f3 0f 2c 85 e8
	fa ff ff	 cvttss2si eax, DWORD PTR _kPPosInst$1[ebp+4]
  000a1	89 85 f0 fa ff
	ff		 mov	 DWORD PTR _yInst$2[ebp], eax
  000a7	8d 85 f0 fa ff
	ff		 lea	 eax, DWORD PTR _yInst$2[ebp]
  000ad	50		 push	 eax
  000ae	8d 85 f4 fa ff
	ff		 lea	 eax, DWORD PTR _xInst$3[ebp]
  000b4	50		 push	 eax
  000b5	e8 00 00 00 00	 call	 ?LocalPositionToGlobalPosition@CPythonBackground@@QAEXAAJ0@Z ; CPythonBackground::LocalPositionToGlobalPosition

; 106  : 		sprintf(szDetail, "pos=(%d, %d)", xInst, yInst);

  000ba	ff b5 f0 fa ff
	ff		 push	 DWORD PTR _yInst$2[ebp]
  000c0	8d 85 fc fe ff
	ff		 lea	 eax, DWORD PTR _szDetail$[ebp]
  000c6	ff b5 f4 fa ff
	ff		 push	 DWORD PTR _xInst$3[ebp]
  000cc	68 00 00 00 00	 push	 OFFSET ??_C@_0N@DAOJGGNH@pos?$DN?$CI?$CFd?0?5?$CFd?$CJ?$AA@
  000d1	50		 push	 eax
  000d2	e8 00 00 00 00	 call	 _sprintf
  000d7	83 c4 10	 add	 esp, 16			; 00000010H
$LN1@chrmgrGetV:

; 107  : 	}	
; 108  : 	
; 109  : 
; 110  : 	char szInfo[1024];	
; 111  : 	sprintf(szInfo, "VID %d (isRegistered=%d, isAlive=%d, isDead=%d) %s", 
; 112  : 		nVID,
; 113  : 		rkChrMgr.IsRegisteredVID(nVID),
; 114  : 		rkChrMgr.IsAliveVID(nVID),
; 115  : 		rkChrMgr.IsDeadVID(nVID),
; 116  : 		szDetail
; 117  : 	);

  000da	8d 85 fc fe ff
	ff		 lea	 eax, DWORD PTR _szDetail$[ebp]
  000e0	8b cf		 mov	 ecx, edi
  000e2	50		 push	 eax
  000e3	ff b5 f8 fa ff
	ff		 push	 DWORD PTR _nVID$[ebp]
  000e9	e8 00 00 00 00	 call	 ?IsDeadVID@CPythonCharacterManager@@QAE_NK@Z ; CPythonCharacterManager::IsDeadVID
  000ee	8b b5 f8 fa ff
	ff		 mov	 esi, DWORD PTR _nVID$[ebp]
  000f4	8b cf		 mov	 ecx, edi
  000f6	0f b6 c0	 movzx	 eax, al
  000f9	50		 push	 eax
  000fa	56		 push	 esi
  000fb	e8 00 00 00 00	 call	 ?IsAliveVID@CPythonCharacterManager@@QAE_NK@Z ; CPythonCharacterManager::IsAliveVID
  00100	0f b6 c0	 movzx	 eax, al
  00103	8b cf		 mov	 ecx, edi
  00105	50		 push	 eax
  00106	56		 push	 esi
  00107	e8 00 00 00 00	 call	 ?IsRegisteredVID@CPythonCharacterManager@@QAE_NK@Z ; CPythonCharacterManager::IsRegisteredVID
  0010c	0f b6 c0	 movzx	 eax, al
  0010f	50		 push	 eax
  00110	56		 push	 esi
  00111	8d 85 fc fa ff
	ff		 lea	 eax, DWORD PTR _szInfo$[ebp]
  00117	68 00 00 00 00	 push	 OFFSET ??_C@_0DD@OOILPMAD@VID?5?$CFd?5?$CIisRegistered?$DN?$CFd?0?5isAlive@
  0011c	50		 push	 eax
  0011d	e8 00 00 00 00	 call	 _sprintf

; 118  : 	
; 119  : 	return Py_BuildValue("s", szInfo);

  00122	8d 85 fc fa ff
	ff		 lea	 eax, DWORD PTR _szInfo$[ebp]
  00128	50		 push	 eax
  00129	68 00 00 00 00	 push	 OFFSET ??_C@_01LKDEMHDF@s?$AA@
  0012e	ff 15 00 00 00
	00		 call	 DWORD PTR __imp__Py_BuildValue

; 120  : }

  00134	8b 4d fc	 mov	 ecx, DWORD PTR __$ArrayPad$[ebp]
  00137	83 c4 24	 add	 esp, 36			; 00000024H
  0013a	33 cd		 xor	 ecx, ebp
  0013c	5f		 pop	 edi
  0013d	5e		 pop	 esi
  0013e	e8 00 00 00 00	 call	 @__security_check_cookie@4
  00143	8b e5		 mov	 esp, ebp
  00145	5d		 pop	 ebp
  00146	c3		 ret	 0
?chrmgrGetVIDInfo@@YAPAU_object@@PAU1@0@Z ENDP		; chrmgrGetVIDInfo
_TEXT	ENDS
; Function compile flags: /Ogtp
; File d:\metin2\metin2\client_source_clean\client_source_clean\source\userinterface\pythoncharactermanagermodule.cpp
;	COMDAT ?chrmgrSetPathName@@YAPAU_object@@PAU1@0@Z
_TEXT	SEGMENT
_szPathName$ = -4					; size = 4
_poSelf$ = 8						; size = 4
_poArgs$ = 12						; size = 4
?chrmgrSetPathName@@YAPAU_object@@PAU1@0@Z PROC		; chrmgrSetPathName, COMDAT

; 124  : {

  00000	55		 push	 ebp
  00001	8b ec		 mov	 ebp, esp
  00003	51		 push	 ecx

; 125  : 	char * szPathName;
; 126  : 	if (!PyTuple_GetString(poArgs, 0, &szPathName))

  00004	8d 45 fc	 lea	 eax, DWORD PTR _szPathName$[ebp]
  00007	50		 push	 eax
  00008	6a 00		 push	 0
  0000a	ff 75 0c	 push	 DWORD PTR _poArgs$[ebp]
  0000d	e8 00 00 00 00	 call	 ?PyTuple_GetString@@YA_NPAU_object@@HPAPAD@Z ; PyTuple_GetString
  00012	83 c4 0c	 add	 esp, 12			; 0000000cH
  00015	84 c0		 test	 al, al
  00017	75 09		 jne	 SHORT $LN1@chrmgrSetP

; 127  : 		return Py_BadArgument();

  00019	e8 00 00 00 00	 call	 ?Py_BadArgument@@YAPAU_object@@XZ ; Py_BadArgument

; 131  : }

  0001e	8b e5		 mov	 esp, ebp
  00020	5d		 pop	 ebp
  00021	c3		 ret	 0
$LN1@chrmgrSetP:

; 128  : 
; 129  : 	CRaceManager::Instance().SetPathName(szPathName);	

  00022	ff 75 fc	 push	 DWORD PTR _szPathName$[ebp]
  00025	8b 0d 00 00 00
	00		 mov	 ecx, DWORD PTR ?ms_singleton@?$CSingleton@VCRaceManager@@@@0PAVCRaceManager@@A ; CSingleton<CRaceManager>::ms_singleton
  0002b	e8 00 00 00 00	 call	 ?SetPathName@CRaceManager@@QAEXPBD@Z ; CRaceManager::SetPathName

; 130  : 	return Py_BuildNone();

  00030	e8 00 00 00 00	 call	 ?Py_BuildNone@@YAPAU_object@@XZ ; Py_BuildNone

; 131  : }

  00035	8b e5		 mov	 esp, ebp
  00037	5d		 pop	 ebp
  00038	c3		 ret	 0
?chrmgrSetPathName@@YAPAU_object@@PAU1@0@Z ENDP		; chrmgrSetPathName
_TEXT	ENDS
; Function compile flags: /Ogtp
; File d:\metin2\metin2\client_source_clean\client_source_clean\source\userinterface\pythoncharactermanagermodule.cpp
;	COMDAT ?chrmgrCreateRace@@YAPAU_object@@PAU1@0@Z
_TEXT	SEGMENT
_iRace$ = -4						; size = 4
_poSelf$ = 8						; size = 4
_poArgs$ = 12						; size = 4
?chrmgrCreateRace@@YAPAU_object@@PAU1@0@Z PROC		; chrmgrCreateRace, COMDAT

; 134  : {

  00000	55		 push	 ebp
  00001	8b ec		 mov	 ebp, esp
  00003	51		 push	 ecx

; 135  : 	int	iRace;
; 136  : 	if (!PyTuple_GetInteger(poArgs, 0, &iRace))

  00004	8d 45 fc	 lea	 eax, DWORD PTR _iRace$[ebp]
  00007	50		 push	 eax
  00008	6a 00		 push	 0
  0000a	ff 75 0c	 push	 DWORD PTR _poArgs$[ebp]
  0000d	e8 00 00 00 00	 call	 ?PyTuple_GetInteger@@YA_NPAU_object@@HPAH@Z ; PyTuple_GetInteger
  00012	83 c4 0c	 add	 esp, 12			; 0000000cH
  00015	84 c0		 test	 al, al
  00017	75 09		 jne	 SHORT $LN1@chrmgrCrea

; 137  : 		return Py_BadArgument();

  00019	e8 00 00 00 00	 call	 ?Py_BadArgument@@YAPAU_object@@XZ ; Py_BadArgument

; 141  : }

  0001e	8b e5		 mov	 esp, ebp
  00020	5d		 pop	 ebp
  00021	c3		 ret	 0
$LN1@chrmgrCrea:

; 138  : 
; 139  : 	CRaceManager::Instance().CreateRace(iRace);

  00022	ff 75 fc	 push	 DWORD PTR _iRace$[ebp]
  00025	8b 0d 00 00 00
	00		 mov	 ecx, DWORD PTR ?ms_singleton@?$CSingleton@VCRaceManager@@@@0PAVCRaceManager@@A ; CSingleton<CRaceManager>::ms_singleton
  0002b	e8 00 00 00 00	 call	 ?CreateRace@CRaceManager@@QAEXK@Z ; CRaceManager::CreateRace

; 140  : 	return Py_BuildNone();

  00030	e8 00 00 00 00	 call	 ?Py_BuildNone@@YAPAU_object@@XZ ; Py_BuildNone

; 141  : }

  00035	8b e5		 mov	 esp, ebp
  00037	5d		 pop	 ebp
  00038	c3		 ret	 0
?chrmgrCreateRace@@YAPAU_object@@PAU1@0@Z ENDP		; chrmgrCreateRace
_TEXT	ENDS
; Function compile flags: /Ogtp
; File d:\metin2\metin2\client_source_clean\client_source_clean\source\userinterface\pythoncharactermanagermodule.cpp
;	COMDAT ?chrmgrSelectRace@@YAPAU_object@@PAU1@0@Z
_TEXT	SEGMENT
_iRace$ = -4						; size = 4
_poSelf$ = 8						; size = 4
_poArgs$ = 12						; size = 4
?chrmgrSelectRace@@YAPAU_object@@PAU1@0@Z PROC		; chrmgrSelectRace, COMDAT

; 144  : {

  00000	55		 push	 ebp
  00001	8b ec		 mov	 ebp, esp
  00003	51		 push	 ecx

; 145  : 	int	iRace;
; 146  : 	if (!PyTuple_GetInteger(poArgs, 0, &iRace))

  00004	8d 45 fc	 lea	 eax, DWORD PTR _iRace$[ebp]
  00007	50		 push	 eax
  00008	6a 00		 push	 0
  0000a	ff 75 0c	 push	 DWORD PTR _poArgs$[ebp]
  0000d	e8 00 00 00 00	 call	 ?PyTuple_GetInteger@@YA_NPAU_object@@HPAH@Z ; PyTuple_GetInteger
  00012	83 c4 0c	 add	 esp, 12			; 0000000cH
  00015	84 c0		 test	 al, al
  00017	75 09		 jne	 SHORT $LN1@chrmgrSele

; 147  : 		return Py_BadArgument();

  00019	e8 00 00 00 00	 call	 ?Py_BadArgument@@YAPAU_object@@XZ ; Py_BadArgument

; 151  : }

  0001e	8b e5		 mov	 esp, ebp
  00020	5d		 pop	 ebp
  00021	c3		 ret	 0
$LN1@chrmgrSele:

; 148  : 
; 149  : 	CRaceManager::Instance().SelectRace(iRace);

  00022	ff 75 fc	 push	 DWORD PTR _iRace$[ebp]
  00025	8b 0d 00 00 00
	00		 mov	 ecx, DWORD PTR ?ms_singleton@?$CSingleton@VCRaceManager@@@@0PAVCRaceManager@@A ; CSingleton<CRaceManager>::ms_singleton
  0002b	e8 00 00 00 00	 call	 ?SelectRace@CRaceManager@@QAEXK@Z ; CRaceManager::SelectRace

; 150  : 	return Py_BuildNone();

  00030	e8 00 00 00 00	 call	 ?Py_BuildNone@@YAPAU_object@@XZ ; Py_BuildNone

; 151  : }

  00035	8b e5		 mov	 esp, ebp
  00037	5d		 pop	 ebp
  00038	c3		 ret	 0
?chrmgrSelectRace@@YAPAU_object@@PAU1@0@Z ENDP		; chrmgrSelectRace
_TEXT	ENDS
; Function compile flags: /Ogtp
; File d:\metin2\metin2\client_source_clean\client_source_clean\source\userinterface\pythoncharactermanagermodule.cpp
;	COMDAT ?chrmgrRegisterAttachingBoneName@@YAPAU_object@@PAU1@0@Z
_TEXT	SEGMENT
_iPartIndex$ = -8					; size = 4
_szBoneName$ = -4					; size = 4
_poSelf$ = 8						; size = 4
_poArgs$ = 12						; size = 4
?chrmgrRegisterAttachingBoneName@@YAPAU_object@@PAU1@0@Z PROC ; chrmgrRegisterAttachingBoneName, COMDAT

; 154  : {

  00000	55		 push	 ebp
  00001	8b ec		 mov	 ebp, esp
  00003	83 ec 08	 sub	 esp, 8

; 155  : 	int iPartIndex;
; 156  : 	if (!PyTuple_GetInteger(poArgs, 0, &iPartIndex))

  00006	8d 45 f8	 lea	 eax, DWORD PTR _iPartIndex$[ebp]
  00009	50		 push	 eax
  0000a	6a 00		 push	 0
  0000c	ff 75 0c	 push	 DWORD PTR _poArgs$[ebp]
  0000f	e8 00 00 00 00	 call	 ?PyTuple_GetInteger@@YA_NPAU_object@@HPAH@Z ; PyTuple_GetInteger
  00014	83 c4 0c	 add	 esp, 12			; 0000000cH
  00017	84 c0		 test	 al, al
  00019	75 09		 jne	 SHORT $LN3@chrmgrRegi
$LN8@chrmgrRegi:

; 157  : 		return Py_BadArgument();

  0001b	e8 00 00 00 00	 call	 ?Py_BadArgument@@YAPAU_object@@XZ ; Py_BadArgument

; 168  : }

  00020	8b e5		 mov	 esp, ebp
  00022	5d		 pop	 ebp
  00023	c3		 ret	 0
$LN3@chrmgrRegi:

; 158  : 	char * szBoneName;
; 159  : 	if (!PyTuple_GetString(poArgs, 1, &szBoneName))

  00024	8d 45 fc	 lea	 eax, DWORD PTR _szBoneName$[ebp]
  00027	50		 push	 eax
  00028	6a 01		 push	 1
  0002a	ff 75 0c	 push	 DWORD PTR _poArgs$[ebp]
  0002d	e8 00 00 00 00	 call	 ?PyTuple_GetString@@YA_NPAU_object@@HPAPAD@Z ; PyTuple_GetString
  00032	83 c4 0c	 add	 esp, 12			; 0000000cH
  00035	84 c0		 test	 al, al
  00037	74 e2		 je	 SHORT $LN8@chrmgrRegi

; 160  : 		return Py_BadArgument();
; 161  : 
; 162  : 	CRaceData * pRaceData = CRaceManager::Instance().GetSelectedRaceDataPointer();

  00039	8b 0d 00 00 00
	00		 mov	 ecx, DWORD PTR ?ms_singleton@?$CSingleton@VCRaceManager@@@@0PAVCRaceManager@@A ; CSingleton<CRaceManager>::ms_singleton
  0003f	e8 00 00 00 00	 call	 ?GetSelectedRaceDataPointer@CRaceManager@@QAEPAVCRaceData@@XZ ; CRaceManager::GetSelectedRaceDataPointer

; 163  : 	if (!pRaceData)

  00044	85 c0		 test	 eax, eax
  00046	75 11		 jne	 SHORT $LN1@chrmgrRegi

; 164  : 		return Py_BuildException("RaceData has not selected!");

  00048	68 00 00 00 00	 push	 OFFSET ??_C@_0BL@MNEPJNPF@RaceData?5has?5not?5selected?$CB?$AA@
  0004d	e8 00 00 00 00	 call	 ?Py_BuildException@@YAPAU_object@@PBDZZ ; Py_BuildException
  00052	83 c4 04	 add	 esp, 4

; 168  : }

  00055	8b e5		 mov	 esp, ebp
  00057	5d		 pop	 ebp
  00058	c3		 ret	 0
$LN1@chrmgrRegi:

; 165  : 
; 166  : 	pRaceData->RegisterAttachingBoneName(iPartIndex, szBoneName);

  00059	ff 75 fc	 push	 DWORD PTR _szBoneName$[ebp]
  0005c	8b c8		 mov	 ecx, eax
  0005e	ff 75 f8	 push	 DWORD PTR _iPartIndex$[ebp]
  00061	e8 00 00 00 00	 call	 ?RegisterAttachingBoneName@CRaceData@@QAEXKPBD@Z ; CRaceData::RegisterAttachingBoneName

; 167  : 	return Py_BuildNone();

  00066	e8 00 00 00 00	 call	 ?Py_BuildNone@@YAPAU_object@@XZ ; Py_BuildNone

; 168  : }

  0006b	8b e5		 mov	 esp, ebp
  0006d	5d		 pop	 ebp
  0006e	c3		 ret	 0
?chrmgrRegisterAttachingBoneName@@YAPAU_object@@PAU1@0@Z ENDP ; chrmgrRegisterAttachingBoneName
_TEXT	ENDS
; Function compile flags: /Ogtp
; File d:\metin2\metin2\client_source_clean\client_source_clean\source\userinterface\pythoncharactermanagermodule.cpp
;	COMDAT ?chrmgrRegisterMotionMode@@YAPAU_object@@PAU1@0@Z
_TEXT	SEGMENT
_iMotionIndex$ = -4					; size = 4
_poSelf$ = 8						; size = 4
_poArgs$ = 12						; size = 4
?chrmgrRegisterMotionMode@@YAPAU_object@@PAU1@0@Z PROC	; chrmgrRegisterMotionMode, COMDAT

; 171  : {

  00000	55		 push	 ebp
  00001	8b ec		 mov	 ebp, esp
  00003	51		 push	 ecx

; 172  : 	int	iMotionIndex;
; 173  : 	if (!PyTuple_GetInteger(poArgs, 0, &iMotionIndex))

  00004	8d 45 fc	 lea	 eax, DWORD PTR _iMotionIndex$[ebp]
  00007	50		 push	 eax
  00008	6a 00		 push	 0
  0000a	ff 75 0c	 push	 DWORD PTR _poArgs$[ebp]
  0000d	e8 00 00 00 00	 call	 ?PyTuple_GetInteger@@YA_NPAU_object@@HPAH@Z ; PyTuple_GetInteger
  00012	83 c4 0c	 add	 esp, 12			; 0000000cH
  00015	84 c0		 test	 al, al
  00017	75 09		 jne	 SHORT $LN2@chrmgrRegi

; 174  : 		return Py_BadArgument();

  00019	e8 00 00 00 00	 call	 ?Py_BadArgument@@YAPAU_object@@XZ ; Py_BadArgument

; 182  : }

  0001e	8b e5		 mov	 esp, ebp
  00020	5d		 pop	 ebp
  00021	c3		 ret	 0
$LN2@chrmgrRegi:

; 175  : 
; 176  : 	CRaceData * pRaceData = CRaceManager::Instance().GetSelectedRaceDataPointer();

  00022	8b 0d 00 00 00
	00		 mov	 ecx, DWORD PTR ?ms_singleton@?$CSingleton@VCRaceManager@@@@0PAVCRaceManager@@A ; CSingleton<CRaceManager>::ms_singleton
  00028	e8 00 00 00 00	 call	 ?GetSelectedRaceDataPointer@CRaceManager@@QAEPAVCRaceData@@XZ ; CRaceManager::GetSelectedRaceDataPointer

; 177  : 	if (!pRaceData)

  0002d	85 c0		 test	 eax, eax
  0002f	75 11		 jne	 SHORT $LN1@chrmgrRegi

; 178  : 		return Py_BuildException("RaceData has not selected!");

  00031	68 00 00 00 00	 push	 OFFSET ??_C@_0BL@MNEPJNPF@RaceData?5has?5not?5selected?$CB?$AA@
  00036	e8 00 00 00 00	 call	 ?Py_BuildException@@YAPAU_object@@PBDZZ ; Py_BuildException
  0003b	83 c4 04	 add	 esp, 4

; 182  : }

  0003e	8b e5		 mov	 esp, ebp
  00040	5d		 pop	 ebp
  00041	c3		 ret	 0
$LN1@chrmgrRegi:

; 179  : 
; 180  : 	pRaceData->RegisterMotionMode(iMotionIndex);

  00042	ff 75 fc	 push	 DWORD PTR _iMotionIndex$[ebp]
  00045	8b c8		 mov	 ecx, eax
  00047	e8 00 00 00 00	 call	 ?RegisterMotionMode@CRaceData@@QAEXG@Z ; CRaceData::RegisterMotionMode

; 181  : 	return Py_BuildNone();

  0004c	e8 00 00 00 00	 call	 ?Py_BuildNone@@YAPAU_object@@XZ ; Py_BuildNone

; 182  : }

  00051	8b e5		 mov	 esp, ebp
  00053	5d		 pop	 ebp
  00054	c3		 ret	 0
?chrmgrRegisterMotionMode@@YAPAU_object@@PAU1@0@Z ENDP	; chrmgrRegisterMotionMode
_TEXT	ENDS
; Function compile flags: /Ogtp
; File d:\metin2\metin2\client_source_clean\client_source_clean\source\userinterface\pythoncharactermanagermodule.cpp
;	COMDAT ?chrmgrSetMotionRandomWeight@@YAPAU_object@@PAU1@0@Z
_TEXT	SEGMENT
_iMode$ = -16						; size = 4
_iMotion$ = -12						; size = 4
_iSubMotion$ = -8					; size = 4
_iPercentage$ = -4					; size = 4
_poSelf$ = 8						; size = 4
_poArgs$ = 12						; size = 4
?chrmgrSetMotionRandomWeight@@YAPAU_object@@PAU1@0@Z PROC ; chrmgrSetMotionRandomWeight, COMDAT

; 187  : {

  00000	55		 push	 ebp
  00001	8b ec		 mov	 ebp, esp
  00003	83 ec 10	 sub	 esp, 16			; 00000010H

; 188  : 	int iMode;
; 189  : 	if (!PyTuple_GetInteger(poArgs, 0, &iMode))

  00006	8d 45 f0	 lea	 eax, DWORD PTR _iMode$[ebp]
  00009	56		 push	 esi
  0000a	8b 75 0c	 mov	 esi, DWORD PTR _poArgs$[ebp]
  0000d	50		 push	 eax
  0000e	6a 00		 push	 0
  00010	56		 push	 esi
  00011	e8 00 00 00 00	 call	 ?PyTuple_GetInteger@@YA_NPAU_object@@HPAH@Z ; PyTuple_GetInteger
  00016	83 c4 0c	 add	 esp, 12			; 0000000cH
  00019	84 c0		 test	 al, al
  0001b	75 0a		 jne	 SHORT $LN6@chrmgrSetM
$LN11@chrmgrSetM:

; 190  : 		return Py_BadArgument();

  0001d	e8 00 00 00 00	 call	 ?Py_BadArgument@@YAPAU_object@@XZ ; Py_BadArgument
  00022	5e		 pop	 esi

; 212  : }

  00023	8b e5		 mov	 esp, ebp
  00025	5d		 pop	 ebp
  00026	c3		 ret	 0
$LN6@chrmgrSetM:

; 191  : 
; 192  : 	int iMotion;
; 193  : 	if (!PyTuple_GetInteger(poArgs, 1, &iMotion))

  00027	8d 45 f4	 lea	 eax, DWORD PTR _iMotion$[ebp]
  0002a	50		 push	 eax
  0002b	6a 01		 push	 1
  0002d	56		 push	 esi
  0002e	e8 00 00 00 00	 call	 ?PyTuple_GetInteger@@YA_NPAU_object@@HPAH@Z ; PyTuple_GetInteger
  00033	83 c4 0c	 add	 esp, 12			; 0000000cH
  00036	84 c0		 test	 al, al
  00038	74 e3		 je	 SHORT $LN11@chrmgrSetM

; 194  : 		return Py_BadArgument();
; 195  : 
; 196  : 	int iSubMotion;
; 197  : 	if (!PyTuple_GetInteger(poArgs, 2, &iSubMotion))

  0003a	8d 45 f8	 lea	 eax, DWORD PTR _iSubMotion$[ebp]
  0003d	50		 push	 eax
  0003e	6a 02		 push	 2
  00040	56		 push	 esi
  00041	e8 00 00 00 00	 call	 ?PyTuple_GetInteger@@YA_NPAU_object@@HPAH@Z ; PyTuple_GetInteger
  00046	83 c4 0c	 add	 esp, 12			; 0000000cH
  00049	84 c0		 test	 al, al
  0004b	74 d0		 je	 SHORT $LN11@chrmgrSetM

; 198  : 		return Py_BadArgument();
; 199  : 
; 200  : 	int iPercentage;
; 201  : 	if (!PyTuple_GetInteger(poArgs, 3, &iPercentage))

  0004d	8d 45 fc	 lea	 eax, DWORD PTR _iPercentage$[ebp]
  00050	50		 push	 eax
  00051	6a 03		 push	 3
  00053	56		 push	 esi
  00054	e8 00 00 00 00	 call	 ?PyTuple_GetInteger@@YA_NPAU_object@@HPAH@Z ; PyTuple_GetInteger
  00059	83 c4 0c	 add	 esp, 12			; 0000000cH
  0005c	84 c0		 test	 al, al
  0005e	74 bd		 je	 SHORT $LN11@chrmgrSetM

; 202  : 		return Py_BadArgument();
; 203  : 
; 204  : 	CRaceData * pRaceData = CRaceManager::Instance().GetSelectedRaceDataPointer();

  00060	8b 0d 00 00 00
	00		 mov	 ecx, DWORD PTR ?ms_singleton@?$CSingleton@VCRaceManager@@@@0PAVCRaceManager@@A ; CSingleton<CRaceManager>::ms_singleton
  00066	e8 00 00 00 00	 call	 ?GetSelectedRaceDataPointer@CRaceManager@@QAEPAVCRaceData@@XZ ; CRaceManager::GetSelectedRaceDataPointer

; 205  : 	if (!pRaceData)

  0006b	85 c0		 test	 eax, eax
  0006d	75 12		 jne	 SHORT $LN2@chrmgrSetM

; 206  : 		return Py_BuildException("RaceData has not selected!");

  0006f	68 00 00 00 00	 push	 OFFSET ??_C@_0BL@MNEPJNPF@RaceData?5has?5not?5selected?$CB?$AA@
  00074	e8 00 00 00 00	 call	 ?Py_BuildException@@YAPAU_object@@PBDZZ ; Py_BuildException
  00079	83 c4 04	 add	 esp, 4
  0007c	5e		 pop	 esi

; 212  : }

  0007d	8b e5		 mov	 esp, ebp
  0007f	5d		 pop	 ebp
  00080	c3		 ret	 0
$LN2@chrmgrSetM:

; 207  : 
; 208  : 	if (!pRaceData->SetMotionRandomWeight(iMode, iMotion, iSubMotion, iPercentage))

  00081	ff 75 fc	 push	 DWORD PTR _iPercentage$[ebp]
  00084	8b c8		 mov	 ecx, eax
  00086	ff 75 f8	 push	 DWORD PTR _iSubMotion$[ebp]
  00089	ff 75 f4	 push	 DWORD PTR _iMotion$[ebp]
  0008c	ff 75 f0	 push	 DWORD PTR _iMode$[ebp]
  0008f	e8 00 00 00 00	 call	 ?SetMotionRandomWeight@CRaceData@@QAE_NGGGE@Z ; CRaceData::SetMotionRandomWeight
  00094	84 c0		 test	 al, al
  00096	75 0d		 jne	 SHORT $LN1@chrmgrSetM

; 209  : 		Py_BuildException("Failed to SetMotionRandomWeight");

  00098	68 00 00 00 00	 push	 OFFSET ??_C@_0CA@PANOAEAA@Failed?5to?5SetMotionRandomWeight?$AA@
  0009d	e8 00 00 00 00	 call	 ?Py_BuildException@@YAPAU_object@@PBDZZ ; Py_BuildException
  000a2	83 c4 04	 add	 esp, 4
$LN1@chrmgrSetM:

; 210  : 
; 211  : 	return Py_BuildNone();

  000a5	e8 00 00 00 00	 call	 ?Py_BuildNone@@YAPAU_object@@XZ ; Py_BuildNone
  000aa	5e		 pop	 esi

; 212  : }

  000ab	8b e5		 mov	 esp, ebp
  000ad	5d		 pop	 ebp
  000ae	c3		 ret	 0
?chrmgrSetMotionRandomWeight@@YAPAU_object@@PAU1@0@Z ENDP ; chrmgrSetMotionRandomWeight
_TEXT	ENDS
; Function compile flags: /Ogtp
; File d:\metin2\metin2\client_source_clean\client_source_clean\source\userinterface\pythoncharactermanagermodule.cpp
;	COMDAT ?chrmgrRegisterNormalAttack@@YAPAU_object@@PAU1@0@Z
_TEXT	SEGMENT
_iMode$ = -8						; size = 4
_iMotion$ = -4						; size = 4
_poSelf$ = 8						; size = 4
_poArgs$ = 12						; size = 4
?chrmgrRegisterNormalAttack@@YAPAU_object@@PAU1@0@Z PROC ; chrmgrRegisterNormalAttack, COMDAT

; 215  : {

  00000	55		 push	 ebp
  00001	8b ec		 mov	 ebp, esp
  00003	83 ec 08	 sub	 esp, 8

; 216  : 	int iMode;
; 217  : 	if (!PyTuple_GetInteger(poArgs, 0, &iMode))

  00006	8d 45 f8	 lea	 eax, DWORD PTR _iMode$[ebp]
  00009	50		 push	 eax
  0000a	6a 00		 push	 0
  0000c	ff 75 0c	 push	 DWORD PTR _poArgs$[ebp]
  0000f	e8 00 00 00 00	 call	 ?PyTuple_GetInteger@@YA_NPAU_object@@HPAH@Z ; PyTuple_GetInteger
  00014	83 c4 0c	 add	 esp, 12			; 0000000cH
  00017	84 c0		 test	 al, al
  00019	75 09		 jne	 SHORT $LN3@chrmgrRegi
$LN8@chrmgrRegi:

; 218  : 		return Py_BadArgument();

  0001b	e8 00 00 00 00	 call	 ?Py_BadArgument@@YAPAU_object@@XZ ; Py_BadArgument

; 230  : }

  00020	8b e5		 mov	 esp, ebp
  00022	5d		 pop	 ebp
  00023	c3		 ret	 0
$LN3@chrmgrRegi:

; 219  : 
; 220  : 	int iMotion;
; 221  : 	if (!PyTuple_GetInteger(poArgs, 1, &iMotion))

  00024	8d 45 fc	 lea	 eax, DWORD PTR _iMotion$[ebp]
  00027	50		 push	 eax
  00028	6a 01		 push	 1
  0002a	ff 75 0c	 push	 DWORD PTR _poArgs$[ebp]
  0002d	e8 00 00 00 00	 call	 ?PyTuple_GetInteger@@YA_NPAU_object@@HPAH@Z ; PyTuple_GetInteger
  00032	83 c4 0c	 add	 esp, 12			; 0000000cH
  00035	84 c0		 test	 al, al
  00037	74 e2		 je	 SHORT $LN8@chrmgrRegi

; 222  : 		return Py_BadArgument();
; 223  : 
; 224  : 	CRaceData * pRaceData = CRaceManager::Instance().GetSelectedRaceDataPointer();

  00039	8b 0d 00 00 00
	00		 mov	 ecx, DWORD PTR ?ms_singleton@?$CSingleton@VCRaceManager@@@@0PAVCRaceManager@@A ; CSingleton<CRaceManager>::ms_singleton
  0003f	e8 00 00 00 00	 call	 ?GetSelectedRaceDataPointer@CRaceManager@@QAEPAVCRaceData@@XZ ; CRaceManager::GetSelectedRaceDataPointer

; 225  : 	if (!pRaceData)

  00044	85 c0		 test	 eax, eax
  00046	75 11		 jne	 SHORT $LN1@chrmgrRegi

; 226  : 		return Py_BuildException("RaceData has not selected!");

  00048	68 00 00 00 00	 push	 OFFSET ??_C@_0BL@MNEPJNPF@RaceData?5has?5not?5selected?$CB?$AA@
  0004d	e8 00 00 00 00	 call	 ?Py_BuildException@@YAPAU_object@@PBDZZ ; Py_BuildException
  00052	83 c4 04	 add	 esp, 4

; 230  : }

  00055	8b e5		 mov	 esp, ebp
  00057	5d		 pop	 ebp
  00058	c3		 ret	 0
$LN1@chrmgrRegi:

; 227  : 
; 228  : 	pRaceData->RegisterNormalAttack(iMode, iMotion);

  00059	ff 75 fc	 push	 DWORD PTR _iMotion$[ebp]
  0005c	8b c8		 mov	 ecx, eax
  0005e	ff 75 f8	 push	 DWORD PTR _iMode$[ebp]
  00061	e8 00 00 00 00	 call	 ?RegisterNormalAttack@CRaceData@@QAEXGG@Z ; CRaceData::RegisterNormalAttack

; 229  : 	return Py_BuildNone();

  00066	e8 00 00 00 00	 call	 ?Py_BuildNone@@YAPAU_object@@XZ ; Py_BuildNone

; 230  : }

  0006b	8b e5		 mov	 esp, ebp
  0006d	5d		 pop	 ebp
  0006e	c3		 ret	 0
?chrmgrRegisterNormalAttack@@YAPAU_object@@PAU1@0@Z ENDP ; chrmgrRegisterNormalAttack
_TEXT	ENDS
; Function compile flags: /Ogtp
; File d:\metin2\metin2\client_source_clean\client_source_clean\source\userinterface\pythoncharactermanagermodule.cpp
;	COMDAT ?chrmgrReserveComboAttack@@YAPAU_object@@PAU1@0@Z
_TEXT	SEGMENT
_iMode$ = -8						; size = 4
_iCount$ = -4						; size = 4
_poSelf$ = 8						; size = 4
_poArgs$ = 12						; size = 4
?chrmgrReserveComboAttack@@YAPAU_object@@PAU1@0@Z PROC	; chrmgrReserveComboAttack, COMDAT

; 235  : {

  00000	55		 push	 ebp
  00001	8b ec		 mov	 ebp, esp
  00003	83 ec 08	 sub	 esp, 8

; 236  : 	int iMode;
; 237  : 	if (!PyTuple_GetInteger(poArgs, 0, &iMode))

  00006	8d 45 f8	 lea	 eax, DWORD PTR _iMode$[ebp]
  00009	50		 push	 eax
  0000a	6a 00		 push	 0
  0000c	ff 75 0c	 push	 DWORD PTR _poArgs$[ebp]
  0000f	e8 00 00 00 00	 call	 ?PyTuple_GetInteger@@YA_NPAU_object@@HPAH@Z ; PyTuple_GetInteger
  00014	83 c4 0c	 add	 esp, 12			; 0000000cH
  00017	84 c0		 test	 al, al
  00019	75 09		 jne	 SHORT $LN3@chrmgrRese
$LN8@chrmgrRese:

; 238  : 		return Py_BadArgument();

  0001b	e8 00 00 00 00	 call	 ?Py_BadArgument@@YAPAU_object@@XZ ; Py_BadArgument

; 250  : }

  00020	8b e5		 mov	 esp, ebp
  00022	5d		 pop	 ebp
  00023	c3		 ret	 0
$LN3@chrmgrRese:

; 239  : 
; 240  : 	int iCount;
; 241  : 	if (!PyTuple_GetInteger(poArgs, 1, &iCount))

  00024	8d 45 fc	 lea	 eax, DWORD PTR _iCount$[ebp]
  00027	50		 push	 eax
  00028	6a 01		 push	 1
  0002a	ff 75 0c	 push	 DWORD PTR _poArgs$[ebp]
  0002d	e8 00 00 00 00	 call	 ?PyTuple_GetInteger@@YA_NPAU_object@@HPAH@Z ; PyTuple_GetInteger
  00032	83 c4 0c	 add	 esp, 12			; 0000000cH
  00035	84 c0		 test	 al, al
  00037	74 e2		 je	 SHORT $LN8@chrmgrRese

; 242  : 		return Py_BadArgument();
; 243  : 
; 244  : 	CRaceData * pRaceData = CRaceManager::Instance().GetSelectedRaceDataPointer();

  00039	8b 0d 00 00 00
	00		 mov	 ecx, DWORD PTR ?ms_singleton@?$CSingleton@VCRaceManager@@@@0PAVCRaceManager@@A ; CSingleton<CRaceManager>::ms_singleton
  0003f	e8 00 00 00 00	 call	 ?GetSelectedRaceDataPointer@CRaceManager@@QAEPAVCRaceData@@XZ ; CRaceManager::GetSelectedRaceDataPointer

; 245  : 	if (!pRaceData)

  00044	85 c0		 test	 eax, eax
  00046	75 11		 jne	 SHORT $LN1@chrmgrRese

; 246  : 		return Py_BuildException("RaceData has not selected!");

  00048	68 00 00 00 00	 push	 OFFSET ??_C@_0BL@MNEPJNPF@RaceData?5has?5not?5selected?$CB?$AA@
  0004d	e8 00 00 00 00	 call	 ?Py_BuildException@@YAPAU_object@@PBDZZ ; Py_BuildException
  00052	83 c4 04	 add	 esp, 4

; 250  : }

  00055	8b e5		 mov	 esp, ebp
  00057	5d		 pop	 ebp
  00058	c3		 ret	 0
$LN1@chrmgrRese:

; 247  : 
; 248  : 	pRaceData->ReserveComboAttack(iMode, 0, iCount);

  00059	ff 75 fc	 push	 DWORD PTR _iCount$[ebp]
  0005c	8b c8		 mov	 ecx, eax
  0005e	6a 00		 push	 0
  00060	ff 75 f8	 push	 DWORD PTR _iMode$[ebp]
  00063	e8 00 00 00 00	 call	 ?ReserveComboAttack@CRaceData@@QAEXGGK@Z ; CRaceData::ReserveComboAttack

; 249  : 	return Py_BuildNone();

  00068	e8 00 00 00 00	 call	 ?Py_BuildNone@@YAPAU_object@@XZ ; Py_BuildNone

; 250  : }

  0006d	8b e5		 mov	 esp, ebp
  0006f	5d		 pop	 ebp
  00070	c3		 ret	 0
?chrmgrReserveComboAttack@@YAPAU_object@@PAU1@0@Z ENDP	; chrmgrReserveComboAttack
_TEXT	ENDS
; Function compile flags: /Ogtp
; File d:\metin2\metin2\client_source_clean\client_source_clean\source\userinterface\pythoncharactermanagermodule.cpp
;	COMDAT ?chrmgrRegisterComboAttack@@YAPAU_object@@PAU1@0@Z
_TEXT	SEGMENT
_iMode$ = -12						; size = 4
_iComboIndex$ = -8					; size = 4
_iMotionIndex$ = -4					; size = 4
_poSelf$ = 8						; size = 4
_poArgs$ = 12						; size = 4
?chrmgrRegisterComboAttack@@YAPAU_object@@PAU1@0@Z PROC	; chrmgrRegisterComboAttack, COMDAT

; 253  : {

  00000	55		 push	 ebp
  00001	8b ec		 mov	 ebp, esp
  00003	83 ec 0c	 sub	 esp, 12			; 0000000cH

; 254  : 	int iMode;
; 255  : 	if (!PyTuple_GetInteger(poArgs, 0, &iMode))

  00006	8d 45 f4	 lea	 eax, DWORD PTR _iMode$[ebp]
  00009	56		 push	 esi
  0000a	8b 75 0c	 mov	 esi, DWORD PTR _poArgs$[ebp]
  0000d	50		 push	 eax
  0000e	6a 00		 push	 0
  00010	56		 push	 esi
  00011	e8 00 00 00 00	 call	 ?PyTuple_GetInteger@@YA_NPAU_object@@HPAH@Z ; PyTuple_GetInteger
  00016	83 c4 0c	 add	 esp, 12			; 0000000cH
  00019	84 c0		 test	 al, al
  0001b	75 0a		 jne	 SHORT $LN4@chrmgrRegi
$LN9@chrmgrRegi:

; 256  : 		return Py_BadArgument();

  0001d	e8 00 00 00 00	 call	 ?Py_BadArgument@@YAPAU_object@@XZ ; Py_BadArgument
  00022	5e		 pop	 esi

; 272  : }

  00023	8b e5		 mov	 esp, ebp
  00025	5d		 pop	 ebp
  00026	c3		 ret	 0
$LN4@chrmgrRegi:

; 257  : 
; 258  : 	int iComboIndex;
; 259  : 	if (!PyTuple_GetInteger(poArgs, 1, &iComboIndex))

  00027	8d 45 f8	 lea	 eax, DWORD PTR _iComboIndex$[ebp]
  0002a	50		 push	 eax
  0002b	6a 01		 push	 1
  0002d	56		 push	 esi
  0002e	e8 00 00 00 00	 call	 ?PyTuple_GetInteger@@YA_NPAU_object@@HPAH@Z ; PyTuple_GetInteger
  00033	83 c4 0c	 add	 esp, 12			; 0000000cH
  00036	84 c0		 test	 al, al
  00038	74 e3		 je	 SHORT $LN9@chrmgrRegi

; 260  : 		return Py_BadArgument();
; 261  : 
; 262  : 	int iMotionIndex;
; 263  : 	if (!PyTuple_GetInteger(poArgs, 2, &iMotionIndex))

  0003a	8d 45 fc	 lea	 eax, DWORD PTR _iMotionIndex$[ebp]
  0003d	50		 push	 eax
  0003e	6a 02		 push	 2
  00040	56		 push	 esi
  00041	e8 00 00 00 00	 call	 ?PyTuple_GetInteger@@YA_NPAU_object@@HPAH@Z ; PyTuple_GetInteger
  00046	83 c4 0c	 add	 esp, 12			; 0000000cH
  00049	84 c0		 test	 al, al
  0004b	74 d0		 je	 SHORT $LN9@chrmgrRegi

; 264  : 		return Py_BadArgument();
; 265  : 
; 266  : 	CRaceData * pRaceData = CRaceManager::Instance().GetSelectedRaceDataPointer();

  0004d	8b 0d 00 00 00
	00		 mov	 ecx, DWORD PTR ?ms_singleton@?$CSingleton@VCRaceManager@@@@0PAVCRaceManager@@A ; CSingleton<CRaceManager>::ms_singleton
  00053	e8 00 00 00 00	 call	 ?GetSelectedRaceDataPointer@CRaceManager@@QAEPAVCRaceData@@XZ ; CRaceManager::GetSelectedRaceDataPointer

; 267  : 	if (!pRaceData)

  00058	85 c0		 test	 eax, eax
  0005a	75 12		 jne	 SHORT $LN1@chrmgrRegi

; 268  : 		return Py_BuildException("RaceData has not selected!");

  0005c	68 00 00 00 00	 push	 OFFSET ??_C@_0BL@MNEPJNPF@RaceData?5has?5not?5selected?$CB?$AA@
  00061	e8 00 00 00 00	 call	 ?Py_BuildException@@YAPAU_object@@PBDZZ ; Py_BuildException
  00066	83 c4 04	 add	 esp, 4
  00069	5e		 pop	 esi

; 272  : }

  0006a	8b e5		 mov	 esp, ebp
  0006c	5d		 pop	 ebp
  0006d	c3		 ret	 0
$LN1@chrmgrRegi:

; 269  : 
; 270  : 	pRaceData->RegisterComboAttack(iMode, 0, iComboIndex, iMotionIndex);

  0006e	ff 75 fc	 push	 DWORD PTR _iMotionIndex$[ebp]
  00071	8b c8		 mov	 ecx, eax
  00073	ff 75 f8	 push	 DWORD PTR _iComboIndex$[ebp]
  00076	6a 00		 push	 0
  00078	ff 75 f4	 push	 DWORD PTR _iMode$[ebp]
  0007b	e8 00 00 00 00	 call	 ?RegisterComboAttack@CRaceData@@QAEXGGKG@Z ; CRaceData::RegisterComboAttack

; 271  : 	return Py_BuildNone();

  00080	e8 00 00 00 00	 call	 ?Py_BuildNone@@YAPAU_object@@XZ ; Py_BuildNone
  00085	5e		 pop	 esi

; 272  : }

  00086	8b e5		 mov	 esp, ebp
  00088	5d		 pop	 ebp
  00089	c3		 ret	 0
?chrmgrRegisterComboAttack@@YAPAU_object@@PAU1@0@Z ENDP	; chrmgrRegisterComboAttack
_TEXT	ENDS
; Function compile flags: /Ogtp
; File d:\metin2\metin2\client_source_clean\client_source_clean\source\userinterface\pythoncharactermanagermodule.cpp
;	COMDAT ?chrmgrReserveComboAttackNew@@YAPAU_object@@PAU1@0@Z
_TEXT	SEGMENT
_iMotionMode$ = -12					; size = 4
_iComboType$ = -8					; size = 4
_iCount$ = -4						; size = 4
_poSelf$ = 8						; size = 4
_poArgs$ = 12						; size = 4
?chrmgrReserveComboAttackNew@@YAPAU_object@@PAU1@0@Z PROC ; chrmgrReserveComboAttackNew, COMDAT

; 277  : {

  00000	55		 push	 ebp
  00001	8b ec		 mov	 ebp, esp
  00003	83 ec 0c	 sub	 esp, 12			; 0000000cH

; 278  : 	int iMotionMode;
; 279  : 	if (!PyTuple_GetInteger(poArgs, 0, &iMotionMode))

  00006	8d 45 f4	 lea	 eax, DWORD PTR _iMotionMode$[ebp]
  00009	56		 push	 esi
  0000a	8b 75 0c	 mov	 esi, DWORD PTR _poArgs$[ebp]
  0000d	50		 push	 eax
  0000e	6a 00		 push	 0
  00010	56		 push	 esi
  00011	e8 00 00 00 00	 call	 ?PyTuple_GetInteger@@YA_NPAU_object@@HPAH@Z ; PyTuple_GetInteger
  00016	83 c4 0c	 add	 esp, 12			; 0000000cH
  00019	84 c0		 test	 al, al
  0001b	75 0a		 jne	 SHORT $LN4@chrmgrRese
$LN9@chrmgrRese:

; 280  : 		return Py_BadArgument();

  0001d	e8 00 00 00 00	 call	 ?Py_BadArgument@@YAPAU_object@@XZ ; Py_BadArgument
  00022	5e		 pop	 esi

; 296  : }

  00023	8b e5		 mov	 esp, ebp
  00025	5d		 pop	 ebp
  00026	c3		 ret	 0
$LN4@chrmgrRese:

; 281  : 
; 282  : 	int iComboType;
; 283  : 	if (!PyTuple_GetInteger(poArgs, 1, &iComboType))

  00027	8d 45 f8	 lea	 eax, DWORD PTR _iComboType$[ebp]
  0002a	50		 push	 eax
  0002b	6a 01		 push	 1
  0002d	56		 push	 esi
  0002e	e8 00 00 00 00	 call	 ?PyTuple_GetInteger@@YA_NPAU_object@@HPAH@Z ; PyTuple_GetInteger
  00033	83 c4 0c	 add	 esp, 12			; 0000000cH
  00036	84 c0		 test	 al, al
  00038	74 e3		 je	 SHORT $LN9@chrmgrRese

; 284  : 		return Py_BadArgument();
; 285  : 
; 286  : 	int iCount;
; 287  : 	if (!PyTuple_GetInteger(poArgs, 2, &iCount))

  0003a	8d 45 fc	 lea	 eax, DWORD PTR _iCount$[ebp]
  0003d	50		 push	 eax
  0003e	6a 02		 push	 2
  00040	56		 push	 esi
  00041	e8 00 00 00 00	 call	 ?PyTuple_GetInteger@@YA_NPAU_object@@HPAH@Z ; PyTuple_GetInteger
  00046	83 c4 0c	 add	 esp, 12			; 0000000cH
  00049	84 c0		 test	 al, al
  0004b	74 d0		 je	 SHORT $LN9@chrmgrRese

; 288  : 		return Py_BadArgument();
; 289  : 
; 290  : 	CRaceData * pRaceData = CRaceManager::Instance().GetSelectedRaceDataPointer();

  0004d	8b 0d 00 00 00
	00		 mov	 ecx, DWORD PTR ?ms_singleton@?$CSingleton@VCRaceManager@@@@0PAVCRaceManager@@A ; CSingleton<CRaceManager>::ms_singleton
  00053	e8 00 00 00 00	 call	 ?GetSelectedRaceDataPointer@CRaceManager@@QAEPAVCRaceData@@XZ ; CRaceManager::GetSelectedRaceDataPointer

; 291  : 	if (!pRaceData)

  00058	85 c0		 test	 eax, eax
  0005a	75 12		 jne	 SHORT $LN1@chrmgrRese

; 292  : 		return Py_BuildException("RaceData has not selected!");

  0005c	68 00 00 00 00	 push	 OFFSET ??_C@_0BL@MNEPJNPF@RaceData?5has?5not?5selected?$CB?$AA@
  00061	e8 00 00 00 00	 call	 ?Py_BuildException@@YAPAU_object@@PBDZZ ; Py_BuildException
  00066	83 c4 04	 add	 esp, 4
  00069	5e		 pop	 esi

; 296  : }

  0006a	8b e5		 mov	 esp, ebp
  0006c	5d		 pop	 ebp
  0006d	c3		 ret	 0
$LN1@chrmgrRese:

; 293  : 
; 294  : 	pRaceData->ReserveComboAttack(iMotionMode, iComboType, iCount);

  0006e	ff 75 fc	 push	 DWORD PTR _iCount$[ebp]
  00071	8b c8		 mov	 ecx, eax
  00073	ff 75 f8	 push	 DWORD PTR _iComboType$[ebp]
  00076	ff 75 f4	 push	 DWORD PTR _iMotionMode$[ebp]
  00079	e8 00 00 00 00	 call	 ?ReserveComboAttack@CRaceData@@QAEXGGK@Z ; CRaceData::ReserveComboAttack

; 295  : 	return Py_BuildNone();

  0007e	e8 00 00 00 00	 call	 ?Py_BuildNone@@YAPAU_object@@XZ ; Py_BuildNone
  00083	5e		 pop	 esi

; 296  : }

  00084	8b e5		 mov	 esp, ebp
  00086	5d		 pop	 ebp
  00087	c3		 ret	 0
?chrmgrReserveComboAttackNew@@YAPAU_object@@PAU1@0@Z ENDP ; chrmgrReserveComboAttackNew
_TEXT	ENDS
; Function compile flags: /Ogtp
; File d:\metin2\metin2\client_source_clean\client_source_clean\source\userinterface\pythoncharactermanagermodule.cpp
;	COMDAT ?chrmgrRegisterComboAttackNew@@YAPAU_object@@PAU1@0@Z
_TEXT	SEGMENT
_iMotionMode$ = -16					; size = 4
_iComboType$ = -12					; size = 4
_iComboIndex$ = -8					; size = 4
_iMotionIndex$ = -4					; size = 4
_poSelf$ = 8						; size = 4
_poArgs$ = 12						; size = 4
?chrmgrRegisterComboAttackNew@@YAPAU_object@@PAU1@0@Z PROC ; chrmgrRegisterComboAttackNew, COMDAT

; 299  : {

  00000	55		 push	 ebp
  00001	8b ec		 mov	 ebp, esp
  00003	83 ec 10	 sub	 esp, 16			; 00000010H

; 300  : 	int iMotionMode;
; 301  : 	if (!PyTuple_GetInteger(poArgs, 0, &iMotionMode))

  00006	8d 45 f0	 lea	 eax, DWORD PTR _iMotionMode$[ebp]
  00009	56		 push	 esi
  0000a	8b 75 0c	 mov	 esi, DWORD PTR _poArgs$[ebp]
  0000d	50		 push	 eax
  0000e	6a 00		 push	 0
  00010	56		 push	 esi
  00011	e8 00 00 00 00	 call	 ?PyTuple_GetInteger@@YA_NPAU_object@@HPAH@Z ; PyTuple_GetInteger
  00016	83 c4 0c	 add	 esp, 12			; 0000000cH
  00019	84 c0		 test	 al, al
  0001b	75 0a		 jne	 SHORT $LN5@chrmgrRegi
$LN10@chrmgrRegi:

; 302  : 		return Py_BadArgument();

  0001d	e8 00 00 00 00	 call	 ?Py_BadArgument@@YAPAU_object@@XZ ; Py_BadArgument
  00022	5e		 pop	 esi

; 322  : }

  00023	8b e5		 mov	 esp, ebp
  00025	5d		 pop	 ebp
  00026	c3		 ret	 0
$LN5@chrmgrRegi:

; 303  : 
; 304  : 	int iComboType;
; 305  : 	if (!PyTuple_GetInteger(poArgs, 1, &iComboType))

  00027	8d 45 f4	 lea	 eax, DWORD PTR _iComboType$[ebp]
  0002a	50		 push	 eax
  0002b	6a 01		 push	 1
  0002d	56		 push	 esi
  0002e	e8 00 00 00 00	 call	 ?PyTuple_GetInteger@@YA_NPAU_object@@HPAH@Z ; PyTuple_GetInteger
  00033	83 c4 0c	 add	 esp, 12			; 0000000cH
  00036	84 c0		 test	 al, al
  00038	74 e3		 je	 SHORT $LN10@chrmgrRegi

; 306  : 		return Py_BadArgument();
; 307  : 
; 308  : 	int iComboIndex;
; 309  : 	if (!PyTuple_GetInteger(poArgs, 2, &iComboIndex))

  0003a	8d 45 f8	 lea	 eax, DWORD PTR _iComboIndex$[ebp]
  0003d	50		 push	 eax
  0003e	6a 02		 push	 2
  00040	56		 push	 esi
  00041	e8 00 00 00 00	 call	 ?PyTuple_GetInteger@@YA_NPAU_object@@HPAH@Z ; PyTuple_GetInteger
  00046	83 c4 0c	 add	 esp, 12			; 0000000cH
  00049	84 c0		 test	 al, al
  0004b	74 d0		 je	 SHORT $LN10@chrmgrRegi

; 310  : 		return Py_BadArgument();
; 311  : 
; 312  : 	int iMotionIndex;
; 313  : 	if (!PyTuple_GetInteger(poArgs, 3, &iMotionIndex))

  0004d	8d 45 fc	 lea	 eax, DWORD PTR _iMotionIndex$[ebp]
  00050	50		 push	 eax
  00051	6a 03		 push	 3
  00053	56		 push	 esi
  00054	e8 00 00 00 00	 call	 ?PyTuple_GetInteger@@YA_NPAU_object@@HPAH@Z ; PyTuple_GetInteger
  00059	83 c4 0c	 add	 esp, 12			; 0000000cH
  0005c	84 c0		 test	 al, al
  0005e	74 bd		 je	 SHORT $LN10@chrmgrRegi

; 314  : 		return Py_BadArgument();
; 315  : 
; 316  : 	CRaceData * pRaceData = CRaceManager::Instance().GetSelectedRaceDataPointer();

  00060	8b 0d 00 00 00
	00		 mov	 ecx, DWORD PTR ?ms_singleton@?$CSingleton@VCRaceManager@@@@0PAVCRaceManager@@A ; CSingleton<CRaceManager>::ms_singleton
  00066	e8 00 00 00 00	 call	 ?GetSelectedRaceDataPointer@CRaceManager@@QAEPAVCRaceData@@XZ ; CRaceManager::GetSelectedRaceDataPointer

; 317  : 	if (!pRaceData)

  0006b	85 c0		 test	 eax, eax
  0006d	75 12		 jne	 SHORT $LN1@chrmgrRegi

; 318  : 		return Py_BuildException("RaceData has not selected!");

  0006f	68 00 00 00 00	 push	 OFFSET ??_C@_0BL@MNEPJNPF@RaceData?5has?5not?5selected?$CB?$AA@
  00074	e8 00 00 00 00	 call	 ?Py_BuildException@@YAPAU_object@@PBDZZ ; Py_BuildException
  00079	83 c4 04	 add	 esp, 4
  0007c	5e		 pop	 esi

; 322  : }

  0007d	8b e5		 mov	 esp, ebp
  0007f	5d		 pop	 ebp
  00080	c3		 ret	 0
$LN1@chrmgrRegi:

; 319  : 
; 320  : 	pRaceData->RegisterComboAttack(iMotionMode, iComboType, iComboIndex, iMotionIndex);

  00081	ff 75 fc	 push	 DWORD PTR _iMotionIndex$[ebp]
  00084	8b c8		 mov	 ecx, eax
  00086	ff 75 f8	 push	 DWORD PTR _iComboIndex$[ebp]
  00089	ff 75 f4	 push	 DWORD PTR _iComboType$[ebp]
  0008c	ff 75 f0	 push	 DWORD PTR _iMotionMode$[ebp]
  0008f	e8 00 00 00 00	 call	 ?RegisterComboAttack@CRaceData@@QAEXGGKG@Z ; CRaceData::RegisterComboAttack

; 321  : 	return Py_BuildNone();

  00094	e8 00 00 00 00	 call	 ?Py_BuildNone@@YAPAU_object@@XZ ; Py_BuildNone
  00099	5e		 pop	 esi

; 322  : }

  0009a	8b e5		 mov	 esp, ebp
  0009c	5d		 pop	 ebp
  0009d	c3		 ret	 0
?chrmgrRegisterComboAttackNew@@YAPAU_object@@PAU1@0@Z ENDP ; chrmgrRegisterComboAttackNew
_TEXT	ENDS
; Function compile flags: /Ogtp
; File d:\metin2\metin2\client_source_clean\client_source_clean\source\userinterface\pythoncharactermanagermodule.cpp
;	COMDAT ?chrmgrLoadRaceData@@YAPAU_object@@PAU1@0@Z
_TEXT	SEGMENT
_szFileName$ = -4					; size = 4
_poSelf$ = 8						; size = 4
_poArgs$ = 12						; size = 4
?chrmgrLoadRaceData@@YAPAU_object@@PAU1@0@Z PROC	; chrmgrLoadRaceData, COMDAT

; 325  : {

  00000	55		 push	 ebp
  00001	8b ec		 mov	 ebp, esp
  00003	51		 push	 ecx

; 326  : 	char* szFileName;
; 327  : 	if (!PyTuple_GetString(poArgs, 0, &szFileName))

  00004	8d 45 fc	 lea	 eax, DWORD PTR _szFileName$[ebp]
  00007	50		 push	 eax
  00008	6a 00		 push	 0
  0000a	ff 75 0c	 push	 DWORD PTR _poArgs$[ebp]
  0000d	e8 00 00 00 00	 call	 ?PyTuple_GetString@@YA_NPAU_object@@HPAPAD@Z ; PyTuple_GetString
  00012	83 c4 0c	 add	 esp, 12			; 0000000cH
  00015	84 c0		 test	 al, al
  00017	75 09		 jne	 SHORT $LN3@chrmgrLoad

; 328  : 		return Py_BadArgument();

  00019	e8 00 00 00 00	 call	 ?Py_BadArgument@@YAPAU_object@@XZ ; Py_BadArgument

; 341  : }

  0001e	8b e5		 mov	 esp, ebp
  00020	5d		 pop	 ebp
  00021	c3		 ret	 0
$LN3@chrmgrLoad:

; 329  : 
; 330  : 	CRaceData * pRaceData = CRaceManager::Instance().GetSelectedRaceDataPointer();

  00022	8b 0d 00 00 00
	00		 mov	 ecx, DWORD PTR ?ms_singleton@?$CSingleton@VCRaceManager@@@@0PAVCRaceManager@@A ; CSingleton<CRaceManager>::ms_singleton
  00028	56		 push	 esi
  00029	e8 00 00 00 00	 call	 ?GetSelectedRaceDataPointer@CRaceManager@@QAEPAVCRaceData@@XZ ; CRaceManager::GetSelectedRaceDataPointer
  0002e	8b f0		 mov	 esi, eax

; 331  : 	if (!pRaceData)

  00030	85 f6		 test	 esi, esi
  00032	75 12		 jne	 SHORT $LN2@chrmgrLoad

; 332  : 		return Py_BuildException("RaceData has not selected!");

  00034	68 00 00 00 00	 push	 OFFSET ??_C@_0BL@MNEPJNPF@RaceData?5has?5not?5selected?$CB?$AA@
  00039	e8 00 00 00 00	 call	 ?Py_BuildException@@YAPAU_object@@PBDZZ ; Py_BuildException
  0003e	83 c4 04	 add	 esp, 4
  00041	5e		 pop	 esi

; 341  : }

  00042	8b e5		 mov	 esp, ebp
  00044	5d		 pop	 ebp
  00045	c3		 ret	 0
$LN2@chrmgrLoad:

; 333  : 
; 334  : 	const char * c_szFullFileName = CRaceManager::Instance().GetFullPathFileName(szFileName);

  00046	8b 0d 00 00 00
	00		 mov	 ecx, DWORD PTR ?ms_singleton@?$CSingleton@VCRaceManager@@@@0PAVCRaceManager@@A ; CSingleton<CRaceManager>::ms_singleton
  0004c	57		 push	 edi
  0004d	ff 75 fc	 push	 DWORD PTR _szFileName$[ebp]
  00050	e8 00 00 00 00	 call	 ?GetFullPathFileName@CRaceManager@@QAEPBDPBD@Z ; CRaceManager::GetFullPathFileName
  00055	8b f8		 mov	 edi, eax

; 335  : 	if (!pRaceData->LoadRaceData(c_szFullFileName))

  00057	8b ce		 mov	 ecx, esi
  00059	57		 push	 edi
  0005a	e8 00 00 00 00	 call	 ?LoadRaceData@CRaceData@@QAEHPBD@Z ; CRaceData::LoadRaceData
  0005f	85 c0		 test	 eax, eax
  00061	75 0e		 jne	 SHORT $LN1@chrmgrLoad

; 336  : 	{
; 337  : 		TraceError("Failed to load race data : %s\n", c_szFullFileName);

  00063	57		 push	 edi
  00064	68 00 00 00 00	 push	 OFFSET ??_C@_0BP@GOFKKANP@Failed?5to?5load?5race?5data?5?3?5?$CFs?6?$AA@
  00069	e8 00 00 00 00	 call	 ?TraceError@@YAXPBDZZ	; TraceError
  0006e	83 c4 08	 add	 esp, 8
$LN1@chrmgrLoad:

; 338  : 	}
; 339  : 
; 340  : 	return Py_BuildNone();

  00071	e8 00 00 00 00	 call	 ?Py_BuildNone@@YAPAU_object@@XZ ; Py_BuildNone
  00076	5f		 pop	 edi
  00077	5e		 pop	 esi

; 341  : }

  00078	8b e5		 mov	 esp, ebp
  0007a	5d		 pop	 ebp
  0007b	c3		 ret	 0
?chrmgrLoadRaceData@@YAPAU_object@@PAU1@0@Z ENDP	; chrmgrLoadRaceData
_TEXT	ENDS
; Function compile flags: /Ogtp
; File d:\metin2\metin2\client_source_clean\client_source_clean\source\userinterface\pythoncharactermanagermodule.cpp
;	COMDAT ?chrmgrLoadLocalRaceData@@YAPAU_object@@PAU1@0@Z
_TEXT	SEGMENT
_szFileName$ = -4					; size = 4
_poSelf$ = 8						; size = 4
_poArgs$ = 12						; size = 4
?chrmgrLoadLocalRaceData@@YAPAU_object@@PAU1@0@Z PROC	; chrmgrLoadLocalRaceData, COMDAT

; 344  : {

  00000	55		 push	 ebp
  00001	8b ec		 mov	 ebp, esp
  00003	51		 push	 ecx

; 345  : 	char* szFileName;
; 346  : 	if (!PyTuple_GetString(poArgs, 0, &szFileName))

  00004	8d 45 fc	 lea	 eax, DWORD PTR _szFileName$[ebp]
  00007	50		 push	 eax
  00008	6a 00		 push	 0
  0000a	ff 75 0c	 push	 DWORD PTR _poArgs$[ebp]
  0000d	e8 00 00 00 00	 call	 ?PyTuple_GetString@@YA_NPAU_object@@HPAPAD@Z ; PyTuple_GetString
  00012	83 c4 0c	 add	 esp, 12			; 0000000cH
  00015	84 c0		 test	 al, al
  00017	75 09		 jne	 SHORT $LN3@chrmgrLoad

; 347  : 		return Py_BadArgument();

  00019	e8 00 00 00 00	 call	 ?Py_BadArgument@@YAPAU_object@@XZ ; Py_BadArgument

; 359  : }

  0001e	8b e5		 mov	 esp, ebp
  00020	5d		 pop	 ebp
  00021	c3		 ret	 0
$LN3@chrmgrLoad:

; 348  : 
; 349  : 	CRaceData * pRaceData = CRaceManager::Instance().GetSelectedRaceDataPointer();

  00022	8b 0d 00 00 00
	00		 mov	 ecx, DWORD PTR ?ms_singleton@?$CSingleton@VCRaceManager@@@@0PAVCRaceManager@@A ; CSingleton<CRaceManager>::ms_singleton
  00028	e8 00 00 00 00	 call	 ?GetSelectedRaceDataPointer@CRaceManager@@QAEPAVCRaceData@@XZ ; CRaceManager::GetSelectedRaceDataPointer

; 350  : 	if (!pRaceData)

  0002d	85 c0		 test	 eax, eax
  0002f	75 11		 jne	 SHORT $LN2@chrmgrLoad

; 351  : 		return Py_BuildException("RaceData has not selected!");

  00031	68 00 00 00 00	 push	 OFFSET ??_C@_0BL@MNEPJNPF@RaceData?5has?5not?5selected?$CB?$AA@
  00036	e8 00 00 00 00	 call	 ?Py_BuildException@@YAPAU_object@@PBDZZ ; Py_BuildException
  0003b	83 c4 04	 add	 esp, 4

; 359  : }

  0003e	8b e5		 mov	 esp, ebp
  00040	5d		 pop	 ebp
  00041	c3		 ret	 0
$LN2@chrmgrLoad:

; 352  : 
; 353  : 	if (!pRaceData->LoadRaceData(szFileName))

  00042	ff 75 fc	 push	 DWORD PTR _szFileName$[ebp]
  00045	8b c8		 mov	 ecx, eax
  00047	e8 00 00 00 00	 call	 ?LoadRaceData@CRaceData@@QAEHPBD@Z ; CRaceData::LoadRaceData
  0004c	85 c0		 test	 eax, eax
  0004e	75 10		 jne	 SHORT $LN1@chrmgrLoad

; 354  : 	{
; 355  : 		TraceError("Failed to load race data : %s\n", szFileName);

  00050	ff 75 fc	 push	 DWORD PTR _szFileName$[ebp]
  00053	68 00 00 00 00	 push	 OFFSET ??_C@_0BP@GOFKKANP@Failed?5to?5load?5race?5data?5?3?5?$CFs?6?$AA@
  00058	e8 00 00 00 00	 call	 ?TraceError@@YAXPBDZZ	; TraceError
  0005d	83 c4 08	 add	 esp, 8
$LN1@chrmgrLoad:

; 356  : 	}
; 357  : 
; 358  : 	return Py_BuildNone();

  00060	e8 00 00 00 00	 call	 ?Py_BuildNone@@YAPAU_object@@XZ ; Py_BuildNone

; 359  : }

  00065	8b e5		 mov	 esp, ebp
  00067	5d		 pop	 ebp
  00068	c3		 ret	 0
?chrmgrLoadLocalRaceData@@YAPAU_object@@PAU1@0@Z ENDP	; chrmgrLoadLocalRaceData
_TEXT	ENDS
; Function compile flags: /Ogtp
; File d:\metin2\metin2\client_source_clean\client_source_clean\source\userinterface\pythoncharactermanagermodule.cpp
; File d:\metin2\metin2\client_source_clean\client_source_clean\source\eterlib\resource.h
; File c:\program files (x86)\microsoft visual studio 12.0\vc\include\xstring
; File c:\program files (x86)\microsoft visual studio 12.0\vc\include\xstddef
; File d:\metin2\metin2\client_source_clean\client_source_clean\source\userinterface\pythoncharactermanagermodule.cpp
;	COMDAT ?chrmgrRegisterCacheMotionData@@YAPAU_object@@PAU1@0@Z
_TEXT	SEGMENT
_iMode$ = -16						; size = 4
_iMotion$ = -12						; size = 4
_szFileName$ = -8					; size = 4
_iWeight$ = -4						; size = 4
_poSelf$ = 8						; size = 4
_poArgs$ = 12						; size = 4
?chrmgrRegisterCacheMotionData@@YAPAU_object@@PAU1@0@Z PROC ; chrmgrRegisterCacheMotionData, COMDAT

; 390  : {

  00000	55		 push	 ebp
  00001	8b ec		 mov	 ebp, esp
  00003	83 ec 10	 sub	 esp, 16			; 00000010H

; 391  : 	int iMode;
; 392  : 	if (!PyTuple_GetInteger(poArgs, 0, &iMode))

  00006	8d 45 f0	 lea	 eax, DWORD PTR _iMode$[ebp]
  00009	56		 push	 esi
  0000a	8b 75 0c	 mov	 esi, DWORD PTR _poArgs$[ebp]
  0000d	50		 push	 eax
  0000e	6a 00		 push	 0
  00010	56		 push	 esi
  00011	e8 00 00 00 00	 call	 ?PyTuple_GetInteger@@YA_NPAU_object@@HPAH@Z ; PyTuple_GetInteger
  00016	83 c4 0c	 add	 esp, 12			; 0000000cH
  00019	84 c0		 test	 al, al
  0001b	75 0a		 jne	 SHORT $LN5@chrmgrRegi
$LN24@chrmgrRegi:

; 393  : 		return Py_BadArgument();

  0001d	e8 00 00 00 00	 call	 ?Py_BadArgument@@YAPAU_object@@XZ ; Py_BadArgument
  00022	5e		 pop	 esi

; 418  : }

  00023	8b e5		 mov	 esp, ebp
  00025	5d		 pop	 ebp
  00026	c3		 ret	 0
$LN5@chrmgrRegi:

; 394  : 
; 395  : 	int iMotion;
; 396  : 	if (!PyTuple_GetInteger(poArgs, 1, &iMotion))

  00027	8d 45 f4	 lea	 eax, DWORD PTR _iMotion$[ebp]
  0002a	50		 push	 eax
  0002b	6a 01		 push	 1
  0002d	56		 push	 esi
  0002e	e8 00 00 00 00	 call	 ?PyTuple_GetInteger@@YA_NPAU_object@@HPAH@Z ; PyTuple_GetInteger
  00033	83 c4 0c	 add	 esp, 12			; 0000000cH
  00036	84 c0		 test	 al, al
  00038	74 e3		 je	 SHORT $LN24@chrmgrRegi

; 397  : 		return Py_BadArgument();
; 398  : 
; 399  : 	char * szFileName;
; 400  : 	if (!PyTuple_GetString(poArgs, 2, &szFileName))

  0003a	8d 45 f8	 lea	 eax, DWORD PTR _szFileName$[ebp]
  0003d	50		 push	 eax
  0003e	6a 02		 push	 2
  00040	56		 push	 esi
  00041	e8 00 00 00 00	 call	 ?PyTuple_GetString@@YA_NPAU_object@@HPAPAD@Z ; PyTuple_GetString
  00046	83 c4 0c	 add	 esp, 12			; 0000000cH
  00049	84 c0		 test	 al, al
  0004b	74 d0		 je	 SHORT $LN24@chrmgrRegi

; 401  : 		return Py_BadArgument();
; 402  : 
; 403  : 	int iWeight = 0;
; 404  : 	PyTuple_GetInteger(poArgs, 3, &iWeight);

  0004d	8d 45 fc	 lea	 eax, DWORD PTR _iWeight$[ebp]
  00050	c7 45 fc 00 00
	00 00		 mov	 DWORD PTR _iWeight$[ebp], 0
  00057	50		 push	 eax
  00058	6a 03		 push	 3
  0005a	56		 push	 esi
  0005b	e8 00 00 00 00	 call	 ?PyTuple_GetInteger@@YA_NPAU_object@@HPAH@Z ; PyTuple_GetInteger

; 405  : 	iWeight = MIN(100, iWeight);

  00060	ff 75 fc	 push	 DWORD PTR _iWeight$[ebp]
  00063	6a 64		 push	 100			; 00000064H
  00065	e8 00 00 00 00	 call	 ?MIN@@YAHHH@Z		; MIN

; 406  : 
; 407  : 	CRaceData * pRaceData = CRaceManager::Instance().GetSelectedRaceDataPointer();

  0006a	8b 0d 00 00 00
	00		 mov	 ecx, DWORD PTR ?ms_singleton@?$CSingleton@VCRaceManager@@@@0PAVCRaceManager@@A ; CSingleton<CRaceManager>::ms_singleton
  00070	83 c4 14	 add	 esp, 20			; 00000014H
  00073	89 45 fc	 mov	 DWORD PTR _iWeight$[ebp], eax
  00076	e8 00 00 00 00	 call	 ?GetSelectedRaceDataPointer@CRaceManager@@QAEPAVCRaceData@@XZ ; CRaceManager::GetSelectedRaceDataPointer
  0007b	8b f0		 mov	 esi, eax

; 408  : 	if (!pRaceData)

  0007d	85 f6		 test	 esi, esi
  0007f	75 12		 jne	 SHORT $LN2@chrmgrRegi

; 409  : 		return Py_BuildException("RaceData has not selected!");

  00081	68 00 00 00 00	 push	 OFFSET ??_C@_0BL@MNEPJNPF@RaceData?5has?5not?5selected?$CB?$AA@
  00086	e8 00 00 00 00	 call	 ?Py_BuildException@@YAPAU_object@@PBDZZ ; Py_BuildException
  0008b	83 c4 04	 add	 esp, 4
  0008e	5e		 pop	 esi

; 418  : }

  0008f	8b e5		 mov	 esp, ebp
  00091	5d		 pop	 ebp
  00092	c3		 ret	 0
$LN2@chrmgrRegi:

; 410  : 
; 411  : 	const char * c_szFullFileName = CRaceManager::Instance().GetFullPathFileName(szFileName);

  00093	ff 75 f8	 push	 DWORD PTR _szFileName$[ebp]
  00096	8b 0d 00 00 00
	00		 mov	 ecx, DWORD PTR ?ms_singleton@?$CSingleton@VCRaceManager@@@@0PAVCRaceManager@@A ; CSingleton<CRaceManager>::ms_singleton
  0009c	e8 00 00 00 00	 call	 ?GetFullPathFileName@CRaceManager@@QAEPBDPBD@Z ; CRaceManager::GetFullPathFileName

; 412  : 	CGraphicThing* pkMotionThing=pRaceData->RegisterMotionData(iMode, iMotion, c_szFullFileName, iWeight);

  000a1	ff 75 fc	 push	 DWORD PTR _iWeight$[ebp]
  000a4	8b ce		 mov	 ecx, esi
  000a6	50		 push	 eax
  000a7	ff 75 f4	 push	 DWORD PTR _iMotion$[ebp]
  000aa	ff 75 f0	 push	 DWORD PTR _iMode$[ebp]
  000ad	e8 00 00 00 00	 call	 ?RegisterMotionData@CRaceData@@QAEPAVCGraphicThing@@GGPBDE@Z ; CRaceData::RegisterMotionData

; 413  : 
; 414  : 	if (pkMotionThing)

  000b2	85 c0		 test	 eax, eax
  000b4	74 17		 je	 SHORT $LN1@chrmgrRegi
; File d:\metin2\metin2\client_source_clean\client_source_clean\source\eterlib\resource.h

; 46   : 		const char *	GetFileName() const			{ return m_stFileName.c_str();				}

  000b6	83 c0 0c	 add	 eax, 12			; 0000000cH
; File c:\program files (x86)\microsoft visual studio 12.0\vc\include\xstring

; 520  : 			: this->_Bx._Buf);

  000b9	83 78 14 10	 cmp	 DWORD PTR [eax+20], 16	; 00000010H
  000bd	72 02		 jb	 SHORT $LN18@chrmgrRegi
; File c:\program files (x86)\microsoft visual studio 12.0\vc\include\xstddef

; 95   : 		reinterpret_cast<const volatile char&>(_Val)))));

  000bf	8b 00		 mov	 eax, DWORD PTR [eax]
$LN18@chrmgrRegi:
; File d:\metin2\metin2\client_source_clean\client_source_clean\source\userinterface\pythoncharactermanagermodule.cpp

; 415  : 		CResourceManager::Instance().LoadStaticCache(pkMotionThing->GetFileName());

  000c1	8b 0d 00 00 00
	00		 mov	 ecx, DWORD PTR ?ms_singleton@?$CSingleton@VCResourceManager@@@@0PAVCResourceManager@@A ; CSingleton<CResourceManager>::ms_singleton
  000c7	50		 push	 eax
  000c8	e8 00 00 00 00	 call	 ?LoadStaticCache@CResourceManager@@QAEXPBD@Z ; CResourceManager::LoadStaticCache
$LN1@chrmgrRegi:

; 416  : 
; 417  : 	return Py_BuildNone();

  000cd	e8 00 00 00 00	 call	 ?Py_BuildNone@@YAPAU_object@@XZ ; Py_BuildNone
  000d2	5e		 pop	 esi

; 418  : }

  000d3	8b e5		 mov	 esp, ebp
  000d5	5d		 pop	 ebp
  000d6	c3		 ret	 0
?chrmgrRegisterCacheMotionData@@YAPAU_object@@PAU1@0@Z ENDP ; chrmgrRegisterCacheMotionData
_TEXT	ENDS
; Function compile flags: /Ogtp
; File d:\metin2\metin2\client_source_clean\client_source_clean\source\userinterface\pythoncharactermanagermodule.cpp
;	COMDAT ?chrmgrRegisterMotionData@@YAPAU_object@@PAU1@0@Z
_TEXT	SEGMENT
_iMode$ = -16						; size = 4
_iMotion$ = -12						; size = 4
_szFileName$ = -8					; size = 4
_iWeight$ = -4						; size = 4
_poSelf$ = 8						; size = 4
_poArgs$ = 12						; size = 4
?chrmgrRegisterMotionData@@YAPAU_object@@PAU1@0@Z PROC	; chrmgrRegisterMotionData, COMDAT

; 421  : {

  00000	55		 push	 ebp
  00001	8b ec		 mov	 ebp, esp
  00003	83 ec 10	 sub	 esp, 16			; 00000010H

; 422  : 	int iMode;
; 423  : 	if (!PyTuple_GetInteger(poArgs, 0, &iMode))

  00006	8d 45 f0	 lea	 eax, DWORD PTR _iMode$[ebp]
  00009	56		 push	 esi
  0000a	8b 75 0c	 mov	 esi, DWORD PTR _poArgs$[ebp]
  0000d	50		 push	 eax
  0000e	6a 00		 push	 0
  00010	56		 push	 esi
  00011	e8 00 00 00 00	 call	 ?PyTuple_GetInteger@@YA_NPAU_object@@HPAH@Z ; PyTuple_GetInteger
  00016	83 c4 0c	 add	 esp, 12			; 0000000cH
  00019	84 c0		 test	 al, al
  0001b	75 0a		 jne	 SHORT $LN4@chrmgrRegi
$LN11@chrmgrRegi:

; 424  : 		return Py_BadArgument();

  0001d	e8 00 00 00 00	 call	 ?Py_BadArgument@@YAPAU_object@@XZ ; Py_BadArgument
  00022	5e		 pop	 esi

; 446  : }

  00023	8b e5		 mov	 esp, ebp
  00025	5d		 pop	 ebp
  00026	c3		 ret	 0
$LN4@chrmgrRegi:

; 425  : 
; 426  : 	int iMotion;
; 427  : 	if (!PyTuple_GetInteger(poArgs, 1, &iMotion))

  00027	8d 45 f4	 lea	 eax, DWORD PTR _iMotion$[ebp]
  0002a	50		 push	 eax
  0002b	6a 01		 push	 1
  0002d	56		 push	 esi
  0002e	e8 00 00 00 00	 call	 ?PyTuple_GetInteger@@YA_NPAU_object@@HPAH@Z ; PyTuple_GetInteger
  00033	83 c4 0c	 add	 esp, 12			; 0000000cH
  00036	84 c0		 test	 al, al
  00038	74 e3		 je	 SHORT $LN11@chrmgrRegi

; 428  : 		return Py_BadArgument();
; 429  : 
; 430  : 	char * szFileName;
; 431  : 	if (!PyTuple_GetString(poArgs, 2, &szFileName))

  0003a	8d 45 f8	 lea	 eax, DWORD PTR _szFileName$[ebp]
  0003d	50		 push	 eax
  0003e	6a 02		 push	 2
  00040	56		 push	 esi
  00041	e8 00 00 00 00	 call	 ?PyTuple_GetString@@YA_NPAU_object@@HPAPAD@Z ; PyTuple_GetString
  00046	83 c4 0c	 add	 esp, 12			; 0000000cH
  00049	84 c0		 test	 al, al
  0004b	74 d0		 je	 SHORT $LN11@chrmgrRegi

; 432  : 		return Py_BadArgument();
; 433  : 
; 434  : 	int iWeight = 0;
; 435  : 	PyTuple_GetInteger(poArgs, 3, &iWeight);

  0004d	8d 45 fc	 lea	 eax, DWORD PTR _iWeight$[ebp]
  00050	c7 45 fc 00 00
	00 00		 mov	 DWORD PTR _iWeight$[ebp], 0
  00057	50		 push	 eax
  00058	6a 03		 push	 3
  0005a	56		 push	 esi
  0005b	e8 00 00 00 00	 call	 ?PyTuple_GetInteger@@YA_NPAU_object@@HPAH@Z ; PyTuple_GetInteger

; 436  : 	iWeight = MIN(100, iWeight);

  00060	ff 75 fc	 push	 DWORD PTR _iWeight$[ebp]
  00063	6a 64		 push	 100			; 00000064H
  00065	e8 00 00 00 00	 call	 ?MIN@@YAHHH@Z		; MIN

; 437  : 
; 438  : 	CRaceData * pRaceData = CRaceManager::Instance().GetSelectedRaceDataPointer();

  0006a	8b 0d 00 00 00
	00		 mov	 ecx, DWORD PTR ?ms_singleton@?$CSingleton@VCRaceManager@@@@0PAVCRaceManager@@A ; CSingleton<CRaceManager>::ms_singleton
  00070	83 c4 14	 add	 esp, 20			; 00000014H
  00073	89 45 fc	 mov	 DWORD PTR _iWeight$[ebp], eax
  00076	e8 00 00 00 00	 call	 ?GetSelectedRaceDataPointer@CRaceManager@@QAEPAVCRaceData@@XZ ; CRaceManager::GetSelectedRaceDataPointer
  0007b	8b f0		 mov	 esi, eax

; 439  : 	if (!pRaceData)

  0007d	85 f6		 test	 esi, esi
  0007f	75 12		 jne	 SHORT $LN1@chrmgrRegi

; 440  : 		return Py_BuildException("RaceData has not selected!");

  00081	68 00 00 00 00	 push	 OFFSET ??_C@_0BL@MNEPJNPF@RaceData?5has?5not?5selected?$CB?$AA@
  00086	e8 00 00 00 00	 call	 ?Py_BuildException@@YAPAU_object@@PBDZZ ; Py_BuildException
  0008b	83 c4 04	 add	 esp, 4
  0008e	5e		 pop	 esi

; 446  : }

  0008f	8b e5		 mov	 esp, ebp
  00091	5d		 pop	 ebp
  00092	c3		 ret	 0
$LN1@chrmgrRegi:

; 441  : 
; 442  : 	const char * c_szFullFileName = CRaceManager::Instance().GetFullPathFileName(szFileName);

  00093	ff 75 f8	 push	 DWORD PTR _szFileName$[ebp]
  00096	8b 0d 00 00 00
	00		 mov	 ecx, DWORD PTR ?ms_singleton@?$CSingleton@VCRaceManager@@@@0PAVCRaceManager@@A ; CSingleton<CRaceManager>::ms_singleton
  0009c	e8 00 00 00 00	 call	 ?GetFullPathFileName@CRaceManager@@QAEPBDPBD@Z ; CRaceManager::GetFullPathFileName

; 443  : 	pRaceData->RegisterMotionData(iMode, iMotion, c_szFullFileName, iWeight);

  000a1	ff 75 fc	 push	 DWORD PTR _iWeight$[ebp]
  000a4	8b ce		 mov	 ecx, esi
  000a6	50		 push	 eax
  000a7	ff 75 f4	 push	 DWORD PTR _iMotion$[ebp]
  000aa	ff 75 f0	 push	 DWORD PTR _iMode$[ebp]
  000ad	e8 00 00 00 00	 call	 ?RegisterMotionData@CRaceData@@QAEPAVCGraphicThing@@GGPBDE@Z ; CRaceData::RegisterMotionData

; 444  : 
; 445  : 	return Py_BuildNone();

  000b2	e8 00 00 00 00	 call	 ?Py_BuildNone@@YAPAU_object@@XZ ; Py_BuildNone
  000b7	5e		 pop	 esi

; 446  : }

  000b8	8b e5		 mov	 esp, ebp
  000ba	5d		 pop	 ebp
  000bb	c3		 ret	 0
?chrmgrRegisterMotionData@@YAPAU_object@@PAU1@0@Z ENDP	; chrmgrRegisterMotionData
_TEXT	ENDS
; Function compile flags: /Ogtp
; File d:\metin2\metin2\client_source_clean\client_source_clean\source\userinterface\pythoncharactermanagermodule.cpp
;	COMDAT ?chrmgrRegisterRaceSrcName@@YAPAU_object@@PAU1@0@Z
_TEXT	SEGMENT
_szName$ = -8						; size = 4
_szSrcName$ = -4					; size = 4
_poSelf$ = 8						; size = 4
_poArgs$ = 12						; size = 4
?chrmgrRegisterRaceSrcName@@YAPAU_object@@PAU1@0@Z PROC	; chrmgrRegisterRaceSrcName, COMDAT

; 449  : {

  00000	55		 push	 ebp
  00001	8b ec		 mov	 ebp, esp
  00003	83 ec 08	 sub	 esp, 8

; 450  : 	char * szName;
; 451  : 	if (!PyTuple_GetString(poArgs, 0, &szName))

  00006	8d 45 f8	 lea	 eax, DWORD PTR _szName$[ebp]
  00009	50		 push	 eax
  0000a	6a 00		 push	 0
  0000c	ff 75 0c	 push	 DWORD PTR _poArgs$[ebp]
  0000f	e8 00 00 00 00	 call	 ?PyTuple_GetString@@YA_NPAU_object@@HPAPAD@Z ; PyTuple_GetString
  00014	83 c4 0c	 add	 esp, 12			; 0000000cH
  00017	84 c0		 test	 al, al
  00019	75 09		 jne	 SHORT $LN2@chrmgrRegi
$LN7@chrmgrRegi:

; 452  : 		return Py_BadArgument();

  0001b	e8 00 00 00 00	 call	 ?Py_BadArgument@@YAPAU_object@@XZ ; Py_BadArgument

; 461  : }

  00020	8b e5		 mov	 esp, ebp
  00022	5d		 pop	 ebp
  00023	c3		 ret	 0
$LN2@chrmgrRegi:

; 453  : 
; 454  : 	char * szSrcName;
; 455  : 	if (!PyTuple_GetString(poArgs, 1, &szSrcName))

  00024	8d 45 fc	 lea	 eax, DWORD PTR _szSrcName$[ebp]
  00027	50		 push	 eax
  00028	6a 01		 push	 1
  0002a	ff 75 0c	 push	 DWORD PTR _poArgs$[ebp]
  0002d	e8 00 00 00 00	 call	 ?PyTuple_GetString@@YA_NPAU_object@@HPAPAD@Z ; PyTuple_GetString
  00032	83 c4 0c	 add	 esp, 12			; 0000000cH
  00035	84 c0		 test	 al, al
  00037	74 e2		 je	 SHORT $LN7@chrmgrRegi

; 456  : 		return Py_BadArgument();
; 457  : 
; 458  : 	CRaceManager::Instance().RegisterRaceSrcName(szName, szSrcName);

  00039	ff 75 fc	 push	 DWORD PTR _szSrcName$[ebp]
  0003c	8b 0d 00 00 00
	00		 mov	 ecx, DWORD PTR ?ms_singleton@?$CSingleton@VCRaceManager@@@@0PAVCRaceManager@@A ; CSingleton<CRaceManager>::ms_singleton
  00042	ff 75 f8	 push	 DWORD PTR _szName$[ebp]
  00045	e8 00 00 00 00	 call	 ?RegisterRaceSrcName@CRaceManager@@QAEXPBD0@Z ; CRaceManager::RegisterRaceSrcName

; 459  : 
; 460  : 	return Py_BuildNone();

  0004a	e8 00 00 00 00	 call	 ?Py_BuildNone@@YAPAU_object@@XZ ; Py_BuildNone

; 461  : }

  0004f	8b e5		 mov	 esp, ebp
  00051	5d		 pop	 ebp
  00052	c3		 ret	 0
?chrmgrRegisterRaceSrcName@@YAPAU_object@@PAU1@0@Z ENDP	; chrmgrRegisterRaceSrcName
_TEXT	ENDS
; Function compile flags: /Ogtp
; File d:\metin2\metin2\client_source_clean\client_source_clean\source\userinterface\pythoncharactermanagermodule.cpp
;	COMDAT ?chrmgrRegisterRaceName@@YAPAU_object@@PAU1@0@Z
_TEXT	SEGMENT
_iRaceIndex$ = -8					; size = 4
_szName$ = -4						; size = 4
_poSelf$ = 8						; size = 4
_poArgs$ = 12						; size = 4
?chrmgrRegisterRaceName@@YAPAU_object@@PAU1@0@Z PROC	; chrmgrRegisterRaceName, COMDAT

; 464  : {

  00000	55		 push	 ebp
  00001	8b ec		 mov	 ebp, esp
  00003	83 ec 08	 sub	 esp, 8

; 465  : 	int iRaceIndex;
; 466  : 	if (!PyTuple_GetInteger(poArgs, 0, &iRaceIndex))

  00006	8d 45 f8	 lea	 eax, DWORD PTR _iRaceIndex$[ebp]
  00009	50		 push	 eax
  0000a	6a 00		 push	 0
  0000c	ff 75 0c	 push	 DWORD PTR _poArgs$[ebp]
  0000f	e8 00 00 00 00	 call	 ?PyTuple_GetInteger@@YA_NPAU_object@@HPAH@Z ; PyTuple_GetInteger
  00014	83 c4 0c	 add	 esp, 12			; 0000000cH
  00017	84 c0		 test	 al, al
  00019	75 09		 jne	 SHORT $LN2@chrmgrRegi
$LN7@chrmgrRegi:

; 467  : 		return Py_BadArgument();

  0001b	e8 00 00 00 00	 call	 ?Py_BadArgument@@YAPAU_object@@XZ ; Py_BadArgument

; 476  : }

  00020	8b e5		 mov	 esp, ebp
  00022	5d		 pop	 ebp
  00023	c3		 ret	 0
$LN2@chrmgrRegi:

; 468  : 
; 469  : 	char * szName;
; 470  : 	if (!PyTuple_GetString(poArgs, 1, &szName))

  00024	8d 45 fc	 lea	 eax, DWORD PTR _szName$[ebp]
  00027	50		 push	 eax
  00028	6a 01		 push	 1
  0002a	ff 75 0c	 push	 DWORD PTR _poArgs$[ebp]
  0002d	e8 00 00 00 00	 call	 ?PyTuple_GetString@@YA_NPAU_object@@HPAPAD@Z ; PyTuple_GetString
  00032	83 c4 0c	 add	 esp, 12			; 0000000cH
  00035	84 c0		 test	 al, al
  00037	74 e2		 je	 SHORT $LN7@chrmgrRegi

; 471  : 		return Py_BadArgument();
; 472  : 
; 473  : 	CRaceManager::Instance().RegisterRaceName(iRaceIndex, szName);

  00039	ff 75 fc	 push	 DWORD PTR _szName$[ebp]
  0003c	8b 0d 00 00 00
	00		 mov	 ecx, DWORD PTR ?ms_singleton@?$CSingleton@VCRaceManager@@@@0PAVCRaceManager@@A ; CSingleton<CRaceManager>::ms_singleton
  00042	ff 75 f8	 push	 DWORD PTR _iRaceIndex$[ebp]
  00045	e8 00 00 00 00	 call	 ?RegisterRaceName@CRaceManager@@QAEXKPBD@Z ; CRaceManager::RegisterRaceName

; 474  : 
; 475  : 	return Py_BuildNone();

  0004a	e8 00 00 00 00	 call	 ?Py_BuildNone@@YAPAU_object@@XZ ; Py_BuildNone

; 476  : }

  0004f	8b e5		 mov	 esp, ebp
  00051	5d		 pop	 ebp
  00052	c3		 ret	 0
?chrmgrRegisterRaceName@@YAPAU_object@@PAU1@0@Z ENDP	; chrmgrRegisterRaceName
_TEXT	ENDS
; Function compile flags: /Ogtp
; File d:\metin2\metin2\client_source_clean\client_source_clean\source\userinterface\pythoncharactermanagermodule.cpp
;	COMDAT ?chrmgrSetShapeModel@@YAPAU_object@@PAU1@0@Z
_TEXT	SEGMENT
_eShape$ = -8						; size = 4
_szFileName$ = -4					; size = 4
_poSelf$ = 8						; size = 4
_poArgs$ = 12						; size = 4
?chrmgrSetShapeModel@@YAPAU_object@@PAU1@0@Z PROC	; chrmgrSetShapeModel, COMDAT

; 479  : {

  00000	55		 push	 ebp
  00001	8b ec		 mov	 ebp, esp
  00003	83 ec 08	 sub	 esp, 8

; 480  : 	int eShape;
; 481  : 	if (!PyTuple_GetInteger(poArgs, 0, &eShape))

  00006	8d 45 f8	 lea	 eax, DWORD PTR _eShape$[ebp]
  00009	50		 push	 eax
  0000a	6a 00		 push	 0
  0000c	ff 75 0c	 push	 DWORD PTR _poArgs$[ebp]
  0000f	e8 00 00 00 00	 call	 ?PyTuple_GetInteger@@YA_NPAU_object@@HPAH@Z ; PyTuple_GetInteger
  00014	83 c4 0c	 add	 esp, 12			; 0000000cH
  00017	84 c0		 test	 al, al
  00019	75 09		 jne	 SHORT $LN3@chrmgrSetS
$LN8@chrmgrSetS:

; 482  : 		return Py_BadArgument();

  0001b	e8 00 00 00 00	 call	 ?Py_BadArgument@@YAPAU_object@@XZ ; Py_BadArgument

; 495  : }

  00020	8b e5		 mov	 esp, ebp
  00022	5d		 pop	 ebp
  00023	c3		 ret	 0
$LN3@chrmgrSetS:

; 483  : 
; 484  : 	char * szFileName;
; 485  : 	if (!PyTuple_GetString(poArgs, 1, &szFileName))

  00024	8d 45 fc	 lea	 eax, DWORD PTR _szFileName$[ebp]
  00027	50		 push	 eax
  00028	6a 01		 push	 1
  0002a	ff 75 0c	 push	 DWORD PTR _poArgs$[ebp]
  0002d	e8 00 00 00 00	 call	 ?PyTuple_GetString@@YA_NPAU_object@@HPAPAD@Z ; PyTuple_GetString
  00032	83 c4 0c	 add	 esp, 12			; 0000000cH
  00035	84 c0		 test	 al, al
  00037	74 e2		 je	 SHORT $LN8@chrmgrSetS

; 486  : 		return Py_BadArgument();
; 487  : 
; 488  : 
; 489  : 	CRaceData * pRaceData = CRaceManager::Instance().GetSelectedRaceDataPointer();

  00039	8b 0d 00 00 00
	00		 mov	 ecx, DWORD PTR ?ms_singleton@?$CSingleton@VCRaceManager@@@@0PAVCRaceManager@@A ; CSingleton<CRaceManager>::ms_singleton
  0003f	e8 00 00 00 00	 call	 ?GetSelectedRaceDataPointer@CRaceManager@@QAEPAVCRaceData@@XZ ; CRaceManager::GetSelectedRaceDataPointer

; 490  : 	if (!pRaceData)

  00044	85 c0		 test	 eax, eax
  00046	75 11		 jne	 SHORT $LN1@chrmgrSetS

; 491  : 		return Py_BuildException("RaceData has not selected!");

  00048	68 00 00 00 00	 push	 OFFSET ??_C@_0BL@MNEPJNPF@RaceData?5has?5not?5selected?$CB?$AA@
  0004d	e8 00 00 00 00	 call	 ?Py_BuildException@@YAPAU_object@@PBDZZ ; Py_BuildException
  00052	83 c4 04	 add	 esp, 4

; 495  : }

  00055	8b e5		 mov	 esp, ebp
  00057	5d		 pop	 ebp
  00058	c3		 ret	 0
$LN1@chrmgrSetS:

; 492  : 
; 493  : 	pRaceData->SetShapeModel(eShape, szFileName);

  00059	ff 75 fc	 push	 DWORD PTR _szFileName$[ebp]
  0005c	8b c8		 mov	 ecx, eax
  0005e	ff 75 f8	 push	 DWORD PTR _eShape$[ebp]
  00061	e8 00 00 00 00	 call	 ?SetShapeModel@CRaceData@@QAEXIPBD@Z ; CRaceData::SetShapeModel

; 494  : 	return Py_BuildNone();

  00066	e8 00 00 00 00	 call	 ?Py_BuildNone@@YAPAU_object@@XZ ; Py_BuildNone

; 495  : }

  0006b	8b e5		 mov	 esp, ebp
  0006d	5d		 pop	 ebp
  0006e	c3		 ret	 0
?chrmgrSetShapeModel@@YAPAU_object@@PAU1@0@Z ENDP	; chrmgrSetShapeModel
_TEXT	ENDS
; Function compile flags: /Ogtp
; File d:\metin2\metin2\client_source_clean\client_source_clean\source\userinterface\pythoncharactermanagermodule.cpp
;	COMDAT ?chrmgrAppendShapeSkin@@YAPAU_object@@PAU1@0@Z
_TEXT	SEGMENT
_eShape$ = -16						; size = 4
_ePart$ = -12						; size = 4
_szSrcFileName$ = -8					; size = 4
_szDstFileName$ = -4					; size = 4
_poSelf$ = 8						; size = 4
_poArgs$ = 12						; size = 4
?chrmgrAppendShapeSkin@@YAPAU_object@@PAU1@0@Z PROC	; chrmgrAppendShapeSkin, COMDAT

; 498  : {

  00000	55		 push	 ebp
  00001	8b ec		 mov	 ebp, esp
  00003	83 ec 10	 sub	 esp, 16			; 00000010H

; 499  : 	int eShape;
; 500  : 	if (!PyTuple_GetInteger(poArgs, 0, &eShape))

  00006	8d 45 f0	 lea	 eax, DWORD PTR _eShape$[ebp]
  00009	56		 push	 esi
  0000a	8b 75 0c	 mov	 esi, DWORD PTR _poArgs$[ebp]
  0000d	50		 push	 eax
  0000e	6a 00		 push	 0
  00010	56		 push	 esi
  00011	e8 00 00 00 00	 call	 ?PyTuple_GetInteger@@YA_NPAU_object@@HPAH@Z ; PyTuple_GetInteger
  00016	83 c4 0c	 add	 esp, 12			; 0000000cH
  00019	84 c0		 test	 al, al
  0001b	75 0a		 jne	 SHORT $LN5@chrmgrAppe
$LN10@chrmgrAppe:

; 501  : 		return Py_BadArgument();

  0001d	e8 00 00 00 00	 call	 ?Py_BadArgument@@YAPAU_object@@XZ ; Py_BadArgument
  00022	5e		 pop	 esi

; 521  : }

  00023	8b e5		 mov	 esp, ebp
  00025	5d		 pop	 ebp
  00026	c3		 ret	 0
$LN5@chrmgrAppe:

; 502  : 
; 503  : 	int ePart;
; 504  : 	if (!PyTuple_GetInteger(poArgs, 1, &ePart))

  00027	8d 45 f4	 lea	 eax, DWORD PTR _ePart$[ebp]
  0002a	50		 push	 eax
  0002b	6a 01		 push	 1
  0002d	56		 push	 esi
  0002e	e8 00 00 00 00	 call	 ?PyTuple_GetInteger@@YA_NPAU_object@@HPAH@Z ; PyTuple_GetInteger
  00033	83 c4 0c	 add	 esp, 12			; 0000000cH
  00036	84 c0		 test	 al, al
  00038	74 e3		 je	 SHORT $LN10@chrmgrAppe

; 505  : 		return Py_BadArgument();
; 506  : 
; 507  : 	char * szSrcFileName;
; 508  : 	if (!PyTuple_GetString(poArgs, 2, &szSrcFileName))

  0003a	8d 45 f8	 lea	 eax, DWORD PTR _szSrcFileName$[ebp]
  0003d	50		 push	 eax
  0003e	6a 02		 push	 2
  00040	56		 push	 esi
  00041	e8 00 00 00 00	 call	 ?PyTuple_GetString@@YA_NPAU_object@@HPAPAD@Z ; PyTuple_GetString
  00046	83 c4 0c	 add	 esp, 12			; 0000000cH
  00049	84 c0		 test	 al, al
  0004b	74 d0		 je	 SHORT $LN10@chrmgrAppe

; 509  : 		return Py_BadArgument();
; 510  : 
; 511  : 	char * szDstFileName;
; 512  : 	if (!PyTuple_GetString(poArgs, 3, &szDstFileName))

  0004d	8d 45 fc	 lea	 eax, DWORD PTR _szDstFileName$[ebp]
  00050	50		 push	 eax
  00051	6a 03		 push	 3
  00053	56		 push	 esi
  00054	e8 00 00 00 00	 call	 ?PyTuple_GetString@@YA_NPAU_object@@HPAPAD@Z ; PyTuple_GetString
  00059	83 c4 0c	 add	 esp, 12			; 0000000cH
  0005c	84 c0		 test	 al, al
  0005e	74 bd		 je	 SHORT $LN10@chrmgrAppe

; 513  : 		return Py_BadArgument();
; 514  : 
; 515  : 	CRaceData * pRaceData = CRaceManager::Instance().GetSelectedRaceDataPointer();

  00060	8b 0d 00 00 00
	00		 mov	 ecx, DWORD PTR ?ms_singleton@?$CSingleton@VCRaceManager@@@@0PAVCRaceManager@@A ; CSingleton<CRaceManager>::ms_singleton
  00066	e8 00 00 00 00	 call	 ?GetSelectedRaceDataPointer@CRaceManager@@QAEPAVCRaceData@@XZ ; CRaceManager::GetSelectedRaceDataPointer

; 516  : 	if (!pRaceData)

  0006b	85 c0		 test	 eax, eax
  0006d	75 12		 jne	 SHORT $LN1@chrmgrAppe

; 517  : 		return Py_BuildException("RaceData has not selected!");

  0006f	68 00 00 00 00	 push	 OFFSET ??_C@_0BL@MNEPJNPF@RaceData?5has?5not?5selected?$CB?$AA@
  00074	e8 00 00 00 00	 call	 ?Py_BuildException@@YAPAU_object@@PBDZZ ; Py_BuildException
  00079	83 c4 04	 add	 esp, 4
  0007c	5e		 pop	 esi

; 521  : }

  0007d	8b e5		 mov	 esp, ebp
  0007f	5d		 pop	 ebp
  00080	c3		 ret	 0
$LN1@chrmgrAppe:

; 518  : 
; 519  : 	pRaceData->AppendShapeSkin(eShape, ePart, szSrcFileName, szDstFileName);

  00081	ff 75 fc	 push	 DWORD PTR _szDstFileName$[ebp]
  00084	8b c8		 mov	 ecx, eax
  00086	ff 75 f8	 push	 DWORD PTR _szSrcFileName$[ebp]
  00089	ff 75 f4	 push	 DWORD PTR _ePart$[ebp]
  0008c	ff 75 f0	 push	 DWORD PTR _eShape$[ebp]
  0008f	e8 00 00 00 00	 call	 ?AppendShapeSkin@CRaceData@@QAEXIIPBD0@Z ; CRaceData::AppendShapeSkin

; 520  : 	return Py_BuildNone();

  00094	e8 00 00 00 00	 call	 ?Py_BuildNone@@YAPAU_object@@XZ ; Py_BuildNone
  00099	5e		 pop	 esi

; 521  : }

  0009a	8b e5		 mov	 esp, ebp
  0009c	5d		 pop	 ebp
  0009d	c3		 ret	 0
?chrmgrAppendShapeSkin@@YAPAU_object@@PAU1@0@Z ENDP	; chrmgrAppendShapeSkin
_TEXT	ENDS
; Function compile flags: /Ogtp
; File d:\metin2\metin2\client_source_clean\client_source_clean\source\userinterface\pythoncharactermanagermodule.cpp
;	COMDAT ?chrmgrSetMovingSpeed@@YAPAU_object@@PAU1@0@Z
_TEXT	SEGMENT
_poSelf$ = 8						; size = 4
_poArgs$ = 12						; size = 4
?chrmgrSetMovingSpeed@@YAPAU_object@@PAU1@0@Z PROC	; chrmgrSetMovingSpeed, COMDAT

; 528  : #ifndef _DISTRIBUTE
; 529  : 	int	nMovSpd;
; 530  : 	if (!PyTuple_GetInteger(poArgs, 0, &nMovSpd))
; 531  : 		return Py_BadArgument();
; 532  : 
; 533  : 	if (nMovSpd<0)
; 534  : 		return Py_BuildException("MovingSpeed < 0");
; 535  : 	
; 536  : 	CInstanceBase * pkInst = CPythonCharacterManager::Instance().GetSelectedInstancePtr();
; 537  : 
; 538  : 	if (!pkInst)
; 539  : 		return Py_BuildException("MainCharacter has not selected!");
; 540  : 
; 541  : 	pkInst->SetMoveSpeed(nMovSpd);
; 542  : #endif
; 543  : 	return Py_BuildNone();

  00000	e9 00 00 00 00	 jmp	 ?Py_BuildNone@@YAPAU_object@@XZ ; Py_BuildNone
?chrmgrSetMovingSpeed@@YAPAU_object@@PAU1@0@Z ENDP	; chrmgrSetMovingSpeed
_TEXT	ENDS
; Function compile flags: /Ogtp
; File d:\metin2\metin2\client_source_clean\client_source_clean\source\userinterface\pythoncharactermanagermodule.cpp
;	COMDAT ?chrmgrRegisterEffect@@YAPAU_object@@PAU1@0@Z
_TEXT	SEGMENT
_eEftType$ = -12					; size = 4
_szBoneName$ = -8					; size = 4
_szPathName$ = -4					; size = 4
_poSelf$ = 8						; size = 4
_poArgs$ = 12						; size = 4
?chrmgrRegisterEffect@@YAPAU_object@@PAU1@0@Z PROC	; chrmgrRegisterEffect, COMDAT

; 547  : {

  00000	55		 push	 ebp
  00001	8b ec		 mov	 ebp, esp
  00003	83 ec 0c	 sub	 esp, 12			; 0000000cH

; 548  : 	int eEftType;
; 549  : 	if (!PyTuple_GetInteger(poArgs, 0, &eEftType))

  00006	8d 45 f4	 lea	 eax, DWORD PTR _eEftType$[ebp]
  00009	56		 push	 esi
  0000a	8b 75 0c	 mov	 esi, DWORD PTR _poArgs$[ebp]
  0000d	50		 push	 eax
  0000e	6a 00		 push	 0
  00010	56		 push	 esi
  00011	e8 00 00 00 00	 call	 ?PyTuple_GetInteger@@YA_NPAU_object@@HPAH@Z ; PyTuple_GetInteger
  00016	83 c4 0c	 add	 esp, 12			; 0000000cH
  00019	84 c0		 test	 al, al
  0001b	75 0a		 jne	 SHORT $LN3@chrmgrRegi
$LN6@chrmgrRegi:

; 550  : 		return Py_BadArgument();

  0001d	e8 00 00 00 00	 call	 ?Py_BadArgument@@YAPAU_object@@XZ ; Py_BadArgument
  00022	5e		 pop	 esi

; 562  : }

  00023	8b e5		 mov	 esp, ebp
  00025	5d		 pop	 ebp
  00026	c3		 ret	 0
$LN3@chrmgrRegi:

; 551  : 
; 552  : 	char * szBoneName;
; 553  : 	if (!PyTuple_GetString(poArgs, 1, &szBoneName))

  00027	8d 45 f8	 lea	 eax, DWORD PTR _szBoneName$[ebp]
  0002a	50		 push	 eax
  0002b	6a 01		 push	 1
  0002d	56		 push	 esi
  0002e	e8 00 00 00 00	 call	 ?PyTuple_GetString@@YA_NPAU_object@@HPAPAD@Z ; PyTuple_GetString
  00033	83 c4 0c	 add	 esp, 12			; 0000000cH
  00036	84 c0		 test	 al, al
  00038	74 e3		 je	 SHORT $LN6@chrmgrRegi

; 554  : 		return Py_BadArgument();
; 555  : 	
; 556  : 	char * szPathName;
; 557  : 	if (!PyTuple_GetString(poArgs, 2, &szPathName))

  0003a	8d 45 fc	 lea	 eax, DWORD PTR _szPathName$[ebp]
  0003d	50		 push	 eax
  0003e	6a 02		 push	 2
  00040	56		 push	 esi
  00041	e8 00 00 00 00	 call	 ?PyTuple_GetString@@YA_NPAU_object@@HPAPAD@Z ; PyTuple_GetString
  00046	83 c4 0c	 add	 esp, 12			; 0000000cH
  00049	84 c0		 test	 al, al
  0004b	74 d0		 je	 SHORT $LN6@chrmgrRegi

; 558  : 		return Py_BadArgument();
; 559  : 
; 560  : 	CInstanceBase::RegisterEffect(eEftType, szBoneName, szPathName, false);

  0004d	8b 55 f8	 mov	 edx, DWORD PTR _szBoneName$[ebp]
  00050	8b 4d f4	 mov	 ecx, DWORD PTR _eEftType$[ebp]
  00053	6a 00		 push	 0
  00055	ff 75 fc	 push	 DWORD PTR _szPathName$[ebp]
  00058	e8 00 00 00 00	 call	 ?RegisterEffect@CInstanceBase@@SA_NIPBD0_N@Z ; CInstanceBase::RegisterEffect
  0005d	83 c4 08	 add	 esp, 8

; 561  : 	return Py_BuildNone();

  00060	e8 00 00 00 00	 call	 ?Py_BuildNone@@YAPAU_object@@XZ ; Py_BuildNone
  00065	5e		 pop	 esi

; 562  : }

  00066	8b e5		 mov	 esp, ebp
  00068	5d		 pop	 ebp
  00069	c3		 ret	 0
?chrmgrRegisterEffect@@YAPAU_object@@PAU1@0@Z ENDP	; chrmgrRegisterEffect
_TEXT	ENDS
; Function compile flags: /Ogtp
; File d:\metin2\metin2\client_source_clean\client_source_clean\source\userinterface\pythoncharactermanagermodule.cpp
;	COMDAT ?chrmgrRegisterCacheEffect@@YAPAU_object@@PAU1@0@Z
_TEXT	SEGMENT
_eEftType$ = -12					; size = 4
_szBoneName$ = -8					; size = 4
_szPathName$ = -4					; size = 4
_poSelf$ = 8						; size = 4
_poArgs$ = 12						; size = 4
?chrmgrRegisterCacheEffect@@YAPAU_object@@PAU1@0@Z PROC	; chrmgrRegisterCacheEffect, COMDAT

; 565  : {

  00000	55		 push	 ebp
  00001	8b ec		 mov	 ebp, esp
  00003	83 ec 0c	 sub	 esp, 12			; 0000000cH

; 566  : 	int eEftType;
; 567  : 	if (!PyTuple_GetInteger(poArgs, 0, &eEftType))

  00006	8d 45 f4	 lea	 eax, DWORD PTR _eEftType$[ebp]
  00009	56		 push	 esi
  0000a	8b 75 0c	 mov	 esi, DWORD PTR _poArgs$[ebp]
  0000d	50		 push	 eax
  0000e	6a 00		 push	 0
  00010	56		 push	 esi
  00011	e8 00 00 00 00	 call	 ?PyTuple_GetInteger@@YA_NPAU_object@@HPAH@Z ; PyTuple_GetInteger
  00016	83 c4 0c	 add	 esp, 12			; 0000000cH
  00019	84 c0		 test	 al, al
  0001b	75 0a		 jne	 SHORT $LN3@chrmgrRegi
$LN6@chrmgrRegi:

; 568  : 		return Py_BadArgument();

  0001d	e8 00 00 00 00	 call	 ?Py_BadArgument@@YAPAU_object@@XZ ; Py_BadArgument
  00022	5e		 pop	 esi

; 581  : }

  00023	8b e5		 mov	 esp, ebp
  00025	5d		 pop	 ebp
  00026	c3		 ret	 0
$LN3@chrmgrRegi:

; 569  : 
; 570  : 	char * szBoneName;
; 571  : 	if (!PyTuple_GetString(poArgs, 1, &szBoneName))

  00027	8d 45 f8	 lea	 eax, DWORD PTR _szBoneName$[ebp]
  0002a	50		 push	 eax
  0002b	6a 01		 push	 1
  0002d	56		 push	 esi
  0002e	e8 00 00 00 00	 call	 ?PyTuple_GetString@@YA_NPAU_object@@HPAPAD@Z ; PyTuple_GetString
  00033	83 c4 0c	 add	 esp, 12			; 0000000cH
  00036	84 c0		 test	 al, al
  00038	74 e3		 je	 SHORT $LN6@chrmgrRegi

; 572  : 		return Py_BadArgument();
; 573  : 	
; 574  : 	char * szPathName;
; 575  : 	if (!PyTuple_GetString(poArgs, 2, &szPathName))

  0003a	8d 45 fc	 lea	 eax, DWORD PTR _szPathName$[ebp]
  0003d	50		 push	 eax
  0003e	6a 02		 push	 2
  00040	56		 push	 esi
  00041	e8 00 00 00 00	 call	 ?PyTuple_GetString@@YA_NPAU_object@@HPAPAD@Z ; PyTuple_GetString
  00046	83 c4 0c	 add	 esp, 12			; 0000000cH
  00049	84 c0		 test	 al, al
  0004b	74 d0		 je	 SHORT $LN6@chrmgrRegi

; 576  : 		return Py_BadArgument();
; 577  : 
; 578  : 	CInstanceBase::RegisterEffect(eEftType, szBoneName, szPathName, true);

  0004d	8b 55 f8	 mov	 edx, DWORD PTR _szBoneName$[ebp]
  00050	8b 4d f4	 mov	 ecx, DWORD PTR _eEftType$[ebp]
  00053	6a 01		 push	 1
  00055	ff 75 fc	 push	 DWORD PTR _szPathName$[ebp]
  00058	e8 00 00 00 00	 call	 ?RegisterEffect@CInstanceBase@@SA_NIPBD0_N@Z ; CInstanceBase::RegisterEffect
  0005d	83 c4 08	 add	 esp, 8

; 579  : 
; 580  : 	return Py_BuildNone();

  00060	e8 00 00 00 00	 call	 ?Py_BuildNone@@YAPAU_object@@XZ ; Py_BuildNone
  00065	5e		 pop	 esi

; 581  : }

  00066	8b e5		 mov	 esp, ebp
  00068	5d		 pop	 ebp
  00069	c3		 ret	 0
?chrmgrRegisterCacheEffect@@YAPAU_object@@PAU1@0@Z ENDP	; chrmgrRegisterCacheEffect
_TEXT	ENDS
; Function compile flags: /Ogtp
; File d:\metin2\metin2\client_source_clean\client_source_clean\source\userinterface\pythoncharactermanagermodule.cpp
;	COMDAT ?chrmgrSetDustGap@@YAPAU_object@@PAU1@0@Z
_TEXT	SEGMENT
_nGap$ = -4						; size = 4
_poSelf$ = 8						; size = 4
_poArgs$ = 12						; size = 4
?chrmgrSetDustGap@@YAPAU_object@@PAU1@0@Z PROC		; chrmgrSetDustGap, COMDAT

; 584  : {

  00000	55		 push	 ebp
  00001	8b ec		 mov	 ebp, esp
  00003	51		 push	 ecx

; 585  : 	int nGap;
; 586  : 	if (!PyTuple_GetInteger(poArgs, 0, &nGap))

  00004	8d 45 fc	 lea	 eax, DWORD PTR _nGap$[ebp]
  00007	50		 push	 eax
  00008	6a 00		 push	 0
  0000a	ff 75 0c	 push	 DWORD PTR _poArgs$[ebp]
  0000d	e8 00 00 00 00	 call	 ?PyTuple_GetInteger@@YA_NPAU_object@@HPAH@Z ; PyTuple_GetInteger
  00012	83 c4 0c	 add	 esp, 12			; 0000000cH
  00015	84 c0		 test	 al, al
  00017	75 09		 jne	 SHORT $LN1@chrmgrSetD

; 587  : 		return Py_BadArgument();

  00019	e8 00 00 00 00	 call	 ?Py_BadArgument@@YAPAU_object@@XZ ; Py_BadArgument

; 591  : }

  0001e	8b e5		 mov	 esp, ebp
  00020	5d		 pop	 ebp
  00021	c3		 ret	 0
$LN1@chrmgrSetD:
  00022	66 0f 6e 45 fc	 movd	 xmm0, DWORD PTR _nGap$[ebp]

; 588  : 
; 589  : 	CInstanceBase::SetDustGap(nGap);

  00027	0f 5b c0	 cvtdq2ps xmm0, xmm0
  0002a	e8 00 00 00 00	 call	 ?SetDustGap@CInstanceBase@@SAXM@Z ; CInstanceBase::SetDustGap

; 590  : 	return Py_BuildNone();

  0002f	e8 00 00 00 00	 call	 ?Py_BuildNone@@YAPAU_object@@XZ ; Py_BuildNone

; 591  : }

  00034	8b e5		 mov	 esp, ebp
  00036	5d		 pop	 ebp
  00037	c3		 ret	 0
?chrmgrSetDustGap@@YAPAU_object@@PAU1@0@Z ENDP		; chrmgrSetDustGap
_TEXT	ENDS
; Function compile flags: /Ogtp
; File d:\metin2\metin2\client_source_clean\client_source_clean\source\userinterface\pythoncharactermanagermodule.cpp
;	COMDAT ?chrmgrSetHorseDustGap@@YAPAU_object@@PAU1@0@Z
_TEXT	SEGMENT
_nGap$ = -4						; size = 4
_poSelf$ = 8						; size = 4
_poArgs$ = 12						; size = 4
?chrmgrSetHorseDustGap@@YAPAU_object@@PAU1@0@Z PROC	; chrmgrSetHorseDustGap, COMDAT

; 594  : {

  00000	55		 push	 ebp
  00001	8b ec		 mov	 ebp, esp
  00003	51		 push	 ecx

; 595  : 	int nGap;
; 596  : 	if (!PyTuple_GetInteger(poArgs, 0, &nGap))

  00004	8d 45 fc	 lea	 eax, DWORD PTR _nGap$[ebp]
  00007	50		 push	 eax
  00008	6a 00		 push	 0
  0000a	ff 75 0c	 push	 DWORD PTR _poArgs$[ebp]
  0000d	e8 00 00 00 00	 call	 ?PyTuple_GetInteger@@YA_NPAU_object@@HPAH@Z ; PyTuple_GetInteger
  00012	83 c4 0c	 add	 esp, 12			; 0000000cH
  00015	84 c0		 test	 al, al
  00017	75 09		 jne	 SHORT $LN1@chrmgrSetH

; 597  : 		return Py_BadArgument();

  00019	e8 00 00 00 00	 call	 ?Py_BadArgument@@YAPAU_object@@XZ ; Py_BadArgument

; 601  : }

  0001e	8b e5		 mov	 esp, ebp
  00020	5d		 pop	 ebp
  00021	c3		 ret	 0
$LN1@chrmgrSetH:
  00022	66 0f 6e 45 fc	 movd	 xmm0, DWORD PTR _nGap$[ebp]

; 598  : 
; 599  : 	CInstanceBase::SetHorseDustGap(nGap);

  00027	0f 5b c0	 cvtdq2ps xmm0, xmm0
  0002a	e8 00 00 00 00	 call	 ?SetHorseDustGap@CInstanceBase@@SAXM@Z ; CInstanceBase::SetHorseDustGap

; 600  : 	return Py_BuildNone();

  0002f	e8 00 00 00 00	 call	 ?Py_BuildNone@@YAPAU_object@@XZ ; Py_BuildNone

; 601  : }

  00034	8b e5		 mov	 esp, ebp
  00036	5d		 pop	 ebp
  00037	c3		 ret	 0
?chrmgrSetHorseDustGap@@YAPAU_object@@PAU1@0@Z ENDP	; chrmgrSetHorseDustGap
_TEXT	ENDS
; Function compile flags: /Ogtp
; File d:\metin2\metin2\client_source_clean\client_source_clean\source\userinterface\pythoncharactermanagermodule.cpp
;	COMDAT ?chrmgrToggleDirectionLine@@YAPAU_object@@PAU1@0@Z
_TEXT	SEGMENT
_poSelf$ = 8						; size = 4
_poArgs$ = 12						; size = 4
?chrmgrToggleDirectionLine@@YAPAU_object@@PAU1@0@Z PROC	; chrmgrToggleDirectionLine, COMDAT

; 605  : 	static bool s_isVisible=true;
; 606  : 	CActorInstance::ShowDirectionLine(s_isVisible);

  00000	0f b6 05 00 00
	00 00		 movzx	 eax, BYTE PTR ?s_isVisible@?1??chrmgrToggleDirectionLine@@YAPAU_object@@PAU2@0@Z@4_NA
  00007	50		 push	 eax
  00008	e8 00 00 00 00	 call	 ?ShowDirectionLine@CActorInstance@@SAX_N@Z ; CActorInstance::ShowDirectionLine
  0000d	83 c4 04	 add	 esp, 4

; 607  : 
; 608  : 	s_isVisible=!s_isVisible;

  00010	80 3d 00 00 00
	00 00		 cmp	 BYTE PTR ?s_isVisible@?1??chrmgrToggleDirectionLine@@YAPAU_object@@PAU2@0@Z@4_NA, 0
  00017	0f 94 05 00 00
	00 00		 sete	 BYTE PTR ?s_isVisible@?1??chrmgrToggleDirectionLine@@YAPAU_object@@PAU2@0@Z@4_NA

; 609  : 	return Py_BuildNone();

  0001e	e9 00 00 00 00	 jmp	 ?Py_BuildNone@@YAPAU_object@@XZ ; Py_BuildNone
?chrmgrToggleDirectionLine@@YAPAU_object@@PAU1@0@Z ENDP	; chrmgrToggleDirectionLine
_TEXT	ENDS
; Function compile flags: /Ogtp
; File d:\metin2\metin2\client_source_clean\client_source_clean\source\userinterface\pythoncharactermanagermodule.cpp
;	COMDAT ?chrmgrRegisterPointEffect@@YAPAU_object@@PAU1@0@Z
_TEXT	SEGMENT
_iEft$ = -8						; size = 4
_szFileName$ = -4					; size = 4
_poSelf$ = 8						; size = 4
_poArgs$ = 12						; size = 4
?chrmgrRegisterPointEffect@@YAPAU_object@@PAU1@0@Z PROC	; chrmgrRegisterPointEffect, COMDAT

; 613  : {

  00000	55		 push	 ebp
  00001	8b ec		 mov	 ebp, esp
  00003	83 ec 08	 sub	 esp, 8

; 614  : 	int iEft;
; 615  : 	if (!PyTuple_GetInteger(poArgs, 0, &iEft))

  00006	8d 45 f8	 lea	 eax, DWORD PTR _iEft$[ebp]
  00009	50		 push	 eax
  0000a	6a 00		 push	 0
  0000c	ff 75 0c	 push	 DWORD PTR _poArgs$[ebp]
  0000f	e8 00 00 00 00	 call	 ?PyTuple_GetInteger@@YA_NPAU_object@@HPAH@Z ; PyTuple_GetInteger
  00014	83 c4 0c	 add	 esp, 12			; 0000000cH
  00017	84 c0		 test	 al, al
  00019	75 09		 jne	 SHORT $LN2@chrmgrRegi
$LN7@chrmgrRegi:

; 616  : 		return Py_BadArgument();

  0001b	e8 00 00 00 00	 call	 ?Py_BadArgument@@YAPAU_object@@XZ ; Py_BadArgument

; 625  : }

  00020	8b e5		 mov	 esp, ebp
  00022	5d		 pop	 ebp
  00023	c3		 ret	 0
$LN2@chrmgrRegi:

; 617  : 
; 618  : 	char * szFileName;
; 619  : 	if (!PyTuple_GetString(poArgs, 1, &szFileName))

  00024	8d 45 fc	 lea	 eax, DWORD PTR _szFileName$[ebp]
  00027	50		 push	 eax
  00028	6a 01		 push	 1
  0002a	ff 75 0c	 push	 DWORD PTR _poArgs$[ebp]
  0002d	e8 00 00 00 00	 call	 ?PyTuple_GetString@@YA_NPAU_object@@HPAPAD@Z ; PyTuple_GetString
  00032	83 c4 0c	 add	 esp, 12			; 0000000cH
  00035	84 c0		 test	 al, al
  00037	74 e2		 je	 SHORT $LN7@chrmgrRegi

; 620  : 		return Py_BadArgument();
; 621  : 
; 622  : 	CPythonCharacterManager& rkChrMgr=CPythonCharacterManager::Instance();
; 623  : 	rkChrMgr.RegisterPointEffect(iEft, szFileName);

  00039	ff 75 fc	 push	 DWORD PTR _szFileName$[ebp]
  0003c	8b 0d 00 00 00
	00		 mov	 ecx, DWORD PTR ?ms_singleton@?$CSingleton@VCPythonCharacterManager@@@@0PAVCPythonCharacterManager@@A ; CSingleton<CPythonCharacterManager>::ms_singleton
  00042	ff 75 f8	 push	 DWORD PTR _iEft$[ebp]
  00045	e8 00 00 00 00	 call	 ?RegisterPointEffect@CPythonCharacterManager@@QAE_NKPBD@Z ; CPythonCharacterManager::RegisterPointEffect

; 624  : 	return Py_BuildNone();

  0004a	e8 00 00 00 00	 call	 ?Py_BuildNone@@YAPAU_object@@XZ ; Py_BuildNone

; 625  : }

  0004f	8b e5		 mov	 esp, ebp
  00051	5d		 pop	 ebp
  00052	c3		 ret	 0
?chrmgrRegisterPointEffect@@YAPAU_object@@PAU1@0@Z ENDP	; chrmgrRegisterPointEffect
_TEXT	ENDS
; Function compile flags: /Ogtp
; File d:\metin2\metin2\client_source_clean\client_source_clean\source\userinterface\pythoncharactermanagermodule.cpp
;	COMDAT ?chrmgrShowPointEffect@@YAPAU_object@@PAU1@0@Z
_TEXT	SEGMENT
_nEft$ = -8						; size = 4
_nVID$ = -4						; size = 4
_poSelf$ = 8						; size = 4
_poArgs$ = 12						; size = 4
?chrmgrShowPointEffect@@YAPAU_object@@PAU1@0@Z PROC	; chrmgrShowPointEffect, COMDAT

; 628  : {

  00000	55		 push	 ebp
  00001	8b ec		 mov	 ebp, esp
  00003	83 ec 08	 sub	 esp, 8

; 629  : 	int nVID;
; 630  : 	if (!PyTuple_GetInteger(poArgs, 0, &nVID))

  00006	8d 45 fc	 lea	 eax, DWORD PTR _nVID$[ebp]
  00009	50		 push	 eax
  0000a	6a 00		 push	 0
  0000c	ff 75 0c	 push	 DWORD PTR _poArgs$[ebp]
  0000f	e8 00 00 00 00	 call	 ?PyTuple_GetInteger@@YA_NPAU_object@@HPAH@Z ; PyTuple_GetInteger
  00014	83 c4 0c	 add	 esp, 12			; 0000000cH
  00017	84 c0		 test	 al, al
  00019	75 09		 jne	 SHORT $LN2@chrmgrShow
$LN7@chrmgrShow:

; 631  : 		return Py_BadArgument();

  0001b	e8 00 00 00 00	 call	 ?Py_BadArgument@@YAPAU_object@@XZ ; Py_BadArgument

; 640  : }

  00020	8b e5		 mov	 esp, ebp
  00022	5d		 pop	 ebp
  00023	c3		 ret	 0
$LN2@chrmgrShow:

; 632  : 
; 633  : 	int nEft;
; 634  : 	if (!PyTuple_GetInteger(poArgs, 1, &nEft))

  00024	8d 45 f8	 lea	 eax, DWORD PTR _nEft$[ebp]
  00027	50		 push	 eax
  00028	6a 01		 push	 1
  0002a	ff 75 0c	 push	 DWORD PTR _poArgs$[ebp]
  0002d	e8 00 00 00 00	 call	 ?PyTuple_GetInteger@@YA_NPAU_object@@HPAH@Z ; PyTuple_GetInteger
  00032	83 c4 0c	 add	 esp, 12			; 0000000cH
  00035	84 c0		 test	 al, al
  00037	74 e2		 je	 SHORT $LN7@chrmgrShow

; 635  : 		return Py_BadArgument();
; 636  : 
; 637  : 	CPythonCharacterManager & rkChrMgr = CPythonCharacterManager::Instance();
; 638  : 	rkChrMgr.ShowPointEffect(nEft, nVID >= 0 ? nVID : 0xffffffff);

  00039	8b 45 fc	 mov	 eax, DWORD PTR _nVID$[ebp]
  0003c	83 c9 ff	 or	 ecx, -1
  0003f	85 c0		 test	 eax, eax
  00041	0f 49 c8	 cmovns	 ecx, eax
  00044	51		 push	 ecx
  00045	ff 75 f8	 push	 DWORD PTR _nEft$[ebp]
  00048	8b 0d 00 00 00
	00		 mov	 ecx, DWORD PTR ?ms_singleton@?$CSingleton@VCPythonCharacterManager@@@@0PAVCPythonCharacterManager@@A ; CSingleton<CPythonCharacterManager>::ms_singleton
  0004e	e8 00 00 00 00	 call	 ?ShowPointEffect@CPythonCharacterManager@@QAEXKK@Z ; CPythonCharacterManager::ShowPointEffect

; 639  : 	return Py_BuildNone();

  00053	e8 00 00 00 00	 call	 ?Py_BuildNone@@YAPAU_object@@XZ ; Py_BuildNone

; 640  : }

  00058	8b e5		 mov	 esp, ebp
  0005a	5d		 pop	 ebp
  0005b	c3		 ret	 0
?chrmgrShowPointEffect@@YAPAU_object@@PAU1@0@Z ENDP	; chrmgrShowPointEffect
_TEXT	ENDS
; Function compile flags: /Ogtp
; File d:\metin2\metin2\client_source_clean\client_source_clean\source\userinterface\pythoncharactermanagermodule.cpp
;	COMDAT ?SCRIPT_SetAffect@CPythonCharacterManager@@QAEXKKH@Z
_TEXT	SEGMENT
_dwVID$ = 8						; size = 4
_eState$ = 12						; size = 4
_isVisible$ = 16					; size = 4
?SCRIPT_SetAffect@CPythonCharacterManager@@QAEXKKH@Z PROC ; CPythonCharacterManager::SCRIPT_SetAffect, COMDAT
; _this$ = ecx

; 644  : {

  00000	55		 push	 ebp
  00001	8b ec		 mov	 ebp, esp

; 645  : 	CInstanceBase * pkInstSel = (dwVID == 0xffffffff) ? GetSelectedInstancePtr() : GetInstancePtr(dwVID);

  00003	8b 55 08	 mov	 edx, DWORD PTR _dwVID$[ebp]
  00006	83 fa ff	 cmp	 edx, -1
  00009	75 07		 jne	 SHORT $LN4@SCRIPT_Set
  0000b	e8 00 00 00 00	 call	 ?GetSelectedInstancePtr@CPythonCharacterManager@@QAEPAVCInstanceBase@@XZ ; CPythonCharacterManager::GetSelectedInstancePtr
  00010	eb 0a		 jmp	 SHORT $LN6@SCRIPT_Set
$LN4@SCRIPT_Set:
  00012	8b 41 04	 mov	 eax, DWORD PTR [ecx+4]
  00015	83 c1 04	 add	 ecx, 4
  00018	52		 push	 edx
  00019	ff 50 08	 call	 DWORD PTR [eax+8]
$LN6@SCRIPT_Set:
  0001c	8b c8		 mov	 ecx, eax

; 646  : 	if (!pkInstSel)

  0001e	85 c9		 test	 ecx, ecx
  00020	74 13		 je	 SHORT $LN2@SCRIPT_Set

; 647  : 		return;
; 648  : 
; 649  : 	pkInstSel->SCRIPT_SetAffect(eState, isVisible ? true : false);

  00022	83 7d 10 00	 cmp	 DWORD PTR _isVisible$[ebp], 0
  00026	0f 95 c0	 setne	 al
  00029	0f b6 c0	 movzx	 eax, al
  0002c	50		 push	 eax
  0002d	ff 75 0c	 push	 DWORD PTR _eState$[ebp]
  00030	e8 00 00 00 00	 call	 ?SCRIPT_SetAffect@CInstanceBase@@QAEXI_N@Z ; CInstanceBase::SCRIPT_SetAffect
$LN2@SCRIPT_Set:

; 650  : }

  00035	5d		 pop	 ebp
  00036	c2 0c 00	 ret	 12			; 0000000cH
?SCRIPT_SetAffect@CPythonCharacterManager@@QAEXKKH@Z ENDP ; CPythonCharacterManager::SCRIPT_SetAffect
_TEXT	ENDS
; Function compile flags: /Ogtp
; File d:\metin2\metin2\client_source_clean\client_source_clean\source\userinterface\pythoncharactermanagermodule.cpp
;	COMDAT ?chrmgrSetAffect@@YAPAU_object@@PAU1@0@Z
_TEXT	SEGMENT
_nVID$ = -12						; size = 4
_nEft$ = -8						; size = 4
_nVisible$ = -4						; size = 4
_poSelf$ = 8						; size = 4
_poArgs$ = 12						; size = 4
?chrmgrSetAffect@@YAPAU_object@@PAU1@0@Z PROC		; chrmgrSetAffect, COMDAT

; 653  : {

  00000	55		 push	 ebp
  00001	8b ec		 mov	 ebp, esp
  00003	83 ec 0c	 sub	 esp, 12			; 0000000cH

; 654  : 	int nVID;
; 655  : 	if (!PyTuple_GetInteger(poArgs, 0, &nVID))

  00006	8d 45 f4	 lea	 eax, DWORD PTR _nVID$[ebp]
  00009	56		 push	 esi
  0000a	8b 75 0c	 mov	 esi, DWORD PTR _poArgs$[ebp]
  0000d	50		 push	 eax
  0000e	6a 00		 push	 0
  00010	56		 push	 esi
  00011	e8 00 00 00 00	 call	 ?PyTuple_GetInteger@@YA_NPAU_object@@HPAH@Z ; PyTuple_GetInteger
  00016	83 c4 0c	 add	 esp, 12			; 0000000cH
  00019	84 c0		 test	 al, al
  0001b	75 0a		 jne	 SHORT $LN3@chrmgrSetA
$LN8@chrmgrSetA:

; 656  : 		return Py_BadArgument();

  0001d	e8 00 00 00 00	 call	 ?Py_BadArgument@@YAPAU_object@@XZ ; Py_BadArgument
  00022	5e		 pop	 esi

; 669  : }

  00023	8b e5		 mov	 esp, ebp
  00025	5d		 pop	 ebp
  00026	c3		 ret	 0
$LN3@chrmgrSetA:

; 657  : 
; 658  : 	int nEft;
; 659  : 	if (!PyTuple_GetInteger(poArgs, 1, &nEft))

  00027	8d 45 f8	 lea	 eax, DWORD PTR _nEft$[ebp]
  0002a	50		 push	 eax
  0002b	6a 01		 push	 1
  0002d	56		 push	 esi
  0002e	e8 00 00 00 00	 call	 ?PyTuple_GetInteger@@YA_NPAU_object@@HPAH@Z ; PyTuple_GetInteger
  00033	83 c4 0c	 add	 esp, 12			; 0000000cH
  00036	84 c0		 test	 al, al
  00038	74 e3		 je	 SHORT $LN8@chrmgrSetA

; 660  : 		return Py_BadArgument();
; 661  : 
; 662  : 	int nVisible;
; 663  : 	if (!PyTuple_GetInteger(poArgs, 2, &nVisible))

  0003a	8d 45 fc	 lea	 eax, DWORD PTR _nVisible$[ebp]
  0003d	50		 push	 eax
  0003e	6a 02		 push	 2
  00040	56		 push	 esi
  00041	e8 00 00 00 00	 call	 ?PyTuple_GetInteger@@YA_NPAU_object@@HPAH@Z ; PyTuple_GetInteger
  00046	83 c4 0c	 add	 esp, 12			; 0000000cH
  00049	84 c0		 test	 al, al
  0004b	74 d0		 je	 SHORT $LN8@chrmgrSetA

; 664  : 		return Py_BadArgument();
; 665  : 
; 666  : 	CPythonCharacterManager & rkChrMgr = CPythonCharacterManager::Instance();
; 667  : 	rkChrMgr.SCRIPT_SetAffect(nVID >= 0 ? nVID : 0xffffffff, nEft, nVisible);

  0004d	ff 75 fc	 push	 DWORD PTR _nVisible$[ebp]
  00050	8b 45 f4	 mov	 eax, DWORD PTR _nVID$[ebp]
  00053	83 c9 ff	 or	 ecx, -1
  00056	ff 75 f8	 push	 DWORD PTR _nEft$[ebp]
  00059	85 c0		 test	 eax, eax
  0005b	0f 49 c8	 cmovns	 ecx, eax
  0005e	51		 push	 ecx
  0005f	8b 0d 00 00 00
	00		 mov	 ecx, DWORD PTR ?ms_singleton@?$CSingleton@VCPythonCharacterManager@@@@0PAVCPythonCharacterManager@@A ; CSingleton<CPythonCharacterManager>::ms_singleton
  00065	e8 00 00 00 00	 call	 ?SCRIPT_SetAffect@CPythonCharacterManager@@QAEXKKH@Z ; CPythonCharacterManager::SCRIPT_SetAffect

; 668  : 	return Py_BuildNone();

  0006a	e8 00 00 00 00	 call	 ?Py_BuildNone@@YAPAU_object@@XZ ; Py_BuildNone
  0006f	5e		 pop	 esi

; 669  : }

  00070	8b e5		 mov	 esp, ebp
  00072	5d		 pop	 ebp
  00073	c3		 ret	 0
?chrmgrSetAffect@@YAPAU_object@@PAU1@0@Z ENDP		; chrmgrSetAffect
_TEXT	ENDS
; Function compile flags: /Ogtp
; File d:\metin2\metin2\client_source_clean\client_source_clean\source\userinterface\pythoncharactermanagermodule.cpp
;	COMDAT ?SetEmoticon@CPythonCharacterManager@@QAEXKK@Z
_TEXT	SEGMENT
_dwVID$ = 8						; size = 4
_eState$ = 12						; size = 4
?SetEmoticon@CPythonCharacterManager@@QAEXKK@Z PROC	; CPythonCharacterManager::SetEmoticon, COMDAT
; _this$ = ecx

; 672  : {

  00000	55		 push	 ebp
  00001	8b ec		 mov	 ebp, esp

; 673  : 	CInstanceBase * pkInstSel = (dwVID == 0xffffffff) ? GetSelectedInstancePtr() : GetInstancePtr(dwVID);

  00003	8b 55 08	 mov	 edx, DWORD PTR _dwVID$[ebp]
  00006	83 fa ff	 cmp	 edx, -1
  00009	75 07		 jne	 SHORT $LN4@SetEmotico
  0000b	e8 00 00 00 00	 call	 ?GetSelectedInstancePtr@CPythonCharacterManager@@QAEPAVCInstanceBase@@XZ ; CPythonCharacterManager::GetSelectedInstancePtr
  00010	eb 0a		 jmp	 SHORT $LN5@SetEmotico
$LN4@SetEmotico:
  00012	8b 41 04	 mov	 eax, DWORD PTR [ecx+4]
  00015	83 c1 04	 add	 ecx, 4
  00018	52		 push	 edx
  00019	ff 50 08	 call	 DWORD PTR [eax+8]
$LN5@SetEmotico:

; 674  : 	if (!pkInstSel)

  0001c	85 c0		 test	 eax, eax
  0001e	74 0a		 je	 SHORT $LN2@SetEmotico

; 675  : 		return;
; 676  : 	
; 677  : 	pkInstSel->SetEmoticon(eState);

  00020	ff 75 0c	 push	 DWORD PTR _eState$[ebp]
  00023	8b c8		 mov	 ecx, eax
  00025	e8 00 00 00 00	 call	 ?SetEmoticon@CInstanceBase@@QAEXI@Z ; CInstanceBase::SetEmoticon
$LN2@SetEmotico:

; 678  : }

  0002a	5d		 pop	 ebp
  0002b	c2 08 00	 ret	 8
?SetEmoticon@CPythonCharacterManager@@QAEXKK@Z ENDP	; CPythonCharacterManager::SetEmoticon
_TEXT	ENDS
; Function compile flags: /Ogtp
; File d:\metin2\metin2\client_source_clean\client_source_clean\source\userinterface\pythoncharactermanagermodule.cpp
;	COMDAT ?IsPossibleEmoticon@CPythonCharacterManager@@QAE_NK@Z
_TEXT	SEGMENT
_dwVID$ = 8						; size = 4
?IsPossibleEmoticon@CPythonCharacterManager@@QAE_NK@Z PROC ; CPythonCharacterManager::IsPossibleEmoticon, COMDAT
; _this$ = ecx

; 681  : {

  00000	55		 push	 ebp
  00001	8b ec		 mov	 ebp, esp

; 682  : 	CInstanceBase * pkInstSel = (dwVID == 0xffffffff) ? GetSelectedInstancePtr() : GetInstancePtr(dwVID);

  00003	8b 55 08	 mov	 edx, DWORD PTR _dwVID$[ebp]
  00006	83 fa ff	 cmp	 edx, -1
  00009	75 07		 jne	 SHORT $LN4@IsPossible
  0000b	e8 00 00 00 00	 call	 ?GetSelectedInstancePtr@CPythonCharacterManager@@QAEPAVCInstanceBase@@XZ ; CPythonCharacterManager::GetSelectedInstancePtr
  00010	eb 0a		 jmp	 SHORT $LN5@IsPossible
$LN4@IsPossible:
  00012	8b 41 04	 mov	 eax, DWORD PTR [ecx+4]
  00015	83 c1 04	 add	 ecx, 4
  00018	52		 push	 edx
  00019	ff 50 08	 call	 DWORD PTR [eax+8]
$LN5@IsPossible:

; 683  : 	if (!pkInstSel)

  0001c	85 c0		 test	 eax, eax
  0001e	75 06		 jne	 SHORT $LN1@IsPossible

; 684  : 		return false;

  00020	32 c0		 xor	 al, al

; 687  : }

  00022	5d		 pop	 ebp
  00023	c2 04 00	 ret	 4
$LN1@IsPossible:

; 685  : 	
; 686  : 	return pkInstSel->IsPossibleEmoticon();

  00026	8b c8		 mov	 ecx, eax
  00028	e8 00 00 00 00	 call	 ?IsPossibleEmoticon@CInstanceBase@@QAE_NXZ ; CInstanceBase::IsPossibleEmoticon

; 687  : }

  0002d	5d		 pop	 ebp
  0002e	c2 04 00	 ret	 4
?IsPossibleEmoticon@CPythonCharacterManager@@QAE_NK@Z ENDP ; CPythonCharacterManager::IsPossibleEmoticon
_TEXT	ENDS
; Function compile flags: /Ogtp
; File d:\metin2\metin2\client_source_clean\client_source_clean\source\userinterface\pythoncharactermanagermodule.cpp
;	COMDAT ?chrmgrSetEmoticon@@YAPAU_object@@PAU1@0@Z
_TEXT	SEGMENT
_nVID$ = -8						; size = 4
_nEft$ = -4						; size = 4
_poSelf$ = 8						; size = 4
_poArgs$ = 12						; size = 4
?chrmgrSetEmoticon@@YAPAU_object@@PAU1@0@Z PROC		; chrmgrSetEmoticon, COMDAT

; 690  : {

  00000	55		 push	 ebp
  00001	8b ec		 mov	 ebp, esp
  00003	83 ec 08	 sub	 esp, 8

; 691  : 	int nVID;
; 692  : 	if (!PyTuple_GetInteger(poArgs, 0, &nVID))

  00006	8d 45 f8	 lea	 eax, DWORD PTR _nVID$[ebp]
  00009	50		 push	 eax
  0000a	6a 00		 push	 0
  0000c	ff 75 0c	 push	 DWORD PTR _poArgs$[ebp]
  0000f	e8 00 00 00 00	 call	 ?PyTuple_GetInteger@@YA_NPAU_object@@HPAH@Z ; PyTuple_GetInteger
  00014	83 c4 0c	 add	 esp, 12			; 0000000cH
  00017	84 c0		 test	 al, al
  00019	75 09		 jne	 SHORT $LN2@chrmgrSetE
$LN7@chrmgrSetE:

; 693  : 		return Py_BadArgument();

  0001b	e8 00 00 00 00	 call	 ?Py_BadArgument@@YAPAU_object@@XZ ; Py_BadArgument

; 702  : }

  00020	8b e5		 mov	 esp, ebp
  00022	5d		 pop	 ebp
  00023	c3		 ret	 0
$LN2@chrmgrSetE:

; 694  : 	
; 695  : 	int nEft;
; 696  : 	if (!PyTuple_GetInteger(poArgs, 1, &nEft))

  00024	8d 45 fc	 lea	 eax, DWORD PTR _nEft$[ebp]
  00027	50		 push	 eax
  00028	6a 01		 push	 1
  0002a	ff 75 0c	 push	 DWORD PTR _poArgs$[ebp]
  0002d	e8 00 00 00 00	 call	 ?PyTuple_GetInteger@@YA_NPAU_object@@HPAH@Z ; PyTuple_GetInteger
  00032	83 c4 0c	 add	 esp, 12			; 0000000cH
  00035	84 c0		 test	 al, al
  00037	74 e2		 je	 SHORT $LN7@chrmgrSetE

; 697  : 		return Py_BadArgument();
; 698  : 	
; 699  : 	CPythonCharacterManager & rkChrMgr = CPythonCharacterManager::Instance();
; 700  : 	rkChrMgr.SetEmoticon(nVID >= 0 ? nVID : 0xffffffff, nEft);

  00039	8b 45 f8	 mov	 eax, DWORD PTR _nVID$[ebp]
  0003c	83 c9 ff	 or	 ecx, -1
  0003f	ff 75 fc	 push	 DWORD PTR _nEft$[ebp]
  00042	85 c0		 test	 eax, eax
  00044	0f 49 c8	 cmovns	 ecx, eax
  00047	51		 push	 ecx
  00048	8b 0d 00 00 00
	00		 mov	 ecx, DWORD PTR ?ms_singleton@?$CSingleton@VCPythonCharacterManager@@@@0PAVCPythonCharacterManager@@A ; CSingleton<CPythonCharacterManager>::ms_singleton
  0004e	e8 00 00 00 00	 call	 ?SetEmoticon@CPythonCharacterManager@@QAEXKK@Z ; CPythonCharacterManager::SetEmoticon

; 701  : 	return Py_BuildNone();

  00053	e8 00 00 00 00	 call	 ?Py_BuildNone@@YAPAU_object@@XZ ; Py_BuildNone

; 702  : }

  00058	8b e5		 mov	 esp, ebp
  0005a	5d		 pop	 ebp
  0005b	c3		 ret	 0
?chrmgrSetEmoticon@@YAPAU_object@@PAU1@0@Z ENDP		; chrmgrSetEmoticon
_TEXT	ENDS
; Function compile flags: /Ogtp
; File d:\metin2\metin2\client_source_clean\client_source_clean\source\userinterface\pythoncharactermanagermodule.cpp
;	COMDAT ?chrmgrIsPossibleEmoticon@@YAPAU_object@@PAU1@0@Z
_TEXT	SEGMENT
_nVID$ = -4						; size = 4
_poSelf$ = 8						; size = 4
_poArgs$ = 12						; size = 4
?chrmgrIsPossibleEmoticon@@YAPAU_object@@PAU1@0@Z PROC	; chrmgrIsPossibleEmoticon, COMDAT

; 705  : {	

  00000	55		 push	 ebp
  00001	8b ec		 mov	 ebp, esp
  00003	51		 push	 ecx

; 706  : 	int nVID;
; 707  : 	if (!PyTuple_GetInteger(poArgs, 0, &nVID))

  00004	8d 45 fc	 lea	 eax, DWORD PTR _nVID$[ebp]
  00007	50		 push	 eax
  00008	6a 00		 push	 0
  0000a	ff 75 0c	 push	 DWORD PTR _poArgs$[ebp]
  0000d	e8 00 00 00 00	 call	 ?PyTuple_GetInteger@@YA_NPAU_object@@HPAH@Z ; PyTuple_GetInteger
  00012	83 c4 0c	 add	 esp, 12			; 0000000cH
  00015	84 c0		 test	 al, al
  00017	75 09		 jne	 SHORT $LN1@chrmgrIsPo

; 708  : 		return Py_BadArgument();

  00019	e8 00 00 00 00	 call	 ?Py_BadArgument@@YAPAU_object@@XZ ; Py_BadArgument

; 714  : }

  0001e	8b e5		 mov	 esp, ebp
  00020	5d		 pop	 ebp
  00021	c3		 ret	 0
$LN1@chrmgrIsPo:

; 709  : 
; 710  : 	CPythonCharacterManager & rkChrMgr = CPythonCharacterManager::Instance();
; 711  : 	int result = rkChrMgr.IsPossibleEmoticon(nVID >= 0 ? nVID : 0xffffffff);

  00022	8b 45 fc	 mov	 eax, DWORD PTR _nVID$[ebp]
  00025	83 ca ff	 or	 edx, -1
  00028	8b 0d 00 00 00
	00		 mov	 ecx, DWORD PTR ?ms_singleton@?$CSingleton@VCPythonCharacterManager@@@@0PAVCPythonCharacterManager@@A ; CSingleton<CPythonCharacterManager>::ms_singleton
  0002e	85 c0		 test	 eax, eax
  00030	0f 49 d0	 cmovns	 edx, eax
  00033	52		 push	 edx
  00034	e8 00 00 00 00	 call	 ?IsPossibleEmoticon@CPythonCharacterManager@@QAE_NK@Z ; CPythonCharacterManager::IsPossibleEmoticon
  00039	0f b6 c0	 movzx	 eax, al

; 712  : 
; 713  : 	return Py_BuildValue("i", result);

  0003c	50		 push	 eax
  0003d	68 00 00 00 00	 push	 OFFSET ??_C@_01KBJDNOO@i?$AA@
  00042	ff 15 00 00 00
	00		 call	 DWORD PTR __imp__Py_BuildValue
  00048	83 c4 08	 add	 esp, 8

; 714  : }

  0004b	8b e5		 mov	 esp, ebp
  0004d	5d		 pop	 ebp
  0004e	c3		 ret	 0
?chrmgrIsPossibleEmoticon@@YAPAU_object@@PAU1@0@Z ENDP	; chrmgrIsPossibleEmoticon
_TEXT	ENDS
; Function compile flags: /Ogtp
; File d:\metin2\metin2\client_source_clean\client_source_clean\source\userinterface\pythoncharactermanagermodule.cpp
;	COMDAT ?initchrmgr@@YAXXZ
_TEXT	SEGMENT
?initchrmgr@@YAXXZ PROC					; initchrmgr, COMDAT

; 717  : {

  00000	56		 push	 esi
  00001	57		 push	 edi

; 718  : 	static PyMethodDef s_methods[] =
; 719  : 	{
; 720  : 		// RaceData 		
; 721  : 		{ "SetEmpireNameMode",			chrmgrSetEmpireNameMode,				METH_VARARGS },
; 722  : 		{ "GetVIDInfo",					chrmgrGetVIDInfo,						METH_VARARGS },
; 723  : 		{ "GetPickedVID",				chrmgrGetPickedVID,						METH_VARARGS },
; 724  : 		{ "SetShapeModel",				chrmgrSetShapeModel,					METH_VARARGS },
; 725  : 		{ "AppendShapeSkin",			chrmgrAppendShapeSkin,					METH_VARARGS },
; 726  : 		{ "SetPathName",				chrmgrSetPathName,						METH_VARARGS },
; 727  : 		{ "LoadRaceData",				chrmgrLoadRaceData,						METH_VARARGS },
; 728  : 		{ "LoadLocalRaceData",			chrmgrLoadLocalRaceData,				METH_VARARGS },
; 729  : 		{ "CreateRace",					chrmgrCreateRace,						METH_VARARGS },
; 730  : 		{ "SelectRace",					chrmgrSelectRace,						METH_VARARGS },
; 731  : 		{ "RegisterAttachingBoneName",	chrmgrRegisterAttachingBoneName,		METH_VARARGS },
; 732  : 		{ "RegisterMotionMode",			chrmgrRegisterMotionMode,				METH_VARARGS },
; 733  : 		//{ "RegisterMotion",				chrmgrRegisterMotion,					METH_VARARGS },
; 734  : 		{ "SetMotionRandomWeight",		chrmgrSetMotionRandomWeight,			METH_VARARGS },
; 735  : 		{ "RegisterNormalAttack",		chrmgrRegisterNormalAttack,				METH_VARARGS },
; 736  : 		{ "ReserveComboAttack",			chrmgrReserveComboAttack,				METH_VARARGS },
; 737  : 		{ "RegisterComboAttack",		chrmgrRegisterComboAttack,				METH_VARARGS },
; 738  : 		{ "ReserveComboAttackNew",		chrmgrReserveComboAttackNew,			METH_VARARGS },
; 739  : 		{ "RegisterComboAttackNew",		chrmgrRegisterComboAttackNew,			METH_VARARGS },
; 740  : 		{ "RegisterMotionData",			chrmgrRegisterMotionData,				METH_VARARGS },
; 741  : 		{ "RegisterRaceName",			chrmgrRegisterRaceName,					METH_VARARGS },
; 742  : 		{ "RegisterRaceSrcName",		chrmgrRegisterRaceSrcName,					METH_VARARGS },
; 743  : 		{ "RegisterCacheMotionData",	chrmgrRegisterCacheMotionData,			METH_VARARGS },
; 744  : 
; 745  : 		// ETC
; 746  : 		{ "SetAffect",					chrmgrSetAffect,						METH_VARARGS },
; 747  : 		{ "SetEmoticon",				chrmgrSetEmoticon,						METH_VARARGS },
; 748  : 		{ "IsPossibleEmoticon",			chrmgrIsPossibleEmoticon,				METH_VARARGS },
; 749  : 		{ "RegisterEffect",				chrmgrRegisterEffect,					METH_VARARGS },
; 750  : 		{ "RegisterCacheEffect",		chrmgrRegisterCacheEffect,				METH_VARARGS },
; 751  : 		{ "RegisterPointEffect",		chrmgrRegisterPointEffect,				METH_VARARGS },
; 752  : 		{ "ShowPointEffect",			chrmgrShowPointEffect,					METH_VARARGS },
; 753  : 		{ "ToggleDirectionLine",		chrmgrToggleDirectionLine,				METH_VARARGS },
; 754  : 		{ "SetMovingSpeed",				chrmgrSetMovingSpeed,					METH_VARARGS },
; 755  : 		{ "SetDustGap",					chrmgrSetDustGap,						METH_VARARGS },
; 756  : 		{ "SetHorseDustGap",			chrmgrSetHorseDustGap,					METH_VARARGS },
; 757  : 
; 758  : 		{ "RegisterTitleName",			chrmgrRegisterTitleName,				METH_VARARGS },
; 759  : 		{ "RegisterNameColor",			chrmgrRegisterNameColor,				METH_VARARGS },
; 760  : 		{ "RegisterTitleColor",			chrmgrRegisterTitleColor,				METH_VARARGS },
; 761  : 
; 762  : 		{ NULL,							NULL,									NULL },
; 763  : 	};	
; 764  : 
; 765  : 	PyObject * poModule = Py_InitModule("chrmgr", s_methods);

  00002	68 f5 03 00 00	 push	 1013			; 000003f5H
  00007	6a 00		 push	 0
  00009	6a 00		 push	 0
  0000b	68 00 00 00 00	 push	 OFFSET ?s_methods@?1??initchrmgr@@YAXXZ@4PAUPyMethodDef@@A
  00010	68 00 00 00 00	 push	 OFFSET ??_C@_06CGKFKBGO@chrmgr?$AA@
  00015	ff 15 00 00 00
	00		 call	 DWORD PTR __imp__Py_InitModule4

; 766  : 
; 767  : 	PyModule_AddIntConstant(poModule, "NAMECOLOR_MOB", CInstanceBase::NAMECOLOR_NORMAL_MOB);

  0001b	8b 35 00 00 00
	00		 mov	 esi, DWORD PTR __imp__PyModule_AddIntConstant
  00021	8b f8		 mov	 edi, eax
  00023	6a 07		 push	 7
  00025	68 00 00 00 00	 push	 OFFSET ??_C@_0O@FOILFLOP@NAMECOLOR_MOB?$AA@
  0002a	57		 push	 edi
  0002b	ff d6		 call	 esi

; 768  : 	PyModule_AddIntConstant(poModule, "NAMECOLOR_NPC", CInstanceBase::NAMECOLOR_NORMAL_NPC);

  0002d	6a 08		 push	 8
  0002f	68 00 00 00 00	 push	 OFFSET ??_C@_0O@ECFPCBAN@NAMECOLOR_NPC?$AA@
  00034	57		 push	 edi
  00035	ff d6		 call	 esi

; 769  : 	PyModule_AddIntConstant(poModule, "NAMECOLOR_PC", CInstanceBase::NAMECOLOR_NORMAL_PC);

  00037	6a 09		 push	 9
  00039	68 00 00 00 00	 push	 OFFSET ??_C@_0N@HFDLLOOL@NAMECOLOR_PC?$AA@
  0003e	57		 push	 edi
  0003f	ff d6		 call	 esi

; 770  : 	PyModule_AddIntConstant(poModule, "NAMECOLOR_EMPIRE_MOB", CInstanceBase::NAMECOLOR_EMPIRE_MOB);

  00041	6a 0e		 push	 14			; 0000000eH
  00043	68 00 00 00 00	 push	 OFFSET ??_C@_0BF@PFPMAJFA@NAMECOLOR_EMPIRE_MOB?$AA@
  00048	57		 push	 edi
  00049	ff d6		 call	 esi
  0004b	83 c4 44	 add	 esp, 68			; 00000044H

; 771  : 	PyModule_AddIntConstant(poModule, "NAMECOLOR_EMPIRE_NPC", CInstanceBase::NAMECOLOR_EMPIRE_NPC);

  0004e	6a 0f		 push	 15			; 0000000fH
  00050	68 00 00 00 00	 push	 OFFSET ??_C@_0BF@OJCIHDLC@NAMECOLOR_EMPIRE_NPC?$AA@
  00055	57		 push	 edi
  00056	ff d6		 call	 esi

; 772  : 	PyModule_AddIntConstant(poModule, "NAMECOLOR_EMPIRE_PC", CInstanceBase::NAMECOLOR_EMPIRE_PC);

  00058	6a 10		 push	 16			; 00000010H
  0005a	68 00 00 00 00	 push	 OFFSET ??_C@_0BE@NDFEFIME@NAMECOLOR_EMPIRE_PC?$AA@
  0005f	57		 push	 edi
  00060	ff d6		 call	 esi

; 773  : 	PyModule_AddIntConstant(poModule, "NAMECOLOR_FUNC", CInstanceBase::NAMECOLOR_FUNC);

  00062	6a 15		 push	 21			; 00000015H
  00064	68 00 00 00 00	 push	 OFFSET ??_C@_0P@KKNBBHPK@NAMECOLOR_FUNC?$AA@
  00069	57		 push	 edi
  0006a	ff d6		 call	 esi

; 774  : 	PyModule_AddIntConstant(poModule, "NAMECOLOR_PK", CInstanceBase::NAMECOLOR_PK);

  0006c	6a 16		 push	 22			; 00000016H
  0006e	68 00 00 00 00	 push	 OFFSET ??_C@_0N@LNOCDEOD@NAMECOLOR_PK?$AA@
  00073	57		 push	 edi
  00074	ff d6		 call	 esi

; 775  : 	PyModule_AddIntConstant(poModule, "NAMECOLOR_PVP", CInstanceBase::NAMECOLOR_PVP);

  00076	6a 17		 push	 23			; 00000017H
  00078	68 00 00 00 00	 push	 OFFSET ??_C@_0O@JHPLDMIB@NAMECOLOR_PVP?$AA@
  0007d	57		 push	 edi
  0007e	ff d6		 call	 esi

; 776  : 	PyModule_AddIntConstant(poModule, "NAMECOLOR_PARTY", CInstanceBase::NAMECOLOR_PARTY);

  00080	6a 18		 push	 24			; 00000018H
  00082	68 00 00 00 00	 push	 OFFSET ??_C@_0BA@HFPCKBBO@NAMECOLOR_PARTY?$AA@
  00087	57		 push	 edi
  00088	ff d6		 call	 esi
  0008a	83 c4 48	 add	 esp, 72			; 00000048H

; 777  : 	PyModule_AddIntConstant(poModule, "NAMECOLOR_WARP", CInstanceBase::NAMECOLOR_WARP);

  0008d	6a 19		 push	 25			; 00000019H
  0008f	68 00 00 00 00	 push	 OFFSET ??_C@_0P@FMPJHCIG@NAMECOLOR_WARP?$AA@
  00094	57		 push	 edi
  00095	ff d6		 call	 esi

; 778  : 	PyModule_AddIntConstant(poModule, "NAMECOLOR_WAYPOINT", CInstanceBase::NAMECOLOR_WAYPOINT);

  00097	6a 1a		 push	 26			; 0000001aH
  00099	68 00 00 00 00	 push	 OFFSET ??_C@_0BD@KCIPKGLN@NAMECOLOR_WAYPOINT?$AA@
  0009e	57		 push	 edi
  0009f	ff d6		 call	 esi

; 779  : 	PyModule_AddIntConstant(poModule, "NAMECOLOR_EXTRA", CInstanceBase::NAMECOLOR_EXTRA);

  000a1	6a 1f		 push	 31			; 0000001fH
  000a3	68 00 00 00 00	 push	 OFFSET ??_C@_0BA@OIOEHMPC@NAMECOLOR_EXTRA?$AA@
  000a8	57		 push	 edi
  000a9	ff d6		 call	 esi

; 780  : 	
; 781  : 	PyModule_AddIntConstant(poModule, "EFFECT_SPAWN_DISAPPEAR",		CInstanceBase::EFFECT_SPAWN_DISAPPEAR);

  000ab	6a 0a		 push	 10			; 0000000aH
  000ad	68 00 00 00 00	 push	 OFFSET ??_C@_0BH@CICELGM@EFFECT_SPAWN_DISAPPEAR?$AA@
  000b2	57		 push	 edi
  000b3	ff d6		 call	 esi

; 782  : 	PyModule_AddIntConstant(poModule, "EFFECT_SPAWN_APPEAR",		CInstanceBase::EFFECT_SPAWN_APPEAR);

  000b5	6a 09		 push	 9
  000b7	68 00 00 00 00	 push	 OFFSET ??_C@_0BE@IMMEKAGC@EFFECT_SPAWN_APPEAR?$AA@
  000bc	57		 push	 edi
  000bd	ff d6		 call	 esi

; 783  : 	PyModule_AddIntConstant(poModule, "EFFECT_DUST",				CInstanceBase::EFFECT_DUST);

  000bf	6a 00		 push	 0
  000c1	68 00 00 00 00	 push	 OFFSET ??_C@_0M@HJGLKAFL@EFFECT_DUST?$AA@
  000c6	57		 push	 edi
  000c7	ff d6		 call	 esi
  000c9	83 c4 48	 add	 esp, 72			; 00000048H

; 784  : 	PyModule_AddIntConstant(poModule, "EFFECT_HORSE_DUST",			CInstanceBase::EFFECT_HORSE_DUST);

  000cc	68 e4 00 00 00	 push	 228			; 000000e4H
  000d1	68 00 00 00 00	 push	 OFFSET ??_C@_0BC@IMCHDDJP@EFFECT_HORSE_DUST?$AA@
  000d6	57		 push	 edi
  000d7	ff d6		 call	 esi

; 785  : 	PyModule_AddIntConstant(poModule, "EFFECT_STUN",				CInstanceBase::EFFECT_STUN);

  000d9	6a 01		 push	 1
  000db	68 00 00 00 00	 push	 OFFSET ??_C@_0M@KHLHAKMF@EFFECT_STUN?$AA@
  000e0	57		 push	 edi
  000e1	ff d6		 call	 esi

; 786  : 	PyModule_AddIntConstant(poModule, "EFFECT_HIT",					CInstanceBase::EFFECT_HIT);

  000e3	6a 02		 push	 2
  000e5	68 00 00 00 00	 push	 OFFSET ??_C@_0L@MLLFBJIP@EFFECT_HIT?$AA@
  000ea	57		 push	 edi
  000eb	ff d6		 call	 esi

; 787  : 	PyModule_AddIntConstant(poModule, "EFFECT_FLAME_ATTACK",		CInstanceBase::EFFECT_FLAME_ATTACK);

  000ed	6a 03		 push	 3
  000ef	68 00 00 00 00	 push	 OFFSET ??_C@_0BE@OHNAJENN@EFFECT_FLAME_ATTACK?$AA@
  000f4	57		 push	 edi
  000f5	ff d6		 call	 esi

; 788  : 	PyModule_AddIntConstant(poModule, "EFFECT_FLAME_HIT",			CInstanceBase::EFFECT_FLAME_HIT);

  000f7	6a 04		 push	 4
  000f9	68 00 00 00 00	 push	 OFFSET ??_C@_0BB@GKHDFHPF@EFFECT_FLAME_HIT?$AA@
  000fe	57		 push	 edi
  000ff	ff d6		 call	 esi

; 789  : 	PyModule_AddIntConstant(poModule, "EFFECT_FLAME_ATTACH",		CInstanceBase::EFFECT_FLAME_ATTACH);

  00101	6a 05		 push	 5
  00103	68 00 00 00 00	 push	 OFFSET ??_C@_0BE@MMPNMHBO@EFFECT_FLAME_ATTACH?$AA@
  00108	57		 push	 edi
  00109	ff d6		 call	 esi
  0010b	83 c4 48	 add	 esp, 72			; 00000048H

; 790  : 	PyModule_AddIntConstant(poModule, "EFFECT_ELECTRIC_ATTACK",		CInstanceBase::EFFECT_ELECTRIC_ATTACK);

  0010e	6a 06		 push	 6
  00110	68 00 00 00 00	 push	 OFFSET ??_C@_0BH@LIICDLOG@EFFECT_ELECTRIC_ATTACK?$AA@
  00115	57		 push	 edi
  00116	ff d6		 call	 esi

; 791  : 	PyModule_AddIntConstant(poModule, "EFFECT_ELECTRIC_HIT",		CInstanceBase::EFFECT_ELECTRIC_HIT);

  00118	6a 07		 push	 7
  0011a	68 00 00 00 00	 push	 OFFSET ??_C@_0BE@DDJNHBFG@EFFECT_ELECTRIC_HIT?$AA@
  0011f	57		 push	 edi
  00120	ff d6		 call	 esi

; 792  : 	PyModule_AddIntConstant(poModule, "EFFECT_ELECTRIC_ATTACH",		CInstanceBase::EFFECT_ELECTRIC_ATTACH);

  00122	6a 08		 push	 8
  00124	68 00 00 00 00	 push	 OFFSET ??_C@_0BH@JDKPGICF@EFFECT_ELECTRIC_ATTACH?$AA@
  00129	57		 push	 edi
  0012a	ff d6		 call	 esi

; 793  : 	PyModule_AddIntConstant(poModule, "EFFECT_SELECT",				CInstanceBase::EFFECT_SELECT);

  0012c	68 dd 00 00 00	 push	 221			; 000000ddH
  00131	68 00 00 00 00	 push	 OFFSET ??_C@_0O@IICIGFKH@EFFECT_SELECT?$AA@
  00136	57		 push	 edi
  00137	ff d6		 call	 esi

; 794  : 	PyModule_AddIntConstant(poModule, "EFFECT_TARGET",				CInstanceBase::EFFECT_TARGET);

  00139	68 de 00 00 00	 push	 222			; 000000deH
  0013e	68 00 00 00 00	 push	 OFFSET ??_C@_0O@KHEKIEOF@EFFECT_TARGET?$AA@
  00143	57		 push	 edi
  00144	ff d6		 call	 esi

; 795  : 	PyModule_AddIntConstant(poModule, "EFFECT_CRITICAL",			CInstanceBase::EFFECT_CRITICAL);

  00146	6a 11		 push	 17			; 00000011H
  00148	68 00 00 00 00	 push	 OFFSET ??_C@_0BA@DGHICDHC@EFFECT_CRITICAL?$AA@
  0014d	57		 push	 edi
  0014e	ff d6		 call	 esi
  00150	83 c4 48	 add	 esp, 72			; 00000048H

; 796  : 
; 797  : 	PyModule_AddIntConstant(poModule, "EFFECT_DAMAGE_TARGET",		CInstanceBase::EFFECT_DAMAGE_TARGET);

  00153	68 fb 00 00 00	 push	 251			; 000000fbH
  00158	68 00 00 00 00	 push	 OFFSET ??_C@_0BF@CKINGCNE@EFFECT_DAMAGE_TARGET?$AA@
  0015d	57		 push	 edi
  0015e	ff d6		 call	 esi

; 798  : 	PyModule_AddIntConstant(poModule, "EFFECT_DAMAGE_NOT_TARGET",	CInstanceBase::EFFECT_DAMAGE_NOT_TARGET);

  00160	68 fc 00 00 00	 push	 252			; 000000fcH
  00165	68 00 00 00 00	 push	 OFFSET ??_C@_0BJ@EHADMOLO@EFFECT_DAMAGE_NOT_TARGET?$AA@
  0016a	57		 push	 edi
  0016b	ff d6		 call	 esi

; 799  : 	PyModule_AddIntConstant(poModule, "EFFECT_DAMAGE_SELFDAMAGE",	CInstanceBase::EFFECT_DAMAGE_SELFDAMAGE);

  0016d	68 fd 00 00 00	 push	 253			; 000000fdH
  00172	68 00 00 00 00	 push	 OFFSET ??_C@_0BJ@LBPHCJON@EFFECT_DAMAGE_SELFDAMAGE?$AA@
  00177	57		 push	 edi
  00178	ff d6		 call	 esi

; 800  : 	PyModule_AddIntConstant(poModule, "EFFECT_DAMAGE_SELFDAMAGE2",	CInstanceBase::EFFECT_DAMAGE_SELFDAMAGE2);

  0017a	68 fe 00 00 00	 push	 254			; 000000feH
  0017f	68 00 00 00 00	 push	 OFFSET ??_C@_0BK@DDHKDNJN@EFFECT_DAMAGE_SELFDAMAGE2?$AA@
  00184	57		 push	 edi
  00185	ff d6		 call	 esi

; 801  : 	PyModule_AddIntConstant(poModule, "EFFECT_DAMAGE_POISON",		CInstanceBase::EFFECT_DAMAGE_POISON);

  00187	68 ff 00 00 00	 push	 255			; 000000ffH
  0018c	68 00 00 00 00	 push	 OFFSET ??_C@_0BF@JBDJDOOB@EFFECT_DAMAGE_POISON?$AA@
  00191	57		 push	 edi
  00192	ff d6		 call	 esi

; 802  : 	PyModule_AddIntConstant(poModule, "EFFECT_DAMAGE_MISS",			CInstanceBase::EFFECT_DAMAGE_MISS);

  00194	68 00 01 00 00	 push	 256			; 00000100H
  00199	68 00 00 00 00	 push	 OFFSET ??_C@_0BD@HAKEDKPM@EFFECT_DAMAGE_MISS?$AA@
  0019e	57		 push	 edi
  0019f	ff d6		 call	 esi
  001a1	83 c4 48	 add	 esp, 72			; 00000048H

; 803  : 	PyModule_AddIntConstant(poModule, "EFFECT_DAMAGE_TARGETMISS",	CInstanceBase::EFFECT_DAMAGE_TARGETMISS);

  001a4	68 01 01 00 00	 push	 257			; 00000101H
  001a9	68 00 00 00 00	 push	 OFFSET ??_C@_0BJ@OOAALGB@EFFECT_DAMAGE_TARGETMISS?$AA@
  001ae	57		 push	 edi
  001af	ff d6		 call	 esi

; 804  : 	PyModule_AddIntConstant(poModule, "EFFECT_DAMAGE_CRITICAL",		CInstanceBase::EFFECT_DAMAGE_CRITICAL);

  001b1	68 02 01 00 00	 push	 258			; 00000102H
  001b6	68 00 00 00 00	 push	 OFFSET ??_C@_0BH@LJEMOOEK@EFFECT_DAMAGE_CRITICAL?$AA@
  001bb	57		 push	 edi
  001bc	ff d6		 call	 esi

; 805  : 
; 806  : 	PyModule_AddIntConstant(poModule, "EFFECT_LEVELUP",				CInstanceBase::EFFECT_LEVELUP);

  001be	6a 0b		 push	 11			; 0000000bH
  001c0	68 00 00 00 00	 push	 OFFSET ??_C@_0P@KMPGDLGB@EFFECT_LEVELUP?$AA@
  001c5	57		 push	 edi
  001c6	ff d6		 call	 esi

; 807  : 	PyModule_AddIntConstant(poModule, "EFFECT_SKILLUP",				CInstanceBase::EFFECT_SKILLUP);

  001c8	6a 0c		 push	 12			; 0000000cH
  001ca	68 00 00 00 00	 push	 OFFSET ??_C@_0P@KGMCLBIE@EFFECT_SKILLUP?$AA@
  001cf	57		 push	 edi
  001d0	ff d6		 call	 esi

; 808  : 	PyModule_AddIntConstant(poModule, "EFFECT_HPUP_RED",			CInstanceBase::EFFECT_HPUP_RED);

  001d2	6a 0d		 push	 13			; 0000000dH
  001d4	68 00 00 00 00	 push	 OFFSET ??_C@_0BA@FDCHOHC@EFFECT_HPUP_RED?$AA@
  001d9	57		 push	 edi
  001da	ff d6		 call	 esi

; 809  : 	PyModule_AddIntConstant(poModule, "EFFECT_SPUP_BLUE",			CInstanceBase::EFFECT_SPUP_BLUE);

  001dc	6a 0e		 push	 14			; 0000000eH
  001de	68 00 00 00 00	 push	 OFFSET ??_C@_0BB@OMECPCHO@EFFECT_SPUP_BLUE?$AA@
  001e3	57		 push	 edi
  001e4	ff d6		 call	 esi
  001e6	83 c4 48	 add	 esp, 72			; 00000048H

; 810  : 	PyModule_AddIntConstant(poModule, "EFFECT_SPEEDUP_GREEN",		CInstanceBase::EFFECT_SPEEDUP_GREEN);

  001e9	6a 0f		 push	 15			; 0000000fH
  001eb	68 00 00 00 00	 push	 OFFSET ??_C@_0BF@KGBLOADC@EFFECT_SPEEDUP_GREEN?$AA@
  001f0	57		 push	 edi
  001f1	ff d6		 call	 esi

; 811  : 	PyModule_AddIntConstant(poModule, "EFFECT_DXUP_PURPLE",			CInstanceBase::EFFECT_DXUP_PURPLE);

  001f3	6a 10		 push	 16			; 00000010H
  001f5	68 00 00 00 00	 push	 OFFSET ??_C@_0BD@NFLNKENB@EFFECT_DXUP_PURPLE?$AA@
  001fa	57		 push	 edi
  001fb	ff d6		 call	 esi

; 812  : 	PyModule_AddIntConstant(poModule, "EFFECT_PENETRATE",			CInstanceBase::EFFECT_PENETRATE);

  001fd	6a 12		 push	 18			; 00000012H
  001ff	68 00 00 00 00	 push	 OFFSET ??_C@_0BB@MJKAFPM@EFFECT_PENETRATE?$AA@
  00204	57		 push	 edi
  00205	ff d6		 call	 esi

; 813  : 	PyModule_AddIntConstant(poModule, "EFFECT_BLOCK",				CInstanceBase::EFFECT_BLOCK);

  00207	6a 13		 push	 19			; 00000013H
  00209	68 00 00 00 00	 push	 OFFSET ??_C@_0N@FHECDOCO@EFFECT_BLOCK?$AA@
  0020e	57		 push	 edi
  0020f	ff d6		 call	 esi

; 814  : 	PyModule_AddIntConstant(poModule, "EFFECT_DODGE",				CInstanceBase::EFFECT_DODGE);

  00211	6a 14		 push	 20			; 00000014H
  00213	68 00 00 00 00	 push	 OFFSET ??_C@_0N@IIDAKFLA@EFFECT_DODGE?$AA@
  00218	57		 push	 edi
  00219	ff d6		 call	 esi

; 815  : 	PyModule_AddIntConstant(poModule, "EFFECT_FIRECRACKER",			CInstanceBase::EFFECT_FIRECRACKER);

  0021b	6a 15		 push	 21			; 00000015H
  0021d	68 00 00 00 00	 push	 OFFSET ??_C@_0BD@KGHDJJHH@EFFECT_FIRECRACKER?$AA@
  00222	57		 push	 edi
  00223	ff d6		 call	 esi
  00225	83 c4 48	 add	 esp, 72			; 00000048H

; 816  : 	PyModule_AddIntConstant(poModule, "EFFECT_SPIN_TOP",			CInstanceBase::EFFECT_SPIN_TOP);

  00228	6a 16		 push	 22			; 00000016H
  0022a	68 00 00 00 00	 push	 OFFSET ??_C@_0BA@LEFHDKNA@EFFECT_SPIN_TOP?$AA@
  0022f	57		 push	 edi
  00230	ff d6		 call	 esi

; 817  : 
; 818  : 	PyModule_AddIntConstant(poModule, "EFFECT_WEAPON",				CInstanceBase::EFFECT_WEAPON);

  00232	6a 17		 push	 23			; 00000017H
  00234	68 00 00 00 00	 push	 OFFSET ??_C@_0O@FKAHCBBH@EFFECT_WEAPON?$AA@
  00239	57		 push	 edi
  0023a	ff d6		 call	 esi

; 819  : 
; 820  : 	PyModule_AddIntConstant(poModule, "EFFECT_AFFECT",				CInstanceBase::EFFECT_AFFECT);

  0023c	6a 1b		 push	 27			; 0000001bH
  0023e	68 00 00 00 00	 push	 OFFSET ??_C@_0O@LEENICEP@EFFECT_AFFECT?$AA@
  00243	57		 push	 edi
  00244	ff d6		 call	 esi

; 821  : 	PyModule_AddIntConstant(poModule, "EFFECT_EMOTICON",			CInstanceBase::EFFECT_EMOTICON);

  00246	6a 5c		 push	 92			; 0000005cH
  00248	68 00 00 00 00	 push	 OFFSET ??_C@_0BA@LLIBADMN@EFFECT_EMOTICON?$AA@
  0024d	57		 push	 edi
  0024e	ff d6		 call	 esi

; 822  : 	PyModule_AddIntConstant(poModule, "EFFECT_EMPIRE",				CInstanceBase::EFFECT_EMPIRE);

  00250	68 df 00 00 00	 push	 223			; 000000dfH
  00255	68 00 00 00 00	 push	 OFFSET ??_C@_0O@MBIOGBFC@EFFECT_EMPIRE?$AA@
  0025a	57		 push	 edi
  0025b	ff d6		 call	 esi

; 823  : 
; 824  : 	PyModule_AddIntConstant(poModule, "EFFECT_REFINED",				CInstanceBase::EFFECT_REFINED);

  0025d	68 e5 00 00 00	 push	 229			; 000000e5H
  00262	68 00 00 00 00	 push	 OFFSET ??_C@_0P@JLGAELEM@EFFECT_REFINED?$AA@
  00267	57		 push	 edi
  00268	ff d6		 call	 esi
  0026a	83 c4 48	 add	 esp, 72			; 00000048H

; 825  : 
; 826  : 	PyModule_AddIntConstant(poModule, "EFFECT_SUCCESS",				CInstanceBase::EFFECT_SUCCESS) ;

  0026d	68 03 01 00 00	 push	 259			; 00000103H
  00272	68 00 00 00 00	 push	 OFFSET ??_C@_0P@OAEAICFL@EFFECT_SUCCESS?$AA@
  00277	57		 push	 edi
  00278	ff d6		 call	 esi

; 827  : 	PyModule_AddIntConstant(poModule, "EFFECT_FAIL",				CInstanceBase::EFFECT_FAIL) ;

  0027a	68 04 01 00 00	 push	 260			; 00000104H
  0027f	68 00 00 00 00	 push	 OFFSET ??_C@_0M@EPHKINAM@EFFECT_FAIL?$AA@
  00284	57		 push	 edi
  00285	ff d6		 call	 esi

; 828  : 	PyModule_AddIntConstant(poModule, "EFFECT_FR_SUCCESS",				CInstanceBase::EFFECT_FR_SUCCESS) ;	

  00287	68 05 01 00 00	 push	 261			; 00000105H
  0028c	68 00 00 00 00	 push	 OFFSET ??_C@_0BC@EDPMLGPA@EFFECT_FR_SUCCESS?$AA@
  00291	57		 push	 edi
  00292	ff d6		 call	 esi

; 829  : 	PyModule_AddIntConstant(poModule, "EFFECT_LEVELUP_ON_14_FOR_GERMANY", CInstanceBase::EFFECT_LEVELUP_ON_14_FOR_GERMANY );	// 14 (  )

  00294	68 06 01 00 00	 push	 262			; 00000106H
  00299	68 00 00 00 00	 push	 OFFSET ??_C@_0CB@FJAJJPKE@EFFECT_LEVELUP_ON_14_FOR_GERMANY@
  0029e	57		 push	 edi
  0029f	ff d6		 call	 esi

; 830  : 	PyModule_AddIntConstant(poModule, "EFFECT_LEVELUP_UNDER_15_FOR_GERMANY", CInstanceBase::EFFECT_LEVELUP_UNDER_15_FOR_GERMANY );// 15 (  )

  002a1	68 07 01 00 00	 push	 263			; 00000107H
  002a6	68 00 00 00 00	 push	 OFFSET ??_C@_0CE@DPEKOHBD@EFFECT_LEVELUP_UNDER_15_FOR_GERM@
  002ab	57		 push	 edi
  002ac	ff d6		 call	 esi

; 831  : 	PyModule_AddIntConstant(poModule, "EFFECT_PERCENT_DAMAGE1",				CInstanceBase::EFFECT_PERCENT_DAMAGE1);	

  002ae	68 08 01 00 00	 push	 264			; 00000108H
  002b3	68 00 00 00 00	 push	 OFFSET ??_C@_0BH@KDDKMBMB@EFFECT_PERCENT_DAMAGE1?$AA@
  002b8	57		 push	 edi
  002b9	ff d6		 call	 esi
  002bb	83 c4 48	 add	 esp, 72			; 00000048H

; 832  : 	PyModule_AddIntConstant(poModule, "EFFECT_PERCENT_DAMAGE2",				CInstanceBase::EFFECT_PERCENT_DAMAGE2);	

  002be	68 09 01 00 00	 push	 265			; 00000109H
  002c3	68 00 00 00 00	 push	 OFFSET ??_C@_0BH@IIBHJCAC@EFFECT_PERCENT_DAMAGE2?$AA@
  002c8	57		 push	 edi
  002c9	ff d6		 call	 esi

; 833  : 	PyModule_AddIntConstant(poModule, "EFFECT_PERCENT_DAMAGE3",				CInstanceBase::EFFECT_PERCENT_DAMAGE3);

  002cb	68 0a 01 00 00	 push	 266			; 0000010aH
  002d0	68 00 00 00 00	 push	 OFFSET ??_C@_0BH@JBAMKDED@EFFECT_PERCENT_DAMAGE3?$AA@
  002d5	57		 push	 edi
  002d6	ff d6		 call	 esi

; 834  : 
; 835  : 	//  HP, SP
; 836  : 	PyModule_AddIntConstant(poModule, "EFFECT_AUTO_HPUP",					CInstanceBase::EFFECT_AUTO_HPUP);

  002d8	68 0b 01 00 00	 push	 267			; 0000010bH
  002dd	68 00 00 00 00	 push	 OFFSET ??_C@_0BB@LPHIBMMP@EFFECT_AUTO_HPUP?$AA@
  002e2	57		 push	 edi
  002e3	ff d6		 call	 esi

; 837  : 	PyModule_AddIntConstant(poModule, "EFFECT_AUTO_SPUP",					CInstanceBase::EFFECT_AUTO_SPUP);

  002e5	68 0c 01 00 00	 push	 268			; 0000010cH
  002ea	68 00 00 00 00	 push	 OFFSET ??_C@_0BB@KIEILKFM@EFFECT_AUTO_SPUP?$AA@
  002ef	57		 push	 edi
  002f0	ff d6		 call	 esi

; 838  : 
; 839  : 	PyModule_AddIntConstant(poModule, "EFFECT_RAMADAN_RING_EQUIP",			CInstanceBase::EFFECT_RAMADAN_RING_EQUIP);

  002f2	68 0d 01 00 00	 push	 269			; 0000010dH
  002f7	68 00 00 00 00	 push	 OFFSET ??_C@_0BK@JCIOPIOG@EFFECT_RAMADAN_RING_EQUIP?$AA@
  002fc	57		 push	 edi
  002fd	ff d6		 call	 esi

; 840  : 	PyModule_AddIntConstant(poModule, "EFFECT_HALLOWEEN_CANDY_EQUIP",		CInstanceBase::EFFECT_HALLOWEEN_CANDY_EQUIP);

  002ff	68 0e 01 00 00	 push	 270			; 0000010eH
  00304	68 00 00 00 00	 push	 OFFSET ??_C@_0BN@NGBKKLJA@EFFECT_HALLOWEEN_CANDY_EQUIP?$AA@
  00309	57		 push	 edi
  0030a	ff d6		 call	 esi
  0030c	83 c4 48	 add	 esp, 72			; 00000048H

; 841  : 	PyModule_AddIntConstant(poModule, "EFFECT_HAPPINESS_RING_EQUIP",		CInstanceBase::EFFECT_HAPPINESS_RING_EQUIP);

  0030f	68 0f 01 00 00	 push	 271			; 0000010fH
  00314	68 00 00 00 00	 push	 OFFSET ??_C@_0BM@DAACAMNP@EFFECT_HAPPINESS_RING_EQUIP?$AA@
  00319	57		 push	 edi
  0031a	ff d6		 call	 esi

; 842  : 	PyModule_AddIntConstant(poModule, "EFFECT_LOVE_PENDANT_EQUIP",		CInstanceBase::EFFECT_LOVE_PENDANT_EQUIP);

  0031c	68 10 01 00 00	 push	 272			; 00000110H
  00321	68 00 00 00 00	 push	 OFFSET ??_C@_0BK@MMIJIEDM@EFFECT_LOVE_PENDANT_EQUIP?$AA@
  00326	57		 push	 edi
  00327	ff d6		 call	 esi
  00329	83 c4 18	 add	 esp, 24			; 00000018H
  0032c	5f		 pop	 edi
  0032d	5e		 pop	 esi

; 843  : 	
; 844  : }

  0032e	c3		 ret	 0
?initchrmgr@@YAXXZ ENDP					; initchrmgr
_TEXT	ENDS
; Function compile flags: /Ogtp
; File d:\metin2\metin2\client_source_clean\client_source_clean\source\eterbase\singleton.h
;	COMDAT ?Instance@?$CSingleton@VCRaceManager@@@@SAAAVCRaceManager@@XZ
_TEXT	SEGMENT
?Instance@?$CSingleton@VCRaceManager@@@@SAAAVCRaceManager@@XZ PROC ; CSingleton<CRaceManager>::Instance, COMDAT

; 26   : 		assert(ms_singleton);
; 27   : 		return (*ms_singleton);

  00000	a1 00 00 00 00	 mov	 eax, DWORD PTR ?ms_singleton@?$CSingleton@VCRaceManager@@@@0PAVCRaceManager@@A ; CSingleton<CRaceManager>::ms_singleton

; 28   : 	}

  00005	c3		 ret	 0
?Instance@?$CSingleton@VCRaceManager@@@@SAAAVCRaceManager@@XZ ENDP ; CSingleton<CRaceManager>::Instance
_TEXT	ENDS
; Function compile flags: /Ogtp
; File d:\metin2\metin2\client_source_clean\client_source_clean\source\eterlib\resource.h
; File c:\program files (x86)\microsoft visual studio 12.0\vc\include\xstring
; File d:\metin2\metin2\client_source_clean\client_source_clean\source\eterlib\resource.h
; File c:\program files (x86)\microsoft visual studio 12.0\vc\include\xstring
; File d:\metin2\metin2\client_source_clean\client_source_clean\source\eterlib\resource.h
;	COMDAT ?GetFileName@CResource@@QBEPBDXZ
_TEXT	SEGMENT
?GetFileName@CResource@@QBEPBDXZ PROC			; CResource::GetFileName, COMDAT
; _this$ = ecx
; File c:\program files (x86)\microsoft visual studio 12.0\vc\include\xstring

; 520  : 			: this->_Bx._Buf);

  00000	83 79 20 10	 cmp	 DWORD PTR [ecx+32], 16	; 00000010H
; File d:\metin2\metin2\client_source_clean\client_source_clean\source\eterlib\resource.h

; 46   : 		const char *	GetFileName() const			{ return m_stFileName.c_str();				}

  00004	8d 41 0c	 lea	 eax, DWORD PTR [ecx+12]
; File c:\program files (x86)\microsoft visual studio 12.0\vc\include\xstring

; 520  : 			: this->_Bx._Buf);

  00007	72 02		 jb	 SHORT $LN8@GetFileNam
; File d:\metin2\metin2\client_source_clean\client_source_clean\source\eterlib\resource.h

; 46   : 		const char *	GetFileName() const			{ return m_stFileName.c_str();				}

  00009	8b 00		 mov	 eax, DWORD PTR [eax]
$LN8@GetFileNam:
  0000b	c3		 ret	 0
?GetFileName@CResource@@QBEPBDXZ ENDP			; CResource::GetFileName
_TEXT	ENDS
END
