; Listing generated by Microsoft (R) Optimizing Compiler Version 18.00.40629.0 

	TITLE	D:\Metin2\Metin2\client_source_clean\client_source_clean\source\UserInterface\PythonGameEventManagerModule.cpp
	.686P
	.XMM
	include listing.inc
	.model	flat

INCLUDELIB OLDNAMES

PUBLIC	??_C@_08LLPALKPL@eventMgr?$AA@			; `string'
PUBLIC	?ms_singleton@?$CSingleton@VCGameEventManager@@@@0PAVCGameEventManager@@A ; CSingleton<CGameEventManager>::ms_singleton
;	COMDAT ?ms_singleton@?$CSingleton@VCGameEventManager@@@@0PAVCGameEventManager@@A
_BSS	SEGMENT
?ms_singleton@?$CSingleton@VCGameEventManager@@@@0PAVCGameEventManager@@A DD 01H DUP (?) ; CSingleton<CGameEventManager>::ms_singleton
_BSS	ENDS
;	COMDAT ?s_methods@?1??initeventmgr@@YAXXZ@4PAUPyMethodDef@@A
_DATA	SEGMENT
?s_methods@?1??initeventmgr@@YAXXZ@4PAUPyMethodDef@@A DD FLAT:??_C@_06LMAGPFNF@Update?$AA@ ; `initeventmgr'::`2'::s_methods
	DD	FLAT:?eventMgrUpdate@@YAPAU_object@@PAU1@0@Z
	DD	01H
	ORG $+4
	DD	00H
	DD	00H
	DD	00H
	ORG $+4
_DATA	ENDS
;	COMDAT ??_C@_08LLPALKPL@eventMgr?$AA@
CONST	SEGMENT
??_C@_08LLPALKPL@eventMgr?$AA@ DB 'eventMgr', 00H	; `string'
PUBLIC	?Instance@?$CSingleton@VCGameEventManager@@@@SAAAVCGameEventManager@@XZ ; CSingleton<CGameEventManager>::Instance
PUBLIC	?initeventmgr@@YAXXZ				; initeventmgr
PUBLIC	?eventMgrUpdate@@YAPAU_object@@PAU1@0@Z		; eventMgrUpdate
; Function compile flags: /Ogtp
; File d:\metin2\metin2\client_source_clean\client_source_clean\source\userinterface\pythongameeventmanagermodule.cpp
;	COMDAT ?eventMgrUpdate@@YAPAU_object@@PAU1@0@Z
_TEXT	SEGMENT
_fx$ = -12						; size = 4
_fy$ = -8						; size = 4
_fz$ = -4						; size = 4
_poSelf$ = 8						; size = 4
_poArgs$ = 12						; size = 4
?eventMgrUpdate@@YAPAU_object@@PAU1@0@Z PROC		; eventMgrUpdate, COMDAT

; 5    : {

  00000	55		 push	 ebp
  00001	8b ec		 mov	 ebp, esp
  00003	83 ec 0c	 sub	 esp, 12			; 0000000cH

; 6    : 	float fx;
; 7    : 	if (!PyTuple_GetFloat(poArgs, 0, &fx))

  00006	8d 45 f4	 lea	 eax, DWORD PTR _fx$[ebp]
  00009	56		 push	 esi
  0000a	8b 75 0c	 mov	 esi, DWORD PTR _poArgs$[ebp]
  0000d	50		 push	 eax
  0000e	6a 00		 push	 0
  00010	56		 push	 esi
  00011	e8 00 00 00 00	 call	 ?PyTuple_GetFloat@@YA_NPAU_object@@HPAM@Z ; PyTuple_GetFloat
  00016	83 c4 0c	 add	 esp, 12			; 0000000cH
  00019	84 c0		 test	 al, al
  0001b	75 0f		 jne	 SHORT $LN3@eventMgrUp
$LN10@eventMgrUp:

; 8    : 		return Py_BuildException();

  0001d	6a 00		 push	 0
  0001f	e8 00 00 00 00	 call	 ?Py_BuildException@@YAPAU_object@@PBDZZ ; Py_BuildException
  00024	83 c4 04	 add	 esp, 4
  00027	5e		 pop	 esi

; 19   : }

  00028	8b e5		 mov	 esp, ebp
  0002a	5d		 pop	 ebp
  0002b	c3		 ret	 0
$LN3@eventMgrUp:

; 9    : 	float fy;
; 10   : 	if (!PyTuple_GetFloat(poArgs, 1, &fy))

  0002c	8d 45 f8	 lea	 eax, DWORD PTR _fy$[ebp]
  0002f	50		 push	 eax
  00030	6a 01		 push	 1
  00032	56		 push	 esi
  00033	e8 00 00 00 00	 call	 ?PyTuple_GetFloat@@YA_NPAU_object@@HPAM@Z ; PyTuple_GetFloat
  00038	83 c4 0c	 add	 esp, 12			; 0000000cH
  0003b	84 c0		 test	 al, al
  0003d	74 de		 je	 SHORT $LN10@eventMgrUp

; 11   : 		return Py_BuildException();
; 12   : 	float fz;
; 13   : 	if (!PyTuple_GetFloat(poArgs, 2, &fz))

  0003f	8d 45 fc	 lea	 eax, DWORD PTR _fz$[ebp]
  00042	50		 push	 eax
  00043	6a 02		 push	 2
  00045	56		 push	 esi
  00046	e8 00 00 00 00	 call	 ?PyTuple_GetFloat@@YA_NPAU_object@@HPAM@Z ; PyTuple_GetFloat
  0004b	83 c4 0c	 add	 esp, 12			; 0000000cH
  0004e	84 c0		 test	 al, al
  00050	74 cb		 je	 SHORT $LN10@eventMgrUp

; 14   : 		return Py_BuildException();
; 15   : 
; 16   : 	CGameEventManager::Instance().SetCenterPosition(fx, fy, fz);

  00052	f3 0f 10 45 fc	 movss	 xmm0, DWORD PTR _fz$[ebp]
  00057	83 ec 0c	 sub	 esp, 12			; 0000000cH
  0005a	8b 0d 00 00 00
	00		 mov	 ecx, DWORD PTR ?ms_singleton@?$CSingleton@VCGameEventManager@@@@0PAVCGameEventManager@@A ; CSingleton<CGameEventManager>::ms_singleton
  00060	f3 0f 11 44 24
	08		 movss	 DWORD PTR [esp+8], xmm0
  00066	f3 0f 10 45 f8	 movss	 xmm0, DWORD PTR _fy$[ebp]
  0006b	f3 0f 11 44 24
	04		 movss	 DWORD PTR [esp+4], xmm0
  00071	f3 0f 10 45 f4	 movss	 xmm0, DWORD PTR _fx$[ebp]
  00076	f3 0f 11 04 24	 movss	 DWORD PTR [esp], xmm0
  0007b	e8 00 00 00 00	 call	 ?SetCenterPosition@CGameEventManager@@QAEXMMM@Z ; CGameEventManager::SetCenterPosition

; 17   : 	CGameEventManager::Instance().Update();

  00080	8b 0d 00 00 00
	00		 mov	 ecx, DWORD PTR ?ms_singleton@?$CSingleton@VCGameEventManager@@@@0PAVCGameEventManager@@A ; CSingleton<CGameEventManager>::ms_singleton
  00086	e8 00 00 00 00	 call	 ?Update@CGameEventManager@@QAEXXZ ; CGameEventManager::Update

; 18   : 	return Py_BuildNone();

  0008b	e8 00 00 00 00	 call	 ?Py_BuildNone@@YAPAU_object@@XZ ; Py_BuildNone
  00090	5e		 pop	 esi

; 19   : }

  00091	8b e5		 mov	 esp, ebp
  00093	5d		 pop	 ebp
  00094	c3		 ret	 0
?eventMgrUpdate@@YAPAU_object@@PAU1@0@Z ENDP		; eventMgrUpdate
_TEXT	ENDS
; Function compile flags: /Ogtp
; File d:\metin2\metin2\client_source_clean\client_source_clean\source\userinterface\pythongameeventmanagermodule.cpp
;	COMDAT ?initeventmgr@@YAXXZ
_TEXT	SEGMENT
?initeventmgr@@YAXXZ PROC				; initeventmgr, COMDAT

; 23   : 	static PyMethodDef s_methods[] = 
; 24   : 	{
; 25   : 		{ "Update",					eventMgrUpdate,					METH_VARARGS },
; 26   : 		{ NULL,						NULL,							NULL },
; 27   : 	};
; 28   : 
; 29   : 	Py_InitModule("eventMgr", s_methods);

  00000	68 f5 03 00 00	 push	 1013			; 000003f5H
  00005	6a 00		 push	 0
  00007	6a 00		 push	 0
  00009	68 00 00 00 00	 push	 OFFSET ?s_methods@?1??initeventmgr@@YAXXZ@4PAUPyMethodDef@@A
  0000e	68 00 00 00 00	 push	 OFFSET ??_C@_08LLPALKPL@eventMgr?$AA@
  00013	ff 15 00 00 00
	00		 call	 DWORD PTR __imp__Py_InitModule4
  00019	83 c4 14	 add	 esp, 20			; 00000014H

; 30   : }

  0001c	c3		 ret	 0
?initeventmgr@@YAXXZ ENDP				; initeventmgr
_TEXT	ENDS
; Function compile flags: /Ogtp
; File d:\metin2\metin2\client_source_clean\client_source_clean\source\eterbase\singleton.h
;	COMDAT ?Instance@?$CSingleton@VCGameEventManager@@@@SAAAVCGameEventManager@@XZ
_TEXT	SEGMENT
?Instance@?$CSingleton@VCGameEventManager@@@@SAAAVCGameEventManager@@XZ PROC ; CSingleton<CGameEventManager>::Instance, COMDAT

; 26   : 		assert(ms_singleton);
; 27   : 		return (*ms_singleton);

  00000	a1 00 00 00 00	 mov	 eax, DWORD PTR ?ms_singleton@?$CSingleton@VCGameEventManager@@@@0PAVCGameEventManager@@A ; CSingleton<CGameEventManager>::ms_singleton

; 28   : 	}

  00005	c3		 ret	 0
?Instance@?$CSingleton@VCGameEventManager@@@@SAAAVCGameEventManager@@XZ ENDP ; CSingleton<CGameEventManager>::Instance
_TEXT	ENDS
END
