; Listing generated by Microsoft (R) Optimizing Compiler Version 18.00.40629.0 

	TITLE	D:\Metin2\Metin2\client_source_clean\client_source_clean\source\UserInterface\PythonPlayerInput.cpp
	.686P
	.XMM
	include listing.inc
	.model	flat

INCLUDELIB OLDNAMES

PUBLIC	??_C@_0DD@MNMGJOCJ@CPythonPlayer?3?3__OnPressItem?5?9?5A@ ; `string'
PUBLIC	??_C@_0BB@KPNAHCEN@SetPCTargetBoard?$AA@	; `string'
PUBLIC	??_C@_0BB@BOHMBBJL@OnCannotUseSkill?$AA@	; `string'
PUBLIC	??_C@_0BE@DLANHBIF@OnFishingWrongPlace?$AA@	; `string'
PUBLIC	??_C@_0N@OPOOJDCJ@OnCannotShot?$AA@		; `string'
PUBLIC	??_C@_0M@FBIHMJDM@EMPTY_ARROW?$AA@		; `string'
PUBLIC	??_C@_0N@KDALDMKB@DEST_IN_SAFE?$AA@		; `string'
PUBLIC	??_C@_07OAOBINCH@IN_SAFE?$AA@			; `string'
PUBLIC	??_C@_0P@BFHKDLNH@OnCannotAttack?$AA@		; `string'
EXTRN	?CameraRotationToCharacterRotation@@YAMM@Z:PROC	; CameraRotationToCharacterRotation
EXTRN	?Logn@@YAXIPBD@Z:PROC				; Logn
EXTRN	?SetFlyEventHandler@CActorInstance@@QAEXPAVIFlyEventHandler@@@Z:PROC ; CActorInstance::SetFlyEventHandler
;	COMDAT ?s_dwLastCancelTime@?6??NEW_CancelFishing@CPythonPlayer@@QAE_NXZ@4KA
_BSS	SEGMENT
?s_dwLastCancelTime@?6??NEW_CancelFishing@CPythonPlayer@@QAE_NXZ@4KA DD 01H DUP (?) ; `CPythonPlayer::NEW_CancelFishing'::`7'::s_dwLastCancelTime
_BSS	ENDS
;	COMDAT ?s_dwLastPickItemID@?1??__OnPressItem@CPythonPlayer@@IAEXAAVCInstanceBase@@K@Z@4KA
_BSS	SEGMENT
?s_dwLastPickItemID@?1??__OnPressItem@CPythonPlayer@@IAEXAAVCInstanceBase@@K@Z@4KA DD 01H DUP (?) ; `CPythonPlayer::__OnPressItem'::`2'::s_dwLastPickItemID
_BSS	ENDS
;	COMDAT ??_C@_0P@BFHKDLNH@OnCannotAttack?$AA@
CONST	SEGMENT
??_C@_0P@BFHKDLNH@OnCannotAttack?$AA@ DB 'OnCannotAttack', 00H ; `string'
CONST	ENDS
;	COMDAT ??_C@_07OAOBINCH@IN_SAFE?$AA@
CONST	SEGMENT
??_C@_07OAOBINCH@IN_SAFE?$AA@ DB 'IN_SAFE', 00H		; `string'
CONST	ENDS
;	COMDAT ??_C@_0N@KDALDMKB@DEST_IN_SAFE?$AA@
CONST	SEGMENT
??_C@_0N@KDALDMKB@DEST_IN_SAFE?$AA@ DB 'DEST_IN_SAFE', 00H ; `string'
CONST	ENDS
;	COMDAT ??_C@_0M@FBIHMJDM@EMPTY_ARROW?$AA@
CONST	SEGMENT
??_C@_0M@FBIHMJDM@EMPTY_ARROW?$AA@ DB 'EMPTY_ARROW', 00H ; `string'
CONST	ENDS
;	COMDAT ??_C@_0N@OPOOJDCJ@OnCannotShot?$AA@
CONST	SEGMENT
??_C@_0N@OPOOJDCJ@OnCannotShot?$AA@ DB 'OnCannotShot', 00H ; `string'
CONST	ENDS
;	COMDAT ??_C@_0BE@DLANHBIF@OnFishingWrongPlace?$AA@
CONST	SEGMENT
??_C@_0BE@DLANHBIF@OnFishingWrongPlace?$AA@ DB 'OnFishingWrongPlace', 00H ; `string'
CONST	ENDS
;	COMDAT ??_C@_0BB@BOHMBBJL@OnCannotUseSkill?$AA@
CONST	SEGMENT
??_C@_0BB@BOHMBBJL@OnCannotUseSkill?$AA@ DB 'OnCannotUseSkill', 00H ; `string'
CONST	ENDS
;	COMDAT ??_C@_0BB@KPNAHCEN@SetPCTargetBoard?$AA@
CONST	SEGMENT
??_C@_0BB@KPNAHCEN@SetPCTargetBoard?$AA@ DB 'SetPCTargetBoard', 00H ; `string'
CONST	ENDS
;	COMDAT ??_C@_0DD@MNMGJOCJ@CPythonPlayer?3?3__OnPressItem?5?9?5A@
CONST	SEGMENT
??_C@_0DD@MNMGJOCJ@CPythonPlayer?3?3__OnPressItem?5?9?5A@ DB 'CPythonPlay'
	DB	'er::__OnPressItem - ALREADY PICKED ITEM', 00H ; `string'
PUBLIC	?GetScreenWidth@CWindowManager@UI@@QAEJXZ	; UI::CWindowManager::GetScreenWidth
PUBLIC	?GetScreenHeight@CWindowManager@UI@@QAEJXZ	; UI::CWindowManager::GetScreenHeight
PUBLIC	?__ReserveProcess_ClickActor@CPythonPlayer@@IAEXXZ ; CPythonPlayer::__ReserveProcess_ClickActor
PUBLIC	?__SetAutoAttackTargetActorID@CPythonPlayer@@IAEXK@Z ; CPythonPlayer::__SetAutoAttackTargetActorID
PUBLIC	?__ReserveUseSkill@CPythonPlayer@@IAEXKKK@Z	; CPythonPlayer::__ReserveUseSkill
PUBLIC	?__IsReservedUseSkill@CPythonPlayer@@IAE_NK@Z	; CPythonPlayer::__IsReservedUseSkill
PUBLIC	?__ReserveClickGround@CPythonPlayer@@IAEXABUD3DXVECTOR3@@@Z ; CPythonPlayer::__ReserveClickGround
PUBLIC	?__ReserveClickItem@CPythonPlayer@@IAEXK@Z	; CPythonPlayer::__ReserveClickItem
PUBLIC	?GetDegreeFromPosition@CPythonPlayer@@IAEMHHHH@Z ; CPythonPlayer::GetDegreeFromPosition
PUBLIC	?NEW_GetMouseDirRotation@CPythonPlayer@@IAEXMMPAM@Z ; CPythonPlayer::NEW_GetMouseDirRotation
PUBLIC	?NEW_GetMultiKeyDirRotation@CPythonPlayer@@IAEX_N000PAM@Z ; CPythonPlayer::NEW_GetMultiKeyDirRotation
PUBLIC	?__CanAttack@CPythonPlayer@@IAE_NXZ		; CPythonPlayer::__CanAttack
PUBLIC	?__CanMove@CPythonPlayer@@IAE_NXZ		; CPythonPlayer::__CanMove
PUBLIC	?__CanShot@CPythonPlayer@@IAE_NAAVCInstanceBase@@0@Z ; CPythonPlayer::__CanShot
PUBLIC	?NEW_ResetCameraRotation@CPythonPlayer@@QAEXXZ	; CPythonPlayer::NEW_ResetCameraRotation
PUBLIC	?NEW_SetAutoCameraRotationSpeed@CPythonPlayer@@QAEXM@Z ; CPythonPlayer::NEW_SetAutoCameraRotationSpeed
PUBLIC	?NEW_IsEmptyReservedDelayTime@CPythonPlayer@@QAE_NM@Z ; CPythonPlayer::NEW_IsEmptyReservedDelayTime
PUBLIC	?NEW_Attack@CPythonPlayer@@QAEXXZ		; CPythonPlayer::NEW_Attack
PUBLIC	?NEW_Fishing@CPythonPlayer@@QAEXXZ		; CPythonPlayer::NEW_Fishing
PUBLIC	?NEW_CancelFishing@CPythonPlayer@@QAE_NXZ	; CPythonPlayer::NEW_CancelFishing
PUBLIC	?NEW_MoveToDirection@CPythonPlayer@@QAE_NM@Z	; CPythonPlayer::NEW_MoveToDirection
PUBLIC	?__OnPressScreen@CPythonPlayer@@IAEXAAVCInstanceBase@@@Z ; CPythonPlayer::__OnPressScreen
PUBLIC	?__OnPressGround@CPythonPlayer@@IAEXAAVCInstanceBase@@ABUD3DXVECTOR3@@@Z ; CPythonPlayer::__OnPressGround
PUBLIC	?__IsMovableGroundDistance@CPythonPlayer@@IAE_NAAVCInstanceBase@@ABUD3DXVECTOR3@@@Z ; CPythonPlayer::__IsMovableGroundDistance
PUBLIC	?__OnClickGround@CPythonPlayer@@IAEXAAVCInstanceBase@@ABUD3DXVECTOR3@@@Z ; CPythonPlayer::__OnClickGround
PUBLIC	?__OnPressItem@CPythonPlayer@@IAEXAAVCInstanceBase@@K@Z ; CPythonPlayer::__OnPressItem
PUBLIC	?__OnPressActor@CPythonPlayer@@IAEXAAVCInstanceBase@@K_N@Z ; CPythonPlayer::__OnPressActor
PUBLIC	?__OnClickActor@CPythonPlayer@@IAEXAAVCInstanceBase@@K_N@Z ; CPythonPlayer::__OnClickActor
PUBLIC	?__OnClickItem@CPythonPlayer@@IAEXAAVCInstanceBase@@K@Z ; CPythonPlayer::__OnClickItem
PUBLIC	?OpenCharacterMenu@CPythonPlayer@@QAEXK@Z	; CPythonPlayer::OpenCharacterMenu
PUBLIC	?__GetDeadTargetInstancePtr@CPythonPlayer@@IAEPAVCInstanceBase@@XZ ; CPythonPlayer::__GetDeadTargetInstancePtr
PUBLIC	?__ChangeTargetToPickedInstance@CPythonPlayer@@IAE_NXZ ; CPythonPlayer::__ChangeTargetToPickedInstance
PUBLIC	?__SetTargetVID@CPythonPlayer@@IAEXK@Z		; CPythonPlayer::__SetTargetVID
PUBLIC	?__GetTargetActorPtr@CPythonPlayer@@IAEPAVCInstanceBase@@XZ ; CPythonPlayer::__GetTargetActorPtr
PUBLIC	?GetTargetVID@CPythonPlayer@@QAEKXZ		; CPythonPlayer::GetTargetVID
PUBLIC	?__GetTargetVID@CPythonPlayer@@IAEKXZ		; CPythonPlayer::__GetTargetVID
PUBLIC	?__IsTarget@CPythonPlayer@@IAE_NXZ		; CPythonPlayer::__IsTarget
PUBLIC	?PickCloseItem@CPythonPlayer@@QAEXXZ		; CPythonPlayer::PickCloseItem
PUBLIC	?__GetPickableDistance@CPythonPlayer@@IAEKXZ	; CPythonPlayer::__GetPickableDistance
PUBLIC	?GetNormalBowAttackFlyEventHandler@CPythonPlayerEventHandler@@QAEPAVIFlyEventHandler@@PAVCInstanceBase@@0@Z ; CPythonPlayerEventHandler::GetNormalBowAttackFlyEventHandler
PUBLIC	?NEW_Stop@CPythonPlayer@@QAEXXZ			; CPythonPlayer::NEW_Stop
PUBLIC	?__ClearAutoAttackTargetActorID@CPythonPlayer@@IAEXXZ ; CPythonPlayer::__ClearAutoAttackTargetActorID
PUBLIC	?__ReserveClickActor@CPythonPlayer@@IAEXK@Z	; CPythonPlayer::__ReserveClickActor
PUBLIC	?__IsSameTargetVID@CPythonPlayer@@IAE_NK@Z	; CPythonPlayer::__IsSameTargetVID
PUBLIC	?SetTarget@CPythonPlayer@@UAEXKH@Z		; CPythonPlayer::SetTarget
PUBLIC	?__GetAliveTargetInstancePtr@CPythonPlayer@@IAEPAVCInstanceBase@@XZ ; CPythonPlayer::__GetAliveTargetInstancePtr
PUBLIC	?__ClearReservedAction@CPythonPlayer@@IAEXXZ	; CPythonPlayer::__ClearReservedAction
PUBLIC	?SetMovableGroundDistance@CPythonPlayer@@QAEXM@Z ; CPythonPlayer::SetMovableGroundDistance
PUBLIC	?c_fFastestSendingDelay@@3MB			; c_fFastestSendingDelay
PUBLIC	?c_fSlowestSendingDelay@@3MB			; c_fSlowestSendingDelay
	ALIGN	4

_piecewise_construct DB 01H DUP (?)
_BSS	ENDS
?c_fFastestSendingDelay@@3MB DD 03eaaaaabr	; 0.333333 ; c_fFastestSendingDelay
?c_fSlowestSendingDelay@@3MB DD 03eaaaaabr	; 0.333333 ; c_fSlowestSendingDelay
; Function compile flags: /Ogtp
; File d:\metin2\metin2\client_source_clean\client_source_clean\source\userinterface\pythonplayerinput.cpp
;	COMDAT ?SetMovableGroundDistance@CPythonPlayer@@QAEXM@Z
_TEXT	SEGMENT
?SetMovableGroundDistance@CPythonPlayer@@QAEXM@Z PROC	; CPythonPlayer::SetMovableGroundDistance, COMDAT
; _this$ = ecx
; _fDistance$ = xmm1s

; 405  : 	MOVABLE_GROUND_DISTANCE=fDistance;

  00000	f3 0f 11 89 40
	0a 01 00	 movss	 DWORD PTR [ecx+68160], xmm1

; 406  : }

  00008	c3		 ret	 0
?SetMovableGroundDistance@CPythonPlayer@@QAEXM@Z ENDP	; CPythonPlayer::SetMovableGroundDistance
_TEXT	ENDS
; Function compile flags: /Ogtp
; File d:\metin2\metin2\client_source_clean\client_source_clean\source\userinterface\pythonplayerinput.cpp
;	COMDAT ?__ClearReservedAction@CPythonPlayer@@IAEXXZ
_TEXT	SEGMENT
?__ClearReservedAction@CPythonPlayer@@IAEXXZ PROC	; CPythonPlayer::__ClearReservedAction, COMDAT
; _this$ = ecx

; 821  : 	m_eReservedMode=MODE_NONE;

  00000	c7 41 54 00 00
	00 00		 mov	 DWORD PTR [ecx+84], 0

; 822  : }

  00007	c3		 ret	 0
?__ClearReservedAction@CPythonPlayer@@IAEXXZ ENDP	; CPythonPlayer::__ClearReservedAction
_TEXT	ENDS
; Function compile flags: /Ogtp
; File d:\metin2\metin2\client_source_clean\client_source_clean\source\userinterface\pythonplayerinput.cpp
;	COMDAT ?__GetAliveTargetInstancePtr@CPythonPlayer@@IAEPAVCInstanceBase@@XZ
_TEXT	SEGMENT
?__GetAliveTargetInstancePtr@CPythonPlayer@@IAEPAVCInstanceBase@@XZ PROC ; CPythonPlayer::__GetAliveTargetInstancePtr, COMDAT
; _this$ = ecx

; 222  : 	if (!__IsTarget())

  00000	e8 00 00 00 00	 call	 ?__IsTarget@CPythonPlayer@@IAE_NXZ ; CPythonPlayer::__IsTarget
  00005	84 c0		 test	 al, al
  00007	75 03		 jne	 SHORT $LN3@GetAliveTa

; 223  : 		return NULL;

  00009	33 c0		 xor	 eax, eax

; 231  : 		return NULL;
; 232  : 
; 233  : 	return pkInstTarget;
; 234  : }

  0000b	c3		 ret	 0
$LN3@GetAliveTa:
  0000c	56		 push	 esi

; 224  : 
; 225  : 	CInstanceBase * pkInstTarget = __GetTargetActorPtr();

  0000d	e8 00 00 00 00	 call	 ?__GetTargetActorPtr@CPythonPlayer@@IAEPAVCInstanceBase@@XZ ; CPythonPlayer::__GetTargetActorPtr
  00012	8b f0		 mov	 esi, eax

; 226  : 
; 227  : 	if (!pkInstTarget)

  00014	85 f6		 test	 esi, esi
  00016	75 02		 jne	 SHORT $LN2@GetAliveTa
  00018	5e		 pop	 esi

; 231  : 		return NULL;
; 232  : 
; 233  : 	return pkInstTarget;
; 234  : }

  00019	c3		 ret	 0
$LN2@GetAliveTa:

; 228  : 		return NULL;
; 229  : 
; 230  : 	if (pkInstTarget->IsDead())

  0001a	8b ce		 mov	 ecx, esi
  0001c	e8 00 00 00 00	 call	 ?IsDead@CInstanceBase@@QAEHXZ ; CInstanceBase::IsDead
  00021	33 c9		 xor	 ecx, ecx
  00023	85 c0		 test	 eax, eax
  00025	0f 45 f1	 cmovne	 esi, ecx
  00028	8b c6		 mov	 eax, esi
  0002a	5e		 pop	 esi

; 231  : 		return NULL;
; 232  : 
; 233  : 	return pkInstTarget;
; 234  : }

  0002b	c3		 ret	 0
?__GetAliveTargetInstancePtr@CPythonPlayer@@IAEPAVCInstanceBase@@XZ ENDP ; CPythonPlayer::__GetAliveTargetInstancePtr
_TEXT	ENDS
; Function compile flags: /Ogtp
; File d:\metin2\metin2\client_source_clean\client_source_clean\source\userinterface\pythonplayerinput.cpp
; File d:\metin2\metin2\client_source_clean\client_source_clean\source\userinterface\pythonplayereventhandler.h
; File d:\metin2\metin2\client_source_clean\client_source_clean\source\userinterface\pythonplayerinput.cpp
;	COMDAT ?SetTarget@CPythonPlayer@@UAEXKH@Z
_TEXT	SEGMENT
_dwCurrentTime$1$ = -4					; size = 4
_dwVID$ = 8						; size = 4
_bForceChange$ = 12					; size = 4
?SetTarget@CPythonPlayer@@UAEXKH@Z PROC			; CPythonPlayer::SetTarget, COMDAT
; _this$ = ecx

; 113  : {

  00000	55		 push	 ebp
  00001	8b ec		 mov	 ebp, esp
  00003	51		 push	 ecx
  00004	56		 push	 esi
  00005	8b f1		 mov	 esi, ecx
  00007	57		 push	 edi

; 114  : 	CInstanceBase * pkInstMain = NEW_GetMainActorPtr();

  00008	8b 06		 mov	 eax, DWORD PTR [esi]
  0000a	ff 90 88 00 00
	00		 call	 DWORD PTR [eax+136]
  00010	8b f8		 mov	 edi, eax

; 115  : 	if (!pkInstMain)

  00012	85 ff		 test	 edi, edi
  00014	0f 84 39 01 00
	00		 je	 $LN12@SetTarget

; 116  : 		return;
; 117  : 
; 118  : 	// 2004. 07. 07. [levites] - 스킬 사용중 타겟이 바뀌는 문제 해결을 위한 코드
; 119  : 	if (!pkInstMain->CanChangeTarget())

  0001a	8b cf		 mov	 ecx, edi
  0001c	e8 00 00 00 00	 call	 ?CanChangeTarget@CInstanceBase@@QAE_NXZ ; CInstanceBase::CanChangeTarget
  00021	84 c0		 test	 al, al
  00023	0f 84 2a 01 00
	00		 je	 $LN12@SetTarget

; 120  : 	{
; 121  : 		return;
; 122  : 	}
; 123  : 
; 124  : 	DWORD dwCurrentTime = CTimer::Instance().GetCurrentMillisecond();

  00029	8b 0d 00 00 00
	00		 mov	 ecx, DWORD PTR ?ms_singleton@?$CSingleton@VCTimer@@@@0PAVCTimer@@A ; CSingleton<CTimer>::ms_singleton
  0002f	53		 push	 ebx
  00030	e8 00 00 00 00	 call	 ?GetCurrentMillisecond@CTimer@@QAEKXZ ; CTimer::GetCurrentMillisecond

; 125  : 
; 126  : 	if (__IsSameTargetVID(dwVID))

  00035	ff 75 08	 push	 DWORD PTR _dwVID$[ebp]
  00038	8b d0		 mov	 edx, eax
  0003a	8d 5e fc	 lea	 ebx, DWORD PTR [esi-4]
  0003d	8b cb		 mov	 ecx, ebx
  0003f	89 55 fc	 mov	 DWORD PTR _dwCurrentTime$1$[ebp], edx
  00042	e8 00 00 00 00	 call	 ?__IsSameTargetVID@CPythonPlayer@@IAE_NK@Z ; CPythonPlayer::__IsSameTargetVID
  00047	84 c0		 test	 al, al
  00049	74 38		 je	 SHORT $LN9@SetTarget

; 127  : 	{
; 128  : 		if (dwVID==pkInstMain->GetVirtualID())

  0004b	8b cf		 mov	 ecx, edi
  0004d	e8 00 00 00 00	 call	 ?GetVirtualID@CInstanceBase@@QAEKXZ ; CInstanceBase::GetVirtualID
  00052	39 45 08	 cmp	 DWORD PTR _dwVID$[ebp], eax
  00055	75 15		 jne	 SHORT $LN8@SetTarget

; 129  : 		{
; 130  : 			__SetTargetVID(0);

  00057	6a 00		 push	 0
  00059	8b cb		 mov	 ecx, ebx
  0005b	e8 00 00 00 00	 call	 ?__SetTargetVID@CPythonPlayer@@IAEXK@Z ; CPythonPlayer::__SetTargetVID

; 131  : 			
; 132  : 			pkInstMain->OnUntargeted();

  00060	8b cf		 mov	 ecx, edi
  00062	e8 00 00 00 00	 call	 ?OnUntargeted@CInstanceBase@@QAEXXZ ; CInstanceBase::OnUntargeted

; 133  : 			pkInstMain->ClearFlyTargetInstance();
; 134  : 			CPythonNetworkStream::Instance().SendTargetPacket(0);
; 135  : 			return;

  00067	e9 d2 00 00 00	 jmp	 $LN27@SetTarget
$LN8@SetTarget:

; 136  : 		}
; 137  : 		m_dwTargetEndTime = dwCurrentTime + 1000;

  0006c	8b 45 fc	 mov	 eax, DWORD PTR _dwCurrentTime$1$[ebp]
  0006f	5b		 pop	 ebx
  00070	05 e8 03 00 00	 add	 eax, 1000		; 000003e8H
  00075	5f		 pop	 edi
  00076	89 86 14 0a 01
	00		 mov	 DWORD PTR [esi+68116], eax
  0007c	5e		 pop	 esi

; 183  : 	
; 184  : }

  0007d	8b e5		 mov	 esp, ebp
  0007f	5d		 pop	 ebp
  00080	c2 08 00	 ret	 8
$LN9@SetTarget:

; 138  : 		return;
; 139  : 	}
; 140  : 
; 141  : 	if (bForceChange)

  00083	83 7d 0c 00	 cmp	 DWORD PTR _bForceChange$[ebp], 0
  00087	74 08		 je	 SHORT $LN7@SetTarget

; 142  : 	{
; 143  : 		m_dwTargetEndTime = dwCurrentTime + 2000;

  00089	8d 82 d0 07 00
	00		 lea	 eax, DWORD PTR [edx+2000]

; 144  : 	}
; 145  : 	else

  0008f	eb 12		 jmp	 SHORT $LN28@SetTarget
$LN7@SetTarget:

; 146  : 	{
; 147  : 		if (m_dwTargetEndTime > dwCurrentTime)

  00091	39 96 14 0a 01
	00		 cmp	 DWORD PTR [esi+68116], edx
  00097	0f 87 b5 00 00
	00		 ja	 $LN26@SetTarget

; 148  : 		{
; 149  : 			return;
; 150  : 		}
; 151  : 
; 152  : 		m_dwTargetEndTime = dwCurrentTime + 1000;

  0009d	8d 82 e8 03 00
	00		 lea	 eax, DWORD PTR [edx+1000]
$LN28@SetTarget:

; 153  : 	}
; 154  : 
; 155  : 	if (__IsTarget())

  000a3	8b cb		 mov	 ecx, ebx
  000a5	89 86 14 0a 01
	00		 mov	 DWORD PTR [esi+68116], eax
  000ab	e8 00 00 00 00	 call	 ?__IsTarget@CPythonPlayer@@IAE_NXZ ; CPythonPlayer::__IsTarget
  000b0	84 c0		 test	 al, al
  000b2	74 10		 je	 SHORT $LN3@SetTarget

; 156  : 	{
; 157  : 		CInstanceBase * pTargetedInstance = __GetTargetActorPtr();

  000b4	e8 00 00 00 00	 call	 ?__GetTargetActorPtr@CPythonPlayer@@IAEPAVCInstanceBase@@XZ ; CPythonPlayer::__GetTargetActorPtr

; 158  : 		if (pTargetedInstance)

  000b9	85 c0		 test	 eax, eax
  000bb	74 07		 je	 SHORT $LN3@SetTarget

; 159  : 			pTargetedInstance->OnUntargeted();

  000bd	8b c8		 mov	 ecx, eax
  000bf	e8 00 00 00 00	 call	 ?OnUntargeted@CInstanceBase@@QAEXXZ ; CInstanceBase::OnUntargeted
$LN3@SetTarget:

; 160  : 	}
; 161  : 	
; 162  : 
; 163  : 	CInstanceBase * pkInstTarget = CPythonCharacterManager::Instance().GetInstancePtr(dwVID);

  000c4	8b 0d 00 00 00
	00		 mov	 ecx, DWORD PTR ?ms_singleton@?$CSingleton@VCPythonCharacterManager@@@@0PAVCPythonCharacterManager@@A ; CSingleton<CPythonCharacterManager>::ms_singleton
  000ca	8b 55 08	 mov	 edx, DWORD PTR _dwVID$[ebp]
  000cd	83 c1 04	 add	 ecx, 4
  000d0	52		 push	 edx
  000d1	8b 01		 mov	 eax, DWORD PTR [ecx]
  000d3	ff 50 08	 call	 DWORD PTR [eax+8]
  000d6	8b f0		 mov	 esi, eax

; 164  : 	if (pkInstTarget)

  000d8	85 f6		 test	 esi, esi
  000da	74 59		 je	 SHORT $LN1@SetTarget

; 165  : 	{
; 166  : 		if (pkInstMain->IsTargetableInstance(*pkInstTarget))

  000dc	56		 push	 esi
  000dd	e8 00 00 00 00	 call	 ?IsTargetableInstance@CInstanceBase@@QAE_NAAV1@@Z ; CInstanceBase::IsTargetableInstance
  000e2	84 c0		 test	 al, al
  000e4	74 4f		 je	 SHORT $LN1@SetTarget

; 167  : 		{
; 168  : 			__SetTargetVID(dwVID);

  000e6	ff 75 08	 push	 DWORD PTR _dwVID$[ebp]
  000e9	8b cb		 mov	 ecx, ebx
  000eb	e8 00 00 00 00	 call	 ?__SetTargetVID@CPythonPlayer@@IAEXK@Z ; CPythonPlayer::__SetTargetVID

; 169  : 			
; 170  : 			pkInstTarget->OnTargeted();

  000f0	8b ce		 mov	 ecx, esi
  000f2	e8 00 00 00 00	 call	 ?OnTargeted@CInstanceBase@@QAEXXZ ; CInstanceBase::OnTargeted

; 171  : 			pkInstMain->SetFlyTargetInstance(*pkInstTarget);

  000f7	56		 push	 esi
  000f8	8b cf		 mov	 ecx, edi
  000fa	e8 00 00 00 00	 call	 ?SetFlyTargetInstance@CInstanceBase@@QAEXAAV1@@Z ; CInstanceBase::SetFlyTargetInstance

; 172  : 			pkInstMain->GetGraphicThingInstanceRef().SetFlyEventHandler(CPythonPlayerEventHandler::GetSingleton().GetNormalBowAttackFlyEventHandler(pkInstMain, pkInstTarget));

  000ff	e8 00 00 00 00	 call	 ?GetSingleton@CPythonPlayerEventHandler@@SAAAV1@XZ ; CPythonPlayerEventHandler::GetSingleton
; File d:\metin2\metin2\client_source_clean\client_source_clean\source\userinterface\pythonplayereventhandler.h

; 81   : 				m_NormalBowAttack_FlyEventHandler_AutoClear.Set(this,pInstMain,pInstTarget);

  00104	56		 push	 esi
  00105	57		 push	 edi
  00106	50		 push	 eax
  00107	8d 48 28	 lea	 ecx, DWORD PTR [eax+40]
  0010a	e8 00 00 00 00	 call	 ?Set@CNormalBowAttack_FlyEventHandler_AutoClear@CPythonPlayerEventHandler@@QAEXPAV2@PAVCInstanceBase@@1@Z ; CPythonPlayerEventHandler::CNormalBowAttack_FlyEventHandler_AutoClear::Set
; File d:\metin2\metin2\client_source_clean\client_source_clean\source\userinterface\pythonplayerinput.cpp

; 172  : 			pkInstMain->GetGraphicThingInstanceRef().SetFlyEventHandler(CPythonPlayerEventHandler::GetSingleton().GetNormalBowAttackFlyEventHandler(pkInstMain, pkInstTarget));

  0010f	51		 push	 ecx
  00110	8b cf		 mov	 ecx, edi
  00112	e8 00 00 00 00	 call	 ?GetGraphicThingInstanceRef@CInstanceBase@@QAEAAVCActorInstance@@XZ ; CInstanceBase::GetGraphicThingInstanceRef
  00117	8b c8		 mov	 ecx, eax
  00119	e8 00 00 00 00	 call	 ?SetFlyEventHandler@CActorInstance@@QAEXPAVIFlyEventHandler@@@Z ; CActorInstance::SetFlyEventHandler

; 173  : 			CPythonNetworkStream::Instance().SendTargetPacket(dwVID);

  0011e	ff 75 08	 push	 DWORD PTR _dwVID$[ebp]

; 182  : 	CPythonNetworkStream::Instance().SendTargetPacket(0);

  00121	8b 0d 00 00 00
	00		 mov	 ecx, DWORD PTR ?ms_singleton@?$CSingleton@VCPythonNetworkStream@@@@0PAVCPythonNetworkStream@@A ; CSingleton<CPythonNetworkStream>::ms_singleton
  00127	e8 00 00 00 00	 call	 ?SendTargetPacket@CPythonNetworkStream@@QAE_NK@Z ; CPythonNetworkStream::SendTargetPacket
  0012c	5b		 pop	 ebx
  0012d	5f		 pop	 edi
  0012e	5e		 pop	 esi

; 183  : 	
; 184  : }

  0012f	8b e5		 mov	 esp, ebp
  00131	5d		 pop	 ebp
  00132	c2 08 00	 ret	 8
$LN1@SetTarget:

; 174  : 
; 175  : 			return;
; 176  : 		}
; 177  : 	}
; 178  : 
; 179  : 	__SetTargetVID(0);

  00135	6a 00		 push	 0
  00137	8b cb		 mov	 ecx, ebx
  00139	e8 00 00 00 00	 call	 ?__SetTargetVID@CPythonPlayer@@IAEXK@Z ; CPythonPlayer::__SetTargetVID
$LN27@SetTarget:

; 180  : 	
; 181  : 	pkInstMain->ClearFlyTargetInstance();

  0013e	8b cf		 mov	 ecx, edi
  00140	e8 00 00 00 00	 call	 ?ClearFlyTargetInstance@CInstanceBase@@QAEXXZ ; CInstanceBase::ClearFlyTargetInstance

; 182  : 	CPythonNetworkStream::Instance().SendTargetPacket(0);

  00145	8b 0d 00 00 00
	00		 mov	 ecx, DWORD PTR ?ms_singleton@?$CSingleton@VCPythonNetworkStream@@@@0PAVCPythonNetworkStream@@A ; CSingleton<CPythonNetworkStream>::ms_singleton
  0014b	6a 00		 push	 0
  0014d	e8 00 00 00 00	 call	 ?SendTargetPacket@CPythonNetworkStream@@QAE_NK@Z ; CPythonNetworkStream::SendTargetPacket
$LN26@SetTarget:
  00152	5b		 pop	 ebx
$LN12@SetTarget:
  00153	5f		 pop	 edi
  00154	5e		 pop	 esi

; 183  : 	
; 184  : }

  00155	8b e5		 mov	 esp, ebp
  00157	5d		 pop	 ebp
  00158	c2 08 00	 ret	 8
?SetTarget@CPythonPlayer@@UAEXKH@Z ENDP			; CPythonPlayer::SetTarget
_TEXT	ENDS
; Function compile flags: /Ogtp
; File d:\metin2\metin2\client_source_clean\client_source_clean\source\userinterface\pythonplayerinput.cpp
;	COMDAT ?__IsSameTargetVID@CPythonPlayer@@IAE_NK@Z
_TEXT	SEGMENT
_dwVID$ = 8						; size = 4
?__IsSameTargetVID@CPythonPlayer@@IAE_NK@Z PROC		; CPythonPlayer::__IsSameTargetVID, COMDAT
; _this$ = ecx

; 67   : {

  00000	55		 push	 ebp
  00001	8b ec		 mov	 ebp, esp

; 68   : 	return dwVID == __GetTargetVID();

  00003	e8 00 00 00 00	 call	 ?__GetTargetVID@CPythonPlayer@@IAEKXZ ; CPythonPlayer::__GetTargetVID
  00008	33 c9		 xor	 ecx, ecx
  0000a	39 45 08	 cmp	 DWORD PTR _dwVID$[ebp], eax
  0000d	0f 94 c0	 sete	 al

; 69   : }

  00010	5d		 pop	 ebp
  00011	c2 04 00	 ret	 4
?__IsSameTargetVID@CPythonPlayer@@IAE_NK@Z ENDP		; CPythonPlayer::__IsSameTargetVID
_TEXT	ENDS
; Function compile flags: /Ogtp
; File d:\metin2\metin2\client_source_clean\client_source_clean\source\userinterface\pythonplayerinput.cpp
;	COMDAT ?__ReserveClickActor@CPythonPlayer@@IAEXK@Z
_TEXT	SEGMENT
_dwActorID$ = 8						; size = 4
?__ReserveClickActor@CPythonPlayer@@IAEXK@Z PROC	; CPythonPlayer::__ReserveClickActor, COMDAT
; _this$ = ecx

; 831  : {

  00000	55		 push	 ebp
  00001	8b ec		 mov	 ebp, esp

; 832  : 	m_eReservedMode=MODE_CLICK_ACTOR;
; 833  : 	m_dwVIDReserved=dwActorID;

  00003	8b 45 08	 mov	 eax, DWORD PTR _dwActorID$[ebp]
  00006	c7 41 54 03 00
	00 00		 mov	 DWORD PTR [ecx+84], 3
  0000d	89 81 6c 09 01
	00		 mov	 DWORD PTR [ecx+67948], eax

; 834  : }

  00013	5d		 pop	 ebp
  00014	c2 04 00	 ret	 4
?__ReserveClickActor@CPythonPlayer@@IAEXK@Z ENDP	; CPythonPlayer::__ReserveClickActor
_TEXT	ENDS
; Function compile flags: /Ogtp
; File d:\metin2\metin2\client_source_clean\client_source_clean\source\userinterface\pythonplayerinput.cpp
;	COMDAT ?__ClearAutoAttackTargetActorID@CPythonPlayer@@IAEXXZ
_TEXT	SEGMENT
?__ClearAutoAttackTargetActorID@CPythonPlayer@@IAEXXZ PROC ; CPythonPlayer::__ClearAutoAttackTargetActorID, COMDAT
; _this$ = ecx

; 868  : 	__SetAutoAttackTargetActorID(0);

  00000	6a 00		 push	 0
  00002	e8 00 00 00 00	 call	 ?__SetAutoAttackTargetActorID@CPythonPlayer@@IAEXK@Z ; CPythonPlayer::__SetAutoAttackTargetActorID

; 869  : }

  00007	c3		 ret	 0
?__ClearAutoAttackTargetActorID@CPythonPlayer@@IAEXXZ ENDP ; CPythonPlayer::__ClearAutoAttackTargetActorID
_TEXT	ENDS
; Function compile flags: /Ogtp
; File d:\metin2\metin2\client_source_clean\client_source_clean\source\userinterface\pythonplayerinput.cpp
;	COMDAT ?NEW_Stop@CPythonPlayer@@QAEXXZ
_TEXT	SEGMENT
?NEW_Stop@CPythonPlayer@@QAEXXZ PROC			; CPythonPlayer::NEW_Stop, COMDAT
; _this$ = ecx

; 494  : {

  00000	56		 push	 esi
  00001	8b f1		 mov	 esi, ecx

; 495  : 	CInstanceBase* pkInstMain=NEW_GetMainActorPtr();

  00003	8b 46 04	 mov	 eax, DWORD PTR [esi+4]
  00006	8d 4e 04	 lea	 ecx, DWORD PTR [esi+4]
  00009	ff 90 88 00 00
	00		 call	 DWORD PTR [eax+136]

; 496  : 	if (!pkInstMain)

  0000f	85 c0		 test	 eax, eax
  00011	74 0e		 je	 SHORT $LN2@NEW_Stop

; 497  : 		return;
; 498  : 
; 499  : 	pkInstMain->NEW_Stop();

  00013	8b c8		 mov	 ecx, eax
  00015	e8 00 00 00 00	 call	 ?NEW_Stop@CInstanceBase@@QAEXXZ ; CInstanceBase::NEW_Stop

; 500  : 	m_isLeft = FALSE;
; 501  : 	m_isRight = FALSE;
; 502  : 	m_isUp = FALSE;

  0001a	c7 46 60 00 00
	00 00		 mov	 DWORD PTR [esi+96], 0
$LN2@NEW_Stop:
  00021	5e		 pop	 esi

; 503  : 	m_isDown = FALSE;
; 504  : }

  00022	c3		 ret	 0
?NEW_Stop@CPythonPlayer@@QAEXXZ ENDP			; CPythonPlayer::NEW_Stop
_TEXT	ENDS
; Function compile flags: /Ogtp
; File d:\metin2\metin2\client_source_clean\client_source_clean\source\userinterface\pythonplayereventhandler.h
;	COMDAT ?GetNormalBowAttackFlyEventHandler@CPythonPlayerEventHandler@@QAEPAVIFlyEventHandler@@PAVCInstanceBase@@0@Z
_TEXT	SEGMENT
_pInstMain$ = 8						; size = 4
_pInstTarget$ = 12					; size = 4
?GetNormalBowAttackFlyEventHandler@CPythonPlayerEventHandler@@QAEPAVIFlyEventHandler@@PAVCInstanceBase@@0@Z PROC ; CPythonPlayerEventHandler::GetNormalBowAttackFlyEventHandler, COMDAT
; _this$ = ecx

; 80   : 			{

  00000	55		 push	 ebp
  00001	8b ec		 mov	 ebp, esp

; 81   : 				m_NormalBowAttack_FlyEventHandler_AutoClear.Set(this,pInstMain,pInstTarget);

  00003	ff 75 0c	 push	 DWORD PTR _pInstTarget$[ebp]
  00006	8d 51 28	 lea	 edx, DWORD PTR [ecx+40]
  00009	ff 75 08	 push	 DWORD PTR _pInstMain$[ebp]
  0000c	51		 push	 ecx
  0000d	8b ca		 mov	 ecx, edx
  0000f	e8 00 00 00 00	 call	 ?Set@CNormalBowAttack_FlyEventHandler_AutoClear@CPythonPlayerEventHandler@@QAEXPAV2@PAVCInstanceBase@@1@Z ; CPythonPlayerEventHandler::CNormalBowAttack_FlyEventHandler_AutoClear::Set

; 82   : 				return &m_NormalBowAttack_FlyEventHandler_AutoClear;

  00014	8b c2		 mov	 eax, edx

; 83   : 			}

  00016	5d		 pop	 ebp
  00017	c2 08 00	 ret	 8
?GetNormalBowAttackFlyEventHandler@CPythonPlayerEventHandler@@QAEPAVIFlyEventHandler@@PAVCInstanceBase@@0@Z ENDP ; CPythonPlayerEventHandler::GetNormalBowAttackFlyEventHandler
_TEXT	ENDS
; Function compile flags: /Ogtp
; File d:\metin2\metin2\client_source_clean\client_source_clean\source\userinterface\pythonplayerinput.cpp
;	COMDAT ?__GetPickableDistance@CPythonPlayer@@IAEKXZ
_TEXT	SEGMENT
?__GetPickableDistance@CPythonPlayer@@IAEKXZ PROC	; CPythonPlayer::__GetPickableDistance, COMDAT
; _this$ = ecx

; 19   : 	CInstanceBase * pkInstMain = NEW_GetMainActorPtr();

  00000	8b 41 04	 mov	 eax, DWORD PTR [ecx+4]
  00003	83 c1 04	 add	 ecx, 4
  00006	ff 90 88 00 00
	00		 call	 DWORD PTR [eax+136]

; 20   : 	if (pkInstMain)

  0000c	85 c0		 test	 eax, eax
  0000e	74 10		 je	 SHORT $LN1@GetPickabl

; 21   : 		if (pkInstMain->IsMountingHorse())

  00010	8b c8		 mov	 ecx, eax
  00012	e8 00 00 00 00	 call	 ?IsMountingHorse@CInstanceBase@@QAEHXZ ; CInstanceBase::IsMountingHorse
  00017	85 c0		 test	 eax, eax

; 22   : 			return 500;

  00019	b8 f4 01 00 00	 mov	 eax, 500		; 000001f4H
  0001e	75 05		 jne	 SHORT $LN3@GetPickabl
$LN1@GetPickabl:

; 23   : 
; 24   : 	return 300;

  00020	b8 2c 01 00 00	 mov	 eax, 300		; 0000012cH
$LN3@GetPickabl:

; 25   : }

  00025	c3		 ret	 0
?__GetPickableDistance@CPythonPlayer@@IAEKXZ ENDP	; CPythonPlayer::__GetPickableDistance
_TEXT	ENDS
; Function compile flags: /Ogtp
; File d:\metin2\metin2\client_source_clean\client_source_clean\source\userinterface\pythonplayerinput.cpp
;	COMDAT ?PickCloseItem@CPythonPlayer@@QAEXXZ
_TEXT	SEGMENT
_kPPosMain$ = -16					; size = 12
_dwItemID$ = -4						; size = 4
?PickCloseItem@CPythonPlayer@@QAEXXZ PROC		; CPythonPlayer::PickCloseItem, COMDAT
; _this$ = ecx

; 45   : {

  00000	55		 push	 ebp
  00001	8b ec		 mov	 ebp, esp
  00003	83 ec 10	 sub	 esp, 16			; 00000010H
  00006	57		 push	 edi
  00007	8b f9		 mov	 edi, ecx

; 46   : 	CInstanceBase * pkInstMain = NEW_GetMainActorPtr();

  00009	8b 47 04	 mov	 eax, DWORD PTR [edi+4]
  0000c	8d 4f 04	 lea	 ecx, DWORD PTR [edi+4]
  0000f	ff 90 88 00 00
	00		 call	 DWORD PTR [eax+136]

; 47   : 	if (!pkInstMain)

  00015	85 c0		 test	 eax, eax
  00017	74 38		 je	 SHORT $LN3@PickCloseI

; 48   : 		return;
; 49   : 
; 50   : 	TPixelPosition kPPosMain;
; 51   : 	pkInstMain->NEW_GetPixelPosition(&kPPosMain);

  00019	56		 push	 esi
  0001a	8d 4d f0	 lea	 ecx, DWORD PTR _kPPosMain$[ebp]
  0001d	51		 push	 ecx
  0001e	8b c8		 mov	 ecx, eax
  00020	e8 00 00 00 00	 call	 ?NEW_GetPixelPosition@CInstanceBase@@QAEXPAUD3DXVECTOR3@@@Z ; CInstanceBase::NEW_GetPixelPosition

; 52   : 
; 53   : 	DWORD dwItemID;
; 54   : 	CPythonItem& rkItem=CPythonItem::Instance();

  00025	8b 35 00 00 00
	00		 mov	 esi, DWORD PTR ?ms_singleton@?$CSingleton@VCPythonItem@@@@0PAVCPythonItem@@A ; CSingleton<CPythonItem>::ms_singleton

; 55   : 	if (!rkItem.GetCloseItem(kPPosMain, &dwItemID, __GetPickableDistance()))

  0002b	8b cf		 mov	 ecx, edi
  0002d	e8 00 00 00 00	 call	 ?__GetPickableDistance@CPythonPlayer@@IAEKXZ ; CPythonPlayer::__GetPickableDistance
  00032	50		 push	 eax
  00033	8d 45 fc	 lea	 eax, DWORD PTR _dwItemID$[ebp]
  00036	8b ce		 mov	 ecx, esi
  00038	50		 push	 eax
  00039	8d 45 f0	 lea	 eax, DWORD PTR _kPPosMain$[ebp]
  0003c	50		 push	 eax
  0003d	e8 00 00 00 00	 call	 ?GetCloseItem@CPythonItem@@QAE_NABUD3DXVECTOR3@@PAKK@Z ; CPythonItem::GetCloseItem
  00042	5e		 pop	 esi
  00043	84 c0		 test	 al, al
  00045	74 0a		 je	 SHORT $LN3@PickCloseI

; 56   : 		return;
; 57   : 
; 58   : 	SendClickItemPacket(dwItemID);

  00047	ff 75 fc	 push	 DWORD PTR _dwItemID$[ebp]
  0004a	8b cf		 mov	 ecx, edi
  0004c	e8 00 00 00 00	 call	 ?SendClickItemPacket@CPythonPlayer@@QAEXK@Z ; CPythonPlayer::SendClickItemPacket
$LN3@PickCloseI:
  00051	5f		 pop	 edi

; 59   : }

  00052	8b e5		 mov	 esp, ebp
  00054	5d		 pop	 ebp
  00055	c3		 ret	 0
?PickCloseItem@CPythonPlayer@@QAEXXZ ENDP		; CPythonPlayer::PickCloseItem
_TEXT	ENDS
; Function compile flags: /Ogtp
; File d:\metin2\metin2\client_source_clean\client_source_clean\source\userinterface\pythonplayerinput.cpp
;	COMDAT ?__IsTarget@CPythonPlayer@@IAE_NXZ
_TEXT	SEGMENT
?__IsTarget@CPythonPlayer@@IAE_NXZ PROC			; CPythonPlayer::__IsTarget, COMDAT
; _this$ = ecx

; 63   : 	return 0 != __GetTargetVID();

  00000	e8 00 00 00 00	 call	 ?__GetTargetVID@CPythonPlayer@@IAEKXZ ; CPythonPlayer::__GetTargetVID
  00005	f7 d8		 neg	 eax
  00007	1b c0		 sbb	 eax, eax
  00009	f7 d8		 neg	 eax

; 64   : }

  0000b	c3		 ret	 0
?__IsTarget@CPythonPlayer@@IAE_NXZ ENDP			; CPythonPlayer::__IsTarget
_TEXT	ENDS
; Function compile flags: /Ogtp
; File d:\metin2\metin2\client_source_clean\client_source_clean\source\userinterface\pythonplayerinput.cpp
;	COMDAT ?__GetTargetVID@CPythonPlayer@@IAEKXZ
_TEXT	SEGMENT
?__GetTargetVID@CPythonPlayer@@IAEKXZ PROC		; CPythonPlayer::__GetTargetVID, COMDAT
; _this$ = ecx

; 73   : 	return m_dwTargetVID;

  00000	8b 81 14 0a 01
	00		 mov	 eax, DWORD PTR [ecx+68116]

; 74   : }

  00006	c3		 ret	 0
?__GetTargetVID@CPythonPlayer@@IAEKXZ ENDP		; CPythonPlayer::__GetTargetVID
_TEXT	ENDS
; Function compile flags: /Ogtp
; File d:\metin2\metin2\client_source_clean\client_source_clean\source\userinterface\pythonplayerinput.cpp
;	COMDAT ?GetTargetVID@CPythonPlayer@@QAEKXZ
_TEXT	SEGMENT
?GetTargetVID@CPythonPlayer@@QAEKXZ PROC		; CPythonPlayer::GetTargetVID, COMDAT
; _this$ = ecx

; 78   : 	return __GetTargetVID();

  00000	e9 00 00 00 00	 jmp	 ?__GetTargetVID@CPythonPlayer@@IAEKXZ ; CPythonPlayer::__GetTargetVID
?GetTargetVID@CPythonPlayer@@QAEKXZ ENDP		; CPythonPlayer::GetTargetVID
_TEXT	ENDS
; Function compile flags: /Ogtp
; File d:\metin2\metin2\client_source_clean\client_source_clean\source\userinterface\pythonplayerinput.cpp
;	COMDAT ?__GetTargetActorPtr@CPythonPlayer@@IAEPAVCInstanceBase@@XZ
_TEXT	SEGMENT
?__GetTargetActorPtr@CPythonPlayer@@IAEPAVCInstanceBase@@XZ PROC ; CPythonPlayer::__GetTargetActorPtr, COMDAT
; _this$ = ecx

; 84   : 	return NEW_FindActorPtr(__GetTargetVID());

  00000	e8 00 00 00 00	 call	 ?__GetTargetVID@CPythonPlayer@@IAEKXZ ; CPythonPlayer::__GetTargetVID
  00005	50		 push	 eax
  00006	e8 00 00 00 00	 call	 ?NEW_FindActorPtr@CPythonPlayer@@QAEPAVCInstanceBase@@K@Z ; CPythonPlayer::NEW_FindActorPtr

; 85   : }

  0000b	c3		 ret	 0
?__GetTargetActorPtr@CPythonPlayer@@IAEPAVCInstanceBase@@XZ ENDP ; CPythonPlayer::__GetTargetActorPtr
_TEXT	ENDS
; Function compile flags: /Ogtp
; File d:\metin2\metin2\client_source_clean\client_source_clean\source\userinterface\pythonplayerinput.cpp
;	COMDAT ?__SetTargetVID@CPythonPlayer@@IAEXK@Z
_TEXT	SEGMENT
_dwVID$ = 8						; size = 4
?__SetTargetVID@CPythonPlayer@@IAEXK@Z PROC		; CPythonPlayer::__SetTargetVID, COMDAT
; _this$ = ecx

; 88   : {

  00000	55		 push	 ebp
  00001	8b ec		 mov	 ebp, esp

; 89   : 	m_dwTargetVID=dwVID;

  00003	8b 45 08	 mov	 eax, DWORD PTR _dwVID$[ebp]
  00006	89 81 14 0a 01
	00		 mov	 DWORD PTR [ecx+68116], eax

; 90   : }

  0000c	5d		 pop	 ebp
  0000d	c2 04 00	 ret	 4
?__SetTargetVID@CPythonPlayer@@IAEXK@Z ENDP		; CPythonPlayer::__SetTargetVID
_TEXT	ENDS
; Function compile flags: /Ogtp
; File d:\metin2\metin2\client_source_clean\client_source_clean\source\userinterface\pythonplayerinput.cpp
;	COMDAT ?__ChangeTargetToPickedInstance@CPythonPlayer@@IAE_NXZ
_TEXT	SEGMENT
_dwVID$ = -4						; size = 4
?__ChangeTargetToPickedInstance@CPythonPlayer@@IAE_NXZ PROC ; CPythonPlayer::__ChangeTargetToPickedInstance, COMDAT
; _this$ = ecx

; 187  : {

  00000	55		 push	 ebp
  00001	8b ec		 mov	 ebp, esp
  00003	51		 push	 ecx
  00004	56		 push	 esi

; 188  : 	DWORD dwVID;
; 189  : 	if (!CPythonCharacterManager::Instance().OLD_GetPickedInstanceVID(&dwVID))

  00005	8d 45 fc	 lea	 eax, DWORD PTR _dwVID$[ebp]
  00008	8b f1		 mov	 esi, ecx
  0000a	8b 0d 00 00 00
	00		 mov	 ecx, DWORD PTR ?ms_singleton@?$CSingleton@VCPythonCharacterManager@@@@0PAVCPythonCharacterManager@@A ; CSingleton<CPythonCharacterManager>::ms_singleton
  00010	50		 push	 eax
  00011	e8 00 00 00 00	 call	 ?OLD_GetPickedInstanceVID@CPythonCharacterManager@@QAE_NPAK@Z ; CPythonCharacterManager::OLD_GetPickedInstanceVID
  00016	84 c0		 test	 al, al
  00018	75 05		 jne	 SHORT $LN1@ChangeTarg
  0001a	5e		 pop	 esi

; 194  : }

  0001b	8b e5		 mov	 esp, ebp
  0001d	5d		 pop	 ebp
  0001e	c3		 ret	 0
$LN1@ChangeTarg:

; 190  : 		return false;
; 191  : 
; 192  : 	SetTarget(dwVID);

  0001f	8b 46 04	 mov	 eax, DWORD PTR [esi+4]
  00022	8d 4e 04	 lea	 ecx, DWORD PTR [esi+4]
  00025	6a 01		 push	 1
  00027	ff 75 fc	 push	 DWORD PTR _dwVID$[ebp]
  0002a	ff 50 60	 call	 DWORD PTR [eax+96]

; 193  : 	return true;

  0002d	b0 01		 mov	 al, 1
  0002f	5e		 pop	 esi

; 194  : }

  00030	8b e5		 mov	 esp, ebp
  00032	5d		 pop	 ebp
  00033	c3		 ret	 0
?__ChangeTargetToPickedInstance@CPythonPlayer@@IAE_NXZ ENDP ; CPythonPlayer::__ChangeTargetToPickedInstance
_TEXT	ENDS
; Function compile flags: /Ogtp
; File d:\metin2\metin2\client_source_clean\client_source_clean\source\userinterface\pythonplayerinput.cpp
;	COMDAT ?__GetDeadTargetInstancePtr@CPythonPlayer@@IAEPAVCInstanceBase@@XZ
_TEXT	SEGMENT
?__GetDeadTargetInstancePtr@CPythonPlayer@@IAEPAVCInstanceBase@@XZ PROC ; CPythonPlayer::__GetDeadTargetInstancePtr, COMDAT
; _this$ = ecx

; 206  : 	if (!__IsTarget())

  00000	e8 00 00 00 00	 call	 ?__IsTarget@CPythonPlayer@@IAE_NXZ ; CPythonPlayer::__IsTarget
  00005	84 c0		 test	 al, al
  00007	75 03		 jne	 SHORT $LN3@GetDeadTar

; 207  : 		return NULL;

  00009	33 c0		 xor	 eax, eax

; 215  : 		return NULL;
; 216  : 
; 217  : 	return pkInstTarget;
; 218  : }

  0000b	c3		 ret	 0
$LN3@GetDeadTar:
  0000c	56		 push	 esi

; 208  : 
; 209  : 	CInstanceBase * pkInstTarget = __GetTargetActorPtr();

  0000d	e8 00 00 00 00	 call	 ?__GetTargetActorPtr@CPythonPlayer@@IAEPAVCInstanceBase@@XZ ; CPythonPlayer::__GetTargetActorPtr
  00012	8b f0		 mov	 esi, eax

; 210  : 
; 211  : 	if (!pkInstTarget)

  00014	85 f6		 test	 esi, esi
  00016	75 02		 jne	 SHORT $LN2@GetDeadTar
  00018	5e		 pop	 esi

; 215  : 		return NULL;
; 216  : 
; 217  : 	return pkInstTarget;
; 218  : }

  00019	c3		 ret	 0
$LN2@GetDeadTar:

; 212  : 		return NULL;
; 213  : 
; 214  : 	if (!pkInstTarget->IsDead())

  0001a	8b ce		 mov	 ecx, esi
  0001c	e8 00 00 00 00	 call	 ?IsDead@CInstanceBase@@QAEHXZ ; CInstanceBase::IsDead
  00021	f7 d8		 neg	 eax
  00023	1b c0		 sbb	 eax, eax
  00025	23 c6		 and	 eax, esi
  00027	5e		 pop	 esi

; 215  : 		return NULL;
; 216  : 
; 217  : 	return pkInstTarget;
; 218  : }

  00028	c3		 ret	 0
?__GetDeadTargetInstancePtr@CPythonPlayer@@IAEPAVCInstanceBase@@XZ ENDP ; CPythonPlayer::__GetDeadTargetInstancePtr
_TEXT	ENDS
; Function compile flags: /Ogtp
; File d:\metin2\metin2\client_source_clean\client_source_clean\source\userinterface\pythonplayerinput.cpp
;	COMDAT ?OpenCharacterMenu@CPythonPlayer@@QAEXK@Z
_TEXT	SEGMENT
_dwVictimActorID$ = 8					; size = 4
?OpenCharacterMenu@CPythonPlayer@@QAEXK@Z PROC		; CPythonPlayer::OpenCharacterMenu, COMDAT
; _this$ = ecx

; 238  : {

  00000	55		 push	 ebp
  00001	8b ec		 mov	 ebp, esp
  00003	57		 push	 edi
  00004	8b f9		 mov	 edi, ecx

; 239  : 	CInstanceBase * pkInstMain = CPythonPlayer::Instance().NEW_GetMainActorPtr();

  00006	8b 0d 00 00 00
	00		 mov	 ecx, DWORD PTR ?ms_singleton@?$CSingleton@VCPythonPlayer@@@@0PAVCPythonPlayer@@A ; CSingleton<CPythonPlayer>::ms_singleton
  0000c	83 c1 04	 add	 ecx, 4
  0000f	8b 01		 mov	 eax, DWORD PTR [ecx]
  00011	ff 90 88 00 00
	00		 call	 DWORD PTR [eax+136]

; 240  : 	if (!pkInstMain)

  00017	85 c0		 test	 eax, eax
  00019	74 59		 je	 SHORT $LN4@OpenCharac

; 241  : 		return;
; 242  : 
; 243  : 	CInstanceBase * pkInstTarget = CPythonCharacterManager::Instance().GetInstancePtr(dwVictimActorID);

  0001b	8b 0d 00 00 00
	00		 mov	 ecx, DWORD PTR ?ms_singleton@?$CSingleton@VCPythonCharacterManager@@@@0PAVCPythonCharacterManager@@A ; CSingleton<CPythonCharacterManager>::ms_singleton
  00021	83 c1 04	 add	 ecx, 4
  00024	56		 push	 esi
  00025	ff 75 08	 push	 DWORD PTR _dwVictimActorID$[ebp]
  00028	8b 01		 mov	 eax, DWORD PTR [ecx]
  0002a	ff 50 08	 call	 DWORD PTR [eax+8]
  0002d	8b f0		 mov	 esi, eax

; 244  : 	if (!pkInstTarget)

  0002f	85 f6		 test	 esi, esi
  00031	74 40		 je	 SHORT $LN10@OpenCharac

; 245  : 		return;
; 246  : 
; 247  : 	if (!pkInstTarget->IsPC() && !pkInstTarget->IsBuilding())

  00033	8b ce		 mov	 ecx, esi
  00035	e8 00 00 00 00	 call	 ?IsPC@CInstanceBase@@QAEHXZ ; CInstanceBase::IsPC
  0003a	85 c0		 test	 eax, eax
  0003c	75 0b		 jne	 SHORT $LN1@OpenCharac
  0003e	8b ce		 mov	 ecx, esi
  00040	e8 00 00 00 00	 call	 ?IsBuilding@CInstanceBase@@QAEHXZ ; CInstanceBase::IsBuilding
  00045	85 c0		 test	 eax, eax
  00047	74 2a		 je	 SHORT $LN10@OpenCharac
$LN1@OpenCharac:

; 248  : 		return;
; 249  : 
; 250  : //	if (pkInstMain == pkInstTarget)
; 251  : //		return;
; 252  : 
; 253  : 	PyCallClassMemberFunc(m_ppyGameWindow, "SetPCTargetBoard", Py_BuildValue("(is)", pkInstTarget->GetVirtualID(), pkInstTarget->GetNameString()));

  00049	8b ce		 mov	 ecx, esi
  0004b	e8 00 00 00 00	 call	 ?GetNameString@CInstanceBase@@QAEPBDXZ ; CInstanceBase::GetNameString
  00050	50		 push	 eax
  00051	e8 00 00 00 00	 call	 ?GetVirtualID@CInstanceBase@@QAEKXZ ; CInstanceBase::GetVirtualID
  00056	50		 push	 eax
  00057	68 00 00 00 00	 push	 OFFSET ??_C@_04JMLDJNEM@?$CIis?$CJ?$AA@
  0005c	ff 15 00 00 00
	00		 call	 DWORD PTR __imp__Py_BuildValue
  00062	50		 push	 eax
  00063	68 00 00 00 00	 push	 OFFSET ??_C@_0BB@KPNAHCEN@SetPCTargetBoard?$AA@
  00068	ff 77 08	 push	 DWORD PTR [edi+8]
  0006b	e8 00 00 00 00	 call	 ?PyCallClassMemberFunc@@YA_NPAU_object@@PBD0@Z ; PyCallClassMemberFunc
  00070	83 c4 18	 add	 esp, 24			; 00000018H
$LN10@OpenCharac:
  00073	5e		 pop	 esi
$LN4@OpenCharac:
  00074	5f		 pop	 edi

; 254  : }

  00075	5d		 pop	 ebp
  00076	c2 04 00	 ret	 4
?OpenCharacterMenu@CPythonPlayer@@QAEXK@Z ENDP		; CPythonPlayer::OpenCharacterMenu
_TEXT	ENDS
; Function compile flags: /Ogtp
; File d:\metin2\metin2\client_source_clean\client_source_clean\source\userinterface\pythonplayerinput.cpp
;	COMDAT ?__OnClickItem@CPythonPlayer@@IAEXAAVCInstanceBase@@K@Z
_TEXT	SEGMENT
_rkInstMain$dead$ = 8					; size = 4
_dwItemID$dead$ = 12					; size = 4
?__OnClickItem@CPythonPlayer@@IAEXAAVCInstanceBase@@K@Z PROC ; CPythonPlayer::__OnClickItem, COMDAT
; _this$dead$ = ecx

; 258  : }

  00000	c2 08 00	 ret	 8
?__OnClickItem@CPythonPlayer@@IAEXAAVCInstanceBase@@K@Z ENDP ; CPythonPlayer::__OnClickItem
_TEXT	ENDS
; Function compile flags: /Ogtp
; File d:\metin2\metin2\client_source_clean\client_source_clean\source\userinterface\pythonplayerinput.cpp
;	COMDAT ?__OnClickActor@CPythonPlayer@@IAEXAAVCInstanceBase@@K_N@Z
_TEXT	SEGMENT
_rkInstMain$ = 8					; size = 4
_dwPickedActorID$ = 12					; size = 4
_isAuto$dead$ = 16					; size = 1
?__OnClickActor@CPythonPlayer@@IAEXAAVCInstanceBase@@K_N@Z PROC ; CPythonPlayer::__OnClickActor, COMDAT
; _this$ = ecx

; 261  : {

  00000	55		 push	 ebp
  00001	8b ec		 mov	 ebp, esp
  00003	56		 push	 esi
  00004	8b f1		 mov	 esi, ecx
  00006	57		 push	 edi

; 262  : 	// 만약 스킬을 써서 접근중이라면..
; 263  : 	if (MODE_USE_SKILL == m_eReservedMode)

  00007	8b 7d 0c	 mov	 edi, DWORD PTR _dwPickedActorID$[ebp]
  0000a	83 7e 54 04	 cmp	 DWORD PTR [esi+84], 4
  0000e	75 21		 jne	 SHORT $LN6@OnClickAct

; 264  : 	{
; 265  : 		// 같은 캐릭터를 클릭 했으면 리턴
; 266  : 		if (__GetTargetVID() == dwPickedActorID)

  00010	e8 00 00 00 00	 call	 ?__GetTargetVID@CPythonPlayer@@IAEKXZ ; CPythonPlayer::__GetTargetVID
  00015	3b c7		 cmp	 eax, edi
  00017	74 7c		 je	 SHORT $LN9@OnClickAct

; 267  : 			return;
; 268  : 
; 269  : 		// 2005.03.25.levites
; 270  : 		// 탄환격을 쓰고 달려가는중 공격할 수 있는 다른 타겟을 클릭하면
; 271  : 		if (__CheckDashAffect(rkInstMain))

  00019	ff 75 08	 push	 DWORD PTR _rkInstMain$[ebp]
  0001c	e8 00 00 00 00	 call	 ?__CheckDashAffect@CPythonPlayer@@IAE_NAAVCInstanceBase@@@Z ; CPythonPlayer::__CheckDashAffect
  00021	84 c0		 test	 al, al
  00023	74 0c		 je	 SHORT $LN6@OnClickAct

; 272  : 		{
; 273  : 			m_dwVIDReserved = dwPickedActorID;

  00025	89 be 6c 09 01
	00		 mov	 DWORD PTR [esi+67948], edi
  0002b	5f		 pop	 edi
  0002c	5e		 pop	 esi

; 303  : 	return;
; 304  : }

  0002d	5d		 pop	 ebp
  0002e	c2 0c 00	 ret	 12			; 0000000cH
$LN6@OnClickAct:
  00031	53		 push	 ebx

; 274  : 			return;
; 275  : 		}
; 276  : 	}
; 277  : 
; 278  : 	__ClearReservedAction();

  00032	8b ce		 mov	 ecx, esi
  00034	e8 00 00 00 00	 call	 ?__ClearReservedAction@CPythonPlayer@@IAEXXZ ; CPythonPlayer::__ClearReservedAction

; 279  : 
; 280  : 	CInstanceBase* pkInstVictim=NEW_FindActorPtr(dwPickedActorID);

  00039	57		 push	 edi
  0003a	e8 00 00 00 00	 call	 ?NEW_FindActorPtr@CPythonPlayer@@QAEPAVCInstanceBase@@K@Z ; CPythonPlayer::NEW_FindActorPtr
  0003f	8b d8		 mov	 ebx, eax

; 281  : 	CInstanceBase& rkInstVictim=*pkInstVictim;
; 282  : 	if (!pkInstVictim)

  00041	85 db		 test	 ebx, ebx
  00043	74 4f		 je	 SHORT $LN11@OnClickAct

; 283  : 		return;
; 284  : 	
; 285  : 	// 2005.01.28.myevan
; 286  : 	// 초급말 상태에서는 공격이 안되나 NPC 클릭이되어야함
; 287  : 	if (rkInstMain.IsAttackableInstance(*pkInstVictim))

  00045	8b 4d 08	 mov	 ecx, DWORD PTR _rkInstMain$[ebp]
  00048	53		 push	 ebx
  00049	e8 00 00 00 00	 call	 ?IsAttackableInstance@CInstanceBase@@QAE_NAAV1@@Z ; CInstanceBase::IsAttackableInstance
  0004e	84 c0		 test	 al, al
  00050	74 0b		 je	 SHORT $LN3@OnClickAct

; 288  : 		if (!__CanAttack())

  00052	8b ce		 mov	 ecx, esi
  00054	e8 00 00 00 00	 call	 ?__CanAttack@CPythonPlayer@@IAE_NXZ ; CPythonPlayer::__CanAttack
  00059	84 c0		 test	 al, al
  0005b	74 37		 je	 SHORT $LN11@OnClickAct
$LN3@OnClickAct:

; 289  : 			return;
; 290  : 
; 291  : 	if (!rkInstMain.NEW_IsClickableDistanceDestInstance(rkInstVictim))

  0005d	8b 4d 08	 mov	 ecx, DWORD PTR _rkInstMain$[ebp]
  00060	53		 push	 ebx
  00061	e8 00 00 00 00	 call	 ?NEW_IsClickableDistanceDestInstance@CInstanceBase@@QAEHAAV1@@Z ; CInstanceBase::NEW_IsClickableDistanceDestInstance
  00066	85 c0		 test	 eax, eax
  00068	75 0f		 jne	 SHORT $LN2@OnClickAct

; 292  : 	{
; 293  : 		__ReserveClickActor(dwPickedActorID);

  0006a	57		 push	 edi
  0006b	8b ce		 mov	 ecx, esi
  0006d	e8 00 00 00 00	 call	 ?__ReserveClickActor@CPythonPlayer@@IAEXK@Z ; CPythonPlayer::__ReserveClickActor
  00072	5b		 pop	 ebx
  00073	5f		 pop	 edi
  00074	5e		 pop	 esi

; 303  : 	return;
; 304  : }

  00075	5d		 pop	 ebp
  00076	c2 0c 00	 ret	 12			; 0000000cH
$LN2@OnClickAct:

; 294  : 		return;
; 295  : 	}
; 296  : 
; 297  : 	if (rkInstVictim.IsNPC())

  00079	8b cb		 mov	 ecx, ebx
  0007b	e8 00 00 00 00	 call	 ?IsNPC@CInstanceBase@@QAEHXZ ; CInstanceBase::IsNPC
  00080	85 c0		 test	 eax, eax
  00082	74 08		 je	 SHORT $LN1@OnClickAct

; 298  : 	{
; 299  : 		__SendClickActorPacket(rkInstVictim);

  00084	53		 push	 ebx
  00085	8b ce		 mov	 ecx, esi
  00087	e8 00 00 00 00	 call	 ?__SendClickActorPacket@CPythonPlayer@@IAEXAAVCInstanceBase@@@Z ; CPythonPlayer::__SendClickActorPacket
$LN1@OnClickAct:

; 300  : 	}
; 301  : 
; 302  : 	rkInstMain.NEW_Stop();

  0008c	8b 4d 08	 mov	 ecx, DWORD PTR _rkInstMain$[ebp]
  0008f	e8 00 00 00 00	 call	 ?NEW_Stop@CInstanceBase@@QAEXXZ ; CInstanceBase::NEW_Stop
$LN11@OnClickAct:
  00094	5b		 pop	 ebx
$LN9@OnClickAct:
  00095	5f		 pop	 edi
  00096	5e		 pop	 esi

; 303  : 	return;
; 304  : }

  00097	5d		 pop	 ebp
  00098	c2 0c 00	 ret	 12			; 0000000cH
?__OnClickActor@CPythonPlayer@@IAEXAAVCInstanceBase@@K_N@Z ENDP ; CPythonPlayer::__OnClickActor
_TEXT	ENDS
; Function compile flags: /Ogtp
; File d:\metin2\metin2\client_source_clean\client_source_clean\source\userinterface\pythonplayerinput.cpp
; File d:\metin2\metin2\client_source_clean\client_source_clean\source\userinterface\pythonplayereventhandler.h
; File d:\metin2\metin2\client_source_clean\client_source_clean\source\userinterface\pythonplayerinput.cpp
;	COMDAT ?__OnPressActor@CPythonPlayer@@IAEXAAVCInstanceBase@@K_N@Z
_TEXT	SEGMENT
_rkInstMain$ = 8					; size = 4
_dwPickedActorID$ = 12					; size = 4
_isAuto$ = 16						; size = 1
?__OnPressActor@CPythonPlayer@@IAEXAAVCInstanceBase@@K_N@Z PROC ; CPythonPlayer::__OnPressActor, COMDAT
; _this$ = ecx

; 307  : {

  00000	55		 push	 ebp
  00001	8b ec		 mov	 ebp, esp
  00003	53		 push	 ebx
  00004	56		 push	 esi
  00005	8b f1		 mov	 esi, ecx
  00007	57		 push	 edi

; 308  : 	// 만약 스킬을 써서 접근중이라면..
; 309  : 	if (MODE_USE_SKILL == m_eReservedMode)

  00008	8b 7d 08	 mov	 edi, DWORD PTR _rkInstMain$[ebp]
  0000b	83 7e 54 04	 cmp	 DWORD PTR [esi+84], 4
  0000f	75 27		 jne	 SHORT $LN17@OnPressAct

; 310  : 	{
; 311  : 		// 같은 캐릭터를 클릭 했으면 리턴
; 312  : 		if (__GetTargetVID() == dwPickedActorID)

  00011	e8 00 00 00 00	 call	 ?__GetTargetVID@CPythonPlayer@@IAEKXZ ; CPythonPlayer::__GetTargetVID
  00016	8b 5d 0c	 mov	 ebx, DWORD PTR _dwPickedActorID$[ebp]
  00019	3b c3		 cmp	 eax, ebx
  0001b	0f 84 cc 00 00
	00		 je	 $LN13@OnPressAct

; 313  : 			return;
; 314  : 
; 315  : 		// 2005.03.25.levites
; 316  : 		// 탄환격을 쓰고 달려가는중 공격할 수 있는 다른 타겟을 클릭하면
; 317  : 		if (__CheckDashAffect(rkInstMain))

  00021	57		 push	 edi
  00022	e8 00 00 00 00	 call	 ?__CheckDashAffect@CPythonPlayer@@IAE_NAAVCInstanceBase@@@Z ; CPythonPlayer::__CheckDashAffect
  00027	84 c0		 test	 al, al
  00029	74 10		 je	 SHORT $LN10@OnPressAct

; 318  : 		{
; 319  : 			m_dwVIDReserved = dwPickedActorID;

  0002b	5f		 pop	 edi
  0002c	89 9e 6c 09 01
	00		 mov	 DWORD PTR [esi+67948], ebx
  00032	5e		 pop	 esi
  00033	5b		 pop	 ebx

; 363  : }

  00034	5d		 pop	 ebp
  00035	c2 0c 00	 ret	 12			; 0000000cH
$LN17@OnPressAct:
  00038	8b 5d 0c	 mov	 ebx, DWORD PTR _dwPickedActorID$[ebp]
$LN10@OnPressAct:

; 320  : 			return;
; 321  : 		}
; 322  : 	}
; 323  : 
; 324  : 	__ChangeTargetToPickedInstance();

  0003b	8b ce		 mov	 ecx, esi
  0003d	e8 00 00 00 00	 call	 ?__ChangeTargetToPickedInstance@CPythonPlayer@@IAE_NXZ ; CPythonPlayer::__ChangeTargetToPickedInstance

; 325  : 	__ClearReservedAction();

  00042	8b ce		 mov	 ecx, esi
  00044	e8 00 00 00 00	 call	 ?__ClearReservedAction@CPythonPlayer@@IAEXXZ ; CPythonPlayer::__ClearReservedAction

; 326  : 
; 327  : 	if (!__CanAttack())

  00049	e8 00 00 00 00	 call	 ?__CanAttack@CPythonPlayer@@IAE_NXZ ; CPythonPlayer::__CanAttack
  0004e	84 c0		 test	 al, al
  00050	0f 84 97 00 00
	00		 je	 $LN13@OnPressAct

; 328  : 		return;
; 329  : 
; 330  : 	CInstanceBase* pkInstVictim=NEW_FindActorPtr(dwPickedActorID);

  00056	53		 push	 ebx
  00057	e8 00 00 00 00	 call	 ?NEW_FindActorPtr@CPythonPlayer@@QAEPAVCInstanceBase@@K@Z ; CPythonPlayer::NEW_FindActorPtr
  0005c	8b d8		 mov	 ebx, eax

; 331  : 	if (!pkInstVictim)

  0005e	85 db		 test	 ebx, ebx
  00060	0f 84 87 00 00
	00		 je	 $LN13@OnPressAct

; 332  : 		return;
; 333  : 
; 334  : 	CInstanceBase& rkInstVictim=*pkInstVictim;
; 335  : 
; 336  : 	if (isAuto)

  00066	80 7d 10 00	 cmp	 BYTE PTR _isAuto$[ebp], 0
  0006a	74 1b		 je	 SHORT $LN6@OnPressAct

; 337  : 	{
; 338  : 		// 2004.10.21.myevan.공격가능한 상대만 자동 공격
; 339  : 		if (rkInstMain.IsAttackableInstance(rkInstVictim))

  0006c	53		 push	 ebx
  0006d	8b cf		 mov	 ecx, edi
  0006f	e8 00 00 00 00	 call	 ?IsAttackableInstance@CInstanceBase@@QAE_NAAV1@@Z ; CInstanceBase::IsAttackableInstance
  00074	84 c0		 test	 al, al
  00076	74 0f		 je	 SHORT $LN6@OnPressAct

; 340  : 			__SetAutoAttackTargetActorID(rkInstVictim.GetVirtualID());

  00078	8b cb		 mov	 ecx, ebx
  0007a	e8 00 00 00 00	 call	 ?GetVirtualID@CInstanceBase@@QAEKXZ ; CInstanceBase::GetVirtualID
  0007f	50		 push	 eax
  00080	8b ce		 mov	 ecx, esi
  00082	e8 00 00 00 00	 call	 ?__SetAutoAttackTargetActorID@CPythonPlayer@@IAEXK@Z ; CPythonPlayer::__SetAutoAttackTargetActorID
$LN6@OnPressAct:

; 341  : 	}
; 342  : 
; 343  : 	if (rkInstMain.IsBowMode())

  00087	8b cf		 mov	 ecx, edi
  00089	e8 00 00 00 00	 call	 ?IsBowMode@CInstanceBase@@QAEHXZ ; CInstanceBase::IsBowMode
  0008e	85 c0		 test	 eax, eax
  00090	74 19		 je	 SHORT $LN3@OnPressAct

; 344  : 	{
; 345  : 		if (rkInstMain.IsAttackableInstance(rkInstVictim))

  00092	53		 push	 ebx
  00093	8b cf		 mov	 ecx, edi
  00095	e8 00 00 00 00	 call	 ?IsAttackableInstance@CInstanceBase@@QAE_NAAV1@@Z ; CInstanceBase::IsAttackableInstance
  0009a	84 c0		 test	 al, al
  0009c	74 0d		 je	 SHORT $LN3@OnPressAct

; 346  : 			if (!__CanShot(rkInstMain, rkInstVictim))

  0009e	53		 push	 ebx
  0009f	57		 push	 edi
  000a0	8b ce		 mov	 ecx, esi
  000a2	e8 00 00 00 00	 call	 ?__CanShot@CPythonPlayer@@IAE_NAAVCInstanceBase@@0@Z ; CPythonPlayer::__CanShot
  000a7	84 c0		 test	 al, al
  000a9	74 42		 je	 SHORT $LN13@OnPressAct
$LN3@OnPressAct:

; 347  : 				return;
; 348  : 	}
; 349  : 
; 350  : 	if (!rkInstMain.NEW_IsClickableDistanceDestInstance(rkInstVictim))

  000ab	53		 push	 ebx
  000ac	8b cf		 mov	 ecx, edi
  000ae	e8 00 00 00 00	 call	 ?NEW_IsClickableDistanceDestInstance@CInstanceBase@@QAEHAAV1@@Z ; CInstanceBase::NEW_IsClickableDistanceDestInstance
  000b3	85 c0		 test	 eax, eax
  000b5	75 11		 jne	 SHORT $LN2@OnPressAct

; 351  : 	{
; 352  : 		__ReserveClickActor(dwPickedActorID);

  000b7	ff 75 0c	 push	 DWORD PTR _dwPickedActorID$[ebp]
  000ba	8b ce		 mov	 ecx, esi
  000bc	e8 00 00 00 00	 call	 ?__ReserveClickActor@CPythonPlayer@@IAEXK@Z ; CPythonPlayer::__ReserveClickActor
  000c1	5f		 pop	 edi
  000c2	5e		 pop	 esi
  000c3	5b		 pop	 ebx

; 363  : }

  000c4	5d		 pop	 ebp
  000c5	c2 0c 00	 ret	 12			; 0000000cH
$LN2@OnPressAct:

; 353  : 		return;
; 354  : 	}
; 355  : 
; 356  : 	if (!rkInstMain.IsAttackableInstance(rkInstVictim))

  000c8	53		 push	 ebx
  000c9	8b cf		 mov	 ecx, edi
  000cb	e8 00 00 00 00	 call	 ?IsAttackableInstance@CInstanceBase@@QAE_NAAV1@@Z ; CInstanceBase::IsAttackableInstance
  000d0	84 c0		 test	 al, al
  000d2	74 19		 je	 SHORT $LN13@OnPressAct

; 357  : 	{
; 358  : 		return;
; 359  : 	}
; 360  : 
; 361  : 	CPythonPlayerEventHandler& rkPlayerEventHandler=CPythonPlayerEventHandler::GetSingleton();

  000d4	e8 00 00 00 00	 call	 ?GetSingleton@CPythonPlayerEventHandler@@SAAAV1@XZ ; CPythonPlayerEventHandler::GetSingleton
; File d:\metin2\metin2\client_source_clean\client_source_clean\source\userinterface\pythonplayereventhandler.h

; 81   : 				m_NormalBowAttack_FlyEventHandler_AutoClear.Set(this,pInstMain,pInstTarget);

  000d9	53		 push	 ebx
  000da	57		 push	 edi
  000db	50		 push	 eax
  000dc	8d 48 28	 lea	 ecx, DWORD PTR [eax+40]
  000df	e8 00 00 00 00	 call	 ?Set@CNormalBowAttack_FlyEventHandler_AutoClear@CPythonPlayerEventHandler@@QAEXPAV2@PAVCInstanceBase@@1@Z ; CPythonPlayerEventHandler::CNormalBowAttack_FlyEventHandler_AutoClear::Set
; File d:\metin2\metin2\client_source_clean\client_source_clean\source\userinterface\pythonplayerinput.cpp

; 362  : 	rkInstMain.NEW_AttackToDestInstanceDirection(rkInstVictim, rkPlayerEventHandler.GetNormalBowAttackFlyEventHandler(&rkInstMain, &rkInstVictim));	

  000e4	51		 push	 ecx
  000e5	53		 push	 ebx
  000e6	8b cf		 mov	 ecx, edi
  000e8	e8 00 00 00 00	 call	 ?NEW_AttackToDestInstanceDirection@CInstanceBase@@QAE_NAAV1@PAVIFlyEventHandler@@@Z ; CInstanceBase::NEW_AttackToDestInstanceDirection
$LN13@OnPressAct:
  000ed	5f		 pop	 edi
  000ee	5e		 pop	 esi
  000ef	5b		 pop	 ebx

; 363  : }

  000f0	5d		 pop	 ebp
  000f1	c2 0c 00	 ret	 12			; 0000000cH
?__OnPressActor@CPythonPlayer@@IAEXAAVCInstanceBase@@K_N@Z ENDP ; CPythonPlayer::__OnPressActor
_TEXT	ENDS
; Function compile flags: /Ogtp
; File d:\metin2\metin2\client_source_clean\client_source_clean\source\userinterface\pythonplayerinput.cpp
;	COMDAT ?__OnPressItem@CPythonPlayer@@IAEXAAVCInstanceBase@@K@Z
_TEXT	SEGMENT
_kPPosPickedItem$ = -12					; size = 12
_rkInstMain$ = 8					; size = 4
_dwPickedItemID$ = 12					; size = 4
?__OnPressItem@CPythonPlayer@@IAEXAAVCInstanceBase@@K@Z PROC ; CPythonPlayer::__OnPressItem, COMDAT
; _this$ = ecx

; 366  : {

  00000	55		 push	 ebp
  00001	8b ec		 mov	 ebp, esp
  00003	83 ec 0c	 sub	 esp, 12			; 0000000cH
  00006	56		 push	 esi

; 367  : 	static DWORD s_dwLastPickItemID=0;
; 368  : 
; 369  : 	if (s_dwLastPickItemID==dwPickedItemID)

  00007	8b 75 0c	 mov	 esi, DWORD PTR _dwPickedItemID$[ebp]
  0000a	57		 push	 edi
  0000b	8b f9		 mov	 edi, ecx
  0000d	39 35 00 00 00
	00		 cmp	 DWORD PTR ?s_dwLastPickItemID@?1??__OnPressItem@CPythonPlayer@@IAEXAAVCInstanceBase@@K@Z@4KA, esi
  00013	75 17		 jne	 SHORT $LN3@OnPressIte

; 370  : 	{
; 371  : 		Logn(1, "CPythonPlayer::__OnPressItem - ALREADY PICKED ITEM");

  00015	68 00 00 00 00	 push	 OFFSET ??_C@_0DD@MNMGJOCJ@CPythonPlayer?3?3__OnPressItem?5?9?5A@
  0001a	6a 01		 push	 1
  0001c	e8 00 00 00 00	 call	 ?Logn@@YAXIPBD@Z	; Logn
  00021	83 c4 08	 add	 esp, 8
  00024	5f		 pop	 edi
  00025	5e		 pop	 esi

; 392  : }

  00026	8b e5		 mov	 esp, ebp
  00028	5d		 pop	 ebp
  00029	c2 08 00	 ret	 8
$LN3@OnPressIte:

; 372  : 		return;
; 373  : 	}
; 374  : 
; 375  : 	__ClearReservedAction();

  0002c	e8 00 00 00 00	 call	 ?__ClearReservedAction@CPythonPlayer@@IAEXXZ ; CPythonPlayer::__ClearReservedAction

; 376  : 	__ClearAutoAttackTargetActorID();

  00031	e8 00 00 00 00	 call	 ?__ClearAutoAttackTargetActorID@CPythonPlayer@@IAEXXZ ; CPythonPlayer::__ClearAutoAttackTargetActorID

; 377  : 
; 378  : 	CPythonItem& rkItem=CPythonItem::Instance();
; 379  : 
; 380  : 	TPixelPosition kPPosPickedItem;
; 381  : 	if (!rkItem.GetGroundItemPosition(dwPickedItemID, &kPPosPickedItem))

  00036	8b 0d 00 00 00
	00		 mov	 ecx, DWORD PTR ?ms_singleton@?$CSingleton@VCPythonItem@@@@0PAVCPythonItem@@A ; CSingleton<CPythonItem>::ms_singleton
  0003c	8d 45 f4	 lea	 eax, DWORD PTR _kPPosPickedItem$[ebp]
  0003f	50		 push	 eax
  00040	56		 push	 esi
  00041	e8 00 00 00 00	 call	 ?GetGroundItemPosition@CPythonItem@@QAEHKPAUD3DXVECTOR3@@@Z ; CPythonItem::GetGroundItemPosition
  00046	85 c0		 test	 eax, eax
  00048	74 30		 je	 SHORT $LN4@OnPressIte

; 382  : 		return;
; 383  : 
; 384  : 	if (!rkInstMain.NEW_IsClickableDistanceDestPixelPosition(kPPosPickedItem))

  0004a	8b 4d 08	 mov	 ecx, DWORD PTR _rkInstMain$[ebp]
  0004d	8d 45 f4	 lea	 eax, DWORD PTR _kPPosPickedItem$[ebp]
  00050	50		 push	 eax
  00051	e8 00 00 00 00	 call	 ?NEW_IsClickableDistanceDestPixelPosition@CInstanceBase@@QAEHABUD3DXVECTOR3@@@Z ; CInstanceBase::NEW_IsClickableDistanceDestPixelPosition
  00056	85 c0		 test	 eax, eax
  00058	75 10		 jne	 SHORT $LN1@OnPressIte

; 385  : 	{
; 386  : 		__ReserveClickItem(dwPickedItemID);

  0005a	56		 push	 esi
  0005b	8b cf		 mov	 ecx, edi
  0005d	e8 00 00 00 00	 call	 ?__ReserveClickItem@CPythonPlayer@@IAEXK@Z ; CPythonPlayer::__ReserveClickItem
  00062	5f		 pop	 edi
  00063	5e		 pop	 esi

; 392  : }

  00064	8b e5		 mov	 esp, ebp
  00066	5d		 pop	 ebp
  00067	c2 08 00	 ret	 8
$LN1@OnPressIte:

; 387  : 		return;
; 388  : 	}
; 389  : 
; 390  : 	rkInstMain.NEW_Stop();

  0006a	8b 4d 08	 mov	 ecx, DWORD PTR _rkInstMain$[ebp]
  0006d	e8 00 00 00 00	 call	 ?NEW_Stop@CInstanceBase@@QAEXXZ ; CInstanceBase::NEW_Stop

; 391  : 	SendClickItemPacket(dwPickedItemID);

  00072	56		 push	 esi
  00073	8b cf		 mov	 ecx, edi
  00075	e8 00 00 00 00	 call	 ?SendClickItemPacket@CPythonPlayer@@QAEXK@Z ; CPythonPlayer::SendClickItemPacket
$LN4@OnPressIte:
  0007a	5f		 pop	 edi
  0007b	5e		 pop	 esi

; 392  : }

  0007c	8b e5		 mov	 esp, ebp
  0007e	5d		 pop	 ebp
  0007f	c2 08 00	 ret	 8
?__OnPressItem@CPythonPlayer@@IAEXAAVCInstanceBase@@K@Z ENDP ; CPythonPlayer::__OnPressItem
_TEXT	ENDS
; Function compile flags: /Ogtp
; File d:\metin2\metin2\client_source_clean\client_source_clean\source\userinterface\pythonplayerinput.cpp
;	COMDAT ?__OnClickGround@CPythonPlayer@@IAEXAAVCInstanceBase@@ABUD3DXVECTOR3@@@Z
_TEXT	SEGMENT
_rkInstMain$ = 8					; size = 4
_c_rkPPosPickedGround$ = 12				; size = 4
?__OnClickGround@CPythonPlayer@@IAEXAAVCInstanceBase@@ABUD3DXVECTOR3@@@Z PROC ; CPythonPlayer::__OnClickGround, COMDAT
; _this$ = ecx

; 395  : {

  00000	55		 push	 ebp
  00001	8b ec		 mov	 ebp, esp
  00003	56		 push	 esi

; 396  : 	if (!__IsMovableGroundDistance(rkInstMain, c_rkPPosPickedGround))

  00004	8b 75 0c	 mov	 esi, DWORD PTR _c_rkPPosPickedGround$[ebp]
  00007	57		 push	 edi
  00008	56		 push	 esi
  00009	ff 75 08	 push	 DWORD PTR _rkInstMain$[ebp]
  0000c	8b f9		 mov	 edi, ecx
  0000e	e8 00 00 00 00	 call	 ?__IsMovableGroundDistance@CPythonPlayer@@IAE_NAAVCInstanceBase@@ABUD3DXVECTOR3@@@Z ; CPythonPlayer::__IsMovableGroundDistance
  00013	84 c0		 test	 al, al
  00015	74 15		 je	 SHORT $LN1@OnClickGro

; 397  : 		return;
; 398  : 
; 399  : 	if (rkInstMain.NEW_MoveToDestPixelPositionDirection(c_rkPPosPickedGround))

  00017	8b 4d 08	 mov	 ecx, DWORD PTR _rkInstMain$[ebp]
  0001a	56		 push	 esi
  0001b	e8 00 00 00 00	 call	 ?NEW_MoveToDestPixelPositionDirection@CInstanceBase@@QAE_NABUD3DXVECTOR3@@@Z ; CInstanceBase::NEW_MoveToDestPixelPositionDirection
  00020	84 c0		 test	 al, al
  00022	74 08		 je	 SHORT $LN1@OnClickGro

; 400  : 		__ShowPickedEffect(c_rkPPosPickedGround);

  00024	56		 push	 esi
  00025	8b cf		 mov	 ecx, edi
  00027	e8 00 00 00 00	 call	 ?__ShowPickedEffect@CPythonPlayer@@IAEXABUD3DXVECTOR3@@@Z ; CPythonPlayer::__ShowPickedEffect
$LN1@OnClickGro:
  0002c	5f		 pop	 edi
  0002d	5e		 pop	 esi

; 401  : }

  0002e	5d		 pop	 ebp
  0002f	c2 08 00	 ret	 8
?__OnClickGround@CPythonPlayer@@IAEXAAVCInstanceBase@@ABUD3DXVECTOR3@@@Z ENDP ; CPythonPlayer::__OnClickGround
_TEXT	ENDS
; Function compile flags: /Ogtp
; File d:\metin2\metin2\client_source_clean\client_source_clean\source\userinterface\pythonplayerinput.cpp
;	COMDAT ?__IsMovableGroundDistance@CPythonPlayer@@IAE_NAAVCInstanceBase@@ABUD3DXVECTOR3@@@Z
_TEXT	SEGMENT
_rkInstMain$ = 8					; size = 4
_c_rkPPosPickedGround$ = 12				; size = 4
?__IsMovableGroundDistance@CPythonPlayer@@IAE_NAAVCInstanceBase@@ABUD3DXVECTOR3@@@Z PROC ; CPythonPlayer::__IsMovableGroundDistance, COMDAT
; _this$ = ecx

; 409  : {	

  00000	55		 push	 ebp
  00001	8b ec		 mov	 ebp, esp
  00003	56		 push	 esi

; 410  : 	float fDistance=rkInstMain.NEW_GetDistanceFromDestPixelPosition(c_rkPPosPickedGround);	

  00004	ff 75 0c	 push	 DWORD PTR _c_rkPPosPickedGround$[ebp]
  00007	8b f1		 mov	 esi, ecx
  00009	8b 4d 08	 mov	 ecx, DWORD PTR _rkInstMain$[ebp]
  0000c	e8 00 00 00 00	 call	 ?NEW_GetDistanceFromDestPixelPosition@CInstanceBase@@QAEMABUD3DXVECTOR3@@@Z ; CInstanceBase::NEW_GetDistanceFromDestPixelPosition

; 411  : 
; 412  : 	if (fDistance<MOVABLE_GROUND_DISTANCE)

  00011	f3 0f 10 8e 40
	0a 01 00	 movss	 xmm1, DWORD PTR [esi+68160]
  00019	0f 2f c8	 comiss	 xmm1, xmm0
  0001c	5e		 pop	 esi
  0001d	0f 96 c0	 setbe	 al

; 413  : 		return false;
; 414  : 
; 415  : 	//Tracef("IsMovableGroundDistance(%f)\n", fDistance);
; 416  : 	return true;
; 417  : }

  00020	5d		 pop	 ebp
  00021	c2 08 00	 ret	 8
?__IsMovableGroundDistance@CPythonPlayer@@IAE_NAAVCInstanceBase@@ABUD3DXVECTOR3@@@Z ENDP ; CPythonPlayer::__IsMovableGroundDistance
_TEXT	ENDS
; Function compile flags: /Ogtp
; File d:\metin2\metin2\client_source_clean\client_source_clean\source\userinterface\pythonplayerinput.cpp
;	COMDAT ?__OnPressGround@CPythonPlayer@@IAEXAAVCInstanceBase@@ABUD3DXVECTOR3@@@Z
_TEXT	SEGMENT
_rkInstMain$ = 8					; size = 4
_c_rkPPosPickedGround$ = 12				; size = 4
?__OnPressGround@CPythonPlayer@@IAEXAAVCInstanceBase@@ABUD3DXVECTOR3@@@Z PROC ; CPythonPlayer::__OnPressGround, COMDAT
; _this$ = ecx

; 420  : {

  00000	55		 push	 ebp
  00001	8b ec		 mov	 ebp, esp
  00003	56		 push	 esi
  00004	57		 push	 edi
  00005	8b f1		 mov	 esi, ecx

; 421  : 	__ClearReservedAction();

  00007	e8 00 00 00 00	 call	 ?__ClearReservedAction@CPythonPlayer@@IAEXXZ ; CPythonPlayer::__ClearReservedAction

; 422  : 	__ClearAutoAttackTargetActorID();

  0000c	e8 00 00 00 00	 call	 ?__ClearAutoAttackTargetActorID@CPythonPlayer@@IAEXXZ ; CPythonPlayer::__ClearAutoAttackTargetActorID

; 423  : 
; 424  : 	if (NEW_CancelFishing())

  00011	e8 00 00 00 00	 call	 ?NEW_CancelFishing@CPythonPlayer@@QAE_NXZ ; CPythonPlayer::NEW_CancelFishing
  00016	84 c0		 test	 al, al
  00018	75 27		 jne	 SHORT $LN1@OnPressGro

; 425  : 		return;
; 426  : 
; 427  : 	if (!__IsMovableGroundDistance(rkInstMain, c_rkPPosPickedGround))

  0001a	8b 7d 0c	 mov	 edi, DWORD PTR _c_rkPPosPickedGround$[ebp]
  0001d	8b ce		 mov	 ecx, esi
  0001f	57		 push	 edi
  00020	ff 75 08	 push	 DWORD PTR _rkInstMain$[ebp]
  00023	e8 00 00 00 00	 call	 ?__IsMovableGroundDistance@CPythonPlayer@@IAE_NAAVCInstanceBase@@ABUD3DXVECTOR3@@@Z ; CPythonPlayer::__IsMovableGroundDistance
  00028	84 c0		 test	 al, al
  0002a	74 15		 je	 SHORT $LN1@OnPressGro

; 428  : 		return;
; 429  : 
; 430  : 	if (!rkInstMain.NEW_MoveToDestPixelPositionDirection(c_rkPPosPickedGround))

  0002c	8b 4d 08	 mov	 ecx, DWORD PTR _rkInstMain$[ebp]
  0002f	57		 push	 edi
  00030	e8 00 00 00 00	 call	 ?NEW_MoveToDestPixelPositionDirection@CInstanceBase@@QAE_NABUD3DXVECTOR3@@@Z ; CInstanceBase::NEW_MoveToDestPixelPositionDirection
  00035	84 c0		 test	 al, al
  00037	75 08		 jne	 SHORT $LN1@OnPressGro

; 431  : 	{
; 432  : 		__ReserveClickGround(c_rkPPosPickedGround);

  00039	57		 push	 edi
  0003a	8b ce		 mov	 ecx, esi
  0003c	e8 00 00 00 00	 call	 ?__ReserveClickGround@CPythonPlayer@@IAEXABUD3DXVECTOR3@@@Z ; CPythonPlayer::__ReserveClickGround
$LN1@OnPressGro:

; 433  : 		return;
; 434  : 	}
; 435  : }

  00041	5f		 pop	 edi
  00042	5e		 pop	 esi
  00043	5d		 pop	 ebp
  00044	c2 08 00	 ret	 8
?__OnPressGround@CPythonPlayer@@IAEXAAVCInstanceBase@@ABUD3DXVECTOR3@@@Z ENDP ; CPythonPlayer::__OnPressGround
_TEXT	ENDS
; Function compile flags: /Ogtp
; File d:\metin2\metin2\client_source_clean\client_source_clean\source\userinterface\pythonplayerinput.cpp
;	COMDAT ?__OnPressScreen@CPythonPlayer@@IAEXAAVCInstanceBase@@@Z
_TEXT	SEGMENT
_rkInstMain$dead$ = 8					; size = 4
?__OnPressScreen@CPythonPlayer@@IAEXAAVCInstanceBase@@@Z PROC ; CPythonPlayer::__OnPressScreen, COMDAT
; _this$ = ecx

; 439  : 	__ClearReservedAction();

  00000	e8 00 00 00 00	 call	 ?__ClearReservedAction@CPythonPlayer@@IAEXXZ ; CPythonPlayer::__ClearReservedAction

; 440  : 
; 441  : 	NEW_MoveToMouseScreenDirection();

  00005	e8 00 00 00 00	 call	 ?NEW_MoveToMouseScreenDirection@CPythonPlayer@@QAE_NXZ ; CPythonPlayer::NEW_MoveToMouseScreenDirection

; 442  : }

  0000a	c2 04 00	 ret	 4
?__OnPressScreen@CPythonPlayer@@IAEXAAVCInstanceBase@@@Z ENDP ; CPythonPlayer::__OnPressScreen
_TEXT	ENDS
; Function compile flags: /Ogtp
; File d:\metin2\metin2\client_source_clean\client_source_clean\source\userinterface\pythonplayerinput.cpp
; File d:\metin2\metin2\client_source_clean\client_source_clean\source\eterlib\camera.h
; File d:\metin2\metin2\client_source_clean\client_source_clean\source\userinterface\pythonplayerinput.cpp
; File c:\program files (x86)\microsoft visual studio 12.0\vc\include\math.h
; File d:\metin2\metin2\client_source_clean\client_source_clean\source\userinterface\pythonplayerinput.cpp
; File c:\program files (x86)\microsoft visual studio 12.0\vc\include\math.h
; File d:\metin2\metin2\client_source_clean\client_source_clean\source\userinterface\pythonplayerinput.cpp
;	COMDAT ?NEW_MoveToDirection@CPythonPlayer@@QAE_NM@Z
_TEXT	SEGMENT
_fRotRat$1$ = -20					; size = 4
_fDirRot$1$ = -16					; size = 4
_fElapsedTime$1 = -12					; size = 4
tv254 = -8						; size = 8
tv248 = -8						; size = 8
_fCmrCurRot$2 = -8					; size = 4
?NEW_MoveToDirection@CPythonPlayer@@QAE_NM@Z PROC	; CPythonPlayer::NEW_MoveToDirection, COMDAT
; _this$ = ecx
; _fDirRot$ = xmm1s

; 446  : {

  00000	55		 push	 ebp
  00001	8b ec		 mov	 ebp, esp
  00003	83 e4 f8	 and	 esp, -8			; fffffff8H
  00006	83 ec 14	 sub	 esp, 20			; 00000014H
  00009	53		 push	 ebx
  0000a	56		 push	 esi
  0000b	57		 push	 edi
  0000c	f3 0f 11 4c 24
	10		 movss	 DWORD PTR _fDirRot$1$[esp+32], xmm1
  00012	8b f9		 mov	 edi, ecx

; 447  : 	// PrivateShop
; 448  : 	if (IsOpenPrivateShop())

  00014	e8 00 00 00 00	 call	 ?IsOpenPrivateShop@CPythonPlayer@@QAE_NXZ ; CPythonPlayer::IsOpenPrivateShop
  00019	84 c0		 test	 al, al
  0001b	0f 85 70 01 00
	00		 jne	 $LN24@NEW_MoveTo

; 449  : 		return true;
; 450  : 
; 451  : 	__ClearReservedAction();

  00021	e8 00 00 00 00	 call	 ?__ClearReservedAction@CPythonPlayer@@IAEXXZ ; CPythonPlayer::__ClearReservedAction

; 452  : 
; 453  : 	CInstanceBase* pkInstMain=NEW_GetMainActorPtr();

  00026	8b 47 04	 mov	 eax, DWORD PTR [edi+4]
  00029	8d 4f 04	 lea	 ecx, DWORD PTR [edi+4]
  0002c	ff 90 88 00 00
	00		 call	 DWORD PTR [eax+136]
  00032	8b f0		 mov	 esi, eax

; 454  : 	if (!pkInstMain)

  00034	85 f6		 test	 esi, esi
  00036	75 09		 jne	 SHORT $LN9@NEW_MoveTo

; 455  : 		return false;

  00038	32 c0		 xor	 al, al

; 491  : }

  0003a	5f		 pop	 edi
  0003b	5e		 pop	 esi
  0003c	5b		 pop	 ebx
  0003d	8b e5		 mov	 esp, ebp
  0003f	5d		 pop	 ebp
  00040	c3		 ret	 0
$LN9@NEW_MoveTo:

; 456  : 
; 457  : 	if (pkInstMain->isLock())

  00041	8b ce		 mov	 ecx, esi
  00043	e8 00 00 00 00	 call	 ?isLock@CInstanceBase@@QAEHXZ ; CInstanceBase::isLock
  00048	85 c0		 test	 eax, eax
  0004a	74 0f		 je	 SHORT $LN7@NEW_MoveTo

; 458  : 		if (!pkInstMain->IsUsingMovingSkill())

  0004c	8b ce		 mov	 ecx, esi
  0004e	e8 00 00 00 00	 call	 ?IsUsingMovingSkill@CInstanceBase@@QAEHXZ ; CInstanceBase::IsUsingMovingSkill
  00053	85 c0		 test	 eax, eax
  00055	0f 84 36 01 00
	00		 je	 $LN24@NEW_MoveTo
$LN7@NEW_MoveTo:

; 459  : 			return true;
; 460  : 
; 461  : 	CCamera* pkCmrCur=CCameraManager::Instance().GetCurrentCamera();

  0005b	8b 0d 00 00 00
	00		 mov	 ecx, DWORD PTR ?ms_singleton@?$CSingleton@VCCameraManager@@@@0PAVCCameraManager@@A ; CSingleton<CCameraManager>::ms_singleton
  00061	e8 00 00 00 00	 call	 ?GetCurrentCamera@CCameraManager@@QAEPAVCCamera@@XZ ; CCameraManager::GetCurrentCamera
  00066	8b d8		 mov	 ebx, eax

; 462  : 	if (pkCmrCur)

  00068	85 db		 test	 ebx, ebx
  0006a	0f 84 11 01 00
	00		 je	 $LN23@NEW_MoveTo
; File d:\metin2\metin2\client_source_clean\client_source_clean\source\eterlib\camera.h

; 185  : 		float GetRoll() const { return m_fRoll; }

  00070	f3 0f 10 83 30
	01 00 00	 movss	 xmm0, DWORD PTR [ebx+304]
; File d:\metin2\metin2\client_source_clean\client_source_clean\source\userinterface\pythonplayerinput.cpp

; 464  : 		float fCmrCurRot=CameraRotationToCharacterRotation(pkCmrCur->GetRoll());

  00078	51		 push	 ecx
  00079	f3 0f 11 04 24	 movss	 DWORD PTR [esp], xmm0
  0007e	e8 00 00 00 00	 call	 ?CameraRotationToCharacterRotation@@YAMM@Z ; CameraRotationToCharacterRotation

; 465  : 
; 466  : 		// 현재 
; 467  : 		if (m_isCmrRot)

  00083	f3 0f 10 1d 00
	00 00 00	 movss	 xmm3, DWORD PTR __real@43b40000
  0008b	83 c4 04	 add	 esp, 4
  0008e	80 7f 66 00	 cmp	 BYTE PTR [edi+102], 0
  00092	d9 5c 24 18	 fstp	 DWORD PTR _fCmrCurRot$2[esp+32]
  00096	0f 84 9c 00 00
	00		 je	 $LN5@NEW_MoveTo

; 468  : 		{
; 469  : 			float fSigDirRot=fDirRot;

  0009c	f3 0f 10 44 24
	10		 movss	 xmm0, DWORD PTR _fDirRot$1$[esp+32]

; 470  : 			if (fSigDirRot>180.0f)

  000a2	f3 0f 10 15 00
	00 00 00	 movss	 xmm2, DWORD PTR __real@43340000
  000aa	0f 28 c8	 movaps	 xmm1, xmm0
  000ad	0f 2f c2	 comiss	 xmm0, xmm2
  000b0	f3 0f 11 4c 24
	0c		 movss	 DWORD PTR _fRotRat$1$[esp+32], xmm1
  000b6	76 0a		 jbe	 SHORT $LN4@NEW_MoveTo

; 471  : 				fSigDirRot=fSigDirRot-360.0f;

  000b8	f3 0f 5c cb	 subss	 xmm1, xmm3
  000bc	f3 0f 11 4c 24
	0c		 movss	 DWORD PTR _fRotRat$1$[esp+32], xmm1
$LN4@NEW_MoveTo:

; 472  : 
; 473  : 			float fRotRat=fSigDirRot;
; 474  : 			if (fRotRat>90.0f)

  000c2	0f 2f 0d 00 00
	00 00		 comiss	 xmm1, DWORD PTR __real@42b40000
  000c9	76 09		 jbe	 SHORT $LN3@NEW_MoveTo

; 475  : 				fRotRat=(180.0f-fRotRat);

  000cb	f3 0f 5c d1	 subss	 xmm2, xmm1
  000cf	0f 28 ca	 movaps	 xmm1, xmm2
  000d2	eb 1c		 jmp	 SHORT $LN25@NEW_MoveTo
$LN3@NEW_MoveTo:

; 476  : 			else if (fRotRat<-90.0f)

  000d4	f3 0f 10 05 00
	00 00 00	 movss	 xmm0, DWORD PTR __real@c2b40000
  000dc	0f 2f c1	 comiss	 xmm0, xmm1
  000df	76 15		 jbe	 SHORT $LN1@NEW_MoveTo

; 477  : 				fRotRat=(-180.0f-fRotRat);

  000e1	f3 0f 10 05 00
	00 00 00	 movss	 xmm0, DWORD PTR __real@c3340000
  000e9	f3 0f 5c c1	 subss	 xmm0, xmm1
  000ed	0f 28 c8	 movaps	 xmm1, xmm0
$LN25@NEW_MoveTo:
  000f0	f3 0f 11 4c 24
	0c		 movss	 DWORD PTR _fRotRat$1$[esp+32], xmm1
$LN1@NEW_MoveTo:

; 478  : 
; 479  : 			float fElapsedTime = CPythonApplication::Instance().GetGlobalElapsedTime();

  000f6	8b 0d 00 00 00
	00		 mov	 ecx, DWORD PTR ?ms_pInstance@CPythonApplication@@1PAV1@A ; CPythonApplication::ms_pInstance
  000fc	83 c1 20	 add	 ecx, 32			; 00000020H
  000ff	8b 01		 mov	 eax, DWORD PTR [ecx]
  00101	8b 40 0c	 mov	 eax, DWORD PTR [eax+12]
  00104	ff d0		 call	 eax

; 480  : 
; 481  : 			float fRotDeg = -m_fCmrRotSpd * fElapsedTime * fRotRat / 90.0f;

  00106	f3 0f 10 47 6c	 movss	 xmm0, DWORD PTR [edi+108]
  0010b	d9 5c 24 14	 fstp	 DWORD PTR _fElapsedTime$1[esp+32]
  0010f	f3 0f 59 44 24
	14		 mulss	 xmm0, DWORD PTR _fElapsedTime$1[esp+32]

; 482  : 			pkCmrCur->Roll(fRotDeg);

  00115	51		 push	 ecx
  00116	8b cb		 mov	 ecx, ebx
  00118	f3 0f 59 44 24
	10		 mulss	 xmm0, DWORD PTR _fRotRat$1$[esp+36]
  0011e	f3 0f 5e 05 00
	00 00 00	 divss	 xmm0, DWORD PTR __real@c2b40000
  00126	f3 0f 11 04 24	 movss	 DWORD PTR [esp], xmm0
  0012b	e8 00 00 00 00	 call	 ?Roll@CCamera@@QAEXM@Z	; CCamera::Roll
  00130	f3 0f 10 1d 00
	00 00 00	 movss	 xmm3, DWORD PTR __real@43b40000
$LN5@NEW_MoveTo:

; 483  : 		}
; 484  : 
; 485  : 		fDirRot=fmod(360.0f + fCmrCurRot + fDirRot, 360.0f);

  00138	f3 0f 10 44 24
	18		 movss	 xmm0, DWORD PTR _fCmrCurRot$2[esp+32]
  0013e	f3 0f 58 c3	 addss	 xmm0, xmm3
  00142	f3 0f 58 44 24
	10		 addss	 xmm0, DWORD PTR _fDirRot$1$[esp+32]
; File c:\program files (x86)\microsoft visual studio 12.0\vc\include\math.h

; 706  :     return (float)fmod(_X, _Y);

  00148	0f 5a c0	 cvtps2pd xmm0, xmm0
  0014b	f2 0f 11 44 24
	18		 movsd	 QWORD PTR tv254[esp+32], xmm0
  00151	dd 44 24 18	 fld	 QWORD PTR tv254[esp+32]
  00155	dd 05 00 00 00
	00		 fld	 QWORD PTR __real@4076800000000000
  0015b	e8 00 00 00 00	 call	 __CIfmod
  00160	dd 5c 24 18	 fstp	 QWORD PTR tv248[esp+32]
  00164	f2 0f 10 44 24
	18		 movsd	 xmm0, QWORD PTR tv248[esp+32]
; File d:\metin2\metin2\client_source_clean\client_source_clean\source\userinterface\pythonplayerinput.cpp

; 488  : 	pkInstMain->NEW_MoveToDirection(fDirRot);

  0016a	8b ce		 mov	 ecx, esi
; File c:\program files (x86)\microsoft visual studio 12.0\vc\include\math.h

; 706  :     return (float)fmod(_X, _Y);

  0016c	66 0f 5a c0	 cvtpd2ps xmm0, xmm0
; File d:\metin2\metin2\client_source_clean\client_source_clean\source\userinterface\pythonplayerinput.cpp

; 488  : 	pkInstMain->NEW_MoveToDirection(fDirRot);

  00170	0f 28 c8	 movaps	 xmm1, xmm0
  00173	e8 00 00 00 00	 call	 ?NEW_MoveToDirection@CInstanceBase@@QAEXM@Z ; CInstanceBase::NEW_MoveToDirection

; 489  : 
; 490  : 	return true;

  00178	b0 01		 mov	 al, 1

; 491  : }

  0017a	5f		 pop	 edi
  0017b	5e		 pop	 esi
  0017c	5b		 pop	 ebx
  0017d	8b e5		 mov	 esp, ebp
  0017f	5d		 pop	 ebp
  00180	c3		 ret	 0
$LN23@NEW_MoveTo:
  00181	f3 0f 10 44 24
	10		 movss	 xmm0, DWORD PTR _fDirRot$1$[esp+32]

; 488  : 	pkInstMain->NEW_MoveToDirection(fDirRot);

  00187	8b ce		 mov	 ecx, esi
  00189	0f 28 c8	 movaps	 xmm1, xmm0
  0018c	e8 00 00 00 00	 call	 ?NEW_MoveToDirection@CInstanceBase@@QAEXM@Z ; CInstanceBase::NEW_MoveToDirection
$LN24@NEW_MoveTo:

; 491  : }

  00191	5f		 pop	 edi
  00192	5e		 pop	 esi
  00193	b0 01		 mov	 al, 1
  00195	5b		 pop	 ebx
  00196	8b e5		 mov	 esp, ebp
  00198	5d		 pop	 ebp
  00199	c3		 ret	 0
?NEW_MoveToDirection@CPythonPlayer@@QAE_NM@Z ENDP	; CPythonPlayer::NEW_MoveToDirection
_TEXT	ENDS
; Function compile flags: /Ogtp
; File d:\metin2\metin2\client_source_clean\client_source_clean\source\userinterface\pythonplayerinput.cpp
;	COMDAT ?NEW_CancelFishing@CPythonPlayer@@QAE_NXZ
_TEXT	SEGMENT
?NEW_CancelFishing@CPythonPlayer@@QAE_NXZ PROC		; CPythonPlayer::NEW_CancelFishing, COMDAT
; _this$ = ecx

; 508  : 	CInstanceBase* pkInstMain = NEW_GetMainActorPtr();

  00000	8b 41 04	 mov	 eax, DWORD PTR [ecx+4]
  00003	83 c1 04	 add	 ecx, 4
  00006	ff 90 88 00 00
	00		 call	 DWORD PTR [eax+136]

; 509  : 	if (!pkInstMain)

  0000c	85 c0		 test	 eax, eax
  0000e	74 46		 je	 SHORT $LN2@NEW_Cancel

; 510  : 		return false;
; 511  : 
; 512  : 	if (pkInstMain->IsFishing())

  00010	8b c8		 mov	 ecx, eax
  00012	e8 00 00 00 00	 call	 ?IsFishing@CInstanceBase@@QAEHXZ ; CInstanceBase::IsFishing
  00017	85 c0		 test	 eax, eax
  00019	74 3b		 je	 SHORT $LN2@NEW_Cancel

; 513  : 	{
; 514  : 		static DWORD s_dwLastCancelTime = 0;
; 515  : 		if (CTimer::Instance().GetCurrentMillisecond() < s_dwLastCancelTime + 500)

  0001b	8b 0d 00 00 00
	00		 mov	 ecx, DWORD PTR ?ms_singleton@?$CSingleton@VCTimer@@@@0PAVCTimer@@A ; CSingleton<CTimer>::ms_singleton
  00021	e8 00 00 00 00	 call	 ?GetCurrentMillisecond@CTimer@@QAEKXZ ; CTimer::GetCurrentMillisecond
  00026	8b 0d 00 00 00
	00		 mov	 ecx, DWORD PTR ?s_dwLastCancelTime@?6??NEW_CancelFishing@CPythonPlayer@@QAE_NXZ@4KA
  0002c	81 c1 f4 01 00
	00		 add	 ecx, 500		; 000001f4H
  00032	3b c1		 cmp	 eax, ecx
  00034	72 20		 jb	 SHORT $LN2@NEW_Cancel

; 516  : 			return false;
; 517  : 
; 518  : 		CPythonNetworkStream::Instance().SendFishingPacket(0);

  00036	8b 0d 00 00 00
	00		 mov	 ecx, DWORD PTR ?ms_singleton@?$CSingleton@VCPythonNetworkStream@@@@0PAVCPythonNetworkStream@@A ; CSingleton<CPythonNetworkStream>::ms_singleton
  0003c	6a 00		 push	 0
  0003e	e8 00 00 00 00	 call	 ?SendFishingPacket@CPythonNetworkStream@@QAE_NH@Z ; CPythonNetworkStream::SendFishingPacket

; 519  : 		s_dwLastCancelTime = CTimer::Instance().GetCurrentMillisecond();

  00043	8b 0d 00 00 00
	00		 mov	 ecx, DWORD PTR ?ms_singleton@?$CSingleton@VCTimer@@@@0PAVCTimer@@A ; CSingleton<CTimer>::ms_singleton
  00049	e8 00 00 00 00	 call	 ?GetCurrentMillisecond@CTimer@@QAEKXZ ; CTimer::GetCurrentMillisecond
  0004e	a3 00 00 00 00	 mov	 DWORD PTR ?s_dwLastCancelTime@?6??NEW_CancelFishing@CPythonPlayer@@QAE_NXZ@4KA, eax

; 520  : 		return true;

  00053	b0 01		 mov	 al, 1

; 524  : }

  00055	c3		 ret	 0
$LN2@NEW_Cancel:

; 521  : 	}
; 522  : 
; 523  : 	return false;

  00056	32 c0		 xor	 al, al

; 524  : }

  00058	c3		 ret	 0
?NEW_CancelFishing@CPythonPlayer@@QAE_NXZ ENDP		; CPythonPlayer::NEW_CancelFishing
_TEXT	ENDS
; Function compile flags: /Ogtp
; File d:\metin2\metin2\client_source_clean\client_source_clean\source\userinterface\pythonplayerinput.cpp
;	COMDAT ?NEW_Fishing@CPythonPlayer@@QAEXXZ
_TEXT	SEGMENT
_irot$1 = -4						; size = 4
?NEW_Fishing@CPythonPlayer@@QAEXXZ PROC			; CPythonPlayer::NEW_Fishing, COMDAT
; _this$ = ecx

; 527  : {

  00000	55		 push	 ebp
  00001	8b ec		 mov	 ebp, esp
  00003	51		 push	 ecx
  00004	56		 push	 esi
  00005	57		 push	 edi
  00006	8b f9		 mov	 edi, ecx

; 528  : 	CInstanceBase* pkInstMain = NEW_GetMainActorPtr();

  00008	8b 47 04	 mov	 eax, DWORD PTR [edi+4]
  0000b	8d 4f 04	 lea	 ecx, DWORD PTR [edi+4]
  0000e	ff 90 88 00 00
	00		 call	 DWORD PTR [eax+136]
  00014	8b f0		 mov	 esi, eax

; 529  : 	if (!pkInstMain)

  00016	85 f6		 test	 esi, esi
  00018	74 68		 je	 SHORT $LN1@NEW_Fishin

; 530  : 		return;
; 531  : 
; 532  : 	if (pkInstMain->IsFishing())

  0001a	8b ce		 mov	 ecx, esi
  0001c	e8 00 00 00 00	 call	 ?IsFishing@CInstanceBase@@QAEHXZ ; CInstanceBase::IsFishing
  00021	85 c0		 test	 eax, eax
  00023	74 13		 je	 SHORT $LN5@NEW_Fishin

; 533  : 	{
; 534  : 		CPythonNetworkStream::Instance().SendFishingPacket(0);

  00025	8b 0d 00 00 00
	00		 mov	 ecx, DWORD PTR ?ms_singleton@?$CSingleton@VCPythonNetworkStream@@@@0PAVCPythonNetworkStream@@A ; CSingleton<CPythonNetworkStream>::ms_singleton
  0002b	6a 00		 push	 0
  0002d	e8 00 00 00 00	 call	 ?SendFishingPacket@CPythonNetworkStream@@QAE_NH@Z ; CPythonNetworkStream::SendFishingPacket

; 546  : 			}
; 547  : 		}
; 548  : 	}
; 549  : }

  00032	5f		 pop	 edi
  00033	5e		 pop	 esi
  00034	8b e5		 mov	 esp, ebp
  00036	5d		 pop	 ebp
  00037	c3		 ret	 0
$LN5@NEW_Fishin:

; 535  : 	}
; 536  : 	else
; 537  : 	{
; 538  : 		if (pkInstMain->CanFishing())

  00038	8b ce		 mov	 ecx, esi
  0003a	e8 00 00 00 00	 call	 ?CanFishing@CInstanceBase@@QAE_NXZ ; CInstanceBase::CanFishing
  0003f	84 c0		 test	 al, al
  00041	74 3f		 je	 SHORT $LN1@NEW_Fishin

; 539  : 		{
; 540  : 			int irot;
; 541  : 			if (pkInstMain->GetFishingRot(&irot))

  00043	8d 45 fc	 lea	 eax, DWORD PTR _irot$1[ebp]
  00046	8b ce		 mov	 ecx, esi
  00048	50		 push	 eax
  00049	e8 00 00 00 00	 call	 ?GetFishingRot@CInstanceBase@@QAEHPAH@Z ; CInstanceBase::GetFishingRot
  0004e	85 c0		 test	 eax, eax
  00050	74 14		 je	 SHORT $LN2@NEW_Fishin

; 542  : 				CPythonNetworkStream::Instance().SendFishingPacket(irot);

  00052	ff 75 fc	 push	 DWORD PTR _irot$1[ebp]
  00055	8b 0d 00 00 00
	00		 mov	 ecx, DWORD PTR ?ms_singleton@?$CSingleton@VCPythonNetworkStream@@@@0PAVCPythonNetworkStream@@A ; CSingleton<CPythonNetworkStream>::ms_singleton
  0005b	e8 00 00 00 00	 call	 ?SendFishingPacket@CPythonNetworkStream@@QAE_NH@Z ; CPythonNetworkStream::SendFishingPacket

; 546  : 			}
; 547  : 		}
; 548  : 	}
; 549  : }

  00060	5f		 pop	 edi
  00061	5e		 pop	 esi
  00062	8b e5		 mov	 esp, ebp
  00064	5d		 pop	 ebp
  00065	c3		 ret	 0
$LN2@NEW_Fishin:

; 543  : 			else
; 544  : 			{
; 545  : 				PyCallClassMemberFunc(m_ppyGameWindow, "OnFishingWrongPlace", Py_BuildValue("()"));

  00066	68 00 00 00 00	 push	 OFFSET ??_C@_02HCKGKOFO@?$CI?$CJ?$AA@
  0006b	ff 15 00 00 00
	00		 call	 DWORD PTR __imp__Py_BuildValue
  00071	50		 push	 eax
  00072	68 00 00 00 00	 push	 OFFSET ??_C@_0BE@DLANHBIF@OnFishingWrongPlace?$AA@
  00077	ff 77 08	 push	 DWORD PTR [edi+8]
  0007a	e8 00 00 00 00	 call	 ?PyCallClassMemberFunc@@YA_NPAU_object@@PBD0@Z ; PyCallClassMemberFunc
  0007f	83 c4 10	 add	 esp, 16			; 00000010H
$LN1@NEW_Fishin:

; 546  : 			}
; 547  : 		}
; 548  : 	}
; 549  : }

  00082	5f		 pop	 edi
  00083	5e		 pop	 esi
  00084	8b e5		 mov	 esp, ebp
  00086	5d		 pop	 ebp
  00087	c3		 ret	 0
?NEW_Fishing@CPythonPlayer@@QAEXXZ ENDP			; CPythonPlayer::NEW_Fishing
_TEXT	ENDS
; Function compile flags: /Ogtp
; File d:\metin2\metin2\client_source_clean\client_source_clean\source\userinterface\pythonplayerinput.cpp
; File d:\metin2\metin2\client_source_clean\client_source_clean\source\eterlib\camera.h
; File d:\metin2\metin2\client_source_clean\client_source_clean\source\userinterface\pythonplayerinput.cpp
; File c:\program files (x86)\microsoft visual studio 12.0\vc\include\math.h
; File d:\metin2\metin2\client_source_clean\client_source_clean\source\userinterface\pythonplayerinput.cpp
; File c:\program files (x86)\microsoft visual studio 12.0\vc\include\math.h
; File d:\metin2\metin2\client_source_clean\client_source_clean\source\userinterface\pythonplayerinput.cpp
;	COMDAT ?NEW_Attack@CPythonPlayer@@QAEXXZ
_TEXT	SEGMENT
_fDirRot$1 = -12					; size = 4
tv249 = -8						; size = 4
tv247 = -8						; size = 8
tv241 = -8						; size = 8
?NEW_Attack@CPythonPlayer@@QAEXXZ PROC			; CPythonPlayer::NEW_Attack, COMDAT
; _this$ = ecx

; 552  : {

  00000	55		 push	 ebp
  00001	8b ec		 mov	 ebp, esp
  00003	83 e4 f8	 and	 esp, -8			; fffffff8H
  00006	83 ec 0c	 sub	 esp, 12			; 0000000cH
  00009	53		 push	 ebx
  0000a	56		 push	 esi
  0000b	57		 push	 edi
  0000c	8b f1		 mov	 esi, ecx

; 553  : 	// PrivateShop
; 554  : 	if (IsOpenPrivateShop())

  0000e	e8 00 00 00 00	 call	 ?IsOpenPrivateShop@CPythonPlayer@@QAE_NXZ ; CPythonPlayer::IsOpenPrivateShop
  00013	84 c0		 test	 al, al
  00015	0f 85 b4 01 00
	00		 jne	 $LN3@NEW_Attack

; 555  : 		return;
; 556  : 
; 557  : 	if (!__CanAttack())

  0001b	e8 00 00 00 00	 call	 ?__CanAttack@CPythonPlayer@@IAE_NXZ ; CPythonPlayer::__CanAttack
  00020	84 c0		 test	 al, al
  00022	0f 84 a7 01 00
	00		 je	 $LN3@NEW_Attack

; 558  : 		return; 
; 559  : 
; 560  : 	CInstanceBase* pkInstMain = NEW_GetMainActorPtr();

  00028	8b 46 04	 mov	 eax, DWORD PTR [esi+4]
  0002b	8d 4e 04	 lea	 ecx, DWORD PTR [esi+4]
  0002e	ff 90 88 00 00
	00		 call	 DWORD PTR [eax+136]
  00034	8b f8		 mov	 edi, eax

; 561  : 	if (!pkInstMain)

  00036	85 ff		 test	 edi, edi
  00038	0f 84 91 01 00
	00		 je	 $LN3@NEW_Attack

; 562  : 		return;
; 563  : 
; 564  : 	if (pkInstMain->IsBowMode())

  0003e	8b cf		 mov	 ecx, edi
  00040	e8 00 00 00 00	 call	 ?IsBowMode@CInstanceBase@@QAEHXZ ; CInstanceBase::IsBowMode
  00045	85 c0		 test	 eax, eax
  00047	0f 84 b0 00 00
	00		 je	 $LN13@NEW_Attack

; 565  : 	{
; 566  : 		//CPythonPlayerEventHandler& rkPlayerEventHandler=CPythonPlayerEventHandler::GetSingleton();
; 567  : 
; 568  : 		CInstanceBase * pkInstTarget = __GetAliveTargetInstancePtr();

  0004d	8b ce		 mov	 ecx, esi
  0004f	e8 00 00 00 00	 call	 ?__GetAliveTargetInstancePtr@CPythonPlayer@@IAEPAVCInstanceBase@@XZ ; CPythonPlayer::__GetAliveTargetInstancePtr
  00054	8b d8		 mov	 ebx, eax

; 569  : 		if (!pkInstTarget)

  00056	85 db		 test	 ebx, ebx
  00058	75 49		 jne	 SHORT $LN27@NEW_Attack

; 570  : 		{
; 571  : 			__ChangeTargetToPickedInstance();

  0005a	8b ce		 mov	 ecx, esi
  0005c	e8 00 00 00 00	 call	 ?__ChangeTargetToPickedInstance@CPythonPlayer@@IAE_NXZ ; CPythonPlayer::__ChangeTargetToPickedInstance

; 572  : 			pkInstTarget = __GetAliveTargetInstancePtr();

  00061	8b ce		 mov	 ecx, esi
  00063	e8 00 00 00 00	 call	 ?__GetAliveTargetInstancePtr@CPythonPlayer@@IAEPAVCInstanceBase@@XZ ; CPythonPlayer::__GetAliveTargetInstancePtr
  00068	8b d8		 mov	 ebx, eax

; 573  : 		}
; 574  : 
; 575  : 		if (pkInstTarget)

  0006a	85 db		 test	 ebx, ebx
  0006c	75 35		 jne	 SHORT $LN27@NEW_Attack

; 590  : 			}
; 591  : 		}
; 592  : 		else
; 593  : 		{
; 594  : 			PyCallClassMemberFunc(m_ppyGameWindow, "OnCannotUseSkill", Py_BuildValue("(is)", GetMainCharacterIndex(), "NEED_TARGET"));

  0006e	8b 46 04	 mov	 eax, DWORD PTR [esi+4]
  00071	8d 4e 04	 lea	 ecx, DWORD PTR [esi+4]
  00074	68 00 00 00 00	 push	 OFFSET ??_C@_0M@HCIEKIGP@NEED_TARGET?$AA@
  00079	ff 50 04	 call	 DWORD PTR [eax+4]
  0007c	50		 push	 eax
  0007d	68 00 00 00 00	 push	 OFFSET ??_C@_04JMLDJNEM@?$CIis?$CJ?$AA@
  00082	ff 15 00 00 00
	00		 call	 DWORD PTR __imp__Py_BuildValue
  00088	83 c4 0c	 add	 esp, 12			; 0000000cH
  0008b	50		 push	 eax
  0008c	68 00 00 00 00	 push	 OFFSET ??_C@_0BB@BOHMBBJL@OnCannotUseSkill?$AA@
  00091	ff 76 08	 push	 DWORD PTR [esi+8]
  00094	e8 00 00 00 00	 call	 ?PyCallClassMemberFunc@@YA_NPAU_object@@PBD0@Z ; PyCallClassMemberFunc
  00099	83 c4 0c	 add	 esp, 12			; 0000000cH

; 623  : 	}
; 624  : }

  0009c	5f		 pop	 edi
  0009d	5e		 pop	 esi
  0009e	5b		 pop	 ebx
  0009f	8b e5		 mov	 esp, ebp
  000a1	5d		 pop	 ebp
  000a2	c3		 ret	 0
$LN27@NEW_Attack:

; 576  : 		{
; 577  : 			if (!__CanShot(*pkInstMain, *pkInstTarget))

  000a3	53		 push	 ebx
  000a4	57		 push	 edi
  000a5	8b ce		 mov	 ecx, esi
  000a7	e8 00 00 00 00	 call	 ?__CanShot@CPythonPlayer@@IAE_NAAVCInstanceBase@@0@Z ; CPythonPlayer::__CanShot
  000ac	84 c0		 test	 al, al
  000ae	0f 84 1b 01 00
	00		 je	 $LN3@NEW_Attack

; 578  : 				return;
; 579  : 
; 580  : 			if (!pkInstMain->NEW_IsClickableDistanceDestInstance(*pkInstTarget))

  000b4	53		 push	 ebx
  000b5	8b cf		 mov	 ecx, edi
  000b7	e8 00 00 00 00	 call	 ?NEW_IsClickableDistanceDestInstance@CInstanceBase@@QAEHAAV1@@Z ; CInstanceBase::NEW_IsClickableDistanceDestInstance
  000bc	85 c0		 test	 eax, eax
  000be	75 16		 jne	 SHORT $LN9@NEW_Attack

; 581  : 			{
; 582  : 				__ReserveClickActor(pkInstTarget->GetVirtualID());

  000c0	8b cb		 mov	 ecx, ebx
  000c2	e8 00 00 00 00	 call	 ?GetVirtualID@CInstanceBase@@QAEKXZ ; CInstanceBase::GetVirtualID
  000c7	50		 push	 eax
  000c8	8b ce		 mov	 ecx, esi
  000ca	e8 00 00 00 00	 call	 ?__ReserveClickActor@CPythonPlayer@@IAEXK@Z ; CPythonPlayer::__ReserveClickActor

; 623  : 	}
; 624  : }

  000cf	5f		 pop	 edi
  000d0	5e		 pop	 esi
  000d1	5b		 pop	 ebx
  000d2	8b e5		 mov	 esp, ebp
  000d4	5d		 pop	 ebp
  000d5	c3		 ret	 0
$LN9@NEW_Attack:

; 583  : 				return;
; 584  : 			}
; 585  : 
; 586  : 			if (pkInstMain->IsAttackableInstance(*pkInstTarget))

  000d6	53		 push	 ebx
  000d7	8b cf		 mov	 ecx, edi
  000d9	e8 00 00 00 00	 call	 ?IsAttackableInstance@CInstanceBase@@QAE_NAAV1@@Z ; CInstanceBase::IsAttackableInstance
  000de	84 c0		 test	 al, al
  000e0	0f 84 e9 00 00
	00		 je	 $LN3@NEW_Attack

; 587  : 			{
; 588  : 				pkInstMain->NEW_LookAtDestInstance(*pkInstTarget);

  000e6	53		 push	 ebx
  000e7	8b cf		 mov	 ecx, edi
  000e9	e8 00 00 00 00	 call	 ?NEW_LookAtDestInstance@CInstanceBase@@QAEXAAV1@@Z ; CInstanceBase::NEW_LookAtDestInstance

; 589  : 				pkInstMain->NEW_AttackToDestInstanceDirection(*pkInstTarget);

  000ee	53		 push	 ebx
  000ef	8b cf		 mov	 ecx, edi
  000f1	e8 00 00 00 00	 call	 ?NEW_AttackToDestInstanceDirection@CInstanceBase@@QAE_NAAV1@@Z ; CInstanceBase::NEW_AttackToDestInstanceDirection

; 623  : 	}
; 624  : }

  000f6	5f		 pop	 edi
  000f7	5e		 pop	 esi
  000f8	5b		 pop	 ebx
  000f9	8b e5		 mov	 esp, ebp
  000fb	5d		 pop	 ebp
  000fc	c3		 ret	 0
$LN13@NEW_Attack:

; 595  : 			return;
; 596  : 		}
; 597  : 	}
; 598  : 	else if (m_isDirKey)

  000fd	80 7e 65 00	 cmp	 BYTE PTR [esi+101], 0
  00101	0f 84 ab 00 00
	00		 je	 $LN5@NEW_Attack

; 599  : 	{
; 600  : 		float fDirRot=0.0f;
; 601  : 		NEW_GetMultiKeyDirRotation(m_isLeft, m_isRight, m_isUp, m_isDown, &fDirRot);

  00107	8d 44 24 0c	 lea	 eax, DWORD PTR _fDirRot$1[esp+24]
  0010b	c7 44 24 0c 00
	00 00 00	 mov	 DWORD PTR _fDirRot$1[esp+24], 0
  00113	50		 push	 eax
  00114	0f b6 46 61	 movzx	 eax, BYTE PTR [esi+97]
  00118	50		 push	 eax
  00119	0f b6 46 60	 movzx	 eax, BYTE PTR [esi+96]
  0011d	50		 push	 eax
  0011e	0f b6 46 63	 movzx	 eax, BYTE PTR [esi+99]
  00122	50		 push	 eax
  00123	0f b6 46 62	 movzx	 eax, BYTE PTR [esi+98]
  00127	50		 push	 eax
  00128	e8 00 00 00 00	 call	 ?NEW_GetMultiKeyDirRotation@CPythonPlayer@@IAEX_N000PAM@Z ; CPythonPlayer::NEW_GetMultiKeyDirRotation

; 602  : 
; 603  : 		CCamera* pkCmrCur=CCameraManager::Instance().GetCurrentCamera();

  0012d	8b 0d 00 00 00
	00		 mov	 ecx, DWORD PTR ?ms_singleton@?$CSingleton@VCCameraManager@@@@0PAVCCameraManager@@A ; CSingleton<CCameraManager>::ms_singleton
  00133	e8 00 00 00 00	 call	 ?GetCurrentCamera@CCameraManager@@QAEPAVCCamera@@XZ ; CCameraManager::GetCurrentCamera

; 604  : 		if (pkCmrCur)

  00138	85 c0		 test	 eax, eax
  0013a	74 62		 je	 SHORT $LN28@NEW_Attack
; File d:\metin2\metin2\client_source_clean\client_source_clean\source\eterlib\camera.h

; 185  : 		float GetRoll() const { return m_fRoll; }

  0013c	f3 0f 10 80 30
	01 00 00	 movss	 xmm0, DWORD PTR [eax+304]
; File d:\metin2\metin2\client_source_clean\client_source_clean\source\userinterface\pythonplayerinput.cpp

; 606  : 			float fCmrCurRot=CameraRotationToCharacterRotation(pkCmrCur->GetRoll());

  00144	51		 push	 ecx
  00145	f3 0f 11 04 24	 movss	 DWORD PTR [esp], xmm0
  0014a	e8 00 00 00 00	 call	 ?CameraRotationToCharacterRotation@@YAMM@Z ; CameraRotationToCharacterRotation

; 607  : 
; 608  : 			fDirRot=fmod(360.0f + fCmrCurRot + fDirRot, 360.0f);

  0014f	d9 5c 24 14	 fstp	 DWORD PTR tv249[esp+28]
  00153	f3 0f 10 44 24
	14		 movss	 xmm0, DWORD PTR tv249[esp+28]
  00159	83 c4 04	 add	 esp, 4
  0015c	f3 0f 58 05 00
	00 00 00	 addss	 xmm0, DWORD PTR __real@43b40000
  00164	f3 0f 58 44 24
	0c		 addss	 xmm0, DWORD PTR _fDirRot$1[esp+24]
; File c:\program files (x86)\microsoft visual studio 12.0\vc\include\math.h

; 706  :     return (float)fmod(_X, _Y);

  0016a	0f 5a c0	 cvtps2pd xmm0, xmm0
  0016d	f2 0f 11 44 24
	10		 movsd	 QWORD PTR tv247[esp+24], xmm0
  00173	dd 44 24 10	 fld	 QWORD PTR tv247[esp+24]
  00177	dd 05 00 00 00
	00		 fld	 QWORD PTR __real@4076800000000000
  0017d	e8 00 00 00 00	 call	 __CIfmod
  00182	dd 5c 24 10	 fstp	 QWORD PTR tv241[esp+24]
  00186	f2 0f 10 4c 24
	10		 movsd	 xmm1, QWORD PTR tv241[esp+24]
; File d:\metin2\metin2\client_source_clean\client_source_clean\source\userinterface\pythonplayerinput.cpp

; 611  : 		pkInstMain->NEW_Attack(fDirRot);

  0018c	8b cf		 mov	 ecx, edi
; File c:\program files (x86)\microsoft visual studio 12.0\vc\include\math.h

; 706  :     return (float)fmod(_X, _Y);

  0018e	66 0f 5a c9	 cvtpd2ps xmm1, xmm1
; File d:\metin2\metin2\client_source_clean\client_source_clean\source\userinterface\pythonplayerinput.cpp

; 611  : 		pkInstMain->NEW_Attack(fDirRot);

  00192	e8 00 00 00 00	 call	 ?NEW_Attack@CInstanceBase@@QAEXM@Z ; CInstanceBase::NEW_Attack

; 623  : 	}
; 624  : }

  00197	5f		 pop	 edi
  00198	5e		 pop	 esi
  00199	5b		 pop	 ebx
  0019a	8b e5		 mov	 esp, ebp
  0019c	5d		 pop	 ebp
  0019d	c3		 ret	 0
$LN28@NEW_Attack:

; 607  : 
; 608  : 			fDirRot=fmod(360.0f + fCmrCurRot + fDirRot, 360.0f);

  0019e	f3 0f 10 4c 24
	0c		 movss	 xmm1, DWORD PTR _fDirRot$1[esp+24]

; 611  : 		pkInstMain->NEW_Attack(fDirRot);

  001a4	8b cf		 mov	 ecx, edi
  001a6	e8 00 00 00 00	 call	 ?NEW_Attack@CInstanceBase@@QAEXM@Z ; CInstanceBase::NEW_Attack

; 623  : 	}
; 624  : }

  001ab	5f		 pop	 edi
  001ac	5e		 pop	 esi
  001ad	5b		 pop	 ebx
  001ae	8b e5		 mov	 esp, ebp
  001b0	5d		 pop	 ebp
  001b1	c3		 ret	 0
$LN5@NEW_Attack:

; 612  : 	}
; 613  : 	else
; 614  : 	{
; 615  : 		//!@# 말에 탄 상태에서 맨손 공격은 지원되지 않는다 - [levites]
; 616  : 		if (pkInstMain->IsMountingHorse())

  001b2	8b cf		 mov	 ecx, edi
  001b4	e8 00 00 00 00	 call	 ?IsMountingHorse@CInstanceBase@@QAEHXZ ; CInstanceBase::IsMountingHorse
  001b9	85 c0		 test	 eax, eax
  001bb	74 0b		 je	 SHORT $LN1@NEW_Attack

; 617  : 		{
; 618  : 			if (pkInstMain->IsHandMode())

  001bd	8b cf		 mov	 ecx, edi
  001bf	e8 00 00 00 00	 call	 ?IsHandMode@CInstanceBase@@QAEHXZ ; CInstanceBase::IsHandMode
  001c4	85 c0		 test	 eax, eax
  001c6	75 07		 jne	 SHORT $LN3@NEW_Attack
$LN1@NEW_Attack:

; 619  : 				return;
; 620  : 		}
; 621  : 
; 622  : 		pkInstMain->NEW_Attack();

  001c8	8b cf		 mov	 ecx, edi
  001ca	e8 00 00 00 00	 call	 ?NEW_Attack@CInstanceBase@@QAEXXZ ; CInstanceBase::NEW_Attack
$LN3@NEW_Attack:

; 623  : 	}
; 624  : }

  001cf	5f		 pop	 edi
  001d0	5e		 pop	 esi
  001d1	5b		 pop	 ebx
  001d2	8b e5		 mov	 esp, ebp
  001d4	5d		 pop	 ebp
  001d5	c3		 ret	 0
?NEW_Attack@CPythonPlayer@@QAEXXZ ENDP			; CPythonPlayer::NEW_Attack
_TEXT	ENDS
; Function compile flags: /Ogtp
; File d:\metin2\metin2\client_source_clean\client_source_clean\source\userinterface\pythonplayerinput.cpp
;	COMDAT ?NEW_IsEmptyReservedDelayTime@CPythonPlayer@@QAE_NM@Z
_TEXT	SEGMENT
?NEW_IsEmptyReservedDelayTime@CPythonPlayer@@QAE_NM@Z PROC ; CPythonPlayer::NEW_IsEmptyReservedDelayTime, COMDAT
; _this$ = ecx
; _fElapsedTime$ = xmm1s

; 628  : 	m_fReservedDelayTime -= fElapsedTime;

  00000	f3 0f 10 51 58	 movss	 xmm2, DWORD PTR [ecx+88]
  00005	0f 57 c0	 xorps	 xmm0, xmm0
  00008	f3 0f 5c d1	 subss	 xmm2, xmm1

; 629  : 
; 630  : 	if (m_fReservedDelayTime <= 0.0f)

  0000c	0f 2f c2	 comiss	 xmm0, xmm2
  0000f	f3 0f 11 51 58	 movss	 DWORD PTR [ecx+88], xmm2
  00014	72 0a		 jb	 SHORT $LN1@NEW_IsEmpt

; 631  : 	{
; 632  : 		m_fReservedDelayTime = 0.0f;

  00016	c7 41 58 00 00
	00 00		 mov	 DWORD PTR [ecx+88], 0

; 633  : 		return true;

  0001d	b0 01		 mov	 al, 1

; 637  : }

  0001f	c3		 ret	 0
$LN1@NEW_IsEmpt:

; 634  : 	}
; 635  : 
; 636  : 	return false;

  00020	32 c0		 xor	 al, al

; 637  : }

  00022	c3		 ret	 0
?NEW_IsEmptyReservedDelayTime@CPythonPlayer@@QAE_NM@Z ENDP ; CPythonPlayer::NEW_IsEmptyReservedDelayTime
_TEXT	ENDS
; Function compile flags: /Ogtp
; File d:\metin2\metin2\client_source_clean\client_source_clean\source\userinterface\pythonplayerinput.cpp
;	COMDAT ?NEW_SetAutoCameraRotationSpeed@CPythonPlayer@@QAEXM@Z
_TEXT	SEGMENT
?NEW_SetAutoCameraRotationSpeed@CPythonPlayer@@QAEXM@Z PROC ; CPythonPlayer::NEW_SetAutoCameraRotationSpeed, COMDAT
; _this$ = ecx
; _fRotSpd$ = xmm1s

; 642  : 	m_fCmrRotSpd=fRotSpd;

  00000	f3 0f 11 49 6c	 movss	 DWORD PTR [ecx+108], xmm1

; 643  : }

  00005	c3		 ret	 0
?NEW_SetAutoCameraRotationSpeed@CPythonPlayer@@QAEXM@Z ENDP ; CPythonPlayer::NEW_SetAutoCameraRotationSpeed
_TEXT	ENDS
; Function compile flags: /Ogtp
; File d:\metin2\metin2\client_source_clean\client_source_clean\source\userinterface\pythonplayerinput.cpp
;	COMDAT ?NEW_ResetCameraRotation@CPythonPlayer@@QAEXXZ
_TEXT	SEGMENT
?NEW_ResetCameraRotation@CPythonPlayer@@QAEXXZ PROC	; CPythonPlayer::NEW_ResetCameraRotation, COMDAT
; _this$dead$ = ecx

; 647  : 	CCamera* pkCmrCur=CCameraManager::Instance().GetCurrentCamera();

  00000	8b 0d 00 00 00
	00		 mov	 ecx, DWORD PTR ?ms_singleton@?$CSingleton@VCCameraManager@@@@0PAVCCameraManager@@A ; CSingleton<CCameraManager>::ms_singleton
  00006	56		 push	 esi
  00007	e8 00 00 00 00	 call	 ?GetCurrentCamera@CCameraManager@@QAEPAVCCamera@@XZ ; CCameraManager::GetCurrentCamera

; 648  : 	CPythonApplication & rkApp = CPythonApplication::Instance();

  0000c	8b 35 00 00 00
	00		 mov	 esi, DWORD PTR ?ms_pInstance@CPythonApplication@@1PAV1@A ; CPythonApplication::ms_pInstance

; 649  : 
; 650  : 	pkCmrCur->EndDrag();

  00012	8b c8		 mov	 ecx, eax
  00014	e8 00 00 00 00	 call	 ?EndDrag@CCamera@@QAE_NXZ ; CCamera::EndDrag

; 651  : 
; 652  : 	rkApp.SetCursorNum(CPythonApplication::NORMAL);

  00019	6a 00		 push	 0
  0001b	8b ce		 mov	 ecx, esi
  0001d	e8 00 00 00 00	 call	 ?SetCursorNum@CPythonApplication@@QAEHH@Z ; CPythonApplication::SetCursorNum

; 653  : 	if ( CPythonApplication::CURSOR_MODE_HARDWARE == rkApp.GetCursorMode())

  00022	8b ce		 mov	 ecx, esi
  00024	e8 00 00 00 00	 call	 ?GetCursorMode@CPythonApplication@@QAEHXZ ; CPythonApplication::GetCursorMode
  00029	85 c0		 test	 eax, eax
  0002b	75 08		 jne	 SHORT $LN1@NEW_ResetC

; 654  : 		rkApp.SetCursorVisible(TRUE);

  0002d	50		 push	 eax
  0002e	6a 01		 push	 1
  00030	e8 00 00 00 00	 call	 ?SetCursorVisible@CPythonApplication@@QAEXH_N@Z ; CPythonApplication::SetCursorVisible
$LN1@NEW_ResetC:
  00035	5e		 pop	 esi

; 655  : }

  00036	c3		 ret	 0
?NEW_ResetCameraRotation@CPythonPlayer@@QAEXXZ ENDP	; CPythonPlayer::NEW_ResetCameraRotation
_TEXT	ENDS
; Function compile flags: /Ogtp
; File d:\metin2\metin2\client_source_clean\client_source_clean\source\userinterface\pythonplayerinput.cpp
;	COMDAT ?__CanShot@CPythonPlayer@@IAE_NAAVCInstanceBase@@0@Z
_TEXT	SEGMENT
_rkInstMain$ = 8					; size = 4
_rkInstTarget$ = 12					; size = 4
?__CanShot@CPythonPlayer@@IAE_NAAVCInstanceBase@@0@Z PROC ; CPythonPlayer::__CanShot, COMDAT
; _this$ = ecx

; 659  : {

  00000	55		 push	 ebp
  00001	8b ec		 mov	 ebp, esp
  00003	56		 push	 esi
  00004	8b f1		 mov	 esi, ecx

; 660  : 	if (!__HasEnoughArrow())

  00006	e8 00 00 00 00	 call	 ?__HasEnoughArrow@CPythonPlayer@@IAE_NXZ ; CPythonPlayer::__HasEnoughArrow
  0000b	84 c0		 test	 al, al
  0000d	75 32		 jne	 SHORT $LN3@CanShot

; 661  : 	{
; 662  : 		PyCallClassMemberFunc(m_ppyGameWindow, "OnCannotShot", Py_BuildValue("(is)", GetMainCharacterIndex(), "EMPTY_ARROW"));

  0000f	68 00 00 00 00	 push	 OFFSET ??_C@_0M@FBIHMJDM@EMPTY_ARROW?$AA@
$LN7@CanShot:
  00014	8b 46 04	 mov	 eax, DWORD PTR [esi+4]
  00017	8d 4e 04	 lea	 ecx, DWORD PTR [esi+4]
  0001a	ff 50 04	 call	 DWORD PTR [eax+4]
  0001d	50		 push	 eax
  0001e	68 00 00 00 00	 push	 OFFSET ??_C@_04JMLDJNEM@?$CIis?$CJ?$AA@
  00023	ff 15 00 00 00
	00		 call	 DWORD PTR __imp__Py_BuildValue
  00029	50		 push	 eax
  0002a	68 00 00 00 00	 push	 OFFSET ??_C@_0N@OPOOJDCJ@OnCannotShot?$AA@
  0002f	ff 76 08	 push	 DWORD PTR [esi+8]
  00032	e8 00 00 00 00	 call	 ?PyCallClassMemberFunc@@YA_NPAU_object@@PBD0@Z ; PyCallClassMemberFunc
  00037	83 c4 18	 add	 esp, 24			; 00000018H

; 663  : 		return false;

  0003a	32 c0		 xor	 al, al
  0003c	5e		 pop	 esi

; 679  : }

  0003d	5d		 pop	 ebp
  0003e	c2 08 00	 ret	 8
$LN3@CanShot:

; 664  : 	}
; 665  : 
; 666  : 	if (rkInstMain.IsInSafe())

  00041	8b 4d 08	 mov	 ecx, DWORD PTR _rkInstMain$[ebp]
  00044	e8 00 00 00 00	 call	 ?IsInSafe@CInstanceBase@@QAEHXZ ; CInstanceBase::IsInSafe
  00049	85 c0		 test	 eax, eax
  0004b	74 07		 je	 SHORT $LN2@CanShot

; 667  : 	{
; 668  : 		PyCallClassMemberFunc(m_ppyGameWindow, "OnCannotShot", Py_BuildValue("(is)", GetMainCharacterIndex(), "IN_SAFE"));

  0004d	68 00 00 00 00	 push	 OFFSET ??_C@_07OAOBINCH@IN_SAFE?$AA@

; 669  : 		return false;

  00052	eb c0		 jmp	 SHORT $LN7@CanShot
$LN2@CanShot:

; 670  : 	}
; 671  : 
; 672  : 	if (rkInstTarget.IsInSafe())

  00054	8b 4d 0c	 mov	 ecx, DWORD PTR _rkInstTarget$[ebp]
  00057	e8 00 00 00 00	 call	 ?IsInSafe@CInstanceBase@@QAEHXZ ; CInstanceBase::IsInSafe
  0005c	85 c0		 test	 eax, eax
  0005e	74 07		 je	 SHORT $LN1@CanShot

; 673  : 	{
; 674  : 		PyCallClassMemberFunc(m_ppyGameWindow, "OnCannotShot", Py_BuildValue("(is)", GetMainCharacterIndex(), "DEST_IN_SAFE"));

  00060	68 00 00 00 00	 push	 OFFSET ??_C@_0N@KDALDMKB@DEST_IN_SAFE?$AA@

; 675  : 		return false;

  00065	eb ad		 jmp	 SHORT $LN7@CanShot
$LN1@CanShot:

; 676  : 	}	
; 677  : 
; 678  : 	return true;

  00067	b0 01		 mov	 al, 1
  00069	5e		 pop	 esi

; 679  : }

  0006a	5d		 pop	 ebp
  0006b	c2 08 00	 ret	 8
?__CanShot@CPythonPlayer@@IAE_NAAVCInstanceBase@@0@Z ENDP ; CPythonPlayer::__CanShot
_TEXT	ENDS
; Function compile flags: /Ogtp
; File d:\metin2\metin2\client_source_clean\client_source_clean\source\userinterface\pythonplayerinput.cpp
;	COMDAT ?__CanMove@CPythonPlayer@@IAE_NXZ
_TEXT	SEGMENT
?__CanMove@CPythonPlayer@@IAE_NXZ PROC			; CPythonPlayer::__CanMove, COMDAT
; _this$ = ecx

; 692  : 	if (__IsProcessingEmotion())

  00000	e8 00 00 00 00	 call	 ?__IsProcessingEmotion@CPythonPlayer@@IAEHXZ ; CPythonPlayer::__IsProcessingEmotion
  00005	85 c0		 test	 eax, eax
  00007	74 03		 je	 SHORT $LN4@CanMove

; 693  : 	{
; 694  : 		return false;

  00009	32 c0		 xor	 al, al

; 708  : }

  0000b	c3		 ret	 0
$LN4@CanMove:

; 695  : 	}
; 696  : 
; 697  : 	CInstanceBase* pkInstMain=NEW_GetMainActorPtr();

  0000c	8b 41 04	 mov	 eax, DWORD PTR [ecx+4]
  0000f	83 c1 04	 add	 ecx, 4
  00012	56		 push	 esi
  00013	ff 90 88 00 00
	00		 call	 DWORD PTR [eax+136]
  00019	8b f0		 mov	 esi, eax

; 698  : 	if (!pkInstMain) 

  0001b	85 f6		 test	 esi, esi
  0001d	74 16		 je	 SHORT $LN8@CanMove

; 699  : 		return false;
; 700  : 
; 701  : 	if (!pkInstMain->CanMove())

  0001f	8b ce		 mov	 ecx, esi
  00021	e8 00 00 00 00	 call	 ?CanMove@CInstanceBase@@QAE_NXZ ; CInstanceBase::CanMove
  00026	84 c0		 test	 al, al
  00028	75 0f		 jne	 SHORT $LN1@CanMove

; 702  : 	{
; 703  : 		if (!pkInstMain->IsUsingMovingSkill())

  0002a	8b ce		 mov	 ecx, esi
  0002c	e8 00 00 00 00	 call	 ?IsUsingMovingSkill@CInstanceBase@@QAEHXZ ; CInstanceBase::IsUsingMovingSkill
  00031	85 c0		 test	 eax, eax
  00033	75 04		 jne	 SHORT $LN1@CanMove
$LN8@CanMove:

; 704  : 			return false;

  00035	32 c0		 xor	 al, al
  00037	5e		 pop	 esi

; 708  : }

  00038	c3		 ret	 0
$LN1@CanMove:

; 705  : 	}
; 706  : 
; 707  : 	return true;

  00039	b0 01		 mov	 al, 1
  0003b	5e		 pop	 esi

; 708  : }

  0003c	c3		 ret	 0
?__CanMove@CPythonPlayer@@IAE_NXZ ENDP			; CPythonPlayer::__CanMove
_TEXT	ENDS
; Function compile flags: /Ogtp
; File d:\metin2\metin2\client_source_clean\client_source_clean\source\userinterface\pythonplayerinput.cpp
;	COMDAT ?__CanAttack@CPythonPlayer@@IAE_NXZ
_TEXT	SEGMENT
?__CanAttack@CPythonPlayer@@IAE_NXZ PROC		; CPythonPlayer::__CanAttack, COMDAT
; _this$ = ecx

; 738  : {

  00000	56		 push	 esi
  00001	8b f1		 mov	 esi, ecx

; 739  : 	if (__IsProcessingEmotion())

  00003	e8 00 00 00 00	 call	 ?__IsProcessingEmotion@CPythonPlayer@@IAEHXZ ; CPythonPlayer::__IsProcessingEmotion
  00008	85 c0		 test	 eax, eax
  0000a	74 04		 je	 SHORT $LN5@CanAttack
$LN12@CanAttack:

; 740  : 	{
; 741  : 		return false;

  0000c	32 c0		 xor	 al, al
  0000e	5e		 pop	 esi

; 765  : }

  0000f	c3		 ret	 0
$LN5@CanAttack:

; 742  : 	}
; 743  : 
; 744  : 	if (IsOpenPrivateShop())

  00010	e8 00 00 00 00	 call	 ?IsOpenPrivateShop@CPythonPlayer@@QAE_NXZ ; CPythonPlayer::IsOpenPrivateShop
  00015	84 c0		 test	 al, al
  00017	75 f3		 jne	 SHORT $LN12@CanAttack

; 745  : 		return false;
; 746  : 
; 747  : 	if (IsObserverMode())

  00019	e8 00 00 00 00	 call	 ?IsObserverMode@CPythonPlayer@@QAE_NXZ ; CPythonPlayer::IsObserverMode
  0001e	84 c0		 test	 al, al
  00020	75 ea		 jne	 SHORT $LN12@CanAttack

; 748  : 		return false;
; 749  : 
; 750  : 	CInstanceBase* pkInstMain=NEW_GetMainActorPtr();

  00022	8b 46 04	 mov	 eax, DWORD PTR [esi+4]
  00025	8d 4e 04	 lea	 ecx, DWORD PTR [esi+4]
  00028	57		 push	 edi
  00029	ff 90 88 00 00
	00		 call	 DWORD PTR [eax+136]
  0002f	8b f8		 mov	 edi, eax

; 751  : 	if (!pkInstMain)

  00031	85 ff		 test	 edi, edi
  00033	74 30		 je	 SHORT $LN11@CanAttack

; 752  : 		return false;
; 753  : 	
; 754  : 	// Fix me
; 755  : 	// 뉴마운트 25레벨 이상 35레벨 미만인 경우 중급 마운트를 타고 공격못하도록 하드 코딩... 
; 756  : 	// 나중에 시간 나면 can attack 체크를 서버에서 해주자...
; 757  : 	// ㅡ_ㅡ unique 슬롯에 차는 탈것은 이 조건이랑 관계없이 공격할 수 있어야 한다 ㅡ_ㅡ
; 758  : 	// ㅡ_ㅡ 뉴마운트만 이 체크를 하게 함... ㅡ_ㅡ_ㅡ_ㅡ_ㅡ
; 759  : 	if (pkInstMain->IsMountingHorse() && pkInstMain->IsNewMount() && (GetSkillGrade(109) < 1 && GetSkillLevel(109) < 11))

  00035	8b cf		 mov	 ecx, edi
  00037	e8 00 00 00 00	 call	 ?IsMountingHorse@CInstanceBase@@QAEHXZ ; CInstanceBase::IsMountingHorse
  0003c	85 c0		 test	 eax, eax
  0003e	74 2a		 je	 SHORT $LN1@CanAttack
  00040	8b cf		 mov	 ecx, edi
  00042	e8 00 00 00 00	 call	 ?IsNewMount@CInstanceBase@@QAEHXZ ; CInstanceBase::IsNewMount
  00047	85 c0		 test	 eax, eax
  00049	74 1f		 je	 SHORT $LN1@CanAttack
  0004b	6a 6d		 push	 109			; 0000006dH
  0004d	8b ce		 mov	 ecx, esi
  0004f	e8 00 00 00 00	 call	 ?GetSkillGrade@CPythonPlayer@@QAEHK@Z ; CPythonPlayer::GetSkillGrade
  00054	83 f8 01	 cmp	 eax, 1
  00057	7d 11		 jge	 SHORT $LN1@CanAttack
  00059	6a 6d		 push	 109			; 0000006dH
  0005b	e8 00 00 00 00	 call	 ?GetSkillLevel@CPythonPlayer@@QAEHK@Z ; CPythonPlayer::GetSkillLevel
  00060	83 f8 0b	 cmp	 eax, 11			; 0000000bH
  00063	7d 05		 jge	 SHORT $LN1@CanAttack
$LN11@CanAttack:
  00065	5f		 pop	 edi

; 760  : 	{
; 761  : 		return false;

  00066	32 c0		 xor	 al, al
  00068	5e		 pop	 esi

; 765  : }

  00069	c3		 ret	 0
$LN1@CanAttack:

; 762  : 	}
; 763  : 
; 764  : 	return pkInstMain->CanAttack();

  0006a	8b cf		 mov	 ecx, edi
  0006c	5f		 pop	 edi
  0006d	5e		 pop	 esi
  0006e	e9 00 00 00 00	 jmp	 ?CanAttack@CInstanceBase@@QAE_NXZ ; CInstanceBase::CanAttack
?__CanAttack@CPythonPlayer@@IAE_NXZ ENDP		; CPythonPlayer::__CanAttack
_TEXT	ENDS
; Function compile flags: /Ogtp
; File d:\metin2\metin2\client_source_clean\client_source_clean\source\userinterface\pythonplayerinput.cpp
;	COMDAT ?NEW_GetMultiKeyDirRotation@CPythonPlayer@@IAEX_N000PAM@Z
_TEXT	SEGMENT
_isLeft$ = 8						; size = 1
_isRight$ = 12						; size = 1
_isUp$ = 16						; size = 1
_isDown$ = 20						; size = 1
_pfDirRot$ = 24						; size = 4
?NEW_GetMultiKeyDirRotation@CPythonPlayer@@IAEX_N000PAM@Z PROC ; CPythonPlayer::NEW_GetMultiKeyDirRotation, COMDAT
; _this$dead$ = ecx

; 768  : {

  00000	55		 push	 ebp
  00001	8b ec		 mov	 ebp, esp

; 769  : 	float fScrX=0.0f;
; 770  : 	float fScrY=0.0f;
; 771  : 
; 772  : 	if (isLeft)

  00003	80 7d 08 00	 cmp	 BYTE PTR _isLeft$[ebp], 0
  00007	0f 57 d2	 xorps	 xmm2, xmm2
  0000a	f3 0f 10 05 00
	00 00 00	 movss	 xmm0, DWORD PTR __real@3f000000
  00012	f3 0f 10 1d 00
	00 00 00	 movss	 xmm3, DWORD PTR __real@3f800000
  0001a	74 05		 je	 SHORT $LN8@NEW_GetMul

; 773  : 		fScrX=0.0f;

  0001c	0f 28 ca	 movaps	 xmm1, xmm2
  0001f	eb 0e		 jmp	 SHORT $LN5@NEW_GetMul
$LN8@NEW_GetMul:

; 774  : 	else if (isRight)

  00021	80 7d 0c 00	 cmp	 BYTE PTR _isRight$[ebp], 0
  00025	74 05		 je	 SHORT $LN6@NEW_GetMul

; 775  : 		fScrX=1.0f;

  00027	0f 28 cb	 movaps	 xmm1, xmm3

; 776  : 	else

  0002a	eb 03		 jmp	 SHORT $LN5@NEW_GetMul
$LN6@NEW_GetMul:

; 777  : 		fScrX=0.5f;

  0002c	0f 28 c8	 movaps	 xmm1, xmm0
$LN5@NEW_GetMul:

; 778  : 
; 779  : 	if (isUp)

  0002f	80 7d 10 00	 cmp	 BYTE PTR _isUp$[ebp], 0
  00033	75 18		 jne	 SHORT $LN1@NEW_GetMul

; 780  : 		fScrY=0.0f;
; 781  : 	else if (isDown)

  00035	80 7d 14 00	 cmp	 BYTE PTR _isDown$[ebp], 0
  00039	74 0f		 je	 SHORT $LN2@NEW_GetMul

; 785  : 
; 786  : 	NEW_GetMouseDirRotation(fScrX, fScrY, pfDirRot);

  0003b	ff 75 18	 push	 DWORD PTR _pfDirRot$[ebp]
  0003e	0f 28 d3	 movaps	 xmm2, xmm3
  00041	e8 00 00 00 00	 call	 ?NEW_GetMouseDirRotation@CPythonPlayer@@IAEXMMPAM@Z ; CPythonPlayer::NEW_GetMouseDirRotation

; 787  : }

  00046	5d		 pop	 ebp
  00047	c2 14 00	 ret	 20			; 00000014H
$LN2@NEW_GetMul:

; 782  : 		fScrY=1.0f;
; 783  : 	else 
; 784  : 		fScrY=0.5f;

  0004a	0f 28 d0	 movaps	 xmm2, xmm0
$LN1@NEW_GetMul:

; 785  : 
; 786  : 	NEW_GetMouseDirRotation(fScrX, fScrY, pfDirRot);

  0004d	ff 75 18	 push	 DWORD PTR _pfDirRot$[ebp]
  00050	e8 00 00 00 00	 call	 ?NEW_GetMouseDirRotation@CPythonPlayer@@IAEXMMPAM@Z ; CPythonPlayer::NEW_GetMouseDirRotation

; 787  : }

  00055	5d		 pop	 ebp
  00056	c2 14 00	 ret	 20			; 00000014H
?NEW_GetMultiKeyDirRotation@CPythonPlayer@@IAEX_N000PAM@Z ENDP ; CPythonPlayer::NEW_GetMultiKeyDirRotation
_TEXT	ENDS
; Function compile flags: /Ogtp
; File d:\metin2\metin2\client_source_clean\client_source_clean\source\userinterface\pythonplayerinput.cpp
; File d:\metin2\metin2\client_source_clean\client_source_clean\source\eterpythonlib\pythonwindowmanager.h
; File d:\metin2\metin2\client_source_clean\client_source_clean\source\userinterface\pythonplayerinput.cpp
; File d:\metin2\metin2\client_source_clean\client_source_clean\source\eterpythonlib\pythonwindowmanager.h
; File d:\metin2\metin2\client_source_clean\client_source_clean\source\userinterface\pythonplayerinput.cpp
;	COMDAT ?NEW_GetMouseDirRotation@CPythonPlayer@@IAEXMMPAM@Z
_TEXT	SEGMENT
_pfDirRot$ = 8						; size = 4
?NEW_GetMouseDirRotation@CPythonPlayer@@IAEXMMPAM@Z PROC ; CPythonPlayer::NEW_GetMouseDirRotation, COMDAT
; _this$dead$ = ecx
; _fScrX$ = xmm1s
; _fScrY$ = xmm2s

; 790  : {

  00000	55		 push	 ebp
  00001	8b ec		 mov	 ebp, esp
; File d:\metin2\metin2\client_source_clean\client_source_clean\source\eterpythonlib\pythonwindowmanager.h

; 31   : 			long		GetScreenWidth()		{ return m_lWidth; }

  00003	a1 00 00 00 00	 mov	 eax, DWORD PTR ?ms_singleton@?$CSingleton@VCWindowManager@UI@@@@0PAVCWindowManager@UI@@A ; CSingleton<UI::CWindowManager>::ms_singleton
; File d:\metin2\metin2\client_source_clean\client_source_clean\source\userinterface\pythonplayerinput.cpp

; 790  : {

  00008	56		 push	 esi
; File d:\metin2\metin2\client_source_clean\client_source_clean\source\eterpythonlib\pythonwindowmanager.h

; 31   : 			long		GetScreenWidth()		{ return m_lWidth; }

  00009	8b 70 04	 mov	 esi, DWORD PTR [eax+4]

; 32   : 			long		GetScreenHeight()		{ return m_lHeight; }

  0000c	8b 48 08	 mov	 ecx, DWORD PTR [eax+8]
; File d:\metin2\metin2\client_source_clean\client_source_clean\source\userinterface\pythonplayerinput.cpp

; 798  : 	int nScrCenterY=nScrHeight/2;

  0000f	8b c1		 mov	 eax, ecx
  00011	99		 cdq
  00012	2b c2		 sub	 eax, edx
  00014	d1 f8		 sar	 eax, 1

; 799  : 
; 800  : 	float finputRotation = GetDegreeFromPosition(nScrPosX, nScrPosY, nScrCenterX, nScrCenterY);

  00016	50		 push	 eax
  00017	66 0f 6e c1	 movd	 xmm0, ecx
  0001b	8b c6		 mov	 eax, esi
  0001d	0f 5b c0	 cvtdq2ps xmm0, xmm0
  00020	99		 cdq
  00021	2b c2		 sub	 eax, edx
  00023	d1 f8		 sar	 eax, 1
  00025	50		 push	 eax
  00026	f3 0f 59 c2	 mulss	 xmm0, xmm2
  0002a	f3 0f 2c c0	 cvttss2si eax, xmm0
  0002e	66 0f 6e c6	 movd	 xmm0, esi
  00032	0f 5b c0	 cvtdq2ps xmm0, xmm0
  00035	50		 push	 eax
  00036	f3 0f 59 c1	 mulss	 xmm0, xmm1
  0003a	f3 0f 2c c0	 cvttss2si eax, xmm0
  0003e	50		 push	 eax
  0003f	e8 00 00 00 00	 call	 ?GetDegreeFromPosition@CPythonPlayer@@IAEMHHHH@Z ; CPythonPlayer::GetDegreeFromPosition

; 801  : 	*pfDirRot=finputRotation;

  00044	8b 45 08	 mov	 eax, DWORD PTR _pfDirRot$[ebp]

; 802  : }

  00047	5e		 pop	 esi
  00048	f3 0f 11 00	 movss	 DWORD PTR [eax], xmm0
  0004c	5d		 pop	 ebp
  0004d	c2 04 00	 ret	 4
?NEW_GetMouseDirRotation@CPythonPlayer@@IAEXMMPAM@Z ENDP ; CPythonPlayer::NEW_GetMouseDirRotation
_TEXT	ENDS
; Function compile flags: /Ogtp
; File d:\metin2\metin2\client_source_clean\client_source_clean\source\userinterface\pythonplayerinput.cpp
; File d:\metin2\metin2\client_source_clean\client_source_clean\extern\include\d3dx8math.inl
; File d:\metin2\metin2\client_source_clean\client_source_clean\source\userinterface\pythonplayerinput.cpp
; File d:\metin2\metin2\client_source_clean\client_source_clean\extern\include\d3dx8math.inl
; File d:\metin2\metin2\client_source_clean\client_source_clean\source\userinterface\pythonplayerinput.cpp
; File d:\metin2\metin2\client_source_clean\client_source_clean\extern\include\d3dx8math.inl
; File d:\metin2\metin2\client_source_clean\client_source_clean\source\userinterface\pythonplayerinput.cpp
; File d:\metin2\metin2\client_source_clean\client_source_clean\extern\include\d3dx8math.inl
; File c:\program files (x86)\microsoft visual studio 12.0\vc\include\math.h
; File d:\metin2\metin2\client_source_clean\client_source_clean\source\userinterface\pythonplayerinput.cpp
;	COMDAT ?GetDegreeFromPosition@CPythonPlayer@@IAEMHHHH@Z
_TEXT	SEGMENT
_vtDir$ = -16						; size = 12
__$ArrayPad$ = -4					; size = 4
_ix$ = 8						; size = 4
_iy$ = 12						; size = 4
_iHalfWidth$ = 16					; size = 4
_iHalfHeight$ = 20					; size = 4
?GetDegreeFromPosition@CPythonPlayer@@IAEMHHHH@Z PROC	; CPythonPlayer::GetDegreeFromPosition, COMDAT
; _this$dead$ = ecx

; 806  : {

  00000	55		 push	 ebp
  00001	8b ec		 mov	 ebp, esp
  00003	83 e4 f8	 and	 esp, -8			; fffffff8H
  00006	83 ec 10	 sub	 esp, 16			; 00000010H
  00009	a1 00 00 00 00	 mov	 eax, DWORD PTR ___security_cookie
  0000e	33 c4		 xor	 eax, esp
  00010	89 44 24 0c	 mov	 DWORD PTR __$ArrayPad$[esp+16], eax

; 807  : 	D3DXVECTOR3 vtDir(float(ix - iHalfWidth), float(iy - iHalfHeight), 0.0f);

  00014	8b 45 08	 mov	 eax, DWORD PTR _ix$[ebp]
  00017	2b 45 10	 sub	 eax, DWORD PTR _iHalfWidth$[ebp]
; File d:\metin2\metin2\client_source_clean\client_source_clean\extern\include\d3dx8math.inl

; 182  :     z = fz;

  0001a	c7 44 24 08 00
	00 00 00	 mov	 DWORD PTR _vtDir$[esp+24], 0
  00022	66 0f 6e c0	 movd	 xmm0, eax
; File d:\metin2\metin2\client_source_clean\client_source_clean\source\userinterface\pythonplayerinput.cpp

; 807  : 	D3DXVECTOR3 vtDir(float(ix - iHalfWidth), float(iy - iHalfHeight), 0.0f);

  00026	8b 45 0c	 mov	 eax, DWORD PTR _iy$[ebp]
  00029	2b 45 14	 sub	 eax, DWORD PTR _iHalfHeight$[ebp]
  0002c	0f 5b c0	 cvtdq2ps xmm0, xmm0
; File d:\metin2\metin2\client_source_clean\client_source_clean\extern\include\d3dx8math.inl

; 180  :     x = fx;

  0002f	f3 0f 11 04 24	 movss	 DWORD PTR _vtDir$[esp+16], xmm0
  00034	66 0f 6e c0	 movd	 xmm0, eax
; File d:\metin2\metin2\client_source_clean\client_source_clean\source\userinterface\pythonplayerinput.cpp

; 808  : 	D3DXVec3Normalize(&vtDir, &vtDir);

  00038	8d 04 24	 lea	 eax, DWORD PTR _vtDir$[esp+16]
  0003b	0f 5b c0	 cvtdq2ps xmm0, xmm0
  0003e	50		 push	 eax
  0003f	50		 push	 eax
; File d:\metin2\metin2\client_source_clean\client_source_clean\extern\include\d3dx8math.inl

; 181  :     y = fy;

  00040	f3 0f 11 44 24
	0c		 movss	 DWORD PTR _vtDir$[esp+28], xmm0
; File d:\metin2\metin2\client_source_clean\client_source_clean\source\userinterface\pythonplayerinput.cpp

; 808  : 	D3DXVec3Normalize(&vtDir, &vtDir);

  00046	e8 00 00 00 00	 call	 _D3DXVec3Normalize@8
; File d:\metin2\metin2\client_source_clean\client_source_clean\extern\include\d3dx8math.inl

; 1264 :     return pV1->x * pV2->x + pV1->y * pV2->y + pV1->z * pV2->z;

  0004b	f3 0f 10 0c 24	 movss	 xmm1, DWORD PTR _vtDir$[esp+16]
  00050	0f 57 d2	 xorps	 xmm2, xmm2
  00053	f3 0f 10 44 24
	04		 movss	 xmm0, DWORD PTR _vtDir$[esp+20]
  00059	f3 0f 59 05 00
	00 00 00	 mulss	 xmm0, DWORD PTR __real@3f800000
  00061	f3 0f 59 ca	 mulss	 xmm1, xmm2
  00065	f3 0f 5c c8	 subss	 xmm1, xmm0
  00069	f3 0f 10 44 24
	08		 movss	 xmm0, DWORD PTR _vtDir$[esp+24]
  0006f	f3 0f 59 c2	 mulss	 xmm0, xmm2
  00073	f3 0f 58 c8	 addss	 xmm1, xmm0
; File c:\program files (x86)\microsoft visual studio 12.0\vc\include\math.h

; 639  :     return (float)acos(_X);

  00077	0f 5a c1	 cvtps2pd xmm0, xmm1
  0007a	e8 00 00 00 00	 call	 __libm_sse2_acos_precise
  0007f	0f 57 d2	 xorps	 xmm2, xmm2
  00082	f2 0f 5a d0	 cvtsd2ss xmm2, xmm0
  00086	0f 57 c0	 xorps	 xmm0, xmm0
; File d:\metin2\metin2\client_source_clean\client_source_clean\source\userinterface\pythonplayerinput.cpp

; 813  : 	if (vtDir.x < 0.0f)

  00089	0f 2f 04 24	 comiss	 xmm0, DWORD PTR _vtDir$[esp+16]
  0008d	f3 0f 59 15 00
	00 00 00	 mulss	 xmm2, DWORD PTR __real@42652ee0
  00095	f3 0f 10 05 00
	00 00 00	 movss	 xmm0, DWORD PTR __real@43b40000
  0009d	76 0a		 jbe	 SHORT $LN1@GetDegreeF

; 814  : 		ret = 360.0f - ret;

  0009f	0f 28 c8	 movaps	 xmm1, xmm0
  000a2	f3 0f 5c ca	 subss	 xmm1, xmm2
  000a6	0f 28 d1	 movaps	 xmm2, xmm1
$LN1@GetDegreeF:

; 815  : 
; 816  : 	return 360.0f - ret;
; 817  : }

  000a9	8b 4c 24 0c	 mov	 ecx, DWORD PTR __$ArrayPad$[esp+16]
  000ad	f3 0f 5c c2	 subss	 xmm0, xmm2
  000b1	33 cc		 xor	 ecx, esp
  000b3	e8 00 00 00 00	 call	 @__security_check_cookie@4
  000b8	8b e5		 mov	 esp, ebp
  000ba	5d		 pop	 ebp
  000bb	c2 10 00	 ret	 16			; 00000010H
?GetDegreeFromPosition@CPythonPlayer@@IAEMHHHH@Z ENDP	; CPythonPlayer::GetDegreeFromPosition
_TEXT	ENDS
; Function compile flags: /Ogtp
; File d:\metin2\metin2\client_source_clean\client_source_clean\source\userinterface\pythonplayerinput.cpp
;	COMDAT ?__ReserveClickItem@CPythonPlayer@@IAEXK@Z
_TEXT	SEGMENT
_dwItemID$ = 8						; size = 4
?__ReserveClickItem@CPythonPlayer@@IAEXK@Z PROC		; CPythonPlayer::__ReserveClickItem, COMDAT
; _this$ = ecx

; 825  : {

  00000	55		 push	 ebp
  00001	8b ec		 mov	 ebp, esp

; 826  : 	m_eReservedMode=MODE_CLICK_ITEM;
; 827  : 	m_dwIIDReserved=dwItemID;

  00003	8b 45 08	 mov	 eax, DWORD PTR _dwItemID$[ebp]
  00006	c7 41 54 02 00
	00 00		 mov	 DWORD PTR [ecx+84], 2
  0000d	89 81 70 09 01
	00		 mov	 DWORD PTR [ecx+67952], eax

; 828  : }

  00013	5d		 pop	 ebp
  00014	c2 04 00	 ret	 4
?__ReserveClickItem@CPythonPlayer@@IAEXK@Z ENDP		; CPythonPlayer::__ReserveClickItem
_TEXT	ENDS
; Function compile flags: /Ogtp
; File d:\metin2\metin2\client_source_clean\client_source_clean\source\userinterface\pythonplayerinput.cpp
;	COMDAT ?__ReserveClickGround@CPythonPlayer@@IAEXABUD3DXVECTOR3@@@Z
_TEXT	SEGMENT
_c_rkPPosPickedGround$ = 8				; size = 4
?__ReserveClickGround@CPythonPlayer@@IAEXABUD3DXVECTOR3@@@Z PROC ; CPythonPlayer::__ReserveClickGround, COMDAT
; _this$ = ecx

; 837  : {

  00000	55		 push	 ebp
  00001	8b ec		 mov	 ebp, esp

; 838  : 	m_eReservedMode=MODE_CLICK_POSITION;
; 839  : 	m_kPPosReserved=c_rkPPosPickedGround;

  00003	8b 45 08	 mov	 eax, DWORD PTR _c_rkPPosPickedGround$[ebp]
  00006	c7 41 54 01 00
	00 00		 mov	 DWORD PTR [ecx+84], 1
  0000d	f3 0f 7e 00	 movq	 xmm0, QWORD PTR [eax]
  00011	66 0f d6 81 8c
	09 01 00	 movq	 QWORD PTR [ecx+67980], xmm0
  00019	8b 40 08	 mov	 eax, DWORD PTR [eax+8]
  0001c	89 81 94 09 01
	00		 mov	 DWORD PTR [ecx+67988], eax

; 840  : 	m_fReservedDelayTime=0.1f;

  00022	c7 41 58 cd cc
	cc 3d		 mov	 DWORD PTR [ecx+88], 1036831949 ; 3dcccccdH

; 841  : }

  00029	5d		 pop	 ebp
  0002a	c2 04 00	 ret	 4
?__ReserveClickGround@CPythonPlayer@@IAEXABUD3DXVECTOR3@@@Z ENDP ; CPythonPlayer::__ReserveClickGround
_TEXT	ENDS
; Function compile flags: /Ogtp
; File d:\metin2\metin2\client_source_clean\client_source_clean\source\userinterface\pythonplayerinput.cpp
;	COMDAT ?__IsReservedUseSkill@CPythonPlayer@@IAE_NK@Z
_TEXT	SEGMENT
_dwSkillSlotIndex$ = 8					; size = 4
?__IsReservedUseSkill@CPythonPlayer@@IAE_NK@Z PROC	; CPythonPlayer::__IsReservedUseSkill, COMDAT
; _this$ = ecx

; 844  : {

  00000	55		 push	 ebp
  00001	8b ec		 mov	 ebp, esp

; 845  : 	if (MODE_USE_SKILL!=m_eReservedMode)

  00003	83 79 54 04	 cmp	 DWORD PTR [ecx+84], 4
  00007	74 06		 je	 SHORT $LN2@IsReserved

; 846  : 		return false;

  00009	32 c0		 xor	 al, al

; 849  : 		return false;
; 850  : 	
; 851  : 	return true;
; 852  : }

  0000b	5d		 pop	 ebp
  0000c	c2 04 00	 ret	 4
$LN2@IsReserved:

; 847  : 
; 848  : 	if (m_dwSkillSlotIndexReserved!=dwSkillSlotIndex)

  0000f	8b 81 78 09 01
	00		 mov	 eax, DWORD PTR [ecx+67960]
  00015	3b 45 08	 cmp	 eax, DWORD PTR _dwSkillSlotIndex$[ebp]
  00018	0f 94 c0	 sete	 al

; 849  : 		return false;
; 850  : 	
; 851  : 	return true;
; 852  : }

  0001b	5d		 pop	 ebp
  0001c	c2 04 00	 ret	 4
?__IsReservedUseSkill@CPythonPlayer@@IAE_NK@Z ENDP	; CPythonPlayer::__IsReservedUseSkill
_TEXT	ENDS
; Function compile flags: /Ogtp
; File d:\metin2\metin2\client_source_clean\client_source_clean\source\userinterface\pythonplayerinput.cpp
;	COMDAT ?__ReserveUseSkill@CPythonPlayer@@IAEXKKK@Z
_TEXT	SEGMENT
_dwActorID$ = 8						; size = 4
_dwSkillSlotIndex$ = 12					; size = 4
_dwRange$ = 16						; size = 4
?__ReserveUseSkill@CPythonPlayer@@IAEXKKK@Z PROC	; CPythonPlayer::__ReserveUseSkill, COMDAT
; _this$ = ecx

; 855  : {

  00000	55		 push	 ebp
  00001	8b ec		 mov	 ebp, esp

; 856  : 	m_eReservedMode=MODE_USE_SKILL;
; 857  : 	m_dwVIDReserved=dwActorID;

  00003	8b 45 08	 mov	 eax, DWORD PTR _dwActorID$[ebp]
  00006	89 81 6c 09 01
	00		 mov	 DWORD PTR [ecx+67948], eax

; 858  : 	m_dwSkillSlotIndexReserved=dwSkillSlotIndex;

  0000c	8b 45 0c	 mov	 eax, DWORD PTR _dwSkillSlotIndex$[ebp]
  0000f	89 81 78 09 01
	00		 mov	 DWORD PTR [ecx+67960], eax

; 859  : 	m_dwSkillRangeReserved=dwRange;

  00015	8b 45 10	 mov	 eax, DWORD PTR _dwRange$[ebp]
  00018	c7 41 54 04 00
	00 00		 mov	 DWORD PTR [ecx+84], 4
  0001f	89 81 7c 09 01
	00		 mov	 DWORD PTR [ecx+67964], eax

; 860  : 
; 861  : 	// NOTE : 아슬아슬하게 거리가 꼬이는 문제가 있어서 약간 느슨하게..
; 862  : 	if (m_dwSkillRangeReserved > 100)

  00025	83 f8 64	 cmp	 eax, 100		; 00000064H
  00028	76 09		 jbe	 SHORT $LN1@ReserveUse

; 863  : 		m_dwSkillRangeReserved -= 10;

  0002a	83 c0 f6	 add	 eax, -10		; fffffff6H
  0002d	89 81 7c 09 01
	00		 mov	 DWORD PTR [ecx+67964], eax
$LN1@ReserveUse:

; 864  : }

  00033	5d		 pop	 ebp
  00034	c2 0c 00	 ret	 12			; 0000000cH
?__ReserveUseSkill@CPythonPlayer@@IAEXKKK@Z ENDP	; CPythonPlayer::__ReserveUseSkill
_TEXT	ENDS
; Function compile flags: /Ogtp
; File d:\metin2\metin2\client_source_clean\client_source_clean\source\userinterface\pythonplayerinput.cpp
;	COMDAT ?__SetAutoAttackTargetActorID@CPythonPlayer@@IAEXK@Z
_TEXT	SEGMENT
_dwVID$ = 8						; size = 4
?__SetAutoAttackTargetActorID@CPythonPlayer@@IAEXK@Z PROC ; CPythonPlayer::__SetAutoAttackTargetActorID, COMDAT
; _this$ = ecx

; 872  : {

  00000	55		 push	 ebp
  00001	8b ec		 mov	 ebp, esp

; 873  :  	m_dwAutoAttackTargetVID = dwVID;

  00003	8b 45 08	 mov	 eax, DWORD PTR _dwVID$[ebp]
  00006	89 41 50	 mov	 DWORD PTR [ecx+80], eax

; 874  : }

  00009	5d		 pop	 ebp
  0000a	c2 04 00	 ret	 4
?__SetAutoAttackTargetActorID@CPythonPlayer@@IAEXK@Z ENDP ; CPythonPlayer::__SetAutoAttackTargetActorID
_TEXT	ENDS
; Function compile flags: /Ogtp
; File d:\metin2\metin2\client_source_clean\client_source_clean\source\userinterface\pythonplayerinput.cpp
;	COMDAT ?__ReserveProcess_ClickActor@CPythonPlayer@@IAEXXZ
_TEXT	SEGMENT
_pkInstReserved$1$ = -4					; size = 4
?__ReserveProcess_ClickActor@CPythonPlayer@@IAEXXZ PROC	; CPythonPlayer::__ReserveProcess_ClickActor, COMDAT
; _this$ = ecx

; 878  : {

  00000	55		 push	 ebp
  00001	8b ec		 mov	 ebp, esp
  00003	51		 push	 ecx
  00004	53		 push	 ebx
  00005	56		 push	 esi
  00006	57		 push	 edi
  00007	8b f9		 mov	 edi, ecx

; 879  : 	CInstanceBase* pkInstMain = NEW_GetMainActorPtr();

  00009	8b 47 04	 mov	 eax, DWORD PTR [edi+4]
  0000c	8d 4f 04	 lea	 ecx, DWORD PTR [edi+4]
  0000f	ff 90 88 00 00
	00		 call	 DWORD PTR [eax+136]

; 880  : 	CInstanceBase* pkInstReserved = NEW_FindActorPtr(m_dwVIDReserved);

  00015	ff b7 6c 09 01
	00		 push	 DWORD PTR [edi+67948]
  0001b	8b d8		 mov	 ebx, eax
  0001d	e8 00 00 00 00	 call	 ?NEW_FindActorPtr@CPythonPlayer@@QAEPAVCInstanceBase@@K@Z ; CPythonPlayer::NEW_FindActorPtr
  00022	8b f0		 mov	 esi, eax
  00024	89 75 fc	 mov	 DWORD PTR _pkInstReserved$1$[ebp], esi

; 881  : 	if (!pkInstMain || !pkInstReserved)

  00027	85 db		 test	 ebx, ebx
  00029	0f 84 6f 01 00
	00		 je	 $LN10@ReservePro
  0002f	85 f6		 test	 esi, esi
  00031	0f 84 67 01 00
	00		 je	 $LN10@ReservePro

; 884  : 		return;
; 885  : 	}
; 886  : 
; 887  : 	if (!pkInstMain->NEW_IsClickableDistanceDestInstance(*pkInstReserved))

  00037	56		 push	 esi
  00038	8b cb		 mov	 ecx, ebx
  0003a	e8 00 00 00 00	 call	 ?NEW_IsClickableDistanceDestInstance@CInstanceBase@@QAEHAAV1@@Z ; CInstanceBase::NEW_IsClickableDistanceDestInstance

; 888  : 	{
; 889  : 		pkInstMain->NEW_MoveToDestInstanceDirection(*pkInstReserved);

  0003f	8b cb		 mov	 ecx, ebx
  00041	56		 push	 esi
  00042	85 c0		 test	 eax, eax
  00044	75 0c		 jne	 SHORT $LN9@ReservePro
  00046	e8 00 00 00 00	 call	 ?NEW_MoveToDestInstanceDirection@CInstanceBase@@QAEXAAV1@@Z ; CInstanceBase::NEW_MoveToDestInstanceDirection

; 948  : 	__ClearReservedAction();
; 949  : }

  0004b	5f		 pop	 edi
  0004c	5e		 pop	 esi
  0004d	5b		 pop	 ebx
  0004e	8b e5		 mov	 esp, ebp
  00050	5d		 pop	 ebp
  00051	c3		 ret	 0
$LN9@ReservePro:

; 890  : 		return;
; 891  : 	}
; 892  : 
; 893  : 	if (!pkInstMain->IsAttackableInstance(*pkInstReserved))

  00052	e8 00 00 00 00	 call	 ?IsAttackableInstance@CInstanceBase@@QAE_NAAV1@@Z ; CInstanceBase::IsAttackableInstance
  00057	84 c0		 test	 al, al
  00059	75 1d		 jne	 SHORT $LN8@ReservePro

; 894  : 	{
; 895  : 		pkInstMain->NEW_Stop();

  0005b	8b cb		 mov	 ecx, ebx
  0005d	e8 00 00 00 00	 call	 ?NEW_Stop@CInstanceBase@@QAEXXZ ; CInstanceBase::NEW_Stop

; 896  : 		__SendClickActorPacket(*pkInstReserved);

  00062	56		 push	 esi
  00063	8b cf		 mov	 ecx, edi
  00065	e8 00 00 00 00	 call	 ?__SendClickActorPacket@CPythonPlayer@@IAEXAAVCInstanceBase@@@Z ; CPythonPlayer::__SendClickActorPacket
  0006a	8b cf		 mov	 ecx, edi
  0006c	e8 00 00 00 00	 call	 ?__ClearReservedAction@CPythonPlayer@@IAEXXZ ; CPythonPlayer::__ClearReservedAction

; 948  : 	__ClearReservedAction();
; 949  : }

  00071	5f		 pop	 edi
  00072	5e		 pop	 esi
  00073	5b		 pop	 ebx
  00074	8b e5		 mov	 esp, ebp
  00076	5d		 pop	 ebp
  00077	c3		 ret	 0
$LN8@ReservePro:

; 897  : 		__ClearReservedAction();
; 898  : 		return;
; 899  : 	}
; 900  : 
; 901  : 	if (pkInstReserved->IsDead())

  00078	8b ce		 mov	 ecx, esi
  0007a	e8 00 00 00 00	 call	 ?IsDead@CInstanceBase@@QAEHXZ ; CInstanceBase::IsDead
  0007f	85 c0		 test	 eax, eax
  00081	0f 85 17 01 00
	00		 jne	 $LN10@ReservePro

; 902  : 	{
; 903  : 		__ClearReservedAction();
; 904  : 		return;
; 905  : 	}
; 906  : 
; 907  : 	if (pkInstMain->IsInSafe())

  00087	8b cb		 mov	 ecx, ebx
  00089	e8 00 00 00 00	 call	 ?IsInSafe@CInstanceBase@@QAEHXZ ; CInstanceBase::IsInSafe
  0008e	85 c0		 test	 eax, eax
  00090	74 43		 je	 SHORT $LN6@ReservePro

; 908  : 	{
; 909  : 		PyCallClassMemberFunc(m_ppyGameWindow, "OnCannotAttack", Py_BuildValue("(is)", GetMainCharacterIndex(), "IN_SAFE"));

  00092	8b 47 04	 mov	 eax, DWORD PTR [edi+4]
  00095	8d 4f 04	 lea	 ecx, DWORD PTR [edi+4]
  00098	68 00 00 00 00	 push	 OFFSET ??_C@_07OAOBINCH@IN_SAFE?$AA@
  0009d	ff 50 04	 call	 DWORD PTR [eax+4]
  000a0	50		 push	 eax
  000a1	68 00 00 00 00	 push	 OFFSET ??_C@_04JMLDJNEM@?$CIis?$CJ?$AA@
  000a6	ff 15 00 00 00
	00		 call	 DWORD PTR __imp__Py_BuildValue
  000ac	83 c4 0c	 add	 esp, 12			; 0000000cH
  000af	50		 push	 eax
  000b0	68 00 00 00 00	 push	 OFFSET ??_C@_0P@BFHKDLNH@OnCannotAttack?$AA@
$LN14@ReservePro:
  000b5	ff 77 08	 push	 DWORD PTR [edi+8]
  000b8	e8 00 00 00 00	 call	 ?PyCallClassMemberFunc@@YA_NPAU_object@@PBD0@Z ; PyCallClassMemberFunc
  000bd	83 c4 0c	 add	 esp, 12			; 0000000cH

; 910  : 		pkInstMain->NEW_Stop();

  000c0	8b cb		 mov	 ecx, ebx
  000c2	e8 00 00 00 00	 call	 ?NEW_Stop@CInstanceBase@@QAEXXZ ; CInstanceBase::NEW_Stop
  000c7	8b cf		 mov	 ecx, edi
  000c9	e8 00 00 00 00	 call	 ?__ClearReservedAction@CPythonPlayer@@IAEXXZ ; CPythonPlayer::__ClearReservedAction

; 948  : 	__ClearReservedAction();
; 949  : }

  000ce	5f		 pop	 edi
  000cf	5e		 pop	 esi
  000d0	5b		 pop	 ebx
  000d1	8b e5		 mov	 esp, ebp
  000d3	5d		 pop	 ebp
  000d4	c3		 ret	 0
$LN6@ReservePro:

; 911  : 		__ClearReservedAction();
; 912  : 		return;
; 913  : 	}
; 914  : 
; 915  : 	if (pkInstReserved->IsInSafe())

  000d5	8b ce		 mov	 ecx, esi
  000d7	e8 00 00 00 00	 call	 ?IsInSafe@CInstanceBase@@QAEHXZ ; CInstanceBase::IsInSafe
  000dc	85 c0		 test	 eax, eax
  000de	74 43		 je	 SHORT $LN5@ReservePro

; 916  : 	{
; 917  : 		PyCallClassMemberFunc(m_ppyGameWindow, "OnCannotAttack", Py_BuildValue("(is)", GetMainCharacterIndex(), "DEST_IN_SAFE"));

  000e0	8b 47 04	 mov	 eax, DWORD PTR [edi+4]
  000e3	8d 4f 04	 lea	 ecx, DWORD PTR [edi+4]
  000e6	68 00 00 00 00	 push	 OFFSET ??_C@_0N@KDALDMKB@DEST_IN_SAFE?$AA@
  000eb	ff 50 04	 call	 DWORD PTR [eax+4]
  000ee	50		 push	 eax
  000ef	68 00 00 00 00	 push	 OFFSET ??_C@_04JMLDJNEM@?$CIis?$CJ?$AA@
  000f4	ff 15 00 00 00
	00		 call	 DWORD PTR __imp__Py_BuildValue
  000fa	83 c4 0c	 add	 esp, 12			; 0000000cH
  000fd	50		 push	 eax
  000fe	68 00 00 00 00	 push	 OFFSET ??_C@_0P@BFHKDLNH@OnCannotAttack?$AA@
  00103	ff 77 08	 push	 DWORD PTR [edi+8]
  00106	e8 00 00 00 00	 call	 ?PyCallClassMemberFunc@@YA_NPAU_object@@PBD0@Z ; PyCallClassMemberFunc
  0010b	83 c4 0c	 add	 esp, 12			; 0000000cH

; 918  : 		pkInstMain->NEW_Stop();

  0010e	8b cb		 mov	 ecx, ebx
  00110	e8 00 00 00 00	 call	 ?NEW_Stop@CInstanceBase@@QAEXXZ ; CInstanceBase::NEW_Stop
  00115	8b cf		 mov	 ecx, edi
  00117	e8 00 00 00 00	 call	 ?__ClearReservedAction@CPythonPlayer@@IAEXXZ ; CPythonPlayer::__ClearReservedAction

; 948  : 	__ClearReservedAction();
; 949  : }

  0011c	5f		 pop	 edi
  0011d	5e		 pop	 esi
  0011e	5b		 pop	 ebx
  0011f	8b e5		 mov	 esp, ebp
  00121	5d		 pop	 ebp
  00122	c3		 ret	 0
$LN5@ReservePro:

; 919  : 		__ClearReservedAction();
; 920  : 		return;
; 921  : 	}
; 922  : 
; 923  : 	// 탄환격 쓰고 달려가는 도중에는 공격하지 않는다.
; 924  : 	if (__CheckDashAffect(*pkInstMain))

  00123	53		 push	 ebx
  00124	e8 00 00 00 00	 call	 ?__CheckDashAffect@CPythonPlayer@@IAE_NAAVCInstanceBase@@@Z ; CPythonPlayer::__CheckDashAffect
  00129	84 c0		 test	 al, al
  0012b	75 78		 jne	 SHORT $LN12@ReservePro

; 925  : 	{
; 926  : 		return;
; 927  : 	}
; 928  : 
; 929  : 	/////
; 930  : 
; 931  : 	if (pkInstMain->IsBowMode())

  0012d	8b cb		 mov	 ecx, ebx
  0012f	e8 00 00 00 00	 call	 ?IsBowMode@CInstanceBase@@QAEHXZ ; CInstanceBase::IsBowMode
  00134	85 c0		 test	 eax, eax
  00136	74 33		 je	 SHORT $LN2@ReservePro

; 932  : 	{
; 933  : 		if (!__HasEnoughArrow())

  00138	8b cf		 mov	 ecx, edi
  0013a	e8 00 00 00 00	 call	 ?__HasEnoughArrow@CPythonPlayer@@IAE_NXZ ; CPythonPlayer::__HasEnoughArrow
  0013f	84 c0		 test	 al, al
  00141	75 28		 jne	 SHORT $LN2@ReservePro

; 934  : 		{
; 935  : 			PyCallClassMemberFunc(m_ppyGameWindow, "OnCannotShot", Py_BuildValue("(is)", GetMainCharacterIndex(), "EMPTY_ARROW"));

  00143	8b 47 04	 mov	 eax, DWORD PTR [edi+4]
  00146	8d 4f 04	 lea	 ecx, DWORD PTR [edi+4]
  00149	68 00 00 00 00	 push	 OFFSET ??_C@_0M@FBIHMJDM@EMPTY_ARROW?$AA@
  0014e	ff 50 04	 call	 DWORD PTR [eax+4]
  00151	50		 push	 eax
  00152	68 00 00 00 00	 push	 OFFSET ??_C@_04JMLDJNEM@?$CIis?$CJ?$AA@
  00157	ff 15 00 00 00
	00		 call	 DWORD PTR __imp__Py_BuildValue
  0015d	83 c4 0c	 add	 esp, 12			; 0000000cH
  00160	50		 push	 eax
  00161	68 00 00 00 00	 push	 OFFSET ??_C@_0N@OPOOJDCJ@OnCannotShot?$AA@

; 936  : 			pkInstMain->NEW_Stop();
; 937  : 			__ClearReservedAction();
; 938  : 			return;

  00166	e9 4a ff ff ff	 jmp	 $LN14@ReservePro
$LN2@ReservePro:

; 939  : 		}
; 940  : 	}
; 941  : 
; 942  : 	if (pkInstReserved->GetVirtualID() != GetTargetVID())

  0016b	8b ce		 mov	 ecx, esi
  0016d	e8 00 00 00 00	 call	 ?GetVirtualID@CInstanceBase@@QAEKXZ ; CInstanceBase::GetVirtualID
  00172	8b cf		 mov	 ecx, edi
  00174	8b d0		 mov	 edx, eax
  00176	e8 00 00 00 00	 call	 ?GetTargetVID@CPythonPlayer@@QAEKXZ ; CPythonPlayer::GetTargetVID
  0017b	3b d0		 cmp	 edx, eax
  0017d	74 17		 je	 SHORT $LN1@ReservePro

; 943  : 	{
; 944  : 		SetTarget(pkInstReserved->GetVirtualID());

  0017f	8b 4d fc	 mov	 ecx, DWORD PTR _pkInstReserved$1$[ebp]
  00182	8b 77 04	 mov	 esi, DWORD PTR [edi+4]
  00185	6a 01		 push	 1
  00187	e8 00 00 00 00	 call	 ?GetVirtualID@CInstanceBase@@QAEKXZ ; CInstanceBase::GetVirtualID
  0018c	50		 push	 eax
  0018d	8d 4f 04	 lea	 ecx, DWORD PTR [edi+4]
  00190	ff 56 60	 call	 DWORD PTR [esi+96]
  00193	8b 75 fc	 mov	 esi, DWORD PTR _pkInstReserved$1$[ebp]
$LN1@ReservePro:

; 945  : 	}
; 946  : 
; 947  : 	pkInstMain->NEW_AttackToDestInstanceDirection(*pkInstReserved);

  00196	56		 push	 esi
  00197	8b cb		 mov	 ecx, ebx
  00199	e8 00 00 00 00	 call	 ?NEW_AttackToDestInstanceDirection@CInstanceBase@@QAE_NAAV1@@Z ; CInstanceBase::NEW_AttackToDestInstanceDirection
$LN10@ReservePro:

; 882  : 	{
; 883  : 		__ClearReservedAction();

  0019e	8b cf		 mov	 ecx, edi
  001a0	e8 00 00 00 00	 call	 ?__ClearReservedAction@CPythonPlayer@@IAEXXZ ; CPythonPlayer::__ClearReservedAction
$LN12@ReservePro:

; 948  : 	__ClearReservedAction();
; 949  : }

  001a5	5f		 pop	 edi
  001a6	5e		 pop	 esi
  001a7	5b		 pop	 ebx
  001a8	8b e5		 mov	 esp, ebp
  001aa	5d		 pop	 ebp
  001ab	c3		 ret	 0
?__ReserveProcess_ClickActor@CPythonPlayer@@IAEXXZ ENDP	; CPythonPlayer::__ReserveProcess_ClickActor
_TEXT	ENDS
; Function compile flags: /Ogtp
; File d:\metin2\metin2\client_source_clean\client_source_clean\source\eterpythonlib\pythonwindowmanager.h
;	COMDAT ?GetScreenHeight@CWindowManager@UI@@QAEJXZ
_TEXT	SEGMENT
?GetScreenHeight@CWindowManager@UI@@QAEJXZ PROC		; UI::CWindowManager::GetScreenHeight, COMDAT
; _this$ = ecx

; 32   : 			long		GetScreenHeight()		{ return m_lHeight; }

  00000	8b 41 08	 mov	 eax, DWORD PTR [ecx+8]
  00003	c3		 ret	 0
?GetScreenHeight@CWindowManager@UI@@QAEJXZ ENDP		; UI::CWindowManager::GetScreenHeight
_TEXT	ENDS
; Function compile flags: /Ogtp
; File d:\metin2\metin2\client_source_clean\client_source_clean\source\eterpythonlib\pythonwindowmanager.h
;	COMDAT ?GetScreenWidth@CWindowManager@UI@@QAEJXZ
_TEXT	SEGMENT
?GetScreenWidth@CWindowManager@UI@@QAEJXZ PROC		; UI::CWindowManager::GetScreenWidth, COMDAT
; _this$ = ecx

; 31   : 			long		GetScreenWidth()		{ return m_lWidth; }

  00000	8b 41 04	 mov	 eax, DWORD PTR [ecx+4]
  00003	c3		 ret	 0
?GetScreenWidth@CWindowManager@UI@@QAEJXZ ENDP		; UI::CWindowManager::GetScreenWidth
_TEXT	ENDS
END
