; Listing generated by Microsoft (R) Optimizing Compiler Version 18.00.40629.0 

	TITLE	D:\Metin2\Metin2\client_source_clean\client_source_clean\source\UserInterface\PythonPlayerSkill.cpp
	.686P
	.XMM
	include listing.inc
	.model	flat

INCLUDELIB OLDNAMES

PUBLIC	??_C@_0N@OADAMGHE@ClearAffects?$AA@		; `string'
PUBLIC	??_C@_0BD@IOEPNDLO@ChangeCurrentSkill?$AA@	; `string'
PUBLIC	??_C@_0M@HBOAHMLO@ResetAffect?$AA@		; `string'
PUBLIC	??_C@_0N@DJBFACMO@HAVE_TO_RIDE?$AA@		; `string'
PUBLIC	??_C@_0BA@MEPOIIPE@NOT_HORSE_SKILL?$AA@		; `string'
PUBLIC	??_C@_0BD@HPCMPHGF@NEED_POISON_BOTTLE?$AA@	; `string'
PUBLIC	??_C@_0BC@DDKDAKLO@NEED_EMPTY_BOTTLE?$AA@	; `string'
PUBLIC	??_C@_0O@PFLGBNMN@NOT_YET_LEARN?$AA@		; `string'
PUBLIC	??_C@_0BD@LIIMHBCN@REMOVE_FISHING_ROD?$AA@	; `string'
PUBLIC	??_C@_0O@CCJDKKCC@WAIT_COOLTIME?$AA@		; `string'
PUBLIC	??_C@_0BF@KPLOMIJE@NOT_MATCHABLE_WEAPON?$AA@	; `string'
PUBLIC	??_C@_0O@DIMCNBHD@NOT_ENOUGH_SP?$AA@		; `string'
PUBLIC	??_C@_0O@CILBJNOC@NOT_ENOUGH_HP?$AA@		; `string'
PUBLIC	??_C@_0BA@CFBPJACC@CANNOT_APPROACH?$AA@		; `string'
PUBLIC	??_C@_0DF@OHCKPFBO@?$CB?$CB?$CB?5Find?5strange?5game?5data?4?5Plea@ ; `string'
PUBLIC	??_C@_0EB@JKMJGFLB@CPythonPlayer?3?3__UseSkill?$CIdwSlot@ ; `string'
PUBLIC	??_C@_0EP@OENNGPFB@CPythonPlayer?3?3__UseSkill?$CIdwSlot@ ; `string'
PUBLIC	??_C@_0BA@GMGJKDGM@CANNOT_USE_SELF?$AA@		; `string'
PUBLIC	??_C@_0EC@MMFCNDJC@CPythonPlayer?3?3__UseSkill?$CIdwSlot@ ; `string'
PUBLIC	??_C@_0BC@CKDFNGK@ONLY_FOR_ALLIANCE?$AA@	; `string'
PUBLIC	??_C@_0FC@NMOECDOK@?5?$FLALERT?$FN?5?$LF?$LP?$LH?a?$LP?$KB?$LA?T?5?$LL?g?$LP?k?G?O?$LE?B?5?$LB?b?$LM?z?$MA@ ; `string'
PUBLIC	??_C@_0O@BIOLCACO@CANNOT_ATTACK?$AA@		; `string'
PUBLIC	??_C@_0CB@HEDIGIHC@CANNOT_ATTACK_ENEMY_IN_SAFE_AREA@ ; `string'
PUBLIC	??_C@_0BA@FPMNLALM@ONLY_FOR_CORPSE?$AA@		; `string'
PUBLIC	??_C@_0DA@NPBLPNPC@?5?$FLALERT?$FN?5?E?$LI?$LA?Y?$MA?L?5?$LO?x?$LO?n?$LM?$KN?5?G?C?$LH?$LJ?$MA?L?$LO?n?$LP@ ; `string'
PUBLIC	??_C@_0EB@LKBFGOEE@CPythonPlayer?3?3__UseSkill?$CI?$CFd?$CJ?5?9?5@ ; `string'
PUBLIC	??_C@_0DN@DLLIDDMA@CPythonPlayer?3?3__UseSkill?$CI?$CFd?$CJ?5?9?5@ ; `string'
PUBLIC	??_C@_04IGFOPMNH@?$CIif?$CJ?$AA@		; `string'
PUBLIC	??_C@_0DP@EKGIGFIO@CPythonPlayer?3?3__SendUseSkill?$CIdw@ ; `string'
PUBLIC	??_C@_0FH@CAACOELN@CPythonPlayer?3?3UseGuildSkill?$CIdwS@ ; `string'
PUBLIC	??_C@_0BB@GJACMMFG@RunUseSkillEvent?$AA@	; `string'
PUBLIC	??_C@_0EE@GICPADML@CPythonPlayer?3?3UseGuildSkill?$CI?$CFd?$CJ@ ; `string'
PUBLIC	??_C@_0BD@OHHCPGPG@ONLY_FOR_GUILD_WAR?$AA@	; `string'
PUBLIC	??_C@_0FM@DHHFNKGI@CPythonPlayer?3?3SetComboSkillFlag@ ; `string'
PUBLIC	??_C@_0EI@OMJBNOHB@CPythonPlayer?3?3SetComboSkillFlag@ ; `string'
PUBLIC	??_C@_0BC@ENEHNNJB@EQUIP_FISHING_ROD?$AA@	; `string'
;	COMDAT ??_C@_0BC@ENEHNNJB@EQUIP_FISHING_ROD?$AA@
CONST	SEGMENT
??_C@_0BC@ENEHNNJB@EQUIP_FISHING_ROD?$AA@ DB 'EQUIP_FISHING_ROD', 00H ; `string'
CONST	ENDS
;	COMDAT ??_C@_0EI@OMJBNOHB@CPythonPlayer?3?3SetComboSkillFlag@
CONST	SEGMENT
??_C@_0EI@OMJBNOHB@CPythonPlayer?3?3SetComboSkillFlag@ DB 'CPythonPlayer:'
	DB	':SetComboSkillFlag(killIndex=%d) - Can''t Find Slot Index', 0aH
	DB	00H						; `string'
CONST	ENDS
;	COMDAT ??_C@_0FM@DHHFNKGI@CPythonPlayer?3?3SetComboSkillFlag@
CONST	SEGMENT
??_C@_0FM@DHHFNKGI@CPythonPlayer?3?3SetComboSkillFlag@ DB 'CPythonPlayer:'
	DB	':SetComboSkillFlag(skillIndex=%d, skillLevel=%d) - Invalid Co'
	DB	'mbo Skill Level', 0aH, 00H			; `string'
CONST	ENDS
;	COMDAT ??_C@_0BD@OHHCPGPG@ONLY_FOR_GUILD_WAR?$AA@
CONST	SEGMENT
??_C@_0BD@OHHCPGPG@ONLY_FOR_GUILD_WAR?$AA@ DB 'ONLY_FOR_GUILD_WAR', 00H ; `string'
CONST	ENDS
;	COMDAT ??_C@_0EE@GICPADML@CPythonPlayer?3?3UseGuildSkill?$CI?$CFd?$CJ@
CONST	SEGMENT
??_C@_0EE@GICPADML@CPythonPlayer?3?3UseGuildSkill?$CI?$CFd?$CJ@ DB 'CPyth'
	DB	'onPlayer::UseGuildSkill(%d) - pkInstMain->NEW_UseSkill - ERRO'
	DB	'R', 00H					; `string'
CONST	ENDS
;	COMDAT ??_C@_0BB@GJACMMFG@RunUseSkillEvent?$AA@
CONST	SEGMENT
??_C@_0BB@GJACMMFG@RunUseSkillEvent?$AA@ DB 'RunUseSkillEvent', 00H ; `string'
CONST	ENDS
;	COMDAT ??_C@_0FH@CAACOELN@CPythonPlayer?3?3UseGuildSkill?$CIdwS@
CONST	SEGMENT
??_C@_0FH@CAACOELN@CPythonPlayer?3?3UseGuildSkill?$CIdwS@ DB 'CPythonPlay'
	DB	'er::UseGuildSkill(dwSkillSlotIndex=%d) It''s not available sk'
	DB	'ill slot number', 00H			; `string'
CONST	ENDS
;	COMDAT ??_C@_0DP@EKGIGFIO@CPythonPlayer?3?3__SendUseSkill?$CIdw@
CONST	SEGMENT
??_C@_0DP@EKGIGFIO@CPythonPlayer?3?3__SendUseSkill?$CIdw@ DB 'CPythonPlay'
	DB	'er::__SendUseSkill(dwSkillSlotIndex=%d) - NOT CHECK', 00H ; `string'
CONST	ENDS
;	COMDAT ??_C@_04IGFOPMNH@?$CIif?$CJ?$AA@
CONST	SEGMENT
??_C@_04IGFOPMNH@?$CIif?$CJ?$AA@ DB '(if)', 00H		; `string'
CONST	ENDS
;	COMDAT ??_C@_0DN@DLLIDDMA@CPythonPlayer?3?3__UseSkill?$CI?$CFd?$CJ?5?9?5@
CONST	SEGMENT
??_C@_0DN@DLLIDDMA@CPythonPlayer?3?3__UseSkill?$CI?$CFd?$CJ?5?9?5@ DB 'CP'
	DB	'ythonPlayer::__UseSkill(%d) - ', 0c8H, 0adH, 0b8H, 0e9H, ' ', 0b1H
	DB	0e2H, 0c1H, 0d8H, ' ', 0b9H, 0e6H, 0c7H, 0e2H, ' ', 0bcH, 0b3H
	DB	0c1H, 0a4H, 0c0H, 0bbH, ' ', 0c7H, 0d8H, 0beH, 0dfH, 0c7H, 0d4H
	DB	00H						; `string'
CONST	ENDS
;	COMDAT ??_C@_0EB@LKBFGOEE@CPythonPlayer?3?3__UseSkill?$CI?$CFd?$CJ?5?9?5@
CONST	SEGMENT
??_C@_0EB@LKBFGOEE@CPythonPlayer?3?3__UseSkill?$CI?$CFd?$CJ?5?9?5@ DB 'CP'
	DB	'ythonPlayer::__UseSkill(%d) - pkInstMain->NEW_UseSkill - ERRO'
	DB	'R', 00H					; `string'
CONST	ENDS
;	COMDAT ??_C@_0DA@NPBLPNPC@?5?$FLALERT?$FN?5?E?$LI?$LA?Y?$MA?L?5?$LO?x?$LO?n?$LM?$KN?5?G?C?$LH?$LJ?$MA?L?$LO?n?$LP@
CONST	SEGMENT
??_C@_0DA@NPBLPNPC@?5?$FLALERT?$FN?5?E?$LI?$LA?Y?$MA?L?5?$LO?x?$LO?n?$LM?$KN?5?G?C?$LH?$LJ?$MA?L?$LO?n?$LP@ DB ' '
	DB	'[ALERT] ', 0c5H, 0b8H, 0b0H, 0d9H, 0c0H, 0ccH, ' ', 0beH, 0f8H
	DB	0beH, 0eeH, 0bcH, 0adH, ' ', 0c7H, 0c3H, 0b7H, 0b9H, 0c0H, 0ccH
	DB	0beH, 0eeH, 0bfH, 0a1H, 0b0H, 0d4H, ' ', 0bbH, 0e7H, 0bfH, 0ebH
	DB	0c7H, 0d5H, 0b4H, 0cfH, 0b4H, 0d9H, 0aH, 00H	; `string'
CONST	ENDS
;	COMDAT ??_C@_0BA@FPMNLALM@ONLY_FOR_CORPSE?$AA@
CONST	SEGMENT
??_C@_0BA@FPMNLALM@ONLY_FOR_CORPSE?$AA@ DB 'ONLY_FOR_CORPSE', 00H ; `string'
CONST	ENDS
;	COMDAT ??_C@_0CB@HEDIGIHC@CANNOT_ATTACK_ENEMY_IN_SAFE_AREA@
CONST	SEGMENT
??_C@_0CB@HEDIGIHC@CANNOT_ATTACK_ENEMY_IN_SAFE_AREA@ DB 'CANNOT_ATTACK_EN'
	DB	'EMY_IN_SAFE_AREA', 00H			; `string'
CONST	ENDS
;	COMDAT ??_C@_0O@BIOLCACO@CANNOT_ATTACK?$AA@
CONST	SEGMENT
??_C@_0O@BIOLCACO@CANNOT_ATTACK?$AA@ DB 'CANNOT_ATTACK', 00H ; `string'
CONST	ENDS
;	COMDAT ??_C@_0FC@NMOECDOK@?5?$FLALERT?$FN?5?$LF?$LP?$LH?a?$LP?$KB?$LA?T?5?$LL?g?$LP?k?G?O?$LE?B?5?$LB?b?$LM?z?$MA@
CONST	SEGMENT
??_C@_0FC@NMOECDOK@?5?$FLALERT?$FN?5?$LF?$LP?$LH?a?$LP?$KB?$LA?T?5?$LL?g?$LP?k?G?O?$LE?B?5?$LB?b?$LM?z?$MA@ DB ' '
	DB	'[ALERT] ', 0b5H, 0bfH, 0b7H, 0e1H, 0bfH, 0a1H, 0b0H, 0d4H, ' '
	DB	0bbH, 0e7H, 0bfH, 0ebH, 0c7H, 0cfH, 0b4H, 0c2H, ' ', 0b1H, 0e2H
	DB	0bcH, 0faH, 0c0H, 0d3H, 0bfH, 0a1H, 0b5H, 0b5H, ' ', 0c0H, 0fbH
	DB	0bfH, 0a1H, 0b0H, 0d4H, ' ', 0c5H, 0b8H, 0b0H, 0d9H, 0c6H, 0c3H
	DB	' ', 0b5H, 0c7H, 0beH, 0eeH, 0c0H, 0d6H, 0beH, 0eeH, 0bcH, 0adH
	DB	' ', 0c0H, 0daH, 0bdH, 0c5H, 0bfH, 0a1H, 0b0H, 0d4H, 0b7H, 0ceH
	DB	' ', 0c0H, 0e7H, 0bcH, 0b3H, 0c1H, 0a4H, 0aH, 00H ; `string'
CONST	ENDS
;	COMDAT ??_C@_0BC@CKDFNGK@ONLY_FOR_ALLIANCE?$AA@
CONST	SEGMENT
??_C@_0BC@CKDFNGK@ONLY_FOR_ALLIANCE?$AA@ DB 'ONLY_FOR_ALLIANCE', 00H ; `string'
CONST	ENDS
;	COMDAT ??_C@_0EC@MMFCNDJC@CPythonPlayer?3?3__UseSkill?$CIdwSlot@
CONST	SEGMENT
??_C@_0EC@MMFCNDJC@CPythonPlayer?3?3__UseSkill?$CIdwSlot@ DB 'CPythonPlay'
	DB	'er::__UseSkill(dwSlotIndex=%d) There is no main player', 00H ; `string'
CONST	ENDS
;	COMDAT ??_C@_0BA@GMGJKDGM@CANNOT_USE_SELF?$AA@
CONST	SEGMENT
??_C@_0BA@GMGJKDGM@CANNOT_USE_SELF?$AA@ DB 'CANNOT_USE_SELF', 00H ; `string'
CONST	ENDS
;	COMDAT ??_C@_0EP@OENNGPFB@CPythonPlayer?3?3__UseSkill?$CIdwSlot@
CONST	SEGMENT
??_C@_0EP@OENNGPFB@CPythonPlayer?3?3__UseSkill?$CIdwSlot@ DB 'CPythonPlay'
	DB	'er::__UseSkill(dwSlotIndex=%d) It''s not available skill slot'
	DB	' number', 00H				; `string'
CONST	ENDS
;	COMDAT ??_C@_0EB@JKMJGFLB@CPythonPlayer?3?3__UseSkill?$CIdwSlot@
CONST	SEGMENT
??_C@_0EB@JKMJGFLB@CPythonPlayer?3?3__UseSkill?$CIdwSlot@ DB 'CPythonPlay'
	DB	'er::__UseSkill(dwSlotIndex=%d) There is no skill data', 00H ; `string'
CONST	ENDS
;	COMDAT ??_C@_0DF@OHCKPFBO@?$CB?$CB?$CB?5Find?5strange?5game?5data?4?5Plea@
CONST	SEGMENT
??_C@_0DF@OHCKPFBO@?$CB?$CB?$CB?5Find?5strange?5game?5data?4?5Plea@ DB '!'
	DB	'!! Find strange game data. Please reinstall metin2.', 00H ; `string'
CONST	ENDS
;	COMDAT ??_C@_0BA@CFBPJACC@CANNOT_APPROACH?$AA@
CONST	SEGMENT
??_C@_0BA@CFBPJACC@CANNOT_APPROACH?$AA@ DB 'CANNOT_APPROACH', 00H ; `string'
CONST	ENDS
;	COMDAT ??_C@_0O@CILBJNOC@NOT_ENOUGH_HP?$AA@
CONST	SEGMENT
??_C@_0O@CILBJNOC@NOT_ENOUGH_HP?$AA@ DB 'NOT_ENOUGH_HP', 00H ; `string'
CONST	ENDS
;	COMDAT ??_C@_0O@DIMCNBHD@NOT_ENOUGH_SP?$AA@
CONST	SEGMENT
??_C@_0O@DIMCNBHD@NOT_ENOUGH_SP?$AA@ DB 'NOT_ENOUGH_SP', 00H ; `string'
CONST	ENDS
;	COMDAT ??_C@_0BF@KPLOMIJE@NOT_MATCHABLE_WEAPON?$AA@
CONST	SEGMENT
??_C@_0BF@KPLOMIJE@NOT_MATCHABLE_WEAPON?$AA@ DB 'NOT_MATCHABLE_WEAPON', 00H ; `string'
CONST	ENDS
;	COMDAT ??_C@_0O@CCJDKKCC@WAIT_COOLTIME?$AA@
CONST	SEGMENT
??_C@_0O@CCJDKKCC@WAIT_COOLTIME?$AA@ DB 'WAIT_COOLTIME', 00H ; `string'
CONST	ENDS
;	COMDAT ??_C@_0BD@LIIMHBCN@REMOVE_FISHING_ROD?$AA@
CONST	SEGMENT
??_C@_0BD@LIIMHBCN@REMOVE_FISHING_ROD?$AA@ DB 'REMOVE_FISHING_ROD', 00H ; `string'
CONST	ENDS
;	COMDAT ??_C@_0O@PFLGBNMN@NOT_YET_LEARN?$AA@
CONST	SEGMENT
??_C@_0O@PFLGBNMN@NOT_YET_LEARN?$AA@ DB 'NOT_YET_LEARN', 00H ; `string'
CONST	ENDS
;	COMDAT ??_C@_0BC@DDKDAKLO@NEED_EMPTY_BOTTLE?$AA@
CONST	SEGMENT
??_C@_0BC@DDKDAKLO@NEED_EMPTY_BOTTLE?$AA@ DB 'NEED_EMPTY_BOTTLE', 00H ; `string'
CONST	ENDS
;	COMDAT ??_C@_0BD@HPCMPHGF@NEED_POISON_BOTTLE?$AA@
CONST	SEGMENT
??_C@_0BD@HPCMPHGF@NEED_POISON_BOTTLE?$AA@ DB 'NEED_POISON_BOTTLE', 00H ; `string'
CONST	ENDS
;	COMDAT ??_C@_0BA@MEPOIIPE@NOT_HORSE_SKILL?$AA@
CONST	SEGMENT
??_C@_0BA@MEPOIIPE@NOT_HORSE_SKILL?$AA@ DB 'NOT_HORSE_SKILL', 00H ; `string'
CONST	ENDS
;	COMDAT ??_C@_0N@DJBFACMO@HAVE_TO_RIDE?$AA@
CONST	SEGMENT
??_C@_0N@DJBFACMO@HAVE_TO_RIDE?$AA@ DB 'HAVE_TO_RIDE', 00H ; `string'
CONST	ENDS
;	COMDAT ??_C@_0M@HBOAHMLO@ResetAffect?$AA@
CONST	SEGMENT
??_C@_0M@HBOAHMLO@ResetAffect?$AA@ DB 'ResetAffect', 00H ; `string'
CONST	ENDS
;	COMDAT ??_C@_0BD@IOEPNDLO@ChangeCurrentSkill?$AA@
CONST	SEGMENT
??_C@_0BD@IOEPNDLO@ChangeCurrentSkill?$AA@ DB 'ChangeCurrentSkill', 00H ; `string'
CONST	ENDS
;	COMDAT ??_C@_0N@OADAMGHE@ClearAffects?$AA@
CONST	SEGMENT
??_C@_0N@OADAMGHE@ClearAffects?$AA@ DB 'ClearAffects', 00H ; `string'
PUBLIC	?Instance@?$CSingleton@VIBackground@@@@SAAAVIBackground@@XZ ; CSingleton<IBackground>::Instance
PUBLIC	?__CheckSpecialSkill@CPythonPlayer@@IAE_NK@Z	; CPythonPlayer::__CheckSpecialSkill
PUBLIC	?__HasItem@CPythonPlayer@@IAE_NK@Z		; CPythonPlayer::__HasItem
PUBLIC	?__RunCoolTime@CPythonPlayer@@IAEXK@Z		; CPythonPlayer::__RunCoolTime
PUBLIC	?__SendUseSkill@CPythonPlayer@@IAEXKK@Z		; CPythonPlayer::__SendUseSkill
PUBLIC	?__CanUseSkill@CPythonPlayer@@IAE_NXZ		; CPythonPlayer::__CanUseSkill
PUBLIC	?__ProcessEnemySkillTargetRange@CPythonPlayer@@IAE_NAAVCInstanceBase@@0AAUSSkillData@CPythonSkill@@K@Z ; CPythonPlayer::__ProcessEnemySkillTargetRange
PUBLIC	?__GetSkillTargetRange@CPythonPlayer@@IAEKAAUSSkillData@CPythonSkill@@@Z ; CPythonPlayer::__GetSkillTargetRange
PUBLIC	?__CheckShortLife@CPythonPlayer@@IAE_NAAUSSkillInstance@1@AAUSSkillData@CPythonSkill@@@Z ; CPythonPlayer::__CheckShortLife
PUBLIC	?__CheckShortMana@CPythonPlayer@@IAE_NAAUSSkillInstance@1@AAUSSkillData@CPythonSkill@@@Z ; CPythonPlayer::__CheckShortMana
PUBLIC	?__CheckShortArrow@CPythonPlayer@@IAE_NAAUSSkillInstance@1@AAUSSkillData@CPythonSkill@@@Z ; CPythonPlayer::__CheckShortArrow
PUBLIC	?__CheckSkillUsable@CPythonPlayer@@IAE_NK@Z	; CPythonPlayer::__CheckSkillUsable
PUBLIC	?FindSkillSlotIndexBySkillIndex@CPythonPlayer@@QAE_NKPAK@Z ; CPythonPlayer::FindSkillSlotIndexBySkillIndex
PUBLIC	?UseGuildSkill@CPythonPlayer@@QAEXK@Z		; CPythonPlayer::UseGuildSkill
PUBLIC	?ChangeCurrentSkillNumberOnly@CPythonPlayer@@QAEXK@Z ; CPythonPlayer::ChangeCurrentSkillNumberOnly
PUBLIC	?__UseCurrentSkill@CPythonPlayer@@IAEXXZ	; CPythonPlayer::__UseCurrentSkill
PUBLIC	?__UseSkill@CPythonPlayer@@IAE_NK@Z		; CPythonPlayer::__UseSkill
PUBLIC	?__HasEnoughArrow@CPythonPlayer@@IAE_NXZ	; CPythonPlayer::__HasEnoughArrow
PUBLIC	?ClearAffects@CPythonPlayer@@QAEXXZ		; CPythonPlayer::ClearAffects
PUBLIC	?SetAffect@CPythonPlayer@@QAEXI@Z		; CPythonPlayer::SetAffect
PUBLIC	?ResetAffect@CPythonPlayer@@QAEXI@Z		; CPythonPlayer::ResetAffect
PUBLIC	?__CheckDashAffect@CPythonPlayer@@IAE_NAAVCInstanceBase@@@Z ; CPythonPlayer::__CheckDashAffect
PUBLIC	?ClickSkillSlot@CPythonPlayer@@QAEXK@Z		; CPythonPlayer::ClickSkillSlot
PUBLIC	?__CheckRestSkillCoolTime@CPythonPlayer@@IAE_NK@Z ; CPythonPlayer::__CheckRestSkillCoolTime
PUBLIC	?__GetSkillType@CPythonPlayer@@IAEEK@Z		; CPythonPlayer::__GetSkillType
PUBLIC	?SetComboSkillFlag@CPythonPlayer@@UAEXH@Z	; CPythonPlayer::SetComboSkillFlag
;	COMDAT xdata$x
xdata$x	SEGMENT
__ehfuncinfo$?__UseSkill@CPythonPlayer@@IAE_NK@Z DD 019930522H
	DD	01H
	DD	FLAT:__unwindtable$?__UseSkill@CPythonPlayer@@IAE_NK@Z
	DD	2 DUP(00H)
	DD	2 DUP(00H)
	DD	00H
	DD	01H
__unwindtable$?__UseSkill@CPythonPlayer@@IAE_NK@Z DD 0ffffffffH
	DD	FLAT:__unwindfunclet$?__UseSkill@CPythonPlayer@@IAE_NK@Z$0
; Function compile flags: /Ogtp
; File d:\metin2\metin2\client_source_clean\client_source_clean\source\userinterface\pythonplayerskill.cpp
;	COMDAT ?SetComboSkillFlag@CPythonPlayer@@UAEXH@Z
_TEXT	SEGMENT
_iLevel$2$ = -4						; size = 4
_dwSlotIndex$ = -4					; size = 4
_bFlag$ = 8						; size = 4
?SetComboSkillFlag@CPythonPlayer@@UAEXH@Z PROC		; CPythonPlayer::SetComboSkillFlag, COMDAT
; _this$ = ecx

; 917  : {

  00000	55		 push	 ebp
  00001	8b ec		 mov	 ebp, esp
  00003	51		 push	 ecx
  00004	53		 push	 ebx
  00005	56		 push	 esi
  00006	8b d9		 mov	 ebx, ecx

; 918  : 	DWORD dwSlotIndex;
; 919  : 	if (!GetSkillSlotIndex(c_iSkillIndex_Combo, &dwSlotIndex))

  00008	8d 45 fc	 lea	 eax, DWORD PTR _dwSlotIndex$[ebp]
  0000b	50		 push	 eax
  0000c	6a 7a		 push	 122			; 0000007aH
  0000e	8d 4b fc	 lea	 ecx, DWORD PTR [ebx-4]
  00011	e8 00 00 00 00	 call	 ?GetSkillSlotIndex@CPythonPlayer@@QAE_NKPAK@Z ; CPythonPlayer::GetSkillSlotIndex
  00016	84 c0		 test	 al, al
  00018	75 17		 jne	 SHORT $LN5@SetComboSk

; 920  : 	{
; 921  : 		Tracef("CPythonPlayer::SetComboSkillFlag(killIndex=%d) - Can't Find Slot Index\n", c_iSkillIndex_Combo);

  0001a	6a 7a		 push	 122			; 0000007aH
  0001c	68 00 00 00 00	 push	 OFFSET ??_C@_0EI@OMJBNOHB@CPythonPlayer?3?3SetComboSkillFlag@
  00021	e8 00 00 00 00	 call	 ?Tracef@@YAXPBDZZ	; Tracef
  00026	83 c4 08	 add	 esp, 8
  00029	5e		 pop	 esi
  0002a	5b		 pop	 ebx

; 947  : 	}
; 948  : }

  0002b	8b e5		 mov	 esp, ebp
  0002d	5d		 pop	 ebp
  0002e	c2 04 00	 ret	 4
$LN5@SetComboSk:
  00031	57		 push	 edi

; 922  : 		return;
; 923  : 	}
; 924  : 
; 925  : 	int iLevel = GetSkillLevel(dwSlotIndex);

  00032	8b 7d fc	 mov	 edi, DWORD PTR _dwSlotIndex$[ebp]
  00035	8d 4b fc	 lea	 ecx, DWORD PTR [ebx-4]
  00038	57		 push	 edi
  00039	e8 00 00 00 00	 call	 ?GetSkillLevel@CPythonPlayer@@QAEHK@Z ; CPythonPlayer::GetSkillLevel

; 926  : 	if (iLevel <= 0)

  0003e	85 c0		 test	 eax, eax
  00040	7f 19		 jg	 SHORT $LN4@SetComboSk

; 927  : 	{
; 928  : 		Tracef("CPythonPlayer::SetComboSkillFlag(skillIndex=%d, skillLevel=%d) - Invalid Combo Skill Level\n", c_iSkillIndex_Combo, iLevel);

  00042	50		 push	 eax
  00043	6a 7a		 push	 122			; 0000007aH
  00045	68 00 00 00 00	 push	 OFFSET ??_C@_0FM@DHHFNKGI@CPythonPlayer?3?3SetComboSkillFlag@
  0004a	e8 00 00 00 00	 call	 ?Tracef@@YAXPBDZZ	; Tracef
  0004f	83 c4 0c	 add	 esp, 12			; 0000000cH
  00052	5f		 pop	 edi
  00053	5e		 pop	 esi
  00054	5b		 pop	 ebx

; 947  : 	}
; 948  : }

  00055	8b e5		 mov	 esp, ebp
  00057	5d		 pop	 ebp
  00058	c2 04 00	 ret	 4
$LN4@SetComboSk:

; 929  : 		return;
; 930  : 	}
; 931  : 
; 932  : 	iLevel = MIN(iLevel, 2);

  0005b	6a 02		 push	 2
  0005d	50		 push	 eax
  0005e	e8 00 00 00 00	 call	 ?MIN@@YAHHH@Z		; MIN

; 933  : 
; 934  : 	CInstanceBase* pkInstMain = NEW_GetMainActorPtr();

  00063	8b 13		 mov	 edx, DWORD PTR [ebx]
  00065	83 c4 08	 add	 esp, 8
  00068	8b cb		 mov	 ecx, ebx
  0006a	89 45 fc	 mov	 DWORD PTR _iLevel$2$[ebp], eax
  0006d	ff 92 88 00 00
	00		 call	 DWORD PTR [edx+136]

; 935  : 	if (!pkInstMain)

  00073	85 c0		 test	 eax, eax
  00075	74 32		 je	 SHORT $LN8@SetComboSk

; 936  : 		return;
; 937  : 
; 938  : 	if (bFlag)

  00077	83 7d 08 00	 cmp	 DWORD PTR _bFlag$[ebp], 0

; 939  : 	{
; 940  : 		pkInstMain->SetComboType(iLevel);

  0007b	8b c8		 mov	 ecx, eax
  0007d	74 1a		 je	 SHORT $LN2@SetComboSk
  0007f	ff 75 fc	 push	 DWORD PTR _iLevel$2$[ebp]
  00082	e8 00 00 00 00	 call	 ?SetComboType@CInstanceBase@@QAEXI@Z ; CInstanceBase::SetComboType

; 941  : 		__ActivateSkillSlot(dwSlotIndex);

  00087	57		 push	 edi
  00088	8d 4b fc	 lea	 ecx, DWORD PTR [ebx-4]
  0008b	e8 00 00 00 00	 call	 ?__ActivateSkillSlot@CPythonPlayer@@IAEXK@Z ; CPythonPlayer::__ActivateSkillSlot
  00090	5f		 pop	 edi
  00091	5e		 pop	 esi
  00092	5b		 pop	 ebx

; 947  : 	}
; 948  : }

  00093	8b e5		 mov	 esp, ebp
  00095	5d		 pop	 ebp
  00096	c2 04 00	 ret	 4
$LN2@SetComboSk:

; 942  : 	}
; 943  : 	else
; 944  : 	{
; 945  : 		pkInstMain->SetComboType(0);

  00099	6a 00		 push	 0
  0009b	e8 00 00 00 00	 call	 ?SetComboType@CInstanceBase@@QAEXI@Z ; CInstanceBase::SetComboType

; 946  : 		__DeactivateSkillSlot(dwSlotIndex);

  000a0	57		 push	 edi
  000a1	8d 4b fc	 lea	 ecx, DWORD PTR [ebx-4]
  000a4	e8 00 00 00 00	 call	 ?__DeactivateSkillSlot@CPythonPlayer@@IAEXK@Z ; CPythonPlayer::__DeactivateSkillSlot
$LN8@SetComboSk:
  000a9	5f		 pop	 edi
  000aa	5e		 pop	 esi
  000ab	5b		 pop	 ebx

; 947  : 	}
; 948  : }

  000ac	8b e5		 mov	 esp, ebp
  000ae	5d		 pop	 ebp
  000af	c2 04 00	 ret	 4
?SetComboSkillFlag@CPythonPlayer@@UAEXH@Z ENDP		; CPythonPlayer::SetComboSkillFlag
_TEXT	ENDS
; Function compile flags: /Ogtp
; File d:\metin2\metin2\client_source_clean\client_source_clean\source\userinterface\pythonplayerskill.cpp
;	COMDAT ?__GetSkillType@CPythonPlayer@@IAEEK@Z
_TEXT	SEGMENT
_pkSkillData$ = -4					; size = 4
_dwSkillSlotIndex$ = 8					; size = 4
?__GetSkillType@CPythonPlayer@@IAEEK@Z PROC		; CPythonPlayer::__GetSkillType, COMDAT
; _this$ = ecx

; 783  : {

  00000	55		 push	 ebp
  00001	8b ec		 mov	 ebp, esp
  00003	51		 push	 ecx

; 784  : 	TSkillInstance & rkSkillInst = m_playerStatus.aSkill[dwSkillSlotIndex];
; 785  : 
; 786  : 	CPythonSkill::TSkillData * pkSkillData;
; 787  : 	CPythonSkill& rkPythonSkill = CPythonSkill::Instance();
; 788  : 	if (!rkPythonSkill.GetSkillData(rkSkillInst.dwIndex, &pkSkillData))

  00004	8d 45 fc	 lea	 eax, DWORD PTR _pkSkillData$[ebp]
  00007	50		 push	 eax
  00008	8b 45 08	 mov	 eax, DWORD PTR _dwSkillSlotIndex$[ebp]
  0000b	8d 04 80	 lea	 eax, DWORD PTR [eax+eax*4]
  0000e	ff b4 c1 90 dd
	00 00		 push	 DWORD PTR [ecx+eax*8+56720]
  00015	8b 0d 00 00 00
	00		 mov	 ecx, DWORD PTR ?ms_singleton@?$CSingleton@VCPythonSkill@@@@0PAVCPythonSkill@@A ; CSingleton<CPythonSkill>::ms_singleton
  0001b	e8 00 00 00 00	 call	 ?GetSkillData@CPythonSkill@@QAEHKPAPAUSSkillData@1@@Z ; CPythonSkill::GetSkillData
  00020	85 c0		 test	 eax, eax
  00022	75 08		 jne	 SHORT $LN1@GetSkillTy

; 789  : 	{
; 790  : 		//TraceError("CPythonPlayer::__GetSkillType(dwSkillSlotIndex=%d) - NOT CHECK", dwSkillSlotIndex);
; 791  : 		return 0;

  00024	32 c0		 xor	 al, al

; 794  : }

  00026	8b e5		 mov	 esp, ebp
  00028	5d		 pop	 ebp
  00029	c2 04 00	 ret	 4
$LN1@GetSkillTy:

; 792  : 	}
; 793  : 	return pkSkillData->GetType();

  0002c	8b 4d fc	 mov	 ecx, DWORD PTR _pkSkillData$[ebp]
  0002f	e8 00 00 00 00	 call	 ?GetType@SSkillData@CPythonSkill@@QBEEXZ ; CPythonSkill::SSkillData::GetType

; 794  : }

  00034	8b e5		 mov	 esp, ebp
  00036	5d		 pop	 ebp
  00037	c2 04 00	 ret	 4
?__GetSkillType@CPythonPlayer@@IAEEK@Z ENDP		; CPythonPlayer::__GetSkillType
_TEXT	ENDS
; Function compile flags: /Ogtp
; File d:\metin2\metin2\client_source_clean\client_source_clean\source\userinterface\pythonplayerskill.cpp
;	COMDAT ?__CheckRestSkillCoolTime@CPythonPlayer@@IAE_NK@Z
_TEXT	SEGMENT
_fElapsedTime$ = 8					; size = 4
_dwSlotIndex$ = 8					; size = 4
?__CheckRestSkillCoolTime@CPythonPlayer@@IAE_NK@Z PROC	; CPythonPlayer::__CheckRestSkillCoolTime, COMDAT
; _this$ = ecx

; 367  : {

  00000	55		 push	 ebp
  00001	8b ec		 mov	 ebp, esp
  00003	57		 push	 edi
  00004	8b f9		 mov	 edi, ecx

; 368  : 	if (!m_sysIsCoolTime)

  00006	83 bf e4 09 01
	00 00		 cmp	 DWORD PTR [edi+68068], 0
  0000d	75 07		 jne	 SHORT $LN3@CheckRestS
$LN8@CheckRestS:

; 369  : 		return false;

  0000f	32 c0		 xor	 al, al
  00011	5f		 pop	 edi

; 376  : 		return false;	
; 377  : 
; 378  : 	return true;
; 379  : }

  00012	5d		 pop	 ebp
  00013	c2 04 00	 ret	 4
$LN3@CheckRestS:

; 370  : 
; 371  : 	if (dwSlotIndex >= SKILL_MAX_NUM)

  00016	8b 45 08	 mov	 eax, DWORD PTR _dwSlotIndex$[ebp]
  00019	3d ff 00 00 00	 cmp	 eax, 255		; 000000ffH
  0001e	73 ef		 jae	 SHORT $LN8@CheckRestS

; 372  : 		return false;
; 373  : 
; 374  : 	float fElapsedTime = CTimer::Instance().GetCurrentSecond() - m_playerStatus.aSkill[dwSlotIndex].fLastUsedTime;

  00020	8b 0d 00 00 00
	00		 mov	 ecx, DWORD PTR ?ms_singleton@?$CSingleton@VCTimer@@@@0PAVCTimer@@A ; CSingleton<CTimer>::ms_singleton
  00026	56		 push	 esi
  00027	8d 34 80	 lea	 esi, DWORD PTR [eax+eax*4]
  0002a	e8 00 00 00 00	 call	 ?GetCurrentSecond@CTimer@@QAEMXZ ; CTimer::GetCurrentSecond
  0002f	d8 a4 f7 b0 dd
	00 00		 fsub	 DWORD PTR [edi+esi*8+56752]
  00036	d9 5d 08	 fstp	 DWORD PTR _fElapsedTime$[ebp]

; 375  : 	if (fElapsedTime >= m_playerStatus.aSkill[dwSlotIndex].fCoolTime)

  00039	f3 0f 10 45 08	 movss	 xmm0, DWORD PTR _fElapsedTime$[ebp]
  0003e	0f 2f 84 f7 ac
	dd 00 00	 comiss	 xmm0, DWORD PTR [edi+esi*8+56748]
  00046	5e		 pop	 esi
  00047	5f		 pop	 edi
  00048	0f 92 c0	 setb	 al

; 376  : 		return false;	
; 377  : 
; 378  : 	return true;
; 379  : }

  0004b	5d		 pop	 ebp
  0004c	c2 04 00	 ret	 4
?__CheckRestSkillCoolTime@CPythonPlayer@@IAE_NK@Z ENDP	; CPythonPlayer::__CheckRestSkillCoolTime
_TEXT	ENDS
; Function compile flags: /Ogtp
; File d:\metin2\metin2\client_source_clean\client_source_clean\source\userinterface\pythonplayerskill.cpp
;	COMDAT ?ClickSkillSlot@CPythonPlayer@@QAEXK@Z
_TEXT	SEGMENT
_pSkillData$ = 8					; size = 4
_dwSlotIndex$ = 8					; size = 4
?ClickSkillSlot@CPythonPlayer@@QAEXK@Z PROC		; CPythonPlayer::ClickSkillSlot, COMDAT
; _this$ = ecx

; 109  : {

  00000	55		 push	 ebp
  00001	8b ec		 mov	 ebp, esp
  00003	56		 push	 esi
  00004	57		 push	 edi

; 110  : 	if (dwSlotIndex >= SKILL_MAX_NUM)

  00005	8b 7d 08	 mov	 edi, DWORD PTR _dwSlotIndex$[ebp]
  00008	8b f1		 mov	 esi, ecx
  0000a	81 ff ff 00 00
	00		 cmp	 edi, 255		; 000000ffH
  00010	0f 83 ed 00 00
	00		 jae	 $LN1@ClickSkill

; 111  : 		return;
; 112  : 
; 113  : 	TSkillInstance & rkSkillInst = m_playerStatus.aSkill[dwSlotIndex];
; 114  : 
; 115  : 	CPythonSkill::TSkillData * pSkillData;
; 116  : 	if (!CPythonSkill::Instance().GetSkillData(rkSkillInst.dwIndex, &pSkillData))

  00016	8b 0d 00 00 00
	00		 mov	 ecx, DWORD PTR ?ms_singleton@?$CSingleton@VCPythonSkill@@@@0PAVCPythonSkill@@A ; CSingleton<CPythonSkill>::ms_singleton
  0001c	8d 87 8a 05 00
	00		 lea	 eax, DWORD PTR [edi+1418]
  00022	53		 push	 ebx
  00023	8d 04 80	 lea	 eax, DWORD PTR [eax+eax*4]
  00026	8d 1c c6	 lea	 ebx, DWORD PTR [esi+eax*8]
  00029	8d 45 08	 lea	 eax, DWORD PTR _pSkillData$[ebp]
  0002c	50		 push	 eax
  0002d	ff 33		 push	 DWORD PTR [ebx]
  0002f	e8 00 00 00 00	 call	 ?GetSkillData@CPythonSkill@@QAEHKPAPAUSSkillData@1@@Z ; CPythonSkill::GetSkillData
  00034	85 c0		 test	 eax, eax
  00036	0f 84 c6 00 00
	00		 je	 $LN19@ClickSkill

; 117  : 		return;
; 118  : 
; 119  : 	if (CPythonSkill::SKILL_TYPE_GUILD == pSkillData->byType)

  0003c	8b 4d 08	 mov	 ecx, DWORD PTR _pSkillData$[ebp]
  0003f	80 39 03	 cmp	 BYTE PTR [ecx], 3
  00042	75 0f		 jne	 SHORT $LN10@ClickSkill

; 120  : 	{
; 121  : 		UseGuildSkill(dwSlotIndex);

  00044	57		 push	 edi
  00045	8b ce		 mov	 ecx, esi
  00047	e8 00 00 00 00	 call	 ?UseGuildSkill@CPythonPlayer@@QAEXK@Z ; CPythonPlayer::UseGuildSkill
  0004c	5b		 pop	 ebx
  0004d	5f		 pop	 edi
  0004e	5e		 pop	 esi

; 163  : 	}
; 164  : }

  0004f	5d		 pop	 ebp
  00050	c2 04 00	 ret	 4
$LN10@ClickSkill:

; 122  : 		return;
; 123  : 	}
; 124  : 
; 125  : 	if (!pSkillData->IsCanUseSkill())

  00053	e8 00 00 00 00	 call	 ?IsCanUseSkill@SSkillData@CPythonSkill@@QAE_NXZ ; CPythonSkill::SSkillData::IsCanUseSkill
  00058	84 c0		 test	 al, al
  0005a	0f 84 a2 00 00
	00		 je	 $LN19@ClickSkill

; 126  : 		return;
; 127  : 
; 128  : 	if (pSkillData->IsStandingSkill())

  00060	e8 00 00 00 00	 call	 ?IsStandingSkill@SSkillData@CPythonSkill@@QAEHXZ ; CPythonSkill::SSkillData::IsStandingSkill
  00065	85 c0		 test	 eax, eax
  00067	74 54		 je	 SHORT $LN8@ClickSkill

; 129  : 	{
; 130  : 		if (pSkillData->IsToggleSkill())

  00069	e8 00 00 00 00	 call	 ?IsToggleSkill@SSkillData@CPythonSkill@@QAEHXZ ; CPythonSkill::SSkillData::IsToggleSkill
  0006e	85 c0		 test	 eax, eax
  00070	74 3c		 je	 SHORT $LN6@ClickSkill

; 131  : 		{
; 132  : 			if (IsSkillActive(dwSlotIndex))

  00072	57		 push	 edi
  00073	8b ce		 mov	 ecx, esi
  00075	e8 00 00 00 00	 call	 ?IsSkillActive@CPythonPlayer@@QAEHK@Z ; CPythonPlayer::IsSkillActive
  0007a	85 c0		 test	 eax, eax
  0007c	74 30		 je	 SHORT $LN6@ClickSkill

; 133  : 			{
; 134  : 				CInstanceBase * pkInstMain = NEW_GetMainActorPtr();

  0007e	8b 46 04	 mov	 eax, DWORD PTR [esi+4]
  00081	8d 4e 04	 lea	 ecx, DWORD PTR [esi+4]
  00084	ff 90 88 00 00
	00		 call	 DWORD PTR [eax+136]

; 135  : 				if (!pkInstMain)

  0008a	85 c0		 test	 eax, eax
  0008c	74 74		 je	 SHORT $LN19@ClickSkill

; 136  : 					return;
; 137  : 				if (pkInstMain->IsUsingSkill())

  0008e	8b c8		 mov	 ecx, eax
  00090	e8 00 00 00 00	 call	 ?IsUsingSkill@CInstanceBase@@QAEHXZ ; CInstanceBase::IsUsingSkill
  00095	85 c0		 test	 eax, eax
  00097	75 69		 jne	 SHORT $LN19@ClickSkill

; 138  : 					return;
; 139  : 
; 140  : 				CPythonNetworkStream::Instance().SendUseSkillPacket(rkSkillInst.dwIndex);

  00099	8b 0d 00 00 00
	00		 mov	 ecx, DWORD PTR ?ms_singleton@?$CSingleton@VCPythonNetworkStream@@@@0PAVCPythonNetworkStream@@A ; CSingleton<CPythonNetworkStream>::ms_singleton
  0009f	50		 push	 eax
  000a0	ff 33		 push	 DWORD PTR [ebx]
  000a2	e8 00 00 00 00	 call	 ?SendUseSkillPacket@CPythonNetworkStream@@QAE_NKK@Z ; CPythonNetworkStream::SendUseSkillPacket
  000a7	5b		 pop	 ebx
  000a8	5f		 pop	 edi
  000a9	5e		 pop	 esi

; 163  : 	}
; 164  : }

  000aa	5d		 pop	 ebp
  000ab	c2 04 00	 ret	 4
$LN6@ClickSkill:

; 141  : 				return;
; 142  : 			}
; 143  : 		}
; 144  : 
; 145  : 		__UseSkill(dwSlotIndex);

  000ae	57		 push	 edi
  000af	8b ce		 mov	 ecx, esi
  000b1	e8 00 00 00 00	 call	 ?__UseSkill@CPythonPlayer@@IAE_NK@Z ; CPythonPlayer::__UseSkill
  000b6	5b		 pop	 ebx
  000b7	5f		 pop	 edi
  000b8	5e		 pop	 esi

; 163  : 	}
; 164  : }

  000b9	5d		 pop	 ebp
  000ba	c2 04 00	 ret	 4
$LN8@ClickSkill:

; 146  : 		return;
; 147  : 	}
; 148  : 
; 149  : 	if (m_dwcurSkillSlotIndex == dwSlotIndex)

  000bd	8b 86 74 09 01
	00		 mov	 eax, DWORD PTR [esi+67956]

; 150  : 	{
; 151  : 		__UseSkill(m_dwcurSkillSlotIndex);

  000c3	8b ce		 mov	 ecx, esi
  000c5	3b c7		 cmp	 eax, edi
  000c7	75 0d		 jne	 SHORT $LN3@ClickSkill
  000c9	50		 push	 eax
$LN20@ClickSkill:
  000ca	e8 00 00 00 00	 call	 ?__UseSkill@CPythonPlayer@@IAE_NK@Z ; CPythonPlayer::__UseSkill
  000cf	5b		 pop	 ebx
  000d0	5f		 pop	 edi
  000d1	5e		 pop	 esi

; 163  : 	}
; 164  : }

  000d2	5d		 pop	 ebp
  000d3	c2 04 00	 ret	 4
$LN3@ClickSkill:

; 152  : 		return;
; 153  : 	}
; 154  : 
; 155  : 	if (!__IsRightButtonSkillMode())

  000d6	e8 00 00 00 00	 call	 ?__IsRightButtonSkillMode@CPythonPlayer@@IAEHXZ ; CPythonPlayer::__IsRightButtonSkillMode

; 156  : 	{
; 157  : 		__UseSkill(dwSlotIndex);

  000db	57		 push	 edi
  000dc	85 c0		 test	 eax, eax
  000de	74 ea		 je	 SHORT $LN20@ClickSkill

; 158  : 	}
; 159  : 	else
; 160  : 	{
; 161  : 		m_dwcurSkillSlotIndex = dwSlotIndex;
; 162  : 		PyCallClassMemberFunc(m_ppyGameWindow, "ChangeCurrentSkill", Py_BuildValue("(i)", dwSlotIndex));

  000e0	68 00 00 00 00	 push	 OFFSET ??_C@_03LIHNMIHG@?$CIi?$CJ?$AA@
  000e5	89 be 74 09 01
	00		 mov	 DWORD PTR [esi+67956], edi
  000eb	ff 15 00 00 00
	00		 call	 DWORD PTR __imp__Py_BuildValue
  000f1	50		 push	 eax
  000f2	68 00 00 00 00	 push	 OFFSET ??_C@_0BD@IOEPNDLO@ChangeCurrentSkill?$AA@
  000f7	ff 76 08	 push	 DWORD PTR [esi+8]
  000fa	e8 00 00 00 00	 call	 ?PyCallClassMemberFunc@@YA_NPAU_object@@PBD0@Z ; PyCallClassMemberFunc
  000ff	83 c4 14	 add	 esp, 20			; 00000014H
$LN19@ClickSkill:
  00102	5b		 pop	 ebx
$LN1@ClickSkill:
  00103	5f		 pop	 edi
  00104	5e		 pop	 esi

; 163  : 	}
; 164  : }

  00105	5d		 pop	 ebp
  00106	c2 04 00	 ret	 4
?ClickSkillSlot@CPythonPlayer@@QAEXK@Z ENDP		; CPythonPlayer::ClickSkillSlot
_TEXT	ENDS
; Function compile flags: /Ogtp
; File d:\metin2\metin2\client_source_clean\client_source_clean\source\userinterface\pythonplayerskill.cpp
;	COMDAT ?__CheckDashAffect@CPythonPlayer@@IAE_NAAVCInstanceBase@@@Z
_TEXT	SEGMENT
_rkInstMain$ = 8					; size = 4
?__CheckDashAffect@CPythonPlayer@@IAE_NAAVCInstanceBase@@@Z PROC ; CPythonPlayer::__CheckDashAffect, COMDAT
; _this$dead$ = ecx

; 382  : {

  00000	55		 push	 ebp
  00001	8b ec		 mov	 ebp, esp

; 383  : 	return rkInstMain.IsAffect(CInstanceBase::AFFECT_DASH);

  00003	8b 4d 08	 mov	 ecx, DWORD PTR _rkInstMain$[ebp]
  00006	6a 1f		 push	 31			; 0000001fH
  00008	e8 00 00 00 00	 call	 ?IsAffect@CInstanceBase@@QAE_NI@Z ; CInstanceBase::IsAffect

; 384  : }

  0000d	5d		 pop	 ebp
  0000e	c2 04 00	 ret	 4
?__CheckDashAffect@CPythonPlayer@@IAE_NAAVCInstanceBase@@@Z ENDP ; CPythonPlayer::__CheckDashAffect
_TEXT	ENDS
; Function compile flags: /Ogtp
; File d:\metin2\metin2\client_source_clean\client_source_clean\source\userinterface\pythonplayerskill.cpp
;	COMDAT ?ResetAffect@CPythonPlayer@@QAEXI@Z
_TEXT	SEGMENT
_pSkillData$ = -4					; size = 4
_dwSkillSlotIndex$ = 8					; size = 4
_dwSkillIndex$ = 8					; size = 4
_uAffect$ = 8						; size = 4
?ResetAffect@CPythonPlayer@@QAEXI@Z PROC		; CPythonPlayer::ResetAffect, COMDAT
; _this$ = ecx

; 40   : {

  00000	55		 push	 ebp
  00001	8b ec		 mov	 ebp, esp
  00003	51		 push	 ecx
  00004	56		 push	 esi

; 41   : 	// 2004.07.17.myevan.스킬 아닌 이펙트가 안 사라지는 문제 
; 42   : 	PyCallClassMemberFunc(m_ppyGameWindow, "ResetAffect", Py_BuildValue("(i)", uAffect));

  00005	8b 75 08	 mov	 esi, DWORD PTR _uAffect$[ebp]
  00008	57		 push	 edi
  00009	56		 push	 esi
  0000a	68 00 00 00 00	 push	 OFFSET ??_C@_03LIHNMIHG@?$CIi?$CJ?$AA@
  0000f	8b f9		 mov	 edi, ecx
  00011	ff 15 00 00 00
	00		 call	 DWORD PTR __imp__Py_BuildValue
  00017	50		 push	 eax
  00018	68 00 00 00 00	 push	 OFFSET ??_C@_0M@HBOAHMLO@ResetAffect?$AA@
  0001d	ff 77 08	 push	 DWORD PTR [edi+8]
  00020	e8 00 00 00 00	 call	 ?PyCallClassMemberFunc@@YA_NPAU_object@@PBD0@Z ; PyCallClassMemberFunc
  00025	83 c4 14	 add	 esp, 20			; 00000014H

; 43   : 
; 44   : 	DWORD dwSkillIndex;
; 45   : 	if (!AffectIndexToSkillIndex(uAffect, &dwSkillIndex))

  00028	8d 45 08	 lea	 eax, DWORD PTR _dwSkillIndex$[ebp]
  0002b	8b cf		 mov	 ecx, edi
  0002d	50		 push	 eax
  0002e	56		 push	 esi
  0002f	e8 00 00 00 00	 call	 ?AffectIndexToSkillIndex@CPythonPlayer@@QAE_NKPAK@Z ; CPythonPlayer::AffectIndexToSkillIndex
  00034	84 c0		 test	 al, al
  00036	74 3d		 je	 SHORT $LN5@ResetAffec

; 46   : 		return;
; 47   : 
; 48   : 	CPythonSkill::TSkillData * pSkillData;
; 49   : 	if (!CPythonSkill::Instance().GetSkillData(dwSkillIndex, &pSkillData))

  00038	8b 75 08	 mov	 esi, DWORD PTR _dwSkillIndex$[ebp]
  0003b	8d 45 fc	 lea	 eax, DWORD PTR _pSkillData$[ebp]
  0003e	8b 0d 00 00 00
	00		 mov	 ecx, DWORD PTR ?ms_singleton@?$CSingleton@VCPythonSkill@@@@0PAVCPythonSkill@@A ; CSingleton<CPythonSkill>::ms_singleton
  00044	50		 push	 eax
  00045	56		 push	 esi
  00046	e8 00 00 00 00	 call	 ?GetSkillData@CPythonSkill@@QAEHKPAPAUSSkillData@1@@Z ; CPythonSkill::GetSkillData
  0004b	85 c0		 test	 eax, eax
  0004d	74 26		 je	 SHORT $LN5@ResetAffec

; 50   : 		return;
; 51   : 
; 52   : 	if (!pSkillData->IsToggleSkill())

  0004f	8b 4d fc	 mov	 ecx, DWORD PTR _pSkillData$[ebp]
  00052	e8 00 00 00 00	 call	 ?IsToggleSkill@SSkillData@CPythonSkill@@QAEHXZ ; CPythonSkill::SSkillData::IsToggleSkill
  00057	85 c0		 test	 eax, eax
  00059	74 1a		 je	 SHORT $LN5@ResetAffec

; 53   : 		return;
; 54   : 
; 55   : 	DWORD dwSkillSlotIndex;
; 56   : 	if (!GetSkillSlotIndex(dwSkillIndex, &dwSkillSlotIndex))

  0005b	8d 45 08	 lea	 eax, DWORD PTR _dwSkillSlotIndex$[ebp]
  0005e	8b cf		 mov	 ecx, edi
  00060	50		 push	 eax
  00061	56		 push	 esi
  00062	e8 00 00 00 00	 call	 ?GetSkillSlotIndex@CPythonPlayer@@QAE_NKPAK@Z ; CPythonPlayer::GetSkillSlotIndex
  00067	84 c0		 test	 al, al
  00069	74 0a		 je	 SHORT $LN5@ResetAffec

; 57   : 		return;
; 58   : 
; 59   : 	__DeactivateSkillSlot(dwSkillSlotIndex);

  0006b	ff 75 08	 push	 DWORD PTR _dwSkillSlotIndex$[ebp]
  0006e	8b cf		 mov	 ecx, edi
  00070	e8 00 00 00 00	 call	 ?__DeactivateSkillSlot@CPythonPlayer@@IAEXK@Z ; CPythonPlayer::__DeactivateSkillSlot
$LN5@ResetAffec:
  00075	5f		 pop	 edi
  00076	5e		 pop	 esi

; 60   : }

  00077	8b e5		 mov	 esp, ebp
  00079	5d		 pop	 ebp
  0007a	c2 04 00	 ret	 4
?ResetAffect@CPythonPlayer@@QAEXI@Z ENDP		; CPythonPlayer::ResetAffect
_TEXT	ENDS
; Function compile flags: /Ogtp
; File d:\metin2\metin2\client_source_clean\client_source_clean\source\userinterface\pythonplayerskill.cpp
;	COMDAT ?SetAffect@CPythonPlayer@@QAEXI@Z
_TEXT	SEGMENT
_pSkillData$ = -4					; size = 4
_dwSkillSlotIndex$ = 8					; size = 4
_dwSkillIndex$ = 8					; size = 4
_uAffect$ = 8						; size = 4
?SetAffect@CPythonPlayer@@QAEXI@Z PROC			; CPythonPlayer::SetAffect, COMDAT
; _this$ = ecx

; 16   : {

  00000	55		 push	 ebp
  00001	8b ec		 mov	 ebp, esp
  00003	51		 push	 ecx
  00004	56		 push	 esi

; 17   : 	PyCallClassMemberFunc(m_ppyGameWindow, "SetAffect", Py_BuildValue("(i)", uAffect));

  00005	8b 75 08	 mov	 esi, DWORD PTR _uAffect$[ebp]
  00008	57		 push	 edi
  00009	56		 push	 esi
  0000a	68 00 00 00 00	 push	 OFFSET ??_C@_03LIHNMIHG@?$CIi?$CJ?$AA@
  0000f	8b f9		 mov	 edi, ecx
  00011	ff 15 00 00 00
	00		 call	 DWORD PTR __imp__Py_BuildValue
  00017	50		 push	 eax
  00018	68 00 00 00 00	 push	 OFFSET ??_C@_09FHCBCPJO@SetAffect?$AA@
  0001d	ff 77 08	 push	 DWORD PTR [edi+8]
  00020	e8 00 00 00 00	 call	 ?PyCallClassMemberFunc@@YA_NPAU_object@@PBD0@Z ; PyCallClassMemberFunc
  00025	83 c4 14	 add	 esp, 20			; 00000014H

; 18   : 
; 19   : 	/////
; 20   : 
; 21   : 	DWORD dwSkillIndex;
; 22   : 	if (!AffectIndexToSkillIndex(uAffect, &dwSkillIndex))

  00028	8d 45 08	 lea	 eax, DWORD PTR _dwSkillIndex$[ebp]
  0002b	8b cf		 mov	 ecx, edi
  0002d	50		 push	 eax
  0002e	56		 push	 esi
  0002f	e8 00 00 00 00	 call	 ?AffectIndexToSkillIndex@CPythonPlayer@@QAE_NKPAK@Z ; CPythonPlayer::AffectIndexToSkillIndex
  00034	84 c0		 test	 al, al
  00036	74 3d		 je	 SHORT $LN5@SetAffect

; 23   : 		return;
; 24   : 
; 25   : 	CPythonSkill::TSkillData * pSkillData;
; 26   : 	if (!CPythonSkill::Instance().GetSkillData(dwSkillIndex, &pSkillData))

  00038	8b 75 08	 mov	 esi, DWORD PTR _dwSkillIndex$[ebp]
  0003b	8d 45 fc	 lea	 eax, DWORD PTR _pSkillData$[ebp]
  0003e	8b 0d 00 00 00
	00		 mov	 ecx, DWORD PTR ?ms_singleton@?$CSingleton@VCPythonSkill@@@@0PAVCPythonSkill@@A ; CSingleton<CPythonSkill>::ms_singleton
  00044	50		 push	 eax
  00045	56		 push	 esi
  00046	e8 00 00 00 00	 call	 ?GetSkillData@CPythonSkill@@QAEHKPAPAUSSkillData@1@@Z ; CPythonSkill::GetSkillData
  0004b	85 c0		 test	 eax, eax
  0004d	74 26		 je	 SHORT $LN5@SetAffect

; 27   : 		return;
; 28   : 
; 29   : 	if (!pSkillData->IsToggleSkill())

  0004f	8b 4d fc	 mov	 ecx, DWORD PTR _pSkillData$[ebp]
  00052	e8 00 00 00 00	 call	 ?IsToggleSkill@SSkillData@CPythonSkill@@QAEHXZ ; CPythonSkill::SSkillData::IsToggleSkill
  00057	85 c0		 test	 eax, eax
  00059	74 1a		 je	 SHORT $LN5@SetAffect

; 30   : 		return;
; 31   : 
; 32   : 	DWORD dwSkillSlotIndex;
; 33   : 	if (!GetSkillSlotIndex(dwSkillIndex, &dwSkillSlotIndex))

  0005b	8d 45 08	 lea	 eax, DWORD PTR _dwSkillSlotIndex$[ebp]
  0005e	8b cf		 mov	 ecx, edi
  00060	50		 push	 eax
  00061	56		 push	 esi
  00062	e8 00 00 00 00	 call	 ?GetSkillSlotIndex@CPythonPlayer@@QAE_NKPAK@Z ; CPythonPlayer::GetSkillSlotIndex
  00067	84 c0		 test	 al, al
  00069	74 0a		 je	 SHORT $LN5@SetAffect

; 34   : 		return;
; 35   : 
; 36   : 	__ActivateSkillSlot(dwSkillSlotIndex);

  0006b	ff 75 08	 push	 DWORD PTR _dwSkillSlotIndex$[ebp]
  0006e	8b cf		 mov	 ecx, edi
  00070	e8 00 00 00 00	 call	 ?__ActivateSkillSlot@CPythonPlayer@@IAEXK@Z ; CPythonPlayer::__ActivateSkillSlot
$LN5@SetAffect:
  00075	5f		 pop	 edi
  00076	5e		 pop	 esi

; 37   : }

  00077	8b e5		 mov	 esp, ebp
  00079	5d		 pop	 ebp
  0007a	c2 04 00	 ret	 4
?SetAffect@CPythonPlayer@@QAEXI@Z ENDP			; CPythonPlayer::SetAffect
_TEXT	ENDS
; Function compile flags: /Ogtp
; File d:\metin2\metin2\client_source_clean\client_source_clean\source\userinterface\pythonplayerskill.cpp
;	COMDAT ?ClearAffects@CPythonPlayer@@QAEXXZ
_TEXT	SEGMENT
?ClearAffects@CPythonPlayer@@QAEXXZ PROC		; CPythonPlayer::ClearAffects, COMDAT
; _this$ = ecx

; 11   : {

  00000	56		 push	 esi

; 12   : 	PyCallClassMemberFunc(m_ppyGameWindow, "ClearAffects", Py_BuildValue("()"));

  00001	68 00 00 00 00	 push	 OFFSET ??_C@_02HCKGKOFO@?$CI?$CJ?$AA@
  00006	8b f1		 mov	 esi, ecx
  00008	ff 15 00 00 00
	00		 call	 DWORD PTR __imp__Py_BuildValue
  0000e	50		 push	 eax
  0000f	68 00 00 00 00	 push	 OFFSET ??_C@_0N@OADAMGHE@ClearAffects?$AA@
  00014	ff 76 08	 push	 DWORD PTR [esi+8]
  00017	e8 00 00 00 00	 call	 ?PyCallClassMemberFunc@@YA_NPAU_object@@PBD0@Z ; PyCallClassMemberFunc
  0001c	83 c4 10	 add	 esp, 16			; 00000010H
  0001f	5e		 pop	 esi

; 13   : }

  00020	c3		 ret	 0
?ClearAffects@CPythonPlayer@@QAEXXZ ENDP		; CPythonPlayer::ClearAffects
_TEXT	ENDS
; Function compile flags: /Ogtp
; File d:\metin2\metin2\client_source_clean\client_source_clean\source\userinterface\pythonplayerskill.cpp
; File d:\metin2\metin2\client_source_clean\client_source_clean\source\userinterface\gametype.h
; File d:\metin2\metin2\client_source_clean\client_source_clean\source\userinterface\pythonplayerskill.cpp
; File d:\metin2\metin2\client_source_clean\client_source_clean\source\userinterface\gametype.h
; File d:\metin2\metin2\client_source_clean\client_source_clean\source\eterbase\singleton.h
; File d:\metin2\metin2\client_source_clean\client_source_clean\source\userinterface\pythonplayerskill.cpp
; File d:\metin2\metin2\client_source_clean\client_source_clean\source\userinterface\gametype.h
; File d:\metin2\metin2\client_source_clean\client_source_clean\source\userinterface\pythonplayerskill.cpp
;	COMDAT ?__HasEnoughArrow@CPythonPlayer@@IAE_NXZ
_TEXT	SEGMENT
_this$1$ = -12						; size = 4
_pItemData$ = -8					; size = 4
$T1 = -3						; size = 3
?__HasEnoughArrow@CPythonPlayer@@IAE_NXZ PROC		; CPythonPlayer::__HasEnoughArrow, COMDAT
; _this$ = ecx

; 826  : {

  00000	55		 push	 ebp
  00001	8b ec		 mov	 ebp, esp
  00003	83 ec 0c	 sub	 esp, 12			; 0000000cH
  00006	8b c1		 mov	 eax, ecx
; File d:\metin2\metin2\client_source_clean\client_source_clean\source\userinterface\gametype.h

; 191  :         window_type = _window_type;

  00008	c6 45 fd 01	 mov	 BYTE PTR $T1[ebp], 1
  0000c	53		 push	 ebx
  0000d	56		 push	 esi
; File d:\metin2\metin2\client_source_clean\client_source_clean\source\userinterface\pythonplayerskill.cpp

; 828  : 	if (CItemManager::Instance().GetItemDataPointer(GetItemIndex(TItemPos(INVENTORY, c_Equipment_Arrow)), &pItemData))

  0000e	8b 70 04	 mov	 esi, DWORD PTR [eax+4]
  00011	8d 58 04	 lea	 ebx, DWORD PTR [eax+4]
  00014	89 45 f4	 mov	 DWORD PTR _this$1$[ebp], eax
; File d:\metin2\metin2\client_source_clean\client_source_clean\source\userinterface\gametype.h

; 192  :         cell = _cell;

  00017	b9 ea 00 00 00	 mov	 ecx, 234		; 000000eaH
  0001c	57		 push	 edi
; File d:\metin2\metin2\client_source_clean\client_source_clean\source\eterbase\singleton.h

; 27   : 		return (*ms_singleton);

  0001d	8b 3d 00 00 00
	00		 mov	 edi, DWORD PTR ?ms_singleton@?$CSingleton@VCItemManager@@@@0PAVCItemManager@@A ; CSingleton<CItemManager>::ms_singleton
; File d:\metin2\metin2\client_source_clean\client_source_clean\source\userinterface\pythonplayerskill.cpp

; 828  : 	if (CItemManager::Instance().GetItemDataPointer(GetItemIndex(TItemPos(INVENTORY, c_Equipment_Arrow)), &pItemData))

  00023	8d 45 f8	 lea	 eax, DWORD PTR _pItemData$[ebp]
  00026	50		 push	 eax
  00027	51		 push	 ecx
  00028	8b d4		 mov	 edx, esp
; File d:\metin2\metin2\client_source_clean\client_source_clean\source\userinterface\gametype.h

; 192  :         cell = _cell;

  0002a	66 89 4d fe	 mov	 WORD PTR $T1[ebp+1], cx
; File d:\metin2\metin2\client_source_clean\client_source_clean\source\userinterface\pythonplayerskill.cpp

; 828  : 	if (CItemManager::Instance().GetItemDataPointer(GetItemIndex(TItemPos(INVENTORY, c_Equipment_Arrow)), &pItemData))

  0002e	66 8b 45 fd	 mov	 ax, WORD PTR $T1[ebp]
  00032	8b cb		 mov	 ecx, ebx
  00034	66 89 02	 mov	 WORD PTR [edx], ax
  00037	8a 45 ff	 mov	 al, BYTE PTR $T1[ebp+2]
  0003a	88 42 02	 mov	 BYTE PTR [edx+2], al
  0003d	ff 56 40	 call	 DWORD PTR [esi+64]
  00040	50		 push	 eax
  00041	8b cf		 mov	 ecx, edi
  00043	e8 00 00 00 00	 call	 ?GetItemDataPointer@CItemManager@@QAEHKPAPAVCItemData@@@Z ; CItemManager::GetItemDataPointer
  00048	85 c0		 test	 eax, eax
  0004a	74 21		 je	 SHORT $LN1@HasEnoughA

; 829  : 	if (CItemData::ITEM_TYPE_WEAPON == pItemData->GetType())

  0004c	8b 4d f8	 mov	 ecx, DWORD PTR _pItemData$[ebp]
  0004f	e8 00 00 00 00	 call	 ?GetType@CItemData@@QBEEXZ ; CItemData::GetType
  00054	3c 01		 cmp	 al, 1
  00056	75 15		 jne	 SHORT $LN1@HasEnoughA

; 830  : 	if (CItemData::WEAPON_ARROW == pItemData->GetSubType())

  00058	8b 4d f8	 mov	 ecx, DWORD PTR _pItemData$[ebp]
  0005b	e8 00 00 00 00	 call	 ?GetSubType@CItemData@@QBEEXZ ; CItemData::GetSubType
  00060	3c 06		 cmp	 al, 6
  00062	75 09		 jne	 SHORT $LN1@HasEnoughA

; 831  : 	{
; 832  : 		return true;

  00064	b0 01		 mov	 al, 1

; 837  : }

  00066	5f		 pop	 edi
  00067	5e		 pop	 esi
  00068	5b		 pop	 ebx
  00069	8b e5		 mov	 esp, ebp
  0006b	5d		 pop	 ebp
  0006c	c3		 ret	 0
$LN1@HasEnoughA:

; 833  : 	}
; 834  : 
; 835  : 	PyCallClassMemberFunc(m_ppyGameWindow, "OnCannotShotError", Py_BuildValue("(is)", GetMainCharacterIndex(), "EMPTY_ARROW"));

  0006d	8b 03		 mov	 eax, DWORD PTR [ebx]
  0006f	8b cb		 mov	 ecx, ebx
  00071	68 00 00 00 00	 push	 OFFSET ??_C@_0M@FBIHMJDM@EMPTY_ARROW?$AA@
  00076	ff 50 04	 call	 DWORD PTR [eax+4]
  00079	50		 push	 eax
  0007a	68 00 00 00 00	 push	 OFFSET ??_C@_04JMLDJNEM@?$CIis?$CJ?$AA@
  0007f	ff 15 00 00 00
	00		 call	 DWORD PTR __imp__Py_BuildValue
  00085	50		 push	 eax
  00086	8b 45 f4	 mov	 eax, DWORD PTR _this$1$[ebp]
  00089	68 00 00 00 00	 push	 OFFSET ??_C@_0BC@FKINMGLI@OnCannotShotError?$AA@
  0008e	ff 70 08	 push	 DWORD PTR [eax+8]
  00091	e8 00 00 00 00	 call	 ?PyCallClassMemberFunc@@YA_NPAU_object@@PBD0@Z ; PyCallClassMemberFunc
  00096	83 c4 18	 add	 esp, 24			; 00000018H

; 836  : 	return false;

  00099	32 c0		 xor	 al, al

; 837  : }

  0009b	5f		 pop	 edi
  0009c	5e		 pop	 esi
  0009d	5b		 pop	 ebx
  0009e	8b e5		 mov	 esp, ebp
  000a0	5d		 pop	 ebp
  000a1	c3		 ret	 0
?__HasEnoughArrow@CPythonPlayer@@IAE_NXZ ENDP		; CPythonPlayer::__HasEnoughArrow
_TEXT	ENDS
; Function compile flags: /Ogtp
; File d:\metin2\metin2\client_source_clean\client_source_clean\source\userinterface\pythonplayerskill.cpp
; File c:\program files (x86)\microsoft visual studio 12.0\vc\include\vector
; File d:\metin2\metin2\client_source_clean\client_source_clean\source\userinterface\pythonplayerskill.cpp
; File c:\program files (x86)\microsoft visual studio 12.0\vc\include\vector
; File d:\metin2\metin2\client_source_clean\client_source_clean\source\userinterface\pythonplayerskill.cpp
; File c:\program files (x86)\microsoft visual studio 12.0\vc\include\vector
; File d:\metin2\metin2\client_source_clean\client_source_clean\source\userinterface\pythonplayerskill.cpp
; File d:\metin2\metin2\client_source_clean\client_source_clean\source\eterbase\singleton.h
; File d:\metin2\metin2\client_source_clean\client_source_clean\source\userinterface\pythonplayerskill.cpp
; File c:\program files (x86)\microsoft visual studio 12.0\vc\include\vector
; File d:\metin2\metin2\client_source_clean\client_source_clean\source\userinterface\pythonplayerskill.cpp
; File c:\program files (x86)\microsoft visual studio 12.0\vc\include\vector
; File d:\metin2\metin2\client_source_clean\client_source_clean\source\userinterface\pythonplayerskill.cpp
; File d:\metin2\metin2\client_source_clean\client_source_clean\source\eterbase\singleton.h
; File d:\metin2\metin2\client_source_clean\client_source_clean\source\userinterface\pythonplayerskill.cpp
; File c:\program files (x86)\microsoft visual studio 12.0\vc\include\vector
; File d:\metin2\metin2\client_source_clean\client_source_clean\source\userinterface\pythonplayerskill.cpp
;	COMDAT ?__UseSkill@CPythonPlayer@@IAE_NK@Z
_TEXT	SEGMENT
tv828 = -80						; size = 4
_dwTargetMaxCount$1$ = -80				; size = 4
_this$GSCopy$1$ = -76					; size = 4
_pSkillData$ = -72					; size = 4
_pkInstEach$1$ = -68					; size = 4
_pkInstEach$1$ = -68					; size = 4
_dwRange$1$ = -68					; size = 4
_dwSkillRange$1$ = -68					; size = 4
_dwPickedActorID$2 = -68				; size = 4
_dwTargetCount$1$ = -64					; size = 4
_pkInstTarget$ = -64					; size = 4
_pkInstMain$1$ = -60					; size = 4
_pkInstTarget$2$ = -56					; size = 4
_dwSlotIndex$GSCopy$1$ = -52				; size = 4
tv816 = -48						; size = 4
_kVct_pkInstTarget$3 = -44				; size = 12
_kPPosPickedGround$4 = -44				; size = 12
_kPPosDst$5 = -32					; size = 12
$T6 = -32						; size = 12
$T7 = -32						; size = 12
__$ArrayPad$ = -20					; size = 4
__$EHRec$ = -12						; size = 12
_dwSlotIndex$ = 8					; size = 4
?__UseSkill@CPythonPlayer@@IAE_NK@Z PROC		; CPythonPlayer::__UseSkill, COMDAT
; _this$ = ecx

; 461  : {

  00000	55		 push	 ebp
  00001	8b ec		 mov	 ebp, esp
  00003	83 e4 f8	 and	 esp, -8			; fffffff8H
  00006	6a ff		 push	 -1
  00008	68 00 00 00 00	 push	 __ehhandler$?__UseSkill@CPythonPlayer@@IAE_NK@Z
  0000d	64 a1 00 00 00
	00		 mov	 eax, DWORD PTR fs:0
  00013	50		 push	 eax
  00014	83 ec 44	 sub	 esp, 68			; 00000044H
  00017	a1 00 00 00 00	 mov	 eax, DWORD PTR ___security_cookie
  0001c	33 c4		 xor	 eax, esp
  0001e	89 44 24 3c	 mov	 DWORD PTR __$ArrayPad$[esp+80], eax
  00022	56		 push	 esi
  00023	57		 push	 edi
  00024	a1 00 00 00 00	 mov	 eax, DWORD PTR ___security_cookie
  00029	33 c4		 xor	 eax, esp
  0002b	50		 push	 eax
  0002c	8d 44 24 50	 lea	 eax, DWORD PTR __$EHRec$[esp+92]
  00030	64 a3 00 00 00
	00		 mov	 DWORD PTR fs:0, eax
  00036	8b f1		 mov	 esi, ecx
  00038	89 74 24 10	 mov	 DWORD PTR _this$GSCopy$1$[esp+92], esi
  0003c	8b 7d 08	 mov	 edi, DWORD PTR _dwSlotIndex$[ebp]
  0003f	89 7c 24 28	 mov	 DWORD PTR _dwSlotIndex$GSCopy$1$[esp+92], edi

; 462  : 	// PrivateShop
; 463  : 	if (IsOpenPrivateShop())

  00043	e8 00 00 00 00	 call	 ?IsOpenPrivateShop@CPythonPlayer@@QAE_NXZ ; CPythonPlayer::IsOpenPrivateShop
  00048	84 c0		 test	 al, al
  0004a	0f 85 2a 07 00
	00		 jne	 $LN205@UseSkill

; 464  : 	{
; 465  : 		return true;
; 466  : 	}
; 467  : 
; 468  : 	if (!__CanUseSkill())

  00050	e8 00 00 00 00	 call	 ?__CanUseSkill@CPythonPlayer@@IAE_NXZ ; CPythonPlayer::__CanUseSkill
  00055	84 c0		 test	 al, al
  00057	0f 84 55 07 00
	00		 je	 $LN197@UseSkill

; 469  : 	{
; 470  : 		return false;
; 471  : 	}
; 472  : 
; 473  : 	if (dwSlotIndex >= SKILL_MAX_NUM)

  0005d	81 ff ff 00 00
	00		 cmp	 edi, 255		; 000000ffH
  00063	72 13		 jb	 SHORT $LN72@UseSkill

; 474  : 	{
; 475  : 		Tracenf("CPythonPlayer::__UseSkill(dwSlotIndex=%d) It's not available skill slot number", dwSlotIndex);

  00065	57		 push	 edi
  00066	68 00 00 00 00	 push	 OFFSET ??_C@_0EP@OENNGPFB@CPythonPlayer?3?3__UseSkill?$CIdwSlot@
  0006b	e8 00 00 00 00	 call	 ?Tracenf@@YAXPBDZZ	; Tracenf
  00070	83 c4 08	 add	 esp, 8

; 476  : 		return false;

  00073	e9 3a 07 00 00	 jmp	 $LN197@UseSkill
$LN72@UseSkill:

; 477  : 	}
; 478  : 
; 479  : 	TSkillInstance & rkSkillInst = m_playerStatus.aSkill[dwSlotIndex];

  00078	8d 87 8a 05 00
	00		 lea	 eax, DWORD PTR [edi+1418]

; 480  : 
; 481  : 	if (__CheckSpecialSkill(rkSkillInst.dwIndex))

  0007e	8b ce		 mov	 ecx, esi
  00080	8d 04 80	 lea	 eax, DWORD PTR [eax+eax*4]
  00083	ff 34 c6	 push	 DWORD PTR [esi+eax*8]
  00086	89 44 24 30	 mov	 DWORD PTR tv816[esp+96], eax
  0008a	e8 00 00 00 00	 call	 ?__CheckSpecialSkill@CPythonPlayer@@IAE_NK@Z ; CPythonPlayer::__CheckSpecialSkill
  0008f	84 c0		 test	 al, al
  00091	0f 85 e3 06 00
	00		 jne	 $LN205@UseSkill

; 482  : 	{
; 483  : 		return true;
; 484  : 	}
; 485  : 
; 486  : 	CPythonSkill::TSkillData * pSkillData;
; 487  : 	if (!CPythonSkill::Instance().GetSkillData(rkSkillInst.dwIndex, &pSkillData))

  00097	8b 0d 00 00 00
	00		 mov	 ecx, DWORD PTR ?ms_singleton@?$CSingleton@VCPythonSkill@@@@0PAVCPythonSkill@@A ; CSingleton<CPythonSkill>::ms_singleton
  0009d	8d 44 24 14	 lea	 eax, DWORD PTR _pSkillData$[esp+92]
  000a1	50		 push	 eax
  000a2	8b 44 24 30	 mov	 eax, DWORD PTR tv816[esp+96]
  000a6	ff 34 c6	 push	 DWORD PTR [esi+eax*8]
  000a9	e8 00 00 00 00	 call	 ?GetSkillData@CPythonSkill@@QAEHKPAPAUSSkillData@1@@Z ; CPythonSkill::GetSkillData
  000ae	85 c0		 test	 eax, eax
  000b0	75 13		 jne	 SHORT $LN70@UseSkill

; 488  : 	{
; 489  : 		Tracenf("CPythonPlayer::__UseSkill(dwSlotIndex=%d) There is no skill data", dwSlotIndex);

  000b2	57		 push	 edi
  000b3	68 00 00 00 00	 push	 OFFSET ??_C@_0EB@JKMJGFLB@CPythonPlayer?3?3__UseSkill?$CIdwSlot@
  000b8	e8 00 00 00 00	 call	 ?Tracenf@@YAXPBDZZ	; Tracenf
  000bd	83 c4 08	 add	 esp, 8

; 490  : 		return false;

  000c0	e9 ed 06 00 00	 jmp	 $LN197@UseSkill
$LN70@UseSkill:

; 491  : 	}
; 492  : 
; 493  : 	if (pSkillData->IsToggleSkill())

  000c5	8b 4c 24 14	 mov	 ecx, DWORD PTR _pSkillData$[esp+92]
  000c9	e8 00 00 00 00	 call	 ?IsToggleSkill@SSkillData@CPythonSkill@@QAEHXZ ; CPythonSkill::SSkillData::IsToggleSkill
  000ce	85 c0		 test	 eax, eax
  000d0	74 24		 je	 SHORT $LN68@UseSkill

; 494  : 	{
; 495  : 		if (IsSkillActive(dwSlotIndex))

  000d2	57		 push	 edi
  000d3	8b ce		 mov	 ecx, esi
  000d5	e8 00 00 00 00	 call	 ?IsSkillActive@CPythonPlayer@@QAEHK@Z ; CPythonPlayer::IsSkillActive
  000da	85 c0		 test	 eax, eax
  000dc	74 18		 je	 SHORT $LN68@UseSkill

; 496  : 		{
; 497  : 			CPythonNetworkStream::Instance().SendUseSkillPacket(rkSkillInst.dwIndex, dwSlotIndex);

  000de	8b 44 24 2c	 mov	 eax, DWORD PTR tv816[esp+92]
  000e2	8b 0d 00 00 00
	00		 mov	 ecx, DWORD PTR ?ms_singleton@?$CSingleton@VCPythonNetworkStream@@@@0PAVCPythonNetworkStream@@A ; CSingleton<CPythonNetworkStream>::ms_singleton
  000e8	57		 push	 edi
  000e9	ff 34 c6	 push	 DWORD PTR [esi+eax*8]
  000ec	e8 00 00 00 00	 call	 ?SendUseSkillPacket@CPythonNetworkStream@@QAE_NKK@Z ; CPythonNetworkStream::SendUseSkillPacket

; 498  : 			return false;

  000f1	e9 bc 06 00 00	 jmp	 $LN197@UseSkill
$LN68@UseSkill:

; 499  : 		}
; 500  : 	}
; 501  : 
; 502  : 	if (!__CheckSkillUsable(dwSlotIndex))

  000f6	57		 push	 edi
  000f7	8b ce		 mov	 ecx, esi
  000f9	e8 00 00 00 00	 call	 ?__CheckSkillUsable@CPythonPlayer@@IAE_NK@Z ; CPythonPlayer::__CheckSkillUsable
  000fe	84 c0		 test	 al, al
  00100	0f 84 ac 06 00
	00		 je	 $LN197@UseSkill

; 503  : 	{
; 504  : 		return false;
; 505  : 	}
; 506  : 
; 507  : 	CInstanceBase * pkInstMain = NEW_GetMainActorPtr();

  00106	8b 46 04	 mov	 eax, DWORD PTR [esi+4]
  00109	8d 4e 04	 lea	 ecx, DWORD PTR [esi+4]
  0010c	89 4c 24 0c	 mov	 DWORD PTR tv828[esp+92], ecx
  00110	8b 80 88 00 00
	00		 mov	 eax, DWORD PTR [eax+136]
  00116	ff d0		 call	 eax
  00118	8b f0		 mov	 esi, eax
  0011a	89 74 24 20	 mov	 DWORD PTR _pkInstMain$1$[esp+92], esi

; 508  : 	if (!pkInstMain)

  0011e	85 f6		 test	 esi, esi
  00120	75 13		 jne	 SHORT $LN66@UseSkill

; 509  : 	{
; 510  : 		Tracenf("CPythonPlayer::__UseSkill(dwSlotIndex=%d) There is no main player", dwSlotIndex);

  00122	57		 push	 edi
  00123	68 00 00 00 00	 push	 OFFSET ??_C@_0EC@MMFCNDJC@CPythonPlayer?3?3__UseSkill?$CIdwSlot@
  00128	e8 00 00 00 00	 call	 ?Tracenf@@YAXPBDZZ	; Tracenf
  0012d	83 c4 08	 add	 esp, 8

; 511  : 		return false;

  00130	e9 7d 06 00 00	 jmp	 $LN197@UseSkill
$LN66@UseSkill:

; 512  : 	}
; 513  : 
; 514  : 	if (pkInstMain->IsUsingSkill())

  00135	8b ce		 mov	 ecx, esi
  00137	e8 00 00 00 00	 call	 ?IsUsingSkill@CInstanceBase@@QAEHXZ ; CInstanceBase::IsUsingSkill
  0013c	85 c0		 test	 eax, eax
  0013e	0f 85 6e 06 00
	00		 jne	 $LN197@UseSkill

; 515  : 	{
; 516  : 		return false;
; 517  : 	}
; 518  : 
; 519  : 	CInstanceBase * pkInstTarget = NULL;
; 520  : 
; 521  : 	// NOTE : 타겟이 필요한 경우
; 522  : 	if (pSkillData->IsNeedTarget() ||
; 523  : 		pSkillData->CanChangeDirection() ||
; 524  : 		pSkillData->IsAutoSearchTarget())

  00144	8b 4c 24 14	 mov	 ecx, DWORD PTR _pSkillData$[esp+92]
  00148	33 ff		 xor	 edi, edi
  0014a	89 7c 24 24	 mov	 DWORD PTR _pkInstTarget$2$[esp+92], edi
  0014e	e8 00 00 00 00	 call	 ?IsNeedTarget@SSkillData@CPythonSkill@@QAEHXZ ; CPythonSkill::SSkillData::IsNeedTarget
  00153	85 c0		 test	 eax, eax
  00155	75 16		 jne	 SHORT $LN63@UseSkill
  00157	e8 00 00 00 00	 call	 ?CanChangeDirection@SSkillData@CPythonSkill@@QAEHXZ ; CPythonSkill::SSkillData::CanChangeDirection
  0015c	85 c0		 test	 eax, eax
  0015e	75 0d		 jne	 SHORT $LN63@UseSkill
  00160	e8 00 00 00 00	 call	 ?IsAutoSearchTarget@SSkillData@CPythonSkill@@QAEHXZ ; CPythonSkill::SSkillData::IsAutoSearchTarget
  00165	85 c0		 test	 eax, eax
  00167	0f 84 7b 02 00
	00		 je	 $LN30@UseSkill
$LN63@UseSkill:

; 525  : 	{
; 526  : 		if (pSkillData->IsNeedCorpse())

  0016d	e8 00 00 00 00	 call	 ?IsNeedCorpse@SSkillData@CPythonSkill@@QAEHXZ ; CPythonSkill::SSkillData::IsNeedCorpse

; 527  : 			pkInstTarget=__GetDeadTargetInstancePtr();

  00172	8b 4c 24 10	 mov	 ecx, DWORD PTR _this$GSCopy$1$[esp+92]
  00176	85 c0		 test	 eax, eax
  00178	74 07		 je	 SHORT $LN62@UseSkill
  0017a	e8 00 00 00 00	 call	 ?__GetDeadTargetInstancePtr@CPythonPlayer@@IAEPAVCInstanceBase@@XZ ; CPythonPlayer::__GetDeadTargetInstancePtr

; 528  : 		else

  0017f	eb 05		 jmp	 SHORT $LN198@UseSkill
$LN62@UseSkill:

; 529  : 			pkInstTarget=__GetAliveTargetInstancePtr();

  00181	e8 00 00 00 00	 call	 ?__GetAliveTargetInstancePtr@CPythonPlayer@@IAEPAVCInstanceBase@@XZ ; CPythonPlayer::__GetAliveTargetInstancePtr
$LN198@UseSkill:
  00186	8b f8		 mov	 edi, eax
  00188	89 7c 24 24	 mov	 DWORD PTR _pkInstTarget$2$[esp+92], edi

; 530  : 
; 531  : 		// 현재 타겟이 없으면..
; 532  : 		if (!pkInstTarget)

  0018c	85 ff		 test	 edi, edi
  0018e	0f 85 17 01 00
	00		 jne	 $LN185@UseSkill

; 533  : 		{
; 534  : 			// 업데이트하고..
; 535  : 			__ChangeTargetToPickedInstance();

  00194	8b 7c 24 10	 mov	 edi, DWORD PTR _this$GSCopy$1$[esp+92]
  00198	8b cf		 mov	 ecx, edi
  0019a	e8 00 00 00 00	 call	 ?__ChangeTargetToPickedInstance@CPythonPlayer@@IAE_NXZ ; CPythonPlayer::__ChangeTargetToPickedInstance

; 536  : 
; 537  : 			// 다시 얻어낸다.
; 538  : 			if (pSkillData->IsNeedCorpse())

  0019f	8b 4c 24 14	 mov	 ecx, DWORD PTR _pSkillData$[esp+92]
  001a3	e8 00 00 00 00	 call	 ?IsNeedCorpse@SSkillData@CPythonSkill@@QAEHXZ ; CPythonSkill::SSkillData::IsNeedCorpse

; 539  : 				pkInstTarget=__GetDeadTargetInstancePtr();

  001a8	8b cf		 mov	 ecx, edi
  001aa	85 c0		 test	 eax, eax
  001ac	74 07		 je	 SHORT $LN59@UseSkill
  001ae	e8 00 00 00 00	 call	 ?__GetDeadTargetInstancePtr@CPythonPlayer@@IAEPAVCInstanceBase@@XZ ; CPythonPlayer::__GetDeadTargetInstancePtr

; 540  : 			else

  001b3	eb 05		 jmp	 SHORT $LN199@UseSkill
$LN59@UseSkill:

; 541  : 				pkInstTarget=__GetAliveTargetInstancePtr();

  001b5	e8 00 00 00 00	 call	 ?__GetAliveTargetInstancePtr@CPythonPlayer@@IAEPAVCInstanceBase@@XZ ; CPythonPlayer::__GetAliveTargetInstancePtr
$LN199@UseSkill:
  001ba	8b f8		 mov	 edi, eax
  001bc	89 7c 24 1c	 mov	 DWORD PTR _pkInstTarget$[esp+92], edi
  001c0	89 7c 24 24	 mov	 DWORD PTR _pkInstTarget$2$[esp+92], edi

; 542  : 		}
; 543  : 
; 544  : 		if (pkInstTarget)

  001c4	85 ff		 test	 edi, edi
  001c6	0f 85 df 00 00
	00		 jne	 $LN185@UseSkill

; 615  : 				}
; 616  : 			}
; 617  : 		}
; 618  : 		else
; 619  : 		{
; 620  : 			if (pSkillData->IsAutoSearchTarget())

  001cc	8b 4c 24 14	 mov	 ecx, DWORD PTR _pSkillData$[esp+92]
  001d0	e8 00 00 00 00	 call	 ?IsAutoSearchTarget@SSkillData@CPythonSkill@@QAEHXZ ; CPythonSkill::SSkillData::IsAutoSearchTarget
  001d5	85 c0		 test	 eax, eax
  001d7	0f 84 8c 00 00
	00		 je	 $LN190@UseSkill

; 621  : 			{
; 622  : 				if (pkInstMain->NEW_GetFrontInstance(&pkInstTarget, 2000.0f))

  001dd	f3 0f 10 15 00
	00 00 00	 movss	 xmm2, DWORD PTR __real@44fa0000
  001e5	8d 44 24 1c	 lea	 eax, DWORD PTR _pkInstTarget$[esp+92]
  001e9	50		 push	 eax
  001ea	8b ce		 mov	 ecx, esi
  001ec	e8 00 00 00 00	 call	 ?NEW_GetFrontInstance@CInstanceBase@@QAE_NPAPAV1@M@Z ; CInstanceBase::NEW_GetFrontInstance
  001f1	84 c0		 test	 al, al
  001f3	74 6a		 je	 SHORT $LN36@UseSkill

; 623  : 				{
; 624  : 					SetTarget(pkInstTarget->GetVirtualID());

  001f5	8b 74 24 0c	 mov	 esi, DWORD PTR tv828[esp+92]
  001f9	8b 7c 24 1c	 mov	 edi, DWORD PTR _pkInstTarget$[esp+92]
  001fd	8b cf		 mov	 ecx, edi
  001ff	6a 01		 push	 1
  00201	8b 36		 mov	 esi, DWORD PTR [esi]
  00203	e8 00 00 00 00	 call	 ?GetVirtualID@CInstanceBase@@QAEKXZ ; CInstanceBase::GetVirtualID
  00208	8b 4c 24 10	 mov	 ecx, DWORD PTR tv828[esp+96]
  0020c	50		 push	 eax
  0020d	ff 56 60	 call	 DWORD PTR [esi+96]

; 625  : 					if (!__ProcessEnemySkillTargetRange(*pkInstMain, *pkInstTarget, *pSkillData, dwSlotIndex))

  00210	ff 74 24 28	 push	 DWORD PTR _dwSlotIndex$GSCopy$1$[esp+92]
  00214	8b 44 24 18	 mov	 eax, DWORD PTR _pSkillData$[esp+96]
  00218	8b 74 24 24	 mov	 esi, DWORD PTR _pkInstMain$1$[esp+96]
  0021c	50		 push	 eax
  0021d	57		 push	 edi
  0021e	8b 7c 24 1c	 mov	 edi, DWORD PTR _this$GSCopy$1$[esp+104]
  00222	8b cf		 mov	 ecx, edi
  00224	56		 push	 esi
  00225	e8 00 00 00 00	 call	 ?__ProcessEnemySkillTargetRange@CPythonPlayer@@IAE_NAAVCInstanceBase@@0AAUSSkillData@CPythonSkill@@K@Z ; CPythonPlayer::__ProcessEnemySkillTargetRange
  0022a	84 c0		 test	 al, al
  0022c	0f 84 80 05 00
	00		 je	 $LN197@UseSkill
  00232	8b 4c 24 14	 mov	 ecx, DWORD PTR _pSkillData$[esp+92]
$LN34@UseSkill:

; 632  : 				}
; 633  : 			}
; 634  : 
; 635  : 			if (pSkillData->CanUseForMe())

  00236	e8 00 00 00 00	 call	 ?CanUseForMe@SSkillData@CPythonSkill@@QAEHXZ ; CPythonSkill::SSkillData::CanUseForMe
  0023b	85 c0		 test	 eax, eax
  0023d	74 30		 je	 SHORT $LN33@UseSkill

; 636  : 			{
; 637  : 				pkInstTarget = pkInstMain;

  0023f	8b fe		 mov	 edi, esi

; 638  : 				pkInstMain->SetFlyTargetInstance(*pkInstMain);

  00241	8b ce		 mov	 ecx, esi
  00243	56		 push	 esi
  00244	89 7c 24 28	 mov	 DWORD PTR _pkInstTarget$2$[esp+96], edi
  00248	e8 00 00 00 00	 call	 ?SetFlyTargetInstance@CInstanceBase@@QAEXAAV1@@Z ; CInstanceBase::SetFlyTargetInstance

; 639  : 				Tracef(" [ALERT] 타겟이 없어서 플레이어에게 사용합니다\n");

  0024d	68 00 00 00 00	 push	 OFFSET ??_C@_0DA@NPBLPNPC@?5?$FLALERT?$FN?5?E?$LI?$LA?Y?$MA?L?5?$LO?x?$LO?n?$LM?$KN?5?G?C?$LH?$LJ?$MA?L?$LO?n?$LP@
  00252	e8 00 00 00 00	 call	 ?Tracef@@YAXPBDZZ	; Tracef
  00257	83 c4 04	 add	 esp, 4
  0025a	e9 89 01 00 00	 jmp	 $LN30@UseSkill
$LN36@UseSkill:

; 626  : 						return false;
; 627  : 				}
; 628  : 				else
; 629  : 				{
; 630  : 					PyCallClassMemberFunc(m_ppyGameWindow, "OnCannotUseSkill", Py_BuildValue("(is)", GetMainCharacterIndex(), "NEED_TARGET"));

  0025f	68 00 00 00 00	 push	 OFFSET ??_C@_0M@HCIEKIGP@NEED_TARGET?$AA@

; 631  : 					return false;

  00264	e9 1a 05 00 00	 jmp	 $LN200@UseSkill
$LN190@UseSkill:
  00269	8b 7c 24 10	 mov	 edi, DWORD PTR _this$GSCopy$1$[esp+92]
  0026d	eb c7		 jmp	 SHORT $LN34@UseSkill
$LN33@UseSkill:

; 640  : 			}
; 641  : 			else if (pSkillData->IsNeedCorpse())

  0026f	e8 00 00 00 00	 call	 ?IsNeedCorpse@SSkillData@CPythonSkill@@QAEHXZ ; CPythonSkill::SSkillData::IsNeedCorpse

; 642  : 			{
; 643  : 				PyCallClassMemberFunc(m_ppyGameWindow, "OnCannotUseSkill", Py_BuildValue("(is)", GetMainCharacterIndex(), "ONLY_FOR_CORPSE"));

  00274	8d 4f 04	 lea	 ecx, DWORD PTR [edi+4]
  00277	85 c0		 test	 eax, eax
  00279	8b 01		 mov	 eax, DWORD PTR [ecx]
  0027b	8b 40 04	 mov	 eax, DWORD PTR [eax+4]
  0027e	74 24		 je	 SHORT $LN31@UseSkill
  00280	68 00 00 00 00	 push	 OFFSET ??_C@_0BA@FPMNLALM@ONLY_FOR_CORPSE?$AA@
$LN204@UseSkill:
  00285	ff d0		 call	 eax
  00287	50		 push	 eax
  00288	68 00 00 00 00	 push	 OFFSET ??_C@_04JMLDJNEM@?$CIis?$CJ?$AA@
  0028d	ff 15 00 00 00
	00		 call	 DWORD PTR __imp__Py_BuildValue
  00293	83 c4 0c	 add	 esp, 12			; 0000000cH
  00296	50		 push	 eax
  00297	68 00 00 00 00	 push	 OFFSET ??_C@_0BB@BOHMBBJL@OnCannotUseSkill?$AA@
  0029c	ff 77 08	 push	 DWORD PTR [edi+8]

; 644  : 				return false;

  0029f	e9 06 05 00 00	 jmp	 $LN201@UseSkill
$LN31@UseSkill:

; 645  : 			}
; 646  : 			else
; 647  : 			{
; 648  : 				PyCallClassMemberFunc(m_ppyGameWindow, "OnCannotUseSkill", Py_BuildValue("(is)", GetMainCharacterIndex(), "NEED_TARGET"));

  002a4	68 00 00 00 00	 push	 OFFSET ??_C@_0M@HCIEKIGP@NEED_TARGET?$AA@

; 649  : 				return false;

  002a9	eb da		 jmp	 SHORT $LN204@UseSkill
$LN185@UseSkill:

; 545  : 		{
; 546  : 			if (pSkillData->IsOnlyForAlliance())

  002ab	8b 4c 24 14	 mov	 ecx, DWORD PTR _pSkillData$[esp+92]
  002af	e8 00 00 00 00	 call	 ?IsOnlyForAlliance@SSkillData@CPythonSkill@@QAEHXZ ; CPythonSkill::SSkillData::IsOnlyForAlliance
  002b4	85 c0		 test	 eax, eax
  002b6	0f 84 c5 00 00
	00		 je	 $LN56@UseSkill

; 547  : 			{
; 548  : 				if (pkInstMain == pkInstTarget)

  002bc	3b f7		 cmp	 esi, edi
  002be	75 17		 jne	 SHORT $LN55@UseSkill

; 549  : 				{
; 550  : 					if (!pSkillData->CanUseForMe())

  002c0	e8 00 00 00 00	 call	 ?CanUseForMe@SSkillData@CPythonSkill@@QAEHXZ ; CPythonSkill::SSkillData::CanUseForMe
  002c5	85 c0		 test	 eax, eax
  002c7	0f 85 f5 00 00
	00		 jne	 $LN43@UseSkill

; 551  : 					{
; 552  : 						PyCallClassMemberFunc(m_ppyGameWindow, "OnCannotUseSkill", Py_BuildValue("(is)", GetMainCharacterIndex(), "CANNOT_USE_SELF"));

  002cd	68 00 00 00 00	 push	 OFFSET ??_C@_0BA@GMGJKDGM@CANNOT_USE_SELF?$AA@

; 553  : 						return false;

  002d2	e9 ac 04 00 00	 jmp	 $LN200@UseSkill
$LN55@UseSkill:

; 554  : 					}
; 555  : 				}
; 556  : 				else if (!pkInstMain->IsAttackableInstance(*pkInstTarget) && pkInstTarget->IsPC())

  002d7	57		 push	 edi
  002d8	8b ce		 mov	 ecx, esi
  002da	e8 00 00 00 00	 call	 ?IsAttackableInstance@CInstanceBase@@QAE_NAAV1@@Z ; CInstanceBase::IsAttackableInstance
  002df	84 c0		 test	 al, al
  002e1	75 72		 jne	 SHORT $LN52@UseSkill
  002e3	8b cf		 mov	 ecx, edi
  002e5	e8 00 00 00 00	 call	 ?IsPC@CInstanceBase@@QAEHXZ ; CInstanceBase::IsPC
  002ea	85 c0		 test	 eax, eax
  002ec	74 67		 je	 SHORT $LN52@UseSkill

; 557  : 				{
; 558  : 					DWORD dwSkillRange = __GetSkillTargetRange(*pSkillData);

  002ee	8b 44 24 14	 mov	 eax, DWORD PTR _pSkillData$[esp+92]
  002f2	8b 4c 24 10	 mov	 ecx, DWORD PTR _this$GSCopy$1$[esp+92]
  002f6	50		 push	 eax
  002f7	e8 00 00 00 00	 call	 ?__GetSkillTargetRange@CPythonPlayer@@IAEKAAUSSkillData@CPythonSkill@@@Z ; CPythonPlayer::__GetSkillTargetRange
  002fc	89 44 24 18	 mov	 DWORD PTR _dwSkillRange$1$[esp+92], eax

; 559  : 
; 560  : 					if (dwSkillRange > 0)

  00300	85 c0		 test	 eax, eax
  00302	0f 84 ba 00 00
	00		 je	 $LN43@UseSkill

; 561  : 					{
; 562  : 						float fDistance=pkInstMain->GetDistance(pkInstTarget);

  00308	57		 push	 edi
  00309	8b ce		 mov	 ecx, esi
  0030b	e8 00 00 00 00	 call	 ?GetDistance@CInstanceBase@@QAEMPAV1@@Z ; CInstanceBase::GetDistance

; 563  : 						if (fDistance>=float(dwSkillRange))

  00310	8b 4c 24 18	 mov	 ecx, DWORD PTR _dwSkillRange$1$[esp+92]
  00314	0f 28 d0	 movaps	 xmm2, xmm0
  00317	8b c1		 mov	 eax, ecx
  00319	c1 e8 1f	 shr	 eax, 31			; 0000001fH
  0031c	66 0f 6e c9	 movd	 xmm1, ecx
  00320	f3 0f e6 c9	 cvtdq2pd xmm1, xmm1
  00324	f2 0f 58 0c c5
	00 00 00 00	 addsd	 xmm1, QWORD PTR __xmm@41f00000000000000000000000000000[eax*8]
  0032d	66 0f 5a c1	 cvtpd2ps xmm0, xmm1
  00331	0f 2f d0	 comiss	 xmm2, xmm0
  00334	0f 82 88 00 00
	00		 jb	 $LN43@UseSkill

; 564  : 						{
; 565  : 							__ReserveUseSkill(pkInstTarget->GetVirtualID(), dwSlotIndex, dwSkillRange);

  0033a	51		 push	 ecx
  0033b	ff 74 24 2c	 push	 DWORD PTR _dwSlotIndex$GSCopy$1$[esp+96]
  0033f	8b cf		 mov	 ecx, edi
  00341	e8 00 00 00 00	 call	 ?GetVirtualID@CInstanceBase@@QAEKXZ ; CInstanceBase::GetVirtualID
  00346	8b 4c 24 18	 mov	 ecx, DWORD PTR _this$GSCopy$1$[esp+100]
  0034a	50		 push	 eax
  0034b	e8 00 00 00 00	 call	 ?__ReserveUseSkill@CPythonPlayer@@IAEXKKK@Z ; CPythonPlayer::__ReserveUseSkill

; 566  : 							return false;

  00350	e9 5d 04 00 00	 jmp	 $LN197@UseSkill
$LN52@UseSkill:

; 567  : 						}
; 568  : 					}
; 569  : 				}
; 570  : 				else
; 571  : 				{
; 572  : 					if (pSkillData->CanUseForMe())

  00355	8b 4c 24 14	 mov	 ecx, DWORD PTR _pSkillData$[esp+92]
  00359	e8 00 00 00 00	 call	 ?CanUseForMe@SSkillData@CPythonSkill@@QAEHXZ ; CPythonSkill::SSkillData::CanUseForMe
  0035e	85 c0		 test	 eax, eax
  00360	74 15		 je	 SHORT $LN48@UseSkill

; 573  : 					{
; 574  : 						pkInstTarget = pkInstMain;

  00362	8b fe		 mov	 edi, esi

; 575  : 						Tracef(" [ALERT] 동료에게 사용하는 기술임에도 적에게 타겟팅 되어있어서 자신에게로 재설정\n");

  00364	68 00 00 00 00	 push	 OFFSET ??_C@_0FC@NMOECDOK@?5?$FLALERT?$FN?5?$LF?$LP?$LH?a?$LP?$KB?$LA?T?5?$LL?g?$LP?k?G?O?$LE?B?5?$LB?b?$LM?z?$MA@
  00369	89 7c 24 28	 mov	 DWORD PTR _pkInstTarget$2$[esp+96], edi
  0036d	e8 00 00 00 00	 call	 ?Tracef@@YAXPBDZZ	; Tracef
  00372	83 c4 04	 add	 esp, 4

; 581  : 					}
; 582  : 				}
; 583  : 			}
; 584  : 			else

  00375	eb 4b		 jmp	 SHORT $LN43@UseSkill
$LN48@UseSkill:

; 576  : 					}
; 577  : 					else
; 578  : 					{
; 579  : 						PyCallClassMemberFunc(m_ppyGameWindow, "OnCannotUseSkill", Py_BuildValue("(is)", GetMainCharacterIndex(), "ONLY_FOR_ALLIANCE"));

  00377	68 00 00 00 00	 push	 OFFSET ??_C@_0BC@CKDFNGK@ONLY_FOR_ALLIANCE?$AA@

; 580  : 						return false;

  0037c	e9 02 04 00 00	 jmp	 $LN200@UseSkill
$LN56@UseSkill:

; 585  : 			{
; 586  : 				if (pkInstTarget->IsInSafe())

  00381	8b cf		 mov	 ecx, edi
  00383	e8 00 00 00 00	 call	 ?IsInSafe@CInstanceBase@@QAEHXZ ; CInstanceBase::IsInSafe
  00388	85 c0		 test	 eax, eax
  0038a	74 0a		 je	 SHORT $LN45@UseSkill

; 587  : 				{
; 588  : 					PyCallClassMemberFunc(m_ppyGameWindow, "OnCannotUseSkill", Py_BuildValue("(is)", GetMainCharacterIndex(), "CANNOT_ATTACK_ENEMY_IN_SAFE_AREA"));

  0038c	68 00 00 00 00	 push	 OFFSET ??_C@_0CB@HEDIGIHC@CANNOT_ATTACK_ENEMY_IN_SAFE_AREA@

; 589  : 					return false;

  00391	e9 ed 03 00 00	 jmp	 $LN200@UseSkill
$LN45@UseSkill:

; 590  : 				}
; 591  : 
; 592  : 				if (pkInstMain->IsAttackableInstance(*pkInstTarget))

  00396	57		 push	 edi
  00397	8b ce		 mov	 ecx, esi
  00399	e8 00 00 00 00	 call	 ?IsAttackableInstance@CInstanceBase@@QAE_NAAV1@@Z ; CInstanceBase::IsAttackableInstance
  0039e	84 c0		 test	 al, al
  003a0	0f 84 d8 03 00
	00		 je	 $LN44@UseSkill

; 593  : 				{
; 594  : 					if (!__ProcessEnemySkillTargetRange(*pkInstMain, *pkInstTarget, *pSkillData, dwSlotIndex))

  003a6	ff 74 24 28	 push	 DWORD PTR _dwSlotIndex$GSCopy$1$[esp+92]
  003aa	8b 44 24 18	 mov	 eax, DWORD PTR _pSkillData$[esp+96]
  003ae	8b 4c 24 14	 mov	 ecx, DWORD PTR _this$GSCopy$1$[esp+96]
  003b2	50		 push	 eax
  003b3	57		 push	 edi
  003b4	56		 push	 esi
  003b5	e8 00 00 00 00	 call	 ?__ProcessEnemySkillTargetRange@CPythonPlayer@@IAE_NAAVCInstanceBase@@0AAUSSkillData@CPythonSkill@@K@Z ; CPythonPlayer::__ProcessEnemySkillTargetRange
  003ba	84 c0		 test	 al, al
  003bc	0f 84 f0 03 00
	00		 je	 $LN197@UseSkill
$LN43@UseSkill:

; 601  : 				}
; 602  : 			}
; 603  : 
; 604  : 			pkInstMain->SetFlyTargetInstance(*pkInstTarget);

  003c2	57		 push	 edi
  003c3	8b ce		 mov	 ecx, esi
  003c5	e8 00 00 00 00	 call	 ?SetFlyTargetInstance@CInstanceBase@@QAEXAAV1@@Z ; CInstanceBase::SetFlyTargetInstance

; 605  : 
; 606  : 			if (pkInstMain != pkInstTarget)

  003ca	3b f7		 cmp	 esi, edi
  003cc	74 1a		 je	 SHORT $LN30@UseSkill

; 607  : 			{
; 608  : 				if (pkInstMain->IsFlyTargetObject())

  003ce	8b ce		 mov	 ecx, esi
  003d0	e8 00 00 00 00	 call	 ?IsFlyTargetObject@CInstanceBase@@QAE_NXZ ; CInstanceBase::IsFlyTargetObject

; 609  : 				{
; 610  : 					pkInstMain->NEW_LookAtFlyTarget();

  003d5	8b ce		 mov	 ecx, esi
  003d7	84 c0		 test	 al, al
  003d9	74 07		 je	 SHORT $LN40@UseSkill
  003db	e8 00 00 00 00	 call	 ?NEW_LookAtFlyTarget@CInstanceBase@@QAEXXZ ; CInstanceBase::NEW_LookAtFlyTarget

; 611  : 				}
; 612  : 				else

  003e0	eb 06		 jmp	 SHORT $LN30@UseSkill
$LN40@UseSkill:

; 613  : 				{
; 614  : 					pkInstMain->NEW_LookAtDestInstance(*pkInstTarget);

  003e2	57		 push	 edi
  003e3	e8 00 00 00 00	 call	 ?NEW_LookAtDestInstance@CInstanceBase@@QAEXAAV1@@Z ; CInstanceBase::NEW_LookAtDestInstance
$LN30@UseSkill:

; 650  : 			}
; 651  : 		}
; 652  : 	}
; 653  : 
; 654  : 	if (pSkillData->CanChangeDirection())

  003e8	8b 4c 24 14	 mov	 ecx, DWORD PTR _pSkillData$[esp+92]
  003ec	e8 00 00 00 00	 call	 ?CanChangeDirection@SSkillData@CPythonSkill@@QAEHXZ ; CPythonSkill::SSkillData::CanChangeDirection
  003f1	85 c0		 test	 eax, eax
  003f3	74 64		 je	 SHORT $LN22@UseSkill

; 655  : 	{
; 656  : 		DWORD dwPickedActorID;
; 657  : 		TPixelPosition kPPosPickedGround;
; 658  : 
; 659  : 		if (pkInstTarget && pkInstTarget!=pkInstMain)

  003f5	85 ff		 test	 edi, edi
  003f7	74 0e		 je	 SHORT $LN28@UseSkill
  003f9	3b fe		 cmp	 edi, esi
  003fb	74 0a		 je	 SHORT $LN28@UseSkill

; 660  : 		{
; 661  : 			pkInstMain->NEW_LookAtDestInstance(*pkInstTarget);

  003fd	57		 push	 edi
  003fe	8b ce		 mov	 ecx, esi
  00400	e8 00 00 00 00	 call	 ?NEW_LookAtDestInstance@CInstanceBase@@QAEXAAV1@@Z ; CInstanceBase::NEW_LookAtDestInstance
  00405	eb 52		 jmp	 SHORT $LN22@UseSkill
$LN28@UseSkill:

; 662  : 		}
; 663  : 		else if (__GetPickedActorID(&dwPickedActorID))

  00407	8d 44 24 18	 lea	 eax, DWORD PTR _dwPickedActorID$2[esp+92]
  0040b	50		 push	 eax
  0040c	e8 00 00 00 00	 call	 ?__GetPickedActorID@CPythonPlayer@@IAE_NPAK@Z ; CPythonPlayer::__GetPickedActorID
  00411	84 c0		 test	 al, al
  00413	74 17		 je	 SHORT $LN26@UseSkill

; 664  : 		{
; 665  : 			CInstanceBase* pkInstVictim=NEW_FindActorPtr(dwPickedActorID);

  00415	ff 74 24 18	 push	 DWORD PTR _dwPickedActorID$2[esp+92]
  00419	e8 00 00 00 00	 call	 ?NEW_FindActorPtr@CPythonPlayer@@QAEPAVCInstanceBase@@K@Z ; CPythonPlayer::NEW_FindActorPtr

; 666  : 			if (pkInstVictim)

  0041e	85 c0		 test	 eax, eax
  00420	74 37		 je	 SHORT $LN22@UseSkill

; 667  : 				pkInstMain->NEW_LookAtDestInstance(*pkInstVictim);

  00422	50		 push	 eax
  00423	8b ce		 mov	 ecx, esi
  00425	e8 00 00 00 00	 call	 ?NEW_LookAtDestInstance@CInstanceBase@@QAEXAAV1@@Z ; CInstanceBase::NEW_LookAtDestInstance

; 668  : 		}

  0042a	eb 2d		 jmp	 SHORT $LN22@UseSkill
$LN26@UseSkill:

; 669  : 		else if (__GetPickedGroundPos(&kPPosPickedGround))

  0042c	8d 44 24 30	 lea	 eax, DWORD PTR _kPPosPickedGround$4[esp+92]
  00430	50		 push	 eax
  00431	e8 00 00 00 00	 call	 ?__GetPickedGroundPos@CPythonPlayer@@IAE_NPAUD3DXVECTOR3@@@Z ; CPythonPlayer::__GetPickedGroundPos
  00436	84 c0		 test	 al, al
  00438	74 0e		 je	 SHORT $LN23@UseSkill

; 670  : 		{
; 671  : 			pkInstMain->NEW_LookAtDestPixelPosition(kPPosPickedGround);

  0043a	8d 44 24 30	 lea	 eax, DWORD PTR _kPPosPickedGround$4[esp+92]
  0043e	8b ce		 mov	 ecx, esi
  00440	50		 push	 eax
  00441	e8 00 00 00 00	 call	 ?NEW_LookAtDestPixelPosition@CInstanceBase@@QAEXABUD3DXVECTOR3@@@Z ; CInstanceBase::NEW_LookAtDestPixelPosition

; 672  : 		}
; 673  : 		else

  00446	eb 11		 jmp	 SHORT $LN22@UseSkill
$LN23@UseSkill:

; 674  : 		{
; 675  : 			Tracenf("CPythonPlayer::__UseSkill(%d) - 화면 기준 방향 설정을 해야함", dwSlotIndex);

  00448	ff 74 24 28	 push	 DWORD PTR _dwSlotIndex$GSCopy$1$[esp+92]
  0044c	68 00 00 00 00	 push	 OFFSET ??_C@_0DN@DLLIDDMA@CPythonPlayer?3?3__UseSkill?$CI?$CFd?$CJ?5?9?5@
  00451	e8 00 00 00 00	 call	 ?Tracenf@@YAXPBDZZ	; Tracenf
  00456	83 c4 08	 add	 esp, 8
$LN22@UseSkill:

; 676  : 		}
; 677  : 	}
; 678  : 
; 679  : 	// 관격술 처리
; 680  : 	DWORD dwTargetMaxCount = pSkillData->GetTargetCount(rkSkillInst.fcurEfficientPercentage);

  00459	8b 44 24 10	 mov	 eax, DWORD PTR _this$GSCopy$1$[esp+92]
  0045d	8b 4c 24 2c	 mov	 ecx, DWORD PTR tv816[esp+92]
  00461	f3 0f 10 4c c8
	10		 movss	 xmm1, DWORD PTR [eax+ecx*8+16]
  00467	8b 4c 24 14	 mov	 ecx, DWORD PTR _pSkillData$[esp+92]
  0046b	e8 00 00 00 00	 call	 ?GetTargetCount@SSkillData@CPythonSkill@@QAEKM@Z ; CPythonSkill::SSkillData::GetTargetCount

; 681  : 	DWORD dwRange = __GetSkillTargetRange(*pSkillData);

  00470	ff 74 24 14	 push	 DWORD PTR _pSkillData$[esp+92]
  00474	8b 4c 24 14	 mov	 ecx, DWORD PTR _this$GSCopy$1$[esp+96]
  00478	89 44 24 10	 mov	 DWORD PTR _dwTargetMaxCount$1$[esp+96], eax
  0047c	e8 00 00 00 00	 call	 ?__GetSkillTargetRange@CPythonPlayer@@IAEKAAUSSkillData@CPythonSkill@@@Z ; CPythonPlayer::__GetSkillTargetRange

; 682  : 	if (dwTargetMaxCount>0 && pkInstTarget)

  00481	83 7c 24 0c 00	 cmp	 DWORD PTR _dwTargetMaxCount$1$[esp+92], 0
  00486	89 44 24 18	 mov	 DWORD PTR _dwRange$1$[esp+92], eax
  0048a	0f 86 48 02 00
	00		 jbe	 $LN21@UseSkill
  00490	85 ff		 test	 edi, edi
  00492	0f 84 40 02 00
	00		 je	 $LN21@UseSkill

; 684  : 		DWORD dwTargetCount=1;

  00498	ba 01 00 00 00	 mov	 edx, 1
; File c:\program files (x86)\microsoft visual studio 12.0\vc\include\vector

; 482  : 		_Myfirst = pointer();

  0049d	c7 44 24 30 00
	00 00 00	 mov	 DWORD PTR _kVct_pkInstTarget$3[esp+92], 0
; File d:\metin2\metin2\client_source_clean\client_source_clean\source\userinterface\pythonplayerskill.cpp

; 684  : 		DWORD dwTargetCount=1;

  004a5	89 54 24 1c	 mov	 DWORD PTR _dwTargetCount$1$[esp+92], edx
; File c:\program files (x86)\microsoft visual studio 12.0\vc\include\vector

; 483  : 		_Mylast = pointer();

  004a9	c7 44 24 34 00
	00 00 00	 mov	 DWORD PTR _kVct_pkInstTarget$3[esp+96], 0

; 484  : 		_Myend = pointer();

  004b1	c7 44 24 38 00
	00 00 00	 mov	 DWORD PTR _kVct_pkInstTarget$3[esp+100], 0
; File d:\metin2\metin2\client_source_clean\client_source_clean\source\userinterface\pythonplayerskill.cpp

; 685  : 		std::vector<CInstanceBase*> kVct_pkInstTarget;

  004b9	c7 44 24 58 00
	00 00 00	 mov	 DWORD PTR __$EHRec$[esp+100], 0

; 686  : 
; 687  : 		if (pSkillData->IsFanRange())

  004c1	8b 4c 24 14	 mov	 ecx, DWORD PTR _pSkillData$[esp+92]
  004c5	e8 00 00 00 00	 call	 ?IsFanRange@SSkillData@CPythonSkill@@QAEHXZ ; CPythonSkill::SSkillData::IsFanRange
  004ca	85 c0		 test	 eax, eax
  004cc	0f 84 c7 00 00
	00		 je	 $LN20@UseSkill

; 688  : 		{
; 689  : 			if (pkInstMain->NEW_GetInstanceVectorInFanRange(float(dwRange), *pkInstTarget, &kVct_pkInstTarget))

  004d2	8d 44 24 30	 lea	 eax, DWORD PTR _kVct_pkInstTarget$3[esp+92]
  004d6	8b ce		 mov	 ecx, esi
  004d8	50		 push	 eax
  004d9	8b 44 24 1c	 mov	 eax, DWORD PTR _dwRange$1$[esp+96]
  004dd	57		 push	 edi
  004de	66 0f 6e c0	 movd	 xmm0, eax
  004e2	f3 0f e6 c0	 cvtdq2pd xmm0, xmm0
  004e6	c1 e8 1f	 shr	 eax, 31			; 0000001fH
  004e9	f2 0f 58 04 c5
	00 00 00 00	 addsd	 xmm0, QWORD PTR __xmm@41f00000000000000000000000000000[eax*8]
  004f2	66 0f 5a c8	 cvtpd2ps xmm1, xmm0
  004f6	e8 00 00 00 00	 call	 ?NEW_GetInstanceVectorInFanRange@CInstanceBase@@QAE_NMAAV1@PAV?$vector@PAVCInstanceBase@@V?$allocator@PAVCInstanceBase@@@std@@@std@@@Z ; CInstanceBase::NEW_GetInstanceVectorInFanRange
  004fb	84 c0		 test	 al, al
  004fd	0f 84 6d 01 00
	00		 je	 $LN195@UseSkill

; 692  : 				for (i=kVct_pkInstTarget.begin(); i!=kVct_pkInstTarget.end(); ++i)

  00503	8b 74 24 30	 mov	 esi, DWORD PTR _kVct_pkInstTarget$3[esp+92]
  00507	ba 01 00 00 00	 mov	 edx, 1
; File c:\program files (x86)\microsoft visual studio 12.0\vc\include\vector

; 205  : 		return (this->_Ptr == _Right._Ptr);

  0050c	3b 74 24 34	 cmp	 esi, DWORD PTR _kVct_pkInstTarget$3[esp+96]
; File d:\metin2\metin2\client_source_clean\client_source_clean\source\userinterface\pythonplayerskill.cpp

; 692  : 				for (i=kVct_pkInstTarget.begin(); i!=kVct_pkInstTarget.end(); ++i)

  00510	74 7e		 je	 SHORT $LN187@UseSkill
  00512	8b 44 24 0c	 mov	 eax, DWORD PTR _dwTargetMaxCount$1$[esp+92]
$LL108@UseSkill:

; 693  : 				{
; 694  : 					if (dwTargetCount>=dwTargetMaxCount)

  00516	3b d0		 cmp	 edx, eax
  00518	0f 83 a9 01 00
	00		 jae	 $LN3@UseSkill

; 695  : 						break;
; 696  : 
; 697  : 					CInstanceBase* pkInstEach=*i;

  0051e	8b 0e		 mov	 ecx, DWORD PTR [esi]
  00520	89 4c 24 18	 mov	 DWORD PTR _pkInstEach$1$[esp+92], ecx

; 698  : 
; 699  : 					if (pkInstTarget!=pkInstEach && !pkInstEach->IsDead())

  00524	3b f9		 cmp	 edi, ecx
  00526	74 5f		 je	 SHORT $LN17@UseSkill
  00528	e8 00 00 00 00	 call	 ?IsDead@CInstanceBase@@QAEHXZ ; CInstanceBase::IsDead
  0052d	85 c0		 test	 eax, eax
  0052f	75 4e		 jne	 SHORT $LN192@UseSkill

; 700  : 					{
; 701  : 						pkInstMain->AddFlyTargetInstance(*pkInstEach);

  00531	8b 7c 24 18	 mov	 edi, DWORD PTR _pkInstEach$1$[esp+92]
  00535	8b 4c 24 20	 mov	 ecx, DWORD PTR _pkInstMain$1$[esp+92]
  00539	57		 push	 edi
  0053a	e8 00 00 00 00	 call	 ?AddFlyTargetInstance@CInstanceBase@@QAEXAAV1@@Z ; CInstanceBase::AddFlyTargetInstance

; 702  : 						CPythonNetworkStream::Instance().SendAddFlyTargetingPacket(pkInstEach->GetVirtualID(), pkInstEach->GetGraphicThingInstanceRef().OnGetFlyTargetPosition());

  0053f	8b cf		 mov	 ecx, edi
  00541	e8 00 00 00 00	 call	 ?GetGraphicThingInstanceRef@CInstanceBase@@QAEAAVCActorInstance@@XZ ; CInstanceBase::GetGraphicThingInstanceRef
; File d:\metin2\metin2\client_source_clean\client_source_clean\source\eterbase\singleton.h

; 27   : 		return (*ms_singleton);

  00546	8b 3d 00 00 00
	00		 mov	 edi, DWORD PTR ?ms_singleton@?$CSingleton@VCPythonNetworkStream@@@@0PAVCPythonNetworkStream@@A ; CSingleton<CPythonNetworkStream>::ms_singleton
; File d:\metin2\metin2\client_source_clean\client_source_clean\source\userinterface\pythonplayerskill.cpp

; 702  : 						CPythonNetworkStream::Instance().SendAddFlyTargetingPacket(pkInstEach->GetVirtualID(), pkInstEach->GetGraphicThingInstanceRef().OnGetFlyTargetPosition());

  0054c	8d 54 24 3c	 lea	 edx, DWORD PTR $T7[esp+92]
  00550	52		 push	 edx
  00551	8d 88 dc 01 00
	00		 lea	 ecx, DWORD PTR [eax+476]
  00557	8b 01		 mov	 eax, DWORD PTR [ecx]
  00559	8b 40 04	 mov	 eax, DWORD PTR [eax+4]
  0055c	ff d0		 call	 eax
  0055e	8b 4c 24 18	 mov	 ecx, DWORD PTR _pkInstEach$1$[esp+92]
  00562	50		 push	 eax
  00563	e8 00 00 00 00	 call	 ?GetVirtualID@CInstanceBase@@QAEKXZ ; CInstanceBase::GetVirtualID
  00568	50		 push	 eax
  00569	8b cf		 mov	 ecx, edi
  0056b	e8 00 00 00 00	 call	 ?SendAddFlyTargetingPacket@CPythonNetworkStream@@QAE_NKABUD3DXVECTOR3@@@Z ; CPythonNetworkStream::SendAddFlyTargetingPacket

; 703  : 
; 704  : 						dwTargetCount++;

  00570	8b 54 24 1c	 mov	 edx, DWORD PTR _dwTargetCount$1$[esp+92]
  00574	8b 7c 24 24	 mov	 edi, DWORD PTR _pkInstTarget$2$[esp+92]
  00578	42		 inc	 edx
  00579	89 54 24 1c	 mov	 DWORD PTR _dwTargetCount$1$[esp+92], edx
  0057d	eb 04		 jmp	 SHORT $LN202@UseSkill
$LN192@UseSkill:
  0057f	8b 54 24 1c	 mov	 edx, DWORD PTR _dwTargetCount$1$[esp+92]
$LN202@UseSkill:
  00583	8b 44 24 0c	 mov	 eax, DWORD PTR _dwTargetMaxCount$1$[esp+92]
$LN17@UseSkill:
; File c:\program files (x86)\microsoft visual studio 12.0\vc\include\vector

; 112  : 		++this->_Ptr;

  00587	83 c6 04	 add	 esi, 4

; 205  : 		return (this->_Ptr == _Right._Ptr);

  0058a	3b 74 24 34	 cmp	 esi, DWORD PTR _kVct_pkInstTarget$3[esp+96]
; File d:\metin2\metin2\client_source_clean\client_source_clean\source\userinterface\pythonplayerskill.cpp

; 692  : 				for (i=kVct_pkInstTarget.begin(); i!=kVct_pkInstTarget.end(); ++i)

  0058e	75 86		 jne	 SHORT $LL108@UseSkill
$LN187@UseSkill:

; 705  : 					}
; 706  : 				}
; 707  : 			}
; 708  : 		}

  00590	8b 74 24 20	 mov	 esi, DWORD PTR _pkInstMain$1$[esp+92]
  00594	e9 dc 00 00 00	 jmp	 $LN174@UseSkill
$LN20@UseSkill:

; 709  : 		else if (pSkillData->IsCircleRange())

  00599	e8 00 00 00 00	 call	 ?IsCircleRange@SSkillData@CPythonSkill@@QAEHXZ ; CPythonSkill::SSkillData::IsCircleRange
  0059e	85 c0		 test	 eax, eax
  005a0	0f 84 cf 00 00
	00		 je	 $LN174@UseSkill

; 710  : 		{
; 711  : 			if (pkInstMain->NEW_GetInstanceVectorInCircleRange(float(dwRange), &kVct_pkInstTarget))

  005a6	8d 44 24 30	 lea	 eax, DWORD PTR _kVct_pkInstTarget$3[esp+92]
  005aa	8b ce		 mov	 ecx, esi
  005ac	50		 push	 eax
  005ad	8b 44 24 1c	 mov	 eax, DWORD PTR _dwRange$1$[esp+96]
  005b1	66 0f 6e c0	 movd	 xmm0, eax
  005b5	f3 0f e6 c0	 cvtdq2pd xmm0, xmm0
  005b9	c1 e8 1f	 shr	 eax, 31			; 0000001fH
  005bc	f2 0f 58 04 c5
	00 00 00 00	 addsd	 xmm0, QWORD PTR __xmm@41f00000000000000000000000000000[eax*8]
  005c5	66 0f 5a c8	 cvtpd2ps xmm1, xmm0
  005c9	e8 00 00 00 00	 call	 ?NEW_GetInstanceVectorInCircleRange@CInstanceBase@@QAE_NMPAV?$vector@PAVCInstanceBase@@V?$allocator@PAVCInstanceBase@@@std@@@std@@@Z ; CInstanceBase::NEW_GetInstanceVectorInCircleRange
  005ce	84 c0		 test	 al, al
  005d0	0f 84 9a 00 00
	00		 je	 $LN195@UseSkill

; 714  : 				for (i=kVct_pkInstTarget.begin(); i!=kVct_pkInstTarget.end(); ++i)

  005d6	8b 74 24 30	 mov	 esi, DWORD PTR _kVct_pkInstTarget$3[esp+92]
  005da	ba 01 00 00 00	 mov	 edx, 1
; File c:\program files (x86)\microsoft visual studio 12.0\vc\include\vector

; 205  : 		return (this->_Ptr == _Right._Ptr);

  005df	3b 74 24 34	 cmp	 esi, DWORD PTR _kVct_pkInstTarget$3[esp+96]
; File d:\metin2\metin2\client_source_clean\client_source_clean\source\userinterface\pythonplayerskill.cpp

; 714  : 				for (i=kVct_pkInstTarget.begin(); i!=kVct_pkInstTarget.end(); ++i)

  005e3	74 ab		 je	 SHORT $LN187@UseSkill
  005e5	8b 44 24 0c	 mov	 eax, DWORD PTR _dwTargetMaxCount$1$[esp+92]
  005e9	8d a4 24 00 00
	00 00		 npad	 7
$LL144@UseSkill:

; 715  : 				{
; 716  : 					if (dwTargetCount>=dwTargetMaxCount)

  005f0	3b d0		 cmp	 edx, eax
  005f2	0f 83 cf 00 00
	00		 jae	 $LN3@UseSkill

; 717  : 						break;
; 718  : 
; 719  : 					CInstanceBase* pkInstEach=*i;

  005f8	8b 0e		 mov	 ecx, DWORD PTR [esi]
  005fa	89 4c 24 18	 mov	 DWORD PTR _pkInstEach$1$[esp+92], ecx

; 720  : 
; 721  : 					if (pkInstTarget!=pkInstEach && !pkInstEach->IsDead())

  005fe	3b f9		 cmp	 edi, ecx
  00600	74 5f		 je	 SHORT $LN9@UseSkill
  00602	e8 00 00 00 00	 call	 ?IsDead@CInstanceBase@@QAEHXZ ; CInstanceBase::IsDead
  00607	85 c0		 test	 eax, eax
  00609	75 4e		 jne	 SHORT $LN193@UseSkill

; 722  : 					{
; 723  : 						pkInstMain->AddFlyTargetInstance(*pkInstEach);

  0060b	8b 7c 24 18	 mov	 edi, DWORD PTR _pkInstEach$1$[esp+92]
  0060f	8b 4c 24 20	 mov	 ecx, DWORD PTR _pkInstMain$1$[esp+92]
  00613	57		 push	 edi
  00614	e8 00 00 00 00	 call	 ?AddFlyTargetInstance@CInstanceBase@@QAEXAAV1@@Z ; CInstanceBase::AddFlyTargetInstance

; 724  : 						CPythonNetworkStream::Instance().SendAddFlyTargetingPacket(pkInstEach->GetVirtualID(), pkInstEach->GetGraphicThingInstanceRef().OnGetFlyTargetPosition());

  00619	8b cf		 mov	 ecx, edi
  0061b	e8 00 00 00 00	 call	 ?GetGraphicThingInstanceRef@CInstanceBase@@QAEAAVCActorInstance@@XZ ; CInstanceBase::GetGraphicThingInstanceRef
; File d:\metin2\metin2\client_source_clean\client_source_clean\source\eterbase\singleton.h

; 27   : 		return (*ms_singleton);

  00620	8b 3d 00 00 00
	00		 mov	 edi, DWORD PTR ?ms_singleton@?$CSingleton@VCPythonNetworkStream@@@@0PAVCPythonNetworkStream@@A ; CSingleton<CPythonNetworkStream>::ms_singleton
; File d:\metin2\metin2\client_source_clean\client_source_clean\source\userinterface\pythonplayerskill.cpp

; 724  : 						CPythonNetworkStream::Instance().SendAddFlyTargetingPacket(pkInstEach->GetVirtualID(), pkInstEach->GetGraphicThingInstanceRef().OnGetFlyTargetPosition());

  00626	8d 54 24 3c	 lea	 edx, DWORD PTR $T6[esp+92]
  0062a	52		 push	 edx
  0062b	8d 88 dc 01 00
	00		 lea	 ecx, DWORD PTR [eax+476]
  00631	8b 01		 mov	 eax, DWORD PTR [ecx]
  00633	8b 40 04	 mov	 eax, DWORD PTR [eax+4]
  00636	ff d0		 call	 eax
  00638	8b 4c 24 18	 mov	 ecx, DWORD PTR _pkInstEach$1$[esp+92]
  0063c	50		 push	 eax
  0063d	e8 00 00 00 00	 call	 ?GetVirtualID@CInstanceBase@@QAEKXZ ; CInstanceBase::GetVirtualID
  00642	50		 push	 eax
  00643	8b cf		 mov	 ecx, edi
  00645	e8 00 00 00 00	 call	 ?SendAddFlyTargetingPacket@CPythonNetworkStream@@QAE_NKABUD3DXVECTOR3@@@Z ; CPythonNetworkStream::SendAddFlyTargetingPacket

; 725  : 
; 726  : 						dwTargetCount++;

  0064a	8b 54 24 1c	 mov	 edx, DWORD PTR _dwTargetCount$1$[esp+92]
  0064e	8b 7c 24 24	 mov	 edi, DWORD PTR _pkInstTarget$2$[esp+92]
  00652	42		 inc	 edx
  00653	89 54 24 1c	 mov	 DWORD PTR _dwTargetCount$1$[esp+92], edx
  00657	eb 04		 jmp	 SHORT $LN203@UseSkill
$LN193@UseSkill:
  00659	8b 54 24 1c	 mov	 edx, DWORD PTR _dwTargetCount$1$[esp+92]
$LN203@UseSkill:
  0065d	8b 44 24 0c	 mov	 eax, DWORD PTR _dwTargetMaxCount$1$[esp+92]
$LN9@UseSkill:
; File c:\program files (x86)\microsoft visual studio 12.0\vc\include\vector

; 112  : 		++this->_Ptr;

  00661	83 c6 04	 add	 esi, 4

; 205  : 		return (this->_Ptr == _Right._Ptr);

  00664	3b 74 24 34	 cmp	 esi, DWORD PTR _kVct_pkInstTarget$3[esp+96]
; File d:\metin2\metin2\client_source_clean\client_source_clean\source\userinterface\pythonplayerskill.cpp

; 714  : 				for (i=kVct_pkInstTarget.begin(); i!=kVct_pkInstTarget.end(); ++i)

  00668	75 86		 jne	 SHORT $LL144@UseSkill
  0066a	8b 74 24 20	 mov	 esi, DWORD PTR _pkInstMain$1$[esp+92]
  0066e	eb 05		 jmp	 SHORT $LN174@UseSkill
$LN195@UseSkill:
  00670	ba 01 00 00 00	 mov	 edx, 1
$LN174@UseSkill:

; 727  : 					}
; 728  : 				}
; 729  : 			}
; 730  : 		}
; 731  : 
; 732  : 		if (dwTargetCount<dwTargetMaxCount)

  00675	8b 44 24 0c	 mov	 eax, DWORD PTR _dwTargetMaxCount$1$[esp+92]
  00679	3b d0		 cmp	 edx, eax
  0067b	73 4a		 jae	 SHORT $LN3@UseSkill
  0067d	2b c2		 sub	 eax, edx
  0067f	89 44 24 0c	 mov	 DWORD PTR _dwTargetMaxCount$1$[esp+92], eax
$LL4@UseSkill:

; 733  : 		{
; 734  : 			while (dwTargetCount<dwTargetMaxCount)
; 735  : 			{
; 736  : 				TPixelPosition kPPosDst;
; 737  : 				pkInstMain->NEW_GetRandomPositionInFanRange(*pkInstTarget, &kPPosDst);

  00683	8d 44 24 3c	 lea	 eax, DWORD PTR _kPPosDst$5[esp+92]
  00687	8b ce		 mov	 ecx, esi
  00689	50		 push	 eax
  0068a	57		 push	 edi
  0068b	e8 00 00 00 00	 call	 ?NEW_GetRandomPositionInFanRange@CInstanceBase@@QAEXAAV1@PAUD3DXVECTOR3@@@Z ; CInstanceBase::NEW_GetRandomPositionInFanRange

; 738  : 
; 739  : 				kPPosDst.x=kPPosDst.x;
; 740  : 				kPPosDst.y=-kPPosDst.y;

  00690	f3 0f 10 44 24
	40		 movss	 xmm0, DWORD PTR _kPPosDst$5[esp+96]

; 741  : 
; 742  : 				pkInstMain->AddFlyTargetPosition(kPPosDst);

  00696	8d 44 24 3c	 lea	 eax, DWORD PTR _kPPosDst$5[esp+92]
  0069a	0f 57 05 00 00
	00 00		 xorps	 xmm0, DWORD PTR __xmm@80000000800000008000000080000000
  006a1	8b ce		 mov	 ecx, esi
  006a3	50		 push	 eax
  006a4	f3 0f 11 44 24
	44		 movss	 DWORD PTR _kPPosDst$5[esp+100], xmm0
  006aa	e8 00 00 00 00	 call	 ?AddFlyTargetPosition@CInstanceBase@@QAEXABUD3DXVECTOR3@@@Z ; CInstanceBase::AddFlyTargetPosition

; 743  : 				CPythonNetworkStream::Instance().SendAddFlyTargetingPacket(0, kPPosDst);

  006af	8b 0d 00 00 00
	00		 mov	 ecx, DWORD PTR ?ms_singleton@?$CSingleton@VCPythonNetworkStream@@@@0PAVCPythonNetworkStream@@A ; CSingleton<CPythonNetworkStream>::ms_singleton
  006b5	8d 44 24 3c	 lea	 eax, DWORD PTR _kPPosDst$5[esp+92]
  006b9	50		 push	 eax
  006ba	6a 00		 push	 0
  006bc	e8 00 00 00 00	 call	 ?SendAddFlyTargetingPacket@CPythonNetworkStream@@QAE_NKABUD3DXVECTOR3@@@Z ; CPythonNetworkStream::SendAddFlyTargetingPacket
  006c1	ff 4c 24 0c	 dec	 DWORD PTR _dwTargetMaxCount$1$[esp+92]
  006c5	75 bc		 jne	 SHORT $LL4@UseSkill
$LN3@UseSkill:

; 744  : 
; 745  : 				dwTargetCount++;
; 746  : 			}
; 747  : 		}
; 748  : 	}

  006c7	8d 4c 24 30	 lea	 ecx, DWORD PTR _kVct_pkInstTarget$3[esp+92]
  006cb	c7 44 24 58 ff
	ff ff ff	 mov	 DWORD PTR __$EHRec$[esp+100], -1
  006d3	e8 00 00 00 00	 call	 ??1?$vector@PAVCInstanceBase@@V?$allocator@PAVCInstanceBase@@@std@@@std@@QAE@XZ ; std::vector<CInstanceBase *,std::allocator<CInstanceBase *> >::~vector<CInstanceBase *,std::allocator<CInstanceBase *> >
$LN21@UseSkill:

; 749  : 
; 750  : 	/////
; 751  : 	// NOTE : 멀리서 적을 클릭해놓고 스킬을 쓰면 스킬을 쓴뒤 바로 적을 공격하는 문제를 수정하기 위한 코드 - [levites]
; 752  : 	__ClearReservedAction();

  006d8	8b 54 24 10	 mov	 edx, DWORD PTR _this$GSCopy$1$[esp+92]
  006dc	8b ca		 mov	 ecx, edx
  006de	e8 00 00 00 00	 call	 ?__ClearReservedAction@CPythonPlayer@@IAEXXZ ; CPythonPlayer::__ClearReservedAction

; 753  : 	/////
; 754  : 
; 755  : 	if (!pSkillData->IsNoMotion())

  006e3	8b 4c 24 14	 mov	 ecx, DWORD PTR _pSkillData$[esp+92]
  006e7	e8 00 00 00 00	 call	 ?IsNoMotion@SSkillData@CPythonSkill@@QAEHXZ ; CPythonSkill::SSkillData::IsNoMotion
  006ec	85 c0		 test	 eax, eax
  006ee	75 5f		 jne	 SHORT $LN189@UseSkill

; 756  : 	{
; 757  : 		DWORD dwMotionIndex = pSkillData->GetSkillMotionIndex(rkSkillInst.iGrade);

  006f0	8b 44 24 2c	 mov	 eax, DWORD PTR tv816[esp+92]
  006f4	ff 74 c2 08	 push	 DWORD PTR [edx+eax*8+8]
  006f8	e8 00 00 00 00	 call	 ?GetSkillMotionIndex@SSkillData@CPythonSkill@@QAEKH@Z ; CPythonSkill::SSkillData::GetSkillMotionIndex
  006fd	8b f0		 mov	 esi, eax

; 758  : 		DWORD dwLoopCount = pSkillData->GetMotionLoopCount(rkSkillInst.fcurEfficientPercentage);

  006ff	8b 44 24 2c	 mov	 eax, DWORD PTR tv816[esp+92]
  00703	f3 0f 10 4c c2
	10		 movss	 xmm1, DWORD PTR [edx+eax*8+16]
  00709	e8 00 00 00 00	 call	 ?GetMotionLoopCount@SSkillData@CPythonSkill@@QAEKM@Z ; CPythonSkill::SSkillData::GetMotionLoopCount

; 759  : 		if (!pkInstMain->NEW_UseSkill(rkSkillInst.dwIndex, dwMotionIndex, dwLoopCount, pSkillData->IsMovingSkill() ? true : false))

  0070e	8b 4c 24 14	 mov	 ecx, DWORD PTR _pSkillData$[esp+92]
  00712	8b d0		 mov	 edx, eax
  00714	e8 00 00 00 00	 call	 ?IsMovingSkill@SSkillData@CPythonSkill@@QAEHXZ ; CPythonSkill::SSkillData::IsMovingSkill
  00719	85 c0		 test	 eax, eax
  0071b	8b 44 24 2c	 mov	 eax, DWORD PTR tv816[esp+92]
  0071f	0f 95 c1	 setne	 cl
  00722	0f b6 c9	 movzx	 ecx, cl
  00725	51		 push	 ecx
  00726	8b 4c 24 24	 mov	 ecx, DWORD PTR _pkInstMain$1$[esp+96]
  0072a	52		 push	 edx
  0072b	56		 push	 esi
  0072c	8b 74 24 1c	 mov	 esi, DWORD PTR _this$GSCopy$1$[esp+104]
  00730	ff 34 c6	 push	 DWORD PTR [esi+eax*8]
  00733	e8 00 00 00 00	 call	 ?NEW_UseSkill@CInstanceBase@@QAE_NIII_N@Z ; CInstanceBase::NEW_UseSkill
  00738	84 c0		 test	 al, al
  0073a	75 15		 jne	 SHORT $LN1@UseSkill

; 760  : 		{
; 761  : 			Tracenf("CPythonPlayer::__UseSkill(%d) - pkInstMain->NEW_UseSkill - ERROR", dwSlotIndex);

  0073c	ff 74 24 28	 push	 DWORD PTR _dwSlotIndex$GSCopy$1$[esp+92]
  00740	68 00 00 00 00	 push	 OFFSET ??_C@_0EB@LKBFGOEE@CPythonPlayer?3?3__UseSkill?$CI?$CFd?$CJ?5?9?5@
  00745	e8 00 00 00 00	 call	 ?Tracenf@@YAXPBDZZ	; Tracenf
  0074a	83 c4 08	 add	 esp, 8

; 762  : 			return false;

  0074d	eb 63		 jmp	 SHORT $LN197@UseSkill
$LN189@UseSkill:
  0074f	8b f2		 mov	 esi, edx
$LN1@UseSkill:

; 763  : 		}
; 764  : 	}
; 765  : 
; 766  : 	DWORD dwTargetVID=pkInstTarget ? pkInstTarget->GetVirtualID() : 0;

  00751	85 ff		 test	 edi, edi
  00753	74 17		 je	 SHORT $LN77@UseSkill
  00755	8b cf		 mov	 ecx, edi
  00757	e8 00 00 00 00	 call	 ?GetVirtualID@CInstanceBase@@QAEKXZ ; CInstanceBase::GetVirtualID

; 767  : 
; 768  : 	__SendUseSkill(dwSlotIndex, dwTargetVID);

  0075c	50		 push	 eax
  0075d	ff 74 24 2c	 push	 DWORD PTR _dwSlotIndex$GSCopy$1$[esp+96]
  00761	8b ce		 mov	 ecx, esi
  00763	e8 00 00 00 00	 call	 ?__SendUseSkill@CPythonPlayer@@IAEXKK@Z ; CPythonPlayer::__SendUseSkill

; 769  : 	return true;

  00768	b0 01		 mov	 al, 1
  0076a	eb 48		 jmp	 SHORT $LN75@UseSkill
$LN77@UseSkill:

; 763  : 		}
; 764  : 	}
; 765  : 
; 766  : 	DWORD dwTargetVID=pkInstTarget ? pkInstTarget->GetVirtualID() : 0;

  0076c	33 c0		 xor	 eax, eax

; 767  : 
; 768  : 	__SendUseSkill(dwSlotIndex, dwTargetVID);

  0076e	8b ce		 mov	 ecx, esi
  00770	50		 push	 eax
  00771	ff 74 24 2c	 push	 DWORD PTR _dwSlotIndex$GSCopy$1$[esp+96]
  00775	e8 00 00 00 00	 call	 ?__SendUseSkill@CPythonPlayer@@IAEXKK@Z ; CPythonPlayer::__SendUseSkill
$LN205@UseSkill:

; 769  : 	return true;

  0077a	b0 01		 mov	 al, 1
  0077c	eb 36		 jmp	 SHORT $LN75@UseSkill
$LN44@UseSkill:

; 595  : 						return false;
; 596  : 				}
; 597  : 				else
; 598  : 				{
; 599  : 					PyCallClassMemberFunc(m_ppyGameWindow, "OnCannotUseSkill", Py_BuildValue("(is)", GetMainCharacterIndex(), "CANNOT_ATTACK"));

  0077e	68 00 00 00 00	 push	 OFFSET ??_C@_0O@BIOLCACO@CANNOT_ATTACK?$AA@
$LN200@UseSkill:
  00783	8b 4c 24 10	 mov	 ecx, DWORD PTR tv828[esp+96]
  00787	8b 01		 mov	 eax, DWORD PTR [ecx]
  00789	8b 40 04	 mov	 eax, DWORD PTR [eax+4]
  0078c	ff d0		 call	 eax
  0078e	50		 push	 eax
  0078f	68 00 00 00 00	 push	 OFFSET ??_C@_04JMLDJNEM@?$CIis?$CJ?$AA@
  00794	ff 15 00 00 00
	00		 call	 DWORD PTR __imp__Py_BuildValue
  0079a	83 c4 0c	 add	 esp, 12			; 0000000cH
  0079d	50		 push	 eax
  0079e	8b 44 24 14	 mov	 eax, DWORD PTR _this$GSCopy$1$[esp+96]
  007a2	68 00 00 00 00	 push	 OFFSET ??_C@_0BB@BOHMBBJL@OnCannotUseSkill?$AA@
  007a7	ff 70 08	 push	 DWORD PTR [eax+8]
$LN201@UseSkill:
  007aa	e8 00 00 00 00	 call	 ?PyCallClassMemberFunc@@YA_NPAU_object@@PBD0@Z ; PyCallClassMemberFunc
  007af	83 c4 0c	 add	 esp, 12			; 0000000cH
$LN197@UseSkill:

; 600  : 					return false;

  007b2	32 c0		 xor	 al, al
$LN75@UseSkill:

; 770  : }

  007b4	8b 4c 24 50	 mov	 ecx, DWORD PTR __$EHRec$[esp+92]
  007b8	64 89 0d 00 00
	00 00		 mov	 DWORD PTR fs:0, ecx
  007bf	59		 pop	 ecx
  007c0	5f		 pop	 edi
  007c1	5e		 pop	 esi
  007c2	8b 4c 24 3c	 mov	 ecx, DWORD PTR __$ArrayPad$[esp+80]
  007c6	33 cc		 xor	 ecx, esp
  007c8	e8 00 00 00 00	 call	 @__security_check_cookie@4
  007cd	8b e5		 mov	 esp, ebp
  007cf	5d		 pop	 ebp
  007d0	c2 04 00	 ret	 4
_TEXT	ENDS
;	COMDAT text$x
text$x	SEGMENT
__unwindfunclet$?__UseSkill@CPythonPlayer@@IAE_NK@Z$0:
  00000	8d 4d d4	 lea	 ecx, DWORD PTR _kVct_pkInstTarget$3[ebp]
  00003	e9 00 00 00 00	 jmp	 ??1?$vector@PAVCInstanceBase@@V?$allocator@PAVCInstanceBase@@@std@@@std@@QAE@XZ ; std::vector<CInstanceBase *,std::allocator<CInstanceBase *> >::~vector<CInstanceBase *,std::allocator<CInstanceBase *> >
__ehhandler$?__UseSkill@CPythonPlayer@@IAE_NK@Z:
  00008	8b 54 24 08	 mov	 edx, DWORD PTR [esp+8]
  0000c	8d 42 b4	 lea	 eax, DWORD PTR [edx-76]
  0000f	8b 4a b0	 mov	 ecx, DWORD PTR [edx-80]
  00012	33 c8		 xor	 ecx, eax
  00014	e8 00 00 00 00	 call	 @__security_check_cookie@4
  00019	83 c0 08	 add	 eax, 8
  0001c	8b 4a f8	 mov	 ecx, DWORD PTR [edx-8]
  0001f	33 c8		 xor	 ecx, eax
  00021	e8 00 00 00 00	 call	 @__security_check_cookie@4
  00026	b8 00 00 00 00	 mov	 eax, OFFSET __ehfuncinfo$?__UseSkill@CPythonPlayer@@IAE_NK@Z
  0002b	e9 00 00 00 00	 jmp	 ___CxxFrameHandler3
text$x	ENDS
?__UseSkill@CPythonPlayer@@IAE_NK@Z ENDP		; CPythonPlayer::__UseSkill
; Function compile flags: /Ogtp
; File d:\metin2\metin2\client_source_clean\client_source_clean\source\userinterface\pythonplayerskill.cpp
;	COMDAT ?__UseCurrentSkill@CPythonPlayer@@IAEXXZ
_TEXT	SEGMENT
?__UseCurrentSkill@CPythonPlayer@@IAEXXZ PROC		; CPythonPlayer::__UseCurrentSkill, COMDAT
; _this$ = ecx

; 388  : 	__UseSkill(m_dwcurSkillSlotIndex);

  00000	ff b1 74 09 01
	00		 push	 DWORD PTR [ecx+67956]
  00006	e8 00 00 00 00	 call	 ?__UseSkill@CPythonPlayer@@IAE_NK@Z ; CPythonPlayer::__UseSkill

; 389  : }

  0000b	c3		 ret	 0
?__UseCurrentSkill@CPythonPlayer@@IAEXXZ ENDP		; CPythonPlayer::__UseCurrentSkill
_TEXT	ENDS
; Function compile flags: /Ogtp
; File d:\metin2\metin2\client_source_clean\client_source_clean\source\userinterface\pythonplayerskill.cpp
;	COMDAT ?ChangeCurrentSkillNumberOnly@CPythonPlayer@@QAEXK@Z
_TEXT	SEGMENT
_pSkillData$ = 8					; size = 4
_dwSlotIndex$ = 8					; size = 4
?ChangeCurrentSkillNumberOnly@CPythonPlayer@@QAEXK@Z PROC ; CPythonPlayer::ChangeCurrentSkillNumberOnly, COMDAT
; _this$ = ecx

; 78   : {

  00000	55		 push	 ebp
  00001	8b ec		 mov	 ebp, esp
  00003	56		 push	 esi
  00004	57		 push	 edi

; 79   : 	if (dwSlotIndex >= SKILL_MAX_NUM)

  00005	8b 7d 08	 mov	 edi, DWORD PTR _dwSlotIndex$[ebp]
  00008	8b f1		 mov	 esi, ecx
  0000a	81 ff ff 00 00
	00		 cmp	 edi, 255		; 000000ffH
  00010	0f 83 a1 00 00
	00		 jae	 $LN1@ChangeCurr

; 80   : 		return;
; 81   : 
; 82   : 	TSkillInstance & rkSkillInst = m_playerStatus.aSkill[dwSlotIndex];
; 83   : 
; 84   : 	CPythonSkill::TSkillData * pSkillData;
; 85   : 	if (!CPythonSkill::Instance().GetSkillData(rkSkillInst.dwIndex, &pSkillData))

  00016	8b 0d 00 00 00
	00		 mov	 ecx, DWORD PTR ?ms_singleton@?$CSingleton@VCPythonSkill@@@@0PAVCPythonSkill@@A ; CSingleton<CPythonSkill>::ms_singleton
  0001c	8d 45 08	 lea	 eax, DWORD PTR _pSkillData$[ebp]
  0001f	50		 push	 eax
  00020	8d 04 bf	 lea	 eax, DWORD PTR [edi+edi*4]
  00023	ff b4 c6 90 dd
	00 00		 push	 DWORD PTR [esi+eax*8+56720]
  0002a	e8 00 00 00 00	 call	 ?GetSkillData@CPythonSkill@@QAEHKPAPAUSSkillData@1@@Z ; CPythonSkill::GetSkillData
  0002f	85 c0		 test	 eax, eax
  00031	0f 84 80 00 00
	00		 je	 $LN1@ChangeCurr

; 86   : 		return;
; 87   : 
; 88   : 	if (!pSkillData->IsCanUseSkill())

  00037	8b 4d 08	 mov	 ecx, DWORD PTR _pSkillData$[ebp]
  0003a	e8 00 00 00 00	 call	 ?IsCanUseSkill@SSkillData@CPythonSkill@@QAE_NXZ ; CPythonSkill::SSkillData::IsCanUseSkill
  0003f	84 c0		 test	 al, al
  00041	74 74		 je	 SHORT $LN1@ChangeCurr

; 89   : 		return;
; 90   : 
; 91   : 	if (!__IsRightButtonSkillMode())

  00043	8b ce		 mov	 ecx, esi
  00045	e8 00 00 00 00	 call	 ?__IsRightButtonSkillMode@CPythonPlayer@@IAEHXZ ; CPythonPlayer::__IsRightButtonSkillMode
  0004a	85 c0		 test	 eax, eax
  0004c	75 46		 jne	 SHORT $LN3@ChangeCurr

; 92   : 	{
; 93   : 		if (!__IsTarget())

  0004e	e8 00 00 00 00	 call	 ?__IsTarget@CPythonPlayer@@IAE_NXZ ; CPythonPlayer::__IsTarget
  00053	84 c0		 test	 al, al
  00055	75 31		 jne	 SHORT $LN2@ChangeCurr

; 94   : 		{
; 95   : 			PyCallClassMemberFunc(m_ppyGameWindow, "OnCannotUseSkill", Py_BuildValue("(is)", GetMainCharacterIndex(), "NEED_TARGET"));

  00057	8b 46 04	 mov	 eax, DWORD PTR [esi+4]
  0005a	8d 4e 04	 lea	 ecx, DWORD PTR [esi+4]
  0005d	68 00 00 00 00	 push	 OFFSET ??_C@_0M@HCIEKIGP@NEED_TARGET?$AA@
  00062	ff 50 04	 call	 DWORD PTR [eax+4]
  00065	50		 push	 eax
  00066	68 00 00 00 00	 push	 OFFSET ??_C@_04JMLDJNEM@?$CIis?$CJ?$AA@
  0006b	ff 15 00 00 00
	00		 call	 DWORD PTR __imp__Py_BuildValue
  00071	50		 push	 eax
  00072	68 00 00 00 00	 push	 OFFSET ??_C@_0BB@BOHMBBJL@OnCannotUseSkill?$AA@
  00077	ff 76 08	 push	 DWORD PTR [esi+8]
  0007a	e8 00 00 00 00	 call	 ?PyCallClassMemberFunc@@YA_NPAU_object@@PBD0@Z ; PyCallClassMemberFunc
  0007f	83 c4 18	 add	 esp, 24			; 00000018H
  00082	5f		 pop	 edi
  00083	5e		 pop	 esi

; 105  : 	}
; 106  : }

  00084	5d		 pop	 ebp
  00085	c2 04 00	 ret	 4
$LN2@ChangeCurr:

; 96   : 			return;
; 97   : 		}
; 98   : 
; 99   : 		ClickSkillSlot(dwSlotIndex);

  00088	57		 push	 edi
  00089	e8 00 00 00 00	 call	 ?ClickSkillSlot@CPythonPlayer@@QAEXK@Z ; CPythonPlayer::ClickSkillSlot
  0008e	5f		 pop	 edi
  0008f	5e		 pop	 esi

; 105  : 	}
; 106  : }

  00090	5d		 pop	 ebp
  00091	c2 04 00	 ret	 4
$LN3@ChangeCurr:

; 100  : 	}
; 101  : 	else
; 102  : 	{
; 103  : 		m_dwcurSkillSlotIndex = dwSlotIndex;
; 104  : 		PyCallClassMemberFunc(m_ppyGameWindow, "ChangeCurrentSkill", Py_BuildValue("(i)", dwSlotIndex));

  00094	57		 push	 edi
  00095	68 00 00 00 00	 push	 OFFSET ??_C@_03LIHNMIHG@?$CIi?$CJ?$AA@
  0009a	89 be 74 09 01
	00		 mov	 DWORD PTR [esi+67956], edi
  000a0	ff 15 00 00 00
	00		 call	 DWORD PTR __imp__Py_BuildValue
  000a6	50		 push	 eax
  000a7	68 00 00 00 00	 push	 OFFSET ??_C@_0BD@IOEPNDLO@ChangeCurrentSkill?$AA@
  000ac	ff 76 08	 push	 DWORD PTR [esi+8]
  000af	e8 00 00 00 00	 call	 ?PyCallClassMemberFunc@@YA_NPAU_object@@PBD0@Z ; PyCallClassMemberFunc
  000b4	83 c4 14	 add	 esp, 20			; 00000014H
$LN1@ChangeCurr:
  000b7	5f		 pop	 edi
  000b8	5e		 pop	 esi

; 105  : 	}
; 106  : }

  000b9	5d		 pop	 ebp
  000ba	c2 04 00	 ret	 4
?ChangeCurrentSkillNumberOnly@CPythonPlayer@@QAEXK@Z ENDP ; CPythonPlayer::ChangeCurrentSkillNumberOnly
_TEXT	ENDS
; Function compile flags: /Ogtp
; File d:\metin2\metin2\client_source_clean\client_source_clean\source\userinterface\pythonplayerskill.cpp
;	COMDAT ?UseGuildSkill@CPythonPlayer@@QAEXK@Z
_TEXT	SEGMENT
_pkInstMain$1$ = -8					; size = 4
_dwSkillIndex$1$ = -4					; size = 4
_pSkillData$ = 8					; size = 4
_dwSkillSlotIndex$ = 8					; size = 4
?UseGuildSkill@CPythonPlayer@@QAEXK@Z PROC		; CPythonPlayer::UseGuildSkill, COMDAT
; _this$ = ecx

; 866  : {

  00000	55		 push	 ebp
  00001	8b ec		 mov	 ebp, esp
  00003	83 ec 08	 sub	 esp, 8
  00006	53		 push	 ebx
  00007	57		 push	 edi
  00008	8b f9		 mov	 edi, ecx

; 867  : 	CInstanceBase* pkInstMain = NEW_GetMainActorPtr();

  0000a	8b 47 04	 mov	 eax, DWORD PTR [edi+4]
  0000d	8d 4f 04	 lea	 ecx, DWORD PTR [edi+4]
  00010	ff 90 88 00 00
	00		 call	 DWORD PTR [eax+136]
  00016	89 45 f8	 mov	 DWORD PTR _pkInstMain$1$[ebp], eax

; 868  : 	if (!pkInstMain)

  00019	85 c0		 test	 eax, eax
  0001b	0f 84 fd 00 00
	00		 je	 $LN9@UseGuildSk

; 869  : 		return;
; 870  : 	if (!pkInstMain->CanUseSkill())

  00021	8b c8		 mov	 ecx, eax
  00023	e8 00 00 00 00	 call	 ?CanUseSkill@CInstanceBase@@QAE_NXZ ; CInstanceBase::CanUseSkill
  00028	84 c0		 test	 al, al
  0002a	0f 84 ee 00 00
	00		 je	 $LN9@UseGuildSk

; 871  : 		return;
; 872  : 
; 873  : 	///////////////////////////////////////////////////////////////////////////////////////////////
; 874  : 
; 875  : 	if (dwSkillSlotIndex >= SKILL_MAX_NUM)

  00030	56		 push	 esi
  00031	8b 75 08	 mov	 esi, DWORD PTR _dwSkillSlotIndex$[ebp]
  00034	81 fe ff 00 00
	00		 cmp	 esi, 255		; 000000ffH
  0003a	72 17		 jb	 SHORT $LN6@UseGuildSk

; 876  : 	{
; 877  : 		Tracenf("CPythonPlayer::UseGuildSkill(dwSkillSlotIndex=%d) It's not available skill slot number", dwSkillSlotIndex);

  0003c	56		 push	 esi
  0003d	68 00 00 00 00	 push	 OFFSET ??_C@_0FH@CAACOELN@CPythonPlayer?3?3UseGuildSkill?$CIdwS@
  00042	e8 00 00 00 00	 call	 ?Tracenf@@YAXPBDZZ	; Tracenf
  00047	83 c4 08	 add	 esp, 8
  0004a	5e		 pop	 esi
  0004b	5f		 pop	 edi
  0004c	5b		 pop	 ebx

; 914  : }

  0004d	8b e5		 mov	 esp, ebp
  0004f	5d		 pop	 ebp
  00050	c2 04 00	 ret	 4
$LN6@UseGuildSk:

; 878  : 		return;
; 879  : 	}
; 880  : 
; 881  : 	TSkillInstance & rkSkillInst = m_playerStatus.aSkill[dwSkillSlotIndex];
; 882  : 
; 883  : 	DWORD dwSkillIndex = rkSkillInst.dwIndex;
; 884  : 
; 885  : 	CPythonSkill::TSkillData * pSkillData;
; 886  : 	if (!CPythonSkill::Instance().GetSkillData(dwSkillIndex, &pSkillData))

  00053	8d 4d 08	 lea	 ecx, DWORD PTR _pSkillData$[ebp]
  00056	51		 push	 ecx
  00057	8b 0d 00 00 00
	00		 mov	 ecx, DWORD PTR ?ms_singleton@?$CSingleton@VCPythonSkill@@@@0PAVCPythonSkill@@A ; CSingleton<CPythonSkill>::ms_singleton
  0005d	8d 04 b6	 lea	 eax, DWORD PTR [esi+esi*4]
  00060	8b 84 c7 90 dd
	00 00		 mov	 eax, DWORD PTR [edi+eax*8+56720]
  00067	50		 push	 eax
  00068	89 45 fc	 mov	 DWORD PTR _dwSkillIndex$1$[ebp], eax
  0006b	e8 00 00 00 00	 call	 ?GetSkillData@CPythonSkill@@QAEHKPAPAUSSkillData@1@@Z ; CPythonSkill::GetSkillData
  00070	85 c0		 test	 eax, eax
  00072	0f 84 a5 00 00
	00		 je	 $LN17@UseGuildSk

; 887  : 		return;
; 888  : 
; 889  : 	if (__CheckRestSkillCoolTime(dwSkillSlotIndex))

  00078	56		 push	 esi
  00079	8b cf		 mov	 ecx, edi
  0007b	e8 00 00 00 00	 call	 ?__CheckRestSkillCoolTime@CPythonPlayer@@IAE_NK@Z ; CPythonPlayer::__CheckRestSkillCoolTime
  00080	84 c0		 test	 al, al
  00082	74 07		 je	 SHORT $LN4@UseGuildSk

; 890  : 	{
; 891  : 		PyCallClassMemberFunc(m_ppyGameWindow, "OnCannotUseSkill", Py_BuildValue("(is)", GetMainCharacterIndex(), "WAIT_COOLTIME"));

  00084	68 00 00 00 00	 push	 OFFSET ??_C@_0O@CCJDKKCC@WAIT_COOLTIME?$AA@

; 892  : 		return;

  00089	eb 20		 jmp	 SHORT $LN18@UseGuildSk
$LN4@UseGuildSk:

; 893  : 	}
; 894  : 
; 895  : 	if (pSkillData->IsOnlyForGuildWar())

  0008b	8b 4d 08	 mov	 ecx, DWORD PTR _pSkillData$[ebp]
  0008e	e8 00 00 00 00	 call	 ?IsOnlyForGuildWar@SSkillData@CPythonSkill@@QAEHXZ ; CPythonSkill::SSkillData::IsOnlyForGuildWar
  00093	85 c0		 test	 eax, eax
  00095	74 43		 je	 SHORT $LN2@UseGuildSk

; 896  : 	{
; 897  : 		if (!CPythonGuild::Instance().IsDoingGuildWar())

  00097	8b 0d 00 00 00
	00		 mov	 ecx, DWORD PTR ?ms_singleton@?$CSingleton@VCPythonGuild@@@@0PAVCPythonGuild@@A ; CSingleton<CPythonGuild>::ms_singleton
  0009d	e8 00 00 00 00	 call	 ?IsDoingGuildWar@CPythonGuild@@QAEHXZ ; CPythonGuild::IsDoingGuildWar
  000a2	85 c0		 test	 eax, eax
  000a4	75 34		 jne	 SHORT $LN2@UseGuildSk

; 898  : 		{
; 899  : 			PyCallClassMemberFunc(m_ppyGameWindow, "OnCannotUseSkill", Py_BuildValue("(is)", GetMainCharacterIndex(), "ONLY_FOR_GUILD_WAR"));

  000a6	68 00 00 00 00	 push	 OFFSET ??_C@_0BD@OHHCPGPG@ONLY_FOR_GUILD_WAR?$AA@
$LN18@UseGuildSk:
  000ab	8b 47 04	 mov	 eax, DWORD PTR [edi+4]
  000ae	8d 4f 04	 lea	 ecx, DWORD PTR [edi+4]
  000b1	ff 50 04	 call	 DWORD PTR [eax+4]
  000b4	50		 push	 eax
  000b5	68 00 00 00 00	 push	 OFFSET ??_C@_04JMLDJNEM@?$CIis?$CJ?$AA@
  000ba	ff 15 00 00 00
	00		 call	 DWORD PTR __imp__Py_BuildValue
  000c0	50		 push	 eax
  000c1	68 00 00 00 00	 push	 OFFSET ??_C@_0BB@BOHMBBJL@OnCannotUseSkill?$AA@
  000c6	ff 77 08	 push	 DWORD PTR [edi+8]
  000c9	e8 00 00 00 00	 call	 ?PyCallClassMemberFunc@@YA_NPAU_object@@PBD0@Z ; PyCallClassMemberFunc
  000ce	83 c4 18	 add	 esp, 24			; 00000018H
  000d1	5e		 pop	 esi
  000d2	5f		 pop	 edi
  000d3	5b		 pop	 ebx

; 914  : }

  000d4	8b e5		 mov	 esp, ebp
  000d6	5d		 pop	 ebp
  000d7	c2 04 00	 ret	 4
$LN2@UseGuildSk:

; 900  : 			return;
; 901  : 		}
; 902  : 	}
; 903  : 
; 904  : 	DWORD dwMotionIndex = pSkillData->GetSkillMotionIndex();

  000da	8b 4d 08	 mov	 ecx, DWORD PTR _pSkillData$[ebp]
  000dd	6a ff		 push	 -1
  000df	e8 00 00 00 00	 call	 ?GetSkillMotionIndex@SSkillData@CPythonSkill@@QAEKH@Z ; CPythonSkill::SSkillData::GetSkillMotionIndex

; 905  : 	if (!pkInstMain->NEW_UseSkill(dwSkillIndex, dwMotionIndex, 1, false))

  000e4	8b 5d fc	 mov	 ebx, DWORD PTR _dwSkillIndex$1$[ebp]
  000e7	8b 4d f8	 mov	 ecx, DWORD PTR _pkInstMain$1$[ebp]
  000ea	6a 00		 push	 0
  000ec	6a 01		 push	 1
  000ee	50		 push	 eax
  000ef	53		 push	 ebx
  000f0	e8 00 00 00 00	 call	 ?NEW_UseSkill@CInstanceBase@@QAE_NIII_N@Z ; CInstanceBase::NEW_UseSkill
  000f5	84 c0		 test	 al, al
  000f7	75 0e		 jne	 SHORT $LN1@UseGuildSk

; 906  : 	{
; 907  : 		Tracenf("CPythonPlayer::UseGuildSkill(%d) - pkInstMain->NEW_UseSkill - ERROR", dwSkillIndex);

  000f9	53		 push	 ebx
  000fa	68 00 00 00 00	 push	 OFFSET ??_C@_0EE@GICPADML@CPythonPlayer?3?3UseGuildSkill?$CI?$CFd?$CJ@
  000ff	e8 00 00 00 00	 call	 ?Tracenf@@YAXPBDZZ	; Tracenf
  00104	83 c4 08	 add	 esp, 8
$LN1@UseGuildSk:

; 908  : 	}
; 909  : 
; 910  : 	///////////////////////////////////////////////////////////////////////////////////////////////
; 911  : 
; 912  : 	CPythonNetworkStream::Instance().SendGuildUseSkillPacket(dwSkillIndex, 0);

  00107	8b 0d 00 00 00
	00		 mov	 ecx, DWORD PTR ?ms_singleton@?$CSingleton@VCPythonNetworkStream@@@@0PAVCPythonNetworkStream@@A ; CSingleton<CPythonNetworkStream>::ms_singleton
  0010d	6a 00		 push	 0
  0010f	53		 push	 ebx
  00110	e8 00 00 00 00	 call	 ?SendGuildUseSkillPacket@CPythonNetworkStream@@QAE_NKK@Z ; CPythonNetworkStream::SendGuildUseSkillPacket

; 913  : 	__RunCoolTime(dwSkillSlotIndex);

  00115	56		 push	 esi
  00116	8b cf		 mov	 ecx, edi
  00118	e8 00 00 00 00	 call	 ?__RunCoolTime@CPythonPlayer@@IAEXK@Z ; CPythonPlayer::__RunCoolTime
$LN17@UseGuildSk:
  0011d	5e		 pop	 esi
$LN9@UseGuildSk:
  0011e	5f		 pop	 edi
  0011f	5b		 pop	 ebx

; 914  : }

  00120	8b e5		 mov	 esp, ebp
  00122	5d		 pop	 ebp
  00123	c2 04 00	 ret	 4
?UseGuildSkill@CPythonPlayer@@QAEXK@Z ENDP		; CPythonPlayer::UseGuildSkill
_TEXT	ENDS
; Function compile flags: /Ogtp
; File d:\metin2\metin2\client_source_clean\client_source_clean\source\userinterface\pythonplayerskill.cpp
;	COMDAT ?FindSkillSlotIndexBySkillIndex@CPythonPlayer@@QAE_NKPAK@Z
_TEXT	SEGMENT
_dwSkillIndex$ = 8					; size = 4
_pdwSkillSlotIndex$ = 12				; size = 4
?FindSkillSlotIndexBySkillIndex@CPythonPlayer@@QAE_NKPAK@Z PROC ; CPythonPlayer::FindSkillSlotIndexBySkillIndex, COMDAT
; _this$ = ecx

; 63   : {

  00000	55		 push	 ebp
  00001	8b ec		 mov	 ebp, esp

; 64   : 	for (int i = 0; i < SKILL_MAX_NUM; ++i)

  00003	8b 55 08	 mov	 edx, DWORD PTR _dwSkillIndex$[ebp]
  00006	33 c0		 xor	 eax, eax
  00008	81 c1 90 dd 00
	00		 add	 ecx, 56720		; 0000dd90H
  0000e	8b ff		 npad	 2
$LL4@FindSkillS:

; 65   : 	{
; 66   : 		TSkillInstance & rkSkillInst = m_playerStatus.aSkill[i];
; 67   : 		if (dwSkillIndex == rkSkillInst.dwIndex)

  00010	3b 11		 cmp	 edx, DWORD PTR [ecx]
  00012	74 11		 je	 SHORT $LN8@FindSkillS

; 64   : 	for (int i = 0; i < SKILL_MAX_NUM; ++i)

  00014	40		 inc	 eax
  00015	83 c1 28	 add	 ecx, 40			; 00000028H
  00018	3d ff 00 00 00	 cmp	 eax, 255		; 000000ffH
  0001d	7c f1		 jl	 SHORT $LL4@FindSkillS

; 71   : 		}
; 72   : 	}
; 73   : 
; 74   : 	return false;

  0001f	32 c0		 xor	 al, al

; 75   : }

  00021	5d		 pop	 ebp
  00022	c2 08 00	 ret	 8
$LN8@FindSkillS:

; 68   : 		{
; 69   : 			*pdwSkillSlotIndex = i;

  00025	8b 4d 0c	 mov	 ecx, DWORD PTR _pdwSkillSlotIndex$[ebp]
  00028	89 01		 mov	 DWORD PTR [ecx], eax

; 70   : 			return true;

  0002a	b0 01		 mov	 al, 1

; 75   : }

  0002c	5d		 pop	 ebp
  0002d	c2 08 00	 ret	 8
?FindSkillSlotIndexBySkillIndex@CPythonPlayer@@QAE_NKPAK@Z ENDP ; CPythonPlayer::FindSkillSlotIndexBySkillIndex
_TEXT	ENDS
; Function compile flags: /Ogtp
; File d:\metin2\metin2\client_source_clean\client_source_clean\source\userinterface\pythonplayerskill.cpp
;	COMDAT ?__CheckSkillUsable@CPythonPlayer@@IAE_NK@Z
_TEXT	SEGMENT
_pSkillData$ = -12					; size = 4
_rkSkillInst$1$ = -8					; size = 4
_pkInstMain$1$ = -4					; size = 4
_dwSlotIndex$ = 8					; size = 4
?__CheckSkillUsable@CPythonPlayer@@IAE_NK@Z PROC	; CPythonPlayer::__CheckSkillUsable, COMDAT
; _this$ = ecx

; 167  : {

  00000	55		 push	 ebp
  00001	8b ec		 mov	 ebp, esp
  00003	83 ec 10	 sub	 esp, 16			; 00000010H
  00006	53		 push	 ebx
  00007	56		 push	 esi
  00008	57		 push	 edi
  00009	8b f9		 mov	 edi, ecx

; 168  : 	CInstanceBase * pkInstMain = NEW_GetMainActorPtr();

  0000b	8b 47 04	 mov	 eax, DWORD PTR [edi+4]
  0000e	8d 4f 04	 lea	 ecx, DWORD PTR [edi+4]
  00011	ff 90 88 00 00
	00		 call	 DWORD PTR [eax+136]
  00017	8b d8		 mov	 ebx, eax
  00019	89 5d fc	 mov	 DWORD PTR _pkInstMain$1$[ebp], ebx

; 169  : 	if (!pkInstMain)

  0001c	85 db		 test	 ebx, ebx
  0001e	74 75		 je	 SHORT $LN35@CheckSkill

; 170  : 		return false;
; 171  : 
; 172  : 	if (dwSlotIndex >= SKILL_MAX_NUM)

  00020	8b 45 08	 mov	 eax, DWORD PTR _dwSlotIndex$[ebp]
  00023	3d ff 00 00 00	 cmp	 eax, 255		; 000000ffH
  00028	73 6b		 jae	 SHORT $LN35@CheckSkill

; 173  : 		return false;
; 174  : 
; 175  : 	TSkillInstance & rkSkillInst = m_playerStatus.aSkill[dwSlotIndex];

  0002a	8d 04 80	 lea	 eax, DWORD PTR [eax+eax*4]
  0002d	8d 80 b2 1b 00
	00		 lea	 eax, DWORD PTR [eax+7090]

; 176  : 
; 177  : 	CPythonSkill::TSkillData * pSkillData;
; 178  : 	if (!CPythonSkill::Instance().GetSkillData(rkSkillInst.dwIndex, &pSkillData))

  00033	8d 4d f4	 lea	 ecx, DWORD PTR _pSkillData$[ebp]
  00036	8d 04 c7	 lea	 eax, DWORD PTR [edi+eax*8]
  00039	51		 push	 ecx
  0003a	ff 30		 push	 DWORD PTR [eax]
  0003c	8b 0d 00 00 00
	00		 mov	 ecx, DWORD PTR ?ms_singleton@?$CSingleton@VCPythonSkill@@@@0PAVCPythonSkill@@A ; CSingleton<CPythonSkill>::ms_singleton
  00042	89 45 f8	 mov	 DWORD PTR _rkSkillInst$1$[ebp], eax
  00045	e8 00 00 00 00	 call	 ?GetSkillData@CPythonSkill@@QAEHKPAPAUSSkillData@1@@Z ; CPythonSkill::GetSkillData
  0004a	85 c0		 test	 eax, eax
  0004c	74 47		 je	 SHORT $LN35@CheckSkill

; 179  : 		return false;
; 180  : 
; 181  : 	if (pkInstMain->IsMountingHorse())

  0004e	8b cb		 mov	 ecx, ebx
  00050	e8 00 00 00 00	 call	 ?IsMountingHorse@CInstanceBase@@QAEHXZ ; CInstanceBase::IsMountingHorse
  00055	8b 5d f4	 mov	 ebx, DWORD PTR _pSkillData$[ebp]
  00058	85 c0		 test	 eax, eax
  0005a	74 44		 je	 SHORT $LN25@CheckSkill

; 182  : 	{
; 183  : 		if (!pSkillData->IsHorseSkill())

  0005c	8b cb		 mov	 ecx, ebx
  0005e	e8 00 00 00 00	 call	 ?IsHorseSkill@SSkillData@CPythonSkill@@QAEHXZ ; CPythonSkill::SSkillData::IsHorseSkill
  00063	85 c0		 test	 eax, eax
  00065	75 39		 jne	 SHORT $LN25@CheckSkill

; 184  : 		{
; 185  : 			PyCallClassMemberFunc(m_ppyGameWindow, "OnCannotUseSkill", Py_BuildValue("(is)", GetMainCharacterIndex(), "NOT_HORSE_SKILL"));

  00067	68 00 00 00 00	 push	 OFFSET ??_C@_0BA@MEPOIIPE@NOT_HORSE_SKILL?$AA@
$LN36@CheckSkill:
  0006c	8b 47 04	 mov	 eax, DWORD PTR [edi+4]
  0006f	8d 4f 04	 lea	 ecx, DWORD PTR [edi+4]
  00072	ff 50 04	 call	 DWORD PTR [eax+4]
  00075	50		 push	 eax
  00076	68 00 00 00 00	 push	 OFFSET ??_C@_04JMLDJNEM@?$CIis?$CJ?$AA@
  0007b	ff 15 00 00 00
	00		 call	 DWORD PTR __imp__Py_BuildValue
  00081	83 c4 0c	 add	 esp, 12			; 0000000cH
  00084	50		 push	 eax
  00085	68 00 00 00 00	 push	 OFFSET ??_C@_0BB@BOHMBBJL@OnCannotUseSkill?$AA@
  0008a	ff 77 08	 push	 DWORD PTR [edi+8]
  0008d	e8 00 00 00 00	 call	 ?PyCallClassMemberFunc@@YA_NPAU_object@@PBD0@Z ; PyCallClassMemberFunc
  00092	83 c4 0c	 add	 esp, 12			; 0000000cH
$LN35@CheckSkill:

; 186  : 			return false;

  00095	32 c0		 xor	 al, al

; 303  : 		}
; 304  : 	}
; 305  : 
; 306  : 	return true;
; 307  : }

  00097	5f		 pop	 edi
  00098	5e		 pop	 esi
  00099	5b		 pop	 ebx
  0009a	8b e5		 mov	 esp, ebp
  0009c	5d		 pop	 ebp
  0009d	c2 04 00	 ret	 4
$LN25@CheckSkill:

; 187  : 		}
; 188  : 	}
; 189  : 
; 190  : 	if (pSkillData->IsHorseSkill())

  000a0	8b cb		 mov	 ecx, ebx
  000a2	e8 00 00 00 00	 call	 ?IsHorseSkill@SSkillData@CPythonSkill@@QAEHXZ ; CPythonSkill::SSkillData::IsHorseSkill

; 191  : 	{
; 192  : 		if (!pkInstMain->IsMountingHorse())

  000a7	8b 55 fc	 mov	 edx, DWORD PTR _pkInstMain$1$[ebp]
  000aa	85 c0		 test	 eax, eax
  000ac	74 12		 je	 SHORT $LN23@CheckSkill
  000ae	8b ca		 mov	 ecx, edx
  000b0	e8 00 00 00 00	 call	 ?IsMountingHorse@CInstanceBase@@QAEHXZ ; CInstanceBase::IsMountingHorse
  000b5	85 c0		 test	 eax, eax
  000b7	75 07		 jne	 SHORT $LN23@CheckSkill

; 193  : 		{
; 194  : 			PyCallClassMemberFunc(m_ppyGameWindow, "OnCannotUseSkill", Py_BuildValue("(is)", GetMainCharacterIndex(), "HAVE_TO_RIDE"));

  000b9	68 00 00 00 00	 push	 OFFSET ??_C@_0N@DJBFACMO@HAVE_TO_RIDE?$AA@

; 195  : 			return false;

  000be	eb ac		 jmp	 SHORT $LN36@CheckSkill
$LN23@CheckSkill:

; 196  : 		}
; 197  : 	}
; 198  : 
; 199  : 	// 2004.07.26.levites - 안전지대에서 공격 못하도록 수정
; 200  : 	// NOTE : 공격 스킬은 안전지대에서 사용하지 못합니다 - [levites]
; 201  : 	if (pSkillData->IsAttackSkill())

  000c0	8b cb		 mov	 ecx, ebx
  000c2	e8 00 00 00 00	 call	 ?IsAttackSkill@SSkillData@CPythonSkill@@QAEHXZ ; CPythonSkill::SSkillData::IsAttackSkill
  000c7	85 c0		 test	 eax, eax
  000c9	74 12		 je	 SHORT $LN21@CheckSkill

; 202  : 	{
; 203  : 		if (pkInstMain->IsInSafe())

  000cb	8b ca		 mov	 ecx, edx
  000cd	e8 00 00 00 00	 call	 ?IsInSafe@CInstanceBase@@QAEHXZ ; CInstanceBase::IsInSafe
  000d2	85 c0		 test	 eax, eax
  000d4	74 07		 je	 SHORT $LN21@CheckSkill

; 204  : 		{
; 205  : 			PyCallClassMemberFunc(m_ppyGameWindow, "OnCannotUseSkill", Py_BuildValue("(is)", GetMainCharacterIndex(), "IN_SAFE"));

  000d6	68 00 00 00 00	 push	 OFFSET ??_C@_07OAOBINCH@IN_SAFE?$AA@

; 206  : 
; 207  : 			return false;

  000db	eb 8f		 jmp	 SHORT $LN36@CheckSkill
$LN21@CheckSkill:

; 208  : 		}
; 209  : 	}	
; 210  : 
; 211  : 	// NOTE : 패시브 스킬은 사용하지 못합니다 - [levites]
; 212  : 	if (!pSkillData->IsCanUseSkill())

  000dd	8b cb		 mov	 ecx, ebx
  000df	e8 00 00 00 00	 call	 ?IsCanUseSkill@SSkillData@CPythonSkill@@QAE_NXZ ; CPythonSkill::SSkillData::IsCanUseSkill
  000e4	84 c0		 test	 al, al
  000e6	74 ad		 je	 SHORT $LN35@CheckSkill

; 213  : 		return false;
; 214  : //	if (CPythonSkill::SKILL_TYPE_PASSIVE == pSkillData->byType)
; 215  : //		return false;
; 216  : 
; 217  : 	// NOTE : [Only Assassin] 빈병이 있는지 체크 합니다.
; 218  : 	if (pSkillData->IsNeedEmptyBottle())

  000e8	e8 00 00 00 00	 call	 ?IsNeedEmptyBottle@SSkillData@CPythonSkill@@QAEHXZ ; CPythonSkill::SSkillData::IsNeedEmptyBottle
  000ed	85 c0		 test	 eax, eax
  000ef	74 1a		 je	 SHORT $LN18@CheckSkill

; 219  : 	{
; 220  : 		if (!__HasItem(27995))

  000f1	68 5b 6d 00 00	 push	 27995			; 00006d5bH
  000f6	8b cf		 mov	 ecx, edi
  000f8	e8 00 00 00 00	 call	 ?__HasItem@CPythonPlayer@@IAE_NK@Z ; CPythonPlayer::__HasItem
  000fd	84 c0		 test	 al, al
  000ff	75 0a		 jne	 SHORT $LN18@CheckSkill

; 221  : 		{
; 222  : 			PyCallClassMemberFunc(m_ppyGameWindow, "OnCannotUseSkill", Py_BuildValue("(is)", GetMainCharacterIndex(), "NEED_EMPTY_BOTTLE"));

  00101	68 00 00 00 00	 push	 OFFSET ??_C@_0BC@DDKDAKLO@NEED_EMPTY_BOTTLE?$AA@

; 223  : 			return false;

  00106	e9 61 ff ff ff	 jmp	 $LN36@CheckSkill
$LN18@CheckSkill:

; 224  : 		}
; 225  : 	}
; 226  : 
; 227  : 	// NOTE : [Only Assassin] 독병이 있는지 체크 합니다.
; 228  : 	if (pSkillData->IsNeedPoisonBottle())

  0010b	8b cb		 mov	 ecx, ebx
  0010d	e8 00 00 00 00	 call	 ?IsNeedPoisonBottle@SSkillData@CPythonSkill@@QAEHXZ ; CPythonSkill::SSkillData::IsNeedPoisonBottle
  00112	85 c0		 test	 eax, eax
  00114	74 1a		 je	 SHORT $LN16@CheckSkill

; 229  : 	{
; 230  : 		if (!__HasItem(27996))

  00116	68 5c 6d 00 00	 push	 27996			; 00006d5cH
  0011b	8b cf		 mov	 ecx, edi
  0011d	e8 00 00 00 00	 call	 ?__HasItem@CPythonPlayer@@IAE_NK@Z ; CPythonPlayer::__HasItem
  00122	84 c0		 test	 al, al
  00124	75 0a		 jne	 SHORT $LN16@CheckSkill

; 231  : 		{
; 232  : 			PyCallClassMemberFunc(m_ppyGameWindow, "OnCannotUseSkill", Py_BuildValue("(is)", GetMainCharacterIndex(), "NEED_POISON_BOTTLE"));

  00126	68 00 00 00 00	 push	 OFFSET ??_C@_0BD@HPCMPHGF@NEED_POISON_BOTTLE?$AA@

; 233  : 			return false;

  0012b	e9 3c ff ff ff	 jmp	 $LN36@CheckSkill
$LN16@CheckSkill:

; 234  : 		}
; 235  : 	}
; 236  : 
; 237  : 	// NOTE : 낚시 중일때는 스킬을 사용하지 못합니다.
; 238  : 	if (pkInstMain->IsFishingMode())

  00130	8b 4d fc	 mov	 ecx, DWORD PTR _pkInstMain$1$[ebp]
  00133	e8 00 00 00 00	 call	 ?IsFishingMode@CInstanceBase@@QAEHXZ ; CInstanceBase::IsFishingMode
  00138	85 c0		 test	 eax, eax
  0013a	74 0a		 je	 SHORT $LN15@CheckSkill

; 239  : 	{
; 240  : 		PyCallClassMemberFunc(m_ppyGameWindow, "OnCannotUseSkill", Py_BuildValue("(is)", GetMainCharacterIndex(), "REMOVE_FISHING_ROD"));

  0013c	68 00 00 00 00	 push	 OFFSET ??_C@_0BD@LIIMHBCN@REMOVE_FISHING_ROD?$AA@

; 241  : 		return false;

  00141	e9 26 ff ff ff	 jmp	 $LN36@CheckSkill
$LN15@CheckSkill:

; 242  : 	}
; 243  : 
; 244  : 	// NOTE : 레벨 체크
; 245  : 	if (m_sysIsLevelLimit)

  00146	83 bf e8 09 01
	00 00		 cmp	 DWORD PTR [edi+68072], 0
  0014d	74 13		 je	 SHORT $LN13@CheckSkill

; 246  : 	{
; 247  : 		if (rkSkillInst.iLevel <= 0)

  0014f	8b 45 f8	 mov	 eax, DWORD PTR _rkSkillInst$1$[ebp]
  00152	83 78 0c 00	 cmp	 DWORD PTR [eax+12], 0
  00156	7f 0a		 jg	 SHORT $LN13@CheckSkill

; 248  : 		{
; 249  : 			PyCallClassMemberFunc(m_ppyGameWindow, "OnCannotUseSkill", Py_BuildValue("(is)", GetMainCharacterIndex(), "NOT_YET_LEARN"));

  00158	68 00 00 00 00	 push	 OFFSET ??_C@_0O@PFLGBNMN@NOT_YET_LEARN?$AA@

; 250  : 			return false;

  0015d	e9 0a ff ff ff	 jmp	 $LN36@CheckSkill
$LN13@CheckSkill:

; 251  : 		}
; 252  : 	}
; 253  : 
; 254  : 	// NOTE : 들고 있는 무기 체크
; 255  : 	if (!pSkillData->CanUseWeaponType(pkInstMain->GetWeaponType()))

  00162	8b 4d fc	 mov	 ecx, DWORD PTR _pkInstMain$1$[ebp]
  00165	e8 00 00 00 00	 call	 ?GetWeaponType@CInstanceBase@@QAEKXZ ; CInstanceBase::GetWeaponType
  0016a	50		 push	 eax
  0016b	8b cb		 mov	 ecx, ebx
  0016d	e8 00 00 00 00	 call	 ?CanUseWeaponType@SSkillData@CPythonSkill@@QAEHK@Z ; CPythonSkill::SSkillData::CanUseWeaponType
  00172	85 c0		 test	 eax, eax
  00174	75 0a		 jne	 SHORT $LN12@CheckSkill

; 256  : 	{
; 257  : 		PyCallClassMemberFunc(m_ppyGameWindow, "OnCannotUseSkill", Py_BuildValue("(is)", GetMainCharacterIndex(), "NOT_MATCHABLE_WEAPON"));

  00176	68 00 00 00 00	 push	 OFFSET ??_C@_0BF@KPLOMIJE@NOT_MATCHABLE_WEAPON?$AA@

; 258  : 		return false;

  0017b	e9 ec fe ff ff	 jmp	 $LN36@CheckSkill
$LN12@CheckSkill:

; 259  : 	}
; 260  : 
; 261  : 	if (!pSkillData->IsHorseSkill()) // HORSE 스킬 중에 화살을 쓰지 않는 스킬이 있기 때문에

  00180	8b cb		 mov	 ecx, ebx
  00182	e8 00 00 00 00	 call	 ?IsHorseSkill@SSkillData@CPythonSkill@@QAEHXZ ; CPythonSkill::SSkillData::IsHorseSkill
  00187	85 c0		 test	 eax, eax
  00189	75 2b		 jne	 SHORT $LN8@CheckSkill

; 262  : 	{
; 263  : 		if (__CheckShortArrow(rkSkillInst, *pSkillData))

  0018b	53		 push	 ebx
  0018c	51		 push	 ecx
  0018d	8b cf		 mov	 ecx, edi
  0018f	e8 00 00 00 00	 call	 ?__CheckShortArrow@CPythonPlayer@@IAE_NAAUSSkillInstance@1@AAUSSkillData@CPythonSkill@@@Z ; CPythonPlayer::__CheckShortArrow
  00194	84 c0		 test	 al, al
  00196	0f 85 f9 fe ff
	ff		 jne	 $LN35@CheckSkill

; 264  : 			return false;
; 265  : 
; 266  : 		// NOTE : 활이 필요할 경우 화살 개수 체크
; 267  : 		if (pSkillData->IsNeedBow())

  0019c	8b cb		 mov	 ecx, ebx
  0019e	e8 00 00 00 00	 call	 ?IsNeedBow@SSkillData@CPythonSkill@@QAEHXZ ; CPythonSkill::SSkillData::IsNeedBow
  001a3	85 c0		 test	 eax, eax
  001a5	74 0f		 je	 SHORT $LN8@CheckSkill

; 268  : 		{
; 269  : 			if (!__HasEnoughArrow())

  001a7	8b cf		 mov	 ecx, edi
  001a9	e8 00 00 00 00	 call	 ?__HasEnoughArrow@CPythonPlayer@@IAE_NXZ ; CPythonPlayer::__HasEnoughArrow
  001ae	84 c0		 test	 al, al
  001b0	0f 84 df fe ff
	ff		 je	 $LN35@CheckSkill
$LN8@CheckSkill:

; 270  : 				return false;
; 271  : 		}
; 272  : 	}
; 273  : 
; 274  : 	if (__CheckDashAffect(*pkInstMain))

  001b6	ff 75 fc	 push	 DWORD PTR _pkInstMain$1$[ebp]
  001b9	e8 00 00 00 00	 call	 ?__CheckDashAffect@CPythonPlayer@@IAE_NAAVCInstanceBase@@@Z ; CPythonPlayer::__CheckDashAffect
  001be	84 c0		 test	 al, al
  001c0	74 23		 je	 SHORT $LN7@CheckSkill

; 275  : 	{
; 276  : 		if (!pSkillData->IsChargeSkill())

  001c2	8b cb		 mov	 ecx, ebx
  001c4	e8 00 00 00 00	 call	 ?IsChargeSkill@SSkillData@CPythonSkill@@QAEHXZ ; CPythonSkill::SSkillData::IsChargeSkill
  001c9	85 c0		 test	 eax, eax
  001cb	75 58		 jne	 SHORT $LN1@CheckSkill

; 277  : 		{
; 278  : 			if (__CheckRestSkillCoolTime(dwSlotIndex))

  001cd	ff 75 08	 push	 DWORD PTR _dwSlotIndex$[ebp]
  001d0	8b cf		 mov	 ecx, edi
  001d2	e8 00 00 00 00	 call	 ?__CheckRestSkillCoolTime@CPythonPlayer@@IAE_NK@Z ; CPythonPlayer::__CheckRestSkillCoolTime
  001d7	84 c0		 test	 al, al
  001d9	74 4a		 je	 SHORT $LN1@CheckSkill
$LN37@CheckSkill:

; 279  : 			{
; 280  : 				PyCallClassMemberFunc(m_ppyGameWindow, "OnCannotUseSkill", Py_BuildValue("(is)", GetMainCharacterIndex(), "WAIT_COOLTIME"));

  001db	68 00 00 00 00	 push	 OFFSET ??_C@_0O@CCJDKKCC@WAIT_COOLTIME?$AA@

; 281  : 				return false;

  001e0	e9 87 fe ff ff	 jmp	 $LN36@CheckSkill
$LN7@CheckSkill:

; 282  : 			}
; 283  : 		}
; 284  : 	}
; 285  : 	else
; 286  : 	{
; 287  : 		if (__CheckRestSkillCoolTime(dwSlotIndex))

  001e5	ff 75 08	 push	 DWORD PTR _dwSlotIndex$[ebp]
  001e8	8b cf		 mov	 ecx, edi
  001ea	e8 00 00 00 00	 call	 ?__CheckRestSkillCoolTime@CPythonPlayer@@IAE_NK@Z ; CPythonPlayer::__CheckRestSkillCoolTime
  001ef	84 c0		 test	 al, al
  001f1	75 e8		 jne	 SHORT $LN37@CheckSkill

; 288  : 		{
; 289  : 			PyCallClassMemberFunc(m_ppyGameWindow, "OnCannotUseSkill", Py_BuildValue("(is)", GetMainCharacterIndex(), "WAIT_COOLTIME"));
; 290  : 			return false;
; 291  : 		}
; 292  : 
; 293  : 		if (__CheckShortLife(rkSkillInst, *pSkillData))

  001f3	53		 push	 ebx
  001f4	ff 75 f8	 push	 DWORD PTR _rkSkillInst$1$[ebp]
  001f7	8b cf		 mov	 ecx, edi
  001f9	e8 00 00 00 00	 call	 ?__CheckShortLife@CPythonPlayer@@IAE_NAAUSSkillInstance@1@AAUSSkillData@CPythonSkill@@@Z ; CPythonPlayer::__CheckShortLife
  001fe	84 c0		 test	 al, al
  00200	74 0a		 je	 SHORT $LN2@CheckSkill

; 294  : 		{
; 295  : 			PyCallClassMemberFunc(m_ppyGameWindow, "OnCannotUseSkill", Py_BuildValue("(is)", GetMainCharacterIndex(), "NOT_ENOUGH_HP"));

  00202	68 00 00 00 00	 push	 OFFSET ??_C@_0O@CILBJNOC@NOT_ENOUGH_HP?$AA@

; 296  : 			return false;

  00207	e9 60 fe ff ff	 jmp	 $LN36@CheckSkill
$LN2@CheckSkill:

; 297  : 		}
; 298  : 
; 299  : 		if (__CheckShortMana(rkSkillInst, *pSkillData))

  0020c	53		 push	 ebx
  0020d	ff 75 f8	 push	 DWORD PTR _rkSkillInst$1$[ebp]
  00210	8b cf		 mov	 ecx, edi
  00212	e8 00 00 00 00	 call	 ?__CheckShortMana@CPythonPlayer@@IAE_NAAUSSkillInstance@1@AAUSSkillData@CPythonSkill@@@Z ; CPythonPlayer::__CheckShortMana
  00217	84 c0		 test	 al, al
  00219	74 0a		 je	 SHORT $LN1@CheckSkill

; 300  : 		{
; 301  : 			PyCallClassMemberFunc(m_ppyGameWindow, "OnCannotUseSkill", Py_BuildValue("(is)", GetMainCharacterIndex(), "NOT_ENOUGH_SP"));

  0021b	68 00 00 00 00	 push	 OFFSET ??_C@_0O@DIMCNBHD@NOT_ENOUGH_SP?$AA@

; 302  : 			return false;

  00220	e9 47 fe ff ff	 jmp	 $LN36@CheckSkill
$LN1@CheckSkill:

; 303  : 		}
; 304  : 	}
; 305  : 
; 306  : 	return true;
; 307  : }

  00225	5f		 pop	 edi
  00226	5e		 pop	 esi
  00227	b0 01		 mov	 al, 1
  00229	5b		 pop	 ebx
  0022a	8b e5		 mov	 esp, ebp
  0022c	5d		 pop	 ebp
  0022d	c2 04 00	 ret	 4
?__CheckSkillUsable@CPythonPlayer@@IAE_NK@Z ENDP	; CPythonPlayer::__CheckSkillUsable
_TEXT	ENDS
; Function compile flags: /Ogtp
; File d:\metin2\metin2\client_source_clean\client_source_clean\source\userinterface\pythonplayerskill.cpp
;	COMDAT ?__CheckShortArrow@CPythonPlayer@@IAE_NAAUSSkillInstance@1@AAUSSkillData@CPythonSkill@@@Z
_TEXT	SEGMENT
_rkSkillInst$dead$ = 8					; size = 4
_rkSkillData$ = 12					; size = 4
?__CheckShortArrow@CPythonPlayer@@IAE_NAAUSSkillInstance@1@AAUSSkillData@CPythonSkill@@@Z PROC ; CPythonPlayer::__CheckShortArrow, COMDAT
; _this$ = ecx

; 310  : {

  00000	55		 push	 ebp
  00001	8b ec		 mov	 ebp, esp
  00003	8b d1		 mov	 edx, ecx

; 311  : 	if (!rkSkillData.IsNeedBow())

  00005	8b 4d 0c	 mov	 ecx, DWORD PTR _rkSkillData$[ebp]
  00008	e8 00 00 00 00	 call	 ?IsNeedBow@SSkillData@CPythonSkill@@QAEHXZ ; CPythonSkill::SSkillData::IsNeedBow
  0000d	85 c0		 test	 eax, eax
  0000f	75 06		 jne	 SHORT $LN2@CheckShort

; 312  : 		return false;

  00011	32 c0		 xor	 al, al

; 315  : 		return false;
; 316  : 	
; 317  : 	return true;
; 318  : }

  00013	5d		 pop	 ebp
  00014	c2 08 00	 ret	 8
$LN2@CheckShort:

; 313  : 
; 314  : 	if (__HasEnoughArrow())

  00017	8b ca		 mov	 ecx, edx
  00019	e8 00 00 00 00	 call	 ?__HasEnoughArrow@CPythonPlayer@@IAE_NXZ ; CPythonPlayer::__HasEnoughArrow
  0001e	84 c0		 test	 al, al
  00020	0f 94 c0	 sete	 al

; 315  : 		return false;
; 316  : 	
; 317  : 	return true;
; 318  : }

  00023	5d		 pop	 ebp
  00024	c2 08 00	 ret	 8
?__CheckShortArrow@CPythonPlayer@@IAE_NAAUSSkillInstance@1@AAUSSkillData@CPythonSkill@@@Z ENDP ; CPythonPlayer::__CheckShortArrow
_TEXT	ENDS
; Function compile flags: /Ogtp
; File d:\metin2\metin2\client_source_clean\client_source_clean\source\userinterface\pythonplayerskill.cpp
;	COMDAT ?__CheckShortMana@CPythonPlayer@@IAE_NAAUSSkillInstance@1@AAUSSkillData@CPythonSkill@@@Z
_TEXT	SEGMENT
_rkSkillInst$ = 8					; size = 4
_rkSkillData$ = 12					; size = 4
?__CheckShortMana@CPythonPlayer@@IAE_NAAUSSkillInstance@1@AAUSSkillData@CPythonSkill@@@Z PROC ; CPythonPlayer::__CheckShortMana, COMDAT
; _this$ = ecx

; 321  : {

  00000	55		 push	 ebp
  00001	8b ec		 mov	 ebp, esp

; 322  : 	extern const DWORD c_iSkillIndex_Summon;
; 323  : 	if (c_iSkillIndex_Summon == rkSkillInst.dwIndex)

  00003	8b 45 08	 mov	 eax, DWORD PTR _rkSkillInst$[ebp]
  00006	53		 push	 ebx
  00007	56		 push	 esi
  00008	57		 push	 edi
  00009	81 38 83 00 00
	00		 cmp	 DWORD PTR [eax], 131	; 00000083H
  0000f	8b d9		 mov	 ebx, ecx
  00011	74 6a		 je	 SHORT $LN1@CheckShort

; 324  : 		return false;
; 325  : 
; 326  : 	int iNeedSP = rkSkillData.GetNeedSP(rkSkillInst.fcurEfficientPercentage);

  00013	8b 7d 0c	 mov	 edi, DWORD PTR _rkSkillData$[ebp]
  00016	8b cf		 mov	 ecx, edi
  00018	f3 0f 10 48 10	 movss	 xmm1, DWORD PTR [eax+16]
  0001d	e8 00 00 00 00	 call	 ?GetNeedSP@SSkillData@CPythonSkill@@QAEHM@Z ; CPythonSkill::SSkillData::GetNeedSP

; 327  : 	int icurSP = GetStatus(POINT_SP);

  00022	8b 53 04	 mov	 edx, DWORD PTR [ebx+4]
  00025	8d 4b 04	 lea	 ecx, DWORD PTR [ebx+4]
  00028	6a 07		 push	 7
  0002a	8b f0		 mov	 esi, eax
  0002c	ff 52 10	 call	 DWORD PTR [edx+16]

; 328  : 
; 329  : 	// NOTE : ToggleSkill 이 아닌데 소모 SP 가 0 이다.
; 330  : 	if (!rkSkillData.IsToggleSkill())

  0002f	8b cf		 mov	 ecx, edi
  00031	8b d0		 mov	 edx, eax
  00033	e8 00 00 00 00	 call	 ?IsToggleSkill@SSkillData@CPythonSkill@@QAEHXZ ; CPythonSkill::SSkillData::IsToggleSkill
  00038	85 c0		 test	 eax, eax
  0003a	75 22		 jne	 SHORT $LN6@CheckShort

; 331  : 	{
; 332  : 		if (iNeedSP == 0)

  0003c	85 f6		 test	 esi, esi
  0003e	75 1e		 jne	 SHORT $LN6@CheckShort

; 333  : 		{
; 334  : 			CPythonChat::Instance().AppendChat(CHAT_TYPE_INFO, "!!! Find strange game data. Please reinstall metin2.");

  00040	8b 0d 00 00 00
	00		 mov	 ecx, DWORD PTR ?ms_singleton@?$CSingleton@VCPythonChat@@@@0PAVCPythonChat@@A ; CSingleton<CPythonChat>::ms_singleton
  00046	83 c1 04	 add	 ecx, 4
  00049	68 00 00 00 00	 push	 OFFSET ??_C@_0DF@OHCKPFBO@?$CB?$CB?$CB?5Find?5strange?5game?5data?4?5Plea@
  0004e	6a 01		 push	 1
  00050	8b 01		 mov	 eax, DWORD PTR [ecx]
  00052	ff 50 04	 call	 DWORD PTR [eax+4]
$LN13@CheckShort:

; 335  : 			return true;

  00055	b0 01		 mov	 al, 1

; 348  : 				return true;
; 349  : 	}
; 350  : 
; 351  : 	return false;
; 352  : }

  00057	5f		 pop	 edi
  00058	5e		 pop	 esi
  00059	5b		 pop	 ebx
  0005a	5d		 pop	 ebp
  0005b	c2 08 00	 ret	 8
$LN6@CheckShort:

; 336  : 		}
; 337  : 	}
; 338  : 
; 339  : 	if (rkSkillData.CanUseIfNotEnough())

  0005e	e8 00 00 00 00	 call	 ?CanUseIfNotEnough@SSkillData@CPythonSkill@@QAEHXZ ; CPythonSkill::SSkillData::CanUseIfNotEnough
  00063	85 c0		 test	 eax, eax
  00065	74 0d		 je	 SHORT $LN5@CheckShort

; 340  : 	{
; 341  : 		if (icurSP <= 0)

  00067	85 d2		 test	 edx, edx
  00069	7f 12		 jg	 SHORT $LN1@CheckShort

; 342  : 			return true;

  0006b	b0 01		 mov	 al, 1

; 348  : 				return true;
; 349  : 	}
; 350  : 
; 351  : 	return false;
; 352  : }

  0006d	5f		 pop	 edi
  0006e	5e		 pop	 esi
  0006f	5b		 pop	 ebx
  00070	5d		 pop	 ebp
  00071	c2 08 00	 ret	 8
$LN5@CheckShort:

; 343  : 	}
; 344  : 	else
; 345  : 	{
; 346  : 		if (-1 != iNeedSP)

  00074	83 fe ff	 cmp	 esi, -1
  00077	74 04		 je	 SHORT $LN1@CheckShort

; 347  : 			if (iNeedSP > icurSP)

  00079	3b f2		 cmp	 esi, edx
  0007b	7f d8		 jg	 SHORT $LN13@CheckShort
$LN1@CheckShort:

; 348  : 				return true;
; 349  : 	}
; 350  : 
; 351  : 	return false;
; 352  : }

  0007d	5f		 pop	 edi
  0007e	5e		 pop	 esi
  0007f	32 c0		 xor	 al, al
  00081	5b		 pop	 ebx
  00082	5d		 pop	 ebp
  00083	c2 08 00	 ret	 8
?__CheckShortMana@CPythonPlayer@@IAE_NAAUSSkillInstance@1@AAUSSkillData@CPythonSkill@@@Z ENDP ; CPythonPlayer::__CheckShortMana
_TEXT	ENDS
; Function compile flags: /Ogtp
; File d:\metin2\metin2\client_source_clean\client_source_clean\source\userinterface\pythonplayerskill.cpp
;	COMDAT ?__CheckShortLife@CPythonPlayer@@IAE_NAAUSSkillInstance@1@AAUSSkillData@CPythonSkill@@@Z
_TEXT	SEGMENT
_rkSkillInst$ = 8					; size = 4
_rkSkillData$ = 12					; size = 4
?__CheckShortLife@CPythonPlayer@@IAE_NAAUSSkillInstance@1@AAUSSkillData@CPythonSkill@@@Z PROC ; CPythonPlayer::__CheckShortLife, COMDAT
; _this$ = ecx

; 355  : {

  00000	55		 push	 ebp
  00001	8b ec		 mov	 ebp, esp
  00003	56		 push	 esi
  00004	57		 push	 edi
  00005	8b f9		 mov	 edi, ecx

; 356  : 	if (!rkSkillData.IsUseHPSkill())

  00007	8b 4d 0c	 mov	 ecx, DWORD PTR _rkSkillData$[ebp]
  0000a	e8 00 00 00 00	 call	 ?IsUseHPSkill@SSkillData@CPythonSkill@@QAEHXZ ; CPythonSkill::SSkillData::IsUseHPSkill
  0000f	85 c0		 test	 eax, eax
  00011	75 08		 jne	 SHORT $LN2@CheckShort

; 357  : 		return false;

  00013	32 c0		 xor	 al, al

; 361  : 		return false;
; 362  : 
; 363  : 	return true;
; 364  : }

  00015	5f		 pop	 edi
  00016	5e		 pop	 esi
  00017	5d		 pop	 ebp
  00018	c2 08 00	 ret	 8
$LN2@CheckShort:

; 358  : 	
; 359  : 	DWORD dwNeedHP = rkSkillData.GetNeedSP(rkSkillInst.fcurEfficientPercentage);

  0001b	8b 45 08	 mov	 eax, DWORD PTR _rkSkillInst$[ebp]
  0001e	f3 0f 10 48 10	 movss	 xmm1, DWORD PTR [eax+16]
  00023	e8 00 00 00 00	 call	 ?GetNeedSP@SSkillData@CPythonSkill@@QAEHM@Z ; CPythonSkill::SSkillData::GetNeedSP

; 360  : 	if (dwNeedHP <= GetStatus(POINT_HP))

  00028	8b 57 04	 mov	 edx, DWORD PTR [edi+4]
  0002b	8d 4f 04	 lea	 ecx, DWORD PTR [edi+4]
  0002e	6a 05		 push	 5
  00030	8b f0		 mov	 esi, eax
  00032	ff 52 10	 call	 DWORD PTR [edx+16]
  00035	3b f0		 cmp	 esi, eax

; 361  : 		return false;
; 362  : 
; 363  : 	return true;
; 364  : }

  00037	5f		 pop	 edi
  00038	0f 97 c0	 seta	 al
  0003b	5e		 pop	 esi
  0003c	5d		 pop	 ebp
  0003d	c2 08 00	 ret	 8
?__CheckShortLife@CPythonPlayer@@IAE_NAAUSSkillInstance@1@AAUSSkillData@CPythonSkill@@@Z ENDP ; CPythonPlayer::__CheckShortLife
_TEXT	ENDS
; Function compile flags: /Ogtp
; File d:\metin2\metin2\client_source_clean\client_source_clean\source\userinterface\pythonplayerskill.cpp
;	COMDAT ?__GetSkillTargetRange@CPythonPlayer@@IAEKAAUSSkillData@CPythonSkill@@@Z
_TEXT	SEGMENT
_rkSkillData$ = 8					; size = 4
?__GetSkillTargetRange@CPythonPlayer@@IAEKAAUSSkillData@CPythonSkill@@@Z PROC ; CPythonPlayer::__GetSkillTargetRange, COMDAT
; _this$ = ecx

; 392  : {

  00000	55		 push	 ebp
  00001	8b ec		 mov	 ebp, esp

; 393  : 	return rkSkillData.GetTargetRange() + GetStatus(POINT_BOW_DISTANCE)*100;

  00003	8b 41 04	 mov	 eax, DWORD PTR [ecx+4]
  00006	83 c1 04	 add	 ecx, 4
  00009	6a 22		 push	 34			; 00000022H
  0000b	ff 50 10	 call	 DWORD PTR [eax+16]
  0000e	8b 4d 08	 mov	 ecx, DWORD PTR _rkSkillData$[ebp]
  00011	6b d0 64	 imul	 edx, eax, 100
  00014	e8 00 00 00 00	 call	 ?GetTargetRange@SSkillData@CPythonSkill@@QBEKXZ ; CPythonSkill::SSkillData::GetTargetRange
  00019	03 c2		 add	 eax, edx

; 394  : }

  0001b	5d		 pop	 ebp
  0001c	c2 04 00	 ret	 4
?__GetSkillTargetRange@CPythonPlayer@@IAEKAAUSSkillData@CPythonSkill@@@Z ENDP ; CPythonPlayer::__GetSkillTargetRange
_TEXT	ENDS
; Function compile flags: /Ogtp
; File d:\metin2\metin2\client_source_clean\client_source_clean\source\userinterface\pythonplayerskill.cpp
;	COMDAT ?__ProcessEnemySkillTargetRange@CPythonPlayer@@IAE_NAAVCInstanceBase@@0AAUSSkillData@CPythonSkill@@K@Z
_TEXT	SEGMENT
_kPPosTarget$ = -20					; size = 12
_dwSkillTargetRange$1$ = -8				; size = 4
_fSkillTargetRange$1$ = -4				; size = 4
_rkInstMain$ = 8					; size = 4
_rkInstTarget$ = 12					; size = 4
_fTargetDistance$1$ = 16				; size = 4
_rkSkillData$ = 16					; size = 4
_dwSkillSlotIndex$ = 20					; size = 4
?__ProcessEnemySkillTargetRange@CPythonPlayer@@IAE_NAAVCInstanceBase@@0AAUSSkillData@CPythonSkill@@K@Z PROC ; CPythonPlayer::__ProcessEnemySkillTargetRange, COMDAT
; _this$ = ecx

; 397  : {

  00000	55		 push	 ebp
  00001	8b ec		 mov	 ebp, esp
  00003	83 ec 14	 sub	 esp, 20			; 00000014H
  00006	53		 push	 ebx
  00007	56		 push	 esi
  00008	57		 push	 edi

; 398  : 	DWORD dwSkillTargetRange=__GetSkillTargetRange(rkSkillData);

  00009	8b 7d 10	 mov	 edi, DWORD PTR _rkSkillData$[ebp]
  0000c	8b f1		 mov	 esi, ecx
  0000e	57		 push	 edi
  0000f	e8 00 00 00 00	 call	 ?__GetSkillTargetRange@CPythonPlayer@@IAEKAAUSSkillData@CPythonSkill@@@Z ; CPythonPlayer::__GetSkillTargetRange

; 399  : 	float fSkillTargetRange = float(dwSkillTargetRange);

  00014	8b c8		 mov	 ecx, eax
  00016	89 45 f8	 mov	 DWORD PTR _dwSkillTargetRange$1$[ebp], eax
  00019	c1 e9 1f	 shr	 ecx, 31			; 0000001fH
  0001c	66 0f 6e c0	 movd	 xmm0, eax
  00020	f3 0f e6 c0	 cvtdq2pd xmm0, xmm0
  00024	f2 0f 58 04 cd
	00 00 00 00	 addsd	 xmm0, QWORD PTR __xmm@41f00000000000000000000000000000[ecx*8]
  0002d	66 0f 5a c8	 cvtpd2ps xmm1, xmm0
  00031	0f 57 c0	 xorps	 xmm0, xmm0

; 400  : 	if (fSkillTargetRange <= 0.0f)

  00034	0f 2f c1	 comiss	 xmm0, xmm1
  00037	f3 0f 11 4d fc	 movss	 DWORD PTR _fSkillTargetRange$1$[ebp], xmm1
  0003c	0f 83 d9 00 00
	00		 jae	 $LN1@ProcessEne

; 401  : 		return true;
; 402  : 
; 403  : 	// #0000806: [M2EU] 수룡에게 무사(나한군) 탄환격 스킬 사용 안됨	
; 404  : 	float fTargetDistance = rkInstMain.GetDistance(&rkInstTarget);

  00042	8b 5d 0c	 mov	 ebx, DWORD PTR _rkInstTarget$[ebp]
  00045	8b 4d 08	 mov	 ecx, DWORD PTR _rkInstMain$[ebp]
  00048	53		 push	 ebx
  00049	e8 00 00 00 00	 call	 ?GetDistance@CInstanceBase@@QAEMPAV1@@Z ; CInstanceBase::GetDistance

; 405  : 
; 406  : 	extern bool IS_HUGE_RACE(unsigned int vnum);
; 407  : 	if (IS_HUGE_RACE(rkInstTarget.GetRace()))

  0004e	8b cb		 mov	 ecx, ebx
  00050	f3 0f 11 45 10	 movss	 DWORD PTR _fTargetDistance$1$[ebp], xmm0
  00055	e8 00 00 00 00	 call	 ?GetRace@CInstanceBase@@QAEKXZ ; CInstanceBase::GetRace
  0005a	50		 push	 eax
  0005b	e8 00 00 00 00	 call	 ?IS_HUGE_RACE@@YA_NI@Z	; IS_HUGE_RACE

; 408  : 	{
; 409  : 		fTargetDistance -= 200.0f; // TEMP: 일단 하드 코딩 처리. 정석적으로는 바운드 스피어를 고려해야함

  00060	f3 0f 10 45 10	 movss	 xmm0, DWORD PTR _fTargetDistance$1$[ebp]
  00065	83 c4 04	 add	 esp, 4
  00068	84 c0		 test	 al, al
  0006a	74 08		 je	 SHORT $LN5@ProcessEne
  0006c	f3 0f 5c 05 00
	00 00 00	 subss	 xmm0, DWORD PTR __real@43480000
$LN5@ProcessEne:

; 410  : 	}
; 411  : 
; 412  : 	if (fTargetDistance >= fSkillTargetRange)

  00074	0f 2f 45 fc	 comiss	 xmm0, DWORD PTR _fSkillTargetRange$1$[ebp]
  00078	72 40		 jb	 SHORT $LN4@ProcessEne

; 413  : 	{
; 414  : 		if (rkSkillData.IsChargeSkill())

  0007a	8b cf		 mov	 ecx, edi
  0007c	e8 00 00 00 00	 call	 ?IsChargeSkill@SSkillData@CPythonSkill@@QAEHXZ ; CPythonSkill::SSkillData::IsChargeSkill
  00081	8b 7d 14	 mov	 edi, DWORD PTR _dwSkillSlotIndex$[ebp]
  00084	85 c0		 test	 eax, eax
  00086	74 14		 je	 SHORT $LN2@ProcessEne

; 415  : 		{
; 416  : 			if (!__IsReservedUseSkill(dwSkillSlotIndex))

  00088	57		 push	 edi
  00089	8b ce		 mov	 ecx, esi
  0008b	e8 00 00 00 00	 call	 ?__IsReservedUseSkill@CPythonPlayer@@IAE_NK@Z ; CPythonPlayer::__IsReservedUseSkill
  00090	84 c0		 test	 al, al
  00092	75 08		 jne	 SHORT $LN2@ProcessEne

; 417  : 				__SendUseSkill(dwSkillSlotIndex, 0);

  00094	6a 00		 push	 0
  00096	57		 push	 edi
  00097	e8 00 00 00 00	 call	 ?__SendUseSkill@CPythonPlayer@@IAEXKK@Z ; CPythonPlayer::__SendUseSkill
$LN2@ProcessEne:

; 418  : 		}
; 419  : 
; 420  : 		__ReserveUseSkill(rkInstTarget.GetVirtualID(), dwSkillSlotIndex, dwSkillTargetRange);

  0009c	ff 75 f8	 push	 DWORD PTR _dwSkillTargetRange$1$[ebp]
  0009f	8b cb		 mov	 ecx, ebx
  000a1	57		 push	 edi
  000a2	e8 00 00 00 00	 call	 ?GetVirtualID@CInstanceBase@@QAEKXZ ; CInstanceBase::GetVirtualID
  000a7	50		 push	 eax
  000a8	8b ce		 mov	 ecx, esi
  000aa	e8 00 00 00 00	 call	 ?__ReserveUseSkill@CPythonPlayer@@IAEXKKK@Z ; CPythonPlayer::__ReserveUseSkill

; 421  : 
; 422  : 		return false;

  000af	32 c0		 xor	 al, al

; 434  : 	}
; 435  : 
; 436  : 	return true;
; 437  : }

  000b1	5f		 pop	 edi
  000b2	5e		 pop	 esi
  000b3	5b		 pop	 ebx
  000b4	8b e5		 mov	 esp, ebp
  000b6	5d		 pop	 ebp
  000b7	c2 10 00	 ret	 16			; 00000010H
$LN4@ProcessEne:

; 423  : 	}
; 424  : 
; 425  : 	// 2004.07.05.myevan. 궁신탄영 사용시 맵에 끼임. 사용하기전 갈수 있는곳 체크
; 426  : 	TPixelPosition kPPosTarget;
; 427  : 	rkInstTarget.NEW_GetPixelPosition(&kPPosTarget);

  000ba	8d 45 ec	 lea	 eax, DWORD PTR _kPPosTarget$[ebp]
  000bd	8b cb		 mov	 ecx, ebx
  000bf	50		 push	 eax
  000c0	e8 00 00 00 00	 call	 ?NEW_GetPixelPosition@CInstanceBase@@QAEXPAUD3DXVECTOR3@@@Z ; CInstanceBase::NEW_GetPixelPosition

; 428  : 
; 429  : 	IBackground& rkBG=IBackground::Instance();
; 430  : 	if (rkBG.IsBlock(kPPosTarget.x, kPPosTarget.y))

  000c5	f3 0f 2c 45 f0	 cvttss2si eax, DWORD PTR _kPPosTarget$[ebp+4]
  000ca	8b 0d 00 00 00
	00		 mov	 ecx, DWORD PTR ?ms_singleton@?$CSingleton@VIBackground@@@@0PAVIBackground@@A ; CSingleton<IBackground>::ms_singleton
  000d0	8b 11		 mov	 edx, DWORD PTR [ecx]
  000d2	50		 push	 eax
  000d3	f3 0f 2c 45 ec	 cvttss2si eax, DWORD PTR _kPPosTarget$[ebp]
  000d8	50		 push	 eax
  000d9	8b 42 04	 mov	 eax, DWORD PTR [edx+4]
  000dc	ff d0		 call	 eax
  000de	84 c0		 test	 al, al
  000e0	74 39		 je	 SHORT $LN1@ProcessEne

; 431  : 	{
; 432  : 		PyCallClassMemberFunc(m_ppyGameWindow, "OnCannotUseSkill", Py_BuildValue("(is)", GetMainCharacterIndex(), "CANNOT_APPROACH"));

  000e2	8b 46 04	 mov	 eax, DWORD PTR [esi+4]
  000e5	8d 4e 04	 lea	 ecx, DWORD PTR [esi+4]
  000e8	68 00 00 00 00	 push	 OFFSET ??_C@_0BA@CFBPJACC@CANNOT_APPROACH?$AA@
  000ed	ff 50 04	 call	 DWORD PTR [eax+4]
  000f0	50		 push	 eax
  000f1	68 00 00 00 00	 push	 OFFSET ??_C@_04JMLDJNEM@?$CIis?$CJ?$AA@
  000f6	ff 15 00 00 00
	00		 call	 DWORD PTR __imp__Py_BuildValue
  000fc	83 c4 0c	 add	 esp, 12			; 0000000cH
  000ff	50		 push	 eax
  00100	68 00 00 00 00	 push	 OFFSET ??_C@_0BB@BOHMBBJL@OnCannotUseSkill?$AA@
  00105	ff 76 08	 push	 DWORD PTR [esi+8]
  00108	e8 00 00 00 00	 call	 ?PyCallClassMemberFunc@@YA_NPAU_object@@PBD0@Z ; PyCallClassMemberFunc
  0010d	83 c4 0c	 add	 esp, 12			; 0000000cH

; 433  : 		return false;

  00110	32 c0		 xor	 al, al

; 434  : 	}
; 435  : 
; 436  : 	return true;
; 437  : }

  00112	5f		 pop	 edi
  00113	5e		 pop	 esi
  00114	5b		 pop	 ebx
  00115	8b e5		 mov	 esp, ebp
  00117	5d		 pop	 ebp
  00118	c2 10 00	 ret	 16			; 00000010H
$LN1@ProcessEne:
  0011b	5f		 pop	 edi
  0011c	5e		 pop	 esi
  0011d	b0 01		 mov	 al, 1
  0011f	5b		 pop	 ebx
  00120	8b e5		 mov	 esp, ebp
  00122	5d		 pop	 ebp
  00123	c2 10 00	 ret	 16			; 00000010H
?__ProcessEnemySkillTargetRange@CPythonPlayer@@IAE_NAAVCInstanceBase@@0AAUSSkillData@CPythonSkill@@K@Z ENDP ; CPythonPlayer::__ProcessEnemySkillTargetRange
_TEXT	ENDS
; Function compile flags: /Ogtp
; File d:\metin2\metin2\client_source_clean\client_source_clean\source\userinterface\pythonplayerskill.cpp
;	COMDAT ?__CanUseSkill@CPythonPlayer@@IAE_NXZ
_TEXT	SEGMENT
?__CanUseSkill@CPythonPlayer@@IAE_NXZ PROC		; CPythonPlayer::__CanUseSkill, COMDAT
; _this$ = ecx

; 440  : {

  00000	56		 push	 esi
  00001	8b f1		 mov	 esi, ecx

; 441  : 	CInstanceBase* pkInstMain=NEW_GetMainActorPtr();

  00003	8b 46 04	 mov	 eax, DWORD PTR [esi+4]
  00006	8d 4e 04	 lea	 ecx, DWORD PTR [esi+4]
  00009	ff 90 88 00 00
	00		 call	 DWORD PTR [eax+136]
  0000f	8b d0		 mov	 edx, eax

; 442  : 	if (!pkInstMain)

  00011	85 d2		 test	 edx, edx
  00013	75 04		 jne	 SHORT $LN3@CanUseSkil
$LN8@CanUseSkil:

; 443  : 		return false;

  00015	32 c0		 xor	 al, al
  00017	5e		 pop	 esi

; 457  : }

  00018	c3		 ret	 0
$LN3@CanUseSkil:

; 444  : 
; 445  : 	if (IsObserverMode())

  00019	8b ce		 mov	 ecx, esi
  0001b	e8 00 00 00 00	 call	 ?IsObserverMode@CPythonPlayer@@QAE_NXZ ; CPythonPlayer::IsObserverMode
  00020	84 c0		 test	 al, al
  00022	75 f1		 jne	 SHORT $LN8@CanUseSkil

; 446  : 		return false;
; 447  : 
; 448  : 	// Fix me
; 449  : 	// 뉴마운트. 승마스킬레벨 20 미만인 경우, 고급 마운트를 타고 승마 관련 스킬 못 쓰도록 못하도록 하드 코딩... 
; 450  : 	// 나중에 시간 나면 can use skill 체크를 서버에서 해주자...
; 451  : 	if (pkInstMain->IsMountingHorse() && (GetSkillGrade(109) < 1 && GetSkillLevel(109) < 20))

  00024	8b ca		 mov	 ecx, edx
  00026	e8 00 00 00 00	 call	 ?IsMountingHorse@CInstanceBase@@QAEHXZ ; CInstanceBase::IsMountingHorse
  0002b	85 c0		 test	 eax, eax
  0002d	74 1a		 je	 SHORT $LN1@CanUseSkil
  0002f	6a 6d		 push	 109			; 0000006dH
  00031	8b ce		 mov	 ecx, esi
  00033	e8 00 00 00 00	 call	 ?GetSkillGrade@CPythonPlayer@@QAEHK@Z ; CPythonPlayer::GetSkillGrade
  00038	83 f8 01	 cmp	 eax, 1
  0003b	7d 0c		 jge	 SHORT $LN1@CanUseSkil
  0003d	6a 6d		 push	 109			; 0000006dH
  0003f	e8 00 00 00 00	 call	 ?GetSkillLevel@CPythonPlayer@@QAEHK@Z ; CPythonPlayer::GetSkillLevel
  00044	83 f8 14	 cmp	 eax, 20			; 00000014H
  00047	7c cc		 jl	 SHORT $LN8@CanUseSkil
$LN1@CanUseSkil:

; 452  : 	{
; 453  : 		return false;
; 454  : 	}
; 455  : 
; 456  : 	return pkInstMain->CanUseSkill();

  00049	8b ca		 mov	 ecx, edx
  0004b	5e		 pop	 esi
  0004c	e9 00 00 00 00	 jmp	 ?CanUseSkill@CInstanceBase@@QAE_NXZ ; CInstanceBase::CanUseSkill
?__CanUseSkill@CPythonPlayer@@IAE_NXZ ENDP		; CPythonPlayer::__CanUseSkill
_TEXT	ENDS
; Function compile flags: /Ogtp
; File d:\metin2\metin2\client_source_clean\client_source_clean\source\userinterface\pythonplayerskill.cpp
;	COMDAT ?__SendUseSkill@CPythonPlayer@@IAEXKK@Z
_TEXT	SEGMENT
_dwSkillSlotIndex$ = 8					; size = 4
_dwTargetVID$ = 12					; size = 4
?__SendUseSkill@CPythonPlayer@@IAEXKK@Z PROC		; CPythonPlayer::__SendUseSkill, COMDAT
; _this$ = ecx

; 773  : {

  00000	55		 push	 ebp
  00001	8b ec		 mov	 ebp, esp
  00003	56		 push	 esi

; 774  : 	TSkillInstance & rkSkillInst = m_playerStatus.aSkill[dwSkillSlotIndex];
; 775  : 
; 776  : 	CPythonNetworkStream& rkNetStream=CPythonNetworkStream::Instance();
; 777  : 	rkNetStream.SendUseSkillPacket(rkSkillInst.dwIndex, dwTargetVID);

  00004	8b 75 08	 mov	 esi, DWORD PTR _dwSkillSlotIndex$[ebp]
  00007	57		 push	 edi
  00008	ff 75 0c	 push	 DWORD PTR _dwTargetVID$[ebp]
  0000b	8b f9		 mov	 edi, ecx
  0000d	8b 0d 00 00 00
	00		 mov	 ecx, DWORD PTR ?ms_singleton@?$CSingleton@VCPythonNetworkStream@@@@0PAVCPythonNetworkStream@@A ; CSingleton<CPythonNetworkStream>::ms_singleton
  00013	8d 04 b6	 lea	 eax, DWORD PTR [esi+esi*4]
  00016	ff b4 c7 90 dd
	00 00		 push	 DWORD PTR [edi+eax*8+56720]
  0001d	e8 00 00 00 00	 call	 ?SendUseSkillPacket@CPythonNetworkStream@@QAE_NKK@Z ; CPythonNetworkStream::SendUseSkillPacket

; 778  : 
; 779  : 	__RunCoolTime(dwSkillSlotIndex);

  00022	56		 push	 esi
  00023	8b cf		 mov	 ecx, edi
  00025	e8 00 00 00 00	 call	 ?__RunCoolTime@CPythonPlayer@@IAEXK@Z ; CPythonPlayer::__RunCoolTime

; 780  : }

  0002a	5f		 pop	 edi
  0002b	5e		 pop	 esi
  0002c	5d		 pop	 ebp
  0002d	c2 08 00	 ret	 8
?__SendUseSkill@CPythonPlayer@@IAEXKK@Z ENDP		; CPythonPlayer::__SendUseSkill
_TEXT	ENDS
; Function compile flags: /Ogtp
; File d:\metin2\metin2\client_source_clean\client_source_clean\source\userinterface\pythonplayerskill.cpp
;	COMDAT ?__RunCoolTime@CPythonPlayer@@IAEXK@Z
_TEXT	SEGMENT
tv149 = -4						; size = 4
_pkSkillData$ = -4					; size = 4
_dwSkillSlotIndex$ = 8					; size = 4
?__RunCoolTime@CPythonPlayer@@IAEXK@Z PROC		; CPythonPlayer::__RunCoolTime, COMDAT
; _this$ = ecx

; 797  : {

  00000	55		 push	 ebp
  00001	8b ec		 mov	 ebp, esp
  00003	83 e4 c0	 and	 esp, -64		; ffffffc0H
  00006	83 ec 34	 sub	 esp, 52			; 00000034H

; 798  : 	TSkillInstance & rkSkillInst = m_playerStatus.aSkill[dwSkillSlotIndex];
; 799  : 
; 800  : 	CPythonSkill::TSkillData * pkSkillData;
; 801  : 	if (!CPythonSkill::Instance().GetSkillData(rkSkillInst.dwIndex, &pkSkillData))

  00009	8d 44 24 30	 lea	 eax, DWORD PTR _pkSkillData$[esp+52]
  0000d	53		 push	 ebx
  0000e	56		 push	 esi
  0000f	57		 push	 edi
  00010	8b 7d 08	 mov	 edi, DWORD PTR _dwSkillSlotIndex$[ebp]
  00013	8b f1		 mov	 esi, ecx
  00015	8b 0d 00 00 00
	00		 mov	 ecx, DWORD PTR ?ms_singleton@?$CSingleton@VCPythonSkill@@@@0PAVCPythonSkill@@A ; CSingleton<CPythonSkill>::ms_singleton
  0001b	50		 push	 eax
  0001c	8d 9f 8a 05 00
	00		 lea	 ebx, DWORD PTR [edi+1418]
  00022	8d 1c 9b	 lea	 ebx, DWORD PTR [ebx+ebx*4]
  00025	ff 34 de	 push	 DWORD PTR [esi+ebx*8]
  00028	e8 00 00 00 00	 call	 ?GetSkillData@CPythonSkill@@QAEHKPAPAUSSkillData@1@@Z ; CPythonSkill::GetSkillData
  0002d	85 c0		 test	 eax, eax
  0002f	75 17		 jne	 SHORT $LN5@RunCoolTim

; 802  : 	{
; 803  : 		TraceError("CPythonPlayer::__SendUseSkill(dwSkillSlotIndex=%d) - NOT CHECK", dwSkillSlotIndex);

  00031	57		 push	 edi
  00032	68 00 00 00 00	 push	 OFFSET ??_C@_0DP@EKGIGFIO@CPythonPlayer?3?3__SendUseSkill?$CIdw@
  00037	e8 00 00 00 00	 call	 ?TraceError@@YAXPBDZZ	; TraceError
  0003c	83 c4 08	 add	 esp, 8

; 823  : }

  0003f	5f		 pop	 edi
  00040	5e		 pop	 esi
  00041	5b		 pop	 ebx
  00042	8b e5		 mov	 esp, ebp
  00044	5d		 pop	 ebp
  00045	c2 04 00	 ret	 4
$LN5@RunCoolTim:

; 804  : 		return;
; 805  : 	}
; 806  : 
; 807  : 	CPythonSkill::TSkillData& rkSkillData=*pkSkillData;
; 808  : 
; 809  : 	rkSkillInst.fCoolTime = rkSkillData.GetSkillCoolTime(rkSkillInst.fcurEfficientPercentage);

  00048	f3 0f 10 4c de
	10		 movss	 xmm1, DWORD PTR [esi+ebx*8+16]
  0004e	8b 4c 24 3c	 mov	 ecx, DWORD PTR _pkSkillData$[esp+64]
  00052	e8 00 00 00 00	 call	 ?GetSkillCoolTime@SSkillData@CPythonSkill@@QAEKM@Z ; CPythonSkill::SSkillData::GetSkillCoolTime
  00057	66 0f 6e c0	 movd	 xmm0, eax
  0005b	f3 0f e6 c0	 cvtdq2pd xmm0, xmm0
  0005f	c1 e8 1f	 shr	 eax, 31			; 0000001fH
  00062	f2 0f 58 04 c5
	00 00 00 00	 addsd	 xmm0, QWORD PTR __xmm@41f00000000000000000000000000000[eax*8]
  0006b	66 0f 5a c0	 cvtpd2ps xmm0, xmm0
  0006f	f3 0f 11 44 de
	1c		 movss	 DWORD PTR [esi+ebx*8+28], xmm0

; 810  : 	rkSkillInst.fLastUsedTime = CTimer::Instance().GetCurrentSecond();

  00075	8b 0d 00 00 00
	00		 mov	 ecx, DWORD PTR ?ms_singleton@?$CSingleton@VCTimer@@@@0PAVCTimer@@A ; CSingleton<CTimer>::ms_singleton
  0007b	e8 00 00 00 00	 call	 ?GetCurrentSecond@CTimer@@QAEMXZ ; CTimer::GetCurrentSecond

; 811  : 
; 812  : 	int iSpd = 100 - GetStatus(POINT_CASTING_SPEED);

  00080	8d 4e 04	 lea	 ecx, DWORD PTR [esi+4]
  00083	d9 5c de 20	 fstp	 DWORD PTR [esi+ebx*8+32]
  00087	8b 01		 mov	 eax, DWORD PTR [ecx]
  00089	6a 15		 push	 21			; 00000015H
  0008b	ff 50 10	 call	 DWORD PTR [eax+16]
  0008e	ba 64 00 00 00	 mov	 edx, 100		; 00000064H
  00093	8b ca		 mov	 ecx, edx
  00095	2b c8		 sub	 ecx, eax

; 813  : 	if (iSpd > 0)

  00097	85 c9		 test	 ecx, ecx
  00099	7e 04		 jle	 SHORT $LN12@RunCoolTim

; 814  : 		iSpd = 100 + iSpd;

  0009b	03 ca		 add	 ecx, edx
  0009d	eb 18		 jmp	 SHORT $LN1@RunCoolTim
$LN12@RunCoolTim:

; 815  : 	else if (iSpd < 0)

  0009f	79 14		 jns	 SHORT $LN2@RunCoolTim

; 816  : 		iSpd = 10000 / (100 - iSpd);

  000a1	2b d1		 sub	 edx, ecx
  000a3	b8 10 27 00 00	 mov	 eax, 10000		; 00002710H
  000a8	89 54 24 3c	 mov	 DWORD PTR tv149[esp+64], edx
  000ac	99		 cdq
  000ad	f7 7c 24 3c	 idiv	 DWORD PTR tv149[esp+64]
  000b1	8b c8		 mov	 ecx, eax

; 817  : 	else

  000b3	eb 02		 jmp	 SHORT $LN1@RunCoolTim
$LN2@RunCoolTim:

; 818  : 		iSpd = 100;

  000b5	8b ca		 mov	 ecx, edx
$LN1@RunCoolTim:
  000b7	66 0f 6e c1	 movd	 xmm0, ecx

; 819  : 
; 820  : 	rkSkillInst.fCoolTime = rkSkillInst.fCoolTime * iSpd / 100;
; 821  : 
; 822  : 	PyCallClassMemberFunc(m_ppyGameWindow, "RunUseSkillEvent", Py_BuildValue("(if)", dwSkillSlotIndex, rkSkillInst.fCoolTime));

  000bb	83 ec 08	 sub	 esp, 8
  000be	0f 5b c0	 cvtdq2ps xmm0, xmm0
  000c1	f3 0f 59 44 de
	1c		 mulss	 xmm0, DWORD PTR [esi+ebx*8+28]
  000c7	f3 0f 5e 05 00
	00 00 00	 divss	 xmm0, DWORD PTR __real@42c80000
  000cf	f3 0f 11 44 de
	1c		 movss	 DWORD PTR [esi+ebx*8+28], xmm0
  000d5	0f 5a c0	 cvtps2pd xmm0, xmm0
  000d8	f2 0f 11 04 24	 movsd	 QWORD PTR [esp], xmm0
  000dd	57		 push	 edi
  000de	68 00 00 00 00	 push	 OFFSET ??_C@_04IGFOPMNH@?$CIif?$CJ?$AA@
  000e3	ff 15 00 00 00
	00		 call	 DWORD PTR __imp__Py_BuildValue
  000e9	50		 push	 eax
  000ea	68 00 00 00 00	 push	 OFFSET ??_C@_0BB@GJACMMFG@RunUseSkillEvent?$AA@
  000ef	ff 76 08	 push	 DWORD PTR [esi+8]
  000f2	e8 00 00 00 00	 call	 ?PyCallClassMemberFunc@@YA_NPAU_object@@PBD0@Z ; PyCallClassMemberFunc
  000f7	83 c4 1c	 add	 esp, 28			; 0000001cH

; 823  : }

  000fa	5f		 pop	 edi
  000fb	5e		 pop	 esi
  000fc	5b		 pop	 ebx
  000fd	8b e5		 mov	 esp, ebp
  000ff	5d		 pop	 ebp
  00100	c2 04 00	 ret	 4
?__RunCoolTime@CPythonPlayer@@IAEXK@Z ENDP		; CPythonPlayer::__RunCoolTime
_TEXT	ENDS
; Function compile flags: /Ogtp
; File d:\metin2\metin2\client_source_clean\client_source_clean\source\userinterface\pythonplayerskill.cpp
; File d:\metin2\metin2\client_source_clean\client_source_clean\source\userinterface\gametype.h
; File d:\metin2\metin2\client_source_clean\client_source_clean\source\userinterface\pythonplayerskill.cpp
; File d:\metin2\metin2\client_source_clean\client_source_clean\source\userinterface\gametype.h
; File d:\metin2\metin2\client_source_clean\client_source_clean\source\userinterface\pythonplayerskill.cpp
; File d:\metin2\metin2\client_source_clean\client_source_clean\source\userinterface\gametype.h
; File d:\metin2\metin2\client_source_clean\client_source_clean\source\userinterface\pythonplayerskill.cpp
; File d:\metin2\metin2\client_source_clean\client_source_clean\source\userinterface\gametype.h
; File d:\metin2\metin2\client_source_clean\client_source_clean\source\userinterface\pythonplayerskill.cpp
; File d:\metin2\metin2\client_source_clean\client_source_clean\source\userinterface\gametype.h
; File d:\metin2\metin2\client_source_clean\client_source_clean\source\userinterface\pythonplayerskill.cpp
;	COMDAT ?__HasItem@CPythonPlayer@@IAE_NK@Z
_TEXT	SEGMENT
$T1 = -3						; size = 3
_dwItemID$ = 8						; size = 4
$T2 = 9							; size = 3
?__HasItem@CPythonPlayer@@IAE_NK@Z PROC			; CPythonPlayer::__HasItem, COMDAT
; _this$ = ecx

; 840  : {

  00000	55		 push	 ebp
  00001	8b ec		 mov	 ebp, esp
  00003	51		 push	 ecx
  00004	53		 push	 ebx
; File d:\metin2\metin2\client_source_clean\client_source_clean\source\userinterface\gametype.h

; 191  :         window_type = _window_type;

  00005	8b 5d 08	 mov	 ebx, DWORD PTR _dwItemID$[ebp]
  00008	56		 push	 esi
  00009	57		 push	 edi
; File d:\metin2\metin2\client_source_clean\client_source_clean\source\userinterface\pythonplayerskill.cpp

; 841  : 	for (int i = 0; i < c_Inventory_Count; ++i)

  0000a	33 f6		 xor	 esi, esi
; File d:\metin2\metin2\client_source_clean\client_source_clean\source\userinterface\gametype.h

; 191  :         window_type = _window_type;

  0000c	c6 45 fd 01	 mov	 BYTE PTR $T1[ebp], 1
  00010	8d 79 04	 lea	 edi, DWORD PTR [ecx+4]
$LL8@HasItem:
; File d:\metin2\metin2\client_source_clean\client_source_clean\source\userinterface\pythonplayerskill.cpp

; 843  : 		if (dwItemID == GetItemIndex(TItemPos (INVENTORY, i)))

  00013	8b 17		 mov	 edx, DWORD PTR [edi]
  00015	51		 push	 ecx
  00016	8b cc		 mov	 ecx, esp
; File d:\metin2\metin2\client_source_clean\client_source_clean\source\userinterface\gametype.h

; 192  :         cell = _cell;

  00018	66 89 75 fe	 mov	 WORD PTR $T1[ebp+1], si
; File d:\metin2\metin2\client_source_clean\client_source_clean\source\userinterface\pythonplayerskill.cpp

; 843  : 		if (dwItemID == GetItemIndex(TItemPos (INVENTORY, i)))

  0001c	66 8b 45 fd	 mov	 ax, WORD PTR $T1[ebp]
  00020	66 89 01	 mov	 WORD PTR [ecx], ax
  00023	8a 45 ff	 mov	 al, BYTE PTR $T1[ebp+2]
  00026	88 41 02	 mov	 BYTE PTR [ecx+2], al
  00029	8b cf		 mov	 ecx, edi
  0002b	ff 52 40	 call	 DWORD PTR [edx+64]
  0002e	3b d8		 cmp	 ebx, eax
  00030	74 42		 je	 SHORT $LN17@HasItem

; 841  : 	for (int i = 0; i < c_Inventory_Count; ++i)

  00032	46		 inc	 esi
  00033	81 fe 0d 01 00
	00		 cmp	 esi, 269		; 0000010dH
  00039	72 d8		 jb	 SHORT $LL8@HasItem

; 844  : 			return true;
; 845  : 	}
; 846  : 	for (int i = 0; i < c_DragonSoul_Inventory_Count; ++i)

  0003b	33 f6		 xor	 esi, esi
; File d:\metin2\metin2\client_source_clean\client_source_clean\source\userinterface\gametype.h

; 191  :         window_type = _window_type;

  0003d	c6 45 09 05	 mov	 BYTE PTR $T2[ebp], 5
$LL4@HasItem:
; File d:\metin2\metin2\client_source_clean\client_source_clean\source\userinterface\pythonplayerskill.cpp

; 848  : 		if (dwItemID == GetItemIndex(TItemPos (DRAGON_SOUL_INVENTORY, i)))

  00041	8b 17		 mov	 edx, DWORD PTR [edi]
  00043	51		 push	 ecx
  00044	8b cc		 mov	 ecx, esp
; File d:\metin2\metin2\client_source_clean\client_source_clean\source\userinterface\gametype.h

; 192  :         cell = _cell;

  00046	66 89 75 0a	 mov	 WORD PTR $T2[ebp+1], si
; File d:\metin2\metin2\client_source_clean\client_source_clean\source\userinterface\pythonplayerskill.cpp

; 848  : 		if (dwItemID == GetItemIndex(TItemPos (DRAGON_SOUL_INVENTORY, i)))

  0004a	66 8b 45 09	 mov	 ax, WORD PTR $T2[ebp]
  0004e	66 89 01	 mov	 WORD PTR [ecx], ax
  00051	8a 45 0b	 mov	 al, BYTE PTR $T2[ebp+2]
  00054	88 41 02	 mov	 BYTE PTR [ecx+2], al
  00057	8b cf		 mov	 ecx, edi
  00059	ff 52 40	 call	 DWORD PTR [edx+64]
  0005c	3b d8		 cmp	 ebx, eax
  0005e	74 14		 je	 SHORT $LN17@HasItem

; 844  : 			return true;
; 845  : 	}
; 846  : 	for (int i = 0; i < c_DragonSoul_Inventory_Count; ++i)

  00060	46		 inc	 esi
  00061	81 fe c0 03 00
	00		 cmp	 esi, 960		; 000003c0H
  00067	72 d8		 jb	 SHORT $LL4@HasItem

; 849  : 			return true;
; 850  : 	}
; 851  : 
; 852  : 	return false;

  00069	32 c0		 xor	 al, al

; 853  : }

  0006b	5f		 pop	 edi
  0006c	5e		 pop	 esi
  0006d	5b		 pop	 ebx
  0006e	8b e5		 mov	 esp, ebp
  00070	5d		 pop	 ebp
  00071	c2 04 00	 ret	 4
$LN17@HasItem:
  00074	5f		 pop	 edi
  00075	5e		 pop	 esi
  00076	b0 01		 mov	 al, 1
  00078	5b		 pop	 ebx
  00079	8b e5		 mov	 esp, ebp
  0007b	5d		 pop	 ebp
  0007c	c2 04 00	 ret	 4
?__HasItem@CPythonPlayer@@IAE_NK@Z ENDP			; CPythonPlayer::__HasItem
_TEXT	ENDS
; Function compile flags: /Ogtp
; File d:\metin2\metin2\client_source_clean\client_source_clean\source\userinterface\pythonplayerskill.cpp
;	COMDAT ?__CheckSpecialSkill@CPythonPlayer@@IAE_NK@Z
_TEXT	SEGMENT
_dwSlotIndex$1 = 8					; size = 4
_dwSkillIndex$ = 8					; size = 4
?__CheckSpecialSkill@CPythonPlayer@@IAE_NK@Z PROC	; CPythonPlayer::__CheckSpecialSkill, COMDAT
; _this$ = ecx

; 951  : {

  00000	55		 push	 ebp
  00001	8b ec		 mov	 ebp, esp
  00003	51		 push	 ecx
  00004	56		 push	 esi
  00005	8b f1		 mov	 esi, ecx
  00007	57		 push	 edi

; 952  : 	CInstanceBase* pkInstMain = NEW_GetMainActorPtr();

  00008	8b 46 04	 mov	 eax, DWORD PTR [esi+4]
  0000b	8d 4e 04	 lea	 ecx, DWORD PTR [esi+4]
  0000e	ff 90 88 00 00
	00		 call	 DWORD PTR [eax+136]
  00014	8b c8		 mov	 ecx, eax

; 953  : 	if (!pkInstMain)

  00016	85 c9		 test	 ecx, ecx
  00018	0f 84 9b 00 00
	00		 je	 $LN4@CheckSpeci

; 954  : 		return false;
; 955  : 
; 956  : 	// Fishing
; 957  : 	if (c_iSkillIndex_Fishing == dwSkillIndex)

  0001e	8b 45 08	 mov	 eax, DWORD PTR _dwSkillIndex$[ebp]
  00021	83 f8 7b	 cmp	 eax, 123		; 0000007bH
  00024	75 50		 jne	 SHORT $LN8@CheckSpeci

; 958  : 	{
; 959  : 		if (pkInstMain->IsFishingMode())

  00026	e8 00 00 00 00	 call	 ?IsFishingMode@CInstanceBase@@QAEHXZ ; CInstanceBase::IsFishingMode
  0002b	85 c0		 test	 eax, eax
  0002d	74 10		 je	 SHORT $LN7@CheckSpeci

; 960  : 		{
; 961  : 			NEW_Fishing();

  0002f	8b ce		 mov	 ecx, esi
  00031	e8 00 00 00 00	 call	 ?NEW_Fishing@CPythonPlayer@@QAEXXZ ; CPythonPlayer::NEW_Fishing

; 966  : 		}
; 967  : 		return true;

  00036	b0 01		 mov	 al, 1

; 988  : 	}
; 989  : 
; 990  : 	return false;
; 991  : }

  00038	5f		 pop	 edi
  00039	5e		 pop	 esi
  0003a	59		 pop	 ecx
  0003b	5d		 pop	 ebp
  0003c	c2 04 00	 ret	 4
$LN7@CheckSpeci:

; 962  : 		}
; 963  : 		else
; 964  : 		{
; 965  : 			PyCallClassMemberFunc(m_ppyGameWindow, "OnCannotUseSkill", Py_BuildValue("(is)", GetMainCharacterIndex(), "EQUIP_FISHING_ROD"));

  0003f	68 00 00 00 00	 push	 OFFSET ??_C@_0BC@ENEHNNJB@EQUIP_FISHING_ROD?$AA@
$LN14@CheckSpeci:
  00044	8b 46 04	 mov	 eax, DWORD PTR [esi+4]
  00047	8d 4e 04	 lea	 ecx, DWORD PTR [esi+4]
  0004a	ff 50 04	 call	 DWORD PTR [eax+4]
  0004d	50		 push	 eax
  0004e	68 00 00 00 00	 push	 OFFSET ??_C@_04JMLDJNEM@?$CIis?$CJ?$AA@
  00053	ff 15 00 00 00
	00		 call	 DWORD PTR __imp__Py_BuildValue
  00059	83 c4 0c	 add	 esp, 12			; 0000000cH
  0005c	50		 push	 eax
  0005d	68 00 00 00 00	 push	 OFFSET ??_C@_0BB@BOHMBBJL@OnCannotUseSkill?$AA@
  00062	ff 76 08	 push	 DWORD PTR [esi+8]
  00065	e8 00 00 00 00	 call	 ?PyCallClassMemberFunc@@YA_NPAU_object@@PBD0@Z ; PyCallClassMemberFunc
  0006a	83 c4 0c	 add	 esp, 12			; 0000000cH

; 966  : 		}
; 967  : 		return true;

  0006d	b0 01		 mov	 al, 1

; 988  : 	}
; 989  : 
; 990  : 	return false;
; 991  : }

  0006f	5f		 pop	 edi
  00070	5e		 pop	 esi
  00071	59		 pop	 ecx
  00072	5d		 pop	 ebp
  00073	c2 04 00	 ret	 4
$LN8@CheckSpeci:

; 968  : 	}
; 969  : 
; 970  : 	// Combo
; 971  : 	else if (c_iSkillIndex_Combo == dwSkillIndex)

  00076	83 f8 7a	 cmp	 eax, 122		; 0000007aH
  00079	75 3e		 jne	 SHORT $LN4@CheckSpeci

; 972  : 	{
; 973  : 		DWORD dwSlotIndex;
; 974  : 		if (!GetSkillSlotIndex(dwSkillIndex, &dwSlotIndex))

  0007b	8d 45 08	 lea	 eax, DWORD PTR _dwSlotIndex$1[ebp]
  0007e	8b ce		 mov	 ecx, esi
  00080	50		 push	 eax
  00081	6a 7a		 push	 122			; 0000007aH
  00083	e8 00 00 00 00	 call	 ?GetSkillSlotIndex@CPythonPlayer@@QAE_NKPAK@Z ; CPythonPlayer::GetSkillSlotIndex
  00088	84 c0		 test	 al, al
  0008a	74 2d		 je	 SHORT $LN4@CheckSpeci

; 975  : 			return false;
; 976  : 
; 977  : 		int iLevel = GetSkillLevel(dwSlotIndex);

  0008c	ff 75 08	 push	 DWORD PTR _dwSlotIndex$1[ebp]
  0008f	8b ce		 mov	 ecx, esi
  00091	e8 00 00 00 00	 call	 ?GetSkillLevel@CPythonPlayer@@QAEHK@Z ; CPythonPlayer::GetSkillLevel

; 978  : 		if (iLevel > 0)

  00096	85 c0		 test	 eax, eax
  00098	7e 18		 jle	 SHORT $LN2@CheckSpeci

; 979  : 		{
; 980  : 			CPythonNetworkStream::Instance().SendUseSkillPacket(dwSkillIndex);

  0009a	8b 0d 00 00 00
	00		 mov	 ecx, DWORD PTR ?ms_singleton@?$CSingleton@VCPythonNetworkStream@@@@0PAVCPythonNetworkStream@@A ; CSingleton<CPythonNetworkStream>::ms_singleton
  000a0	6a 00		 push	 0
  000a2	6a 7a		 push	 122			; 0000007aH
  000a4	e8 00 00 00 00	 call	 ?SendUseSkillPacket@CPythonNetworkStream@@QAE_NKK@Z ; CPythonNetworkStream::SendUseSkillPacket
  000a9	b0 01		 mov	 al, 1

; 988  : 	}
; 989  : 
; 990  : 	return false;
; 991  : }

  000ab	5f		 pop	 edi
  000ac	5e		 pop	 esi
  000ad	59		 pop	 ecx
  000ae	5d		 pop	 ebp
  000af	c2 04 00	 ret	 4
$LN2@CheckSpeci:

; 981  : 		}
; 982  : 		else
; 983  : 		{
; 984  : 			PyCallClassMemberFunc(m_ppyGameWindow, "OnCannotUseSkill", Py_BuildValue("(is)", GetMainCharacterIndex(), "NOT_YET_LEARN"));

  000b2	68 00 00 00 00	 push	 OFFSET ??_C@_0O@PFLGBNMN@NOT_YET_LEARN?$AA@

; 985  : 		}
; 986  : 
; 987  : 		return true;

  000b7	eb 8b		 jmp	 SHORT $LN14@CheckSpeci
$LN4@CheckSpeci:

; 988  : 	}
; 989  : 
; 990  : 	return false;
; 991  : }

  000b9	5f		 pop	 edi
  000ba	32 c0		 xor	 al, al
  000bc	5e		 pop	 esi
  000bd	59		 pop	 ecx
  000be	5d		 pop	 ebp
  000bf	c2 04 00	 ret	 4
?__CheckSpecialSkill@CPythonPlayer@@IAE_NK@Z ENDP	; CPythonPlayer::__CheckSpecialSkill
_TEXT	ENDS
; Function compile flags: /Ogtp
; File d:\metin2\metin2\client_source_clean\client_source_clean\source\eterbase\singleton.h
;	COMDAT ?Instance@?$CSingleton@VIBackground@@@@SAAAVIBackground@@XZ
_TEXT	SEGMENT
?Instance@?$CSingleton@VIBackground@@@@SAAAVIBackground@@XZ PROC ; CSingleton<IBackground>::Instance, COMDAT

; 26   : 		assert(ms_singleton);
; 27   : 		return (*ms_singleton);

  00000	a1 00 00 00 00	 mov	 eax, DWORD PTR ?ms_singleton@?$CSingleton@VIBackground@@@@0PAVIBackground@@A ; CSingleton<IBackground>::ms_singleton

; 28   : 	}

  00005	c3		 ret	 0
?Instance@?$CSingleton@VIBackground@@@@SAAAVIBackground@@XZ ENDP ; CSingleton<IBackground>::Instance
_TEXT	ENDS
END
