; Listing generated by Microsoft (R) Optimizing Compiler Version 18.00.40629.0 

	TITLE	D:\Metin2\Metin2\client_source_clean\client_source_clean\source\UserInterface\PythonApplication.cpp
	.686P
	.XMM
	include listing.inc
	.model	flat

INCLUDELIB OLDNAMES

PUBLIC	?ms_pInstance@CPythonApplication@@1PAV1@A	; CPythonApplication::ms_pInstance
PUBLIC	??_C@_0GN@LLBDNFAM@?$DN?$DN?$DN?$DN?$DN?$DN?$DN?$DN?$DN?$DN?$DN?$DN?$DN?$DN?$DN?$DN?$DN?$DN?$DN?$DN?$DN?$DN?$DN?$DN?$DN?$DN?$DN?$DN?$DN?$DN?$DN?$DN@ ; `string'
PUBLIC	??_C@_0M@EHJKIBDK@Abort?$CB?$CB?$CB?$CB?6?6?$AA@ ; `string'
PUBLIC	??_C@_0BF@OHHAPIAL@perf_game_render?4txt?$AA@	; `string'
PUBLIC	??_C@_0BH@GCCBAEAA@GR?4Total?5?$CFd?5?$CITime?5?$CFd?$CJ?6?$AA@ ; `string'
PUBLIC	??_C@_0L@EGAPCDKD@GR?4DFM?5?$CFd?6?$AA@		; `string'
PUBLIC	??_C@_0O@PLGAMGBI@GR?4EFT?4UP?5?$CFd?6?$AA@	; `string'
PUBLIC	??_C@_0L@MCADEBDB@GR?4SHW?5?$CFd?6?$AA@		; `string'
PUBLIC	??_C@_0L@OEOJMFCF@GR?4STT?5?$CFd?6?$AA@		; `string'
PUBLIC	??_C@_0L@CDOGKGFB@GR?4CLL?5?$CFd?6?$AA@		; `string'
PUBLIC	??_C@_0O@HPKPMDPE@GR?4BG?4SKY?5?$CFd?6?$AA@	; `string'
PUBLIC	??_C@_0O@JENIKJAN@GR?4BG?4LEN?5?$CFd?6?$AA@	; `string'
PUBLIC	??_C@_0O@HJPLNNBE@GR?4BG?4CLD?5?$CFd?6?$AA@	; `string'
PUBLIC	??_C@_0P@EJKDFAIB@GR?4BG?4MAIN?5?$CFd?6?$AA@	; `string'
PUBLIC	??_C@_0L@OOHFOBKJ@GR?4CHR?5?$CFd?6?$AA@		; `string'
PUBLIC	??_C@_0O@LENBOK@GR?4BG?4WTR?5?$CFd?6?$AA@	; `string'
PUBLIC	??_C@_0O@BIDCIJEG@GR?4BG?4EFT?5?$CFd?6?$AA@	; `string'
PUBLIC	??_C@_0L@KOHMHAGO@GR?4EFT?5?$CFd?6?$AA@		; `string'
PUBLIC	??_C@_0L@CNELLLJF@GR?4ITM?5?$CFd?6?$AA@		; `string'
PUBLIC	??_C@_0L@DIBNDLBN@GR?4FLY?5?$CFd?6?$AA@		; `string'
PUBLIC	??_C@_0O@EEAHGPFP@GR?4BG?4BLK?5?$CFd?6?$AA@	; `string'
PUBLIC	??_C@_0BF@NHIIGIH@perf_game_update?4txt?$AA@	; `string'
PUBLIC	??_C@_0BH@HPIDKEA@GU?4Total?5?$CFd?5?$CITime?5?$CFd?$CJ?6?$AA@ ; `string'
PUBLIC	??_C@_0L@JHBDHKIG@GU?4GMP?5?$CFd?6?$AA@		; `string'
PUBLIC	??_C@_0L@HCBFJPAB@GU?4SCR?5?$CFd?6?$AA@		; `string'
PUBLIC	??_C@_0L@IGEOOJOO@GU?4MPS?5?$CFd?6?$AA@		; `string'
PUBLIC	??_C@_09JGPPFKPH@GU?4BG?5?$CFd?6?$AA@		; `string'
PUBLIC	??_C@_0L@BLLECFKE@GU?4GEM?5?$CFd?6?$AA@		; `string'
PUBLIC	??_C@_0L@MKJPKNA@GU?4CHR?5?$CFd?6?$AA@		; `string'
PUBLIC	??_C@_0L@EMKAGLBH@GU?4EFT?5?$CFd?6?$AA@		; `string'
PUBLIC	??_C@_0L@NKMBCAGE@GU?4FLY?5?$CFd?6?$AA@		; `string'
PUBLIC	??_C@_0L@MPJHKAOM@GU?4ITM?5?$CFd?6?$AA@		; `string'
PUBLIC	??_C@_0L@KNCOIAL@GU?4PLR?5?$CFd?6?$AA@		; `string'
PUBLIC	??_C@_0L@PAGGCBDD@GU?4POS?5?$CFd?6?$AA@		; `string'
PUBLIC	??_C@_0BD@OJBILBDC@FrameSkip?5?$LK?$LI?A?$KE?5?$CFd?6?$AA@ ; `string'
PUBLIC	??_C@_0BA@NOHKOOIE@WARN_BAD_DRIVER?$AA@		; `string'
PUBLIC	??_C@_0M@MOGGPFAH@WARN_NO_TNL?$AA@		; `string'
PUBLIC	??_C@_0BN@OAKBEJJN@CREATE_NO_APPROPRIATE_DEVICE?$AA@ ; `string'
PUBLIC	??_C@_0CD@GGLEAAKE@CreateDevice?3?5Enum?5?$CG?5Detect?5fail@ ; `string'
PUBLIC	??_C@_0BC@NKAKBNDM@CREATE_NO_DIRECTX?$AA@	; `string'
PUBLIC	??_C@_0DK@GACPAJMM@CreateDevice?3?5DirectX?58?41?5or?5gre@ ; `string'
PUBLIC	??_C@_0O@CMPMDOEH@CREATE_DEVICE?$AA@		; `string'
PUBLIC	??_C@_0CK@KMPBIDGP@CreateDevice?3?5GraphicDevice?5crea@ ; `string'
PUBLIC	??_C@_0O@DAEHMKOB@CREATE_FORMAT?$AA@		; `string'
PUBLIC	??_C@_0CH@DEBFNBPL@CreateDevice?3?5Change?5the?5screen?5@ ; `string'
PUBLIC	??_C@_0BC@IMJEDJEA@GetDevCaps?5failed?$AA@	; `string'
PUBLIC	??_C@_0CA@DLHDILBB@CreateDevice?3?5GetDevCaps?5failed?$AA@ ; `string'
PUBLIC	??_C@_0BD@IHNLMMLJ@GetDevCaps2?5failed?$AA@	; `string'
PUBLIC	??_C@_0CB@JLAAEKGJ@CreateDevice?3?5GetDevCaps2?5failed@ ; `string'
PUBLIC	??_C@_0O@BAEJJDKB@UNKNOWN_ERROR?$AA@		; `string'
PUBLIC	??_C@_0BN@JAHEKIGK@CreateDevice?3?5Unknown?5Error?$CB?$AA@ ; `string'
PUBLIC	??_C@_0BB@EOELDOLA@?$CFs?1item_list?4txt?$AA@	; `string'
PUBLIC	??_C@_0O@MEMEPBB@?$CFs?1item_proto?$AA@		; `string'
PUBLIC	??_C@_0BA@BIDKFLDM@?$CFs?1itemdesc?4txt?$AA@	; `string'
PUBLIC	??_C@_0N@KCBCHIHM@?$CFs?1mob_proto?$AA@		; `string'
PUBLIC	??_C@_0BB@JDMIHPNN@?$CFs?1SkillDesc?4txt?$AA@	; `string'
PUBLIC	??_C@_0BC@NLEJCAEF@?$CFs?1SkillTable?4txt?$AA@	; `string'
PUBLIC	??_C@_0O@JEIJHCCG@?$CFs?1insult?4txt?$AA@	; `string'
PUBLIC	??_C@_0CI@MGBDCDJE@LoadLocaleData?5?9?5LoadItemList?$CI?$CFs@ ; `string'
PUBLIC	??_C@_0CJ@MIFDPICO@LoadLocaleData?5?9?5LoadItemProto?$CI?$CF@ ; `string'
PUBLIC	??_C@_0CI@FLOPHKEN@LoadLocaleData?5?9?5LoadItemDesc?$CI?$CFs@ ; `string'
PUBLIC	??_C@_0CI@PNCAMHEJ@LoadLocaleData?5?9?5LoadMobProto?$CI?$CFs@ ; `string'
PUBLIC	??_C@_0CN@NIKOAAJF@LoadLocaleData?5?9?5RegisterSkillDe@ ; `string'
PUBLIC	??_C@_0CO@HCDPLHIO@LoadLocaleData?5?9?5RegisterSkillTa@ ; `string'
PUBLIC	??_C@_0DO@PNDPPMDH@CPythonApplication?5?9?5CPythonNetw@ ; `string'
PUBLIC	??_C@_0O@GCNBGGIE@?$CFs?1lang?$CFd?4cvt?$AA@	; `string'
PUBLIC	??_C@_0EI@FFMLHANM@LoadLocaleData?5?9?5CPythonNetworkS@ ; `string'
PUBLIC	??_C@_0BJ@DBNNLGNG@CMSWindow?3?3Create?5failed?$AA@ ; `string'
PUBLIC	??_C@_0O@NOBMPFEG@CREATE_WINDOW?$AA@		; `string'
PUBLIC	??_C@_0CA@FFOMJBHN@CMSWindow?3?3Cursors?5Create?5Error?$AA@ ; `string'
PUBLIC	??_C@_0BA@GLLECKCO@?$CCCREATE_CURSOR?$CC?$AA@	; `string'
PUBLIC	??_C@_0BJ@CJEBNOLC@NetDevice?3?3Create?5failed?$AA@ ; `string'
PUBLIC	??_C@_0BB@EJLMKODK@?$CCCREATE_NETWORK?$CC?$AA@	; `string'
PUBLIC	??_C@_0CD@KIIBIHOG@d?3?1ymir?5work?1special?1spheremap?4j@ ; `string'
PUBLIC	??_C@_0CF@CBFEMJII@d?3?1ymir?5work?1special?1spheremap01@ ; `string'
PUBLIC	??_R2CPythonApplication@@8			; CPythonApplication::`RTTI Base Class Array'
PUBLIC	??_R2CInputKeyboard@@8				; CInputKeyboard::`RTTI Base Class Array'
PUBLIC	??_R2CInputDevice@@8				; CInputDevice::`RTTI Base Class Array'
PUBLIC	??_R2CMSApplication@@8				; CMSApplication::`RTTI Base Class Array'
PUBLIC	??_R2CMSWindow@@8				; CMSWindow::`RTTI Base Class Array'
PUBLIC	??_R2CMovieMan@@8				; CMovieMan::`RTTI Base Class Array'
PUBLIC	??_R2?$CSingleton@VCMovieMan@@@@8		; CSingleton<CMovieMan>::`RTTI Base Class Array'
PUBLIC	??_R2IAbstractApplication@@8			; IAbstractApplication::`RTTI Base Class Array'
PUBLIC	??_R2?$TAbstractSingleton@VIAbstractApplication@@@@8 ; TAbstractSingleton<IAbstractApplication>::`RTTI Base Class Array'
PUBLIC	??_R1CA@?0A@EA@?$TAbstractSingleton@VIAbstractApplication@@@@8 ; TAbstractSingleton<IAbstractApplication>::`RTTI Base Class Descriptor at (32,-1,0,64)'
PUBLIC	??_R1CA@?0A@EA@IAbstractApplication@@8		; IAbstractApplication::`RTTI Base Class Descriptor at (32,-1,0,64)'
PUBLIC	??_R1BM@?0A@EA@CInputDevice@@8			; CInputDevice::`RTTI Base Class Descriptor at (28,-1,0,64)'
PUBLIC	??_R1BM@?0A@EA@CInputKeyboard@@8		; CInputKeyboard::`RTTI Base Class Descriptor at (28,-1,0,64)'
PUBLIC	??_R1A@?0A@EA@CPythonApplication@@8		; CPythonApplication::`RTTI Base Class Descriptor at (0,-1,0,64)'
PUBLIC	??_R1A@?0A@EA@CInputKeyboard@@8			; CInputKeyboard::`RTTI Base Class Descriptor at (0,-1,0,64)'
PUBLIC	??_R1A@?0A@EA@CInputDevice@@8			; CInputDevice::`RTTI Base Class Descriptor at (0,-1,0,64)'
PUBLIC	??_R1A@?0A@EA@CMSApplication@@8			; CMSApplication::`RTTI Base Class Descriptor at (0,-1,0,64)'
PUBLIC	??_R1A@?0A@EA@CMSWindow@@8			; CMSWindow::`RTTI Base Class Descriptor at (0,-1,0,64)'
PUBLIC	??_R1A@?0A@EA@CMovieMan@@8			; CMovieMan::`RTTI Base Class Descriptor at (0,-1,0,64)'
PUBLIC	??_R1A@?0A@EA@?$CSingleton@VCMovieMan@@@@8	; CSingleton<CMovieMan>::`RTTI Base Class Descriptor at (0,-1,0,64)'
PUBLIC	??_R1A@?0A@EA@IAbstractApplication@@8		; IAbstractApplication::`RTTI Base Class Descriptor at (0,-1,0,64)'
PUBLIC	??_R1A@?0A@EA@?$TAbstractSingleton@VIAbstractApplication@@@@8 ; TAbstractSingleton<IAbstractApplication>::`RTTI Base Class Descriptor at (0,-1,0,64)'
PUBLIC	??_R3CInputDevice@@8				; CInputDevice::`RTTI Class Hierarchy Descriptor'
PUBLIC	??_R0?AVCInputDevice@@@8			; CInputDevice `RTTI Type Descriptor'
PUBLIC	??_R3CInputKeyboard@@8				; CInputKeyboard::`RTTI Class Hierarchy Descriptor'
PUBLIC	??_R0?AVCInputKeyboard@@@8			; CInputKeyboard `RTTI Type Descriptor'
PUBLIC	??_R3CMSApplication@@8				; CMSApplication::`RTTI Class Hierarchy Descriptor'
PUBLIC	??_R0?AVCMSApplication@@@8			; CMSApplication `RTTI Type Descriptor'
PUBLIC	??_R3CMSWindow@@8				; CMSWindow::`RTTI Class Hierarchy Descriptor'
PUBLIC	??_R0?AVCMSWindow@@@8				; CMSWindow `RTTI Type Descriptor'
PUBLIC	??_R3CPythonApplication@@8			; CPythonApplication::`RTTI Class Hierarchy Descriptor'
PUBLIC	??_R0?AVCPythonApplication@@@8			; CPythonApplication `RTTI Type Descriptor'
PUBLIC	??_R3?$CSingleton@VCMovieMan@@@@8		; CSingleton<CMovieMan>::`RTTI Class Hierarchy Descriptor'
PUBLIC	??_R0?AV?$CSingleton@VCMovieMan@@@@@8		; CSingleton<CMovieMan> `RTTI Type Descriptor'
PUBLIC	??_R3CMovieMan@@8				; CMovieMan::`RTTI Class Hierarchy Descriptor'
PUBLIC	??_R0?AVCMovieMan@@@8				; CMovieMan `RTTI Type Descriptor'
PUBLIC	??_R3?$TAbstractSingleton@VIAbstractApplication@@@@8 ; TAbstractSingleton<IAbstractApplication>::`RTTI Class Hierarchy Descriptor'
PUBLIC	??_R0?AV?$TAbstractSingleton@VIAbstractApplication@@@@@8 ; TAbstractSingleton<IAbstractApplication> `RTTI Type Descriptor'
PUBLIC	??_R3IAbstractApplication@@8			; IAbstractApplication::`RTTI Class Hierarchy Descriptor'
PUBLIC	??_R0?AVIAbstractApplication@@@8		; IAbstractApplication `RTTI Type Descriptor'
PUBLIC	??_R4CPythonApplication@@6BIAbstractApplication@@@ ; CPythonApplication::`RTTI Complete Object Locator'
PUBLIC	??_R4CPythonApplication@@6BCInputKeyboard@@@	; CPythonApplication::`RTTI Complete Object Locator'
PUBLIC	??_R4CPythonApplication@@6BCMSApplication@@@	; CPythonApplication::`RTTI Complete Object Locator'
PUBLIC	??_R4?$CSingleton@VCMovieMan@@@@6B@		; CSingleton<CMovieMan>::`RTTI Complete Object Locator'
PUBLIC	??_R4CMovieMan@@6B@				; CMovieMan::`RTTI Complete Object Locator'
PUBLIC	??_R4?$TAbstractSingleton@VIAbstractApplication@@@@6B@ ; TAbstractSingleton<IAbstractApplication>::`RTTI Complete Object Locator'
PUBLIC	??_R4IAbstractApplication@@6B@			; IAbstractApplication::`RTTI Complete Object Locator'
PUBLIC	?ms_singleton@?$CSingleton@VCMovieMan@@@@0PAVCMovieMan@@A ; CSingleton<CMovieMan>::ms_singleton
PUBLIC	??_7?$CSingleton@VCMovieMan@@@@6B@		; CSingleton<CMovieMan>::`vftable'
PUBLIC	??_7?$TAbstractSingleton@VIAbstractApplication@@@@6B@ ; TAbstractSingleton<IAbstractApplication>::`vftable'
PUBLIC	?ms_singleton@?$CSingleton@VCPythonIME@@@@0PAVCPythonIME@@A ; CSingleton<CPythonIME>::ms_singleton
PUBLIC	?ms_singleton@?$CSingleton@VCPythonSkill@@@@0PAVCPythonSkill@@A ; CSingleton<CPythonSkill>::ms_singleton
PUBLIC	?ms_singleton@?$CSingleton@VCWindowManager@UI@@@@0PAVCWindowManager@UI@@A ; CSingleton<UI::CWindowManager>::ms_singleton
PUBLIC	?ms_singleton@?$CSingleton@VCTimer@@@@0PAVCTimer@@A ; CSingleton<CTimer>::ms_singleton
PUBLIC	?PERF_CHECKER_RENDER_GAME@@3_NA			; PERF_CHECKER_RENDER_GAME
PUBLIC	??_7CPythonApplication@@6BIAbstractApplication@@@ ; CPythonApplication::`vftable'
PUBLIC	??_7CPythonApplication@@6BCInputKeyboard@@@	; CPythonApplication::`vftable'
PUBLIC	??_7CPythonApplication@@6BCMSApplication@@@	; CPythonApplication::`vftable'
PUBLIC	?c_fDefaultCameraZoomSpeed@@3MA			; c_fDefaultCameraZoomSpeed
PUBLIC	?c_fDefaultCameraPitchSpeed@@3MA		; c_fDefaultCameraPitchSpeed
PUBLIC	?c_fDefaultCameraRotateSpeed@@3MA		; c_fDefaultCameraRotateSpeed
PUBLIC	?g_specularSpd@@3NA				; g_specularSpd
PUBLIC	?MIN_FOG@@3MA					; MIN_FOG
PUBLIC	??_7CMovieMan@@6B@				; CMovieMan::`vftable'
PUBLIC	??_7IAbstractApplication@@6B@			; IAbstractApplication::`vftable'
EXTRN	?GRAPHICS_CAPS_SOFTWARE_TILING@@3_NA:BYTE	; GRAPHICS_CAPS_SOFTWARE_TILING
EXTRN	?OnSize@CMSWindow@@UAEXIJ@Z:PROC		; CMSWindow::OnSize
EXTRN	?Destroy@CMSWindow@@QAEXXZ:PROC			; CMSWindow::Destroy
EXTRN	?DestroySystem@CTextFileLoader@@SAXXZ:PROC	; CTextFileLoader::DestroySystem
EXTRN	?DestroySystem@CAttributeInstance@@SAXXZ:PROC	; CAttributeInstance::DestroySystem
EXTRN	?Destroy@CGraphicDevice@@QAEXXZ:PROC		; CGraphicDevice::Destroy
EXTRN	?Destroy@CSoundManager@@QAEXXZ:PROC		; CSoundManager::Destroy
EXTRN	?DestroySystem@CGraphicImageInstance@@SAXXZ:PROC ; CGraphicImageInstance::DestroySystem
EXTRN	?DestroySystem@CGrannyModelInstance@@SAXXZ:PROC	; CGrannyModelInstance::DestroySystem
EXTRN	?Destroy@CPythonResource@@QAEXXZ:PROC		; CPythonResource::Destroy
EXTRN	?Destroy@CPythonGraphic@@QAEXXZ:PROC		; CPythonGraphic::Destroy
EXTRN	?GrannyDestroySharedDeformBuffer@@YAXXZ:PROC	; GrannyDestroySharedDeformBuffer
EXTRN	?Destroy@CLightManager@@QAEXXZ:PROC		; CLightManager::Destroy
EXTRN	?Destroy@CEffectManager@@QAEXXZ:PROC		; CEffectManager::Destroy
EXTRN	?Destroy@CRaceManager@@QAEXXZ:PROC		; CRaceManager::Destroy
EXTRN	?Destroy@CFlyingManager@@QAEXXZ:PROC		; CFlyingManager::Destroy
EXTRN	?DestroyCollisionInstanceSystem@@YAXXZ:PROC	; DestroyCollisionInstanceSystem
EXTRN	?Destroy@CWindowManager@UI@@QAEXXZ:PROC		; UI::CWindowManager::Destroy
EXTRN	?DestroySphereMap@CGrannyMaterial@@SAXXZ:PROC	; CGrannyMaterial::DestroySphereMap
EXTRN	_WebBrowser_Destroy:PROC
EXTRN	__time32:PROC
EXTRN	?CreateSphereMap@CGrannyMaterial@@SAXIPBD@Z:PROC ; CGrannyMaterial::CreateSphereMap
EXTRN	__imp__SystemParametersInfoA@16:PROC
EXTRN	?CreateSystem@CGraphicImageInstance@@SAXI@Z:PROC ; CGraphicImageInstance::CreateSystem
EXTRN	?Initialize@CLightManager@@QAEXXZ:PROC		; CLightManager::Initialize
EXTRN	?SetText@CIME@@QAEXPBDH@Z:PROC			; CIME::SetText
EXTRN	?Create@CNetworkDevice@@QAE_NXZ:PROC		; CNetworkDevice::Create
EXTRN	?InitializeKeyboard@CInputKeyboard@@QAE_NPAUHWND__@@@Z:PROC ; CInputKeyboard::InitializeKeyboard
EXTRN	__imp__SetWindowPos@28:PROC
EXTRN	?SetVisibleMode@CMSWindow@@QAEX_N@Z:PROC	; CMSWindow::SetVisibleMode
EXTRN	?ReserveSoftwareTilingEnable@CMapManager@@QAEX_N@Z:PROC ; CMapManager::ReserveSoftwareTilingEnable
EXTRN	?IsFastTNL@CGraphicBase@@SA_NXZ:PROC		; CGraphicBase::IsFastTNL
EXTRN	?GrannyCreateSharedDeformBuffer@@YAXXZ:PROC	; GrannyCreateSharedDeformBuffer
EXTRN	?Create@CSoundManager@@QAEHXZ:PROC		; CSoundManager::Create
EXTRN	?GetScreenWidth@CMSWindow@@QAEHXZ:PROC		; CMSWindow::GetScreenWidth
EXTRN	?GetScreenHeight@CMSWindow@@QAEHXZ:PROC		; CMSWindow::GetScreenHeight
EXTRN	?SetPosition@CMSWindow@@QAEXHH@Z:PROC		; CMSWindow::SetPosition
EXTRN	?AdjustSize@CMSWindow@@QAEXHH@Z:PROC		; CMSWindow::AdjustSize
EXTRN	?UseDefaultIME@CIME@@QAEXXZ:PROC		; CIME::UseDefaultIME
EXTRN	?GetInstance@CMSWindow@@QAEPAUHINSTANCE__@@XZ:PROC ; CMSWindow::GetInstance
EXTRN	__imp__LoadIconA@8:PROC
EXTRN	?Create@CMSWindow@@QAE_NPBDHKKPAUHICON__@@H@Z:PROC ; CMSWindow::Create
EXTRN	__imp__FindWindowA@8:PROC
EXTRN	?LoadItemDesc@CItemManager@@QAE_NPBD@Z:PROC	; CItemManager::LoadItemDesc
EXTRN	?LoadItemTable@CItemManager@@QAE_NPBD@Z:PROC	; CItemManager::LoadItemTable
EXTRN	?LoadItemList@CItemManager@@QAE_NPBD@Z:PROC	; CItemManager::LoadItemList
EXTRN	?Destroy@CItemManager@@QAEXXZ:PROC		; CItemManager::Destroy
EXTRN	?MessageProcess@CMSApplication@@QAE_NXZ:PROC	; CMSApplication::MessageProcess
EXTRN	?IsMessage@CMSApplication@@QAE_NXZ:PROC		; CMSApplication::IsMessage
EXTRN	?SetMinLODMode@CGrannyLODController@@SAX_N@Z:PROC ; CGrannyLODController::SetMinLODMode
EXTRN	__imp__PyExc_RuntimeError:DWORD
EXTRN	__imp__PyErr_SetString:PROC
EXTRN	?Create@CGraphicDevice@@QAEHPAUHWND__@@HH_NHH@Z:PROC ; CGraphicDevice::Create
EXTRN	?RegisterWarningString@CGraphicDevice@@QAEXIPBD@Z:PROC ; CGraphicDevice::RegisterWarningString
EXTRN	?InitBackBufferCount@CGraphicDevice@@QAEXI@Z:PROC ; CGraphicDevice::InitBackBufferCount
EXTRN	?Reset@CGraphicDevice@@QAE_NXZ:PROC		; CGraphicDevice::Reset
EXTRN	?GetDeviceState@CGraphicDevice@@QAE?AW4EDeviceState@1@XZ:PROC ; CGraphicDevice::GetDeviceState
EXTRN	?GetClientRect@CMSWindow@@QAEXPAUtagRECT@@@Z:PROC ; CMSWindow::GetClientRect
EXTRN	?ResetFaceCount@CGraphicBase@@QAEXXZ:PROC	; CGraphicBase::ResetFaceCount
EXTRN	?GetFaceCount@CGraphicBase@@QAEKXZ:PROC		; CGraphicBase::GetFaceCount
EXTRN	?Show@CScreen@@QAEXPAUHWND__@@@Z:PROC		; CScreen::Show
EXTRN	?End@CScreen@@QAEXXZ:PROC			; CScreen::End
EXTRN	?SetInterfaceRenderState@CPythonGraphic@@QAEXXZ:PROC ; CPythonGraphic::SetInterfaceRenderState
EXTRN	?ClearDepthBuffer@CScreen@@QAEXXZ:PROC		; CScreen::ClearDepthBuffer
EXTRN	?Begin@CScreen@@QAE_NXZ:PROC			; CScreen::Begin
EXTRN	?Update@CCullingManager@@QAEXXZ:PROC		; CCullingManager::Update
EXTRN	?IsActive@CMSWindow@@QAE_NXZ:PROC		; CMSWindow::IsActive
EXTRN	?RestoreDevice@CScreen@@QAEHXZ:PROC		; CScreen::RestoreDevice
EXTRN	?IsLostDevice@CScreen@@QAEHXZ:PROC		; CScreen::IsLostDevice
EXTRN	?TranslateSpecularMatrix@CGrannyMaterial@@SAXMMM@Z:PROC ; CGrannyMaterial::TranslateSpecularMatrix
EXTRN	?Adjust@CTimer@@QAEXH@Z:PROC			; CTimer::Adjust
EXTRN	?Update@CResourceManager@@QAEXXZ:PROC		; CResourceManager::Update
EXTRN	__imp__ScreenToClient@8:PROC
EXTRN	__imp__GetCursorPos@4:PROC
EXTRN	?UpdateKeyboard@CInputKeyboard@@QAEXXZ:PROC	; CInputKeyboard::UpdateKeyboard
EXTRN	?GetElapsedMilliecond@CTimer@@QAEKXZ:PROC	; CTimer::GetElapsedMilliecond
EXTRN	?GetElapsedSecond@CTimer@@QAEMXZ:PROC		; CTimer::GetElapsedSecond
EXTRN	?GetCurrentSecond@CTimer@@QAEMXZ:PROC		; CTimer::GetCurrentSecond
EXTRN	?Advance@CTimer@@QAEXXZ:PROC			; CTimer::Advance
EXTRN	?ELTimer_SetFrameMSec@@YAXXZ:PROC		; ELTimer_SetFrameMSec
EXTRN	?Update@CFlyingManager@@QAEXXZ:PROC		; CFlyingManager::Update
EXTRN	?UpdateSound@CEffectManager@@QAEXXZ:PROC	; CEffectManager::UpdateSound
EXTRN	?Update@CGameEventManager@@QAEXXZ:PROC		; CGameEventManager::Update
EXTRN	?SetCenterPosition@CGameEventManager@@QAEXMMM@Z:PROC ; CGameEventManager::SetCenterPosition
EXTRN	?BuildViewFrustum@CScreen@@QAEXXZ:PROC		; CScreen::BuildViewFrustum
EXTRN	?Hyperlink_UpdateMousePos@CGraphicTextInstance@@SAXHH@Z:PROC ; CGraphicTextInstance::Hyperlink_UpdateMousePos
EXTRN	_fflush:PROC
EXTRN	?Render@CFlyingManager@@QAEXXZ:PROC		; CFlyingManager::Render
EXTRN	?Render@CEffectManager@@QAEXXZ:PROC		; CEffectManager::Render
EXTRN	?EndEnvironment@CMapManager@@QAEXXZ:PROC	; CMapManager::EndEnvironment
EXTRN	?BeginEnvironment@CMapManager@@QAEXXZ:PROC	; CMapManager::BeginEnvironment
EXTRN	?SetCursorPosition@CPythonGraphic@@QAEXHH@Z:PROC ; CPythonGraphic::SetCursorPosition
EXTRN	?GetMousePosition@CWindowManager@UI@@QAEXAAJ0@Z:PROC ; UI::CWindowManager::GetMousePosition
EXTRN	?PushState@CPythonGraphic@@QAEXXZ:PROC		; CPythonGraphic::PushState
EXTRN	?SetGameRenderState@CPythonGraphic@@QAEXXZ:PROC	; CPythonGraphic::SetGameRenderState
EXTRN	?Update@CEffectManager@@QAEXXZ:PROC		; CEffectManager::Update
EXTRN	?Process@CCullingManager@@QAEXXZ:PROC		; CCullingManager::Process
EXTRN	?SetPerspective@CGraphicBase@@QAEXMMMM@Z:PROC	; CGraphicBase::SetPerspective
EXTRN	?GetAspect@CWindowManager@UI@@QAEMXZ:PROC	; UI::CWindowManager::GetAspect
EXTRN	__imp__PostQuitMessage@4:PROC
EXTRN	?GetInfo@CEffectManager@@QAEXPAV?$basic_string@DU?$char_traits@D@std@@V?$allocator@D@2@@std@@@Z:PROC ; CEffectManager::GetInfo
EXTRN	__vsnprintf:PROC
EXTRN	?GetMousePosition@CMSWindow@@QAEXPAUtagPOINT@@@Z:PROC ; CMSWindow::GetMousePosition
EXTRN	?AddCamera@CCameraManager@@QAE_NE@Z:PROC	; CCameraManager::AddCamera
EXTRN	?UseCustomTime@CTimer@@QAEXXZ:PROC		; CTimer::UseCustomTime
EXTRN	?SetEterExceptionHandler@@YAXXZ:PROC		; SetEterExceptionHandler
EXTRN	??1CNetworkDevice@@UAE@XZ:PROC			; CNetworkDevice::~CNetworkDevice
EXTRN	??0CNetworkDevice@@QAE@XZ:PROC			; CNetworkDevice::CNetworkDevice
EXTRN	??1CGraphicDevice@@UAE@XZ:PROC			; CGraphicDevice::~CGraphicDevice
EXTRN	??0CGraphicDevice@@QAE@XZ:PROC			; CGraphicDevice::CGraphicDevice
EXTRN	??1CPythonResource@@UAE@XZ:PROC			; CPythonResource::~CPythonResource
EXTRN	??0CPythonResource@@QAE@XZ:PROC			; CPythonResource::CPythonResource
EXTRN	??1CPythonGraphic@@UAE@XZ:PROC			; CPythonGraphic::~CPythonGraphic
EXTRN	??0CPythonGraphic@@QAE@XZ:PROC			; CPythonGraphic::CPythonGraphic
EXTRN	??1CEffectManager@@UAE@XZ:PROC			; CEffectManager::~CEffectManager
EXTRN	??0CEffectManager@@QAE@XZ:PROC			; CEffectManager::CEffectManager
EXTRN	??1CWindowManager@UI@@UAE@XZ:PROC		; UI::CWindowManager::~CWindowManager
EXTRN	??0CWindowManager@UI@@QAE@XZ:PROC		; UI::CWindowManager::CWindowManager
EXTRN	??1CItemManager@@UAE@XZ:PROC			; CItemManager::~CItemManager
EXTRN	??0CItemManager@@QAE@XZ:PROC			; CItemManager::CItemManager
EXTRN	??1CGameEventManager@@UAE@XZ:PROC		; CGameEventManager::~CGameEventManager
EXTRN	??0CGameEventManager@@QAE@XZ:PROC		; CGameEventManager::CGameEventManager
EXTRN	??1CRaceManager@@UAE@XZ:PROC			; CRaceManager::~CRaceManager
EXTRN	??0CRaceManager@@QAE@XZ:PROC			; CRaceManager::CRaceManager
EXTRN	??1CFlyingManager@@UAE@XZ:PROC			; CFlyingManager::~CFlyingManager
EXTRN	??0CFlyingManager@@QAE@XZ:PROC			; CFlyingManager::CFlyingManager
EXTRN	??1CSoundManager@@UAE@XZ:PROC			; CSoundManager::~CSoundManager
EXTRN	??0CSoundManager@@QAE@XZ:PROC			; CSoundManager::CSoundManager
EXTRN	??1CLightManager@@UAE@XZ:PROC			; CLightManager::~CLightManager
EXTRN	??0CLightManager@@QAE@XZ:PROC			; CLightManager::CLightManager
EXTRN	??1CTimer@@UAE@XZ:PROC				; CTimer::~CTimer
EXTRN	??0CTimer@@QAE@XZ:PROC				; CTimer::CTimer
EXTRN	??1CInputKeyboard@@UAE@XZ:PROC			; CInputKeyboard::~CInputKeyboard
EXTRN	??0CInputKeyboard@@QAE@XZ:PROC			; CInputKeyboard::CInputKeyboard
EXTRN	??1CMSApplication@@UAE@XZ:PROC			; CMSApplication::~CMSApplication
EXTRN	??0CMSApplication@@QAE@XZ:PROC			; CMSApplication::CMSApplication
EXTRN	__imp__CoUninitialize@0:PROC
EXTRN	__imp__CoInitialize@4:PROC
?ms_pInstance@CPythonApplication@@1PAV1@A DD 01H DUP (?) ; CPythonApplication::ms_pInstance
_BSS	ENDS
;	COMDAT ?ms_singleton@?$CSingleton@VCMovieMan@@@@0PAVCMovieMan@@A
_BSS	SEGMENT
?ms_singleton@?$CSingleton@VCMovieMan@@@@0PAVCMovieMan@@A DD 01H DUP (?) ; CSingleton<CMovieMan>::ms_singleton
_BSS	ENDS
;	COMDAT ?ms_singleton@?$CSingleton@VCPythonIME@@@@0PAVCPythonIME@@A
_BSS	SEGMENT
?ms_singleton@?$CSingleton@VCPythonIME@@@@0PAVCPythonIME@@A DD 01H DUP (?) ; CSingleton<CPythonIME>::ms_singleton
_BSS	ENDS
;	COMDAT ?ms_singleton@?$CSingleton@VCPythonSkill@@@@0PAVCPythonSkill@@A
_BSS	SEGMENT
?ms_singleton@?$CSingleton@VCPythonSkill@@@@0PAVCPythonSkill@@A DD 01H DUP (?) ; CSingleton<CPythonSkill>::ms_singleton
_BSS	ENDS
;	COMDAT ?ms_singleton@?$CSingleton@VCWindowManager@UI@@@@0PAVCWindowManager@UI@@A
_BSS	SEGMENT
?ms_singleton@?$CSingleton@VCWindowManager@UI@@@@0PAVCWindowManager@UI@@A DD 01H DUP (?) ; CSingleton<UI::CWindowManager>::ms_singleton
_BSS	ENDS
;	COMDAT ?ms_singleton@?$CSingleton@VCTimer@@@@0PAVCTimer@@A
_BSS	SEGMENT
?ms_singleton@?$CSingleton@VCTimer@@@@0PAVCTimer@@A DD 01H DUP (?) ; CSingleton<CTimer>::ms_singleton
_BSS	ENDS
;	COMDAT ?s_fBufRenderTime@?DC@??Process@CPythonApplication@@QAE_NXZ@4MA
_BSS	SEGMENT
?s_fBufRenderTime@?DC@??Process@CPythonApplication@@QAE_NXZ@4MA DD 01H DUP (?) ; `CPythonApplication::Process'::`50'::s_fBufRenderTime
_BSS	ENDS
;	COMDAT ?s_dwRenderRangeFrame@?CJ@??Process@CPythonApplication@@QAE_NXZ@4KA
_BSS	SEGMENT
?s_dwRenderRangeFrame@?CJ@??Process@CPythonApplication@@QAE_NXZ@4KA DD 01H DUP (?) ; `CPythonApplication::Process'::`41'::s_dwRenderRangeFrame
_BSS	ENDS
;	COMDAT ?s_dwRenderRangeTime@?CJ@??Process@CPythonApplication@@QAE_NXZ@4KA
_BSS	SEGMENT
?s_dwRenderRangeTime@?CJ@??Process@CPythonApplication@@QAE_NXZ@4KA DD 01H DUP (?) ; `CPythonApplication::Process'::`41'::s_dwRenderRangeTime
_BSS	ENDS
;	COMDAT ?s_bFrameSkip@?4??Process@CPythonApplication@@QAE_NXZ@4HA
_BSS	SEGMENT
?s_bFrameSkip@?4??Process@CPythonApplication@@QAE_NXZ@4HA DD 01H DUP (?) ; `CPythonApplication::Process'::`5'::s_bFrameSkip
_BSS	ENDS
;	COMDAT ?s_dwFaceCount@?1??Process@CPythonApplication@@QAE_NXZ@4KA
_BSS	SEGMENT
?s_dwFaceCount@?1??Process@CPythonApplication@@QAE_NXZ@4KA DD 01H DUP (?) ; `CPythonApplication::Process'::`2'::s_dwFaceCount
_BSS	ENDS
;	COMDAT ?s_uiLoad@?1??Process@CPythonApplication@@QAE_NXZ@4IA
_BSS	SEGMENT
?s_uiLoad@?1??Process@CPythonApplication@@QAE_NXZ@4IA DD 01H DUP (?) ; `CPythonApplication::Process'::`2'::s_uiLoad
_BSS	ENDS
;	COMDAT ?s_dwRenderFrameCount@?1??Process@CPythonApplication@@QAE_NXZ@4KA
_BSS	SEGMENT
?s_dwRenderFrameCount@?1??Process@CPythonApplication@@QAE_NXZ@4KA DD 01H DUP (?) ; `CPythonApplication::Process'::`2'::s_dwRenderFrameCount
_BSS	ENDS
;	COMDAT ?s_dwUpdateFrameCount@?1??Process@CPythonApplication@@QAE_NXZ@4KA
_BSS	SEGMENT
?s_dwUpdateFrameCount@?1??Process@CPythonApplication@@QAE_NXZ@4KA DD 01H DUP (?) ; `CPythonApplication::Process'::`2'::s_dwUpdateFrameCount
?PERF_CHECKER_RENDER_GAME@@3_NA DB 01H DUP (?)		; PERF_CHECKER_RENDER_GAME
_BSS	ENDS
;	COMDAT ??_7IAbstractApplication@@6B@
CONST	SEGMENT
??_7IAbstractApplication@@6B@ DD FLAT:??_R4IAbstractApplication@@6B@ ; IAbstractApplication::`vftable'
	DD	FLAT:??_EIAbstractApplication@@UAEPAXI@Z
	DD	FLAT:__purecall
	DD	FLAT:__purecall
	DD	FLAT:__purecall
	DD	FLAT:__purecall
	DD	FLAT:__purecall
	DD	FLAT:__purecall
	DD	FLAT:__purecall
	DD	FLAT:__purecall
	DD	FLAT:__purecall
	DD	FLAT:__purecall
	DD	FLAT:__purecall
	DD	FLAT:__purecall
	DD	FLAT:__purecall
	DD	FLAT:__purecall
	DD	FLAT:__purecall
	DD	FLAT:__purecall
	DD	FLAT:__purecall
CONST	ENDS
;	COMDAT ??_7CMovieMan@@6B@
CONST	SEGMENT
??_7CMovieMan@@6B@ DD FLAT:??_R4CMovieMan@@6B@		; CMovieMan::`vftable'
	DD	FLAT:??_ECMovieMan@@UAEPAXI@Z
CONST	ENDS
;	COMDAT ??_7CPythonApplication@@6BCMSApplication@@@
CONST	SEGMENT
??_7CPythonApplication@@6BCMSApplication@@@ DD FLAT:??_R4CPythonApplication@@6BCMSApplication@@@ ; CPythonApplication::`vftable'
	DD	FLAT:??_ECPythonApplication@@UAEPAXI@Z
	DD	FLAT:?WindowProcedure@CPythonApplication@@MAEJPAUHWND__@@IIJ@Z
	DD	FLAT:?OnSize@CMSWindow@@UAEXIJ@Z
CONST	ENDS
;	COMDAT ??_7CPythonApplication@@6BCInputKeyboard@@@
CONST	SEGMENT
??_7CPythonApplication@@6BCInputKeyboard@@@ DD FLAT:??_R4CPythonApplication@@6BCInputKeyboard@@@ ; CPythonApplication::`vftable'
	DD	FLAT:??_ECPythonApplication@@WBM@AEPAXI@Z
	DD	FLAT:?OnKeyDown@CPythonApplication@@MAEXH@Z
	DD	FLAT:?OnKeyUp@CPythonApplication@@MAEXH@Z
CONST	ENDS
;	COMDAT ??_7CPythonApplication@@6BIAbstractApplication@@@
CONST	SEGMENT
??_7CPythonApplication@@6BIAbstractApplication@@@ DD FLAT:??_R4CPythonApplication@@6BIAbstractApplication@@@ ; CPythonApplication::`vftable'
	DD	FLAT:??_ECPythonApplication@@WCA@AEPAXI@Z
	DD	FLAT:?GetMousePosition@CPythonApplication@@UAEXPAUtagPOINT@@@Z
	DD	FLAT:?GetGlobalTime@CPythonApplication@@UAEMXZ
	DD	FLAT:?GetGlobalElapsedTime@CPythonApplication@@UAEMXZ
	DD	FLAT:?SkipRenderBuffering@CPythonApplication@@UAEXK@Z
	DD	FLAT:?SetServerTime@CPythonApplication@@UAEXJ@Z
	DD	FLAT:?SetCenterPosition@CPythonApplication@@UAEXMMM@Z
	DD	FLAT:?SetEventCamera@CPythonApplication@@UAEXABUSCameraSetting@IAbstractApplication@@@Z
	DD	FLAT:?BlendEventCamera@CPythonApplication@@UAEXABUSCameraSetting@IAbstractApplication@@M@Z
	DD	FLAT:?SetDefaultCamera@CPythonApplication@@UAEXXZ
	DD	FLAT:?RunIMEUpdate@CPythonApplication@@UAEXXZ
	DD	FLAT:?RunIMETabEvent@CPythonApplication@@UAEXXZ
	DD	FLAT:?RunIMEReturnEvent@CPythonApplication@@UAEXXZ
	DD	FLAT:?RunIMEChangeCodePage@CPythonApplication@@UAEXXZ
	DD	FLAT:?RunIMEOpenCandidateListEvent@CPythonApplication@@UAEXXZ
	DD	FLAT:?RunIMECloseCandidateListEvent@CPythonApplication@@UAEXXZ
	DD	FLAT:?RunIMEOpenReadingWndEvent@CPythonApplication@@UAEXXZ
	DD	FLAT:?RunIMECloseReadingWndEvent@CPythonApplication@@UAEXXZ
CONST	ENDS
;	COMDAT ?s_fAveRenderTime@?EL@??Process@CPythonApplication@@QAE_NXZ@4MA
_DATA	SEGMENT
?s_fAveRenderTime@?EL@??Process@CPythonApplication@@QAE_NXZ@4MA DD 041800000r ; 16 ; `CPythonApplication::Process'::`75'::s_fAveRenderTime
_DATA	ENDS
;	COMDAT ??_7?$TAbstractSingleton@VIAbstractApplication@@@@6B@
CONST	SEGMENT
??_7?$TAbstractSingleton@VIAbstractApplication@@@@6B@ DD FLAT:??_R4?$TAbstractSingleton@VIAbstractApplication@@@@6B@ ; TAbstractSingleton<IAbstractApplication>::`vftable'
	DD	FLAT:??_E?$TAbstractSingleton@VIAbstractApplication@@@@UAEPAXI@Z
CONST	ENDS
;	COMDAT ??_7?$CSingleton@VCMovieMan@@@@6B@
CONST	SEGMENT
??_7?$CSingleton@VCMovieMan@@@@6B@ DD FLAT:??_R4?$CSingleton@VCMovieMan@@@@6B@ ; CSingleton<CMovieMan>::`vftable'
	DD	FLAT:??_E?$CSingleton@VCMovieMan@@@@UAEPAXI@Z
CONST	ENDS
;	COMDAT ??_R4IAbstractApplication@@6B@
rdata$r	SEGMENT
??_R4IAbstractApplication@@6B@ DD 00H			; IAbstractApplication::`RTTI Complete Object Locator'
	DD	00H
	DD	00H
	DD	FLAT:??_R0?AVIAbstractApplication@@@8
	DD	FLAT:??_R3IAbstractApplication@@8
rdata$r	ENDS
;	COMDAT ??_R4?$TAbstractSingleton@VIAbstractApplication@@@@6B@
rdata$r	SEGMENT
??_R4?$TAbstractSingleton@VIAbstractApplication@@@@6B@ DD 00H ; TAbstractSingleton<IAbstractApplication>::`RTTI Complete Object Locator'
	DD	00H
	DD	00H
	DD	FLAT:??_R0?AV?$TAbstractSingleton@VIAbstractApplication@@@@@8
	DD	FLAT:??_R3?$TAbstractSingleton@VIAbstractApplication@@@@8
rdata$r	ENDS
;	COMDAT ??_R4CMovieMan@@6B@
rdata$r	SEGMENT
??_R4CMovieMan@@6B@ DD 00H				; CMovieMan::`RTTI Complete Object Locator'
	DD	00H
	DD	00H
	DD	FLAT:??_R0?AVCMovieMan@@@8
	DD	FLAT:??_R3CMovieMan@@8
rdata$r	ENDS
;	COMDAT ??_R4?$CSingleton@VCMovieMan@@@@6B@
rdata$r	SEGMENT
??_R4?$CSingleton@VCMovieMan@@@@6B@ DD 00H		; CSingleton<CMovieMan>::`RTTI Complete Object Locator'
	DD	00H
	DD	00H
	DD	FLAT:??_R0?AV?$CSingleton@VCMovieMan@@@@@8
	DD	FLAT:??_R3?$CSingleton@VCMovieMan@@@@8
rdata$r	ENDS
;	COMDAT ??_R4CPythonApplication@@6BCMSApplication@@@
rdata$r	SEGMENT
??_R4CPythonApplication@@6BCMSApplication@@@ DD 00H	; CPythonApplication::`RTTI Complete Object Locator'
	DD	00H
	DD	00H
	DD	FLAT:??_R0?AVCPythonApplication@@@8
	DD	FLAT:??_R3CPythonApplication@@8
rdata$r	ENDS
;	COMDAT ??_R4CPythonApplication@@6BCInputKeyboard@@@
rdata$r	SEGMENT
??_R4CPythonApplication@@6BCInputKeyboard@@@ DD 00H	; CPythonApplication::`RTTI Complete Object Locator'
	DD	01cH
	DD	00H
	DD	FLAT:??_R0?AVCPythonApplication@@@8
	DD	FLAT:??_R3CPythonApplication@@8
rdata$r	ENDS
;	COMDAT ??_R4CPythonApplication@@6BIAbstractApplication@@@
rdata$r	SEGMENT
??_R4CPythonApplication@@6BIAbstractApplication@@@ DD 00H ; CPythonApplication::`RTTI Complete Object Locator'
	DD	020H
	DD	00H
	DD	FLAT:??_R0?AVCPythonApplication@@@8
	DD	FLAT:??_R3CPythonApplication@@8
rdata$r	ENDS
;	COMDAT ??_R0?AVIAbstractApplication@@@8
data$r	SEGMENT
??_R0?AVIAbstractApplication@@@8 DD FLAT:??_7type_info@@6B@ ; IAbstractApplication `RTTI Type Descriptor'
	DD	00H
	DB	'.?AVIAbstractApplication@@', 00H
data$r	ENDS
;	COMDAT ??_R3IAbstractApplication@@8
rdata$r	SEGMENT
??_R3IAbstractApplication@@8 DD 00H			; IAbstractApplication::`RTTI Class Hierarchy Descriptor'
	DD	00H
	DD	02H
	DD	FLAT:??_R2IAbstractApplication@@8
rdata$r	ENDS
;	COMDAT ??_R0?AV?$TAbstractSingleton@VIAbstractApplication@@@@@8
data$r	SEGMENT
??_R0?AV?$TAbstractSingleton@VIAbstractApplication@@@@@8 DD FLAT:??_7type_info@@6B@ ; TAbstractSingleton<IAbstractApplication> `RTTI Type Descriptor'
	DD	00H
	DB	'.?AV?$TAbstractSingleton@VIAbstractApplication@@@@', 00H
data$r	ENDS
;	COMDAT ??_R3?$TAbstractSingleton@VIAbstractApplication@@@@8
rdata$r	SEGMENT
??_R3?$TAbstractSingleton@VIAbstractApplication@@@@8 DD 00H ; TAbstractSingleton<IAbstractApplication>::`RTTI Class Hierarchy Descriptor'
	DD	00H
	DD	01H
	DD	FLAT:??_R2?$TAbstractSingleton@VIAbstractApplication@@@@8
rdata$r	ENDS
;	COMDAT ??_R0?AVCMovieMan@@@8
data$r	SEGMENT
??_R0?AVCMovieMan@@@8 DD FLAT:??_7type_info@@6B@	; CMovieMan `RTTI Type Descriptor'
	DD	00H
	DB	'.?AVCMovieMan@@', 00H
data$r	ENDS
;	COMDAT ??_R3CMovieMan@@8
rdata$r	SEGMENT
??_R3CMovieMan@@8 DD 00H				; CMovieMan::`RTTI Class Hierarchy Descriptor'
	DD	00H
	DD	02H
	DD	FLAT:??_R2CMovieMan@@8
rdata$r	ENDS
;	COMDAT ??_R0?AV?$CSingleton@VCMovieMan@@@@@8
data$r	SEGMENT
??_R0?AV?$CSingleton@VCMovieMan@@@@@8 DD FLAT:??_7type_info@@6B@ ; CSingleton<CMovieMan> `RTTI Type Descriptor'
	DD	00H
	DB	'.?AV?$CSingleton@VCMovieMan@@@@', 00H
data$r	ENDS
;	COMDAT ??_R3?$CSingleton@VCMovieMan@@@@8
rdata$r	SEGMENT
??_R3?$CSingleton@VCMovieMan@@@@8 DD 00H		; CSingleton<CMovieMan>::`RTTI Class Hierarchy Descriptor'
	DD	00H
	DD	01H
	DD	FLAT:??_R2?$CSingleton@VCMovieMan@@@@8
rdata$r	ENDS
;	COMDAT ??_R0?AVCPythonApplication@@@8
data$r	SEGMENT
??_R0?AVCPythonApplication@@@8 DD FLAT:??_7type_info@@6B@ ; CPythonApplication `RTTI Type Descriptor'
	DD	00H
	DB	'.?AVCPythonApplication@@', 00H
data$r	ENDS
;	COMDAT ??_R3CPythonApplication@@8
rdata$r	SEGMENT
??_R3CPythonApplication@@8 DD 00H			; CPythonApplication::`RTTI Class Hierarchy Descriptor'
	DD	01H
	DD	07H
	DD	FLAT:??_R2CPythonApplication@@8
rdata$r	ENDS
;	COMDAT ??_R0?AVCMSWindow@@@8
data$r	SEGMENT
??_R0?AVCMSWindow@@@8 DD FLAT:??_7type_info@@6B@	; CMSWindow `RTTI Type Descriptor'
	DD	00H
	DB	'.?AVCMSWindow@@', 00H
data$r	ENDS
;	COMDAT ??_R3CMSWindow@@8
rdata$r	SEGMENT
??_R3CMSWindow@@8 DD 00H				; CMSWindow::`RTTI Class Hierarchy Descriptor'
	DD	00H
	DD	01H
	DD	FLAT:??_R2CMSWindow@@8
rdata$r	ENDS
;	COMDAT ??_R0?AVCMSApplication@@@8
data$r	SEGMENT
??_R0?AVCMSApplication@@@8 DD FLAT:??_7type_info@@6B@	; CMSApplication `RTTI Type Descriptor'
	DD	00H
	DB	'.?AVCMSApplication@@', 00H
data$r	ENDS
;	COMDAT ??_R3CMSApplication@@8
rdata$r	SEGMENT
??_R3CMSApplication@@8 DD 00H				; CMSApplication::`RTTI Class Hierarchy Descriptor'
	DD	00H
	DD	02H
	DD	FLAT:??_R2CMSApplication@@8
rdata$r	ENDS
;	COMDAT ??_R0?AVCInputKeyboard@@@8
data$r	SEGMENT
??_R0?AVCInputKeyboard@@@8 DD FLAT:??_7type_info@@6B@	; CInputKeyboard `RTTI Type Descriptor'
	DD	00H
	DB	'.?AVCInputKeyboard@@', 00H
data$r	ENDS
;	COMDAT ??_R3CInputKeyboard@@8
rdata$r	SEGMENT
??_R3CInputKeyboard@@8 DD 00H				; CInputKeyboard::`RTTI Class Hierarchy Descriptor'
	DD	00H
	DD	02H
	DD	FLAT:??_R2CInputKeyboard@@8
rdata$r	ENDS
;	COMDAT ??_R0?AVCInputDevice@@@8
data$r	SEGMENT
??_R0?AVCInputDevice@@@8 DD FLAT:??_7type_info@@6B@	; CInputDevice `RTTI Type Descriptor'
	DD	00H
	DB	'.?AVCInputDevice@@', 00H
data$r	ENDS
;	COMDAT ??_R3CInputDevice@@8
rdata$r	SEGMENT
??_R3CInputDevice@@8 DD 00H				; CInputDevice::`RTTI Class Hierarchy Descriptor'
	DD	00H
	DD	01H
	DD	FLAT:??_R2CInputDevice@@8
rdata$r	ENDS
;	COMDAT ??_R1A@?0A@EA@?$TAbstractSingleton@VIAbstractApplication@@@@8
rdata$r	SEGMENT
??_R1A@?0A@EA@?$TAbstractSingleton@VIAbstractApplication@@@@8 DD FLAT:??_R0?AV?$TAbstractSingleton@VIAbstractApplication@@@@@8 ; TAbstractSingleton<IAbstractApplication>::`RTTI Base Class Descriptor at (0,-1,0,64)'
	DD	00H
	DD	00H
	DD	0ffffffffH
	DD	00H
	DD	040H
	DD	FLAT:??_R3?$TAbstractSingleton@VIAbstractApplication@@@@8
rdata$r	ENDS
;	COMDAT ??_R1A@?0A@EA@IAbstractApplication@@8
rdata$r	SEGMENT
??_R1A@?0A@EA@IAbstractApplication@@8 DD FLAT:??_R0?AVIAbstractApplication@@@8 ; IAbstractApplication::`RTTI Base Class Descriptor at (0,-1,0,64)'
	DD	01H
	DD	00H
	DD	0ffffffffH
	DD	00H
	DD	040H
	DD	FLAT:??_R3IAbstractApplication@@8
rdata$r	ENDS
;	COMDAT ??_R1A@?0A@EA@?$CSingleton@VCMovieMan@@@@8
rdata$r	SEGMENT
??_R1A@?0A@EA@?$CSingleton@VCMovieMan@@@@8 DD FLAT:??_R0?AV?$CSingleton@VCMovieMan@@@@@8 ; CSingleton<CMovieMan>::`RTTI Base Class Descriptor at (0,-1,0,64)'
	DD	00H
	DD	00H
	DD	0ffffffffH
	DD	00H
	DD	040H
	DD	FLAT:??_R3?$CSingleton@VCMovieMan@@@@8
rdata$r	ENDS
;	COMDAT ??_R1A@?0A@EA@CMovieMan@@8
rdata$r	SEGMENT
??_R1A@?0A@EA@CMovieMan@@8 DD FLAT:??_R0?AVCMovieMan@@@8 ; CMovieMan::`RTTI Base Class Descriptor at (0,-1,0,64)'
	DD	01H
	DD	00H
	DD	0ffffffffH
	DD	00H
	DD	040H
	DD	FLAT:??_R3CMovieMan@@8
rdata$r	ENDS
;	COMDAT ??_R1A@?0A@EA@CMSWindow@@8
rdata$r	SEGMENT
??_R1A@?0A@EA@CMSWindow@@8 DD FLAT:??_R0?AVCMSWindow@@@8 ; CMSWindow::`RTTI Base Class Descriptor at (0,-1,0,64)'
	DD	00H
	DD	00H
	DD	0ffffffffH
	DD	00H
	DD	040H
	DD	FLAT:??_R3CMSWindow@@8
rdata$r	ENDS
;	COMDAT ??_R1A@?0A@EA@CMSApplication@@8
rdata$r	SEGMENT
??_R1A@?0A@EA@CMSApplication@@8 DD FLAT:??_R0?AVCMSApplication@@@8 ; CMSApplication::`RTTI Base Class Descriptor at (0,-1,0,64)'
	DD	01H
	DD	00H
	DD	0ffffffffH
	DD	00H
	DD	040H
	DD	FLAT:??_R3CMSApplication@@8
rdata$r	ENDS
;	COMDAT ??_R1A@?0A@EA@CInputDevice@@8
rdata$r	SEGMENT
??_R1A@?0A@EA@CInputDevice@@8 DD FLAT:??_R0?AVCInputDevice@@@8 ; CInputDevice::`RTTI Base Class Descriptor at (0,-1,0,64)'
	DD	00H
	DD	00H
	DD	0ffffffffH
	DD	00H
	DD	040H
	DD	FLAT:??_R3CInputDevice@@8
rdata$r	ENDS
;	COMDAT ??_R1A@?0A@EA@CInputKeyboard@@8
rdata$r	SEGMENT
??_R1A@?0A@EA@CInputKeyboard@@8 DD FLAT:??_R0?AVCInputKeyboard@@@8 ; CInputKeyboard::`RTTI Base Class Descriptor at (0,-1,0,64)'
	DD	01H
	DD	00H
	DD	0ffffffffH
	DD	00H
	DD	040H
	DD	FLAT:??_R3CInputKeyboard@@8
rdata$r	ENDS
;	COMDAT ??_R1A@?0A@EA@CPythonApplication@@8
rdata$r	SEGMENT
??_R1A@?0A@EA@CPythonApplication@@8 DD FLAT:??_R0?AVCPythonApplication@@@8 ; CPythonApplication::`RTTI Base Class Descriptor at (0,-1,0,64)'
	DD	06H
	DD	00H
	DD	0ffffffffH
	DD	00H
	DD	040H
	DD	FLAT:??_R3CPythonApplication@@8
rdata$r	ENDS
;	COMDAT ??_R1BM@?0A@EA@CInputKeyboard@@8
rdata$r	SEGMENT
??_R1BM@?0A@EA@CInputKeyboard@@8 DD FLAT:??_R0?AVCInputKeyboard@@@8 ; CInputKeyboard::`RTTI Base Class Descriptor at (28,-1,0,64)'
	DD	01H
	DD	01cH
	DD	0ffffffffH
	DD	00H
	DD	040H
	DD	FLAT:??_R3CInputKeyboard@@8
rdata$r	ENDS
;	COMDAT ??_R1BM@?0A@EA@CInputDevice@@8
rdata$r	SEGMENT
??_R1BM@?0A@EA@CInputDevice@@8 DD FLAT:??_R0?AVCInputDevice@@@8 ; CInputDevice::`RTTI Base Class Descriptor at (28,-1,0,64)'
	DD	00H
	DD	01cH
	DD	0ffffffffH
	DD	00H
	DD	040H
	DD	FLAT:??_R3CInputDevice@@8
rdata$r	ENDS
;	COMDAT ??_R1CA@?0A@EA@IAbstractApplication@@8
rdata$r	SEGMENT
??_R1CA@?0A@EA@IAbstractApplication@@8 DD FLAT:??_R0?AVIAbstractApplication@@@8 ; IAbstractApplication::`RTTI Base Class Descriptor at (32,-1,0,64)'
	DD	01H
	DD	020H
	DD	0ffffffffH
	DD	00H
	DD	040H
	DD	FLAT:??_R3IAbstractApplication@@8
rdata$r	ENDS
;	COMDAT ??_R1CA@?0A@EA@?$TAbstractSingleton@VIAbstractApplication@@@@8
rdata$r	SEGMENT
??_R1CA@?0A@EA@?$TAbstractSingleton@VIAbstractApplication@@@@8 DD FLAT:??_R0?AV?$TAbstractSingleton@VIAbstractApplication@@@@@8 ; TAbstractSingleton<IAbstractApplication>::`RTTI Base Class Descriptor at (32,-1,0,64)'
	DD	00H
	DD	020H
	DD	0ffffffffH
	DD	00H
	DD	040H
	DD	FLAT:??_R3?$TAbstractSingleton@VIAbstractApplication@@@@8
rdata$r	ENDS
;	COMDAT ??_R2?$TAbstractSingleton@VIAbstractApplication@@@@8
rdata$r	SEGMENT
??_R2?$TAbstractSingleton@VIAbstractApplication@@@@8 DD FLAT:??_R1A@?0A@EA@?$TAbstractSingleton@VIAbstractApplication@@@@8 ; TAbstractSingleton<IAbstractApplication>::`RTTI Base Class Array'
rdata$r	ENDS
;	COMDAT ??_R2IAbstractApplication@@8
rdata$r	SEGMENT
??_R2IAbstractApplication@@8 DD FLAT:??_R1A@?0A@EA@IAbstractApplication@@8 ; IAbstractApplication::`RTTI Base Class Array'
	DD	FLAT:??_R1A@?0A@EA@?$TAbstractSingleton@VIAbstractApplication@@@@8
rdata$r	ENDS
;	COMDAT ??_R2?$CSingleton@VCMovieMan@@@@8
rdata$r	SEGMENT
??_R2?$CSingleton@VCMovieMan@@@@8 DD FLAT:??_R1A@?0A@EA@?$CSingleton@VCMovieMan@@@@8 ; CSingleton<CMovieMan>::`RTTI Base Class Array'
rdata$r	ENDS
;	COMDAT ??_R2CMovieMan@@8
rdata$r	SEGMENT
??_R2CMovieMan@@8 DD FLAT:??_R1A@?0A@EA@CMovieMan@@8	; CMovieMan::`RTTI Base Class Array'
	DD	FLAT:??_R1A@?0A@EA@?$CSingleton@VCMovieMan@@@@8
rdata$r	ENDS
;	COMDAT ??_R2CMSWindow@@8
rdata$r	SEGMENT
??_R2CMSWindow@@8 DD FLAT:??_R1A@?0A@EA@CMSWindow@@8	; CMSWindow::`RTTI Base Class Array'
rdata$r	ENDS
;	COMDAT ??_R2CMSApplication@@8
rdata$r	SEGMENT
??_R2CMSApplication@@8 DD FLAT:??_R1A@?0A@EA@CMSApplication@@8 ; CMSApplication::`RTTI Base Class Array'
	DD	FLAT:??_R1A@?0A@EA@CMSWindow@@8
rdata$r	ENDS
;	COMDAT ??_R2CInputDevice@@8
rdata$r	SEGMENT
??_R2CInputDevice@@8 DD FLAT:??_R1A@?0A@EA@CInputDevice@@8 ; CInputDevice::`RTTI Base Class Array'
rdata$r	ENDS
;	COMDAT ??_R2CInputKeyboard@@8
rdata$r	SEGMENT
??_R2CInputKeyboard@@8 DD FLAT:??_R1A@?0A@EA@CInputKeyboard@@8 ; CInputKeyboard::`RTTI Base Class Array'
	DD	FLAT:??_R1A@?0A@EA@CInputDevice@@8
rdata$r	ENDS
;	COMDAT ??_R2CPythonApplication@@8
rdata$r	SEGMENT
??_R2CPythonApplication@@8 DD FLAT:??_R1A@?0A@EA@CPythonApplication@@8 ; CPythonApplication::`RTTI Base Class Array'
	DD	FLAT:??_R1A@?0A@EA@CMSApplication@@8
	DD	FLAT:??_R1A@?0A@EA@CMSWindow@@8
	DD	FLAT:??_R1BM@?0A@EA@CInputKeyboard@@8
	DD	FLAT:??_R1BM@?0A@EA@CInputDevice@@8
	DD	FLAT:??_R1CA@?0A@EA@IAbstractApplication@@8
	DD	FLAT:??_R1CA@?0A@EA@?$TAbstractSingleton@VIAbstractApplication@@@@8
rdata$r	ENDS
;	COMDAT ??_C@_0CF@CBFEMJII@d?3?1ymir?5work?1special?1spheremap01@
CONST	SEGMENT
??_C@_0CF@CBFEMJII@d?3?1ymir?5work?1special?1spheremap01@ DB 'd:/ymir wor'
	DB	'k/special/spheremap01.jpg', 00H		; `string'
CONST	ENDS
;	COMDAT ??_C@_0CD@KIIBIHOG@d?3?1ymir?5work?1special?1spheremap?4j@
CONST	SEGMENT
??_C@_0CD@KIIBIHOG@d?3?1ymir?5work?1special?1spheremap?4j@ DB 'd:/ymir wo'
	DB	'rk/special/spheremap.jpg', 00H		; `string'
CONST	ENDS
;	COMDAT ??_C@_0BB@EJLMKODK@?$CCCREATE_NETWORK?$CC?$AA@
CONST	SEGMENT
??_C@_0BB@EJLMKODK@?$CCCREATE_NETWORK?$CC?$AA@ DB '"CREATE_NETWORK"', 00H ; `string'
CONST	ENDS
;	COMDAT ??_C@_0BJ@CJEBNOLC@NetDevice?3?3Create?5failed?$AA@
CONST	SEGMENT
??_C@_0BJ@CJEBNOLC@NetDevice?3?3Create?5failed?$AA@ DB 'NetDevice::Create'
	DB	' failed', 00H				; `string'
CONST	ENDS
;	COMDAT ??_C@_0BA@GLLECKCO@?$CCCREATE_CURSOR?$CC?$AA@
CONST	SEGMENT
??_C@_0BA@GLLECKCO@?$CCCREATE_CURSOR?$CC?$AA@ DB '"CREATE_CURSOR"', 00H ; `string'
CONST	ENDS
;	COMDAT ??_C@_0CA@FFOMJBHN@CMSWindow?3?3Cursors?5Create?5Error?$AA@
CONST	SEGMENT
??_C@_0CA@FFOMJBHN@CMSWindow?3?3Cursors?5Create?5Error?$AA@ DB 'CMSWindow'
	DB	'::Cursors Create Error', 00H		; `string'
CONST	ENDS
;	COMDAT ??_C@_0O@NOBMPFEG@CREATE_WINDOW?$AA@
CONST	SEGMENT
??_C@_0O@NOBMPFEG@CREATE_WINDOW?$AA@ DB 'CREATE_WINDOW', 00H ; `string'
CONST	ENDS
;	COMDAT ??_C@_0BJ@DBNNLGNG@CMSWindow?3?3Create?5failed?$AA@
CONST	SEGMENT
??_C@_0BJ@DBNNLGNG@CMSWindow?3?3Create?5failed?$AA@ DB 'CMSWindow::Create'
	DB	' failed', 00H				; `string'
CONST	ENDS
;	COMDAT ??_C@_0EI@FFMLHANM@LoadLocaleData?5?9?5CPythonNetworkS@
CONST	SEGMENT
??_C@_0EI@FFMLHANM@LoadLocaleData?5?9?5CPythonNetworkS@ DB 'LoadLocaleDat'
	DB	'a - CPythonNetworkStream::LoadConvertTable(%d, %s) FAILURE', 00H ; `string'
CONST	ENDS
;	COMDAT ??_C@_0O@GCNBGGIE@?$CFs?1lang?$CFd?4cvt?$AA@
CONST	SEGMENT
??_C@_0O@GCNBGGIE@?$CFs?1lang?$CFd?4cvt?$AA@ DB '%s/lang%d.cvt', 00H ; `string'
CONST	ENDS
;	COMDAT ??_C@_0DO@PNDPPMDH@CPythonApplication?5?9?5CPythonNetw@
CONST	SEGMENT
??_C@_0DO@PNDPPMDH@CPythonApplication?5?9?5CPythonNetw@ DB 'CPythonApplic'
	DB	'ation - CPythonNetworkStream::LoadInsultList(%s)', 00H ; `string'
CONST	ENDS
;	COMDAT ??_C@_0CO@HCDPLHIO@LoadLocaleData?5?9?5RegisterSkillTa@
CONST	SEGMENT
??_C@_0CO@HCDPLHIO@LoadLocaleData?5?9?5RegisterSkillTa@ DB 'LoadLocaleDat'
	DB	'a - RegisterSkillTable(%s) Error', 00H	; `string'
CONST	ENDS
;	COMDAT ??_C@_0CN@NIKOAAJF@LoadLocaleData?5?9?5RegisterSkillDe@
CONST	SEGMENT
??_C@_0CN@NIKOAAJF@LoadLocaleData?5?9?5RegisterSkillDe@ DB 'LoadLocaleDat'
	DB	'a - RegisterSkillDesc(%s) Error', 00H	; `string'
CONST	ENDS
;	COMDAT ??_C@_0CI@PNCAMHEJ@LoadLocaleData?5?9?5LoadMobProto?$CI?$CFs@
CONST	SEGMENT
??_C@_0CI@PNCAMHEJ@LoadLocaleData?5?9?5LoadMobProto?$CI?$CFs@ DB 'LoadLoc'
	DB	'aleData - LoadMobProto(%s) Error', 00H	; `string'
CONST	ENDS
;	COMDAT ??_C@_0CI@FLOPHKEN@LoadLocaleData?5?9?5LoadItemDesc?$CI?$CFs@
CONST	SEGMENT
??_C@_0CI@FLOPHKEN@LoadLocaleData?5?9?5LoadItemDesc?$CI?$CFs@ DB 'LoadLoc'
	DB	'aleData - LoadItemDesc(%s) Error', 00H	; `string'
CONST	ENDS
;	COMDAT ??_C@_0CJ@MIFDPICO@LoadLocaleData?5?9?5LoadItemProto?$CI?$CF@
CONST	SEGMENT
??_C@_0CJ@MIFDPICO@LoadLocaleData?5?9?5LoadItemProto?$CI?$CF@ DB 'LoadLoc'
	DB	'aleData - LoadItemProto(%s) Error', 00H	; `string'
CONST	ENDS
;	COMDAT ??_C@_0CI@MGBDCDJE@LoadLocaleData?5?9?5LoadItemList?$CI?$CFs@
CONST	SEGMENT
??_C@_0CI@MGBDCDJE@LoadLocaleData?5?9?5LoadItemList?$CI?$CFs@ DB 'LoadLoc'
	DB	'aleData - LoadItemList(%s) Error', 00H	; `string'
CONST	ENDS
;	COMDAT ??_C@_0O@JEIJHCCG@?$CFs?1insult?4txt?$AA@
CONST	SEGMENT
??_C@_0O@JEIJHCCG@?$CFs?1insult?4txt?$AA@ DB '%s/insult.txt', 00H ; `string'
CONST	ENDS
;	COMDAT ??_C@_0BC@NLEJCAEF@?$CFs?1SkillTable?4txt?$AA@
CONST	SEGMENT
??_C@_0BC@NLEJCAEF@?$CFs?1SkillTable?4txt?$AA@ DB '%s/SkillTable.txt', 00H ; `string'
CONST	ENDS
;	COMDAT ??_C@_0BB@JDMIHPNN@?$CFs?1SkillDesc?4txt?$AA@
CONST	SEGMENT
??_C@_0BB@JDMIHPNN@?$CFs?1SkillDesc?4txt?$AA@ DB '%s/SkillDesc.txt', 00H ; `string'
CONST	ENDS
;	COMDAT ??_C@_0N@KCBCHIHM@?$CFs?1mob_proto?$AA@
CONST	SEGMENT
??_C@_0N@KCBCHIHM@?$CFs?1mob_proto?$AA@ DB '%s/mob_proto', 00H ; `string'
CONST	ENDS
;	COMDAT ??_C@_0BA@BIDKFLDM@?$CFs?1itemdesc?4txt?$AA@
CONST	SEGMENT
??_C@_0BA@BIDKFLDM@?$CFs?1itemdesc?4txt?$AA@ DB '%s/itemdesc.txt', 00H ; `string'
CONST	ENDS
;	COMDAT ??_C@_0O@MEMEPBB@?$CFs?1item_proto?$AA@
CONST	SEGMENT
??_C@_0O@MEMEPBB@?$CFs?1item_proto?$AA@ DB '%s/item_proto', 00H ; `string'
CONST	ENDS
;	COMDAT ??_C@_0BB@EOELDOLA@?$CFs?1item_list?4txt?$AA@
CONST	SEGMENT
??_C@_0BB@EOELDOLA@?$CFs?1item_list?4txt?$AA@ DB '%s/item_list.txt', 00H ; `string'
CONST	ENDS
;	COMDAT ??_C@_0BN@JAHEKIGK@CreateDevice?3?5Unknown?5Error?$CB?$AA@
CONST	SEGMENT
??_C@_0BN@JAHEKIGK@CreateDevice?3?5Unknown?5Error?$CB?$AA@ DB 'CreateDevi'
	DB	'ce: Unknown Error!', 00H			; `string'
CONST	ENDS
;	COMDAT ??_C@_0O@BAEJJDKB@UNKNOWN_ERROR?$AA@
CONST	SEGMENT
??_C@_0O@BAEJJDKB@UNKNOWN_ERROR?$AA@ DB 'UNKNOWN_ERROR', 00H ; `string'
CONST	ENDS
;	COMDAT ??_C@_0CB@JLAAEKGJ@CreateDevice?3?5GetDevCaps2?5failed@
CONST	SEGMENT
??_C@_0CB@JLAAEKGJ@CreateDevice?3?5GetDevCaps2?5failed@ DB 'CreateDevice:'
	DB	' GetDevCaps2 failed', 00H			; `string'
CONST	ENDS
;	COMDAT ??_C@_0BD@IHNLMMLJ@GetDevCaps2?5failed?$AA@
CONST	SEGMENT
??_C@_0BD@IHNLMMLJ@GetDevCaps2?5failed?$AA@ DB 'GetDevCaps2 failed', 00H ; `string'
CONST	ENDS
;	COMDAT ??_C@_0CA@DLHDILBB@CreateDevice?3?5GetDevCaps?5failed?$AA@
CONST	SEGMENT
??_C@_0CA@DLHDILBB@CreateDevice?3?5GetDevCaps?5failed?$AA@ DB 'CreateDevi'
	DB	'ce: GetDevCaps failed', 00H			; `string'
CONST	ENDS
;	COMDAT ??_C@_0BC@IMJEDJEA@GetDevCaps?5failed?$AA@
CONST	SEGMENT
??_C@_0BC@IMJEDJEA@GetDevCaps?5failed?$AA@ DB 'GetDevCaps failed', 00H ; `string'
CONST	ENDS
;	COMDAT ??_C@_0CH@DEBFNBPL@CreateDevice?3?5Change?5the?5screen?5@
CONST	SEGMENT
??_C@_0CH@DEBFNBPL@CreateDevice?3?5Change?5the?5screen?5@ DB 'CreateDevic'
	DB	'e: Change the screen format', 00H		; `string'
CONST	ENDS
;	COMDAT ??_C@_0O@DAEHMKOB@CREATE_FORMAT?$AA@
CONST	SEGMENT
??_C@_0O@DAEHMKOB@CREATE_FORMAT?$AA@ DB 'CREATE_FORMAT', 00H ; `string'
CONST	ENDS
;	COMDAT ??_C@_0CK@KMPBIDGP@CreateDevice?3?5GraphicDevice?5crea@
CONST	SEGMENT
??_C@_0CK@KMPBIDGP@CreateDevice?3?5GraphicDevice?5crea@ DB 'CreateDevice:'
	DB	' GraphicDevice create failed', 00H		; `string'
CONST	ENDS
;	COMDAT ??_C@_0O@CMPMDOEH@CREATE_DEVICE?$AA@
CONST	SEGMENT
??_C@_0O@CMPMDOEH@CREATE_DEVICE?$AA@ DB 'CREATE_DEVICE', 00H ; `string'
CONST	ENDS
;	COMDAT ??_C@_0DK@GACPAJMM@CreateDevice?3?5DirectX?58?41?5or?5gre@
CONST	SEGMENT
??_C@_0DK@GACPAJMM@CreateDevice?3?5DirectX?58?41?5or?5gre@ DB 'CreateDevi'
	DB	'ce: DirectX 8.1 or greater required to run game', 00H ; `string'
CONST	ENDS
;	COMDAT ??_C@_0BC@NKAKBNDM@CREATE_NO_DIRECTX?$AA@
CONST	SEGMENT
??_C@_0BC@NKAKBNDM@CREATE_NO_DIRECTX?$AA@ DB 'CREATE_NO_DIRECTX', 00H ; `string'
CONST	ENDS
;	COMDAT ??_C@_0CD@GGLEAAKE@CreateDevice?3?5Enum?5?$CG?5Detect?5fail@
CONST	SEGMENT
??_C@_0CD@GGLEAAKE@CreateDevice?3?5Enum?5?$CG?5Detect?5fail@ DB 'CreateDe'
	DB	'vice: Enum & Detect failed', 00H		; `string'
CONST	ENDS
;	COMDAT ??_C@_0BN@OAKBEJJN@CREATE_NO_APPROPRIATE_DEVICE?$AA@
CONST	SEGMENT
??_C@_0BN@OAKBEJJN@CREATE_NO_APPROPRIATE_DEVICE?$AA@ DB 'CREATE_NO_APPROP'
	DB	'RIATE_DEVICE', 00H				; `string'
CONST	ENDS
;	COMDAT ??_C@_0M@MOGGPFAH@WARN_NO_TNL?$AA@
CONST	SEGMENT
??_C@_0M@MOGGPFAH@WARN_NO_TNL?$AA@ DB 'WARN_NO_TNL', 00H ; `string'
CONST	ENDS
;	COMDAT ??_C@_0BA@NOHKOOIE@WARN_BAD_DRIVER?$AA@
CONST	SEGMENT
??_C@_0BA@NOHKOOIE@WARN_BAD_DRIVER?$AA@ DB 'WARN_BAD_DRIVER', 00H ; `string'
CONST	ENDS
;	COMDAT ??_C@_0BD@OJBILBDC@FrameSkip?5?$LK?$LI?A?$KE?5?$CFd?6?$AA@
CONST	SEGMENT
??_C@_0BD@OJBILBDC@FrameSkip?5?$LK?$LI?A?$KE?5?$CFd?6?$AA@ DB 'FrameSkip '
	DB	0baH, 0b8H, 0c1H, 0a4H, ' %d', 0aH, 00H	; `string'
CONST	ENDS
;	COMDAT ??_C@_0L@PAGGCBDD@GU?4POS?5?$CFd?6?$AA@
CONST	SEGMENT
??_C@_0L@PAGGCBDD@GU?4POS?5?$CFd?6?$AA@ DB 'GU.POS %d', 0aH, 00H ; `string'
CONST	ENDS
;	COMDAT ??_C@_0L@KNCOIAL@GU?4PLR?5?$CFd?6?$AA@
CONST	SEGMENT
??_C@_0L@KNCOIAL@GU?4PLR?5?$CFd?6?$AA@ DB 'GU.PLR %d', 0aH, 00H ; `string'
CONST	ENDS
;	COMDAT ??_C@_0L@MPJHKAOM@GU?4ITM?5?$CFd?6?$AA@
CONST	SEGMENT
??_C@_0L@MPJHKAOM@GU?4ITM?5?$CFd?6?$AA@ DB 'GU.ITM %d', 0aH, 00H ; `string'
CONST	ENDS
;	COMDAT ??_C@_0L@NKMBCAGE@GU?4FLY?5?$CFd?6?$AA@
CONST	SEGMENT
??_C@_0L@NKMBCAGE@GU?4FLY?5?$CFd?6?$AA@ DB 'GU.FLY %d', 0aH, 00H ; `string'
CONST	ENDS
;	COMDAT ??_C@_0L@EMKAGLBH@GU?4EFT?5?$CFd?6?$AA@
CONST	SEGMENT
??_C@_0L@EMKAGLBH@GU?4EFT?5?$CFd?6?$AA@ DB 'GU.EFT %d', 0aH, 00H ; `string'
CONST	ENDS
;	COMDAT ??_C@_0L@MKJPKNA@GU?4CHR?5?$CFd?6?$AA@
CONST	SEGMENT
??_C@_0L@MKJPKNA@GU?4CHR?5?$CFd?6?$AA@ DB 'GU.CHR %d', 0aH, 00H ; `string'
CONST	ENDS
;	COMDAT ??_C@_0L@BLLECFKE@GU?4GEM?5?$CFd?6?$AA@
CONST	SEGMENT
??_C@_0L@BLLECFKE@GU?4GEM?5?$CFd?6?$AA@ DB 'GU.GEM %d', 0aH, 00H ; `string'
CONST	ENDS
;	COMDAT ??_C@_09JGPPFKPH@GU?4BG?5?$CFd?6?$AA@
CONST	SEGMENT
??_C@_09JGPPFKPH@GU?4BG?5?$CFd?6?$AA@ DB 'GU.BG %d', 0aH, 00H ; `string'
CONST	ENDS
;	COMDAT ??_C@_0L@IGEOOJOO@GU?4MPS?5?$CFd?6?$AA@
CONST	SEGMENT
??_C@_0L@IGEOOJOO@GU?4MPS?5?$CFd?6?$AA@ DB 'GU.MPS %d', 0aH, 00H ; `string'
CONST	ENDS
;	COMDAT ??_C@_0L@HCBFJPAB@GU?4SCR?5?$CFd?6?$AA@
CONST	SEGMENT
??_C@_0L@HCBFJPAB@GU?4SCR?5?$CFd?6?$AA@ DB 'GU.SCR %d', 0aH, 00H ; `string'
CONST	ENDS
;	COMDAT ??_C@_0L@JHBDHKIG@GU?4GMP?5?$CFd?6?$AA@
CONST	SEGMENT
??_C@_0L@JHBDHKIG@GU?4GMP?5?$CFd?6?$AA@ DB 'GU.GMP %d', 0aH, 00H ; `string'
CONST	ENDS
;	COMDAT ??_C@_0BH@HPIDKEA@GU?4Total?5?$CFd?5?$CITime?5?$CFd?$CJ?6?$AA@
CONST	SEGMENT
??_C@_0BH@HPIDKEA@GU?4Total?5?$CFd?5?$CITime?5?$CFd?$CJ?6?$AA@ DB 'GU.Tot'
	DB	'al %d (Time %d)', 0aH, 00H			; `string'
CONST	ENDS
;	COMDAT ??_C@_0BF@NHIIGIH@perf_game_update?4txt?$AA@
CONST	SEGMENT
??_C@_0BF@NHIIGIH@perf_game_update?4txt?$AA@ DB 'perf_game_update.txt', 00H ; `string'
CONST	ENDS
;	COMDAT ??_C@_0O@EEAHGPFP@GR?4BG?4BLK?5?$CFd?6?$AA@
CONST	SEGMENT
??_C@_0O@EEAHGPFP@GR?4BG?4BLK?5?$CFd?6?$AA@ DB 'GR.BG.BLK %d', 0aH, 00H ; `string'
CONST	ENDS
;	COMDAT ??_C@_0L@DIBNDLBN@GR?4FLY?5?$CFd?6?$AA@
CONST	SEGMENT
??_C@_0L@DIBNDLBN@GR?4FLY?5?$CFd?6?$AA@ DB 'GR.FLY %d', 0aH, 00H ; `string'
CONST	ENDS
;	COMDAT ??_C@_0L@CNELLLJF@GR?4ITM?5?$CFd?6?$AA@
CONST	SEGMENT
??_C@_0L@CNELLLJF@GR?4ITM?5?$CFd?6?$AA@ DB 'GR.ITM %d', 0aH, 00H ; `string'
CONST	ENDS
;	COMDAT ??_C@_0L@KOHMHAGO@GR?4EFT?5?$CFd?6?$AA@
CONST	SEGMENT
??_C@_0L@KOHMHAGO@GR?4EFT?5?$CFd?6?$AA@ DB 'GR.EFT %d', 0aH, 00H ; `string'
CONST	ENDS
;	COMDAT ??_C@_0O@BIDCIJEG@GR?4BG?4EFT?5?$CFd?6?$AA@
CONST	SEGMENT
??_C@_0O@BIDCIJEG@GR?4BG?4EFT?5?$CFd?6?$AA@ DB 'GR.BG.EFT %d', 0aH, 00H ; `string'
CONST	ENDS
;	COMDAT ??_C@_0O@LENBOK@GR?4BG?4WTR?5?$CFd?6?$AA@
CONST	SEGMENT
??_C@_0O@LENBOK@GR?4BG?4WTR?5?$CFd?6?$AA@ DB 'GR.BG.WTR %d', 0aH, 00H ; `string'
CONST	ENDS
;	COMDAT ??_C@_0L@OOHFOBKJ@GR?4CHR?5?$CFd?6?$AA@
CONST	SEGMENT
??_C@_0L@OOHFOBKJ@GR?4CHR?5?$CFd?6?$AA@ DB 'GR.CHR %d', 0aH, 00H ; `string'
CONST	ENDS
;	COMDAT ??_C@_0P@EJKDFAIB@GR?4BG?4MAIN?5?$CFd?6?$AA@
CONST	SEGMENT
??_C@_0P@EJKDFAIB@GR?4BG?4MAIN?5?$CFd?6?$AA@ DB 'GR.BG.MAIN %d', 0aH, 00H ; `string'
CONST	ENDS
;	COMDAT ??_C@_0O@HJPLNNBE@GR?4BG?4CLD?5?$CFd?6?$AA@
CONST	SEGMENT
??_C@_0O@HJPLNNBE@GR?4BG?4CLD?5?$CFd?6?$AA@ DB 'GR.BG.CLD %d', 0aH, 00H ; `string'
CONST	ENDS
;	COMDAT ??_C@_0O@JENIKJAN@GR?4BG?4LEN?5?$CFd?6?$AA@
CONST	SEGMENT
??_C@_0O@JENIKJAN@GR?4BG?4LEN?5?$CFd?6?$AA@ DB 'GR.BG.LEN %d', 0aH, 00H ; `string'
CONST	ENDS
;	COMDAT ??_C@_0O@HPKPMDPE@GR?4BG?4SKY?5?$CFd?6?$AA@
CONST	SEGMENT
??_C@_0O@HPKPMDPE@GR?4BG?4SKY?5?$CFd?6?$AA@ DB 'GR.BG.SKY %d', 0aH, 00H ; `string'
CONST	ENDS
;	COMDAT ??_C@_0L@CDOGKGFB@GR?4CLL?5?$CFd?6?$AA@
CONST	SEGMENT
??_C@_0L@CDOGKGFB@GR?4CLL?5?$CFd?6?$AA@ DB 'GR.CLL %d', 0aH, 00H ; `string'
CONST	ENDS
;	COMDAT ??_C@_0L@OEOJMFCF@GR?4STT?5?$CFd?6?$AA@
CONST	SEGMENT
??_C@_0L@OEOJMFCF@GR?4STT?5?$CFd?6?$AA@ DB 'GR.STT %d', 0aH, 00H ; `string'
CONST	ENDS
;	COMDAT ??_C@_0L@MCADEBDB@GR?4SHW?5?$CFd?6?$AA@
CONST	SEGMENT
??_C@_0L@MCADEBDB@GR?4SHW?5?$CFd?6?$AA@ DB 'GR.SHW %d', 0aH, 00H ; `string'
CONST	ENDS
;	COMDAT ??_C@_0O@PLGAMGBI@GR?4EFT?4UP?5?$CFd?6?$AA@
CONST	SEGMENT
??_C@_0O@PLGAMGBI@GR?4EFT?4UP?5?$CFd?6?$AA@ DB 'GR.EFT.UP %d', 0aH, 00H ; `string'
CONST	ENDS
;	COMDAT ??_C@_0L@EGAPCDKD@GR?4DFM?5?$CFd?6?$AA@
CONST	SEGMENT
??_C@_0L@EGAPCDKD@GR?4DFM?5?$CFd?6?$AA@ DB 'GR.DFM %d', 0aH, 00H ; `string'
CONST	ENDS
;	COMDAT ??_C@_0BH@GCCBAEAA@GR?4Total?5?$CFd?5?$CITime?5?$CFd?$CJ?6?$AA@
CONST	SEGMENT
??_C@_0BH@GCCBAEAA@GR?4Total?5?$CFd?5?$CITime?5?$CFd?$CJ?6?$AA@ DB 'GR.To'
	DB	'tal %d (Time %d)', 0aH, 00H			; `string'
CONST	ENDS
;	COMDAT ??_C@_0BF@OHHAPIAL@perf_game_render?4txt?$AA@
CONST	SEGMENT
??_C@_0BF@OHHAPIAL@perf_game_render?4txt?$AA@ DB 'perf_game_render.txt', 00H ; `string'
CONST	ENDS
;	COMDAT ??_C@_0M@EHJKIBDK@Abort?$CB?$CB?$CB?$CB?6?6?$AA@
CONST	SEGMENT
??_C@_0M@EHJKIBDK@Abort?$CB?$CB?$CB?$CB?6?6?$AA@ DB 'Abort!!!!', 0aH, 0aH
	DB	00H						; `string'
CONST	ENDS
;	COMDAT ??_C@_0GN@LLBDNFAM@?$DN?$DN?$DN?$DN?$DN?$DN?$DN?$DN?$DN?$DN?$DN?$DN?$DN?$DN?$DN?$DN?$DN?$DN?$DN?$DN?$DN?$DN?$DN?$DN?$DN?$DN?$DN?$DN?$DN?$DN?$DN?$DN@
CONST	SEGMENT
??_C@_0GN@LLBDNFAM@?$DN?$DN?$DN?$DN?$DN?$DN?$DN?$DN?$DN?$DN?$DN?$DN?$DN?$DN?$DN?$DN?$DN?$DN?$DN?$DN?$DN?$DN?$DN?$DN?$DN?$DN?$DN?$DN?$DN?$DN?$DN?$DN@ DB '='
	DB	'============================================================='
	DB	'==============================================', 00H ; `string'
?c_fDefaultCameraZoomSpeed@@3MA DD 03d4ccccdr	; 0.05	; c_fDefaultCameraZoomSpeed
?c_fDefaultCameraPitchSpeed@@3MA DD 03fc00000r	; 1.5	; c_fDefaultCameraPitchSpeed
?c_fDefaultCameraRotateSpeed@@3MA DD 03fc00000r	; 1.5	; c_fDefaultCameraRotateSpeed
?g_specularSpd@@3NA DQ 03f7cac0840000000r	; 0.007	; g_specularSpd
?MIN_FOG@@3MA DD 045160000r			; 2400	; MIN_FOG
PUBLIC	??_ECPythonApplication@@WCA@AEPAXI@Z		; [thunk]:CPythonApplication::`vector deleting destructor'
PUBLIC	??_ECPythonApplication@@WBM@AEPAXI@Z		; [thunk]:CPythonApplication::`vector deleting destructor'
PUBLIC	??$construct@PAU?$_Tree_node@U?$pair@$$CBHPAX@std@@PAX@std@@AAPAU12@@?$allocator@U?$_Tree_node@U?$pair@$$CBHPAX@std@@PAX@std@@@std@@QAEXPAPAU?$_Tree_node@U?$pair@$$CBHPAX@std@@PAX@1@AAPAU21@@Z ; std::allocator<std::_Tree_node<std::pair<int const ,void *>,void *> >::construct<std::_Tree_node<std::pair<int const ,void *>,void *> *,std::_Tree_node<std::pair<int const ,void *>,void *> * &>
PUBLIC	??$destroy@U?$pair@$$CBHPAX@std@@@?$allocator@U?$_Tree_node@U?$pair@$$CBHPAX@std@@PAX@std@@@std@@QAEXPAU?$pair@$$CBHPAX@1@@Z ; std::allocator<std::_Tree_node<std::pair<int const ,void *>,void *> >::destroy<std::pair<int const ,void *> >
PUBLIC	??$destroy@PAU?$_Tree_node@U?$pair@$$CBHPAX@std@@PAX@std@@@?$allocator@U?$_Tree_node@U?$pair@$$CBHPAX@std@@PAX@std@@@std@@QAEXPAPAU?$_Tree_node@U?$pair@$$CBHPAX@std@@PAX@1@@Z ; std::allocator<std::_Tree_node<std::pair<int const ,void *>,void *> >::destroy<std::_Tree_node<std::pair<int const ,void *>,void *> *>
PUBLIC	??$construct@PAU?$_Tree_node@U?$pair@$$CBHPAX@std@@PAX@std@@AAPAU12@@?$allocator_traits@V?$allocator@U?$_Tree_node@U?$pair@$$CBHPAX@std@@PAX@std@@@std@@@std@@SAXAAV?$allocator@U?$_Tree_node@U?$pair@$$CBHPAX@std@@PAX@std@@@1@PAPAU?$_Tree_node@U?$pair@$$CBHPAX@std@@PAX@1@AAPAU31@@Z ; std::allocator_traits<std::allocator<std::_Tree_node<std::pair<int const ,void *>,void *> > >::construct<std::_Tree_node<std::pair<int const ,void *>,void *> *,std::_Tree_node<std::pair<int const ,void *>,void *> * &>
PUBLIC	??$forward@AAPAU?$_Tree_node@U?$pair@$$CBHPAX@std@@PAX@std@@@std@@YAAAPAU?$_Tree_node@U?$pair@$$CBHPAX@std@@PAX@0@AAPAU10@@Z ; std::forward<std::_Tree_node<std::pair<int const ,void *>,void *> * &>
PUBLIC	??$destroy@U?$pair@$$CBHPAX@std@@@?$allocator_traits@V?$allocator@U?$_Tree_node@U?$pair@$$CBHPAX@std@@PAX@std@@@std@@@std@@SAXAAV?$allocator@U?$_Tree_node@U?$pair@$$CBHPAX@std@@PAX@std@@@1@PAU?$pair@$$CBHPAX@1@@Z ; std::allocator_traits<std::allocator<std::_Tree_node<std::pair<int const ,void *>,void *> > >::destroy<std::pair<int const ,void *> >
PUBLIC	??$destroy@PAU?$_Tree_node@U?$pair@$$CBHPAX@std@@PAX@std@@@?$allocator_traits@V?$allocator@U?$_Tree_node@U?$pair@$$CBHPAX@std@@PAX@std@@@std@@@std@@SAXAAV?$allocator@U?$_Tree_node@U?$pair@$$CBHPAX@std@@PAX@std@@@1@PAPAU?$_Tree_node@U?$pair@$$CBHPAX@std@@PAX@1@@Z ; std::allocator_traits<std::allocator<std::_Tree_node<std::pair<int const ,void *>,void *> > >::destroy<std::_Tree_node<std::pair<int const ,void *>,void *> *>
PUBLIC	??$_Allocate@U?$_Tree_node@U?$pair@$$CBHPAX@std@@PAX@std@@@std@@YAPAU?$_Tree_node@U?$pair@$$CBHPAX@std@@PAX@0@IPAU10@@Z ; std::_Allocate<std::_Tree_node<std::pair<int const ,void *>,void *> >
PUBLIC	??$construct@PAU?$_Tree_node@U?$pair@$$CBHPAX@std@@PAX@std@@AAPAU12@@?$_Wrap_alloc@V?$allocator@U?$_Tree_node@U?$pair@$$CBHPAX@std@@PAX@std@@@std@@@std@@QAEXPAPAU?$_Tree_node@U?$pair@$$CBHPAX@std@@PAX@1@AAPAU21@@Z ; std::_Wrap_alloc<std::allocator<std::_Tree_node<std::pair<int const ,void *>,void *> > >::construct<std::_Tree_node<std::pair<int const ,void *>,void *> *,std::_Tree_node<std::pair<int const ,void *>,void *> * &>
PUBLIC	??$destroy@U?$pair@$$CBHPAX@std@@@?$_Wrap_alloc@V?$allocator@U?$_Tree_node@U?$pair@$$CBHPAX@std@@PAX@std@@@std@@@std@@QAEXPAU?$pair@$$CBHPAX@1@@Z ; std::_Wrap_alloc<std::allocator<std::_Tree_node<std::pair<int const ,void *>,void *> > >::destroy<std::pair<int const ,void *> >
PUBLIC	??$addressof@U?$pair@$$CBHPAX@std@@@std@@YAPAU?$pair@$$CBHPAX@0@AAU10@@Z ; std::addressof<std::pair<int const ,void *> >
PUBLIC	??$destroy@PAU?$_Tree_node@U?$pair@$$CBHPAX@std@@PAX@std@@@?$_Wrap_alloc@V?$allocator@U?$_Tree_node@U?$pair@$$CBHPAX@std@@PAX@std@@@std@@@std@@QAEXPAPAU?$_Tree_node@U?$pair@$$CBHPAX@std@@PAX@1@@Z ; std::_Wrap_alloc<std::allocator<std::_Tree_node<std::pair<int const ,void *>,void *> > >::destroy<std::_Tree_node<std::pair<int const ,void *>,void *> *>
PUBLIC	??$addressof@PAU?$_Tree_node@U?$pair@$$CBHPAX@std@@PAX@std@@@std@@YAPAPAU?$_Tree_node@U?$pair@$$CBHPAX@std@@PAX@0@AAPAU10@@Z ; std::addressof<std::_Tree_node<std::pair<int const ,void *>,void *> *>
PUBLIC	?allocate@?$allocator@U?$_Tree_node@U?$pair@$$CBHPAX@std@@PAX@std@@@std@@QAEPAU?$_Tree_node@U?$pair@$$CBHPAX@std@@PAX@2@I@Z ; std::allocator<std::_Tree_node<std::pair<int const ,void *>,void *> >::allocate
PUBLIC	?allocate@?$_Wrap_alloc@V?$allocator@U?$_Tree_node@U?$pair@$$CBHPAX@std@@PAX@std@@@std@@@std@@QAEPAU?$_Tree_node@U?$pair@$$CBHPAX@std@@PAX@2@I@Z ; std::_Wrap_alloc<std::allocator<std::_Tree_node<std::pair<int const ,void *>,void *> > >::allocate
PUBLIC	??E?$_Tree_unchecked_const_iterator@V?$_Tree_val@U?$_Tree_simple_types@U?$pair@$$CBHPAX@std@@@std@@@std@@U_Iterator_base0@2@@std@@QAEAAV01@XZ ; std::_Tree_unchecked_const_iterator<std::_Tree_val<std::_Tree_simple_types<std::pair<int const ,void *> > >,std::_Iterator_base0>::operator++
PUBLIC	??0?$_Tree_unchecked_const_iterator@V?$_Tree_val@U?$_Tree_simple_types@U?$pair@$$CBHPAX@std@@@std@@@std@@U_Iterator_base0@2@@std@@QAE@PAU?$_Tree_node@U?$pair@$$CBHPAX@std@@PAX@1@PBV?$_Tree_val@U?$_Tree_simple_types@U?$pair@$$CBHPAX@std@@@std@@@1@@Z ; std::_Tree_unchecked_const_iterator<std::_Tree_val<std::_Tree_simple_types<std::pair<int const ,void *> > >,std::_Iterator_base0>::_Tree_unchecked_const_iterator<std::_Tree_val<std::_Tree_simple_types<std::pair<int const ,void *> > >,std::_Iterator_base0>
PUBLIC	??0?$_Tree_val@U?$_Tree_simple_types@U?$pair@$$CBHPAX@std@@@std@@@std@@QAE@XZ ; std::_Tree_val<std::_Tree_simple_types<std::pair<int const ,void *> > >::_Tree_val<std::_Tree_simple_types<std::pair<int const ,void *> > >
PUBLIC	??0?$allocator@U?$_Tree_node@U?$pair@$$CBHPAX@std@@PAX@std@@@std@@QAE@XZ ; std::allocator<std::_Tree_node<std::pair<int const ,void *>,void *> >::allocator<std::_Tree_node<std::pair<int const ,void *>,void *> >
PUBLIC	?_Buyheadnode@?$_Tree_alloc@$0A@U?$_Tree_base_types@U?$pair@$$CBHPAX@std@@V?$allocator@U?$pair@$$CBHPAX@std@@@2@@std@@@std@@QAEPAU?$_Tree_node@U?$pair@$$CBHPAX@std@@PAX@2@XZ ; std::_Tree_alloc<0,std::_Tree_base_types<std::pair<int const ,void *>,std::allocator<std::pair<int const ,void *> > > >::_Buyheadnode
PUBLIC	?_Mynode@?$_Tree_unchecked_const_iterator@V?$_Tree_val@U?$_Tree_simple_types@U?$pair@$$CBHPAX@std@@@std@@@std@@U_Iterator_base0@2@@std@@QBEPAU?$_Tree_node@U?$pair@$$CBHPAX@std@@PAX@2@XZ ; std::_Tree_unchecked_const_iterator<std::_Tree_val<std::_Tree_simple_types<std::pair<int const ,void *> > >,std::_Iterator_base0>::_Mynode
PUBLIC	??E?$_Tree_const_iterator@V?$_Tree_val@U?$_Tree_simple_types@U?$pair@$$CBHPAX@std@@@std@@@std@@@std@@QAEAAV01@XZ ; std::_Tree_const_iterator<std::_Tree_val<std::_Tree_simple_types<std::pair<int const ,void *> > > >::operator++
PUBLIC	??0?$_Tree_const_iterator@V?$_Tree_val@U?$_Tree_simple_types@U?$pair@$$CBHPAX@std@@@std@@@std@@@std@@QAE@PAU?$_Tree_node@U?$pair@$$CBHPAX@std@@PAX@1@PBV?$_Tree_val@U?$_Tree_simple_types@U?$pair@$$CBHPAX@std@@@std@@@1@@Z ; std::_Tree_const_iterator<std::_Tree_val<std::_Tree_simple_types<std::pair<int const ,void *> > > >::_Tree_const_iterator<std::_Tree_val<std::_Tree_simple_types<std::pair<int const ,void *> > > >
PUBLIC	?_Min@?$_Tree_val@U?$_Tree_simple_types@U?$pair@$$CBHPAX@std@@@std@@@std@@SAPAU?$_Tree_node@U?$pair@$$CBHPAX@std@@PAX@2@PAU32@@Z ; std::_Tree_val<std::_Tree_simple_types<std::pair<int const ,void *> > >::_Min
PUBLIC	?_Max@?$_Tree_val@U?$_Tree_simple_types@U?$pair@$$CBHPAX@std@@@std@@@std@@SAPAU?$_Tree_node@U?$pair@$$CBHPAX@std@@PAX@2@PAU32@@Z ; std::_Tree_val<std::_Tree_simple_types<std::pair<int const ,void *> > >::_Max
PUBLIC	?_Myval@?$_Tree_val@U?$_Tree_simple_types@U?$pair@$$CBHPAX@std@@@std@@@std@@SAAAU?$pair@$$CBHPAX@2@PAU?$_Tree_node@U?$pair@$$CBHPAX@std@@PAX@2@@Z ; std::_Tree_val<std::_Tree_simple_types<std::pair<int const ,void *> > >::_Myval
PUBLIC	?_Isnil@?$_Tree_val@U?$_Tree_simple_types@U?$pair@$$CBHPAX@std@@@std@@@std@@SAAADPAU?$_Tree_node@U?$pair@$$CBHPAX@std@@PAX@2@@Z ; std::_Tree_val<std::_Tree_simple_types<std::pair<int const ,void *> > >::_Isnil
PUBLIC	?_Color@?$_Tree_val@U?$_Tree_simple_types@U?$pair@$$CBHPAX@std@@@std@@@std@@SAAADPAU?$_Tree_node@U?$pair@$$CBHPAX@std@@PAX@2@@Z ; std::_Tree_val<std::_Tree_simple_types<std::pair<int const ,void *> > >::_Color
PUBLIC	?deallocate@?$allocator@U?$_Tree_node@U?$pair@$$CBHPAX@std@@PAX@std@@@std@@QAEXPAU?$_Tree_node@U?$pair@$$CBHPAX@std@@PAX@2@I@Z ; std::allocator<std::_Tree_node<std::pair<int const ,void *>,void *> >::deallocate
PUBLIC	??0?$_Wrap_alloc@V?$allocator@U?$_Tree_node@U?$pair@$$CBHPAX@std@@PAX@std@@@std@@@std@@QAE@XZ ; std::_Wrap_alloc<std::allocator<std::_Tree_node<std::pair<int const ,void *>,void *> > >::_Wrap_alloc<std::allocator<std::_Tree_node<std::pair<int const ,void *>,void *> > >
PUBLIC	??0?$_Tree_alloc@$0A@U?$_Tree_base_types@U?$pair@$$CBHPAX@std@@V?$allocator@U?$pair@$$CBHPAX@std@@@2@@std@@@std@@QAE@ABV?$allocator@U?$pair@$$CBHPAX@std@@@1@@Z ; std::_Tree_alloc<0,std::_Tree_base_types<std::pair<int const ,void *>,std::allocator<std::pair<int const ,void *> > > >::_Tree_alloc<0,std::_Tree_base_types<std::pair<int const ,void *>,std::allocator<std::pair<int const ,void *> > > >
PUBLIC	?_Rrotate@?$_Tree@V?$_Tmap_traits@HPAXU?$less@H@std@@V?$allocator@U?$pair@$$CBHPAX@std@@@2@$0A@@std@@@std@@IAEXPAU?$_Tree_node@U?$pair@$$CBHPAX@std@@PAX@2@@Z ; std::_Tree<std::_Tmap_traits<int,void *,std::less<int>,std::allocator<std::pair<int const ,void *> >,0> >::_Rrotate
PUBLIC	?_Root@?$_Tree@V?$_Tmap_traits@HPAXU?$less@H@std@@V?$allocator@U?$pair@$$CBHPAX@std@@@2@$0A@@std@@@std@@IBEAAPAU?$_Tree_node@U?$pair@$$CBHPAX@std@@PAX@2@XZ ; std::_Tree<std::_Tmap_traits<int,void *,std::less<int>,std::allocator<std::pair<int const ,void *> >,0> >::_Root
PUBLIC	?_Rmost@?$_Tree@V?$_Tmap_traits@HPAXU?$less@H@std@@V?$allocator@U?$pair@$$CBHPAX@std@@@2@$0A@@std@@@std@@IBEAAPAU?$_Tree_node@U?$pair@$$CBHPAX@std@@PAX@2@XZ ; std::_Tree<std::_Tmap_traits<int,void *,std::less<int>,std::allocator<std::pair<int const ,void *> >,0> >::_Rmost
PUBLIC	?_Lrotate@?$_Tree@V?$_Tmap_traits@HPAXU?$less@H@std@@V?$allocator@U?$pair@$$CBHPAX@std@@@2@$0A@@std@@@std@@IAEXPAU?$_Tree_node@U?$pair@$$CBHPAX@std@@PAX@2@@Z ; std::_Tree<std::_Tmap_traits<int,void *,std::less<int>,std::allocator<std::pair<int const ,void *> >,0> >::_Lrotate
PUBLIC	?_Erase@?$_Tree@V?$_Tmap_traits@HPAXU?$less@H@std@@V?$allocator@U?$pair@$$CBHPAX@std@@@2@$0A@@std@@@std@@IAEXPAU?$_Tree_node@U?$pair@$$CBHPAX@std@@PAX@2@@Z ; std::_Tree<std::_Tmap_traits<int,void *,std::less<int>,std::allocator<std::pair<int const ,void *> >,0> >::_Erase
PUBLIC	??9?$_Tree_const_iterator@V?$_Tree_val@U?$_Tree_simple_types@U?$pair@$$CBHPAX@std@@@std@@@std@@@std@@QBE_NABV01@@Z ; std::_Tree_const_iterator<std::_Tree_val<std::_Tree_simple_types<std::pair<int const ,void *> > > >::operator!=
PUBLIC	??8?$_Tree_const_iterator@V?$_Tree_val@U?$_Tree_simple_types@U?$pair@$$CBHPAX@std@@@std@@@std@@@std@@QBE_NABV01@@Z ; std::_Tree_const_iterator<std::_Tree_val<std::_Tree_simple_types<std::pair<int const ,void *> > > >::operator==
PUBLIC	??E?$_Tree_const_iterator@V?$_Tree_val@U?$_Tree_simple_types@U?$pair@$$CBHPAX@std@@@std@@@std@@@std@@QAE?AV01@H@Z ; std::_Tree_const_iterator<std::_Tree_val<std::_Tree_simple_types<std::pair<int const ,void *> > > >::operator++
PUBLIC	??0?$_Tree_iterator@V?$_Tree_val@U?$_Tree_simple_types@U?$pair@$$CBHPAX@std@@@std@@@std@@@std@@QAE@PAU?$_Tree_node@U?$pair@$$CBHPAX@std@@PAX@1@PBV?$_Tree_val@U?$_Tree_simple_types@U?$pair@$$CBHPAX@std@@@std@@@1@@Z ; std::_Tree_iterator<std::_Tree_val<std::_Tree_simple_types<std::pair<int const ,void *> > > >::_Tree_iterator<std::_Tree_val<std::_Tree_simple_types<std::pair<int const ,void *> > > >
PUBLIC	?_Right@?$_Tree_val@U?$_Tree_simple_types@U?$pair@$$CBHPAX@std@@@std@@@std@@SAAAPAU?$_Tree_node@U?$pair@$$CBHPAX@std@@PAX@2@PAU32@@Z ; std::_Tree_val<std::_Tree_simple_types<std::pair<int const ,void *> > >::_Right
PUBLIC	?_Parent@?$_Tree_val@U?$_Tree_simple_types@U?$pair@$$CBHPAX@std@@@std@@@std@@SAAAPAU?$_Tree_node@U?$pair@$$CBHPAX@std@@PAX@2@PAU32@@Z ; std::_Tree_val<std::_Tree_simple_types<std::pair<int const ,void *> > >::_Parent
PUBLIC	?_Left@?$_Tree_val@U?$_Tree_simple_types@U?$pair@$$CBHPAX@std@@@std@@@std@@SAAAPAU?$_Tree_node@U?$pair@$$CBHPAX@std@@PAX@2@PAU32@@Z ; std::_Tree_val<std::_Tree_simple_types<std::pair<int const ,void *> > >::_Left
PUBLIC	?deallocate@?$_Wrap_alloc@V?$allocator@U?$_Tree_node@U?$pair@$$CBHPAX@std@@PAX@std@@@std@@@std@@QAEXPAU?$_Tree_node@U?$pair@$$CBHPAX@std@@PAX@2@I@Z ; std::_Wrap_alloc<std::allocator<std::_Tree_node<std::pair<int const ,void *>,void *> > >::deallocate
PUBLIC	?_Getal@?$_Tree_alloc@$0A@U?$_Tree_base_types@U?$pair@$$CBHPAX@std@@V?$allocator@U?$pair@$$CBHPAX@std@@@2@@std@@@std@@QBE?AU?$_Wrap_alloc@V?$allocator@U?$_Tree_node@U?$pair@$$CBHPAX@std@@PAX@std@@@std@@@2@XZ ; std::_Tree_alloc<0,std::_Tree_base_types<std::pair<int const ,void *>,std::allocator<std::pair<int const ,void *> > > >::_Getal
PUBLIC	??0?$_Tree_buy@U?$pair@$$CBHPAX@std@@V?$allocator@U?$pair@$$CBHPAX@std@@@2@@std@@QAE@ABV?$allocator@U?$pair@$$CBHPAX@std@@@1@@Z ; std::_Tree_buy<std::pair<int const ,void *>,std::allocator<std::pair<int const ,void *> > >::_Tree_buy<std::pair<int const ,void *>,std::allocator<std::pair<int const ,void *> > >
PUBLIC	?_Lmost@?$_Tree@V?$_Tmap_traits@HPAXU?$less@H@std@@V?$allocator@U?$pair@$$CBHPAX@std@@@2@$0A@@std@@@std@@IBEAAPAU?$_Tree_node@U?$pair@$$CBHPAX@std@@PAX@2@XZ ; std::_Tree<std::_Tmap_traits<int,void *,std::less<int>,std::allocator<std::pair<int const ,void *> >,0> >::_Lmost
PUBLIC	?clear@?$_Tree@V?$_Tmap_traits@HPAXU?$less@H@std@@V?$allocator@U?$pair@$$CBHPAX@std@@@2@$0A@@std@@@std@@QAEXXZ ; std::_Tree<std::_Tmap_traits<int,void *,std::less<int>,std::allocator<std::pair<int const ,void *> >,0> >::clear
PUBLIC	?erase@?$_Tree@V?$_Tmap_traits@HPAXU?$less@H@std@@V?$allocator@U?$pair@$$CBHPAX@std@@@2@$0A@@std@@@std@@QAE?AV?$_Tree_iterator@V?$_Tree_val@U?$_Tree_simple_types@U?$pair@$$CBHPAX@std@@@std@@@std@@@2@V?$_Tree_const_iterator@V?$_Tree_val@U?$_Tree_simple_types@U?$pair@$$CBHPAX@std@@@std@@@std@@@2@@Z ; std::_Tree<std::_Tmap_traits<int,void *,std::less<int>,std::allocator<std::pair<int const ,void *> >,0> >::erase
PUBLIC	?_Freeheadnode@?$_Tree_alloc@$0A@U?$_Tree_base_types@U?$pair@$$CBHPAX@std@@V?$allocator@U?$pair@$$CBHPAX@std@@@2@@std@@@std@@QAEXPAU?$_Tree_node@U?$pair@$$CBHPAX@std@@PAX@2@@Z ; std::_Tree_alloc<0,std::_Tree_base_types<std::pair<int const ,void *>,std::allocator<std::pair<int const ,void *> > > >::_Freeheadnode
PUBLIC	??0?$_Tree_comp@$0A@V?$_Tmap_traits@HPAXU?$less@H@std@@V?$allocator@U?$pair@$$CBHPAX@std@@@2@$0A@@std@@@std@@QAE@ABU?$less@H@1@ABV?$allocator@U?$pair@$$CBHPAX@std@@@1@@Z ; std::_Tree_comp<0,std::_Tmap_traits<int,void *,std::less<int>,std::allocator<std::pair<int const ,void *> >,0> >::_Tree_comp<0,std::_Tmap_traits<int,void *,std::less<int>,std::allocator<std::pair<int const ,void *> >,0> >
PUBLIC	?erase@?$_Tree@V?$_Tmap_traits@HPAXU?$less@H@std@@V?$allocator@U?$pair@$$CBHPAX@std@@@2@$0A@@std@@@std@@QAE?AV?$_Tree_iterator@V?$_Tree_val@U?$_Tree_simple_types@U?$pair@$$CBHPAX@std@@@std@@@std@@@2@V?$_Tree_const_iterator@V?$_Tree_val@U?$_Tree_simple_types@U?$pair@$$CBHPAX@std@@@std@@@std@@@2@0@Z ; std::_Tree<std::_Tmap_traits<int,void *,std::less<int>,std::allocator<std::pair<int const ,void *> >,0> >::erase
PUBLIC	?end@?$_Tree@V?$_Tmap_traits@HPAXU?$less@H@std@@V?$allocator@U?$pair@$$CBHPAX@std@@@2@$0A@@std@@@std@@QAE?AV?$_Tree_iterator@V?$_Tree_val@U?$_Tree_simple_types@U?$pair@$$CBHPAX@std@@@std@@@std@@@2@XZ ; std::_Tree<std::_Tmap_traits<int,void *,std::less<int>,std::allocator<std::pair<int const ,void *> >,0> >::end
PUBLIC	?begin@?$_Tree@V?$_Tmap_traits@HPAXU?$less@H@std@@V?$allocator@U?$pair@$$CBHPAX@std@@@2@$0A@@std@@@std@@QAE?AV?$_Tree_iterator@V?$_Tree_val@U?$_Tree_simple_types@U?$pair@$$CBHPAX@std@@@std@@@std@@@2@XZ ; std::_Tree<std::_Tmap_traits<int,void *,std::less<int>,std::allocator<std::pair<int const ,void *> >,0> >::begin
PUBLIC	??1?$_Tree_alloc@$0A@U?$_Tree_base_types@U?$pair@$$CBHPAX@std@@V?$allocator@U?$pair@$$CBHPAX@std@@@2@@std@@@std@@QAE@XZ ; std::_Tree_alloc<0,std::_Tree_base_types<std::pair<int const ,void *>,std::allocator<std::pair<int const ,void *> > > >::~_Tree_alloc<0,std::_Tree_base_types<std::pair<int const ,void *>,std::allocator<std::pair<int const ,void *> > > >
PUBLIC	??0?$allocator@U?$pair@$$CBHPAX@std@@@std@@QAE@XZ ; std::allocator<std::pair<int const ,void *> >::allocator<std::pair<int const ,void *> >
PUBLIC	?_Tidy@?$_Tree@V?$_Tmap_traits@HPAXU?$less@H@std@@V?$allocator@U?$pair@$$CBHPAX@std@@@2@$0A@@std@@@std@@IAEXXZ ; std::_Tree<std::_Tmap_traits<int,void *,std::less<int>,std::allocator<std::pair<int const ,void *> >,0> >::_Tidy
PUBLIC	??0?$_Tree@V?$_Tmap_traits@HPAXU?$less@H@std@@V?$allocator@U?$pair@$$CBHPAX@std@@@2@$0A@@std@@@std@@QAE@ABU?$less@H@1@ABV?$allocator@U?$pair@$$CBHPAX@std@@@1@@Z ; std::_Tree<std::_Tmap_traits<int,void *,std::less<int>,std::allocator<std::pair<int const ,void *> >,0> >::_Tree<std::_Tmap_traits<int,void *,std::less<int>,std::allocator<std::pair<int const ,void *> >,0> >
PUBLIC	??1?$_Tree_buy@U?$pair@$$CBHPAX@std@@V?$allocator@U?$pair@$$CBHPAX@std@@@2@@std@@QAE@XZ ; std::_Tree_buy<std::pair<int const ,void *>,std::allocator<std::pair<int const ,void *> > >::~_Tree_buy<std::pair<int const ,void *>,std::allocator<std::pair<int const ,void *> > >
PUBLIC	??1?$_Tree_comp@$0A@V?$_Tmap_traits@HPAXU?$less@H@std@@V?$allocator@U?$pair@$$CBHPAX@std@@@2@$0A@@std@@@std@@QAE@XZ ; std::_Tree_comp<0,std::_Tmap_traits<int,void *,std::less<int>,std::allocator<std::pair<int const ,void *> >,0> >::~_Tree_comp<0,std::_Tmap_traits<int,void *,std::less<int>,std::allocator<std::pair<int const ,void *> >,0> >
PUBLIC	??_G?$CSingleton@VCMovieMan@@@@UAEPAXI@Z	; CSingleton<CMovieMan>::`scalar deleting destructor'
PUBLIC	??_G?$TAbstractSingleton@VIAbstractApplication@@@@UAEPAXI@Z ; TAbstractSingleton<IAbstractApplication>::`scalar deleting destructor'
PUBLIC	??1?$_Tree@V?$_Tmap_traits@HPAXU?$less@H@std@@V?$allocator@U?$pair@$$CBHPAX@std@@@2@$0A@@std@@@std@@QAE@XZ ; std::_Tree<std::_Tmap_traits<int,void *,std::less<int>,std::allocator<std::pair<int const ,void *> >,0> >::~_Tree<std::_Tmap_traits<int,void *,std::less<int>,std::allocator<std::pair<int const ,void *> >,0> >
PUBLIC	??0?$map@HPAXU?$less@H@std@@V?$allocator@U?$pair@$$CBHPAX@std@@@2@@std@@QAE@XZ ; std::map<int,void *,std::less<int>,std::allocator<std::pair<int const ,void *> > >::map<int,void *,std::less<int>,std::allocator<std::pair<int const ,void *> > >
PUBLIC	??1?$CSingleton@VCMovieMan@@@@UAE@XZ		; CSingleton<CMovieMan>::~CSingleton<CMovieMan>
PUBLIC	??0?$CSingleton@VCMovieMan@@@@QAE@XZ		; CSingleton<CMovieMan>::CSingleton<CMovieMan>
PUBLIC	??1?$TAbstractSingleton@VIAbstractApplication@@@@UAE@XZ ; TAbstractSingleton<IAbstractApplication>::~TAbstractSingleton<IAbstractApplication>
PUBLIC	??0?$TAbstractSingleton@VIAbstractApplication@@@@QAE@XZ ; TAbstractSingleton<IAbstractApplication>::TAbstractSingleton<IAbstractApplication>
PUBLIC	?Instance@?$CSingleton@VCPythonIME@@@@SAAAVCPythonIME@@XZ ; CSingleton<CPythonIME>::Instance
PUBLIC	?Instance@?$CSingleton@VCPythonSkill@@@@SAAAVCPythonSkill@@XZ ; CSingleton<CPythonSkill>::Instance
PUBLIC	?Instance@?$CSingleton@VCWindowManager@UI@@@@SAAAVCWindowManager@UI@@XZ ; CSingleton<UI::CWindowManager>::Instance
PUBLIC	?Instance@?$CSingleton@VCTimer@@@@SAAAVCTimer@@XZ ; CSingleton<CTimer>::Instance
PUBLIC	?Destroy@CPythonApplication@@QAEXXZ		; CPythonApplication::Destroy
PUBLIC	?Clear@CPythonApplication@@QAEXXZ		; CPythonApplication::Clear
PUBLIC	?SetForceSightRange@CPythonApplication@@QAEXH@Z	; CPythonApplication::SetForceSightRange
PUBLIC	?SetCameraSpeed@CPythonApplication@@QAEXH@Z	; CPythonApplication::SetCameraSpeed
PUBLIC	?EnableSpecialCameraMode@CPythonApplication@@QAEXXZ ; CPythonApplication::EnableSpecialCameraMode
PUBLIC	?GetConnectData@CPythonApplication@@QAEXAAV?$basic_string@DU?$char_traits@D@std@@V?$allocator@D@2@@std@@AAH@Z ; CPythonApplication::GetConnectData
PUBLIC	?SetConnectData@CPythonApplication@@QAEXPBDH@Z	; CPythonApplication::SetConnectData
PUBLIC	?SetFPS@CPythonApplication@@QAEXH@Z		; CPythonApplication::SetFPS
PUBLIC	?GetGlobalElapsedTime@CPythonApplication@@UAEMXZ ; CPythonApplication::GetGlobalElapsedTime
PUBLIC	?GetGlobalTime@CPythonApplication@@UAEMXZ	; CPythonApplication::GetGlobalTime
PUBLIC	?GetServerTimeStamp@CPythonApplication@@QAEJXZ	; CPythonApplication::GetServerTimeStamp
PUBLIC	?GetServerTime@CPythonApplication@@QAEJXZ	; CPythonApplication::GetServerTime
PUBLIC	?SetServerTime@CPythonApplication@@UAEXJ@Z	; CPythonApplication::SetServerTime
PUBLIC	?GetCenterPosition@CPythonApplication@@QAEXPAUD3DXVECTOR3@@@Z ; CPythonApplication::GetCenterPosition
PUBLIC	?SetCenterPosition@CPythonApplication@@UAEXMMM@Z ; CPythonApplication::SetCenterPosition
PUBLIC	?SetGlobalCenterPosition@CPythonApplication@@QAEXJJ@Z ; CPythonApplication::SetGlobalCenterPosition
PUBLIC	?Create@CPythonApplication@@QAE_NPAU_object@@PBDHHH@Z ; CPythonApplication::Create
PUBLIC	?__GetWindowMode@@YAI_N@Z			; __GetWindowMode
PUBLIC	?LoadLocaleData@@YA_NPBD@Z			; LoadLocaleData
PUBLIC	?Loop@CPythonApplication@@QAEXXZ		; CPythonApplication::Loop
PUBLIC	?CreateDevice@CPythonApplication@@QAE_NHHHHH@Z	; CPythonApplication::CreateDevice
PUBLIC	?SetMouseHandler@CPythonApplication@@QAEXPAU_object@@@Z ; CPythonApplication::SetMouseHandler
PUBLIC	?Process@CPythonApplication@@QAE_NXZ		; CPythonApplication::Process
PUBLIC	?SkipRenderBuffering@CPythonApplication@@UAEXK@Z ; CPythonApplication::SkipRenderBuffering
PUBLIC	?UpdateGame@CPythonApplication@@QAEXXZ		; CPythonApplication::UpdateGame
PUBLIC	?RenderGame@CPythonApplication@@QAEXXZ		; CPythonApplication::RenderGame
PUBLIC	?Exit@CPythonApplication@@QAEXXZ		; CPythonApplication::Exit
PUBLIC	?Abort@CPythonApplication@@QAEXXZ		; CPythonApplication::Abort
PUBLIC	?GetInfo@CPythonApplication@@QAEXIPAV?$basic_string@DU?$char_traits@D@std@@V?$allocator@D@2@@std@@@Z ; CPythonApplication::GetInfo
PUBLIC	?SetFrameSkip@CPythonApplication@@QAEX_N@Z	; CPythonApplication::SetFrameSkip
PUBLIC	?SetMinFog@CPythonApplication@@QAEXM@Z		; CPythonApplication::SetMinFog
PUBLIC	?GetMousePosition@CPythonApplication@@UAEXPAUtagPOINT@@@Z ; CPythonApplication::GetMousePosition
PUBLIC	??1CPythonApplication@@UAE@XZ			; CPythonApplication::~CPythonApplication
PUBLIC	??1?$map@HPAXU?$less@H@std@@V?$allocator@U?$pair@$$CBHPAX@std@@@2@@std@@QAE@XZ ; std::map<int,void *,std::less<int>,std::allocator<std::pair<int const ,void *> > >::~map<int,void *,std::less<int>,std::allocator<std::pair<int const ,void *> > >
PUBLIC	??_GCPythonApplication@@UAEPAXI@Z		; CPythonApplication::`scalar deleting destructor'
PUBLIC	??0CPythonApplication@@QAE@XZ			; CPythonApplication::CPythonApplication
PUBLIC	??0SCameraSpeed@CPythonApplication@@QAE@XZ	; CPythonApplication::SCameraSpeed::SCameraSpeed
PUBLIC	??_GCMovieMan@@UAEPAXI@Z			; CMovieMan::`scalar deleting destructor'
PUBLIC	??1CMovieMan@@UAE@XZ				; CMovieMan::~CMovieMan
PUBLIC	??0CMovieMan@@QAE@XZ				; CMovieMan::CMovieMan
PUBLIC	??_GIAbstractApplication@@UAEPAXI@Z		; IAbstractApplication::`scalar deleting destructor'
PUBLIC	??1IAbstractApplication@@UAE@XZ			; IAbstractApplication::~IAbstractApplication
PUBLIC	??0IAbstractApplication@@QAE@XZ			; IAbstractApplication::IAbstractApplication
PUBLIC	??0SCameraSetting@IAbstractApplication@@QAE@XZ	; IAbstractApplication::SCameraSetting::SCameraSetting
PUBLIC	??0SCameraPos@IAbstractApplication@@QAE@XZ	; IAbstractApplication::SCameraPos::SCameraPos
PUBLIC	?SetMapManagerPtr@CFlyingManager@@QAEXPAVCMapManager@@@Z ; CFlyingManager::SetMapManagerPtr
EXTRN	??_EIAbstractApplication@@UAEPAXI@Z:PROC	; IAbstractApplication::`vector deleting destructor'
EXTRN	??_E?$TAbstractSingleton@VIAbstractApplication@@@@UAEPAXI@Z:PROC ; TAbstractSingleton<IAbstractApplication>::`vector deleting destructor'
EXTRN	??_ECMovieMan@@UAEPAXI@Z:PROC			; CMovieMan::`vector deleting destructor'
EXTRN	??_E?$CSingleton@VCMovieMan@@@@UAEPAXI@Z:PROC	; CSingleton<CMovieMan>::`vector deleting destructor'
EXTRN	??_ECPythonApplication@@UAEPAXI@Z:PROC		; CPythonApplication::`vector deleting destructor'
_piecewise_construct DB 01H DUP (?)
_BSS	ENDS
;	COMDAT ?$S1@?L@??RenderGame@CPythonApplication@@QAEXXZ@4IA
_BSS	SEGMENT
?$S1@?L@??RenderGame@CPythonApplication@@QAEXXZ@4IA DD 01H DUP (?) ; `CPythonApplication::RenderGame'::`11'::$S1
_BSS	ENDS
;	COMDAT ?fp@?L@??RenderGame@CPythonApplication@@QAEXXZ@4PAU_iobuf@@A
_BSS	SEGMENT
?fp@?L@??RenderGame@CPythonApplication@@QAEXXZ@4PAU_iobuf@@A DD 01H DUP (?) ; `CPythonApplication::RenderGame'::`11'::fp
_BSS	ENDS
;	COMDAT ?$S2@?8??UpdateGame@CPythonApplication@@QAEXXZ@4IA
_BSS	SEGMENT
?$S2@?8??UpdateGame@CPythonApplication@@QAEXXZ@4IA DD 01H DUP (?) ; `CPythonApplication::UpdateGame'::`9'::$S2
_BSS	ENDS
;	COMDAT ?fp@?8??UpdateGame@CPythonApplication@@QAEXXZ@4PAU_iobuf@@A
_BSS	SEGMENT
?fp@?8??UpdateGame@CPythonApplication@@QAEXXZ@4PAU_iobuf@@A DD 01H DUP (?) ; `CPythonApplication::UpdateGame'::`9'::fp
_BSS	ENDS
;	COMDAT ?$S3@?1??Process@CPythonApplication@@QAE_NXZ@4IA
_BSS	SEGMENT
?$S3@?1??Process@CPythonApplication@@QAE_NXZ@4IA DD 01H DUP (?) ; `CPythonApplication::Process'::`2'::$S3
_BSS	ENDS
;	COMDAT ?s_dwCheckTime@?1??Process@CPythonApplication@@QAE_NXZ@4KA
_BSS	SEGMENT
?s_dwCheckTime@?1??Process@CPythonApplication@@QAE_NXZ@4KA DD 01H DUP (?) ; `CPythonApplication::Process'::`2'::s_dwCheckTime
_BSS	ENDS
;	COMDAT ?s_uiNextFrameTime@?4??Process@CPythonApplication@@QAE_NXZ@4IA
_BSS	SEGMENT
?s_uiNextFrameTime@?4??Process@CPythonApplication@@QAE_NXZ@4IA DD 01H DUP (?) ; `CPythonApplication::Process'::`5'::s_uiNextFrameTime
_BSS	ENDS
;	COMDAT ?s_dwRenderCheckTime@?CJ@??Process@CPythonApplication@@QAE_NXZ@4KA
_BSS	SEGMENT
?s_dwRenderCheckTime@?CJ@??Process@CPythonApplication@@QAE_NXZ@4KA DD 01H DUP (?) ; `CPythonApplication::Process'::`41'::s_dwRenderCheckTime
_BSS	ENDS
;	COMDAT xdata$x
xdata$x	SEGMENT
__ehfuncinfo$??0CPythonApplication@@QAE@XZ DD 019930522H
	DD	02bH
	DD	FLAT:__unwindtable$??0CPythonApplication@@QAE@XZ
	DD	2 DUP(00H)
	DD	2 DUP(00H)
	DD	00H
	DD	01H
	ORG $+4
__unwindtable$??0CPythonApplication@@QAE@XZ DD 0ffffffffH
	DD	FLAT:__unwindfunclet$??0CPythonApplication@@QAE@XZ$0
	DD	00H
	DD	FLAT:__unwindfunclet$??0CPythonApplication@@QAE@XZ$1
	DD	01H
	DD	FLAT:__unwindfunclet$??0CPythonApplication@@QAE@XZ$2
	DD	02H
	DD	FLAT:__unwindfunclet$??0CPythonApplication@@QAE@XZ$3
	DD	03H
	DD	FLAT:__unwindfunclet$??0CPythonApplication@@QAE@XZ$4
	DD	04H
	DD	FLAT:__unwindfunclet$??0CPythonApplication@@QAE@XZ$5
	DD	05H
	DD	FLAT:__unwindfunclet$??0CPythonApplication@@QAE@XZ$6
	DD	06H
	DD	FLAT:__unwindfunclet$??0CPythonApplication@@QAE@XZ$7
	DD	07H
	DD	FLAT:__unwindfunclet$??0CPythonApplication@@QAE@XZ$8
	DD	08H
	DD	FLAT:__unwindfunclet$??0CPythonApplication@@QAE@XZ$9
	DD	09H
	DD	FLAT:__unwindfunclet$??0CPythonApplication@@QAE@XZ$10
	DD	0aH
	DD	FLAT:__unwindfunclet$??0CPythonApplication@@QAE@XZ$11
	DD	0bH
	DD	FLAT:__unwindfunclet$??0CPythonApplication@@QAE@XZ$12
	DD	0cH
	DD	FLAT:__unwindfunclet$??0CPythonApplication@@QAE@XZ$13
	DD	0dH
	DD	FLAT:__unwindfunclet$??0CPythonApplication@@QAE@XZ$14
	DD	0eH
	DD	FLAT:__unwindfunclet$??0CPythonApplication@@QAE@XZ$15
	DD	0fH
	DD	FLAT:__unwindfunclet$??0CPythonApplication@@QAE@XZ$16
	DD	010H
	DD	FLAT:__unwindfunclet$??0CPythonApplication@@QAE@XZ$17
	DD	011H
	DD	FLAT:__unwindfunclet$??0CPythonApplication@@QAE@XZ$18
	DD	012H
	DD	FLAT:__unwindfunclet$??0CPythonApplication@@QAE@XZ$19
	DD	013H
	DD	FLAT:__unwindfunclet$??0CPythonApplication@@QAE@XZ$20
	DD	014H
	DD	FLAT:__unwindfunclet$??0CPythonApplication@@QAE@XZ$21
	DD	015H
	DD	FLAT:__unwindfunclet$??0CPythonApplication@@QAE@XZ$22
	DD	016H
	DD	FLAT:__unwindfunclet$??0CPythonApplication@@QAE@XZ$23
	DD	017H
	DD	FLAT:__unwindfunclet$??0CPythonApplication@@QAE@XZ$24
	DD	018H
	DD	FLAT:__unwindfunclet$??0CPythonApplication@@QAE@XZ$25
	DD	019H
	DD	FLAT:__unwindfunclet$??0CPythonApplication@@QAE@XZ$26
	DD	01aH
	DD	FLAT:__unwindfunclet$??0CPythonApplication@@QAE@XZ$27
	DD	01bH
	DD	FLAT:__unwindfunclet$??0CPythonApplication@@QAE@XZ$28
	DD	01cH
	DD	FLAT:__unwindfunclet$??0CPythonApplication@@QAE@XZ$29
	DD	01dH
	DD	FLAT:__unwindfunclet$??0CPythonApplication@@QAE@XZ$30
	DD	01eH
	DD	FLAT:__unwindfunclet$??0CPythonApplication@@QAE@XZ$31
	DD	01fH
	DD	FLAT:__unwindfunclet$??0CPythonApplication@@QAE@XZ$32
	DD	020H
	DD	FLAT:__unwindfunclet$??0CPythonApplication@@QAE@XZ$33
	DD	021H
	DD	FLAT:__unwindfunclet$??0CPythonApplication@@QAE@XZ$34
	DD	022H
	DD	FLAT:__unwindfunclet$??0CPythonApplication@@QAE@XZ$35
	DD	023H
	DD	FLAT:__unwindfunclet$??0CPythonApplication@@QAE@XZ$36
	DD	024H
	DD	FLAT:__unwindfunclet$??0CPythonApplication@@QAE@XZ$37
	DD	025H
	DD	FLAT:__unwindfunclet$??0CPythonApplication@@QAE@XZ$38
	DD	026H
	DD	FLAT:__unwindfunclet$??0CPythonApplication@@QAE@XZ$39
	DD	027H
	DD	FLAT:__unwindfunclet$??0CPythonApplication@@QAE@XZ$40
	DD	028H
	DD	FLAT:__unwindfunclet$??0CPythonApplication@@QAE@XZ$41
	DD	029H
	DD	FLAT:__unwindfunclet$??0CPythonApplication@@QAE@XZ$42
xdata$x	ENDS
;	COMDAT xdata$x
xdata$x	SEGMENT
__ehfuncinfo$??1CPythonApplication@@UAE@XZ DD 019930522H
	DD	027H
	DD	FLAT:__unwindtable$??1CPythonApplication@@UAE@XZ
	DD	2 DUP(00H)
	DD	2 DUP(00H)
	DD	00H
	DD	01H
	ORG $+4
__unwindtable$??1CPythonApplication@@UAE@XZ DD 0ffffffffH
	DD	FLAT:__unwindfunclet$??1CPythonApplication@@UAE@XZ$0
	DD	00H
	DD	FLAT:__unwindfunclet$??1CPythonApplication@@UAE@XZ$1
	DD	01H
	DD	FLAT:__unwindfunclet$??1CPythonApplication@@UAE@XZ$2
	DD	02H
	DD	FLAT:__unwindfunclet$??1CPythonApplication@@UAE@XZ$3
	DD	03H
	DD	FLAT:__unwindfunclet$??1CPythonApplication@@UAE@XZ$4
	DD	04H
	DD	FLAT:__unwindfunclet$??1CPythonApplication@@UAE@XZ$5
	DD	05H
	DD	FLAT:__unwindfunclet$??1CPythonApplication@@UAE@XZ$6
	DD	06H
	DD	FLAT:__unwindfunclet$??1CPythonApplication@@UAE@XZ$7
	DD	07H
	DD	FLAT:__unwindfunclet$??1CPythonApplication@@UAE@XZ$8
	DD	08H
	DD	FLAT:__unwindfunclet$??1CPythonApplication@@UAE@XZ$9
	DD	09H
	DD	FLAT:__unwindfunclet$??1CPythonApplication@@UAE@XZ$10
	DD	0aH
	DD	FLAT:__unwindfunclet$??1CPythonApplication@@UAE@XZ$11
	DD	0bH
	DD	FLAT:__unwindfunclet$??1CPythonApplication@@UAE@XZ$12
	DD	0cH
	DD	FLAT:__unwindfunclet$??1CPythonApplication@@UAE@XZ$13
	DD	0dH
	DD	FLAT:__unwindfunclet$??1CPythonApplication@@UAE@XZ$14
	DD	0eH
	DD	FLAT:__unwindfunclet$??1CPythonApplication@@UAE@XZ$15
	DD	0fH
	DD	FLAT:__unwindfunclet$??1CPythonApplication@@UAE@XZ$16
	DD	010H
	DD	FLAT:__unwindfunclet$??1CPythonApplication@@UAE@XZ$17
	DD	011H
	DD	FLAT:__unwindfunclet$??1CPythonApplication@@UAE@XZ$18
	DD	012H
	DD	FLAT:__unwindfunclet$??1CPythonApplication@@UAE@XZ$19
	DD	013H
	DD	FLAT:__unwindfunclet$??1CPythonApplication@@UAE@XZ$20
	DD	014H
	DD	FLAT:__unwindfunclet$??1CPythonApplication@@UAE@XZ$21
	DD	015H
	DD	FLAT:__unwindfunclet$??1CPythonApplication@@UAE@XZ$22
	DD	016H
	DD	FLAT:__unwindfunclet$??1CPythonApplication@@UAE@XZ$23
	DD	017H
	DD	FLAT:__unwindfunclet$??1CPythonApplication@@UAE@XZ$24
	DD	018H
	DD	FLAT:__unwindfunclet$??1CPythonApplication@@UAE@XZ$25
	DD	019H
	DD	FLAT:__unwindfunclet$??1CPythonApplication@@UAE@XZ$26
	DD	01aH
	DD	FLAT:__unwindfunclet$??1CPythonApplication@@UAE@XZ$27
	DD	01bH
	DD	FLAT:__unwindfunclet$??1CPythonApplication@@UAE@XZ$28
	DD	01cH
	DD	FLAT:__unwindfunclet$??1CPythonApplication@@UAE@XZ$29
	DD	01dH
	DD	FLAT:__unwindfunclet$??1CPythonApplication@@UAE@XZ$30
	DD	01eH
	DD	FLAT:__unwindfunclet$??1CPythonApplication@@UAE@XZ$31
	DD	01fH
	DD	FLAT:__unwindfunclet$??1CPythonApplication@@UAE@XZ$32
	DD	020H
	DD	FLAT:__unwindfunclet$??1CPythonApplication@@UAE@XZ$33
	DD	021H
	DD	FLAT:__unwindfunclet$??1CPythonApplication@@UAE@XZ$34
	DD	022H
	DD	FLAT:__unwindfunclet$??1CPythonApplication@@UAE@XZ$35
	DD	023H
	DD	FLAT:__unwindfunclet$??1CPythonApplication@@UAE@XZ$36
	DD	024H
	DD	FLAT:__unwindfunclet$??1CPythonApplication@@UAE@XZ$37
	DD	025H
	DD	FLAT:__unwindfunclet$??1CPythonApplication@@UAE@XZ$38
xdata$x	ENDS
;	COMDAT xdata$x
xdata$x	SEGMENT
__ehfuncinfo$?UpdateGame@CPythonApplication@@QAEXXZ DD 019930522H
	DD	01H
	DD	FLAT:__unwindtable$?UpdateGame@CPythonApplication@@QAEXXZ
	DD	2 DUP(00H)
	DD	2 DUP(00H)
	DD	00H
	DD	01H
__unwindtable$?UpdateGame@CPythonApplication@@QAEXXZ DD 0ffffffffH
	DD	FLAT:__unwindfunclet$?UpdateGame@CPythonApplication@@QAEXXZ$0
xdata$x	ENDS
;	COMDAT xdata$x
xdata$x	SEGMENT
__ehfuncinfo$?Process@CPythonApplication@@QAE_NXZ DD 019930522H
	DD	02H
	DD	FLAT:__unwindtable$?Process@CPythonApplication@@QAE_NXZ
	DD	2 DUP(00H)
	DD	2 DUP(00H)
	DD	00H
	DD	01H
__unwindtable$?Process@CPythonApplication@@QAE_NXZ DD 0ffffffffH
	DD	FLAT:__unwindfunclet$?Process@CPythonApplication@@QAE_NXZ$0
	DD	0ffffffffH
	DD	FLAT:__unwindfunclet$?Process@CPythonApplication@@QAE_NXZ$1
; Function compile flags: /Ogtp
; File d:\metin2\metin2\client_source_clean\client_source_clean\source\gamelib\flyingobjectmanager.h
;	COMDAT ?SetMapManagerPtr@CFlyingManager@@QAEXPAVCMapManager@@@Z
_TEXT	SEGMENT
_pMapManager$ = 8					; size = 4
?SetMapManagerPtr@CFlyingManager@@QAEXPAVCMapManager@@@Z PROC ; CFlyingManager::SetMapManagerPtr, COMDAT
; _this$ = ecx

; 38   : 	void SetMapManagerPtr(CMapManager * pMapManager) { m_pMapManager = pMapManager; }

  00000	55		 push	 ebp
  00001	8b ec		 mov	 ebp, esp
  00003	8b 45 08	 mov	 eax, DWORD PTR _pMapManager$[ebp]
  00006	89 41 1c	 mov	 DWORD PTR [ecx+28], eax
  00009	5d		 pop	 ebp
  0000a	c2 04 00	 ret	 4
?SetMapManagerPtr@CFlyingManager@@QAEXPAVCMapManager@@@Z ENDP ; CFlyingManager::SetMapManagerPtr
_TEXT	ENDS
; Function compile flags: /Ogtp
; File d:\metin2\metin2\client_source_clean\client_source_clean\source\userinterface\abstractapplication.h
;	COMDAT ??0SCameraPos@IAbstractApplication@@QAE@XZ
_TEXT	SEGMENT
??0SCameraPos@IAbstractApplication@@QAE@XZ PROC		; IAbstractApplication::SCameraPos::SCameraPos, COMDAT
; _this$ = ecx

; 14   : 			SCameraPos() : m_fUpDir(0.0f), m_fViewDir(0.0f), m_fCrossDir(0.0f) {}

  00000	c7 01 00 00 00
	00		 mov	 DWORD PTR [ecx], 0
  00006	8b c1		 mov	 eax, ecx
  00008	c7 41 04 00 00
	00 00		 mov	 DWORD PTR [ecx+4], 0
  0000f	c7 41 08 00 00
	00 00		 mov	 DWORD PTR [ecx+8], 0
  00016	c3		 ret	 0
??0SCameraPos@IAbstractApplication@@QAE@XZ ENDP		; IAbstractApplication::SCameraPos::SCameraPos
_TEXT	ENDS
; Function compile flags: /Ogtp
; File d:\metin2\metin2\client_source_clean\client_source_clean\source\userinterface\abstractapplication.h
; File d:\metin2\metin2\client_source_clean\client_source_clean\extern\include\d3dx8math.inl
; File d:\metin2\metin2\client_source_clean\client_source_clean\source\userinterface\abstractapplication.h
; File d:\metin2\metin2\client_source_clean\client_source_clean\extern\include\d3dx8math.inl
; File d:\metin2\metin2\client_source_clean\client_source_clean\source\userinterface\abstractapplication.h
;	COMDAT ??0SCameraSetting@IAbstractApplication@@QAE@XZ
_TEXT	SEGMENT
??0SCameraSetting@IAbstractApplication@@QAE@XZ PROC	; IAbstractApplication::SCameraSetting::SCameraSetting, COMDAT
; _this$ = ecx
; File d:\metin2\metin2\client_source_clean\client_source_clean\extern\include\d3dx8math.inl

; 180  :     x = fx;

  00000	c7 01 00 00 00
	00		 mov	 DWORD PTR [ecx], 0
; File d:\metin2\metin2\client_source_clean\client_source_clean\source\userinterface\abstractapplication.h

; 28   : 								fZoom(0.0f) {}

  00006	8b c1		 mov	 eax, ecx
; File d:\metin2\metin2\client_source_clean\client_source_clean\extern\include\d3dx8math.inl

; 181  :     y = fy;

  00008	c7 41 04 00 00
	00 00		 mov	 DWORD PTR [ecx+4], 0

; 182  :     z = fz;

  0000f	c7 41 08 00 00
	00 00		 mov	 DWORD PTR [ecx+8], 0
; File d:\metin2\metin2\client_source_clean\client_source_clean\source\userinterface\abstractapplication.h

; 14   : 			SCameraPos() : m_fUpDir(0.0f), m_fViewDir(0.0f), m_fCrossDir(0.0f) {}

  00016	c7 41 0c 00 00
	00 00		 mov	 DWORD PTR [ecx+12], 0
  0001d	c7 41 10 00 00
	00 00		 mov	 DWORD PTR [ecx+16], 0
  00024	c7 41 14 00 00
	00 00		 mov	 DWORD PTR [ecx+20], 0

; 28   : 								fZoom(0.0f) {}

  0002b	c7 41 18 00 00
	00 00		 mov	 DWORD PTR [ecx+24], 0
  00032	c7 41 1c 00 00
	00 00		 mov	 DWORD PTR [ecx+28], 0
  00039	c7 41 20 00 00
	00 00		 mov	 DWORD PTR [ecx+32], 0
  00040	c3		 ret	 0
??0SCameraSetting@IAbstractApplication@@QAE@XZ ENDP	; IAbstractApplication::SCameraSetting::SCameraSetting
_TEXT	ENDS
; Function compile flags: /Ogtp
; File d:\metin2\metin2\client_source_clean\client_source_clean\source\userinterface\abstractapplication.h
; File d:\metin2\metin2\client_source_clean\client_source_clean\source\userinterface\abstractsingleton.h
; File d:\metin2\metin2\client_source_clean\client_source_clean\source\userinterface\abstractapplication.h
;	COMDAT ??0IAbstractApplication@@QAE@XZ
_TEXT	SEGMENT
??0IAbstractApplication@@QAE@XZ PROC			; IAbstractApplication::IAbstractApplication, COMDAT
; _this$ = ecx
; File d:\metin2\metin2\client_source_clean\client_source_clean\source\userinterface\abstractsingleton.h

; 13   : 		ms_singleton = (T*) ((int) this + offset);

  00000	89 0d 00 00 00
	00		 mov	 DWORD PTR ?ms_singleton@?$TAbstractSingleton@VIAbstractApplication@@@@0PAVIAbstractApplication@@A, ecx ; TAbstractSingleton<IAbstractApplication>::ms_singleton
; File d:\metin2\metin2\client_source_clean\client_source_clean\source\userinterface\abstractapplication.h

; 32   : 		IAbstractApplication() {}

  00006	8b c1		 mov	 eax, ecx
  00008	c7 01 00 00 00
	00		 mov	 DWORD PTR [ecx], OFFSET ??_7IAbstractApplication@@6B@
  0000e	c3		 ret	 0
??0IAbstractApplication@@QAE@XZ ENDP			; IAbstractApplication::IAbstractApplication
_TEXT	ENDS
; Function compile flags: /Ogtp
; File d:\metin2\metin2\client_source_clean\client_source_clean\source\userinterface\abstractapplication.h
; File d:\metin2\metin2\client_source_clean\client_source_clean\source\userinterface\abstractsingleton.h
; File d:\metin2\metin2\client_source_clean\client_source_clean\source\userinterface\abstractapplication.h
;	COMDAT ??1IAbstractApplication@@UAE@XZ
_TEXT	SEGMENT
??1IAbstractApplication@@UAE@XZ PROC			; IAbstractApplication::~IAbstractApplication, COMDAT
; _this$ = ecx
; File d:\metin2\metin2\client_source_clean\client_source_clean\source\userinterface\abstractsingleton.h

; 17   : 	{ 

  00000	c7 01 00 00 00
	00		 mov	 DWORD PTR [ecx], OFFSET ??_7?$TAbstractSingleton@VIAbstractApplication@@@@6B@

; 18   : 		assert(ms_singleton);
; 19   : 		ms_singleton = 0; 

  00006	c7 05 00 00 00
	00 00 00 00 00	 mov	 DWORD PTR ?ms_singleton@?$TAbstractSingleton@VIAbstractApplication@@@@0PAVIAbstractApplication@@A, 0 ; TAbstractSingleton<IAbstractApplication>::ms_singleton
; File d:\metin2\metin2\client_source_clean\client_source_clean\source\userinterface\abstractapplication.h

; 33   : 		virtual ~IAbstractApplication() {}

  00010	c3		 ret	 0
??1IAbstractApplication@@UAE@XZ ENDP			; IAbstractApplication::~IAbstractApplication
_TEXT	ENDS
; Function compile flags: /Ogtp
; File d:\metin2\metin2\client_source_clean\client_source_clean\source\userinterface\abstractsingleton.h
;	COMDAT ??_GIAbstractApplication@@UAEPAXI@Z
_TEXT	SEGMENT
___flags$ = 8						; size = 4
??_GIAbstractApplication@@UAEPAXI@Z PROC		; IAbstractApplication::`scalar deleting destructor', COMDAT
; _this$ = ecx
  00000	55		 push	 ebp
  00001	8b ec		 mov	 ebp, esp
  00003	f6 45 08 01	 test	 BYTE PTR ___flags$[ebp], 1
  00007	56		 push	 esi
  00008	8b f1		 mov	 esi, ecx

; 19   : 		ms_singleton = 0; 

  0000a	c7 05 00 00 00
	00 00 00 00 00	 mov	 DWORD PTR ?ms_singleton@?$TAbstractSingleton@VIAbstractApplication@@@@0PAVIAbstractApplication@@A, 0 ; TAbstractSingleton<IAbstractApplication>::ms_singleton
  00014	c7 06 00 00 00
	00		 mov	 DWORD PTR [esi], OFFSET ??_7?$TAbstractSingleton@VIAbstractApplication@@@@6B@
  0001a	74 09		 je	 SHORT $LN8@scalar
  0001c	56		 push	 esi
  0001d	e8 00 00 00 00	 call	 ??3@YAXPAX@Z		; operator delete
  00022	83 c4 04	 add	 esp, 4
$LN8@scalar:
  00025	8b c6		 mov	 eax, esi
  00027	5e		 pop	 esi
  00028	5d		 pop	 ebp
  00029	c2 04 00	 ret	 4
??_GIAbstractApplication@@UAEPAXI@Z ENDP		; IAbstractApplication::`scalar deleting destructor'
_TEXT	ENDS
; Function compile flags: /Ogtp
; File d:\metin2\metin2\client_source_clean\client_source_clean\source\userinterface\movieman.h
; File d:\metin2\metin2\client_source_clean\client_source_clean\source\eterbase\singleton.h
; File d:\metin2\metin2\client_source_clean\client_source_clean\source\userinterface\movieman.h
;	COMDAT ??0CMovieMan@@QAE@XZ
_TEXT	SEGMENT
??0CMovieMan@@QAE@XZ PROC				; CMovieMan::CMovieMan, COMDAT
; _this$ = ecx

; 31   : 	{

  00000	56		 push	 esi
  00001	8b f1		 mov	 esi, ecx

; 32   : 		CoInitialize(NULL);

  00003	6a 00		 push	 0
; File d:\metin2\metin2\client_source_clean\client_source_clean\source\eterbase\singleton.h

; 15   : 		ms_singleton = (T*) ((int) this + offset);

  00005	89 35 00 00 00
	00		 mov	 DWORD PTR ?ms_singleton@?$CSingleton@VCMovieMan@@@@0PAVCMovieMan@@A, esi ; CSingleton<CMovieMan>::ms_singleton
; File d:\metin2\metin2\client_source_clean\client_source_clean\source\userinterface\movieman.h

; 31   : 	{

  0000b	c7 06 00 00 00
	00		 mov	 DWORD PTR [esi], OFFSET ??_7CMovieMan@@6B@
  00011	c6 46 04 00	 mov	 BYTE PTR [esi+4], 0
  00015	c7 46 08 00 00
	00 00		 mov	 DWORD PTR [esi+8], 0
  0001c	c7 46 0c 00 00
	00 00		 mov	 DWORD PTR [esi+12], 0
  00023	c7 46 20 00 00
	00 00		 mov	 DWORD PTR [esi+32], 0
  0002a	c7 46 24 00 00
	00 00		 mov	 DWORD PTR [esi+36], 0

; 32   : 		CoInitialize(NULL);

  00031	ff 15 00 00 00
	00		 call	 DWORD PTR __imp__CoInitialize@4

; 33   : 	};

  00037	8b c6		 mov	 eax, esi
  00039	5e		 pop	 esi
  0003a	c3		 ret	 0
??0CMovieMan@@QAE@XZ ENDP				; CMovieMan::CMovieMan
_TEXT	ENDS
; Function compile flags: /Ogtp
; File d:\metin2\metin2\client_source_clean\client_source_clean\source\userinterface\movieman.h
; File d:\metin2\metin2\client_source_clean\client_source_clean\source\eterbase\singleton.h
; File d:\metin2\metin2\client_source_clean\client_source_clean\source\userinterface\movieman.h
;	COMDAT ??1CMovieMan@@UAE@XZ
_TEXT	SEGMENT
??1CMovieMan@@UAE@XZ PROC				; CMovieMan::~CMovieMan, COMDAT
; _this$ = ecx

; 36   : 	{

  00000	56		 push	 esi
  00001	8b f1		 mov	 esi, ecx
  00003	c7 06 00 00 00
	00		 mov	 DWORD PTR [esi], OFFSET ??_7CMovieMan@@6B@

; 37   : 		CoUninitialize();

  00009	ff 15 00 00 00
	00		 call	 DWORD PTR __imp__CoUninitialize@0
; File d:\metin2\metin2\client_source_clean\client_source_clean\source\eterbase\singleton.h

; 19   : 	{ 

  0000f	c7 06 00 00 00
	00		 mov	 DWORD PTR [esi], OFFSET ??_7?$CSingleton@VCMovieMan@@@@6B@

; 20   : 		assert(ms_singleton);
; 21   : 		ms_singleton = 0; 

  00015	c7 05 00 00 00
	00 00 00 00 00	 mov	 DWORD PTR ?ms_singleton@?$CSingleton@VCMovieMan@@@@0PAVCMovieMan@@A, 0 ; CSingleton<CMovieMan>::ms_singleton
  0001f	5e		 pop	 esi
; File d:\metin2\metin2\client_source_clean\client_source_clean\source\userinterface\movieman.h

; 38   : 	};

  00020	c3		 ret	 0
??1CMovieMan@@UAE@XZ ENDP				; CMovieMan::~CMovieMan
_TEXT	ENDS
; Function compile flags: /Ogtp
; File d:\metin2\metin2\client_source_clean\client_source_clean\source\userinterface\movieman.h
; File d:\metin2\metin2\client_source_clean\client_source_clean\source\eterbase\singleton.h
;	COMDAT ??_GCMovieMan@@UAEPAXI@Z
_TEXT	SEGMENT
___flags$ = 8						; size = 4
??_GCMovieMan@@UAEPAXI@Z PROC				; CMovieMan::`scalar deleting destructor', COMDAT
; _this$ = ecx
  00000	55		 push	 ebp
  00001	8b ec		 mov	 ebp, esp
  00003	56		 push	 esi
  00004	8b f1		 mov	 esi, ecx
; File d:\metin2\metin2\client_source_clean\client_source_clean\source\userinterface\movieman.h

; 36   : 	{

  00006	c7 06 00 00 00
	00		 mov	 DWORD PTR [esi], OFFSET ??_7CMovieMan@@6B@

; 37   : 		CoUninitialize();

  0000c	ff 15 00 00 00
	00		 call	 DWORD PTR __imp__CoUninitialize@0
  00012	f6 45 08 01	 test	 BYTE PTR ___flags$[ebp], 1
; File d:\metin2\metin2\client_source_clean\client_source_clean\source\eterbase\singleton.h

; 19   : 	{ 

  00016	c7 06 00 00 00
	00		 mov	 DWORD PTR [esi], OFFSET ??_7?$CSingleton@VCMovieMan@@@@6B@

; 20   : 		assert(ms_singleton);
; 21   : 		ms_singleton = 0; 

  0001c	c7 05 00 00 00
	00 00 00 00 00	 mov	 DWORD PTR ?ms_singleton@?$CSingleton@VCMovieMan@@@@0PAVCMovieMan@@A, 0 ; CSingleton<CMovieMan>::ms_singleton
  00026	74 09		 je	 SHORT $LN8@scalar
  00028	56		 push	 esi
  00029	e8 00 00 00 00	 call	 ??3@YAXPAX@Z		; operator delete
  0002e	83 c4 04	 add	 esp, 4
$LN8@scalar:
  00031	8b c6		 mov	 eax, esi
  00033	5e		 pop	 esi
  00034	5d		 pop	 ebp
  00035	c2 04 00	 ret	 4
??_GCMovieMan@@UAEPAXI@Z ENDP				; CMovieMan::`scalar deleting destructor'
_TEXT	ENDS
; Function compile flags: /Ogtp
; File d:\metin2\metin2\client_source_clean\client_source_clean\source\userinterface\pythonapplication.h
;	COMDAT ??0SCameraSpeed@CPythonApplication@@QAE@XZ
_TEXT	SEGMENT
??0SCameraSpeed@CPythonApplication@@QAE@XZ PROC		; CPythonApplication::SCameraSpeed::SCameraSpeed, COMDAT
; _this$ = ecx

; 121  : 			SCameraSpeed() : m_fUpDir(0.0f), m_fViewDir(0.0f), m_fCrossDir(0.0f) {}

  00000	c7 01 00 00 00
	00		 mov	 DWORD PTR [ecx], 0
  00006	8b c1		 mov	 eax, ecx
  00008	c7 41 04 00 00
	00 00		 mov	 DWORD PTR [ecx+4], 0
  0000f	c7 41 08 00 00
	00 00		 mov	 DWORD PTR [ecx+8], 0
  00016	c3		 ret	 0
??0SCameraSpeed@CPythonApplication@@QAE@XZ ENDP		; CPythonApplication::SCameraSpeed::SCameraSpeed
_TEXT	ENDS
; Function compile flags: /Ogtp
; File d:\metin2\metin2\client_source_clean\client_source_clean\source\userinterface\pythonapplication.cpp
; File d:\metin2\metin2\client_source_clean\client_source_clean\source\userinterface\abstractapplication.h
; File d:\metin2\metin2\client_source_clean\client_source_clean\source\userinterface\abstractsingleton.h
; File d:\metin2\metin2\client_source_clean\client_source_clean\source\userinterface\pythonapplication.cpp
; File d:\metin2\metin2\client_source_clean\client_source_clean\source\userinterface\movieman.h
; File d:\metin2\metin2\client_source_clean\client_source_clean\source\eterbase\singleton.h
; File d:\metin2\metin2\client_source_clean\client_source_clean\source\userinterface\movieman.h
; File d:\metin2\metin2\client_source_clean\client_source_clean\source\userinterface\pythonapplication.cpp
; File d:\metin2\metin2\client_source_clean\client_source_clean\extern\include\d3dx8math.inl
; File d:\metin2\metin2\client_source_clean\client_source_clean\source\userinterface\abstractapplication.h
; File d:\metin2\metin2\client_source_clean\client_source_clean\extern\include\d3dx8math.inl
; File d:\metin2\metin2\client_source_clean\client_source_clean\source\userinterface\abstractapplication.h
; File d:\metin2\metin2\client_source_clean\client_source_clean\extern\include\d3dx8math.inl
; File d:\metin2\metin2\client_source_clean\client_source_clean\source\userinterface\abstractapplication.h
; File d:\metin2\metin2\client_source_clean\client_source_clean\source\userinterface\pythonapplication.h
; File d:\metin2\metin2\client_source_clean\client_source_clean\source\userinterface\pythonapplication.cpp
; File c:\program files (x86)\microsoft visual studio 12.0\vc\include\xtree
; File d:\metin2\metin2\client_source_clean\client_source_clean\source\userinterface\pythonapplication.cpp
; File c:\program files (x86)\microsoft visual studio 12.0\vc\include\xstring
; File c:\program files (x86)\microsoft visual studio 12.0\vc\include\iosfwd
; File d:\metin2\metin2\client_source_clean\client_source_clean\source\userinterface\pythonapplication.cpp
; File d:\metin2\metin2\client_source_clean\client_source_clean\extern\include\d3dx8math.inl
; File d:\metin2\metin2\client_source_clean\client_source_clean\source\userinterface\pythonapplication.cpp
; File d:\metin2\metin2\client_source_clean\client_source_clean\source\gamelib\flyingobjectmanager.h
; File d:\metin2\metin2\client_source_clean\client_source_clean\source\userinterface\pythonapplication.cpp
;	COMDAT ??0CPythonApplication@@QAE@XZ
_TEXT	SEGMENT
$T2 = -36						; size = 12
$T3 = -24						; size = 8
_this$ = -16						; size = 4
__$EHRec$ = -12						; size = 12
??0CPythonApplication@@QAE@XZ PROC			; CPythonApplication::CPythonApplication, COMDAT
; _this$ = ecx

; 47   : {

  00000	55		 push	 ebp
  00001	8b ec		 mov	 ebp, esp
  00003	6a ff		 push	 -1
  00005	68 00 00 00 00	 push	 __ehhandler$??0CPythonApplication@@QAE@XZ
  0000a	64 a1 00 00 00
	00		 mov	 eax, DWORD PTR fs:0
  00010	50		 push	 eax
  00011	83 ec 18	 sub	 esp, 24			; 00000018H
  00014	56		 push	 esi
  00015	57		 push	 edi
  00016	a1 00 00 00 00	 mov	 eax, DWORD PTR ___security_cookie
  0001b	33 c5		 xor	 eax, ebp
  0001d	50		 push	 eax
  0001e	8d 45 f4	 lea	 eax, DWORD PTR __$EHRec$[ebp]
  00021	64 a3 00 00 00
	00		 mov	 DWORD PTR fs:0, eax
  00027	8b f9		 mov	 edi, ecx
  00029	89 7d f0	 mov	 DWORD PTR _this$[ebp], edi
  0002c	e8 00 00 00 00	 call	 ??0CMSApplication@@QAE@XZ ; CMSApplication::CMSApplication
  00031	8d 4f 1c	 lea	 ecx, DWORD PTR [edi+28]
  00034	c7 45 fc 00 00
	00 00		 mov	 DWORD PTR __$EHRec$[ebp+8], 0
  0003b	e8 00 00 00 00	 call	 ??0CInputKeyboard@@QAE@XZ ; CInputKeyboard::CInputKeyboard
  00040	8d 47 20	 lea	 eax, DWORD PTR [edi+32]
; File d:\metin2\metin2\client_source_clean\client_source_clean\source\userinterface\abstractapplication.h

; 32   : 		IAbstractApplication() {}

  00043	c7 00 00 00 00
	00		 mov	 DWORD PTR [eax], OFFSET ??_7IAbstractApplication@@6B@
; File d:\metin2\metin2\client_source_clean\client_source_clean\source\userinterface\abstractsingleton.h

; 13   : 		ms_singleton = (T*) ((int) this + offset);

  00049	a3 00 00 00 00	 mov	 DWORD PTR ?ms_singleton@?$TAbstractSingleton@VIAbstractApplication@@@@0PAVIAbstractApplication@@A, eax ; TAbstractSingleton<IAbstractApplication>::ms_singleton
; File d:\metin2\metin2\client_source_clean\client_source_clean\source\userinterface\pythonapplication.cpp

; 47   : {

  0004e	c6 45 fc 02	 mov	 BYTE PTR __$EHRec$[ebp+8], 2
  00052	8d 4f 60	 lea	 ecx, DWORD PTR [edi+96]
  00055	c7 07 00 00 00
	00		 mov	 DWORD PTR [edi], OFFSET ??_7CPythonApplication@@6BCMSApplication@@@
  0005b	c7 47 1c 00 00
	00 00		 mov	 DWORD PTR [edi+28], OFFSET ??_7CPythonApplication@@6BCInputKeyboard@@@
  00062	c7 00 00 00 00
	00		 mov	 DWORD PTR [eax], OFFSET ??_7CPythonApplication@@6BIAbstractApplication@@@
  00068	e8 00 00 00 00	 call	 ??0CTimer@@QAE@XZ	; CTimer::CTimer
  0006d	8d 4f 7c	 lea	 ecx, DWORD PTR [edi+124]
  00070	c6 45 fc 03	 mov	 BYTE PTR __$EHRec$[ebp+8], 3
  00074	e8 00 00 00 00	 call	 ??0CLightManager@@QAE@XZ ; CLightManager::CLightManager
  00079	8d 8f e8 00 00
	00		 lea	 ecx, DWORD PTR [edi+232]
  0007f	c6 45 fc 04	 mov	 BYTE PTR __$EHRec$[ebp+8], 4
  00083	e8 00 00 00 00	 call	 ??0CSoundManager@@QAE@XZ ; CSoundManager::CSoundManager
  00088	8d 8f 5c 01 00
	00		 lea	 ecx, DWORD PTR [edi+348]
  0008e	c6 45 fc 05	 mov	 BYTE PTR __$EHRec$[ebp+8], 5
  00092	e8 00 00 00 00	 call	 ??0CFlyingManager@@QAE@XZ ; CFlyingManager::CFlyingManager
  00097	8d 8f 80 01 00
	00		 lea	 ecx, DWORD PTR [edi+384]
  0009d	c6 45 fc 06	 mov	 BYTE PTR __$EHRec$[ebp+8], 6
  000a1	e8 00 00 00 00	 call	 ??0CRaceManager@@QAE@XZ	; CRaceManager::CRaceManager
  000a6	8d 8f b8 01 00
	00		 lea	 ecx, DWORD PTR [edi+440]
  000ac	c6 45 fc 07	 mov	 BYTE PTR __$EHRec$[ebp+8], 7
  000b0	e8 00 00 00 00	 call	 ??0CGameEventManager@@QAE@XZ ; CGameEventManager::CGameEventManager
  000b5	8d 8f cc 01 00
	00		 lea	 ecx, DWORD PTR [edi+460]
  000bb	c6 45 fc 08	 mov	 BYTE PTR __$EHRec$[ebp+8], 8
  000bf	e8 00 00 00 00	 call	 ??0CItemManager@@QAE@XZ	; CItemManager::CItemManager
  000c4	8d 87 e8 01 00
	00		 lea	 eax, DWORD PTR [edi+488]
; File d:\metin2\metin2\client_source_clean\client_source_clean\source\userinterface\movieman.h

; 31   : 	{

  000ca	c7 00 00 00 00
	00		 mov	 DWORD PTR [eax], OFFSET ??_7CMovieMan@@6B@

; 32   : 		CoInitialize(NULL);

  000d0	6a 00		 push	 0
; File d:\metin2\metin2\client_source_clean\client_source_clean\source\eterbase\singleton.h

; 15   : 		ms_singleton = (T*) ((int) this + offset);

  000d2	a3 00 00 00 00	 mov	 DWORD PTR ?ms_singleton@?$CSingleton@VCMovieMan@@@@0PAVCMovieMan@@A, eax ; CSingleton<CMovieMan>::ms_singleton
; File d:\metin2\metin2\client_source_clean\client_source_clean\source\userinterface\movieman.h

; 31   : 	{

  000d7	c6 40 04 00	 mov	 BYTE PTR [eax+4], 0
  000db	c7 40 08 00 00
	00 00		 mov	 DWORD PTR [eax+8], 0
  000e2	c7 40 0c 00 00
	00 00		 mov	 DWORD PTR [eax+12], 0
  000e9	c7 40 20 00 00
	00 00		 mov	 DWORD PTR [eax+32], 0
  000f0	c7 40 24 00 00
	00 00		 mov	 DWORD PTR [eax+36], 0

; 32   : 		CoInitialize(NULL);

  000f7	ff 15 00 00 00
	00		 call	 DWORD PTR __imp__CoInitialize@4
; File d:\metin2\metin2\client_source_clean\client_source_clean\source\userinterface\pythonapplication.cpp

; 47   : {

  000fd	8d 8f 10 02 00
	00		 lea	 ecx, DWORD PTR [edi+528]
  00103	c6 45 fc 0a	 mov	 BYTE PTR __$EHRec$[ebp+8], 10 ; 0000000aH
  00107	e8 00 00 00 00	 call	 ??0CWindowManager@UI@@QAE@XZ ; UI::CWindowManager::CWindowManager
  0010c	8d 8f b0 02 00
	00		 lea	 ecx, DWORD PTR [edi+688]
  00112	c6 45 fc 0b	 mov	 BYTE PTR __$EHRec$[ebp+8], 11 ; 0000000bH
  00116	e8 00 00 00 00	 call	 ??0CEffectManager@@QAE@XZ ; CEffectManager::CEffectManager
  0011b	8d 8f d8 02 00
	00		 lea	 ecx, DWORD PTR [edi+728]
  00121	c6 45 fc 0c	 mov	 BYTE PTR __$EHRec$[ebp+8], 12 ; 0000000cH
  00125	e8 00 00 00 00	 call	 ??0CPythonCharacterManager@@QAE@XZ ; CPythonCharacterManager::CPythonCharacterManager
  0012a	8d 8f 10 07 00
	00		 lea	 ecx, DWORD PTR [edi+1808]
  00130	c6 45 fc 0d	 mov	 BYTE PTR __$EHRec$[ebp+8], 13 ; 0000000dH
  00134	e8 00 00 00 00	 call	 ??0CServerStateChecker@@QAE@XZ ; CServerStateChecker::CServerStateChecker
  00139	8d 8f 9c 07 00
	00		 lea	 ecx, DWORD PTR [edi+1948]
  0013f	c6 45 fc 0e	 mov	 BYTE PTR __$EHRec$[ebp+8], 14 ; 0000000eH
  00143	e8 00 00 00 00	 call	 ??0CPythonGraphic@@QAE@XZ ; CPythonGraphic::CPythonGraphic
  00148	8d 8f 40 08 00
	00		 lea	 ecx, DWORD PTR [edi+2112]
  0014e	c6 45 fc 0f	 mov	 BYTE PTR __$EHRec$[ebp+8], 15 ; 0000000fH
  00152	e8 00 00 00 00	 call	 ??0CPythonNetworkStream@@QAE@XZ ; CPythonNetworkStream::CPythonNetworkStream
  00157	8d 8f 90 81 00
	00		 lea	 ecx, DWORD PTR [edi+33168]
  0015d	c6 45 fc 10	 mov	 BYTE PTR __$EHRec$[ebp+8], 16 ; 00000010H
  00161	e8 00 00 00 00	 call	 ??0CPythonPlayer@@QAE@XZ ; CPythonPlayer::CPythonPlayer
  00166	c6 45 fc 11	 mov	 BYTE PTR __$EHRec$[ebp+8], 17 ; 00000011H
  0016a	8d 8f dc 8b 01
	00		 lea	 ecx, DWORD PTR [edi+101340]
  00170	e8 00 00 00 00	 call	 ??0CPythonIME@@QAE@XZ	; CPythonIME::CPythonIME
  00175	8d 8f 08 94 01
	00		 lea	 ecx, DWORD PTR [edi+103432]
  0017b	c6 45 fc 12	 mov	 BYTE PTR __$EHRec$[ebp+8], 18 ; 00000012H
  0017f	e8 00 00 00 00	 call	 ??0CPythonItem@@QAE@XZ	; CPythonItem::CPythonItem
  00184	8d 8f 14 95 01
	00		 lea	 ecx, DWORD PTR [edi+103700]
  0018a	c6 45 fc 13	 mov	 BYTE PTR __$EHRec$[ebp+8], 19 ; 00000013H
  0018e	e8 00 00 00 00	 call	 ??0CPythonShop@@QAE@XZ	; CPythonShop::CPythonShop
  00193	8d 8f ac a9 01
	00		 lea	 ecx, DWORD PTR [edi+108972]
  00199	e8 00 00 00 00	 call	 ??0CPythonExchange@@QAE@XZ ; CPythonExchange::CPythonExchange
  0019e	8d 8f 8c ad 01
	00		 lea	 ecx, DWORD PTR [edi+109964]
  001a4	c6 45 fc 15	 mov	 BYTE PTR __$EHRec$[ebp+8], 21 ; 00000015H
  001a8	e8 00 00 00 00	 call	 ??0CPythonChat@@QAE@XZ	; CPythonChat::CPythonChat
  001ad	8d 8f 60 ae 01
	00		 lea	 ecx, DWORD PTR [edi+110176]
  001b3	c6 45 fc 16	 mov	 BYTE PTR __$EHRec$[ebp+8], 22 ; 00000016H
  001b7	e8 00 00 00 00	 call	 ??0CPythonTextTail@@QAE@XZ ; CPythonTextTail::CPythonTextTail
  001bc	8d 8f b0 ae 01
	00		 lea	 ecx, DWORD PTR [edi+110256]
  001c2	c6 45 fc 17	 mov	 BYTE PTR __$EHRec$[ebp+8], 23 ; 00000017H
  001c6	e8 00 00 00 00	 call	 ??0CPythonNonPlayer@@QAE@XZ ; CPythonNonPlayer::CPythonNonPlayer
  001cb	8d 8f bc ae 01
	00		 lea	 ecx, DWORD PTR [edi+110268]
  001d1	c6 45 fc 18	 mov	 BYTE PTR __$EHRec$[ebp+8], 24 ; 00000018H
  001d5	e8 00 00 00 00	 call	 ??0CPythonMiniMap@@QAE@XZ ; CPythonMiniMap::CPythonMiniMap
  001da	8d 8f f4 ba 01
	00		 lea	 ecx, DWORD PTR [edi+113396]
  001e0	c6 45 fc 19	 mov	 BYTE PTR __$EHRec$[ebp+8], 25 ; 00000019H
  001e4	e8 00 00 00 00	 call	 ??0CPythonEventManager@@QAE@XZ ; CPythonEventManager::CPythonEventManager
  001e9	8d b7 74 bb 01
	00		 lea	 esi, DWORD PTR [edi+113524]
  001ef	c6 45 fc 1a	 mov	 BYTE PTR __$EHRec$[ebp+8], 26 ; 0000001aH
  001f3	8b ce		 mov	 ecx, esi
  001f5	e8 00 00 00 00	 call	 ??0CPythonBackground@@QAE@XZ ; CPythonBackground::CPythonBackground
  001fa	8d 8f 7c d1 01
	00		 lea	 ecx, DWORD PTR [edi+119164]
  00200	c6 45 fc 1b	 mov	 BYTE PTR __$EHRec$[ebp+8], 27 ; 0000001bH
  00204	e8 00 00 00 00	 call	 ??0CPythonSkill@@QAE@XZ	; CPythonSkill::CPythonSkill
  00209	8d 8f c8 d1 01
	00		 lea	 ecx, DWORD PTR [edi+119240]
  0020f	c6 45 fc 1c	 mov	 BYTE PTR __$EHRec$[ebp+8], 28 ; 0000001cH
  00213	e8 00 00 00 00	 call	 ??0CPythonResource@@QAE@XZ ; CPythonResource::CPythonResource
  00218	8d 8f 10 d2 01
	00		 lea	 ecx, DWORD PTR [edi+119312]
  0021e	e8 00 00 00 00	 call	 ??0CPythonQuest@@QAE@XZ	; CPythonQuest::CPythonQuest
  00223	8d 8f 20 d2 01
	00		 lea	 ecx, DWORD PTR [edi+119328]
  00229	c6 45 fc 1e	 mov	 BYTE PTR __$EHRec$[ebp+8], 30 ; 0000001eH
  0022d	e8 00 00 00 00	 call	 ??0CPythonMessenger@@QAE@XZ ; CPythonMessenger::CPythonMessenger
  00232	8d 8f 38 d2 01
	00		 lea	 ecx, DWORD PTR [edi+119352]
  00238	e8 00 00 00 00	 call	 ??0CPythonSafeBox@@QAE@XZ ; CPythonSafeBox::CPythonSafeBox
  0023d	8d 8f 58 d2 01
	00		 lea	 ecx, DWORD PTR [edi+119384]
  00243	c6 45 fc 20	 mov	 BYTE PTR __$EHRec$[ebp+8], 32 ; 00000020H
  00247	e8 00 00 00 00	 call	 ??0CPythonGuild@@QAE@XZ	; CPythonGuild::CPythonGuild
  0024c	8d 8f f0 d2 01
	00		 lea	 ecx, DWORD PTR [edi+119536]
  00252	c6 45 fc 21	 mov	 BYTE PTR __$EHRec$[ebp+8], 33 ; 00000021H
  00256	e8 00 00 00 00	 call	 ??0CGuildMarkManager@@QAE@XZ ; CGuildMarkManager::CGuildMarkManager
  0025b	8d 8f 2c d3 01
	00		 lea	 ecx, DWORD PTR [edi+119596]
  00261	c6 45 fc 22	 mov	 BYTE PTR __$EHRec$[ebp+8], 34 ; 00000022H
  00265	e8 00 00 00 00	 call	 ??0CGuildMarkDownloader@@QAE@XZ ; CGuildMarkDownloader::CGuildMarkDownloader
  0026a	8d 8f dc d3 01
	00		 lea	 ecx, DWORD PTR [edi+119772]
  00270	c6 45 fc 23	 mov	 BYTE PTR __$EHRec$[ebp+8], 35 ; 00000023H
  00274	e8 00 00 00 00	 call	 ??0CGuildMarkUploader@@QAE@XZ ; CGuildMarkUploader::CGuildMarkUploader
  00279	8d 8f 7c d7 01
	00		 lea	 ecx, DWORD PTR [edi+120700]
  0027f	c6 45 fc 24	 mov	 BYTE PTR __$EHRec$[ebp+8], 36 ; 00000024H
  00283	e8 00 00 00 00	 call	 ??0CAccountConnector@@QAE@XZ ; CAccountConnector::CAccountConnector
  00288	8d 8f 54 d8 01
	00		 lea	 ecx, DWORD PTR [edi+120916]
  0028e	c6 45 fc 25	 mov	 BYTE PTR __$EHRec$[ebp+8], 37 ; 00000025H
  00292	e8 00 00 00 00	 call	 ??0CGraphicDevice@@QAE@XZ ; CGraphicDevice::CGraphicDevice
  00297	8d 8f 68 d8 01
	00		 lea	 ecx, DWORD PTR [edi+120936]
  0029d	c6 45 fc 26	 mov	 BYTE PTR __$EHRec$[ebp+8], 38 ; 00000026H
  002a1	e8 00 00 00 00	 call	 ??0CNetworkDevice@@QAE@XZ ; CNetworkDevice::CNetworkDevice
  002a6	8d 8f 70 d8 01
	00		 lea	 ecx, DWORD PTR [edi+120944]
  002ac	c6 45 fc 27	 mov	 BYTE PTR __$EHRec$[ebp+8], 39 ; 00000027H
  002b0	e8 00 00 00 00	 call	 ??0CPythonSystem@@QAE@XZ ; CPythonSystem::CPythonSystem
  002b5	c6 45 fc 28	 mov	 BYTE PTR __$EHRec$[ebp+8], 40 ; 00000028H
  002b9	0f 57 c0	 xorps	 xmm0, xmm0
  002bc	c7 87 60 ff 01
	00 00 00 00 00	 mov	 DWORD PTR [edi+130912], 0
  002c6	c7 87 74 ff 01
	00 00 00 00 00	 mov	 DWORD PTR [edi+130932], 0
  002d0	c7 87 8c ff 01
	00 00 00 00 00	 mov	 DWORD PTR [edi+130956], 0
  002da	c7 87 9c ff 01
	00 00 00 00 00	 mov	 DWORD PTR [edi+130972], 0
  002e4	c7 87 a0 ff 01
	00 00 00 00 00	 mov	 DWORD PTR [edi+130976], 0
; File d:\metin2\metin2\client_source_clean\client_source_clean\extern\include\d3dx8math.inl

; 180  :     x = fx;

  002ee	c7 87 a4 ff 01
	00 00 00 00 00	 mov	 DWORD PTR [edi+130980], 0

; 181  :     y = fy;

  002f8	c7 87 a8 ff 01
	00 00 00 00 00	 mov	 DWORD PTR [edi+130984], 0

; 182  :     z = fz;

  00302	c7 87 ac ff 01
	00 00 00 00 00	 mov	 DWORD PTR [edi+130988], 0
; File d:\metin2\metin2\client_source_clean\client_source_clean\source\userinterface\abstractapplication.h

; 14   : 			SCameraPos() : m_fUpDir(0.0f), m_fViewDir(0.0f), m_fCrossDir(0.0f) {}

  0030c	c7 87 b0 ff 01
	00 00 00 00 00	 mov	 DWORD PTR [edi+130992], 0
  00316	c7 87 b4 ff 01
	00 00 00 00 00	 mov	 DWORD PTR [edi+130996], 0
  00320	c7 87 b8 ff 01
	00 00 00 00 00	 mov	 DWORD PTR [edi+131000], 0

; 15   : 		};
; 16   : 
; 17   : 		struct SCameraSetting
; 18   : 		{
; 19   : 			D3DXVECTOR3				v3CenterPosition;
; 20   : 			SCameraPos				kCmrPos;
; 21   : 			float					fRotation;
; 22   : 			float					fPitch;
; 23   : 			float					fZoom;
; 24   : 
; 25   : 			SCameraSetting() :	v3CenterPosition(0.0f, 0.0f, 0.0f),
; 26   : 								fRotation(0.0f),
; 27   : 								fPitch(0.0f),
; 28   : 								fZoom(0.0f) {}

  0032a	c7 87 bc ff 01
	00 00 00 00 00	 mov	 DWORD PTR [edi+131004], 0
  00334	c7 87 c0 ff 01
	00 00 00 00 00	 mov	 DWORD PTR [edi+131008], 0
  0033e	c7 87 c4 ff 01
	00 00 00 00 00	 mov	 DWORD PTR [edi+131012], 0
; File d:\metin2\metin2\client_source_clean\client_source_clean\extern\include\d3dx8math.inl

; 180  :     x = fx;

  00348	c7 87 c8 ff 01
	00 00 00 00 00	 mov	 DWORD PTR [edi+131016], 0

; 181  :     y = fy;

  00352	c7 87 cc ff 01
	00 00 00 00 00	 mov	 DWORD PTR [edi+131020], 0

; 182  :     z = fz;

  0035c	c7 87 d0 ff 01
	00 00 00 00 00	 mov	 DWORD PTR [edi+131024], 0
; File d:\metin2\metin2\client_source_clean\client_source_clean\source\userinterface\abstractapplication.h

; 14   : 			SCameraPos() : m_fUpDir(0.0f), m_fViewDir(0.0f), m_fCrossDir(0.0f) {}

  00366	c7 87 d4 ff 01
	00 00 00 00 00	 mov	 DWORD PTR [edi+131028], 0
  00370	c7 87 d8 ff 01
	00 00 00 00 00	 mov	 DWORD PTR [edi+131032], 0
  0037a	c7 87 dc ff 01
	00 00 00 00 00	 mov	 DWORD PTR [edi+131036], 0

; 15   : 		};
; 16   : 
; 17   : 		struct SCameraSetting
; 18   : 		{
; 19   : 			D3DXVECTOR3				v3CenterPosition;
; 20   : 			SCameraPos				kCmrPos;
; 21   : 			float					fRotation;
; 22   : 			float					fPitch;
; 23   : 			float					fZoom;
; 24   : 
; 25   : 			SCameraSetting() :	v3CenterPosition(0.0f, 0.0f, 0.0f),
; 26   : 								fRotation(0.0f),
; 27   : 								fPitch(0.0f),
; 28   : 								fZoom(0.0f) {}

  00384	c7 87 e0 ff 01
	00 00 00 00 00	 mov	 DWORD PTR [edi+131040], 0
  0038e	c7 87 e4 ff 01
	00 00 00 00 00	 mov	 DWORD PTR [edi+131044], 0
  00398	c7 87 e8 ff 01
	00 00 00 00 00	 mov	 DWORD PTR [edi+131048], 0
; File d:\metin2\metin2\client_source_clean\client_source_clean\extern\include\d3dx8math.inl

; 180  :     x = fx;

  003a2	c7 87 f8 ff 01
	00 00 00 00 00	 mov	 DWORD PTR [edi+131064], 0

; 181  :     y = fy;

  003ac	c7 87 fc ff 01
	00 00 00 00 00	 mov	 DWORD PTR [edi+131068], 0

; 182  :     z = fz;

  003b6	c7 87 00 00 02
	00 00 00 00 00	 mov	 DWORD PTR [edi+131072], 0
; File d:\metin2\metin2\client_source_clean\client_source_clean\source\userinterface\abstractapplication.h

; 14   : 			SCameraPos() : m_fUpDir(0.0f), m_fViewDir(0.0f), m_fCrossDir(0.0f) {}

  003c0	c7 87 04 00 02
	00 00 00 00 00	 mov	 DWORD PTR [edi+131076], 0
  003ca	c7 87 08 00 02
	00 00 00 00 00	 mov	 DWORD PTR [edi+131080], 0
  003d4	c7 87 0c 00 02
	00 00 00 00 00	 mov	 DWORD PTR [edi+131084], 0

; 15   : 		};
; 16   : 
; 17   : 		struct SCameraSetting
; 18   : 		{
; 19   : 			D3DXVECTOR3				v3CenterPosition;
; 20   : 			SCameraPos				kCmrPos;
; 21   : 			float					fRotation;
; 22   : 			float					fPitch;
; 23   : 			float					fZoom;
; 24   : 
; 25   : 			SCameraSetting() :	v3CenterPosition(0.0f, 0.0f, 0.0f),
; 26   : 								fRotation(0.0f),
; 27   : 								fPitch(0.0f),
; 28   : 								fZoom(0.0f) {}

  003de	c7 87 10 00 02
	00 00 00 00 00	 mov	 DWORD PTR [edi+131088], 0
  003e8	c7 87 14 00 02
	00 00 00 00 00	 mov	 DWORD PTR [edi+131092], 0
  003f2	c7 87 18 00 02
	00 00 00 00 00	 mov	 DWORD PTR [edi+131096], 0

; 14   : 			SCameraPos() : m_fUpDir(0.0f), m_fViewDir(0.0f), m_fCrossDir(0.0f) {}

  003fc	c7 87 34 00 02
	00 00 00 00 00	 mov	 DWORD PTR [edi+131124], 0
  00406	c7 87 38 00 02
	00 00 00 00 00	 mov	 DWORD PTR [edi+131128], 0
  00410	c7 87 3c 00 02
	00 00 00 00 00	 mov	 DWORD PTR [edi+131132], 0
; File d:\metin2\metin2\client_source_clean\client_source_clean\source\userinterface\pythonapplication.h

; 121  : 			SCameraSpeed() : m_fUpDir(0.0f), m_fViewDir(0.0f), m_fCrossDir(0.0f) {}

  0041a	c7 87 40 00 02
	00 00 00 00 00	 mov	 DWORD PTR [edi+131136], 0
  00424	c7 87 44 00 02
	00 00 00 00 00	 mov	 DWORD PTR [edi+131140], 0
  0042e	c7 87 48 00 02
	00 00 00 00 00	 mov	 DWORD PTR [edi+131144], 0
; File d:\metin2\metin2\client_source_clean\client_source_clean\source\userinterface\pythonapplication.cpp

; 47   : {

  00438	c7 87 64 00 02
	00 00 00 00 00	 mov	 DWORD PTR [edi+131172], 0
  00442	c7 87 68 00 02
	00 00 00 00 00	 mov	 DWORD PTR [edi+131176], 0
  0044c	c7 87 6c 00 02
	00 00 00 00 00	 mov	 DWORD PTR [edi+131180], 0
  00456	c7 87 70 00 02
	00 00 00 00 00	 mov	 DWORD PTR [edi+131184], 0
  00460	66 0f d6 45 e8	 movq	 QWORD PTR $T3[ebp], xmm0
; File c:\program files (x86)\microsoft visual studio 12.0\vc\include\xtree

; 569  : 		this->_Myhead = 0;

  00465	c7 87 78 00 02
	00 00 00 00 00	 mov	 DWORD PTR [edi+131192], 0

; 570  : 		this->_Mysize = 0;

  0046f	c7 87 7c 00 02
	00 00 00 00 00	 mov	 DWORD PTR [edi+131196], 0

; 571  : 		}
; 572  : 
; 573  : 	enum _Redbl
; 574  : 		{	// colors for link to parent
; 575  : 		_Red, _Black};
; 576  : 
; 577  : 	static char& _Color(_Nodeptr _Pnode)
; 578  : 		{	// return reference to color in node
; 579  : 		return ((char&)_Pnode->_Color);
; 580  : 		}
; 581  : 
; 582  : 	static char& _Isnil(_Nodeptr _Pnode)
; 583  : 		{	// return reference to nil flag in node
; 584  : 		return ((char&)_Pnode->_Isnil);
; 585  : 		}
; 586  : 
; 587  : 	static _Nodepref _Left(_Nodeptr _Pnode)
; 588  : 		{	// return reference to left pointer in node
; 589  : 		return ((_Nodepref)_Pnode->_Left);
; 590  : 		}
; 591  : 
; 592  : 	static _Nodepref _Parent(_Nodeptr _Pnode)
; 593  : 		{	// return reference to parent pointer in node
; 594  : 		return ((_Nodepref)_Pnode->_Parent);
; 595  : 		}
; 596  : 
; 597  : 	static _Nodepref _Right(_Nodeptr _Pnode)
; 598  : 		{	// return reference to right pointer in node
; 599  : 		return ((_Nodepref)_Pnode->_Right);
; 600  : 		}
; 601  : 
; 602  : 	static reference _Myval(_Nodeptr _Pnode)
; 603  : 		{	// return reference to value in node
; 604  : 		return ((reference)_Pnode->_Myval);
; 605  : 		}
; 606  : 
; 607  : 	static _Nodeptr _Max(_Nodeptr _Pnode)
; 608  : 		{	// return rightmost node in subtree at _Pnode
; 609  : 		while (!_Isnil(_Right(_Pnode)))
; 610  : 			_Pnode = _Right(_Pnode);
; 611  : 		return (_Pnode);
; 612  : 		}
; 613  : 
; 614  : 	static _Nodeptr _Min(_Nodeptr _Pnode)
; 615  : 		{	// return leftmost node in subtree at _Pnode
; 616  : 		while (!_Isnil(_Left(_Pnode)))
; 617  : 			_Pnode = _Left(_Pnode);
; 618  : 		return (_Pnode);
; 619  : 		}
; 620  : 
; 621  : 	_Nodeptr _Myhead;	// pointer to head node
; 622  : 	size_type _Mysize;	// number of elements
; 623  : 	};
; 624  : 
; 625  : 		// TEMPLATE CLASS _Tree_alloc
; 626  : template<bool _Al_has_storage,
; 627  : 	class _Alloc_types>
; 628  : 	class _Tree_alloc
; 629  : 		: public _Tree_val<typename _Alloc_types::_Val_types>
; 630  : 	{	// base class for tree to hold allocator with storage
; 631  : public:
; 632  : 	typename _Alloc_types::_Alnod_type _Alnod;	// allocator object
; 633  : 
; 634  : 	typedef _Tree_alloc<_Al_has_storage, _Alloc_types> _Myt;
; 635  : 	typedef typename _Alloc_types::_Alloc _Alloc;
; 636  : 	typedef typename _Alloc_types::_Alnod_type _Alty;
; 637  : 	typedef typename _Alloc_types::_Node _Node;
; 638  : 	typedef typename _Alloc_types::_Nodeptr _Nodeptr;
; 639  : 
; 640  :  #if _ITERATOR_DEBUG_LEVEL == 0
; 641  : 	_Tree_alloc(const _Alloc& _Al = _Alloc())
; 642  : 		: _Alnod(_Al)
; 643  : 		{	// construct head node, allocator from _Al
; 644  : 		this->_Myhead = _Buyheadnode();
; 645  : 		}
; 646  : 
; 647  : 	~_Tree_alloc() _NOEXCEPT
; 648  : 		{	// destroy head node
; 649  : 		_Freeheadnode(this->_Myhead);
; 650  : 		}
; 651  : 
; 652  : 	void _Change_alloc(const _Alty& _Al)
; 653  : 		{	// replace old allocator
; 654  : 		this->_Alnod = _Al;
; 655  : 		}
; 656  : 
; 657  : 	void _Swap_alloc(_Myt& _Right)
; 658  : 		{	// swap allocators
; 659  : 		_Swap_adl(this->_Alnod, _Right._Alnod);
; 660  : 		}
; 661  : 
; 662  :  #else /* _ITERATOR_DEBUG_LEVEL == 0 */
; 663  : 	_Tree_alloc(const _Alloc& _Al = _Alloc())
; 664  : 		: _Alnod(_Al)
; 665  : 		{	// construct allocators from _Al
; 666  : 		this->_Myhead = _Buyheadnode();
; 667  : 		_TRY_BEGIN
; 668  : 		_Alloc_proxy();
; 669  : 		_CATCH_ALL
; 670  : 		_Freeheadnode(this->_Myhead);
; 671  : 		_RERAISE;
; 672  : 		_CATCH_END
; 673  : 		}
; 674  : 
; 675  : 	~_Tree_alloc() _NOEXCEPT
; 676  : 		{	// destroy proxy
; 677  : 		_Freeheadnode(this->_Myhead);
; 678  : 		_Free_proxy();
; 679  : 		}
; 680  : 
; 681  : 	void _Change_alloc(const _Alty& _Al)
; 682  : 		{	// replace old allocator
; 683  : 		_Free_proxy();
; 684  : 		this->_Alnod = _Al;
; 685  : 		_Alloc_proxy();
; 686  : 		}
; 687  : 
; 688  : 	void _Swap_alloc(_Myt& _Right)
; 689  : 		{	// swap allocators
; 690  : 		_Swap_adl(this->_Alnod, _Right._Alnod);
; 691  : 		_Swap_adl(this->_Myproxy, _Right._Myproxy);
; 692  : 		}
; 693  : 
; 694  : 	void _Alloc_proxy()
; 695  : 		{	// construct proxy from _Alnod
; 696  : 		typename _Alty::template rebind<_Container_proxy>::other
; 697  : 			_Alproxy(this->_Alnod);
; 698  : 		this->_Myproxy = _Alproxy.allocate(1);
; 699  : 		_Alproxy.construct(this->_Myproxy, _Container_proxy());
; 700  : 		this->_Myproxy->_Mycont = this;
; 701  : 		}
; 702  : 
; 703  : 	void _Free_proxy()
; 704  : 		{	// destroy proxy
; 705  : 		typename _Alty::template rebind<_Container_proxy>::other
; 706  : 			_Alproxy(this->_Alnod);
; 707  : 		this->_Orphan_all();
; 708  : 		_Alproxy.destroy(this->_Myproxy);
; 709  : 		_Alproxy.deallocate(this->_Myproxy, 1);
; 710  : 		this->_Myproxy = 0;
; 711  : 		}
; 712  :  #endif /* _ITERATOR_DEBUG_LEVEL == 0 */
; 713  : 
; 714  : 	_Nodeptr _Buyheadnode()
; 715  : 		{	// get head node using current allocator
; 716  : 		_Nodeptr _Pnode = this->_Alnod.allocate(1);
; 717  : 
; 718  : 		_TRY_BEGIN
; 719  : 		this->_Alnod.construct(
; 720  : 			_STD addressof(this->_Left(_Pnode)), _Pnode);
; 721  : 		this->_Alnod.construct(
; 722  : 			_STD addressof(this->_Parent(_Pnode)), _Pnode);
; 723  : 		this->_Alnod.construct(
; 724  : 			_STD addressof(this->_Right(_Pnode)), _Pnode);
; 725  : 		_CATCH_ALL
; 726  : 		this->_Alnod.deallocate(_Pnode, 1);
; 727  : 		_RERAISE;
; 728  : 		_CATCH_END
; 729  : 
; 730  : 		this->_Color(_Pnode) = this->_Black;
; 731  : 		this->_Isnil(_Pnode) = true;
; 732  : 		return (_Pnode);
; 733  : 		}
; 734  : 
; 735  : 	void _Freeheadnode(_Nodeptr _Pnode)
; 736  : 		{	// free head node using current allocator
; 737  : 		this->_Alnod.destroy(
; 738  : 			_STD addressof(this->_Left(_Pnode)));
; 739  : 		this->_Alnod.destroy(
; 740  : 			_STD addressof(this->_Parent(_Pnode)));
; 741  : 		this->_Alnod.destroy(
; 742  : 			_STD addressof(this->_Right(_Pnode)));
; 743  : 		this->_Alnod.deallocate(_Pnode, 1);
; 744  : 		}
; 745  : 
; 746  : 	_Alty& _Getal()
; 747  : 		{	// get reference to allocator
; 748  : 		return (this->_Alnod);
; 749  : 		}
; 750  : 
; 751  : 	const _Alty& _Getal() const
; 752  : 		{	// get reference to allocator
; 753  : 		return (this->_Alnod);
; 754  : 		}
; 755  : 	};
; 756  : 
; 757  : 		// TEMPLATE CLASS _Tree_alloc
; 758  : template<class _Alloc_types>
; 759  : 	class _Tree_alloc<false, _Alloc_types>
; 760  : 		: public _Tree_val<typename _Alloc_types::_Val_types>
; 761  : 	{	// base class for tree to hold allocator with no storage
; 762  : public:
; 763  : 	typedef _Tree_alloc<false, _Alloc_types> _Myt;
; 764  : 	typedef _Tree_val<typename _Alloc_types::_Val_types> _Mybase;
; 765  : 	typedef typename _Alloc_types::_Alloc _Alloc;
; 766  : 	typedef typename _Alloc_types::_Alnod_type _Alty;
; 767  : 	typedef typename _Alloc_types::_Node _Node;
; 768  : 	typedef typename _Alloc_types::_Nodeptr _Nodeptr;
; 769  : 
; 770  :  #if _ITERATOR_DEBUG_LEVEL == 0
; 771  : 	_Tree_alloc(const _Alloc& = _Alloc())
; 772  : 		{	// construct head node, allocator from _Al
; 773  : 		this->_Myhead = _Buyheadnode();

  00479	e8 00 00 00 00	 call	 ?_Buyheadnode@?$_Tree_alloc@$0A@U?$_Tree_base_types@U?$pair@$$CBHPAX@std@@V?$allocator@U?$pair@$$CBHPAX@std@@@2@@std@@@std@@QAEPAU?$_Tree_node@U?$pair@$$CBHPAX@std@@PAX@2@XZ ; std::_Tree_alloc<0,std::_Tree_base_types<std::pair<int const ,void *>,std::allocator<std::pair<int const ,void *> > > >::_Buyheadnode
  0047e	89 87 78 00 02
	00		 mov	 DWORD PTR [edi+131192], eax
; File d:\metin2\metin2\client_source_clean\client_source_clean\source\userinterface\pythonapplication.cpp

; 47   : {

  00484	c7 87 84 00 02
	00 01 00 00 00	 mov	 DWORD PTR [edi+131204], 1
  0048e	c6 87 88 00 02
	00 00		 mov	 BYTE PTR [edi+131208], 0
  00495	c7 87 8c 00 02
	00 00 00 00 00	 mov	 DWORD PTR [edi+131212], 0
  0049f	66 c7 87 90 00
	02 00 00 00	 mov	 WORD PTR [edi+131216], 0
  004a8	c7 87 a8 00 02
	00 0f 00 00 00	 mov	 DWORD PTR [edi+131240], 15 ; 0000000fH
; File c:\program files (x86)\microsoft visual studio 12.0\vc\include\xstring

; 2237 : 		_Traits::assign(this->_Myptr()[this->_Mysize = _Newsize], _Elem());

  004b2	c7 87 a4 00 02
	00 00 00 00 00	 mov	 DWORD PTR [edi+131236], 0
; File c:\program files (x86)\microsoft visual studio 12.0\vc\include\iosfwd

; 564  : 		_Left = _Right;

  004bc	c6 87 94 00 02
	00 00		 mov	 BYTE PTR [edi+131220], 0
; File d:\metin2\metin2\client_source_clean\client_source_clean\source\userinterface\pythonapplication.cpp

; 47   : {

  004c3	c6 45 fc 2a	 mov	 BYTE PTR __$EHRec$[ebp+8], 42 ; 0000002aH

; 48   : #ifndef _DEBUG
; 49   : 	SetEterExceptionHandler();

  004c7	e8 00 00 00 00	 call	 ?SetEterExceptionHandler@@YAXXZ ; SetEterExceptionHandler

; 50   : #endif
; 51   : 
; 52   : 	CTimer::Instance().UseCustomTime();

  004cc	8b 0d 00 00 00
	00		 mov	 ecx, DWORD PTR ?ms_singleton@?$CSingleton@VCTimer@@@@0PAVCTimer@@A ; CSingleton<CTimer>::ms_singleton
  004d2	e8 00 00 00 00	 call	 ?UseCustomTime@CTimer@@QAEXXZ ; CTimer::UseCustomTime

; 59   : 	m_v3CenterPosition = D3DXVECTOR3(0.0f, 0.0f, 0.0f);

  004d7	f3 0f 7e 45 e8	 movq	 xmm0, QWORD PTR $T3[ebp]
  004dc	0f 14 c0	 unpcklps xmm0, xmm0
; File d:\metin2\metin2\client_source_clean\client_source_clean\extern\include\d3dx8math.inl

; 182  :     z = fz;

  004df	c7 45 e4 00 00
	00 00		 mov	 DWORD PTR $T2[ebp+8], 0
; File d:\metin2\metin2\client_source_clean\client_source_clean\source\userinterface\pythonapplication.cpp

; 59   : 	m_v3CenterPosition = D3DXVECTOR3(0.0f, 0.0f, 0.0f);

  004e6	8b 45 e4	 mov	 eax, DWORD PTR $T2[ebp+8]
  004e9	66 0f d6 87 64
	ff 01 00	 movq	 QWORD PTR [edi+130916], xmm0
  004f1	c7 87 84 ff 01
	00 20 03 00 00	 mov	 DWORD PTR [edi+130948], 800 ; 00000320H
  004fb	c7 87 88 ff 01
	00 58 02 00 00	 mov	 DWORD PTR [edi+130952], 600 ; 00000258H
  00505	89 3d 00 00 00
	00		 mov	 DWORD PTR ?ms_pInstance@CPythonApplication@@1PAV1@A, edi ; CPythonApplication::ms_pInstance
  0050b	c7 87 b4 00 02
	00 00 00 00 00	 mov	 DWORD PTR [edi+131252], 0
  00515	89 87 6c ff 01
	00		 mov	 DWORD PTR [edi+130924], eax

; 60   : 	m_dwStartLocalTime = ELTimer_GetMSec();

  0051b	e8 00 00 00 00	 call	 ?ELTimer_GetMSec@@YAKXZ	; ELTimer_GetMSec
  00520	89 87 90 ff 01
	00		 mov	 DWORD PTR [edi+130960], eax

; 61   : 	m_tServerTime = 0;

  00526	c7 87 94 ff 01
	00 00 00 00 00	 mov	 DWORD PTR [edi+130964], 0

; 62   : 	m_tLocalStartTime = 0;

  00530	c7 87 98 ff 01
	00 00 00 00 00	 mov	 DWORD PTR [edi+130968], 0

; 63   : 
; 64   : 	m_iPort = 0;

  0053a	c7 87 ac 00 02
	00 00 00 00 00	 mov	 DWORD PTR [edi+131244], 0

; 65   : 	m_iFPS = 60;

  00544	c7 87 70 ff 01
	00 3c 00 00 00	 mov	 DWORD PTR [edi+130928], 60 ; 0000003cH

; 66   : 
; 67   : 	m_isActivateWnd = false;
; 68   : 	m_isMinimizedWnd = true;

  0054e	66 c7 87 b0 00
	02 00 01 00	 mov	 WORD PTR [edi+131248], 1

; 69   : 
; 70   : 	m_fRotationSpeed = 0.0f;

  00557	c7 87 1c 00 02
	00 00 00 00 00	 mov	 DWORD PTR [edi+131100], 0

; 71   : 	m_fPitchSpeed = 0.0f;

  00561	c7 87 20 00 02
	00 00 00 00 00	 mov	 DWORD PTR [edi+131104], 0

; 72   : 	m_fZoomSpeed = 0.0f;

  0056b	c7 87 24 00 02
	00 00 00 00 00	 mov	 DWORD PTR [edi+131108], 0

; 73   : 
; 74   : 	m_fFaceSpd=0.0f;

  00575	c7 87 50 00 02
	00 00 00 00 00	 mov	 DWORD PTR [edi+131152], 0

; 75   : 
; 76   : 	m_dwFaceAccCount=0;

  0057f	c7 87 5c 00 02
	00 00 00 00 00	 mov	 DWORD PTR [edi+131164], 0

; 77   : 	m_dwFaceAccTime=0;

  00589	c7 87 60 00 02
	00 00 00 00 00	 mov	 DWORD PTR [edi+131168], 0

; 78   : 
; 79   : 	m_dwFaceSpdSum=0;

  00593	c7 87 54 00 02
	00 00 00 00 00	 mov	 DWORD PTR [edi+131156], 0

; 80   : 	m_dwFaceSpdCount=0;

  0059d	c7 87 58 00 02
	00 00 00 00 00	 mov	 DWORD PTR [edi+131160], 0
; File d:\metin2\metin2\client_source_clean\client_source_clean\source\gamelib\flyingobjectmanager.h

; 38   : 	void SetMapManagerPtr(CMapManager * pMapManager) { m_pMapManager = pMapManager; }

  005a7	89 b7 78 01 00
	00		 mov	 DWORD PTR [edi+376], esi
; File d:\metin2\metin2\client_source_clean\client_source_clean\source\userinterface\pythonapplication.cpp

; 84   : 	m_iCursorNum = CURSOR_SHAPE_NORMAL;

  005ad	c7 87 c4 00 02
	00 00 00 00 00	 mov	 DWORD PTR [edi+131268], 0

; 85   : 	m_iContinuousCursorNum = CURSOR_SHAPE_NORMAL;

  005b7	c7 87 c8 00 02
	00 00 00 00 00	 mov	 DWORD PTR [edi+131272], 0

; 86   : 
; 87   : 	m_isSpecialCameraMode = FALSE;

  005c1	c7 87 4c 00 02
	00 00 00 00 00	 mov	 DWORD PTR [edi+131148], 0

; 88   : 	m_fCameraRotateSpeed = c_fDefaultCameraRotateSpeed;

  005cb	c7 87 28 00 02
	00 00 00 c0 3f	 mov	 DWORD PTR [edi+131112], 1069547520 ; 3fc00000H

; 89   : 	m_fCameraPitchSpeed = c_fDefaultCameraPitchSpeed;

  005d5	c7 87 2c 00 02
	00 00 00 c0 3f	 mov	 DWORD PTR [edi+131116], 1069547520 ; 3fc00000H

; 90   : 	m_fCameraZoomSpeed = c_fDefaultCameraZoomSpeed;

  005df	c7 87 30 00 02
	00 cd cc 4c 3d	 mov	 DWORD PTR [edi+131120], 1028443341 ; 3d4ccccdH

; 91   : 
; 92   : 	m_iCameraMode = CAMERA_MODE_NORMAL;

  005e9	c7 87 ec ff 01
	00 00 00 00 00	 mov	 DWORD PTR [edi+131052], 0

; 93   : 	m_fBlendCameraStartTime = 0.0f;

  005f3	c7 87 f0 ff 01
	00 00 00 00 00	 mov	 DWORD PTR [edi+131056], 0

; 94   : 	m_fBlendCameraBlendTime = 0.0f;

  005fd	c7 87 f4 ff 01
	00 00 00 00 00	 mov	 DWORD PTR [edi+131060], 0

; 95   : 
; 96   : 	m_iForceSightRange = -1;

  00607	c7 87 c0 00 02
	00 ff ff ff ff	 mov	 DWORD PTR [edi+131264], -1

; 97   : 
; 98   : 	CCameraManager::Instance().AddCamera(EVENT_CAMERA_NUMBER);

  00611	8b 0d 00 00 00
	00		 mov	 ecx, DWORD PTR ?ms_singleton@?$CSingleton@VCCameraManager@@@@0PAVCCameraManager@@A ; CSingleton<CCameraManager>::ms_singleton
  00617	6a 65		 push	 101			; 00000065H
  00619	e8 00 00 00 00	 call	 ?AddCamera@CCameraManager@@QAE_NE@Z ; CCameraManager::AddCamera

; 99   : }

  0061e	8b c7		 mov	 eax, edi
  00620	8b 4d f4	 mov	 ecx, DWORD PTR __$EHRec$[ebp]
  00623	64 89 0d 00 00
	00 00		 mov	 DWORD PTR fs:0, ecx
  0062a	59		 pop	 ecx
  0062b	5f		 pop	 edi
  0062c	5e		 pop	 esi
  0062d	8b e5		 mov	 esp, ebp
  0062f	5d		 pop	 ebp
  00630	c3		 ret	 0
_TEXT	ENDS
;	COMDAT text$x
text$x	SEGMENT
__unwindfunclet$??0CPythonApplication@@QAE@XZ$0:
  00000	8b 4d f0	 mov	 ecx, DWORD PTR _this$[ebp]
  00003	e9 00 00 00 00	 jmp	 ??1CMSApplication@@UAE@XZ ; CMSApplication::~CMSApplication
__unwindfunclet$??0CPythonApplication@@QAE@XZ$1:
  00008	8b 4d f0	 mov	 ecx, DWORD PTR _this$[ebp]
  0000b	83 c1 1c	 add	 ecx, 28			; 0000001cH
  0000e	e9 00 00 00 00	 jmp	 ??1CInputKeyboard@@UAE@XZ ; CInputKeyboard::~CInputKeyboard
__unwindfunclet$??0CPythonApplication@@QAE@XZ$2:
  00013	8b 4d f0	 mov	 ecx, DWORD PTR _this$[ebp]
  00016	83 c1 20	 add	 ecx, 32			; 00000020H
  00019	e9 00 00 00 00	 jmp	 ??1IAbstractApplication@@UAE@XZ ; IAbstractApplication::~IAbstractApplication
__unwindfunclet$??0CPythonApplication@@QAE@XZ$3:
  0001e	8b 4d f0	 mov	 ecx, DWORD PTR _this$[ebp]
  00021	83 c1 60	 add	 ecx, 96			; 00000060H
  00024	e9 00 00 00 00	 jmp	 ??1CTimer@@UAE@XZ	; CTimer::~CTimer
__unwindfunclet$??0CPythonApplication@@QAE@XZ$4:
  00029	8b 4d f0	 mov	 ecx, DWORD PTR _this$[ebp]
  0002c	83 c1 7c	 add	 ecx, 124		; 0000007cH
  0002f	e9 00 00 00 00	 jmp	 ??1CLightManager@@UAE@XZ ; CLightManager::~CLightManager
__unwindfunclet$??0CPythonApplication@@QAE@XZ$5:
  00034	8b 4d f0	 mov	 ecx, DWORD PTR _this$[ebp]
  00037	81 c1 e8 00 00
	00		 add	 ecx, 232		; 000000e8H
  0003d	e9 00 00 00 00	 jmp	 ??1CSoundManager@@UAE@XZ ; CSoundManager::~CSoundManager
__unwindfunclet$??0CPythonApplication@@QAE@XZ$6:
  00042	8b 4d f0	 mov	 ecx, DWORD PTR _this$[ebp]
  00045	81 c1 5c 01 00
	00		 add	 ecx, 348		; 0000015cH
  0004b	e9 00 00 00 00	 jmp	 ??1CFlyingManager@@UAE@XZ ; CFlyingManager::~CFlyingManager
__unwindfunclet$??0CPythonApplication@@QAE@XZ$7:
  00050	8b 4d f0	 mov	 ecx, DWORD PTR _this$[ebp]
  00053	81 c1 80 01 00
	00		 add	 ecx, 384		; 00000180H
  00059	e9 00 00 00 00	 jmp	 ??1CRaceManager@@UAE@XZ	; CRaceManager::~CRaceManager
__unwindfunclet$??0CPythonApplication@@QAE@XZ$8:
  0005e	8b 4d f0	 mov	 ecx, DWORD PTR _this$[ebp]
  00061	81 c1 b8 01 00
	00		 add	 ecx, 440		; 000001b8H
  00067	e9 00 00 00 00	 jmp	 ??1CGameEventManager@@UAE@XZ ; CGameEventManager::~CGameEventManager
__unwindfunclet$??0CPythonApplication@@QAE@XZ$9:
  0006c	8b 4d f0	 mov	 ecx, DWORD PTR _this$[ebp]
  0006f	81 c1 cc 01 00
	00		 add	 ecx, 460		; 000001ccH
  00075	e9 00 00 00 00	 jmp	 ??1CItemManager@@UAE@XZ	; CItemManager::~CItemManager
__unwindfunclet$??0CPythonApplication@@QAE@XZ$10:
  0007a	8b 4d f0	 mov	 ecx, DWORD PTR _this$[ebp]
  0007d	81 c1 e8 01 00
	00		 add	 ecx, 488		; 000001e8H
  00083	e9 00 00 00 00	 jmp	 ??1CMovieMan@@UAE@XZ	; CMovieMan::~CMovieMan
__unwindfunclet$??0CPythonApplication@@QAE@XZ$11:
  00088	8b 4d f0	 mov	 ecx, DWORD PTR _this$[ebp]
  0008b	81 c1 10 02 00
	00		 add	 ecx, 528		; 00000210H
  00091	e9 00 00 00 00	 jmp	 ??1CWindowManager@UI@@UAE@XZ ; UI::CWindowManager::~CWindowManager
__unwindfunclet$??0CPythonApplication@@QAE@XZ$12:
  00096	8b 4d f0	 mov	 ecx, DWORD PTR _this$[ebp]
  00099	81 c1 b0 02 00
	00		 add	 ecx, 688		; 000002b0H
  0009f	e9 00 00 00 00	 jmp	 ??1CEffectManager@@UAE@XZ ; CEffectManager::~CEffectManager
__unwindfunclet$??0CPythonApplication@@QAE@XZ$13:
  000a4	8b 4d f0	 mov	 ecx, DWORD PTR _this$[ebp]
  000a7	81 c1 d8 02 00
	00		 add	 ecx, 728		; 000002d8H
  000ad	e9 00 00 00 00	 jmp	 ??1CPythonCharacterManager@@UAE@XZ ; CPythonCharacterManager::~CPythonCharacterManager
__unwindfunclet$??0CPythonApplication@@QAE@XZ$14:
  000b2	8b 4d f0	 mov	 ecx, DWORD PTR _this$[ebp]
  000b5	81 c1 10 07 00
	00		 add	 ecx, 1808		; 00000710H
  000bb	e9 00 00 00 00	 jmp	 ??1CServerStateChecker@@UAE@XZ ; CServerStateChecker::~CServerStateChecker
__unwindfunclet$??0CPythonApplication@@QAE@XZ$15:
  000c0	8b 4d f0	 mov	 ecx, DWORD PTR _this$[ebp]
  000c3	81 c1 9c 07 00
	00		 add	 ecx, 1948		; 0000079cH
  000c9	e9 00 00 00 00	 jmp	 ??1CPythonGraphic@@UAE@XZ ; CPythonGraphic::~CPythonGraphic
__unwindfunclet$??0CPythonApplication@@QAE@XZ$16:
  000ce	8b 4d f0	 mov	 ecx, DWORD PTR _this$[ebp]
  000d1	81 c1 40 08 00
	00		 add	 ecx, 2112		; 00000840H
  000d7	e9 00 00 00 00	 jmp	 ??1CPythonNetworkStream@@UAE@XZ ; CPythonNetworkStream::~CPythonNetworkStream
__unwindfunclet$??0CPythonApplication@@QAE@XZ$17:
  000dc	8b 4d f0	 mov	 ecx, DWORD PTR _this$[ebp]
  000df	81 c1 90 81 00
	00		 add	 ecx, 33168		; 00008190H
  000e5	e9 00 00 00 00	 jmp	 ??1CPythonPlayer@@UAE@XZ ; CPythonPlayer::~CPythonPlayer
__unwindfunclet$??0CPythonApplication@@QAE@XZ$18:
  000ea	8b 4d f0	 mov	 ecx, DWORD PTR _this$[ebp]
  000ed	81 c1 dc 8b 01
	00		 add	 ecx, 101340		; 00018bdcH
  000f3	e9 00 00 00 00	 jmp	 ??1CPythonIME@@UAE@XZ	; CPythonIME::~CPythonIME
__unwindfunclet$??0CPythonApplication@@QAE@XZ$19:
  000f8	8b 4d f0	 mov	 ecx, DWORD PTR _this$[ebp]
  000fb	81 c1 08 94 01
	00		 add	 ecx, 103432		; 00019408H
  00101	e9 00 00 00 00	 jmp	 ??1CPythonItem@@UAE@XZ	; CPythonItem::~CPythonItem
__unwindfunclet$??0CPythonApplication@@QAE@XZ$20:
  00106	8b 4d f0	 mov	 ecx, DWORD PTR _this$[ebp]
  00109	81 c1 14 95 01
	00		 add	 ecx, 103700		; 00019514H
  0010f	e9 00 00 00 00	 jmp	 ??1CPythonShop@@UAE@XZ	; CPythonShop::~CPythonShop
__unwindfunclet$??0CPythonApplication@@QAE@XZ$21:
  00114	8b 4d f0	 mov	 ecx, DWORD PTR _this$[ebp]
  00117	81 c1 ac a9 01
	00		 add	 ecx, 108972		; 0001a9acH
  0011d	e9 00 00 00 00	 jmp	 ??1CPythonExchange@@UAE@XZ ; CPythonExchange::~CPythonExchange
__unwindfunclet$??0CPythonApplication@@QAE@XZ$22:
  00122	8b 4d f0	 mov	 ecx, DWORD PTR _this$[ebp]
  00125	81 c1 8c ad 01
	00		 add	 ecx, 109964		; 0001ad8cH
  0012b	e9 00 00 00 00	 jmp	 ??1CPythonChat@@UAE@XZ	; CPythonChat::~CPythonChat
__unwindfunclet$??0CPythonApplication@@QAE@XZ$23:
  00130	8b 4d f0	 mov	 ecx, DWORD PTR _this$[ebp]
  00133	81 c1 60 ae 01
	00		 add	 ecx, 110176		; 0001ae60H
  00139	e9 00 00 00 00	 jmp	 ??1CPythonTextTail@@UAE@XZ ; CPythonTextTail::~CPythonTextTail
__unwindfunclet$??0CPythonApplication@@QAE@XZ$24:
  0013e	8b 4d f0	 mov	 ecx, DWORD PTR _this$[ebp]
  00141	81 c1 b0 ae 01
	00		 add	 ecx, 110256		; 0001aeb0H
  00147	e9 00 00 00 00	 jmp	 ??1CPythonNonPlayer@@UAE@XZ ; CPythonNonPlayer::~CPythonNonPlayer
__unwindfunclet$??0CPythonApplication@@QAE@XZ$25:
  0014c	8b 4d f0	 mov	 ecx, DWORD PTR _this$[ebp]
  0014f	81 c1 bc ae 01
	00		 add	 ecx, 110268		; 0001aebcH
  00155	e9 00 00 00 00	 jmp	 ??1CPythonMiniMap@@UAE@XZ ; CPythonMiniMap::~CPythonMiniMap
__unwindfunclet$??0CPythonApplication@@QAE@XZ$26:
  0015a	8b 4d f0	 mov	 ecx, DWORD PTR _this$[ebp]
  0015d	81 c1 f4 ba 01
	00		 add	 ecx, 113396		; 0001baf4H
  00163	e9 00 00 00 00	 jmp	 ??1CPythonEventManager@@UAE@XZ ; CPythonEventManager::~CPythonEventManager
__unwindfunclet$??0CPythonApplication@@QAE@XZ$27:
  00168	8b 4d f0	 mov	 ecx, DWORD PTR _this$[ebp]
  0016b	81 c1 74 bb 01
	00		 add	 ecx, 113524		; 0001bb74H
  00171	e9 00 00 00 00	 jmp	 ??1CPythonBackground@@UAE@XZ ; CPythonBackground::~CPythonBackground
__unwindfunclet$??0CPythonApplication@@QAE@XZ$28:
  00176	8b 4d f0	 mov	 ecx, DWORD PTR _this$[ebp]
  00179	81 c1 7c d1 01
	00		 add	 ecx, 119164		; 0001d17cH
  0017f	e9 00 00 00 00	 jmp	 ??1CPythonSkill@@UAE@XZ	; CPythonSkill::~CPythonSkill
__unwindfunclet$??0CPythonApplication@@QAE@XZ$29:
  00184	8b 4d f0	 mov	 ecx, DWORD PTR _this$[ebp]
  00187	81 c1 c8 d1 01
	00		 add	 ecx, 119240		; 0001d1c8H
  0018d	e9 00 00 00 00	 jmp	 ??1CPythonResource@@UAE@XZ ; CPythonResource::~CPythonResource
__unwindfunclet$??0CPythonApplication@@QAE@XZ$30:
  00192	8b 4d f0	 mov	 ecx, DWORD PTR _this$[ebp]
  00195	81 c1 10 d2 01
	00		 add	 ecx, 119312		; 0001d210H
  0019b	e9 00 00 00 00	 jmp	 ??1CPythonQuest@@UAE@XZ	; CPythonQuest::~CPythonQuest
__unwindfunclet$??0CPythonApplication@@QAE@XZ$31:
  001a0	8b 4d f0	 mov	 ecx, DWORD PTR _this$[ebp]
  001a3	81 c1 20 d2 01
	00		 add	 ecx, 119328		; 0001d220H
  001a9	e9 00 00 00 00	 jmp	 ??1CPythonMessenger@@UAE@XZ ; CPythonMessenger::~CPythonMessenger
__unwindfunclet$??0CPythonApplication@@QAE@XZ$32:
  001ae	8b 4d f0	 mov	 ecx, DWORD PTR _this$[ebp]
  001b1	81 c1 38 d2 01
	00		 add	 ecx, 119352		; 0001d238H
  001b7	e9 00 00 00 00	 jmp	 ??1CPythonSafeBox@@UAE@XZ ; CPythonSafeBox::~CPythonSafeBox
__unwindfunclet$??0CPythonApplication@@QAE@XZ$33:
  001bc	8b 4d f0	 mov	 ecx, DWORD PTR _this$[ebp]
  001bf	81 c1 58 d2 01
	00		 add	 ecx, 119384		; 0001d258H
  001c5	e9 00 00 00 00	 jmp	 ??1CPythonGuild@@UAE@XZ	; CPythonGuild::~CPythonGuild
__unwindfunclet$??0CPythonApplication@@QAE@XZ$34:
  001ca	8b 4d f0	 mov	 ecx, DWORD PTR _this$[ebp]
  001cd	81 c1 f0 d2 01
	00		 add	 ecx, 119536		; 0001d2f0H
  001d3	e9 00 00 00 00	 jmp	 ??1CGuildMarkManager@@UAE@XZ ; CGuildMarkManager::~CGuildMarkManager
__unwindfunclet$??0CPythonApplication@@QAE@XZ$35:
  001d8	8b 4d f0	 mov	 ecx, DWORD PTR _this$[ebp]
  001db	81 c1 2c d3 01
	00		 add	 ecx, 119596		; 0001d32cH
  001e1	e9 00 00 00 00	 jmp	 ??1CGuildMarkDownloader@@UAE@XZ ; CGuildMarkDownloader::~CGuildMarkDownloader
__unwindfunclet$??0CPythonApplication@@QAE@XZ$36:
  001e6	8b 4d f0	 mov	 ecx, DWORD PTR _this$[ebp]
  001e9	81 c1 dc d3 01
	00		 add	 ecx, 119772		; 0001d3dcH
  001ef	e9 00 00 00 00	 jmp	 ??1CGuildMarkUploader@@UAE@XZ ; CGuildMarkUploader::~CGuildMarkUploader
__unwindfunclet$??0CPythonApplication@@QAE@XZ$37:
  001f4	8b 4d f0	 mov	 ecx, DWORD PTR _this$[ebp]
  001f7	81 c1 7c d7 01
	00		 add	 ecx, 120700		; 0001d77cH
  001fd	e9 00 00 00 00	 jmp	 ??1CAccountConnector@@UAE@XZ ; CAccountConnector::~CAccountConnector
__unwindfunclet$??0CPythonApplication@@QAE@XZ$38:
  00202	8b 4d f0	 mov	 ecx, DWORD PTR _this$[ebp]
  00205	81 c1 54 d8 01
	00		 add	 ecx, 120916		; 0001d854H
  0020b	e9 00 00 00 00	 jmp	 ??1CGraphicDevice@@UAE@XZ ; CGraphicDevice::~CGraphicDevice
__unwindfunclet$??0CPythonApplication@@QAE@XZ$39:
  00210	8b 4d f0	 mov	 ecx, DWORD PTR _this$[ebp]
  00213	81 c1 68 d8 01
	00		 add	 ecx, 120936		; 0001d868H
  00219	e9 00 00 00 00	 jmp	 ??1CNetworkDevice@@UAE@XZ ; CNetworkDevice::~CNetworkDevice
__unwindfunclet$??0CPythonApplication@@QAE@XZ$40:
  0021e	8b 4d f0	 mov	 ecx, DWORD PTR _this$[ebp]
  00221	81 c1 70 d8 01
	00		 add	 ecx, 120944		; 0001d870H
  00227	e9 00 00 00 00	 jmp	 ??1CPythonSystem@@UAE@XZ ; CPythonSystem::~CPythonSystem
__unwindfunclet$??0CPythonApplication@@QAE@XZ$41:
  0022c	8b 4d f0	 mov	 ecx, DWORD PTR _this$[ebp]
  0022f	81 c1 78 00 02
	00		 add	 ecx, 131192		; 00020078H
  00235	e9 00 00 00 00	 jmp	 ??1?$map@HPAXU?$less@H@std@@V?$allocator@U?$pair@$$CBHPAX@std@@@2@@std@@QAE@XZ
__unwindfunclet$??0CPythonApplication@@QAE@XZ$42:
  0023a	8b 4d f0	 mov	 ecx, DWORD PTR _this$[ebp]
  0023d	81 c1 94 00 02
	00		 add	 ecx, 131220		; 00020094H
  00243	e9 00 00 00 00	 jmp	 ??1?$basic_string@DU?$char_traits@D@std@@V?$allocator@D@2@@std@@QAE@XZ ; std::basic_string<char,std::char_traits<char>,std::allocator<char> >::~basic_string<char,std::char_traits<char>,std::allocator<char> >
__ehhandler$??0CPythonApplication@@QAE@XZ:
  00248	8b 54 24 08	 mov	 edx, DWORD PTR [esp+8]
  0024c	8d 42 0c	 lea	 eax, DWORD PTR [edx+12]
  0024f	8b 4a dc	 mov	 ecx, DWORD PTR [edx-36]
  00252	33 c8		 xor	 ecx, eax
  00254	e8 00 00 00 00	 call	 @__security_check_cookie@4
  00259	b8 00 00 00 00	 mov	 eax, OFFSET __ehfuncinfo$??0CPythonApplication@@QAE@XZ
  0025e	e9 00 00 00 00	 jmp	 ___CxxFrameHandler3
text$x	ENDS
??0CPythonApplication@@QAE@XZ ENDP			; CPythonApplication::CPythonApplication
; Function compile flags: /Ogtp
;	COMDAT ??_GCPythonApplication@@UAEPAXI@Z
_TEXT	SEGMENT
___flags$ = 8						; size = 4
??_GCPythonApplication@@UAEPAXI@Z PROC			; CPythonApplication::`scalar deleting destructor', COMDAT
; _this$ = ecx
  00000	55		 push	 ebp
  00001	8b ec		 mov	 ebp, esp
  00003	56		 push	 esi
  00004	8b f1		 mov	 esi, ecx
  00006	e8 00 00 00 00	 call	 ??1CPythonApplication@@UAE@XZ ; CPythonApplication::~CPythonApplication
  0000b	f6 45 08 01	 test	 BYTE PTR ___flags$[ebp], 1
  0000f	74 09		 je	 SHORT $LN4@scalar
  00011	56		 push	 esi
  00012	e8 00 00 00 00	 call	 ??3@YAXPAX@Z		; operator delete
  00017	83 c4 04	 add	 esp, 4
$LN4@scalar:
  0001a	8b c6		 mov	 eax, esi
  0001c	5e		 pop	 esi
  0001d	5d		 pop	 ebp
  0001e	c2 04 00	 ret	 4
??_GCPythonApplication@@UAEPAXI@Z ENDP			; CPythonApplication::`scalar deleting destructor'
_TEXT	ENDS
; Function compile flags: /Ogtp
; File c:\program files (x86)\microsoft visual studio 12.0\vc\include\xtree
; File c:\program files (x86)\microsoft visual studio 12.0\vc\include\xmemory0
;	COMDAT ??1?$map@HPAXU?$less@H@std@@V?$allocator@U?$pair@$$CBHPAX@std@@@2@@std@@QAE@XZ
_TEXT	SEGMENT
$T1 = -4						; size = 4
??1?$map@HPAXU?$less@H@std@@V?$allocator@U?$pair@$$CBHPAX@std@@@2@@std@@QAE@XZ PROC ; std::map<int,void *,std::less<int>,std::allocator<std::pair<int const ,void *> > >::~map<int,void *,std::less<int>,std::allocator<std::pair<int const ,void *> > >, COMDAT
; _this$ = ecx
  00000	55		 push	 ebp
  00001	8b ec		 mov	 ebp, esp
  00003	51		 push	 ecx
  00004	56		 push	 esi
  00005	8b f1		 mov	 esi, ecx
; File c:\program files (x86)\microsoft visual studio 12.0\vc\include\xtree

; 2230 : 		erase(begin(), end());

  00007	8b 06		 mov	 eax, DWORD PTR [esi]
  00009	50		 push	 eax
  0000a	ff 30		 push	 DWORD PTR [eax]
  0000c	8d 45 fc	 lea	 eax, DWORD PTR $T1[ebp]
  0000f	50		 push	 eax
  00010	e8 00 00 00 00	 call	 ?erase@?$_Tree@V?$_Tmap_traits@HPAXU?$less@H@std@@V?$allocator@U?$pair@$$CBHPAX@std@@@2@$0A@@std@@@std@@QAE?AV?$_Tree_iterator@V?$_Tree_val@U?$_Tree_simple_types@U?$pair@$$CBHPAX@std@@@std@@@std@@@2@V?$_Tree_const_iterator@V?$_Tree_val@U?$_Tree_simple_types@U?$pair@$$CBHPAX@std@@@std@@@std@@@2@0@Z ; std::_Tree<std::_Tmap_traits<int,void *,std::less<int>,std::allocator<std::pair<int const ,void *> >,0> >::erase
; File c:\program files (x86)\microsoft visual studio 12.0\vc\include\xmemory0

; 573  : 		::operator delete(_Ptr);

  00015	ff 36		 push	 DWORD PTR [esi]
  00017	e8 00 00 00 00	 call	 ??3@YAXPAX@Z		; operator delete
  0001c	83 c4 04	 add	 esp, 4
  0001f	5e		 pop	 esi
  00020	8b e5		 mov	 esp, ebp
  00022	5d		 pop	 ebp
  00023	c3		 ret	 0
??1?$map@HPAXU?$less@H@std@@V?$allocator@U?$pair@$$CBHPAX@std@@@2@@std@@QAE@XZ ENDP ; std::map<int,void *,std::less<int>,std::allocator<std::pair<int const ,void *> > >::~map<int,void *,std::less<int>,std::allocator<std::pair<int const ,void *> > >
_TEXT	ENDS
; Function compile flags: /Ogtp
; File d:\metin2\metin2\client_source_clean\client_source_clean\source\userinterface\pythonapplication.cpp
; File c:\program files (x86)\microsoft visual studio 12.0\vc\include\xstring
; File c:\program files (x86)\microsoft visual studio 12.0\vc\include\xmemory0
; File c:\program files (x86)\microsoft visual studio 12.0\vc\include\xtree
; File c:\program files (x86)\microsoft visual studio 12.0\vc\include\xstring
; File c:\program files (x86)\microsoft visual studio 12.0\vc\include\iosfwd
; File c:\program files (x86)\microsoft visual studio 12.0\vc\include\xtree
; File c:\program files (x86)\microsoft visual studio 12.0\vc\include\xmemory0
; File d:\metin2\metin2\client_source_clean\client_source_clean\source\userinterface\pythonapplication.cpp
; File d:\metin2\metin2\client_source_clean\client_source_clean\source\userinterface\movieman.h
; File d:\metin2\metin2\client_source_clean\client_source_clean\source\userinterface\pythonapplication.cpp
; File d:\metin2\metin2\client_source_clean\client_source_clean\source\eterbase\singleton.h
; File d:\metin2\metin2\client_source_clean\client_source_clean\source\userinterface\pythonapplication.cpp
; File d:\metin2\metin2\client_source_clean\client_source_clean\source\userinterface\abstractsingleton.h
; File d:\metin2\metin2\client_source_clean\client_source_clean\source\userinterface\pythonapplication.cpp
;	COMDAT ??1CPythonApplication@@UAE@XZ
_TEXT	SEGMENT
$T2 = -20						; size = 4
_this$ = -16						; size = 4
__$EHRec$ = -12						; size = 12
??1CPythonApplication@@UAE@XZ PROC			; CPythonApplication::~CPythonApplication, COMDAT
; _this$ = ecx

; 102  : {

  00000	55		 push	 ebp
  00001	8b ec		 mov	 ebp, esp
  00003	6a ff		 push	 -1
  00005	68 00 00 00 00	 push	 __ehhandler$??1CPythonApplication@@UAE@XZ
  0000a	64 a1 00 00 00
	00		 mov	 eax, DWORD PTR fs:0
  00010	50		 push	 eax
  00011	83 ec 08	 sub	 esp, 8
  00014	53		 push	 ebx
  00015	56		 push	 esi
  00016	57		 push	 edi
  00017	a1 00 00 00 00	 mov	 eax, DWORD PTR ___security_cookie
  0001c	33 c5		 xor	 eax, ebp
  0001e	50		 push	 eax
  0001f	8d 45 f4	 lea	 eax, DWORD PTR __$EHRec$[ebp]
  00022	64 a3 00 00 00
	00		 mov	 DWORD PTR fs:0, eax
  00028	8b f9		 mov	 edi, ecx
  0002a	89 7d f0	 mov	 DWORD PTR _this$[ebp], edi
  0002d	c7 07 00 00 00
	00		 mov	 DWORD PTR [edi], OFFSET ??_7CPythonApplication@@6BCMSApplication@@@
  00033	c7 47 1c 00 00
	00 00		 mov	 DWORD PTR [edi+28], OFFSET ??_7CPythonApplication@@6BCInputKeyboard@@@
  0003a	c7 47 20 00 00
	00 00		 mov	 DWORD PTR [edi+32], OFFSET ??_7CPythonApplication@@6BIAbstractApplication@@@
  00041	c7 45 fc 26 00
	00 00		 mov	 DWORD PTR __$EHRec$[ebp+8], 38 ; 00000026H
; File c:\program files (x86)\microsoft visual studio 12.0\vc\include\xstring

; 2275 : 		else if (this->_BUF_SIZE <= this->_Myres)

  00048	83 bf a8 00 02
	00 10		 cmp	 DWORD PTR [edi+131240], 16 ; 00000010H
  0004f	72 0e		 jb	 SHORT $LN66@CPythonApp
; File c:\program files (x86)\microsoft visual studio 12.0\vc\include\xmemory0

; 573  : 		::operator delete(_Ptr);

  00051	ff b7 94 00 02
	00		 push	 DWORD PTR [edi+131220]
  00057	e8 00 00 00 00	 call	 ??3@YAXPAX@Z		; operator delete
  0005c	83 c4 04	 add	 esp, 4
$LN66@CPythonApp:
  0005f	c7 87 a8 00 02
	00 0f 00 00 00	 mov	 DWORD PTR [edi+131240], 15 ; 0000000fH
; File c:\program files (x86)\microsoft visual studio 12.0\vc\include\xtree

; 2230 : 		erase(begin(), end());

  00069	8d 8f 78 00 02
	00		 lea	 ecx, DWORD PTR [edi+131192]
; File c:\program files (x86)\microsoft visual studio 12.0\vc\include\xstring

; 2237 : 		_Traits::assign(this->_Myptr()[this->_Mysize = _Newsize], _Elem());

  0006f	c7 87 a4 00 02
	00 00 00 00 00	 mov	 DWORD PTR [edi+131236], 0
; File c:\program files (x86)\microsoft visual studio 12.0\vc\include\iosfwd

; 564  : 		_Left = _Right;

  00079	c6 87 94 00 02
	00 00		 mov	 BYTE PTR [edi+131220], 0
; File c:\program files (x86)\microsoft visual studio 12.0\vc\include\xtree

; 44   : 		{	// construct with node pointer _Pnode

  00080	8b 87 78 00 02
	00		 mov	 eax, DWORD PTR [edi+131192]

; 2230 : 		erase(begin(), end());

  00086	50		 push	 eax
  00087	ff 30		 push	 DWORD PTR [eax]
  00089	8d 45 ec	 lea	 eax, DWORD PTR $T2[ebp]
  0008c	50		 push	 eax
  0008d	e8 00 00 00 00	 call	 ?erase@?$_Tree@V?$_Tmap_traits@HPAXU?$less@H@std@@V?$allocator@U?$pair@$$CBHPAX@std@@@2@$0A@@std@@@std@@QAE?AV?$_Tree_iterator@V?$_Tree_val@U?$_Tree_simple_types@U?$pair@$$CBHPAX@std@@@std@@@std@@@2@V?$_Tree_const_iterator@V?$_Tree_val@U?$_Tree_simple_types@U?$pair@$$CBHPAX@std@@@std@@@std@@@2@0@Z ; std::_Tree<std::_Tmap_traits<int,void *,std::less<int>,std::allocator<std::pair<int const ,void *> >,0> >::erase
; File c:\program files (x86)\microsoft visual studio 12.0\vc\include\xmemory0

; 573  : 		::operator delete(_Ptr);

  00092	ff b7 78 00 02
	00		 push	 DWORD PTR [edi+131192]
  00098	e8 00 00 00 00	 call	 ??3@YAXPAX@Z		; operator delete
  0009d	83 c4 04	 add	 esp, 4
; File d:\metin2\metin2\client_source_clean\client_source_clean\source\userinterface\pythonapplication.cpp

; 103  : }

  000a0	8d 8f 70 d8 01
	00		 lea	 ecx, DWORD PTR [edi+120944]
  000a6	e8 00 00 00 00	 call	 ??1CPythonSystem@@UAE@XZ ; CPythonSystem::~CPythonSystem
  000ab	8d 8f 68 d8 01
	00		 lea	 ecx, DWORD PTR [edi+120936]
  000b1	e8 00 00 00 00	 call	 ??1CNetworkDevice@@UAE@XZ ; CNetworkDevice::~CNetworkDevice
  000b6	8d 8f 54 d8 01
	00		 lea	 ecx, DWORD PTR [edi+120916]
  000bc	c6 45 fc 25	 mov	 BYTE PTR __$EHRec$[ebp+8], 37 ; 00000025H
  000c0	e8 00 00 00 00	 call	 ??1CGraphicDevice@@UAE@XZ ; CGraphicDevice::~CGraphicDevice
  000c5	8d 8f 7c d7 01
	00		 lea	 ecx, DWORD PTR [edi+120700]
  000cb	c6 45 fc 24	 mov	 BYTE PTR __$EHRec$[ebp+8], 36 ; 00000024H
  000cf	e8 00 00 00 00	 call	 ??1CAccountConnector@@UAE@XZ ; CAccountConnector::~CAccountConnector
  000d4	8d 8f dc d3 01
	00		 lea	 ecx, DWORD PTR [edi+119772]
  000da	c6 45 fc 23	 mov	 BYTE PTR __$EHRec$[ebp+8], 35 ; 00000023H
  000de	e8 00 00 00 00	 call	 ??1CGuildMarkUploader@@UAE@XZ ; CGuildMarkUploader::~CGuildMarkUploader
  000e3	8d 8f 2c d3 01
	00		 lea	 ecx, DWORD PTR [edi+119596]
  000e9	c6 45 fc 22	 mov	 BYTE PTR __$EHRec$[ebp+8], 34 ; 00000022H
  000ed	e8 00 00 00 00	 call	 ??1CGuildMarkDownloader@@UAE@XZ ; CGuildMarkDownloader::~CGuildMarkDownloader
  000f2	8d 8f f0 d2 01
	00		 lea	 ecx, DWORD PTR [edi+119536]
  000f8	c6 45 fc 21	 mov	 BYTE PTR __$EHRec$[ebp+8], 33 ; 00000021H
  000fc	e8 00 00 00 00	 call	 ??1CGuildMarkManager@@UAE@XZ ; CGuildMarkManager::~CGuildMarkManager
  00101	8d 8f 58 d2 01
	00		 lea	 ecx, DWORD PTR [edi+119384]
  00107	e8 00 00 00 00	 call	 ??1CPythonGuild@@UAE@XZ	; CPythonGuild::~CPythonGuild
  0010c	8d 8f 38 d2 01
	00		 lea	 ecx, DWORD PTR [edi+119352]
  00112	e8 00 00 00 00	 call	 ??1CPythonSafeBox@@UAE@XZ ; CPythonSafeBox::~CPythonSafeBox
  00117	8d 8f 20 d2 01
	00		 lea	 ecx, DWORD PTR [edi+119328]
  0011d	e8 00 00 00 00	 call	 ??1CPythonMessenger@@UAE@XZ ; CPythonMessenger::~CPythonMessenger
  00122	8d 8f 10 d2 01
	00		 lea	 ecx, DWORD PTR [edi+119312]
  00128	e8 00 00 00 00	 call	 ??1CPythonQuest@@UAE@XZ	; CPythonQuest::~CPythonQuest
  0012d	8d 8f c8 d1 01
	00		 lea	 ecx, DWORD PTR [edi+119240]
  00133	c6 45 fc 1c	 mov	 BYTE PTR __$EHRec$[ebp+8], 28 ; 0000001cH
  00137	e8 00 00 00 00	 call	 ??1CPythonResource@@UAE@XZ ; CPythonResource::~CPythonResource
  0013c	8d 8f 7c d1 01
	00		 lea	 ecx, DWORD PTR [edi+119164]
  00142	e8 00 00 00 00	 call	 ??1CPythonSkill@@UAE@XZ	; CPythonSkill::~CPythonSkill
  00147	8d 8f 74 bb 01
	00		 lea	 ecx, DWORD PTR [edi+113524]
  0014d	c6 45 fc 1a	 mov	 BYTE PTR __$EHRec$[ebp+8], 26 ; 0000001aH
  00151	e8 00 00 00 00	 call	 ??1CPythonBackground@@UAE@XZ ; CPythonBackground::~CPythonBackground
  00156	8d 8f f4 ba 01
	00		 lea	 ecx, DWORD PTR [edi+113396]
  0015c	e8 00 00 00 00	 call	 ??1CPythonEventManager@@UAE@XZ ; CPythonEventManager::~CPythonEventManager
  00161	8d 8f bc ae 01
	00		 lea	 ecx, DWORD PTR [edi+110268]
  00167	c6 45 fc 18	 mov	 BYTE PTR __$EHRec$[ebp+8], 24 ; 00000018H
  0016b	e8 00 00 00 00	 call	 ??1CPythonMiniMap@@UAE@XZ ; CPythonMiniMap::~CPythonMiniMap
  00170	8d 8f b0 ae 01
	00		 lea	 ecx, DWORD PTR [edi+110256]
  00176	e8 00 00 00 00	 call	 ??1CPythonNonPlayer@@UAE@XZ ; CPythonNonPlayer::~CPythonNonPlayer
  0017b	8d 8f 60 ae 01
	00		 lea	 ecx, DWORD PTR [edi+110176]
  00181	c6 45 fc 16	 mov	 BYTE PTR __$EHRec$[ebp+8], 22 ; 00000016H
  00185	e8 00 00 00 00	 call	 ??1CPythonTextTail@@UAE@XZ ; CPythonTextTail::~CPythonTextTail
  0018a	8d 8f 8c ad 01
	00		 lea	 ecx, DWORD PTR [edi+109964]
  00190	e8 00 00 00 00	 call	 ??1CPythonChat@@UAE@XZ	; CPythonChat::~CPythonChat
  00195	8d 8f ac a9 01
	00		 lea	 ecx, DWORD PTR [edi+108972]
  0019b	e8 00 00 00 00	 call	 ??1CPythonExchange@@UAE@XZ ; CPythonExchange::~CPythonExchange
  001a0	8d 8f 14 95 01
	00		 lea	 ecx, DWORD PTR [edi+103700]
  001a6	c6 45 fc 13	 mov	 BYTE PTR __$EHRec$[ebp+8], 19 ; 00000013H
  001aa	e8 00 00 00 00	 call	 ??1CPythonShop@@UAE@XZ	; CPythonShop::~CPythonShop
  001af	8d 8f 08 94 01
	00		 lea	 ecx, DWORD PTR [edi+103432]
  001b5	c6 45 fc 12	 mov	 BYTE PTR __$EHRec$[ebp+8], 18 ; 00000012H
  001b9	e8 00 00 00 00	 call	 ??1CPythonItem@@UAE@XZ	; CPythonItem::~CPythonItem
  001be	8d 8f dc 8b 01
	00		 lea	 ecx, DWORD PTR [edi+101340]
  001c4	c6 45 fc 11	 mov	 BYTE PTR __$EHRec$[ebp+8], 17 ; 00000011H
  001c8	e8 00 00 00 00	 call	 ??1CPythonIME@@UAE@XZ	; CPythonIME::~CPythonIME
  001cd	8d 8f 90 81 00
	00		 lea	 ecx, DWORD PTR [edi+33168]
  001d3	e8 00 00 00 00	 call	 ??1CPythonPlayer@@UAE@XZ ; CPythonPlayer::~CPythonPlayer
  001d8	8d 8f 40 08 00
	00		 lea	 ecx, DWORD PTR [edi+2112]
  001de	c6 45 fc 0f	 mov	 BYTE PTR __$EHRec$[ebp+8], 15 ; 0000000fH
  001e2	e8 00 00 00 00	 call	 ??1CPythonNetworkStream@@UAE@XZ ; CPythonNetworkStream::~CPythonNetworkStream
  001e7	8d 8f 9c 07 00
	00		 lea	 ecx, DWORD PTR [edi+1948]
  001ed	c6 45 fc 0e	 mov	 BYTE PTR __$EHRec$[ebp+8], 14 ; 0000000eH
  001f1	e8 00 00 00 00	 call	 ??1CPythonGraphic@@UAE@XZ ; CPythonGraphic::~CPythonGraphic
  001f6	c6 45 fc 0d	 mov	 BYTE PTR __$EHRec$[ebp+8], 13 ; 0000000dH
  001fa	8d 8f 10 07 00
	00		 lea	 ecx, DWORD PTR [edi+1808]
  00200	e8 00 00 00 00	 call	 ??1CServerStateChecker@@UAE@XZ ; CServerStateChecker::~CServerStateChecker
  00205	8d 8f d8 02 00
	00		 lea	 ecx, DWORD PTR [edi+728]
  0020b	c6 45 fc 0c	 mov	 BYTE PTR __$EHRec$[ebp+8], 12 ; 0000000cH
  0020f	e8 00 00 00 00	 call	 ??1CPythonCharacterManager@@UAE@XZ ; CPythonCharacterManager::~CPythonCharacterManager
  00214	8d 8f b0 02 00
	00		 lea	 ecx, DWORD PTR [edi+688]
  0021a	c6 45 fc 0b	 mov	 BYTE PTR __$EHRec$[ebp+8], 11 ; 0000000bH
  0021e	e8 00 00 00 00	 call	 ??1CEffectManager@@UAE@XZ ; CEffectManager::~CEffectManager
  00223	8d 8f 10 02 00
	00		 lea	 ecx, DWORD PTR [edi+528]
  00229	c6 45 fc 0a	 mov	 BYTE PTR __$EHRec$[ebp+8], 10 ; 0000000aH
  0022d	e8 00 00 00 00	 call	 ??1CWindowManager@UI@@UAE@XZ ; UI::CWindowManager::~CWindowManager
; File d:\metin2\metin2\client_source_clean\client_source_clean\source\userinterface\movieman.h

; 36   : 	{

  00232	c7 87 e8 01 00
	00 00 00 00 00	 mov	 DWORD PTR [edi+488], OFFSET ??_7CMovieMan@@6B@

; 37   : 		CoUninitialize();

  0023c	ff 15 00 00 00
	00		 call	 DWORD PTR __imp__CoUninitialize@0
; File d:\metin2\metin2\client_source_clean\client_source_clean\source\userinterface\pythonapplication.cpp

; 103  : }

  00242	8d 8f cc 01 00
	00		 lea	 ecx, DWORD PTR [edi+460]
; File d:\metin2\metin2\client_source_clean\client_source_clean\source\eterbase\singleton.h

; 19   : 	{ 

  00248	c7 87 e8 01 00
	00 00 00 00 00	 mov	 DWORD PTR [edi+488], OFFSET ??_7?$CSingleton@VCMovieMan@@@@6B@

; 20   : 		assert(ms_singleton);
; 21   : 		ms_singleton = 0; 

  00252	c7 05 00 00 00
	00 00 00 00 00	 mov	 DWORD PTR ?ms_singleton@?$CSingleton@VCMovieMan@@@@0PAVCMovieMan@@A, 0 ; CSingleton<CMovieMan>::ms_singleton
; File d:\metin2\metin2\client_source_clean\client_source_clean\source\userinterface\pythonapplication.cpp

; 103  : }

  0025c	c6 45 fc 08	 mov	 BYTE PTR __$EHRec$[ebp+8], 8
  00260	e8 00 00 00 00	 call	 ??1CItemManager@@UAE@XZ	; CItemManager::~CItemManager
  00265	8d 8f b8 01 00
	00		 lea	 ecx, DWORD PTR [edi+440]
  0026b	c6 45 fc 07	 mov	 BYTE PTR __$EHRec$[ebp+8], 7
  0026f	e8 00 00 00 00	 call	 ??1CGameEventManager@@UAE@XZ ; CGameEventManager::~CGameEventManager
  00274	8d 8f 80 01 00
	00		 lea	 ecx, DWORD PTR [edi+384]
  0027a	c6 45 fc 06	 mov	 BYTE PTR __$EHRec$[ebp+8], 6
  0027e	e8 00 00 00 00	 call	 ??1CRaceManager@@UAE@XZ	; CRaceManager::~CRaceManager
  00283	8d 8f 5c 01 00
	00		 lea	 ecx, DWORD PTR [edi+348]
  00289	c6 45 fc 05	 mov	 BYTE PTR __$EHRec$[ebp+8], 5
  0028d	e8 00 00 00 00	 call	 ??1CFlyingManager@@UAE@XZ ; CFlyingManager::~CFlyingManager
  00292	8d 8f e8 00 00
	00		 lea	 ecx, DWORD PTR [edi+232]
  00298	c6 45 fc 04	 mov	 BYTE PTR __$EHRec$[ebp+8], 4
  0029c	e8 00 00 00 00	 call	 ??1CSoundManager@@UAE@XZ ; CSoundManager::~CSoundManager
  002a1	8d 4f 7c	 lea	 ecx, DWORD PTR [edi+124]
  002a4	c6 45 fc 03	 mov	 BYTE PTR __$EHRec$[ebp+8], 3
  002a8	e8 00 00 00 00	 call	 ??1CLightManager@@UAE@XZ ; CLightManager::~CLightManager
  002ad	8d 4f 60	 lea	 ecx, DWORD PTR [edi+96]
  002b0	c6 45 fc 02	 mov	 BYTE PTR __$EHRec$[ebp+8], 2
  002b4	e8 00 00 00 00	 call	 ??1CTimer@@UAE@XZ	; CTimer::~CTimer
  002b9	8d 4f 1c	 lea	 ecx, DWORD PTR [edi+28]
; File d:\metin2\metin2\client_source_clean\client_source_clean\source\userinterface\abstractsingleton.h

; 17   : 	{ 

  002bc	c7 47 20 00 00
	00 00		 mov	 DWORD PTR [edi+32], OFFSET ??_7?$TAbstractSingleton@VIAbstractApplication@@@@6B@

; 18   : 		assert(ms_singleton);
; 19   : 		ms_singleton = 0; 

  002c3	c7 05 00 00 00
	00 00 00 00 00	 mov	 DWORD PTR ?ms_singleton@?$TAbstractSingleton@VIAbstractApplication@@@@0PAVIAbstractApplication@@A, 0 ; TAbstractSingleton<IAbstractApplication>::ms_singleton
; File d:\metin2\metin2\client_source_clean\client_source_clean\source\userinterface\pythonapplication.cpp

; 103  : }

  002cd	c6 45 fc 00	 mov	 BYTE PTR __$EHRec$[ebp+8], 0
  002d1	e8 00 00 00 00	 call	 ??1CInputKeyboard@@UAE@XZ ; CInputKeyboard::~CInputKeyboard
  002d6	8b cf		 mov	 ecx, edi
  002d8	c7 45 fc ff ff
	ff ff		 mov	 DWORD PTR __$EHRec$[ebp+8], -1
  002df	e8 00 00 00 00	 call	 ??1CMSApplication@@UAE@XZ ; CMSApplication::~CMSApplication
  002e4	8b 4d f4	 mov	 ecx, DWORD PTR __$EHRec$[ebp]
  002e7	64 89 0d 00 00
	00 00		 mov	 DWORD PTR fs:0, ecx
  002ee	59		 pop	 ecx
  002ef	5f		 pop	 edi
  002f0	5e		 pop	 esi
  002f1	5b		 pop	 ebx
  002f2	8b e5		 mov	 esp, ebp
  002f4	5d		 pop	 ebp
  002f5	c3		 ret	 0
_TEXT	ENDS
;	COMDAT text$x
text$x	SEGMENT
__unwindfunclet$??1CPythonApplication@@UAE@XZ$0:
  00000	8b 4d f0	 mov	 ecx, DWORD PTR _this$[ebp]
  00003	e9 00 00 00 00	 jmp	 ??1CMSApplication@@UAE@XZ ; CMSApplication::~CMSApplication
__unwindfunclet$??1CPythonApplication@@UAE@XZ$1:
  00008	8b 4d f0	 mov	 ecx, DWORD PTR _this$[ebp]
  0000b	83 c1 1c	 add	 ecx, 28			; 0000001cH
  0000e	e9 00 00 00 00	 jmp	 ??1CInputKeyboard@@UAE@XZ ; CInputKeyboard::~CInputKeyboard
__unwindfunclet$??1CPythonApplication@@UAE@XZ$2:
  00013	8b 4d f0	 mov	 ecx, DWORD PTR _this$[ebp]
  00016	83 c1 20	 add	 ecx, 32			; 00000020H
  00019	e9 00 00 00 00	 jmp	 ??1IAbstractApplication@@UAE@XZ ; IAbstractApplication::~IAbstractApplication
__unwindfunclet$??1CPythonApplication@@UAE@XZ$3:
  0001e	8b 4d f0	 mov	 ecx, DWORD PTR _this$[ebp]
  00021	83 c1 60	 add	 ecx, 96			; 00000060H
  00024	e9 00 00 00 00	 jmp	 ??1CTimer@@UAE@XZ	; CTimer::~CTimer
__unwindfunclet$??1CPythonApplication@@UAE@XZ$4:
  00029	8b 4d f0	 mov	 ecx, DWORD PTR _this$[ebp]
  0002c	83 c1 7c	 add	 ecx, 124		; 0000007cH
  0002f	e9 00 00 00 00	 jmp	 ??1CLightManager@@UAE@XZ ; CLightManager::~CLightManager
__unwindfunclet$??1CPythonApplication@@UAE@XZ$5:
  00034	8b 4d f0	 mov	 ecx, DWORD PTR _this$[ebp]
  00037	81 c1 e8 00 00
	00		 add	 ecx, 232		; 000000e8H
  0003d	e9 00 00 00 00	 jmp	 ??1CSoundManager@@UAE@XZ ; CSoundManager::~CSoundManager
__unwindfunclet$??1CPythonApplication@@UAE@XZ$6:
  00042	8b 4d f0	 mov	 ecx, DWORD PTR _this$[ebp]
  00045	81 c1 5c 01 00
	00		 add	 ecx, 348		; 0000015cH
  0004b	e9 00 00 00 00	 jmp	 ??1CFlyingManager@@UAE@XZ ; CFlyingManager::~CFlyingManager
__unwindfunclet$??1CPythonApplication@@UAE@XZ$7:
  00050	8b 4d f0	 mov	 ecx, DWORD PTR _this$[ebp]
  00053	81 c1 80 01 00
	00		 add	 ecx, 384		; 00000180H
  00059	e9 00 00 00 00	 jmp	 ??1CRaceManager@@UAE@XZ	; CRaceManager::~CRaceManager
__unwindfunclet$??1CPythonApplication@@UAE@XZ$8:
  0005e	8b 4d f0	 mov	 ecx, DWORD PTR _this$[ebp]
  00061	81 c1 b8 01 00
	00		 add	 ecx, 440		; 000001b8H
  00067	e9 00 00 00 00	 jmp	 ??1CGameEventManager@@UAE@XZ ; CGameEventManager::~CGameEventManager
__unwindfunclet$??1CPythonApplication@@UAE@XZ$9:
  0006c	8b 4d f0	 mov	 ecx, DWORD PTR _this$[ebp]
  0006f	81 c1 cc 01 00
	00		 add	 ecx, 460		; 000001ccH
  00075	e9 00 00 00 00	 jmp	 ??1CItemManager@@UAE@XZ	; CItemManager::~CItemManager
__unwindfunclet$??1CPythonApplication@@UAE@XZ$10:
  0007a	8b 4d f0	 mov	 ecx, DWORD PTR _this$[ebp]
  0007d	81 c1 e8 01 00
	00		 add	 ecx, 488		; 000001e8H
  00083	e9 00 00 00 00	 jmp	 ??1CMovieMan@@UAE@XZ	; CMovieMan::~CMovieMan
__unwindfunclet$??1CPythonApplication@@UAE@XZ$11:
  00088	8b 4d f0	 mov	 ecx, DWORD PTR _this$[ebp]
  0008b	81 c1 10 02 00
	00		 add	 ecx, 528		; 00000210H
  00091	e9 00 00 00 00	 jmp	 ??1CWindowManager@UI@@UAE@XZ ; UI::CWindowManager::~CWindowManager
__unwindfunclet$??1CPythonApplication@@UAE@XZ$12:
  00096	8b 4d f0	 mov	 ecx, DWORD PTR _this$[ebp]
  00099	81 c1 b0 02 00
	00		 add	 ecx, 688		; 000002b0H
  0009f	e9 00 00 00 00	 jmp	 ??1CEffectManager@@UAE@XZ ; CEffectManager::~CEffectManager
__unwindfunclet$??1CPythonApplication@@UAE@XZ$13:
  000a4	8b 4d f0	 mov	 ecx, DWORD PTR _this$[ebp]
  000a7	81 c1 d8 02 00
	00		 add	 ecx, 728		; 000002d8H
  000ad	e9 00 00 00 00	 jmp	 ??1CPythonCharacterManager@@UAE@XZ ; CPythonCharacterManager::~CPythonCharacterManager
__unwindfunclet$??1CPythonApplication@@UAE@XZ$14:
  000b2	8b 4d f0	 mov	 ecx, DWORD PTR _this$[ebp]
  000b5	81 c1 10 07 00
	00		 add	 ecx, 1808		; 00000710H
  000bb	e9 00 00 00 00	 jmp	 ??1CServerStateChecker@@UAE@XZ ; CServerStateChecker::~CServerStateChecker
__unwindfunclet$??1CPythonApplication@@UAE@XZ$15:
  000c0	8b 4d f0	 mov	 ecx, DWORD PTR _this$[ebp]
  000c3	81 c1 9c 07 00
	00		 add	 ecx, 1948		; 0000079cH
  000c9	e9 00 00 00 00	 jmp	 ??1CPythonGraphic@@UAE@XZ ; CPythonGraphic::~CPythonGraphic
__unwindfunclet$??1CPythonApplication@@UAE@XZ$16:
  000ce	8b 4d f0	 mov	 ecx, DWORD PTR _this$[ebp]
  000d1	81 c1 40 08 00
	00		 add	 ecx, 2112		; 00000840H
  000d7	e9 00 00 00 00	 jmp	 ??1CPythonNetworkStream@@UAE@XZ ; CPythonNetworkStream::~CPythonNetworkStream
__unwindfunclet$??1CPythonApplication@@UAE@XZ$17:
  000dc	8b 4d f0	 mov	 ecx, DWORD PTR _this$[ebp]
  000df	81 c1 90 81 00
	00		 add	 ecx, 33168		; 00008190H
  000e5	e9 00 00 00 00	 jmp	 ??1CPythonPlayer@@UAE@XZ ; CPythonPlayer::~CPythonPlayer
__unwindfunclet$??1CPythonApplication@@UAE@XZ$18:
  000ea	8b 4d f0	 mov	 ecx, DWORD PTR _this$[ebp]
  000ed	81 c1 dc 8b 01
	00		 add	 ecx, 101340		; 00018bdcH
  000f3	e9 00 00 00 00	 jmp	 ??1CPythonIME@@UAE@XZ	; CPythonIME::~CPythonIME
__unwindfunclet$??1CPythonApplication@@UAE@XZ$19:
  000f8	8b 4d f0	 mov	 ecx, DWORD PTR _this$[ebp]
  000fb	81 c1 08 94 01
	00		 add	 ecx, 103432		; 00019408H
  00101	e9 00 00 00 00	 jmp	 ??1CPythonItem@@UAE@XZ	; CPythonItem::~CPythonItem
__unwindfunclet$??1CPythonApplication@@UAE@XZ$20:
  00106	8b 4d f0	 mov	 ecx, DWORD PTR _this$[ebp]
  00109	81 c1 14 95 01
	00		 add	 ecx, 103700		; 00019514H
  0010f	e9 00 00 00 00	 jmp	 ??1CPythonShop@@UAE@XZ	; CPythonShop::~CPythonShop
__unwindfunclet$??1CPythonApplication@@UAE@XZ$21:
  00114	8b 4d f0	 mov	 ecx, DWORD PTR _this$[ebp]
  00117	81 c1 ac a9 01
	00		 add	 ecx, 108972		; 0001a9acH
  0011d	e9 00 00 00 00	 jmp	 ??1CPythonExchange@@UAE@XZ ; CPythonExchange::~CPythonExchange
__unwindfunclet$??1CPythonApplication@@UAE@XZ$22:
  00122	8b 4d f0	 mov	 ecx, DWORD PTR _this$[ebp]
  00125	81 c1 8c ad 01
	00		 add	 ecx, 109964		; 0001ad8cH
  0012b	e9 00 00 00 00	 jmp	 ??1CPythonChat@@UAE@XZ	; CPythonChat::~CPythonChat
__unwindfunclet$??1CPythonApplication@@UAE@XZ$23:
  00130	8b 4d f0	 mov	 ecx, DWORD PTR _this$[ebp]
  00133	81 c1 60 ae 01
	00		 add	 ecx, 110176		; 0001ae60H
  00139	e9 00 00 00 00	 jmp	 ??1CPythonTextTail@@UAE@XZ ; CPythonTextTail::~CPythonTextTail
__unwindfunclet$??1CPythonApplication@@UAE@XZ$24:
  0013e	8b 4d f0	 mov	 ecx, DWORD PTR _this$[ebp]
  00141	81 c1 b0 ae 01
	00		 add	 ecx, 110256		; 0001aeb0H
  00147	e9 00 00 00 00	 jmp	 ??1CPythonNonPlayer@@UAE@XZ ; CPythonNonPlayer::~CPythonNonPlayer
__unwindfunclet$??1CPythonApplication@@UAE@XZ$25:
  0014c	8b 4d f0	 mov	 ecx, DWORD PTR _this$[ebp]
  0014f	81 c1 bc ae 01
	00		 add	 ecx, 110268		; 0001aebcH
  00155	e9 00 00 00 00	 jmp	 ??1CPythonMiniMap@@UAE@XZ ; CPythonMiniMap::~CPythonMiniMap
__unwindfunclet$??1CPythonApplication@@UAE@XZ$26:
  0015a	8b 4d f0	 mov	 ecx, DWORD PTR _this$[ebp]
  0015d	81 c1 f4 ba 01
	00		 add	 ecx, 113396		; 0001baf4H
  00163	e9 00 00 00 00	 jmp	 ??1CPythonEventManager@@UAE@XZ ; CPythonEventManager::~CPythonEventManager
__unwindfunclet$??1CPythonApplication@@UAE@XZ$27:
  00168	8b 4d f0	 mov	 ecx, DWORD PTR _this$[ebp]
  0016b	81 c1 74 bb 01
	00		 add	 ecx, 113524		; 0001bb74H
  00171	e9 00 00 00 00	 jmp	 ??1CPythonBackground@@UAE@XZ ; CPythonBackground::~CPythonBackground
__unwindfunclet$??1CPythonApplication@@UAE@XZ$28:
  00176	8b 4d f0	 mov	 ecx, DWORD PTR _this$[ebp]
  00179	81 c1 7c d1 01
	00		 add	 ecx, 119164		; 0001d17cH
  0017f	e9 00 00 00 00	 jmp	 ??1CPythonSkill@@UAE@XZ	; CPythonSkill::~CPythonSkill
__unwindfunclet$??1CPythonApplication@@UAE@XZ$29:
  00184	8b 4d f0	 mov	 ecx, DWORD PTR _this$[ebp]
  00187	81 c1 c8 d1 01
	00		 add	 ecx, 119240		; 0001d1c8H
  0018d	e9 00 00 00 00	 jmp	 ??1CPythonResource@@UAE@XZ ; CPythonResource::~CPythonResource
__unwindfunclet$??1CPythonApplication@@UAE@XZ$30:
  00192	8b 4d f0	 mov	 ecx, DWORD PTR _this$[ebp]
  00195	81 c1 10 d2 01
	00		 add	 ecx, 119312		; 0001d210H
  0019b	e9 00 00 00 00	 jmp	 ??1CPythonQuest@@UAE@XZ	; CPythonQuest::~CPythonQuest
__unwindfunclet$??1CPythonApplication@@UAE@XZ$31:
  001a0	8b 4d f0	 mov	 ecx, DWORD PTR _this$[ebp]
  001a3	81 c1 20 d2 01
	00		 add	 ecx, 119328		; 0001d220H
  001a9	e9 00 00 00 00	 jmp	 ??1CPythonMessenger@@UAE@XZ ; CPythonMessenger::~CPythonMessenger
__unwindfunclet$??1CPythonApplication@@UAE@XZ$32:
  001ae	8b 4d f0	 mov	 ecx, DWORD PTR _this$[ebp]
  001b1	81 c1 38 d2 01
	00		 add	 ecx, 119352		; 0001d238H
  001b7	e9 00 00 00 00	 jmp	 ??1CPythonSafeBox@@UAE@XZ ; CPythonSafeBox::~CPythonSafeBox
__unwindfunclet$??1CPythonApplication@@UAE@XZ$33:
  001bc	8b 4d f0	 mov	 ecx, DWORD PTR _this$[ebp]
  001bf	81 c1 58 d2 01
	00		 add	 ecx, 119384		; 0001d258H
  001c5	e9 00 00 00 00	 jmp	 ??1CPythonGuild@@UAE@XZ	; CPythonGuild::~CPythonGuild
__unwindfunclet$??1CPythonApplication@@UAE@XZ$34:
  001ca	8b 4d f0	 mov	 ecx, DWORD PTR _this$[ebp]
  001cd	81 c1 f0 d2 01
	00		 add	 ecx, 119536		; 0001d2f0H
  001d3	e9 00 00 00 00	 jmp	 ??1CGuildMarkManager@@UAE@XZ ; CGuildMarkManager::~CGuildMarkManager
__unwindfunclet$??1CPythonApplication@@UAE@XZ$35:
  001d8	8b 4d f0	 mov	 ecx, DWORD PTR _this$[ebp]
  001db	81 c1 2c d3 01
	00		 add	 ecx, 119596		; 0001d32cH
  001e1	e9 00 00 00 00	 jmp	 ??1CGuildMarkDownloader@@UAE@XZ ; CGuildMarkDownloader::~CGuildMarkDownloader
__unwindfunclet$??1CPythonApplication@@UAE@XZ$36:
  001e6	8b 4d f0	 mov	 ecx, DWORD PTR _this$[ebp]
  001e9	81 c1 dc d3 01
	00		 add	 ecx, 119772		; 0001d3dcH
  001ef	e9 00 00 00 00	 jmp	 ??1CGuildMarkUploader@@UAE@XZ ; CGuildMarkUploader::~CGuildMarkUploader
__unwindfunclet$??1CPythonApplication@@UAE@XZ$37:
  001f4	8b 4d f0	 mov	 ecx, DWORD PTR _this$[ebp]
  001f7	81 c1 7c d7 01
	00		 add	 ecx, 120700		; 0001d77cH
  001fd	e9 00 00 00 00	 jmp	 ??1CAccountConnector@@UAE@XZ ; CAccountConnector::~CAccountConnector
__unwindfunclet$??1CPythonApplication@@UAE@XZ$38:
  00202	8b 4d f0	 mov	 ecx, DWORD PTR _this$[ebp]
  00205	81 c1 54 d8 01
	00		 add	 ecx, 120916		; 0001d854H
  0020b	e9 00 00 00 00	 jmp	 ??1CGraphicDevice@@UAE@XZ ; CGraphicDevice::~CGraphicDevice
__ehhandler$??1CPythonApplication@@UAE@XZ:
  00210	8b 54 24 08	 mov	 edx, DWORD PTR [esp+8]
  00214	8d 42 0c	 lea	 eax, DWORD PTR [edx+12]
  00217	8b 4a e8	 mov	 ecx, DWORD PTR [edx-24]
  0021a	33 c8		 xor	 ecx, eax
  0021c	e8 00 00 00 00	 call	 @__security_check_cookie@4
  00221	b8 00 00 00 00	 mov	 eax, OFFSET __ehfuncinfo$??1CPythonApplication@@UAE@XZ
  00226	e9 00 00 00 00	 jmp	 ___CxxFrameHandler3
text$x	ENDS
??1CPythonApplication@@UAE@XZ ENDP			; CPythonApplication::~CPythonApplication
; Function compile flags: /Ogtp
; File d:\metin2\metin2\client_source_clean\client_source_clean\source\userinterface\pythonapplication.cpp
;	COMDAT ?GetMousePosition@CPythonApplication@@UAEXPAUtagPOINT@@@Z
_TEXT	SEGMENT
_ppt$ = 8						; size = 4
?GetMousePosition@CPythonApplication@@UAEXPAUtagPOINT@@@Z PROC ; CPythonApplication::GetMousePosition, COMDAT
; _this$ = ecx

; 106  : {

  00000	55		 push	 ebp
  00001	8b ec		 mov	 ebp, esp

; 107  : 	CMSApplication::GetMousePosition(ppt);

  00003	83 c1 e0	 add	 ecx, -32		; ffffffe0H

; 108  : }

  00006	5d		 pop	 ebp

; 107  : 	CMSApplication::GetMousePosition(ppt);

  00007	e9 00 00 00 00	 jmp	 ?GetMousePosition@CMSWindow@@QAEXPAUtagPOINT@@@Z ; CMSWindow::GetMousePosition
?GetMousePosition@CPythonApplication@@UAEXPAUtagPOINT@@@Z ENDP ; CPythonApplication::GetMousePosition
_TEXT	ENDS
; Function compile flags: /Ogtp
; File d:\metin2\metin2\client_source_clean\client_source_clean\source\userinterface\pythonapplication.cpp
;	COMDAT ?SetMinFog@CPythonApplication@@QAEXM@Z
_TEXT	SEGMENT
?SetMinFog@CPythonApplication@@QAEXM@Z PROC		; CPythonApplication::SetMinFog, COMDAT
; _this$dead$ = ecx
; _fMinFog$ = xmm1s

; 112  : 	MIN_FOG = fMinFog;

  00000	f3 0f 11 0d 00
	00 00 00	 movss	 DWORD PTR ?MIN_FOG@@3MA, xmm1

; 113  : }

  00008	c3		 ret	 0
?SetMinFog@CPythonApplication@@QAEXM@Z ENDP		; CPythonApplication::SetMinFog
_TEXT	ENDS
; Function compile flags: /Ogtp
; File d:\metin2\metin2\client_source_clean\client_source_clean\source\userinterface\pythonapplication.cpp
;	COMDAT ?SetFrameSkip@CPythonApplication@@QAEX_N@Z
_TEXT	SEGMENT
_isEnable$ = 8						; size = 1
?SetFrameSkip@CPythonApplication@@QAEX_N@Z PROC		; CPythonApplication::SetFrameSkip, COMDAT
; _this$ = ecx

; 116  : {

  00000	55		 push	 ebp
  00001	8b ec		 mov	 ebp, esp

; 117  : 	if (isEnable)

  00003	80 7d 08 00	 cmp	 BYTE PTR _isEnable$[ebp], 0
  00007	0f 94 c0	 sete	 al
  0000a	88 81 91 00 02
	00		 mov	 BYTE PTR [ecx+131217], al

; 118  : 		m_isFrameSkipDisable=false;
; 119  : 	else
; 120  : 		m_isFrameSkipDisable=true;
; 121  : }

  00010	5d		 pop	 ebp
  00011	c2 04 00	 ret	 4
?SetFrameSkip@CPythonApplication@@QAEX_N@Z ENDP		; CPythonApplication::SetFrameSkip
_TEXT	ENDS
; Function compile flags: /Ogtp
; File d:\metin2\metin2\client_source_clean\client_source_clean\source\userinterface\pythonapplication.cpp
;	COMDAT ?GetInfo@CPythonApplication@@QAEXIPAV?$basic_string@DU?$char_traits@D@std@@V?$allocator@D@2@@std@@@Z
_TEXT	SEGMENT
_eInfo$ = 8						; size = 4
_pstInfo$ = 12						; size = 4
?GetInfo@CPythonApplication@@QAEXIPAV?$basic_string@DU?$char_traits@D@std@@V?$allocator@D@2@@std@@@Z PROC ; CPythonApplication::GetInfo, COMDAT
; _this$ = ecx

; 135  : {

  00000	55		 push	 ebp
  00001	8b ec		 mov	 ebp, esp

; 136  : 	switch (eInfo)

  00003	8b 45 08	 mov	 eax, DWORD PTR _eInfo$[ebp]
  00006	83 f8 03	 cmp	 eax, 3
  00009	77 4b		 ja	 SHORT $LN5@GetInfo
  0000b	ff 24 85 00 00
	00 00		 jmp	 DWORD PTR $LN10@GetInfo[eax*4]
$LN4@GetInfo:

; 137  : 	{
; 138  : 	case INFO_ACTOR:
; 139  : 		m_kChrMgr.GetInfo(pstInfo);

  00012	ff 75 0c	 push	 DWORD PTR _pstInfo$[ebp]
  00015	81 c1 d8 02 00
	00		 add	 ecx, 728		; 000002d8H
  0001b	e8 00 00 00 00	 call	 ?GetInfo@CPythonCharacterManager@@QAEXPAV?$basic_string@DU?$char_traits@D@std@@V?$allocator@D@2@@std@@@Z ; CPythonCharacterManager::GetInfo

; 149  : 		break;
; 150  : 	}
; 151  : }

  00020	5d		 pop	 ebp
  00021	c2 08 00	 ret	 8
$LN3@GetInfo:

; 140  : 		break;
; 141  : 	case INFO_EFFECT:
; 142  : 		m_kEftMgr.GetInfo(pstInfo);			

  00024	ff 75 0c	 push	 DWORD PTR _pstInfo$[ebp]
  00027	81 c1 b0 02 00
	00		 add	 ecx, 688		; 000002b0H
  0002d	e8 00 00 00 00	 call	 ?GetInfo@CEffectManager@@QAEXPAV?$basic_string@DU?$char_traits@D@std@@V?$allocator@D@2@@std@@@Z ; CEffectManager::GetInfo

; 149  : 		break;
; 150  : 	}
; 151  : }

  00032	5d		 pop	 ebp
  00033	c2 08 00	 ret	 8
$LN2@GetInfo:

; 143  : 		break;
; 144  : 	case INFO_ITEM:
; 145  : 		m_pyItem.GetInfo(pstInfo);

  00036	ff 75 0c	 push	 DWORD PTR _pstInfo$[ebp]
  00039	81 c1 08 94 01
	00		 add	 ecx, 103432		; 00019408H
  0003f	e8 00 00 00 00	 call	 ?GetInfo@CPythonItem@@QAEXPAV?$basic_string@DU?$char_traits@D@std@@V?$allocator@D@2@@std@@@Z ; CPythonItem::GetInfo

; 149  : 		break;
; 150  : 	}
; 151  : }

  00044	5d		 pop	 ebp
  00045	c2 08 00	 ret	 8
$LN1@GetInfo:

; 146  : 		break;
; 147  : 	case INFO_TEXTTAIL:
; 148  : 		m_pyTextTail.GetInfo(pstInfo);

  00048	ff 75 0c	 push	 DWORD PTR _pstInfo$[ebp]
  0004b	81 c1 60 ae 01
	00		 add	 ecx, 110176		; 0001ae60H
  00051	e8 00 00 00 00	 call	 ?GetInfo@CPythonTextTail@@QAEXPAV?$basic_string@DU?$char_traits@D@std@@V?$allocator@D@2@@std@@@Z ; CPythonTextTail::GetInfo
$LN5@GetInfo:

; 149  : 		break;
; 150  : 	}
; 151  : }

  00056	5d		 pop	 ebp
  00057	c2 08 00	 ret	 8
  0005a	8b ff		 npad	 2
$LN10@GetInfo:
  0005c	00 00 00 00	 DD	 $LN4@GetInfo
  00060	00 00 00 00	 DD	 $LN3@GetInfo
  00064	00 00 00 00	 DD	 $LN2@GetInfo
  00068	00 00 00 00	 DD	 $LN1@GetInfo
?GetInfo@CPythonApplication@@QAEXIPAV?$basic_string@DU?$char_traits@D@std@@V?$allocator@D@2@@std@@@Z ENDP ; CPythonApplication::GetInfo
_TEXT	ENDS
; Function compile flags: /Ogtp
; File d:\metin2\metin2\client_source_clean\client_source_clean\source\userinterface\pythonapplication.cpp
;	COMDAT ?Abort@CPythonApplication@@QAEXXZ
_TEXT	SEGMENT
?Abort@CPythonApplication@@QAEXXZ PROC			; CPythonApplication::Abort, COMDAT
; _this$dead$ = ecx

; 155  : 	TraceError("============================================================================================================");

  00000	68 00 00 00 00	 push	 OFFSET ??_C@_0GN@LLBDNFAM@?$DN?$DN?$DN?$DN?$DN?$DN?$DN?$DN?$DN?$DN?$DN?$DN?$DN?$DN?$DN?$DN?$DN?$DN?$DN?$DN?$DN?$DN?$DN?$DN?$DN?$DN?$DN?$DN?$DN?$DN?$DN?$DN@
  00005	e8 00 00 00 00	 call	 ?TraceError@@YAXPBDZZ	; TraceError

; 156  : 	TraceError("Abort!!!!\n\n");

  0000a	68 00 00 00 00	 push	 OFFSET ??_C@_0M@EHJKIBDK@Abort?$CB?$CB?$CB?$CB?6?6?$AA@
  0000f	e8 00 00 00 00	 call	 ?TraceError@@YAXPBDZZ	; TraceError
  00014	83 c4 08	 add	 esp, 8

; 157  : 
; 158  : 	PostQuitMessage(0);

  00017	6a 00		 push	 0
  00019	ff 15 00 00 00
	00		 call	 DWORD PTR __imp__PostQuitMessage@4

; 159  : }

  0001f	c3		 ret	 0
?Abort@CPythonApplication@@QAEXXZ ENDP			; CPythonApplication::Abort
_TEXT	ENDS
; Function compile flags: /Ogtp
; File d:\metin2\metin2\client_source_clean\client_source_clean\source\userinterface\pythonapplication.cpp
;	COMDAT ?Exit@CPythonApplication@@QAEXXZ
_TEXT	SEGMENT
?Exit@CPythonApplication@@QAEXXZ PROC			; CPythonApplication::Exit, COMDAT
; _this$dead$ = ecx

; 163  : 	PostQuitMessage(0);

  00000	6a 00		 push	 0
  00002	ff 15 00 00 00
	00		 call	 DWORD PTR __imp__PostQuitMessage@4

; 164  : }

  00008	c3		 ret	 0
?Exit@CPythonApplication@@QAEXXZ ENDP			; CPythonApplication::Exit
_TEXT	ENDS
; Function compile flags: /Ogtp
; File d:\metin2\metin2\client_source_clean\client_source_clean\source\userinterface\pythonapplication.cpp
;	COMDAT ?RenderGame@CPythonApplication@@QAEXXZ
_TEXT	SEGMENT
_t9$1$ = -68						; size = 4
_t8$1$ = -64						; size = 4
_lx$1 = -64						; size = 4
_ly$2 = -64						; size = 4
_fAspect$3 = -64					; size = 4
_t7$1$ = -60						; size = 4
_ly$4 = -60						; size = 4
_fAspect$ = -60						; size = 4
_lx$5 = -60						; size = 4
_t1$1$ = -56						; size = 4
_t2$1$ = -52						; size = 4
_t3$1$ = -48						; size = 4
_t4$1$ = -44						; size = 4
_t5$1$ = -40						; size = 4
_t6$1$ = -36						; size = 4
_t10$1$ = -32						; size = 4
_t11$1$ = -28						; size = 4
_t12$1$ = -24						; size = 4
_t13$1$ = -20						; size = 4
_t14$1$ = -16						; size = 4
_t15$1$ = -12						; size = 4
_t16$1$ = -8						; size = 4
_t17$1$ = -4						; size = 4
?RenderGame@CPythonApplication@@QAEXXZ PROC		; CPythonApplication::RenderGame, COMDAT
; _this$ = ecx

; 169  : {	

  00000	55		 push	 ebp
  00001	8b ec		 mov	 ebp, esp
  00003	83 e4 f8	 and	 esp, -8			; fffffff8H
  00006	83 ec 44	 sub	 esp, 68			; 00000044H

; 170  : 	if (!PERF_CHECKER_RENDER_GAME)

  00009	80 3d 00 00 00
	00 00		 cmp	 BYTE PTR ?PERF_CHECKER_RENDER_GAME@@3_NA, 0 ; PERF_CHECKER_RENDER_GAME
  00010	53		 push	 ebx
  00011	56		 push	 esi
  00012	57		 push	 edi
  00013	8b f1		 mov	 esi, ecx
  00015	0f 85 5b 01 00
	00		 jne	 $LN4@RenderGame

; 171  : 	{
; 172  : 		float fAspect=m_kWndMgr.GetAspect();

  0001b	8d 8e 10 02 00
	00		 lea	 ecx, DWORD PTR [esi+528]
  00021	e8 00 00 00 00	 call	 ?GetAspect@CWindowManager@UI@@QAEMXZ ; UI::CWindowManager::GetAspect

; 173  : 		float fFarClip=m_pyBackground.GetFarClip();

  00026	8d 8e 74 bb 01
	00		 lea	 ecx, DWORD PTR [esi+113524]
  0002c	d9 5c 24 10	 fstp	 DWORD PTR _fAspect$3[esp+80]
  00030	e8 00 00 00 00	 call	 ?GetFarClip@CPythonBackground@@QAEMXZ ; CPythonBackground::GetFarClip

; 174  : 
; 175  : 		m_pyGraphic.SetPerspective(30.0f, fAspect, 100.0, fFarClip);

  00035	83 ec 10	 sub	 esp, 16			; 00000010H
  00038	8d 8e 9c 07 00
	00		 lea	 ecx, DWORD PTR [esi+1948]
  0003e	f3 0f 11 44 24
	0c		 movss	 DWORD PTR [esp+12], xmm0
  00044	f3 0f 10 44 24
	20		 movss	 xmm0, DWORD PTR _fAspect$3[esp+96]
  0004a	c7 44 24 08 00
	00 c8 42	 mov	 DWORD PTR [esp+8], 1120403456 ; 42c80000H
  00052	f3 0f 11 44 24
	04		 movss	 DWORD PTR [esp+4], xmm0
  00058	c7 04 24 00 00
	f0 41		 mov	 DWORD PTR [esp], 1106247680 ; 41f00000H
  0005f	e8 00 00 00 00	 call	 ?SetPerspective@CGraphicBase@@QAEXMMMM@Z ; CGraphicBase::SetPerspective

; 176  : 
; 177  : 		CCullingManager::Instance().Process();

  00064	8b 0d 00 00 00
	00		 mov	 ecx, DWORD PTR ?ms_singleton@?$CSingleton@VCCullingManager@@@@0PAVCCullingManager@@A ; CSingleton<CCullingManager>::ms_singleton
  0006a	e8 00 00 00 00	 call	 ?Process@CCullingManager@@QAEXXZ ; CCullingManager::Process

; 178  : 
; 179  : 		m_kChrMgr.Deform();

  0006f	8d 8e d8 02 00
	00		 lea	 ecx, DWORD PTR [esi+728]
  00075	e8 00 00 00 00	 call	 ?Deform@CPythonCharacterManager@@QAEXXZ ; CPythonCharacterManager::Deform

; 180  : 		m_kEftMgr.Update();

  0007a	8b ce		 mov	 ecx, esi
  0007c	8d 89 b0 02 00
	00		 lea	 ecx, DWORD PTR [ecx+688]
  00082	e8 00 00 00 00	 call	 ?Update@CEffectManager@@QAEXXZ ; CEffectManager::Update

; 181  : 
; 182  : 		m_pyBackground.RenderCharacterShadowToTexture();

  00087	8b ce		 mov	 ecx, esi
  00089	8d 89 74 bb 01
	00		 lea	 ecx, DWORD PTR [ecx+113524]
  0008f	e8 00 00 00 00	 call	 ?RenderCharacterShadowToTexture@CPythonBackground@@QAEXXZ ; CPythonBackground::RenderCharacterShadowToTexture

; 183  : 
; 184  : 		m_pyGraphic.SetGameRenderState();

  00094	8d 8e 9c 07 00
	00		 lea	 ecx, DWORD PTR [esi+1948]
  0009a	e8 00 00 00 00	 call	 ?SetGameRenderState@CPythonGraphic@@QAEXXZ ; CPythonGraphic::SetGameRenderState

; 185  : 		m_pyGraphic.PushState();

  0009f	8d 8e 9c 07 00
	00		 lea	 ecx, DWORD PTR [esi+1948]
  000a5	e8 00 00 00 00	 call	 ?PushState@CPythonGraphic@@QAEXXZ ; CPythonGraphic::PushState

; 186  : 
; 187  : 		{
; 188  : 			long lx, ly;
; 189  : 			m_kWndMgr.GetMousePosition(lx, ly);

  000aa	8d 44 24 10	 lea	 eax, DWORD PTR _ly$2[esp+80]
  000ae	50		 push	 eax
  000af	8d 44 24 18	 lea	 eax, DWORD PTR _lx$5[esp+84]
  000b3	50		 push	 eax
  000b4	8d 8e 10 02 00
	00		 lea	 ecx, DWORD PTR [esi+528]
  000ba	e8 00 00 00 00	 call	 ?GetMousePosition@CWindowManager@UI@@QAEXAAJ0@Z ; UI::CWindowManager::GetMousePosition

; 190  : 			m_pyGraphic.SetCursorPosition(lx, ly);

  000bf	ff 74 24 10	 push	 DWORD PTR _ly$2[esp+80]
  000c3	8d 8e 9c 07 00
	00		 lea	 ecx, DWORD PTR [esi+1948]
  000c9	ff 74 24 18	 push	 DWORD PTR _lx$5[esp+84]
  000cd	e8 00 00 00 00	 call	 ?SetCursorPosition@CPythonGraphic@@QAEXHH@Z ; CPythonGraphic::SetCursorPosition

; 191  : 		}
; 192  : 
; 193  : 		m_pyBackground.RenderSky();

  000d2	8b fe		 mov	 edi, esi
  000d4	8d 9f 74 bb 01
	00		 lea	 ebx, DWORD PTR [edi+113524]
  000da	8b cb		 mov	 ecx, ebx
  000dc	e8 00 00 00 00	 call	 ?RenderSky@CPythonBackground@@QAEXXZ ; CPythonBackground::RenderSky

; 194  : 
; 195  : 		m_pyBackground.RenderBeforeLensFlare();

  000e1	8b cb		 mov	 ecx, ebx
  000e3	e8 00 00 00 00	 call	 ?RenderBeforeLensFlare@CPythonBackground@@QAEXXZ ; CPythonBackground::RenderBeforeLensFlare

; 196  : 
; 197  : 		m_pyBackground.RenderCloud();

  000e8	8b cb		 mov	 ecx, ebx
  000ea	e8 00 00 00 00	 call	 ?RenderCloud@CPythonBackground@@QAEXXZ ; CPythonBackground::RenderCloud

; 198  : 
; 199  : 		m_pyBackground.BeginEnvironment();

  000ef	8b cb		 mov	 ecx, ebx
  000f1	e8 00 00 00 00	 call	 ?BeginEnvironment@CMapManager@@QAEXXZ ; CMapManager::BeginEnvironment

; 200  : 		m_pyBackground.Render();

  000f6	8b cb		 mov	 ecx, ebx
  000f8	e8 00 00 00 00	 call	 ?Render@CPythonBackground@@QAEXXZ ; CPythonBackground::Render

; 201  : 
; 202  : 		m_pyBackground.SetCharacterDirLight();

  000fd	8b cb		 mov	 ecx, ebx
  000ff	e8 00 00 00 00	 call	 ?SetCharacterDirLight@CPythonBackground@@QAEXXZ ; CPythonBackground::SetCharacterDirLight

; 203  : 		m_kChrMgr.Render();

  00104	8d 8e d8 02 00
	00		 lea	 ecx, DWORD PTR [esi+728]
  0010a	e8 00 00 00 00	 call	 ?Render@CPythonCharacterManager@@QAEXXZ ; CPythonCharacterManager::Render

; 204  : 
; 205  : 		m_pyBackground.SetBackgroundDirLight();

  0010f	8b cb		 mov	 ecx, ebx
  00111	e8 00 00 00 00	 call	 ?SetBackgroundDirLight@CPythonBackground@@QAEXXZ ; CPythonBackground::SetBackgroundDirLight

; 206  : 		m_pyBackground.RenderWater();

  00116	8b cb		 mov	 ecx, ebx
  00118	e8 00 00 00 00	 call	 ?RenderWater@CPythonBackground@@QAEXXZ ; CPythonBackground::RenderWater

; 207  : 		m_pyBackground.RenderSnow();

  0011d	8b cb		 mov	 ecx, ebx
  0011f	e8 00 00 00 00	 call	 ?RenderSnow@CPythonBackground@@QAEXXZ ; CPythonBackground::RenderSnow

; 208  : 		m_pyBackground.RenderEffect();

  00124	8b cb		 mov	 ecx, ebx
  00126	e8 00 00 00 00	 call	 ?RenderEffect@CPythonBackground@@QAEXXZ ; CPythonBackground::RenderEffect

; 209  : 
; 210  : 		m_pyBackground.EndEnvironment();

  0012b	8b cb		 mov	 ecx, ebx
  0012d	e8 00 00 00 00	 call	 ?EndEnvironment@CMapManager@@QAEXXZ ; CMapManager::EndEnvironment

; 211  : 
; 212  : 		m_kEftMgr.Render();

  00132	8d 8f b0 02 00
	00		 lea	 ecx, DWORD PTR [edi+688]
  00138	e8 00 00 00 00	 call	 ?Render@CEffectManager@@QAEXXZ ; CEffectManager::Render

; 213  : 		m_pyItem.Render();

  0013d	8d 8f 08 94 01
	00		 lea	 ecx, DWORD PTR [edi+103432]
  00143	e8 00 00 00 00	 call	 ?Render@CPythonItem@@QAEXXZ ; CPythonItem::Render

; 214  : 		m_FlyingManager.Render();

  00148	8d 8f 5c 01 00
	00		 lea	 ecx, DWORD PTR [edi+348]
  0014e	e8 00 00 00 00	 call	 ?Render@CFlyingManager@@QAEXXZ ; CFlyingManager::Render

; 215  : 
; 216  : 		m_pyBackground.BeginEnvironment();

  00153	8b cb		 mov	 ecx, ebx
  00155	e8 00 00 00 00	 call	 ?BeginEnvironment@CMapManager@@QAEXXZ ; CMapManager::BeginEnvironment

; 217  : 		m_pyBackground.RenderPCBlocker();

  0015a	8b cb		 mov	 ecx, ebx
  0015c	e8 00 00 00 00	 call	 ?RenderPCBlocker@CPythonBackground@@QAEXXZ ; CPythonBackground::RenderPCBlocker

; 218  : 		m_pyBackground.EndEnvironment();

  00161	8b cb		 mov	 ecx, ebx
  00163	e8 00 00 00 00	 call	 ?EndEnvironment@CMapManager@@QAEXXZ ; CMapManager::EndEnvironment

; 219  : 
; 220  : 		m_pyBackground.RenderAfterLensFlare();

  00168	8b cb		 mov	 ecx, ebx
  0016a	e8 00 00 00 00	 call	 ?RenderAfterLensFlare@CPythonBackground@@QAEXXZ ; CPythonBackground::RenderAfterLensFlare

; 319  : }

  0016f	5f		 pop	 edi
  00170	5e		 pop	 esi
  00171	5b		 pop	 ebx
  00172	8b e5		 mov	 esp, ebp
  00174	5d		 pop	 ebp
  00175	c3		 ret	 0
$LN4@RenderGame:

; 221  : 
; 222  : 		return;
; 223  : 	}
; 224  : 
; 225  : 	//if (GetAsyncKeyState(VK_Z))
; 226  : 	//	STATEMANAGER.SetRenderState(D3DRS_FILLMODE, D3DFILL_WIREFRAME);
; 227  : 
; 228  : 	DWORD t1=ELTimer_GetMSec();

  00176	e8 00 00 00 00	 call	 ?ELTimer_GetMSec@@YAKXZ	; ELTimer_GetMSec

; 229  : 	m_kChrMgr.Deform();

  0017b	8d 9e d8 02 00
	00		 lea	 ebx, DWORD PTR [esi+728]
  00181	89 44 24 18	 mov	 DWORD PTR _t1$1$[esp+80], eax
  00185	8b cb		 mov	 ecx, ebx
  00187	e8 00 00 00 00	 call	 ?Deform@CPythonCharacterManager@@QAEXXZ ; CPythonCharacterManager::Deform

; 230  : 	DWORD t2=ELTimer_GetMSec();

  0018c	e8 00 00 00 00	 call	 ?ELTimer_GetMSec@@YAKXZ	; ELTimer_GetMSec

; 231  : 	m_kEftMgr.Update();

  00191	8d 8e b0 02 00
	00		 lea	 ecx, DWORD PTR [esi+688]
  00197	89 44 24 1c	 mov	 DWORD PTR _t2$1$[esp+80], eax
  0019b	e8 00 00 00 00	 call	 ?Update@CEffectManager@@QAEXXZ ; CEffectManager::Update

; 232  : 	DWORD t3=ELTimer_GetMSec();

  001a0	e8 00 00 00 00	 call	 ?ELTimer_GetMSec@@YAKXZ	; ELTimer_GetMSec

; 233  : 	m_pyBackground.RenderCharacterShadowToTexture();

  001a5	8d 8e 74 bb 01
	00		 lea	 ecx, DWORD PTR [esi+113524]
  001ab	89 44 24 20	 mov	 DWORD PTR _t3$1$[esp+80], eax
  001af	e8 00 00 00 00	 call	 ?RenderCharacterShadowToTexture@CPythonBackground@@QAEXXZ ; CPythonBackground::RenderCharacterShadowToTexture

; 234  : 	DWORD t4=ELTimer_GetMSec();

  001b4	e8 00 00 00 00	 call	 ?ELTimer_GetMSec@@YAKXZ	; ELTimer_GetMSec

; 235  : 
; 236  : 	m_pyGraphic.SetGameRenderState();

  001b9	8d 8e 9c 07 00
	00		 lea	 ecx, DWORD PTR [esi+1948]
  001bf	89 44 24 24	 mov	 DWORD PTR _t4$1$[esp+80], eax
  001c3	e8 00 00 00 00	 call	 ?SetGameRenderState@CPythonGraphic@@QAEXXZ ; CPythonGraphic::SetGameRenderState

; 237  : 	m_pyGraphic.PushState();

  001c8	8d 8e 9c 07 00
	00		 lea	 ecx, DWORD PTR [esi+1948]
  001ce	e8 00 00 00 00	 call	 ?PushState@CPythonGraphic@@QAEXXZ ; CPythonGraphic::PushState

; 238  : 
; 239  : 	float fAspect=m_kWndMgr.GetAspect();

  001d3	8d 8e 10 02 00
	00		 lea	 ecx, DWORD PTR [esi+528]
  001d9	e8 00 00 00 00	 call	 ?GetAspect@CWindowManager@UI@@QAEMXZ ; UI::CWindowManager::GetAspect

; 240  : 	float fFarClip=m_pyBackground.GetFarClip();

  001de	8b ce		 mov	 ecx, esi
  001e0	d9 5c 24 14	 fstp	 DWORD PTR _fAspect$[esp+80]
  001e4	8d 89 74 bb 01
	00		 lea	 ecx, DWORD PTR [ecx+113524]
  001ea	e8 00 00 00 00	 call	 ?GetFarClip@CPythonBackground@@QAEMXZ ; CPythonBackground::GetFarClip

; 241  : 
; 242  : 	m_pyGraphic.SetPerspective(30.0f, fAspect, 100.0, fFarClip);

  001ef	83 ec 10	 sub	 esp, 16			; 00000010H
  001f2	8d 8e 9c 07 00
	00		 lea	 ecx, DWORD PTR [esi+1948]
  001f8	f3 0f 11 44 24
	0c		 movss	 DWORD PTR [esp+12], xmm0
  001fe	f3 0f 10 44 24
	24		 movss	 xmm0, DWORD PTR _fAspect$[esp+96]
  00204	c7 44 24 08 00
	00 c8 42	 mov	 DWORD PTR [esp+8], 1120403456 ; 42c80000H
  0020c	f3 0f 11 44 24
	04		 movss	 DWORD PTR [esp+4], xmm0
  00212	c7 04 24 00 00
	f0 41		 mov	 DWORD PTR [esp], 1106247680 ; 41f00000H
  00219	e8 00 00 00 00	 call	 ?SetPerspective@CGraphicBase@@QAEXMMMM@Z ; CGraphicBase::SetPerspective

; 243  : 
; 244  : 	DWORD t5=ELTimer_GetMSec();

  0021e	e8 00 00 00 00	 call	 ?ELTimer_GetMSec@@YAKXZ	; ELTimer_GetMSec

; 245  : 
; 246  : 	CCullingManager::Instance().Process();

  00223	8b 0d 00 00 00
	00		 mov	 ecx, DWORD PTR ?ms_singleton@?$CSingleton@VCCullingManager@@@@0PAVCCullingManager@@A ; CSingleton<CCullingManager>::ms_singleton
  00229	89 44 24 28	 mov	 DWORD PTR _t5$1$[esp+80], eax
  0022d	e8 00 00 00 00	 call	 ?Process@CCullingManager@@QAEXXZ ; CCullingManager::Process

; 247  : 
; 248  : 	DWORD t6=ELTimer_GetMSec();

  00232	e8 00 00 00 00	 call	 ?ELTimer_GetMSec@@YAKXZ	; ELTimer_GetMSec
  00237	89 44 24 2c	 mov	 DWORD PTR _t6$1$[esp+80], eax

; 249  : 
; 250  : 	{
; 251  : 		long lx, ly;
; 252  : 		m_kWndMgr.GetMousePosition(lx, ly);

  0023b	8d 8e 10 02 00
	00		 lea	 ecx, DWORD PTR [esi+528]
  00241	8d 44 24 14	 lea	 eax, DWORD PTR _ly$4[esp+80]
  00245	50		 push	 eax
  00246	8d 44 24 14	 lea	 eax, DWORD PTR _lx$1[esp+84]
  0024a	50		 push	 eax
  0024b	e8 00 00 00 00	 call	 ?GetMousePosition@CWindowManager@UI@@QAEXAAJ0@Z ; UI::CWindowManager::GetMousePosition

; 253  : 		m_pyGraphic.SetCursorPosition(lx, ly);

  00250	ff 74 24 14	 push	 DWORD PTR _ly$4[esp+80]
  00254	8d 8e 9c 07 00
	00		 lea	 ecx, DWORD PTR [esi+1948]
  0025a	ff 74 24 14	 push	 DWORD PTR _lx$1[esp+84]
  0025e	e8 00 00 00 00	 call	 ?SetCursorPosition@CPythonGraphic@@QAEXHH@Z ; CPythonGraphic::SetCursorPosition

; 254  : 	}
; 255  : 
; 256  : 	m_pyBackground.RenderSky();

  00263	8b fe		 mov	 edi, esi
  00265	8d b7 74 bb 01
	00		 lea	 esi, DWORD PTR [edi+113524]
  0026b	8b ce		 mov	 ecx, esi
  0026d	e8 00 00 00 00	 call	 ?RenderSky@CPythonBackground@@QAEXXZ ; CPythonBackground::RenderSky

; 257  : 	DWORD t7=ELTimer_GetMSec();

  00272	e8 00 00 00 00	 call	 ?ELTimer_GetMSec@@YAKXZ	; ELTimer_GetMSec

; 258  : 	m_pyBackground.RenderBeforeLensFlare();

  00277	8b ce		 mov	 ecx, esi
  00279	89 44 24 14	 mov	 DWORD PTR _t7$1$[esp+80], eax
  0027d	e8 00 00 00 00	 call	 ?RenderBeforeLensFlare@CPythonBackground@@QAEXXZ ; CPythonBackground::RenderBeforeLensFlare

; 259  : 	DWORD t8=ELTimer_GetMSec();

  00282	e8 00 00 00 00	 call	 ?ELTimer_GetMSec@@YAKXZ	; ELTimer_GetMSec

; 260  : 	m_pyBackground.RenderCloud();

  00287	8b ce		 mov	 ecx, esi
  00289	89 44 24 10	 mov	 DWORD PTR _t8$1$[esp+80], eax
  0028d	e8 00 00 00 00	 call	 ?RenderCloud@CPythonBackground@@QAEXXZ ; CPythonBackground::RenderCloud

; 261  : 	DWORD t9=ELTimer_GetMSec();

  00292	e8 00 00 00 00	 call	 ?ELTimer_GetMSec@@YAKXZ	; ELTimer_GetMSec

; 262  : 	m_pyBackground.BeginEnvironment();

  00297	8b ce		 mov	 ecx, esi
  00299	89 44 24 0c	 mov	 DWORD PTR _t9$1$[esp+80], eax
  0029d	e8 00 00 00 00	 call	 ?BeginEnvironment@CMapManager@@QAEXXZ ; CMapManager::BeginEnvironment

; 263  : 	m_pyBackground.Render();

  002a2	8b ce		 mov	 ecx, esi
  002a4	e8 00 00 00 00	 call	 ?Render@CPythonBackground@@QAEXXZ ; CPythonBackground::Render

; 264  : 
; 265  : 	m_pyBackground.SetCharacterDirLight();

  002a9	8b ce		 mov	 ecx, esi
  002ab	e8 00 00 00 00	 call	 ?SetCharacterDirLight@CPythonBackground@@QAEXXZ ; CPythonBackground::SetCharacterDirLight

; 266  : 	DWORD t10=ELTimer_GetMSec();

  002b0	e8 00 00 00 00	 call	 ?ELTimer_GetMSec@@YAKXZ	; ELTimer_GetMSec

; 267  : 	m_kChrMgr.Render();

  002b5	8b cb		 mov	 ecx, ebx
  002b7	89 44 24 30	 mov	 DWORD PTR _t10$1$[esp+80], eax
  002bb	e8 00 00 00 00	 call	 ?Render@CPythonCharacterManager@@QAEXXZ ; CPythonCharacterManager::Render

; 268  : 	DWORD t11=ELTimer_GetMSec();

  002c0	e8 00 00 00 00	 call	 ?ELTimer_GetMSec@@YAKXZ	; ELTimer_GetMSec

; 269  : 
; 270  : 	m_pyBackground.SetBackgroundDirLight();

  002c5	8b ce		 mov	 ecx, esi
  002c7	89 44 24 34	 mov	 DWORD PTR _t11$1$[esp+80], eax
  002cb	e8 00 00 00 00	 call	 ?SetBackgroundDirLight@CPythonBackground@@QAEXXZ ; CPythonBackground::SetBackgroundDirLight

; 271  : 	m_pyBackground.RenderWater();

  002d0	8b ce		 mov	 ecx, esi
  002d2	e8 00 00 00 00	 call	 ?RenderWater@CPythonBackground@@QAEXXZ ; CPythonBackground::RenderWater

; 272  : 	DWORD t12=ELTimer_GetMSec();

  002d7	e8 00 00 00 00	 call	 ?ELTimer_GetMSec@@YAKXZ	; ELTimer_GetMSec
  002dc	89 44 24 38	 mov	 DWORD PTR _t12$1$[esp+80], eax

; 273  : 	m_pyBackground.RenderEffect();

  002e0	8b ce		 mov	 ecx, esi
  002e2	e8 00 00 00 00	 call	 ?RenderEffect@CPythonBackground@@QAEXXZ ; CPythonBackground::RenderEffect

; 274  : 	DWORD t13=ELTimer_GetMSec();

  002e7	e8 00 00 00 00	 call	 ?ELTimer_GetMSec@@YAKXZ	; ELTimer_GetMSec

; 275  : 	m_pyBackground.EndEnvironment();

  002ec	8b ce		 mov	 ecx, esi
  002ee	89 44 24 3c	 mov	 DWORD PTR _t13$1$[esp+80], eax
  002f2	e8 00 00 00 00	 call	 ?EndEnvironment@CMapManager@@QAEXXZ ; CMapManager::EndEnvironment

; 276  : 	m_kEftMgr.Render();

  002f7	8d 8f b0 02 00
	00		 lea	 ecx, DWORD PTR [edi+688]
  002fd	e8 00 00 00 00	 call	 ?Render@CEffectManager@@QAEXXZ ; CEffectManager::Render

; 277  : 	DWORD t14=ELTimer_GetMSec();

  00302	e8 00 00 00 00	 call	 ?ELTimer_GetMSec@@YAKXZ	; ELTimer_GetMSec

; 278  : 	m_pyItem.Render();

  00307	8d 8f 08 94 01
	00		 lea	 ecx, DWORD PTR [edi+103432]
  0030d	89 44 24 40	 mov	 DWORD PTR _t14$1$[esp+80], eax
  00311	e8 00 00 00 00	 call	 ?Render@CPythonItem@@QAEXXZ ; CPythonItem::Render

; 279  : 	DWORD t15=ELTimer_GetMSec();

  00316	e8 00 00 00 00	 call	 ?ELTimer_GetMSec@@YAKXZ	; ELTimer_GetMSec

; 280  : 	m_FlyingManager.Render();

  0031b	8d 8f 5c 01 00
	00		 lea	 ecx, DWORD PTR [edi+348]
  00321	89 44 24 44	 mov	 DWORD PTR _t15$1$[esp+80], eax
  00325	e8 00 00 00 00	 call	 ?Render@CFlyingManager@@QAEXXZ ; CFlyingManager::Render

; 281  : 	DWORD t16=ELTimer_GetMSec();

  0032a	e8 00 00 00 00	 call	 ?ELTimer_GetMSec@@YAKXZ	; ELTimer_GetMSec

; 282  : 	m_pyBackground.BeginEnvironment();

  0032f	8b ce		 mov	 ecx, esi
  00331	89 44 24 48	 mov	 DWORD PTR _t16$1$[esp+80], eax
  00335	e8 00 00 00 00	 call	 ?BeginEnvironment@CMapManager@@QAEXXZ ; CMapManager::BeginEnvironment

; 283  : 	m_pyBackground.RenderPCBlocker();

  0033a	8b ce		 mov	 ecx, esi
  0033c	e8 00 00 00 00	 call	 ?RenderPCBlocker@CPythonBackground@@QAEXXZ ; CPythonBackground::RenderPCBlocker

; 284  : 	m_pyBackground.EndEnvironment();

  00341	8b ce		 mov	 ecx, esi
  00343	e8 00 00 00 00	 call	 ?EndEnvironment@CMapManager@@QAEXXZ ; CMapManager::EndEnvironment

; 285  : 	DWORD t17=ELTimer_GetMSec();

  00348	e8 00 00 00 00	 call	 ?ELTimer_GetMSec@@YAKXZ	; ELTimer_GetMSec

; 286  : 	m_pyBackground.RenderAfterLensFlare();

  0034d	8b ce		 mov	 ecx, esi
  0034f	89 44 24 4c	 mov	 DWORD PTR _t17$1$[esp+80], eax
  00353	e8 00 00 00 00	 call	 ?RenderAfterLensFlare@CPythonBackground@@QAEXXZ ; CPythonBackground::RenderAfterLensFlare

; 287  : 	DWORD t18=ELTimer_GetMSec();

  00358	e8 00 00 00 00	 call	 ?ELTimer_GetMSec@@YAKXZ	; ELTimer_GetMSec
  0035d	8b f8		 mov	 edi, eax

; 288  : 	DWORD tEnd=ELTimer_GetMSec();

  0035f	e8 00 00 00 00	 call	 ?ELTimer_GetMSec@@YAKXZ	; ELTimer_GetMSec

; 289  : 
; 290  : 	if (GetAsyncKeyState(VK_Z))

  00364	6a 5a		 push	 90			; 0000005aH
  00366	8b f0		 mov	 esi, eax
  00368	ff 15 00 00 00
	00		 call	 DWORD PTR __imp__GetAsyncKeyState@4
  0036e	66 85 c0	 test	 ax, ax
  00371	74 0f		 je	 SHORT $LN3@RenderGame

; 291  : 		STATEMANAGER.SetRenderState(D3DRS_FILLMODE, D3DFILL_SOLID);

  00373	8b 0d 00 00 00
	00		 mov	 ecx, DWORD PTR ?ms_singleton@?$CSingleton@VCStateManager@@@@0PAVCStateManager@@A ; CSingleton<CStateManager>::ms_singleton
  00379	6a 03		 push	 3
  0037b	6a 08		 push	 8
  0037d	e8 00 00 00 00	 call	 ?SetRenderState@CStateManager@@QAEXW4_D3DRENDERSTATETYPE@@K@Z ; CStateManager::SetRenderState
$LN3@RenderGame:

; 292  : 
; 293  : 	if (tEnd-t1<3)

  00382	8b 5c 24 18	 mov	 ebx, DWORD PTR _t1$1$[esp+80]
  00386	2b f3		 sub	 esi, ebx
  00388	83 fe 03	 cmp	 esi, 3
  0038b	0f 82 23 02 00
	00		 jb	 $LN5@RenderGame

; 294  : 		return;
; 295  : 
; 296  : 	static FILE* fp=fopen("perf_game_render.txt", "w");

  00391	a1 00 00 00 00	 mov	 eax, DWORD PTR ?$S1@?L@??RenderGame@CPythonApplication@@QAEXXZ@4IA
  00396	a8 01		 test	 al, 1
  00398	75 1f		 jne	 SHORT $LN1@RenderGame
  0039a	83 c8 01	 or	 eax, 1
  0039d	68 00 00 00 00	 push	 OFFSET ??_C@_01NOFIACDB@w?$AA@
  003a2	68 00 00 00 00	 push	 OFFSET ??_C@_0BF@OHHAPIAL@perf_game_render?4txt?$AA@
  003a7	a3 00 00 00 00	 mov	 DWORD PTR ?$S1@?L@??RenderGame@CPythonApplication@@QAEXXZ@4IA, eax
  003ac	e8 00 00 00 00	 call	 _fopen
  003b1	83 c4 08	 add	 esp, 8
  003b4	a3 00 00 00 00	 mov	 DWORD PTR ?fp@?L@??RenderGame@CPythonApplication@@QAEXXZ@4PAU_iobuf@@A, eax
$LN1@RenderGame:

; 297  : 
; 298  : 	fprintf(fp, "GR.Total %d (Time %d)\n", tEnd-t1, ELTimer_GetMSec());

  003b9	e8 00 00 00 00	 call	 ?ELTimer_GetMSec@@YAKXZ	; ELTimer_GetMSec
  003be	50		 push	 eax
  003bf	56		 push	 esi
  003c0	68 00 00 00 00	 push	 OFFSET ??_C@_0BH@GCCBAEAA@GR?4Total?5?$CFd?5?$CITime?5?$CFd?$CJ?6?$AA@
  003c5	ff 35 00 00 00
	00		 push	 DWORD PTR ?fp@?L@??RenderGame@CPythonApplication@@QAEXXZ@4PAU_iobuf@@A
  003cb	e8 00 00 00 00	 call	 _fprintf

; 299  : 	fprintf(fp, "GR.DFM %d\n", t2-t1);

  003d0	8b 44 24 2c	 mov	 eax, DWORD PTR _t2$1$[esp+96]
  003d4	2b c3		 sub	 eax, ebx
  003d6	50		 push	 eax
  003d7	68 00 00 00 00	 push	 OFFSET ??_C@_0L@EGAPCDKD@GR?4DFM?5?$CFd?6?$AA@
  003dc	ff 35 00 00 00
	00		 push	 DWORD PTR ?fp@?L@??RenderGame@CPythonApplication@@QAEXXZ@4PAU_iobuf@@A
  003e2	e8 00 00 00 00	 call	 _fprintf

; 300  : 	fprintf(fp, "GR.EFT.UP %d\n", t3-t2);

  003e7	8b 44 24 3c	 mov	 eax, DWORD PTR _t3$1$[esp+108]
  003eb	83 c4 1c	 add	 esp, 28			; 0000001cH
  003ee	2b 44 24 1c	 sub	 eax, DWORD PTR _t2$1$[esp+80]
  003f2	50		 push	 eax
  003f3	68 00 00 00 00	 push	 OFFSET ??_C@_0O@PLGAMGBI@GR?4EFT?4UP?5?$CFd?6?$AA@
  003f8	ff 35 00 00 00
	00		 push	 DWORD PTR ?fp@?L@??RenderGame@CPythonApplication@@QAEXXZ@4PAU_iobuf@@A
  003fe	e8 00 00 00 00	 call	 _fprintf

; 301  : 	fprintf(fp, "GR.SHW %d\n", t4-t3);

  00403	8b 44 24 30	 mov	 eax, DWORD PTR _t4$1$[esp+92]
  00407	83 c4 0c	 add	 esp, 12			; 0000000cH
  0040a	2b 44 24 20	 sub	 eax, DWORD PTR _t3$1$[esp+80]
  0040e	50		 push	 eax
  0040f	68 00 00 00 00	 push	 OFFSET ??_C@_0L@MCADEBDB@GR?4SHW?5?$CFd?6?$AA@
  00414	ff 35 00 00 00
	00		 push	 DWORD PTR ?fp@?L@??RenderGame@CPythonApplication@@QAEXXZ@4PAU_iobuf@@A
  0041a	e8 00 00 00 00	 call	 _fprintf

; 302  : 	fprintf(fp, "GR.STT %d\n", t5-t4);

  0041f	8b 44 24 34	 mov	 eax, DWORD PTR _t5$1$[esp+92]
  00423	83 c4 0c	 add	 esp, 12			; 0000000cH
  00426	2b 44 24 24	 sub	 eax, DWORD PTR _t4$1$[esp+80]
  0042a	50		 push	 eax
  0042b	68 00 00 00 00	 push	 OFFSET ??_C@_0L@OEOJMFCF@GR?4STT?5?$CFd?6?$AA@
  00430	ff 35 00 00 00
	00		 push	 DWORD PTR ?fp@?L@??RenderGame@CPythonApplication@@QAEXXZ@4PAU_iobuf@@A
  00436	e8 00 00 00 00	 call	 _fprintf

; 303  : 	fprintf(fp, "GR.CLL %d\n", t6-t5);

  0043b	8b 44 24 38	 mov	 eax, DWORD PTR _t6$1$[esp+92]
  0043f	83 c4 0c	 add	 esp, 12			; 0000000cH
  00442	2b 44 24 28	 sub	 eax, DWORD PTR _t5$1$[esp+80]
  00446	50		 push	 eax
  00447	68 00 00 00 00	 push	 OFFSET ??_C@_0L@CDOGKGFB@GR?4CLL?5?$CFd?6?$AA@
  0044c	ff 35 00 00 00
	00		 push	 DWORD PTR ?fp@?L@??RenderGame@CPythonApplication@@QAEXXZ@4PAU_iobuf@@A
  00452	e8 00 00 00 00	 call	 _fprintf

; 304  : 	fprintf(fp, "GR.BG.SKY %d\n", t7-t6);

  00457	8b 44 24 20	 mov	 eax, DWORD PTR _t7$1$[esp+92]
  0045b	83 c4 0c	 add	 esp, 12			; 0000000cH
  0045e	2b 44 24 2c	 sub	 eax, DWORD PTR _t6$1$[esp+80]
  00462	50		 push	 eax
  00463	68 00 00 00 00	 push	 OFFSET ??_C@_0O@HPKPMDPE@GR?4BG?4SKY?5?$CFd?6?$AA@
  00468	ff 35 00 00 00
	00		 push	 DWORD PTR ?fp@?L@??RenderGame@CPythonApplication@@QAEXXZ@4PAU_iobuf@@A
  0046e	e8 00 00 00 00	 call	 _fprintf

; 305  : 	fprintf(fp, "GR.BG.LEN %d\n", t8-t7);

  00473	8b 44 24 1c	 mov	 eax, DWORD PTR _t8$1$[esp+92]
  00477	83 c4 0c	 add	 esp, 12			; 0000000cH
  0047a	2b 44 24 14	 sub	 eax, DWORD PTR _t7$1$[esp+80]
  0047e	50		 push	 eax
  0047f	68 00 00 00 00	 push	 OFFSET ??_C@_0O@JENIKJAN@GR?4BG?4LEN?5?$CFd?6?$AA@
  00484	ff 35 00 00 00
	00		 push	 DWORD PTR ?fp@?L@??RenderGame@CPythonApplication@@QAEXXZ@4PAU_iobuf@@A
  0048a	e8 00 00 00 00	 call	 _fprintf

; 306  : 	fprintf(fp, "GR.BG.CLD %d\n", t9-t8);

  0048f	8b 44 24 18	 mov	 eax, DWORD PTR _t9$1$[esp+92]
  00493	83 c4 0c	 add	 esp, 12			; 0000000cH
  00496	2b 44 24 10	 sub	 eax, DWORD PTR _t8$1$[esp+80]
  0049a	50		 push	 eax
  0049b	68 00 00 00 00	 push	 OFFSET ??_C@_0O@HJPLNNBE@GR?4BG?4CLD?5?$CFd?6?$AA@
  004a0	ff 35 00 00 00
	00		 push	 DWORD PTR ?fp@?L@??RenderGame@CPythonApplication@@QAEXXZ@4PAU_iobuf@@A
  004a6	e8 00 00 00 00	 call	 _fprintf

; 307  : 	fprintf(fp, "GR.BG.MAIN %d\n", t10-t9);		

  004ab	8b 44 24 3c	 mov	 eax, DWORD PTR _t10$1$[esp+92]
  004af	83 c4 0c	 add	 esp, 12			; 0000000cH
  004b2	2b 44 24 0c	 sub	 eax, DWORD PTR _t9$1$[esp+80]
  004b6	50		 push	 eax
  004b7	68 00 00 00 00	 push	 OFFSET ??_C@_0P@EJKDFAIB@GR?4BG?4MAIN?5?$CFd?6?$AA@
  004bc	ff 35 00 00 00
	00		 push	 DWORD PTR ?fp@?L@??RenderGame@CPythonApplication@@QAEXXZ@4PAU_iobuf@@A
  004c2	e8 00 00 00 00	 call	 _fprintf

; 308  : 	fprintf(fp, "GR.CHR %d\n",	t11-t10);

  004c7	8b 44 24 40	 mov	 eax, DWORD PTR _t11$1$[esp+92]
  004cb	83 c4 0c	 add	 esp, 12			; 0000000cH
  004ce	2b 44 24 30	 sub	 eax, DWORD PTR _t10$1$[esp+80]
  004d2	50		 push	 eax
  004d3	68 00 00 00 00	 push	 OFFSET ??_C@_0L@OOHFOBKJ@GR?4CHR?5?$CFd?6?$AA@
  004d8	ff 35 00 00 00
	00		 push	 DWORD PTR ?fp@?L@??RenderGame@CPythonApplication@@QAEXXZ@4PAU_iobuf@@A
  004de	e8 00 00 00 00	 call	 _fprintf

; 309  : 	fprintf(fp, "GR.BG.WTR %d\n", t12-t11);

  004e3	8b 44 24 44	 mov	 eax, DWORD PTR _t12$1$[esp+92]
  004e7	83 c4 0c	 add	 esp, 12			; 0000000cH
  004ea	2b 44 24 34	 sub	 eax, DWORD PTR _t11$1$[esp+80]
  004ee	50		 push	 eax
  004ef	68 00 00 00 00	 push	 OFFSET ??_C@_0O@LENBOK@GR?4BG?4WTR?5?$CFd?6?$AA@
  004f4	ff 35 00 00 00
	00		 push	 DWORD PTR ?fp@?L@??RenderGame@CPythonApplication@@QAEXXZ@4PAU_iobuf@@A
  004fa	e8 00 00 00 00	 call	 _fprintf

; 310  : 	fprintf(fp, "GR.BG.EFT %d\n", t13-t12);

  004ff	8b 44 24 48	 mov	 eax, DWORD PTR _t13$1$[esp+92]
  00503	83 c4 0c	 add	 esp, 12			; 0000000cH
  00506	2b 44 24 38	 sub	 eax, DWORD PTR _t12$1$[esp+80]
  0050a	50		 push	 eax
  0050b	68 00 00 00 00	 push	 OFFSET ??_C@_0O@BIDCIJEG@GR?4BG?4EFT?5?$CFd?6?$AA@
  00510	ff 35 00 00 00
	00		 push	 DWORD PTR ?fp@?L@??RenderGame@CPythonApplication@@QAEXXZ@4PAU_iobuf@@A
  00516	e8 00 00 00 00	 call	 _fprintf

; 311  : 	fprintf(fp, "GR.EFT %d\n", t14-t13);

  0051b	8b 44 24 4c	 mov	 eax, DWORD PTR _t14$1$[esp+92]
  0051f	83 c4 0c	 add	 esp, 12			; 0000000cH
  00522	2b 44 24 3c	 sub	 eax, DWORD PTR _t13$1$[esp+80]
  00526	50		 push	 eax
  00527	68 00 00 00 00	 push	 OFFSET ??_C@_0L@KOHMHAGO@GR?4EFT?5?$CFd?6?$AA@
  0052c	ff 35 00 00 00
	00		 push	 DWORD PTR ?fp@?L@??RenderGame@CPythonApplication@@QAEXXZ@4PAU_iobuf@@A
  00532	e8 00 00 00 00	 call	 _fprintf

; 312  : 	fprintf(fp, "GR.ITM %d\n", t15-t14);

  00537	8b 44 24 50	 mov	 eax, DWORD PTR _t15$1$[esp+92]
  0053b	83 c4 0c	 add	 esp, 12			; 0000000cH
  0053e	2b 44 24 40	 sub	 eax, DWORD PTR _t14$1$[esp+80]
  00542	50		 push	 eax
  00543	68 00 00 00 00	 push	 OFFSET ??_C@_0L@CNELLLJF@GR?4ITM?5?$CFd?6?$AA@
  00548	ff 35 00 00 00
	00		 push	 DWORD PTR ?fp@?L@??RenderGame@CPythonApplication@@QAEXXZ@4PAU_iobuf@@A
  0054e	e8 00 00 00 00	 call	 _fprintf

; 313  : 	fprintf(fp, "GR.FLY %d\n", t16-t15);

  00553	8b 44 24 54	 mov	 eax, DWORD PTR _t16$1$[esp+92]
  00557	83 c4 0c	 add	 esp, 12			; 0000000cH
  0055a	2b 44 24 44	 sub	 eax, DWORD PTR _t15$1$[esp+80]
  0055e	50		 push	 eax
  0055f	68 00 00 00 00	 push	 OFFSET ??_C@_0L@DIBNDLBN@GR?4FLY?5?$CFd?6?$AA@
  00564	ff 35 00 00 00
	00		 push	 DWORD PTR ?fp@?L@??RenderGame@CPythonApplication@@QAEXXZ@4PAU_iobuf@@A
  0056a	e8 00 00 00 00	 call	 _fprintf

; 314  : 	fprintf(fp, "GR.BG.BLK %d\n", t17-t16);

  0056f	8b 44 24 58	 mov	 eax, DWORD PTR _t17$1$[esp+92]
  00573	83 c4 0c	 add	 esp, 12			; 0000000cH
  00576	2b 44 24 48	 sub	 eax, DWORD PTR _t16$1$[esp+80]
  0057a	50		 push	 eax
  0057b	68 00 00 00 00	 push	 OFFSET ??_C@_0O@EEAHGPFP@GR?4BG?4BLK?5?$CFd?6?$AA@
  00580	ff 35 00 00 00
	00		 push	 DWORD PTR ?fp@?L@??RenderGame@CPythonApplication@@QAEXXZ@4PAU_iobuf@@A
  00586	e8 00 00 00 00	 call	 _fprintf

; 315  : 	fprintf(fp, "GR.BG.LEN %d\n", t18-t17);

  0058b	2b 7c 24 58	 sub	 edi, DWORD PTR _t17$1$[esp+92]
  0058f	83 c4 0c	 add	 esp, 12			; 0000000cH
  00592	57		 push	 edi
  00593	68 00 00 00 00	 push	 OFFSET ??_C@_0O@JENIKJAN@GR?4BG?4LEN?5?$CFd?6?$AA@
  00598	ff 35 00 00 00
	00		 push	 DWORD PTR ?fp@?L@??RenderGame@CPythonApplication@@QAEXXZ@4PAU_iobuf@@A
  0059e	e8 00 00 00 00	 call	 _fprintf
  005a3	83 c4 0c	 add	 esp, 12			; 0000000cH

; 316  : 
; 317  : 
; 318  : 	fflush(fp);

  005a6	ff 35 00 00 00
	00		 push	 DWORD PTR ?fp@?L@??RenderGame@CPythonApplication@@QAEXXZ@4PAU_iobuf@@A
  005ac	e8 00 00 00 00	 call	 _fflush
  005b1	83 c4 04	 add	 esp, 4
$LN5@RenderGame:

; 319  : }

  005b4	5f		 pop	 edi
  005b5	5e		 pop	 esi
  005b6	5b		 pop	 ebx
  005b7	8b e5		 mov	 esp, ebp
  005b9	5d		 pop	 ebp
  005ba	c3		 ret	 0
?RenderGame@CPythonApplication@@QAEXXZ ENDP		; CPythonApplication::RenderGame
_TEXT	ENDS
; Function compile flags: /Ogtp
; File d:\metin2\metin2\client_source_clean\client_source_clean\source\userinterface\pythonapplication.cpp
;	COMDAT ?UpdateGame@CPythonApplication@@QAEXXZ
_TEXT	SEGMENT
_s$2 = -84						; size = 4
_t3$1$ = -80						; size = 4
_fAspect$3 = -80					; size = 4
_t1$1$ = -76						; size = 4
_t2$1$ = -72						; size = 4
_t4$1$ = -68						; size = 4
_t5$1$ = -64						; size = 4
_t6$1$ = -60						; size = 4
_t7$1$ = -56						; size = 4
_t8$1$ = -52						; size = 4
_t9$1$ = -48						; size = 4
_t10$1$ = -44						; size = 4
_t11$1$ = -40						; size = 4
_ptMouse$ = -36						; size = 8
_kPPosMainActor$ = -28					; size = 12
__$EHRec$ = -12						; size = 12
?UpdateGame@CPythonApplication@@QAEXXZ PROC		; CPythonApplication::UpdateGame, COMDAT
; _this$ = ecx

; 322  : {

  00000	55		 push	 ebp
  00001	8b ec		 mov	 ebp, esp
  00003	83 e4 f8	 and	 esp, -8			; fffffff8H
  00006	6a ff		 push	 -1
  00008	68 00 00 00 00	 push	 __ehhandler$?UpdateGame@CPythonApplication@@QAEXXZ
  0000d	64 a1 00 00 00
	00		 mov	 eax, DWORD PTR fs:0
  00013	50		 push	 eax
  00014	83 ec 48	 sub	 esp, 72			; 00000048H
  00017	53		 push	 ebx
  00018	56		 push	 esi
  00019	57		 push	 edi
  0001a	a1 00 00 00 00	 mov	 eax, DWORD PTR ___security_cookie
  0001f	33 c4		 xor	 eax, esp
  00021	50		 push	 eax
  00022	8d 44 24 58	 lea	 eax, DWORD PTR __$EHRec$[esp+100]
  00026	64 a3 00 00 00
	00		 mov	 DWORD PTR fs:0, eax
  0002c	8b f9		 mov	 edi, ecx

; 323  : 	DWORD t1=ELTimer_GetMSec();

  0002e	e8 00 00 00 00	 call	 ?ELTimer_GetMSec@@YAKXZ	; ELTimer_GetMSec

; 324  : 	POINT ptMouse;
; 325  : 	GetMousePosition(&ptMouse);

  00033	8b 57 20	 mov	 edx, DWORD PTR [edi+32]
  00036	8d 4f 20	 lea	 ecx, DWORD PTR [edi+32]
  00039	89 44 24 18	 mov	 DWORD PTR _t1$1$[esp+100], eax
  0003d	8d 44 24 40	 lea	 eax, DWORD PTR _ptMouse$[esp+100]
  00041	50		 push	 eax
  00042	ff 52 04	 call	 DWORD PTR [edx+4]

; 326  : 
; 327  : 	CGraphicTextInstance::Hyperlink_UpdateMousePos(ptMouse.x, ptMouse.y);

  00045	ff 74 24 44	 push	 DWORD PTR _ptMouse$[esp+104]
  00049	ff 74 24 44	 push	 DWORD PTR _ptMouse$[esp+104]
  0004d	e8 00 00 00 00	 call	 ?Hyperlink_UpdateMousePos@CGraphicTextInstance@@SAXHH@Z ; CGraphicTextInstance::Hyperlink_UpdateMousePos
  00052	83 c4 08	 add	 esp, 8

; 328  : 
; 329  : 	DWORD t2=ELTimer_GetMSec();

  00055	e8 00 00 00 00	 call	 ?ELTimer_GetMSec@@YAKXZ	; ELTimer_GetMSec

; 330  : 
; 331  : 	//!@# Alt+Tab  SetTransfor      - [levites]
; 332  : 	//if (m_isActivateWnd)
; 333  : 	{
; 334  : 		CScreen s;

  0005a	8d 4c 24 10	 lea	 ecx, DWORD PTR _s$2[esp+100]
  0005e	89 44 24 1c	 mov	 DWORD PTR _t2$1$[esp+100], eax
  00062	e8 00 00 00 00	 call	 ??0CScreen@@QAE@XZ	; CScreen::CScreen
  00067	c7 44 24 60 00
	00 00 00	 mov	 DWORD PTR __$EHRec$[esp+108], 0

; 335  : 		float fAspect = UI::CWindowManager::Instance().GetAspect();

  0006f	8b 0d 00 00 00
	00		 mov	 ecx, DWORD PTR ?ms_singleton@?$CSingleton@VCWindowManager@UI@@@@0PAVCWindowManager@UI@@A ; CSingleton<UI::CWindowManager>::ms_singleton
  00075	e8 00 00 00 00	 call	 ?GetAspect@CWindowManager@UI@@QAEMXZ ; UI::CWindowManager::GetAspect

; 336  : 		float fFarClip = CPythonBackground::Instance().GetFarClip();

  0007a	8b 0d 00 00 00
	00		 mov	 ecx, DWORD PTR ?ms_singleton@?$CSingleton@VCPythonBackground@@@@0PAVCPythonBackground@@A ; CSingleton<CPythonBackground>::ms_singleton
  00080	d9 5c 24 14	 fstp	 DWORD PTR _fAspect$3[esp+100]
  00084	e8 00 00 00 00	 call	 ?GetFarClip@CPythonBackground@@QAEMXZ ; CPythonBackground::GetFarClip

; 337  : 
; 338  : 		s.SetPerspective(30.0f,fAspect, 100.0f, fFarClip);

  00089	83 ec 10	 sub	 esp, 16			; 00000010H
  0008c	8d 4c 24 20	 lea	 ecx, DWORD PTR _s$2[esp+116]
  00090	f3 0f 11 44 24
	0c		 movss	 DWORD PTR [esp+12], xmm0
  00096	f3 0f 10 44 24
	24		 movss	 xmm0, DWORD PTR _fAspect$3[esp+116]
  0009c	c7 44 24 08 00
	00 c8 42	 mov	 DWORD PTR [esp+8], 1120403456 ; 42c80000H
  000a4	f3 0f 11 44 24
	04		 movss	 DWORD PTR [esp+4], xmm0
  000aa	c7 04 24 00 00
	f0 41		 mov	 DWORD PTR [esp], 1106247680 ; 41f00000H
  000b1	e8 00 00 00 00	 call	 ?SetPerspective@CGraphicBase@@QAEXMMMM@Z ; CGraphicBase::SetPerspective

; 339  : 		s.BuildViewFrustum();

  000b6	8d 4c 24 10	 lea	 ecx, DWORD PTR _s$2[esp+100]
  000ba	e8 00 00 00 00	 call	 ?BuildViewFrustum@CScreen@@QAEXXZ ; CScreen::BuildViewFrustum

; 340  : 	}

  000bf	8d 4c 24 10	 lea	 ecx, DWORD PTR _s$2[esp+100]
  000c3	c7 44 24 60 ff
	ff ff ff	 mov	 DWORD PTR __$EHRec$[esp+108], -1
  000cb	e8 00 00 00 00	 call	 ??1CScreen@@UAE@XZ	; CScreen::~CScreen

; 341  : 
; 342  : 	DWORD t3=ELTimer_GetMSec();

  000d0	e8 00 00 00 00	 call	 ?ELTimer_GetMSec@@YAKXZ	; ELTimer_GetMSec
  000d5	89 44 24 14	 mov	 DWORD PTR _t3$1$[esp+100], eax

; 343  : 	TPixelPosition kPPosMainActor;
; 344  : 	m_pyPlayer.NEW_GetMainActorPosition(&kPPosMainActor);

  000d9	8d 44 24 48	 lea	 eax, DWORD PTR _kPPosMainActor$[esp+100]
  000dd	50		 push	 eax
  000de	e8 00 00 00 00	 call	 ?NEW_GetMainActorPosition@CPythonPlayer@@QAEXPAUD3DXVECTOR3@@@Z ; CPythonPlayer::NEW_GetMainActorPosition

; 345  : 
; 346  : 	DWORD t4=ELTimer_GetMSec();

  000e3	e8 00 00 00 00	 call	 ?ELTimer_GetMSec@@YAKXZ	; ELTimer_GetMSec

; 347  : 	m_pyBackground.Update(kPPosMainActor.x, kPPosMainActor.y, kPPosMainActor.z);

  000e8	f3 0f 10 5c 24
	50		 movss	 xmm3, DWORD PTR _kPPosMainActor$[esp+108]
  000ee	8d 8f 74 bb 01
	00		 lea	 ecx, DWORD PTR [edi+113524]
  000f4	f3 0f 10 54 24
	4c		 movss	 xmm2, DWORD PTR _kPPosMainActor$[esp+104]
  000fa	f3 0f 10 4c 24
	48		 movss	 xmm1, DWORD PTR _kPPosMainActor$[esp+100]
  00100	89 44 24 20	 mov	 DWORD PTR _t4$1$[esp+100], eax
  00104	e8 00 00 00 00	 call	 ?Update@CPythonBackground@@QAEXMMM@Z ; CPythonBackground::Update

; 348  : 
; 349  : 	DWORD t5=ELTimer_GetMSec();

  00109	e8 00 00 00 00	 call	 ?ELTimer_GetMSec@@YAKXZ	; ELTimer_GetMSec

; 350  : 	m_GameEventManager.SetCenterPosition(kPPosMainActor.x, kPPosMainActor.y, kPPosMainActor.z);

  0010e	f3 0f 10 44 24
	50		 movss	 xmm0, DWORD PTR _kPPosMainActor$[esp+108]
  00114	8d 8f b8 01 00
	00		 lea	 ecx, DWORD PTR [edi+440]
  0011a	83 ec 0c	 sub	 esp, 12			; 0000000cH
  0011d	89 44 24 30	 mov	 DWORD PTR _t5$1$[esp+112], eax
  00121	f3 0f 11 44 24
	08		 movss	 DWORD PTR [esp+8], xmm0
  00127	f3 0f 10 44 24
	58		 movss	 xmm0, DWORD PTR _kPPosMainActor$[esp+116]
  0012d	f3 0f 11 44 24
	04		 movss	 DWORD PTR [esp+4], xmm0
  00133	f3 0f 10 44 24
	54		 movss	 xmm0, DWORD PTR _kPPosMainActor$[esp+112]
  00139	f3 0f 11 04 24	 movss	 DWORD PTR [esp], xmm0
  0013e	e8 00 00 00 00	 call	 ?SetCenterPosition@CGameEventManager@@QAEXMMM@Z ; CGameEventManager::SetCenterPosition

; 351  : 	m_GameEventManager.Update();

  00143	8d 8f b8 01 00
	00		 lea	 ecx, DWORD PTR [edi+440]
  00149	e8 00 00 00 00	 call	 ?Update@CGameEventManager@@QAEXXZ ; CGameEventManager::Update

; 352  : 
; 353  : 	DWORD t6=ELTimer_GetMSec();

  0014e	e8 00 00 00 00	 call	 ?ELTimer_GetMSec@@YAKXZ	; ELTimer_GetMSec

; 354  : 	m_kChrMgr.Update();	

  00153	8d 8f d8 02 00
	00		 lea	 ecx, DWORD PTR [edi+728]
  00159	89 44 24 28	 mov	 DWORD PTR _t6$1$[esp+100], eax
  0015d	e8 00 00 00 00	 call	 ?Update@CPythonCharacterManager@@QAEXXZ ; CPythonCharacterManager::Update

; 355  : 	DWORD t7=ELTimer_GetMSec();

  00162	e8 00 00 00 00	 call	 ?ELTimer_GetMSec@@YAKXZ	; ELTimer_GetMSec

; 356  : 	m_kEftMgr.UpdateSound();

  00167	8d 8f b0 02 00
	00		 lea	 ecx, DWORD PTR [edi+688]
  0016d	89 44 24 2c	 mov	 DWORD PTR _t7$1$[esp+100], eax
  00171	e8 00 00 00 00	 call	 ?UpdateSound@CEffectManager@@QAEXXZ ; CEffectManager::UpdateSound

; 357  : 	DWORD t8=ELTimer_GetMSec();

  00176	e8 00 00 00 00	 call	 ?ELTimer_GetMSec@@YAKXZ	; ELTimer_GetMSec

; 358  : 	m_FlyingManager.Update();

  0017b	8d 8f 5c 01 00
	00		 lea	 ecx, DWORD PTR [edi+348]
  00181	89 44 24 30	 mov	 DWORD PTR _t8$1$[esp+100], eax
  00185	e8 00 00 00 00	 call	 ?Update@CFlyingManager@@QAEXXZ ; CFlyingManager::Update

; 359  : 	DWORD t9=ELTimer_GetMSec();

  0018a	e8 00 00 00 00	 call	 ?ELTimer_GetMSec@@YAKXZ	; ELTimer_GetMSec
  0018f	89 44 24 34	 mov	 DWORD PTR _t9$1$[esp+100], eax

; 360  : 	m_pyItem.Update(ptMouse);

  00193	8d 8f 08 94 01
	00		 lea	 ecx, DWORD PTR [edi+103432]
  00199	8d 44 24 40	 lea	 eax, DWORD PTR _ptMouse$[esp+100]
  0019d	50		 push	 eax
  0019e	e8 00 00 00 00	 call	 ?Update@CPythonItem@@QAEXABUtagPOINT@@@Z ; CPythonItem::Update

; 361  : 	DWORD t10=ELTimer_GetMSec();

  001a3	e8 00 00 00 00	 call	 ?ELTimer_GetMSec@@YAKXZ	; ELTimer_GetMSec
  001a8	89 44 24 38	 mov	 DWORD PTR _t10$1$[esp+100], eax

; 362  : 	m_pyPlayer.Update();

  001ac	8d 8f 90 81 00
	00		 lea	 ecx, DWORD PTR [edi+33168]
  001b2	e8 00 00 00 00	 call	 ?Update@CPythonPlayer@@QAEXXZ ; CPythonPlayer::Update

; 363  : 	DWORD t11=ELTimer_GetMSec();

  001b7	e8 00 00 00 00	 call	 ?ELTimer_GetMSec@@YAKXZ	; ELTimer_GetMSec
  001bc	89 44 24 3c	 mov	 DWORD PTR _t11$1$[esp+100], eax

; 364  : 
; 365  : 	// NOTE : Update        - [levites]
; 366  : 	//             Sound      .
; 367  : 	m_pyPlayer.NEW_GetMainActorPosition(&kPPosMainActor);

  001c0	8d 44 24 48	 lea	 eax, DWORD PTR _kPPosMainActor$[esp+100]
  001c4	50		 push	 eax
  001c5	e8 00 00 00 00	 call	 ?NEW_GetMainActorPosition@CPythonPlayer@@QAEXPAUD3DXVECTOR3@@@Z ; CPythonPlayer::NEW_GetMainActorPosition

; 368  : 	SetCenterPosition(kPPosMainActor.x, kPPosMainActor.y, kPPosMainActor.z);

  001ca	f3 0f 10 44 24
	50		 movss	 xmm0, DWORD PTR _kPPosMainActor$[esp+108]
  001d0	8d 4f 20	 lea	 ecx, DWORD PTR [edi+32]
  001d3	8b 57 20	 mov	 edx, DWORD PTR [edi+32]
  001d6	83 ec 0c	 sub	 esp, 12			; 0000000cH
  001d9	f3 0f 11 44 24
	08		 movss	 DWORD PTR [esp+8], xmm0
  001df	f3 0f 10 44 24
	58		 movss	 xmm0, DWORD PTR _kPPosMainActor$[esp+116]
  001e5	f3 0f 11 44 24
	04		 movss	 DWORD PTR [esp+4], xmm0
  001eb	f3 0f 10 44 24
	54		 movss	 xmm0, DWORD PTR _kPPosMainActor$[esp+112]
  001f1	f3 0f 11 04 24	 movss	 DWORD PTR [esp], xmm0
  001f6	ff 52 18	 call	 DWORD PTR [edx+24]

; 369  : 	DWORD t12=ELTimer_GetMSec();

  001f9	e8 00 00 00 00	 call	 ?ELTimer_GetMSec@@YAKXZ	; ELTimer_GetMSec

; 370  : 
; 371  : 	if (PERF_CHECKER_RENDER_GAME)

  001fe	80 3d 00 00 00
	00 00		 cmp	 BYTE PTR ?PERF_CHECKER_RENDER_GAME@@3_NA, 0 ; PERF_CHECKER_RENDER_GAME
  00205	8b f8		 mov	 edi, eax
  00207	0f 84 8f 01 00
	00		 je	 $LN2@UpdateGame

; 372  : 	{
; 373  : 		if (t12-t1>5)

  0020d	8b 5c 24 18	 mov	 ebx, DWORD PTR _t1$1$[esp+100]
  00211	8b f7		 mov	 esi, edi
  00213	2b f3		 sub	 esi, ebx
  00215	83 fe 05	 cmp	 esi, 5
  00218	0f 86 7e 01 00
	00		 jbe	 $LN2@UpdateGame

; 374  : 		{
; 375  : 			static FILE* fp=fopen("perf_game_update.txt", "w");

  0021e	8b 0d 00 00 00
	00		 mov	 ecx, DWORD PTR ?$S2@?8??UpdateGame@CPythonApplication@@QAEXXZ@4IA
  00224	f6 c1 01	 test	 cl, 1
  00227	75 20		 jne	 SHORT $LN1@UpdateGame
  00229	83 c9 01	 or	 ecx, 1
  0022c	68 00 00 00 00	 push	 OFFSET ??_C@_01NOFIACDB@w?$AA@
  00231	68 00 00 00 00	 push	 OFFSET ??_C@_0BF@NHIIGIH@perf_game_update?4txt?$AA@
  00236	89 0d 00 00 00
	00		 mov	 DWORD PTR ?$S2@?8??UpdateGame@CPythonApplication@@QAEXXZ@4IA, ecx
  0023c	e8 00 00 00 00	 call	 _fopen
  00241	83 c4 08	 add	 esp, 8
  00244	a3 00 00 00 00	 mov	 DWORD PTR ?fp@?8??UpdateGame@CPythonApplication@@QAEXXZ@4PAU_iobuf@@A, eax
$LN1@UpdateGame:

; 376  : 
; 377  : 			fprintf(fp, "GU.Total %d (Time %d)\n", t12-t1, ELTimer_GetMSec());

  00249	e8 00 00 00 00	 call	 ?ELTimer_GetMSec@@YAKXZ	; ELTimer_GetMSec
  0024e	50		 push	 eax
  0024f	56		 push	 esi
  00250	68 00 00 00 00	 push	 OFFSET ??_C@_0BH@HPIDKEA@GU?4Total?5?$CFd?5?$CITime?5?$CFd?$CJ?6?$AA@
  00255	ff 35 00 00 00
	00		 push	 DWORD PTR ?fp@?8??UpdateGame@CPythonApplication@@QAEXXZ@4PAU_iobuf@@A
  0025b	e8 00 00 00 00	 call	 _fprintf

; 378  : 			fprintf(fp, "GU.GMP %d\n", t2-t1);

  00260	8b 44 24 2c	 mov	 eax, DWORD PTR _t2$1$[esp+116]
  00264	2b c3		 sub	 eax, ebx
  00266	50		 push	 eax
  00267	68 00 00 00 00	 push	 OFFSET ??_C@_0L@JHBDHKIG@GU?4GMP?5?$CFd?6?$AA@
  0026c	ff 35 00 00 00
	00		 push	 DWORD PTR ?fp@?8??UpdateGame@CPythonApplication@@QAEXXZ@4PAU_iobuf@@A
  00272	e8 00 00 00 00	 call	 _fprintf

; 379  : 			fprintf(fp, "GU.SCR %d\n", t3-t2);

  00277	8b 44 24 30	 mov	 eax, DWORD PTR _t3$1$[esp+128]
  0027b	83 c4 1c	 add	 esp, 28			; 0000001cH
  0027e	2b 44 24 1c	 sub	 eax, DWORD PTR _t2$1$[esp+100]
  00282	50		 push	 eax
  00283	68 00 00 00 00	 push	 OFFSET ??_C@_0L@HCBFJPAB@GU?4SCR?5?$CFd?6?$AA@
  00288	ff 35 00 00 00
	00		 push	 DWORD PTR ?fp@?8??UpdateGame@CPythonApplication@@QAEXXZ@4PAU_iobuf@@A
  0028e	e8 00 00 00 00	 call	 _fprintf

; 380  : 			fprintf(fp, "GU.MPS %d\n", t4-t3);

  00293	8b 44 24 2c	 mov	 eax, DWORD PTR _t4$1$[esp+112]
  00297	83 c4 0c	 add	 esp, 12			; 0000000cH
  0029a	2b 44 24 14	 sub	 eax, DWORD PTR _t3$1$[esp+100]
  0029e	50		 push	 eax
  0029f	68 00 00 00 00	 push	 OFFSET ??_C@_0L@IGEOOJOO@GU?4MPS?5?$CFd?6?$AA@
  002a4	ff 35 00 00 00
	00		 push	 DWORD PTR ?fp@?8??UpdateGame@CPythonApplication@@QAEXXZ@4PAU_iobuf@@A
  002aa	e8 00 00 00 00	 call	 _fprintf

; 381  : 			fprintf(fp, "GU.BG %d\n", t5-t4);

  002af	8b 44 24 30	 mov	 eax, DWORD PTR _t5$1$[esp+112]
  002b3	83 c4 0c	 add	 esp, 12			; 0000000cH
  002b6	2b 44 24 20	 sub	 eax, DWORD PTR _t4$1$[esp+100]
  002ba	50		 push	 eax
  002bb	68 00 00 00 00	 push	 OFFSET ??_C@_09JGPPFKPH@GU?4BG?5?$CFd?6?$AA@
  002c0	ff 35 00 00 00
	00		 push	 DWORD PTR ?fp@?8??UpdateGame@CPythonApplication@@QAEXXZ@4PAU_iobuf@@A
  002c6	e8 00 00 00 00	 call	 _fprintf

; 382  : 			fprintf(fp, "GU.GEM %d\n", t6-t5);

  002cb	8b 44 24 34	 mov	 eax, DWORD PTR _t6$1$[esp+112]
  002cf	83 c4 0c	 add	 esp, 12			; 0000000cH
  002d2	2b 44 24 24	 sub	 eax, DWORD PTR _t5$1$[esp+100]
  002d6	50		 push	 eax
  002d7	68 00 00 00 00	 push	 OFFSET ??_C@_0L@BLLECFKE@GU?4GEM?5?$CFd?6?$AA@
  002dc	ff 35 00 00 00
	00		 push	 DWORD PTR ?fp@?8??UpdateGame@CPythonApplication@@QAEXXZ@4PAU_iobuf@@A
  002e2	e8 00 00 00 00	 call	 _fprintf

; 383  : 			fprintf(fp, "GU.CHR %d\n", t7-t6);

  002e7	8b 44 24 38	 mov	 eax, DWORD PTR _t7$1$[esp+112]
  002eb	83 c4 0c	 add	 esp, 12			; 0000000cH
  002ee	2b 44 24 28	 sub	 eax, DWORD PTR _t6$1$[esp+100]
  002f2	50		 push	 eax
  002f3	68 00 00 00 00	 push	 OFFSET ??_C@_0L@MKJPKNA@GU?4CHR?5?$CFd?6?$AA@
  002f8	ff 35 00 00 00
	00		 push	 DWORD PTR ?fp@?8??UpdateGame@CPythonApplication@@QAEXXZ@4PAU_iobuf@@A
  002fe	e8 00 00 00 00	 call	 _fprintf

; 384  : 			fprintf(fp, "GU.EFT %d\n", t8-t7);

  00303	8b 44 24 3c	 mov	 eax, DWORD PTR _t8$1$[esp+112]
  00307	83 c4 0c	 add	 esp, 12			; 0000000cH
  0030a	2b 44 24 2c	 sub	 eax, DWORD PTR _t7$1$[esp+100]
  0030e	50		 push	 eax
  0030f	68 00 00 00 00	 push	 OFFSET ??_C@_0L@EMKAGLBH@GU?4EFT?5?$CFd?6?$AA@
  00314	ff 35 00 00 00
	00		 push	 DWORD PTR ?fp@?8??UpdateGame@CPythonApplication@@QAEXXZ@4PAU_iobuf@@A
  0031a	e8 00 00 00 00	 call	 _fprintf

; 385  : 			fprintf(fp, "GU.FLY %d\n", t9-t8);

  0031f	8b 44 24 40	 mov	 eax, DWORD PTR _t9$1$[esp+112]
  00323	83 c4 0c	 add	 esp, 12			; 0000000cH
  00326	2b 44 24 30	 sub	 eax, DWORD PTR _t8$1$[esp+100]
  0032a	50		 push	 eax
  0032b	68 00 00 00 00	 push	 OFFSET ??_C@_0L@NKMBCAGE@GU?4FLY?5?$CFd?6?$AA@
  00330	ff 35 00 00 00
	00		 push	 DWORD PTR ?fp@?8??UpdateGame@CPythonApplication@@QAEXXZ@4PAU_iobuf@@A
  00336	e8 00 00 00 00	 call	 _fprintf

; 386  : 			fprintf(fp, "GU.ITM %d\n", t10-t9);

  0033b	8b 44 24 44	 mov	 eax, DWORD PTR _t10$1$[esp+112]
  0033f	83 c4 0c	 add	 esp, 12			; 0000000cH
  00342	2b 44 24 34	 sub	 eax, DWORD PTR _t9$1$[esp+100]
  00346	50		 push	 eax
  00347	68 00 00 00 00	 push	 OFFSET ??_C@_0L@MPJHKAOM@GU?4ITM?5?$CFd?6?$AA@
  0034c	ff 35 00 00 00
	00		 push	 DWORD PTR ?fp@?8??UpdateGame@CPythonApplication@@QAEXXZ@4PAU_iobuf@@A
  00352	e8 00 00 00 00	 call	 _fprintf

; 387  : 			fprintf(fp, "GU.PLR %d\n", t11-t10);

  00357	8b 44 24 48	 mov	 eax, DWORD PTR _t11$1$[esp+112]
  0035b	83 c4 0c	 add	 esp, 12			; 0000000cH
  0035e	2b 44 24 38	 sub	 eax, DWORD PTR _t10$1$[esp+100]
  00362	50		 push	 eax
  00363	68 00 00 00 00	 push	 OFFSET ??_C@_0L@KNCOIAL@GU?4PLR?5?$CFd?6?$AA@
  00368	ff 35 00 00 00
	00		 push	 DWORD PTR ?fp@?8??UpdateGame@CPythonApplication@@QAEXXZ@4PAU_iobuf@@A
  0036e	e8 00 00 00 00	 call	 _fprintf

; 388  : 			fprintf(fp, "GU.POS %d\n", t12-t11);

  00373	2b 7c 24 48	 sub	 edi, DWORD PTR _t11$1$[esp+112]
  00377	83 c4 0c	 add	 esp, 12			; 0000000cH
  0037a	57		 push	 edi
  0037b	68 00 00 00 00	 push	 OFFSET ??_C@_0L@PAGGCBDD@GU?4POS?5?$CFd?6?$AA@
  00380	ff 35 00 00 00
	00		 push	 DWORD PTR ?fp@?8??UpdateGame@CPythonApplication@@QAEXXZ@4PAU_iobuf@@A
  00386	e8 00 00 00 00	 call	 _fprintf
  0038b	83 c4 0c	 add	 esp, 12			; 0000000cH

; 389  : 			fflush(fp);

  0038e	ff 35 00 00 00
	00		 push	 DWORD PTR ?fp@?8??UpdateGame@CPythonApplication@@QAEXXZ@4PAU_iobuf@@A
  00394	e8 00 00 00 00	 call	 _fflush
  00399	83 c4 04	 add	 esp, 4
$LN2@UpdateGame:

; 390  : 		}
; 391  : 	}
; 392  : }

  0039c	8b 4c 24 58	 mov	 ecx, DWORD PTR __$EHRec$[esp+100]
  003a0	64 89 0d 00 00
	00 00		 mov	 DWORD PTR fs:0, ecx
  003a7	59		 pop	 ecx
  003a8	5f		 pop	 edi
  003a9	5e		 pop	 esi
  003aa	5b		 pop	 ebx
  003ab	8b e5		 mov	 esp, ebp
  003ad	5d		 pop	 ebp
  003ae	c3		 ret	 0
_TEXT	ENDS
;	COMDAT text$x
text$x	SEGMENT
__unwindfunclet$?UpdateGame@CPythonApplication@@QAEXXZ$0:
  00000	8d 4d ac	 lea	 ecx, DWORD PTR _s$2[ebp]
  00003	e9 00 00 00 00	 jmp	 ??1CScreen@@UAE@XZ	; CScreen::~CScreen
__ehhandler$?UpdateGame@CPythonApplication@@QAEXXZ:
  00008	8b 54 24 08	 mov	 edx, DWORD PTR [esp+8]
  0000c	8d 42 ac	 lea	 eax, DWORD PTR [edx-84]
  0000f	8b 4a a8	 mov	 ecx, DWORD PTR [edx-88]
  00012	33 c8		 xor	 ecx, eax
  00014	e8 00 00 00 00	 call	 @__security_check_cookie@4
  00019	b8 00 00 00 00	 mov	 eax, OFFSET __ehfuncinfo$?UpdateGame@CPythonApplication@@QAEXXZ
  0001e	e9 00 00 00 00	 jmp	 ___CxxFrameHandler3
text$x	ENDS
?UpdateGame@CPythonApplication@@QAEXXZ ENDP		; CPythonApplication::UpdateGame
; Function compile flags: /Ogtp
; File d:\metin2\metin2\client_source_clean\client_source_clean\source\userinterface\pythonapplication.cpp
;	COMDAT ?SkipRenderBuffering@CPythonApplication@@UAEXK@Z
_TEXT	SEGMENT
_dwSleepMSec$ = 8					; size = 4
?SkipRenderBuffering@CPythonApplication@@UAEXK@Z PROC	; CPythonApplication::SkipRenderBuffering, COMDAT
; _this$ = ecx

; 395  : {

  00000	55		 push	 ebp
  00001	8b ec		 mov	 ebp, esp
  00003	56		 push	 esi
  00004	8b f1		 mov	 esi, ecx

; 396  : 	m_dwBufSleepSkipTime=ELTimer_GetMSec()+dwSleepMSec;

  00006	e8 00 00 00 00	 call	 ?ELTimer_GetMSec@@YAKXZ	; ELTimer_GetMSec
  0000b	03 45 08	 add	 eax, DWORD PTR _dwSleepMSec$[ebp]
  0000e	89 86 9c 00 02
	00		 mov	 DWORD PTR [esi+131228], eax
  00014	5e		 pop	 esi

; 397  : }

  00015	5d		 pop	 ebp
  00016	c2 04 00	 ret	 4
?SkipRenderBuffering@CPythonApplication@@UAEXK@Z ENDP	; CPythonApplication::SkipRenderBuffering
_TEXT	ENDS
; Function compile flags: /Ogtp
; File d:\metin2\metin2\client_source_clean\client_source_clean\source\userinterface\pythonapplication.cpp
;	COMDAT ?Process@CPythonApplication@@QAE_NXZ
_TEXT	SEGMENT
_dwCurFaceCount$1$ = -44				; size = 4
_rkBG$1$ = -44						; size = 4
_bCurrentLateUpdate$1$ = -40				; size = 4
_dwRenderStartTime$1$ = -36				; size = 4
_fRatio$2 = -36						; size = 4
_fCurRenderTime$1$ = -32				; size = 4
_dwStart$1$ = -28					; size = 4
_Point$ = -24						; size = 8
__$EHRec$ = -12						; size = 12
?Process@CPythonApplication@@QAE_NXZ PROC		; CPythonApplication::Process, COMDAT
; _this$ = ecx

; 400  : {

  00000	55		 push	 ebp
  00001	8b ec		 mov	 ebp, esp
  00003	83 e4 f8	 and	 esp, -8			; fffffff8H
  00006	6a ff		 push	 -1
  00008	68 00 00 00 00	 push	 __ehhandler$?Process@CPythonApplication@@QAE_NXZ
  0000d	64 a1 00 00 00
	00		 mov	 eax, DWORD PTR fs:0
  00013	50		 push	 eax
  00014	83 ec 20	 sub	 esp, 32			; 00000020H
  00017	53		 push	 ebx
  00018	56		 push	 esi
  00019	57		 push	 edi
  0001a	a1 00 00 00 00	 mov	 eax, DWORD PTR ___security_cookie
  0001f	33 c4		 xor	 eax, esp
  00021	50		 push	 eax
  00022	8d 44 24 30	 lea	 eax, DWORD PTR __$EHRec$[esp+60]
  00026	64 a3 00 00 00
	00		 mov	 DWORD PTR fs:0, eax
  0002c	8b f9		 mov	 edi, ecx

; 401  : #if defined(CHECK_LATEST_DATA_FILES)
; 402  : 	if (CheckLatestFiles_PollEvent())
; 403  : 		return false;
; 404  : #endif
; 405  : #ifdef USE_AHNLAB_HACKSHIELD
; 406  : 	if (HackShield_PollEvent())
; 407  : 		return false;
; 408  : #endif
; 409  : #ifdef XTRAP_CLIENT_ENABLE
; 410  : 	XTrap_PollEvent();
; 411  : #endif
; 412  : 	ELTimer_SetFrameMSec();

  0002e	e8 00 00 00 00	 call	 ?ELTimer_SetFrameMSec@@YAXXZ ; ELTimer_SetFrameMSec

; 413  : 
; 414  : 	// 	m_Profiler.Clear();
; 415  : 	DWORD dwStart = ELTimer_GetMSec();

  00033	e8 00 00 00 00	 call	 ?ELTimer_GetMSec@@YAKXZ	; ELTimer_GetMSec

; 416  : 
; 417  : 	///////////////////////////////////////////////////////////////////////////////////////////////////
; 418  : 	static DWORD	s_dwUpdateFrameCount = 0;
; 419  : 	static DWORD	s_dwRenderFrameCount = 0;
; 420  : 	static DWORD	s_dwFaceCount = 0;
; 421  : 	static UINT		s_uiLoad = 0;
; 422  : 	static DWORD	s_dwCheckTime = ELTimer_GetMSec();

  00038	8b 0d 00 00 00
	00		 mov	 ecx, DWORD PTR ?$S3@?1??Process@CPythonApplication@@QAE_NXZ@4IA
  0003e	89 44 24 20	 mov	 DWORD PTR _dwStart$1$[esp+60], eax
  00042	f6 c1 01	 test	 cl, 1
  00045	75 23		 jne	 SHORT $LN37@Process
  00047	83 c9 01	 or	 ecx, 1
  0004a	89 0d 00 00 00
	00		 mov	 DWORD PTR ?$S3@?1??Process@CPythonApplication@@QAE_NXZ@4IA, ecx
  00050	c7 44 24 38 00
	00 00 00	 mov	 DWORD PTR __$EHRec$[esp+68], 0
  00058	e8 00 00 00 00	 call	 ?ELTimer_GetMSec@@YAKXZ	; ELTimer_GetMSec
  0005d	a3 00 00 00 00	 mov	 DWORD PTR ?s_dwCheckTime@?1??Process@CPythonApplication@@QAE_NXZ@4KA, eax
  00062	c7 44 24 38 ff
	ff ff ff	 mov	 DWORD PTR __$EHRec$[esp+68], -1
$LN37@Process:

; 423  : 
; 424  : 	if (ELTimer_GetMSec() - s_dwCheckTime > 1000)

  0006a	e8 00 00 00 00	 call	 ?ELTimer_GetMSec@@YAKXZ	; ELTimer_GetMSec
  0006f	2b 05 00 00 00
	00		 sub	 eax, DWORD PTR ?s_dwCheckTime@?1??Process@CPythonApplication@@QAE_NXZ@4KA
  00075	3d e8 03 00 00	 cmp	 eax, 1000		; 000003e8H
  0007a	76 6d		 jbe	 SHORT $LN36@Process

; 425  : 	{
; 426  : 		m_dwUpdateFPS		= s_dwUpdateFrameCount;

  0007c	a1 00 00 00 00	 mov	 eax, DWORD PTR ?s_dwUpdateFrameCount@?1??Process@CPythonApplication@@QAE_NXZ@4KA

; 427  : 		m_dwRenderFPS		= s_dwRenderFrameCount;

  00081	8b 0d 00 00 00
	00		 mov	 ecx, DWORD PTR ?s_dwRenderFrameCount@?1??Process@CPythonApplication@@QAE_NXZ@4KA
  00087	89 87 64 00 02
	00		 mov	 DWORD PTR [edi+131172], eax

; 428  : 		m_dwLoad			= s_uiLoad;

  0008d	a1 00 00 00 00	 mov	 eax, DWORD PTR ?s_uiLoad@?1??Process@CPythonApplication@@QAE_NXZ@4IA
  00092	89 87 80 ff 01
	00		 mov	 DWORD PTR [edi+130944], eax

; 429  : 
; 430  : 		m_dwFaceCount		= s_dwFaceCount / max(1, s_dwRenderFrameCount);

  00098	b8 01 00 00 00	 mov	 eax, 1
  0009d	3b c8		 cmp	 ecx, eax
  0009f	89 8f 68 00 02
	00		 mov	 DWORD PTR [edi+131176], ecx
  000a5	0f 42 c8	 cmovb	 ecx, eax
  000a8	a1 00 00 00 00	 mov	 eax, DWORD PTR ?s_dwFaceCount@?1??Process@CPythonApplication@@QAE_NXZ@4KA
  000ad	33 d2		 xor	 edx, edx
  000af	f7 f1		 div	 ecx
  000b1	89 87 6c 00 02
	00		 mov	 DWORD PTR [edi+131180], eax

; 431  : 
; 432  : 		s_dwCheckTime		= ELTimer_GetMSec();

  000b7	e8 00 00 00 00	 call	 ?ELTimer_GetMSec@@YAKXZ	; ELTimer_GetMSec
  000bc	a3 00 00 00 00	 mov	 DWORD PTR ?s_dwCheckTime@?1??Process@CPythonApplication@@QAE_NXZ@4KA, eax

; 433  : 
; 434  : 		s_uiLoad = s_dwFaceCount = s_dwUpdateFrameCount = s_dwRenderFrameCount = 0;

  000c1	c7 05 00 00 00
	00 00 00 00 00	 mov	 DWORD PTR ?s_dwRenderFrameCount@?1??Process@CPythonApplication@@QAE_NXZ@4KA, 0
  000cb	c7 05 00 00 00
	00 00 00 00 00	 mov	 DWORD PTR ?s_dwUpdateFrameCount@?1??Process@CPythonApplication@@QAE_NXZ@4KA, 0
  000d5	c7 05 00 00 00
	00 00 00 00 00	 mov	 DWORD PTR ?s_dwFaceCount@?1??Process@CPythonApplication@@QAE_NXZ@4KA, 0
  000df	c7 05 00 00 00
	00 00 00 00 00	 mov	 DWORD PTR ?s_uiLoad@?1??Process@CPythonApplication@@QAE_NXZ@4IA, 0
$LN36@Process:

; 435  : 	}
; 436  : 
; 437  : 	// Update Time
; 438  : 	static BOOL s_bFrameSkip = false;
; 439  : 	static UINT s_uiNextFrameTime = ELTimer_GetMSec();

  000e9	a1 00 00 00 00	 mov	 eax, DWORD PTR ?$S3@?1??Process@CPythonApplication@@QAE_NXZ@4IA
  000ee	a8 02		 test	 al, 2
  000f0	75 22		 jne	 SHORT $LN35@Process
  000f2	83 c8 02	 or	 eax, 2
  000f5	a3 00 00 00 00	 mov	 DWORD PTR ?$S3@?1??Process@CPythonApplication@@QAE_NXZ@4IA, eax
  000fa	c7 44 24 38 01
	00 00 00	 mov	 DWORD PTR __$EHRec$[esp+68], 1
  00102	e8 00 00 00 00	 call	 ?ELTimer_GetMSec@@YAKXZ	; ELTimer_GetMSec
  00107	a3 00 00 00 00	 mov	 DWORD PTR ?s_uiNextFrameTime@?4??Process@CPythonApplication@@QAE_NXZ@4IA, eax
  0010c	c7 44 24 38 ff
	ff ff ff	 mov	 DWORD PTR __$EHRec$[esp+68], -1
$LN35@Process:

; 440  : 
; 441  : #ifdef __PERFORMANCE_CHECK__
; 442  : 	DWORD dwUpdateTime1=ELTimer_GetMSec();
; 443  : #endif
; 444  : 	CTimer& rkTimer=CTimer::Instance();

  00114	8b 35 00 00 00
	00		 mov	 esi, DWORD PTR ?ms_singleton@?$CSingleton@VCTimer@@@@0PAVCTimer@@A ; CSingleton<CTimer>::ms_singleton

; 445  : 	rkTimer.Advance();

  0011a	8b ce		 mov	 ecx, esi
  0011c	e8 00 00 00 00	 call	 ?Advance@CTimer@@QAEXXZ	; CTimer::Advance

; 446  : 
; 447  : 	m_fGlobalTime = rkTimer.GetCurrentSecond();

  00121	8b ce		 mov	 ecx, esi
  00123	e8 00 00 00 00	 call	 ?GetCurrentSecond@CTimer@@QAEMXZ ; CTimer::GetCurrentSecond
  00128	d9 9f 9c ff 01
	00		 fstp	 DWORD PTR [edi+130972]

; 448  : 	m_fGlobalElapsedTime = rkTimer.GetElapsedSecond();

  0012e	8b ce		 mov	 ecx, esi
  00130	e8 00 00 00 00	 call	 ?GetElapsedSecond@CTimer@@QAEMXZ ; CTimer::GetElapsedSecond

; 449  : 
; 450  : 	UINT uiFrameTime = rkTimer.GetElapsedMilliecond();

  00135	8b ce		 mov	 ecx, esi
  00137	d9 9f a0 ff 01
	00		 fstp	 DWORD PTR [edi+130976]
  0013d	e8 00 00 00 00	 call	 ?GetElapsedMilliecond@CTimer@@QAEKXZ ; CTimer::GetElapsedMilliecond
  00142	8b f0		 mov	 esi, eax

; 451  : 	s_uiNextFrameTime += uiFrameTime;	//17 - 1 60fps.

  00144	01 35 00 00 00
	00		 add	 DWORD PTR ?s_uiNextFrameTime@?4??Process@CPythonApplication@@QAE_NXZ@4IA, esi

; 452  : 
; 453  : 	DWORD updatestart = ELTimer_GetMSec();

  0014a	e8 00 00 00 00	 call	 ?ELTimer_GetMSec@@YAKXZ	; ELTimer_GetMSec

; 454  : #ifdef __PERFORMANCE_CHECK__
; 455  : 	DWORD dwUpdateTime2=ELTimer_GetMSec();
; 456  : #endif
; 457  : 	// Network I/O	
; 458  : 	m_pyNetworkStream.Process();	

  0014f	8d 8f 40 08 00
	00		 lea	 ecx, DWORD PTR [edi+2112]
  00155	8b d8		 mov	 ebx, eax
  00157	e8 00 00 00 00	 call	 ?Process@CNetworkStream@@QAEXXZ ; CNetworkStream::Process

; 459  : 	//m_pyNetworkDatagram.Process();
; 460  : 
; 461  : 	m_kGuildMarkUploader.Process();

  0015c	8d 8f dc d3 01
	00		 lea	 ecx, DWORD PTR [edi+119772]
  00162	e8 00 00 00 00	 call	 ?Process@CGuildMarkUploader@@QAEXXZ ; CGuildMarkUploader::Process

; 462  : 
; 463  : #ifdef USE_NPROTECT_GAMEGUARD
; 464  : 	if (GameGuard_IsError())
; 465  : 		return false;
; 466  : #endif
; 467  : 
; 468  : 	m_kGuildMarkDownloader.Process();

  00167	8d 8f 2c d3 01
	00		 lea	 ecx, DWORD PTR [edi+119596]
  0016d	e8 00 00 00 00	 call	 ?Process@CGuildMarkDownloader@@QAEXXZ ; CGuildMarkDownloader::Process

; 469  : 	m_kAccountConnector.Process();

  00172	8d 8f 7c d7 01
	00		 lea	 ecx, DWORD PTR [edi+120700]
  00178	e8 00 00 00 00	 call	 ?Process@CAccountConnector@@QAEXXZ ; CAccountConnector::Process

; 470  : 
; 471  : #ifdef __PERFORMANCE_CHECK__		
; 472  : 	DWORD dwUpdateTime3=ELTimer_GetMSec();
; 473  : #endif
; 474  : 	//////////////////////
; 475  : 	// Input Process
; 476  : 	// Keyboard
; 477  : 	UpdateKeyboard();

  0017d	8d 4f 1c	 lea	 ecx, DWORD PTR [edi+28]
  00180	e8 00 00 00 00	 call	 ?UpdateKeyboard@CInputKeyboard@@QAEXXZ ; CInputKeyboard::UpdateKeyboard

; 478  : #ifdef __PERFORMANCE_CHECK__
; 479  : 	DWORD dwUpdateTime4=ELTimer_GetMSec();
; 480  : #endif
; 481  : 	// Mouse
; 482  : 	POINT Point;
; 483  : 	if (GetCursorPos(&Point))

  00185	8d 44 24 24	 lea	 eax, DWORD PTR _Point$[esp+60]
  00189	50		 push	 eax
  0018a	ff 15 00 00 00
	00		 call	 DWORD PTR __imp__GetCursorPos@4
  00190	85 c0		 test	 eax, eax
  00192	74 1d		 je	 SHORT $LN34@Process

; 484  : 	{
; 485  : 		ScreenToClient(m_hWnd, &Point);

  00194	8d 44 24 24	 lea	 eax, DWORD PTR _Point$[esp+60]
  00198	50		 push	 eax
  00199	ff 77 04	 push	 DWORD PTR [edi+4]
  0019c	ff 15 00 00 00
	00		 call	 DWORD PTR __imp__ScreenToClient@8

; 486  : 		OnMouseMove(Point.x, Point.y);		

  001a2	ff 74 24 28	 push	 DWORD PTR _Point$[esp+64]
  001a6	8b cf		 mov	 ecx, edi
  001a8	ff 74 24 28	 push	 DWORD PTR _Point$[esp+64]
  001ac	e8 00 00 00 00	 call	 ?OnMouseMove@CPythonApplication@@IAEXHH@Z ; CPythonApplication::OnMouseMove
$LN34@Process:

; 487  : 	}
; 488  : 	//////////////////////
; 489  : #ifdef __PERFORMANCE_CHECK__
; 490  : 	DWORD dwUpdateTime5=ELTimer_GetMSec();
; 491  : #endif
; 492  : 	//!@# Alt+Tab  SetTransfor      - [levites]
; 493  : 	//if (m_isActivateWnd)
; 494  : 	__UpdateCamera();

  001b1	8b cf		 mov	 ecx, edi
  001b3	e8 00 00 00 00	 call	 ?__UpdateCamera@CPythonApplication@@IAEXXZ ; CPythonApplication::__UpdateCamera

; 495  : #ifdef __PERFORMANCE_CHECK__
; 496  : 	DWORD dwUpdateTime6=ELTimer_GetMSec();
; 497  : #endif
; 498  : 	// Update Game Playing
; 499  : 	CResourceManager::Instance().Update();

  001b8	8b 0d 00 00 00
	00		 mov	 ecx, DWORD PTR ?ms_singleton@?$CSingleton@VCResourceManager@@@@0PAVCResourceManager@@A ; CSingleton<CResourceManager>::ms_singleton
  001be	e8 00 00 00 00	 call	 ?Update@CResourceManager@@QAEXXZ ; CResourceManager::Update

; 500  : #ifdef __PERFORMANCE_CHECK__
; 501  : 	DWORD dwUpdateTime7=ELTimer_GetMSec();
; 502  : #endif
; 503  : 	OnCameraUpdate();

  001c3	8b cf		 mov	 ecx, edi
  001c5	e8 00 00 00 00	 call	 ?OnCameraUpdate@CPythonApplication@@IAEXXZ ; CPythonApplication::OnCameraUpdate

; 504  : #ifdef __PERFORMANCE_CHECK__
; 505  : 	DWORD dwUpdateTime8=ELTimer_GetMSec();
; 506  : #endif
; 507  : 	OnMouseUpdate();

  001ca	8b cf		 mov	 ecx, edi
  001cc	e8 00 00 00 00	 call	 ?OnMouseUpdate@CPythonApplication@@IAEXXZ ; CPythonApplication::OnMouseUpdate

; 508  : #ifdef __PERFORMANCE_CHECK__
; 509  : 	DWORD dwUpdateTime9=ELTimer_GetMSec();
; 510  : #endif
; 511  : 	OnUIUpdate();

  001d1	e8 00 00 00 00	 call	 ?OnUIUpdate@CPythonApplication@@IAEXXZ ; CPythonApplication::OnUIUpdate

; 512  : 
; 513  : #ifdef __PERFORMANCE_CHECK__		
; 514  : 	DWORD dwUpdateTime10=ELTimer_GetMSec();
; 515  : 
; 516  : 	if (dwUpdateTime10-dwUpdateTime1>10)
; 517  : 	{			
; 518  : 		static FILE* fp=fopen("perf_app_update.txt", "w");
; 519  : 
; 520  : 		fprintf(fp, "AU.Total %d (Time %d)\n", dwUpdateTime9-dwUpdateTime1, ELTimer_GetMSec());
; 521  : 		fprintf(fp, "AU.TU %d\n", dwUpdateTime2-dwUpdateTime1);
; 522  : 		fprintf(fp, "AU.NU %d\n", dwUpdateTime3-dwUpdateTime2);
; 523  : 		fprintf(fp, "AU.KU %d\n", dwUpdateTime4-dwUpdateTime3);
; 524  : 		fprintf(fp, "AU.MP %d\n", dwUpdateTime5-dwUpdateTime4);
; 525  : 		fprintf(fp, "AU.CP %d\n", dwUpdateTime6-dwUpdateTime5);
; 526  : 		fprintf(fp, "AU.RU %d\n", dwUpdateTime7-dwUpdateTime6);
; 527  : 		fprintf(fp, "AU.CU %d\n", dwUpdateTime8-dwUpdateTime7);
; 528  : 		fprintf(fp, "AU.MU %d\n", dwUpdateTime9-dwUpdateTime8);
; 529  : 		fprintf(fp, "AU.UU %d\n", dwUpdateTime10-dwUpdateTime9);			
; 530  : 		fprintf(fp, "----------------------------------\n");
; 531  : 		fflush(fp);
; 532  : 	}		
; 533  : #endif
; 534  : 
; 535  : 	//Update .delta
; 536  : 	m_dwCurUpdateTime = ELTimer_GetMSec() - updatestart;

  001d6	e8 00 00 00 00	 call	 ?ELTimer_GetMSec@@YAKXZ	; ELTimer_GetMSec
  001db	2b c3		 sub	 eax, ebx
  001dd	89 87 7c ff 01
	00		 mov	 DWORD PTR [edi+130940], eax

; 537  : 
; 538  : 	DWORD dwCurrentTime = ELTimer_GetMSec();

  001e3	e8 00 00 00 00	 call	 ?ELTimer_GetMSec@@YAKXZ	; ELTimer_GetMSec

; 539  : 	BOOL  bCurrentLateUpdate = FALSE;
; 540  : 
; 541  : 	s_bFrameSkip = false;
; 542  : 
; 543  : 	if (dwCurrentTime > s_uiNextFrameTime)

  001e8	8b 0d 00 00 00
	00		 mov	 ecx, DWORD PTR ?s_uiNextFrameTime@?4??Process@CPythonApplication@@QAE_NXZ@4IA
  001ee	33 d2		 xor	 edx, edx
  001f0	c7 44 24 14 00
	00 00 00	 mov	 DWORD PTR _bCurrentLateUpdate$1$[esp+60], 0
  001f8	89 15 00 00 00
	00		 mov	 DWORD PTR ?s_bFrameSkip@?4??Process@CPythonApplication@@QAE_NXZ@4HA, edx
  001fe	3b c1		 cmp	 eax, ecx
  00200	76 65		 jbe	 SHORT $LN33@Process

; 544  : 	{
; 545  : 		int dt = dwCurrentTime - s_uiNextFrameTime;

  00202	66 0f 6e c6	 movd	 xmm0, esi
  00206	2b c1		 sub	 eax, ecx

; 546  : 		int nAdjustTime = ((float)dt / (float)uiFrameTime) * uiFrameTime; 

  00208	f3 0f e6 c0	 cvtdq2pd xmm0, xmm0
  0020c	c1 ee 1f	 shr	 esi, 31			; 0000001fH
  0020f	f2 0f 58 04 f5
	00 00 00 00	 addsd	 xmm0, QWORD PTR __xmm@41f00000000000000000000000000000[esi*8]
  00218	66 0f 5a c8	 cvtpd2ps xmm1, xmm0
  0021c	66 0f 6e c0	 movd	 xmm0, eax
  00220	0f 5b c0	 cvtdq2ps xmm0, xmm0
  00223	f3 0f 5e c1	 divss	 xmm0, xmm1
  00227	f3 0f 59 c1	 mulss	 xmm0, xmm1
  0022b	f3 0f 2c f0	 cvttss2si esi, xmm0

; 547  : 
; 548  : 		if ( dt >= 500 )

  0022f	3d f4 01 00 00	 cmp	 eax, 500		; 000001f4H
  00234	7c 22		 jl	 SHORT $LN32@Process

; 549  : 		{
; 550  : 			s_uiNextFrameTime += nAdjustTime; 

  00236	03 ce		 add	 ecx, esi

; 551  : 			printf("FrameSkip  %d\n",nAdjustTime);

  00238	56		 push	 esi
  00239	68 00 00 00 00	 push	 OFFSET ??_C@_0BD@OJBILBDC@FrameSkip?5?$LK?$LI?A?$KE?5?$CFd?6?$AA@
  0023e	89 0d 00 00 00
	00		 mov	 DWORD PTR ?s_uiNextFrameTime@?4??Process@CPythonApplication@@QAE_NXZ@4IA, ecx
  00244	e8 00 00 00 00	 call	 _printf

; 552  : 			CTimer::Instance().Adjust(nAdjustTime);

  00249	8b 0d 00 00 00
	00		 mov	 ecx, DWORD PTR ?ms_singleton@?$CSingleton@VCTimer@@@@0PAVCTimer@@A ; CSingleton<CTimer>::ms_singleton
  0024f	83 c4 08	 add	 esp, 8
  00252	56		 push	 esi
  00253	e8 00 00 00 00	 call	 ?Adjust@CTimer@@QAEXH@Z	; CTimer::Adjust
$LN32@Process:

; 553  : 		}
; 554  : 
; 555  : 		s_bFrameSkip = true;

  00258	ba 01 00 00 00	 mov	 edx, 1
  0025d	89 15 00 00 00
	00		 mov	 DWORD PTR ?s_bFrameSkip@?4??Process@CPythonApplication@@QAE_NXZ@4HA, edx

; 556  : 		bCurrentLateUpdate = TRUE;

  00263	89 54 24 14	 mov	 DWORD PTR _bCurrentLateUpdate$1$[esp+60], edx
$LN33@Process:

; 557  : 	}
; 558  : 
; 559  : 	//s_bFrameSkip = false;
; 560  : 
; 561  : 	//if (dwCurrentTime > s_uiNextFrameTime)
; 562  : 	//{
; 563  : 	//	int dt = dwCurrentTime - s_uiNextFrameTime;
; 564  : 
; 565  : 	//	//   .
; 566  : 	//	// m_dwCurUpdateTime delta delta absolute time  ?
; 567  : 	//	//if (dt >= 500 || m_dwCurUpdateTime > s_uiNextFrameTime)
; 568  : 
; 569  : 	//	//  0.5    update   rendering frame skip
; 570  : 	//	if (dt >= 500 || m_dwCurUpdateTime > s_uiNextFrameTime)
; 571  : 	//	{
; 572  : 	//		s_uiNextFrameTime += dt / uiFrameTime * uiFrameTime; 
; 573  : 	//		printf("FrameSkip  %d\n", dt / uiFrameTime * uiFrameTime);
; 574  : 	//		CTimer::Instance().Adjust((dt / uiFrameTime) * uiFrameTime);
; 575  : 	//		s_bFrameSkip = true;
; 576  : 	//	}
; 577  : 	//}
; 578  : 
; 579  : 	if (m_isFrameSkipDisable)

  00267	80 bf 91 00 02
	00 00		 cmp	 BYTE PTR [edi+131217], 0
  0026e	74 0c		 je	 SHORT $LN31@Process

; 580  : 		s_bFrameSkip = false;

  00270	c7 05 00 00 00
	00 00 00 00 00	 mov	 DWORD PTR ?s_bFrameSkip@?4??Process@CPythonApplication@@QAE_NXZ@4HA, 0

; 581  : 
; 582  : #ifdef __VTUNE__
; 583  : 	s_bFrameSkip = false;
; 584  : #endif
; 585  : 	/*
; 586  : 	static bool s_isPrevFrameSkip=false;
; 587  : 	static DWORD s_dwFrameSkipCount=0;
; 588  : 	static DWORD s_dwFrameSkipEndTime=0;
; 589  : 
; 590  : 	static DWORD ERROR_FRAME_SKIP_COUNT = 60*5;
; 591  : 	static DWORD ERROR_FRAME_SKIP_TIME = ERROR_FRAME_SKIP_COUNT*18;
; 592  : 
; 593  : 	//static DWORD MAX_FRAME_SKIP=0;
; 594  : 
; 595  : 	if (IsActive())
; 596  : 	{
; 597  : 	DWORD dwFrameSkipCurTime=ELTimer_GetMSec();
; 598  : 
; 599  : 	if (s_bFrameSkip)
; 600  : 	{
; 601  : 	//   ..
; 602  : 	if (s_isPrevFrameSkip)
; 603  : 	{
; 604  : 	if (s_dwFrameSkipEndTime==0)
; 605  : 	{
; 606  : 	s_dwFrameSkipCount=0; //    
; 607  : 	s_dwFrameSkipEndTime=dwFrameSkipCurTime+ERROR_FRAME_SKIP_TIME; //      
; 608  : 
; 609  : 	//printf("FrameSkipCheck Start\n");
; 610  : 	}
; 611  : 	++s_dwFrameSkipCount;
; 612  : 
; 613  : 	//if (MAX_FRAME_SKIP<s_dwFrameSkipCount)
; 614  : 	//	MAX_FRAME_SKIP=s_dwFrameSkipCount;
; 615  : 
; 616  : 	//printf("u %d c %d/%d t %d\n", 
; 617  : 	//	dwUpdateTime9-dwUpdateTime1,
; 618  : 	//	s_dwFrameSkipCount, 
; 619  : 	//	MAX_FRAME_SKIP,
; 620  : 	//	s_dwFrameSkipEndTime);
; 621  : 
; 622  : 	//#ifndef _DEBUG
; 623  : 	//      ...
; 624  : 	if (s_dwFrameSkipCount>ERROR_FRAME_SKIP_COUNT && s_dwFrameSkipEndTime<dwFrameSkipCurTime)
; 625  : 	{
; 626  : 	s_isPrevFrameSkip=false;
; 627  : 	s_dwFrameSkipEndTime=0;
; 628  : 	s_dwFrameSkipCount=0;
; 629  : 
; 630  : 	//m_pyNetworkStream.AbsoluteExitGame();
; 631  : 
; 632  : 	/*
; 633  : 	TraceError("    ");
; 634  : 
; 635  : 	{
; 636  : 	FILE* fp=fopen("errorlog.txt", "w");
; 637  : 	if (fp)
; 638  : 	{
; 639  : 	fprintf(fp, "FRAMESKIP\n");
; 640  : 	fprintf(fp, "Total %d\n",		dwUpdateTime9-dwUpdateTime1);
; 641  : 	fprintf(fp, "Timer %d\n",		dwUpdateTime2-dwUpdateTime1);
; 642  : 	fprintf(fp, "Network %d\n",		dwUpdateTime3-dwUpdateTime2);
; 643  : 	fprintf(fp, "Keyboard %d\n",	dwUpdateTime4-dwUpdateTime3);
; 644  : 	fprintf(fp, "Controll %d\n",	dwUpdateTime5-dwUpdateTime4);
; 645  : 	fprintf(fp, "Resource %d\n",	dwUpdateTime6-dwUpdateTime5);
; 646  : 	fprintf(fp, "Camera %d\n",		dwUpdateTime7-dwUpdateTime6);
; 647  : 	fprintf(fp, "Mouse %d\n",		dwUpdateTime8-dwUpdateTime7);
; 648  : 	fprintf(fp, "UI %d\n",			dwUpdateTime9-dwUpdateTime8);
; 649  : 	fclose(fp);
; 650  : 
; 651  : 	WinExec("errorlog.exe", SW_SHOW);
; 652  : 	}
; 653  : 	}
; 654  : 	}
; 655  : 	}
; 656  : 
; 657  : 	s_isPrevFrameSkip=true;
; 658  : 	}
; 659  : 	else
; 660  : 	{
; 661  : 	s_isPrevFrameSkip=false;
; 662  : 	s_dwFrameSkipCount=0;
; 663  : 	s_dwFrameSkipEndTime=0;
; 664  : 	}
; 665  : 	}
; 666  : 	else
; 667  : 	{
; 668  : 	s_isPrevFrameSkip=false;
; 669  : 	s_dwFrameSkipCount=0;
; 670  : 	s_dwFrameSkipEndTime=0;
; 671  : 	}
; 672  : 	*/
; 673  : 	if (!s_bFrameSkip)

  0027a	eb 08		 jmp	 SHORT $LN56@Process
$LN31@Process:
  0027c	85 d2		 test	 edx, edx
  0027e	0f 85 b2 03 00
	00		 jne	 $LN21@Process
$LN56@Process:
  00284	f2 0f 10 05 00
	00 00 00	 movsd	 xmm0, QWORD PTR ?g_specularSpd@@3NA

; 674  : 	{
; 675  : 		//		static double pos=0.0f;
; 676  : 		//		CGrannyMaterial::TranslateSpecularMatrix(fabs(sin(pos)*0.005), fabs(cos(pos)*0.005), 0.0f);
; 677  : 		//		pos+=0.01f;
; 678  : 
; 679  : 		CGrannyMaterial::TranslateSpecularMatrix(g_specularSpd, g_specularSpd, 0.0f);

  0028c	83 ec 0c	 sub	 esp, 12			; 0000000cH
  0028f	66 0f 5a c0	 cvtpd2ps xmm0, xmm0
  00293	c7 44 24 08 00
	00 00 00	 mov	 DWORD PTR [esp+8], 0
  0029b	f3 0f 11 44 24
	04		 movss	 DWORD PTR [esp+4], xmm0
  002a1	f3 0f 11 04 24	 movss	 DWORD PTR [esp], xmm0
  002a6	e8 00 00 00 00	 call	 ?TranslateSpecularMatrix@CGrannyMaterial@@SAXMMM@Z ; CGrannyMaterial::TranslateSpecularMatrix
  002ab	83 c4 0c	 add	 esp, 12			; 0000000cH

; 680  : 
; 681  : 		DWORD dwRenderStartTime = ELTimer_GetMSec();		

  002ae	e8 00 00 00 00	 call	 ?ELTimer_GetMSec@@YAKXZ	; ELTimer_GetMSec

; 682  : 
; 683  : 		bool canRender = true;
; 684  : 
; 685  : 		if (m_isMinimizedWnd)

  002b3	80 bf b0 00 02
	00 00		 cmp	 BYTE PTR [edi+131248], 0
  002ba	b3 01		 mov	 bl, 1
  002bc	89 44 24 18	 mov	 DWORD PTR _dwRenderStartTime$1$[esp+60], eax
  002c0	75 39		 jne	 SHORT $LN26@Process

; 686  : 		{
; 687  : 			canRender = false;
; 688  : 		}
; 689  : 		else
; 690  : 		{
; 691  : 			if (m_pyGraphic.IsLostDevice())

  002c2	8d 8f 9c 07 00
	00		 lea	 ecx, DWORD PTR [edi+1948]
  002c8	e8 00 00 00 00	 call	 ?IsLostDevice@CScreen@@QAEHXZ ; CScreen::IsLostDevice
  002cd	85 c0		 test	 eax, eax
  002cf	74 2c		 je	 SHORT $LN25@Process

; 692  : 			{
; 693  : 				CPythonBackground& rkBG = CPythonBackground::Instance();

  002d1	a1 00 00 00 00	 mov	 eax, DWORD PTR ?ms_singleton@?$CSingleton@VCPythonBackground@@@@0PAVCPythonBackground@@A ; CSingleton<CPythonBackground>::ms_singleton

; 694  : 				rkBG.ReleaseCharacterShadowTexture();

  002d6	8b c8		 mov	 ecx, eax
  002d8	89 44 24 10	 mov	 DWORD PTR _rkBG$1$[esp+60], eax
  002dc	e8 00 00 00 00	 call	 ?ReleaseCharacterShadowTexture@CPythonBackground@@QAEXXZ ; CPythonBackground::ReleaseCharacterShadowTexture

; 695  : 
; 696  : 				if (m_pyGraphic.RestoreDevice())					

  002e1	8d 8f 9c 07 00
	00		 lea	 ecx, DWORD PTR [edi+1948]
  002e7	e8 00 00 00 00	 call	 ?RestoreDevice@CScreen@@QAEHXZ ; CScreen::RestoreDevice
  002ec	85 c0		 test	 eax, eax
  002ee	74 0b		 je	 SHORT $LN26@Process

; 697  : 					rkBG.CreateCharacterShadowTexture();

  002f0	8b 4c 24 10	 mov	 ecx, DWORD PTR _rkBG$1$[esp+60]
  002f4	e8 00 00 00 00	 call	 ?CreateCharacterShadowTexture@CPythonBackground@@QAEXXZ ; CPythonBackground::CreateCharacterShadowTexture

; 698  : 				else

  002f9	eb 02		 jmp	 SHORT $LN25@Process
$LN26@Process:

; 699  : 					canRender = false;				

  002fb	32 db		 xor	 bl, bl
$LN25@Process:

; 700  : 			}
; 701  : 		}
; 702  : 
; 703  : 		if (!IsActive())

  002fd	8b cf		 mov	 ecx, edi
  002ff	e8 00 00 00 00	 call	 ?IsActive@CMSWindow@@QAE_NXZ ; CMSWindow::IsActive
  00304	84 c0		 test	 al, al
  00306	75 0e		 jne	 SHORT $LN24@Process

; 704  : 		{
; 705  : 			SkipRenderBuffering(3000);

  00308	8b 47 20	 mov	 eax, DWORD PTR [edi+32]
  0030b	8d 4f 20	 lea	 ecx, DWORD PTR [edi+32]
  0030e	68 b8 0b 00 00	 push	 3000			; 00000bb8H
  00313	ff 50 10	 call	 DWORD PTR [eax+16]
$LN24@Process:

; 706  : 		}
; 707  : 
; 708  : 		//        
; 709  : 		if (!canRender)

  00316	84 db		 test	 bl, bl
  00318	75 13		 jne	 SHORT $LN23@Process

; 710  : 		{
; 711  : 			SkipRenderBuffering(3000);

  0031a	8b 47 20	 mov	 eax, DWORD PTR [edi+32]
  0031d	8d 4f 20	 lea	 ecx, DWORD PTR [edi+32]
  00320	68 b8 0b 00 00	 push	 3000			; 00000bb8H
  00325	ff 50 10	 call	 DWORD PTR [eax+16]

; 712  : 		}
; 713  : 		else

  00328	e9 09 03 00 00	 jmp	 $LN21@Process
$LN23@Process:

; 714  : 		{
; 715  : 			// RestoreLostDevice
; 716  : 			CCullingManager::Instance().Update();

  0032d	8b 0d 00 00 00
	00		 mov	 ecx, DWORD PTR ?ms_singleton@?$CSingleton@VCCullingManager@@@@0PAVCCullingManager@@A ; CSingleton<CCullingManager>::ms_singleton
  00333	e8 00 00 00 00	 call	 ?Update@CCullingManager@@QAEXXZ ; CCullingManager::Update

; 717  : 			if (m_pyGraphic.Begin())

  00338	8d b7 9c 07 00
	00		 lea	 esi, DWORD PTR [edi+1948]
  0033e	8b ce		 mov	 ecx, esi
  00340	e8 00 00 00 00	 call	 ?Begin@CScreen@@QAE_NXZ	; CScreen::Begin
  00345	84 c0		 test	 al, al
  00347	0f 84 e9 02 00
	00		 je	 $LN21@Process

; 718  : 			{
; 719  : 
; 720  : 				m_pyGraphic.ClearDepthBuffer();

  0034d	8b ce		 mov	 ecx, esi
  0034f	e8 00 00 00 00	 call	 ?ClearDepthBuffer@CScreen@@QAEXXZ ; CScreen::ClearDepthBuffer

; 721  : 
; 722  : #ifdef _DEBUG
; 723  : 				m_pyGraphic.SetClearColor(0.3f, 0.3f, 0.3f);
; 724  : 				m_pyGraphic.Clear();
; 725  : #endif
; 726  : 
