; Listing generated by Microsoft (R) Optimizing Compiler Version 18.00.40629.0 

	TITLE	D:\Metin2\Metin2\client_source_clean\client_source_clean\source\UserInterface\PythonBackground.cpp
	.686P
	.XMM
	include listing.inc
	.model	flat

INCLUDELIB OLDNAMES

PUBLIC	??_C@_0DF@GEMPMAOP@d?3?1ymir?5work?1effect?1etc?1directio@ ; `string'
PUBLIC	??_C@_0FF@DMIGEFGG@CPythonBackground?3?3SelectViewDis@ ; `string'
PUBLIC	??_C@_0DE@ELMEDMBE@CPythonBackground?3?3GetFarClip?5m_@ ; `string'
PUBLIC	??_C@_0BI@FJAIMBEC@CPythonBackground?5Clear?$AA@ ; `string'
PUBLIC	??_C@_0P@NOGPLHFF@?1AtlasInfo?4txt?$AA@		; `string'
PUBLIC	??_C@_08EMBNBNLN@property?$AA@			; `string'
PUBLIC	??_C@_08MOOMJPBO@Property?$AA@			; `string'
PUBLIC	??_C@_03EMIMMIHL@?$CK?4?$CK?$AA@		; `string'
PUBLIC	??_C@_0O@NAMKDHJD@pack?1property?$AA@		; `string'
PUBLIC	??_C@_0CC@FDBLKFI@NOT_FOUND_GLOBAL_POSITION?$CI?$CFd?0?5?$CFd@ ; `string'
PUBLIC	??_C@_0P@EOAEHOGM@map_n_snowm_01?$AA@		; `string'
PUBLIC	??_C@_0CF@PCFPEOFC@d?3?1ymir?5work?1tree?1christmastree1@ ; `string'
PUBLIC	??_C@_0CF@HEMLDMPM@d?3?1ymir?5work?1tree?1christmastree2@ ; `string'
PUBLIC	??_C@_0CF@LPJHOPFJ@d?3?1ymir?5work?1tree?1christmastree3@ ; `string'
PUBLIC	??_C@_0DD@NHFFJCJH@d?3?1ymir?5work?1effect?1etc?1christma@ ; `string'
PUBLIC	??_C@_0DD@OGLNIIAK@d?3?1ymir?5work?1effect?1etc?1christma@ ; `string'
PUBLIC	??_C@_0DD@EAMKIDLO@d?3?1ymir?5work?1effect?1etc?1christma@ ; `string'
PUBLIC	??_R2?$RangeTester@UCollisionChecker@@@@8	; RangeTester<CollisionChecker>::`RTTI Base Class Array'
PUBLIC	??_R2?$RangeTester@UCollisionAdjustChecker@@@@8	; RangeTester<CollisionAdjustChecker>::`RTTI Base Class Array'
PUBLIC	??_R2?$RangeTester@UFGetPortalID@@@@8		; RangeTester<FGetPortalID>::`RTTI Base Class Array'
PUBLIC	??_R2CPythonBackground@@8			; CPythonBackground::`RTTI Base Class Array'
PUBLIC	??_R2?$CSingleton@VCPythonBackground@@@@8	; CSingleton<CPythonBackground>::`RTTI Base Class Array'
PUBLIC	??_R2CMapManager@@8				; CMapManager::`RTTI Base Class Array'
PUBLIC	??_R2IPhysicsWorld@@8				; IPhysicsWorld::`RTTI Base Class Array'
PUBLIC	??_R2CScreen@@8					; CScreen::`RTTI Base Class Array'
PUBLIC	??_R2CGraphicCollisionObject@@8			; CGraphicCollisionObject::`RTTI Base Class Array'
PUBLIC	??_R2CGraphicBase@@8				; CGraphicBase::`RTTI Base Class Array'
PUBLIC	??_R1A@?0A@EA@?$RangeTester@UCollisionChecker@@@@8 ; RangeTester<CollisionChecker>::`RTTI Base Class Descriptor at (0,-1,0,64)'
PUBLIC	??_R1A@?0A@EA@?$RangeTester@UCollisionAdjustChecker@@@@8 ; RangeTester<CollisionAdjustChecker>::`RTTI Base Class Descriptor at (0,-1,0,64)'
PUBLIC	??_R1A@?0A@EA@?$RangeTester@UFGetPortalID@@@@8	; RangeTester<FGetPortalID>::`RTTI Base Class Descriptor at (0,-1,0,64)'
PUBLIC	??_R1BENM@?0A@EA@?$CSingleton@VCPythonBackground@@@@8 ; CSingleton<CPythonBackground>::`RTTI Base Class Descriptor at (5340,-1,0,64)'
PUBLIC	??_R1A@?0A@EA@CPythonBackground@@8		; CPythonBackground::`RTTI Base Class Descriptor at (0,-1,0,64)'
PUBLIC	??_R1A@?0A@EA@?$CSingleton@VCPythonBackground@@@@8 ; CSingleton<CPythonBackground>::`RTTI Base Class Descriptor at (0,-1,0,64)'
PUBLIC	??_R13?0A@EA@IPhysicsWorld@@8			; IPhysicsWorld::`RTTI Base Class Descriptor at (4,-1,0,64)'
PUBLIC	??_R1A@?0A@EA@CMapManager@@8			; CMapManager::`RTTI Base Class Descriptor at (0,-1,0,64)'
PUBLIC	??_R1A@?0A@EA@IPhysicsWorld@@8			; IPhysicsWorld::`RTTI Base Class Descriptor at (0,-1,0,64)'
PUBLIC	??_R1A@?0A@EA@CScreen@@8			; CScreen::`RTTI Base Class Descriptor at (0,-1,0,64)'
PUBLIC	??_R1A@?0A@EA@CGraphicCollisionObject@@8	; CGraphicCollisionObject::`RTTI Base Class Descriptor at (0,-1,0,64)'
PUBLIC	??_R1A@?0A@EA@CGraphicBase@@8			; CGraphicBase::`RTTI Base Class Descriptor at (0,-1,0,64)'
PUBLIC	??_R3?$RangeTester@UCollisionChecker@@@@8	; RangeTester<CollisionChecker>::`RTTI Class Hierarchy Descriptor'
PUBLIC	??_R0?AU?$RangeTester@UCollisionChecker@@@@@8	; RangeTester<CollisionChecker> `RTTI Type Descriptor'
PUBLIC	??_R3?$RangeTester@UCollisionAdjustChecker@@@@8	; RangeTester<CollisionAdjustChecker>::`RTTI Class Hierarchy Descriptor'
PUBLIC	??_R0?AU?$RangeTester@UCollisionAdjustChecker@@@@@8 ; RangeTester<CollisionAdjustChecker> `RTTI Type Descriptor'
PUBLIC	??_R3?$RangeTester@UFGetPortalID@@@@8		; RangeTester<FGetPortalID>::`RTTI Class Hierarchy Descriptor'
PUBLIC	??_R0?AU?$RangeTester@UFGetPortalID@@@@@8	; RangeTester<FGetPortalID> `RTTI Type Descriptor'
PUBLIC	??_R3?$CSingleton@VCPythonBackground@@@@8	; CSingleton<CPythonBackground>::`RTTI Class Hierarchy Descriptor'
PUBLIC	??_R0?AV?$CSingleton@VCPythonBackground@@@@@8	; CSingleton<CPythonBackground> `RTTI Type Descriptor'
PUBLIC	??_R3CMapManager@@8				; CMapManager::`RTTI Class Hierarchy Descriptor'
PUBLIC	??_R0?AVCMapManager@@@8				; CMapManager `RTTI Type Descriptor'
PUBLIC	??_R3CPythonBackground@@8			; CPythonBackground::`RTTI Class Hierarchy Descriptor'
PUBLIC	??_R0?AVCPythonBackground@@@8			; CPythonBackground `RTTI Type Descriptor'
PUBLIC	??_R3IPhysicsWorld@@8				; IPhysicsWorld::`RTTI Class Hierarchy Descriptor'
PUBLIC	??_R0?AVIPhysicsWorld@@@8			; IPhysicsWorld `RTTI Type Descriptor'
PUBLIC	??_R3CScreen@@8					; CScreen::`RTTI Class Hierarchy Descriptor'
PUBLIC	??_R0?AVCScreen@@@8				; CScreen `RTTI Type Descriptor'
PUBLIC	??_R3CGraphicCollisionObject@@8			; CGraphicCollisionObject::`RTTI Class Hierarchy Descriptor'
PUBLIC	??_R0?AVCGraphicCollisionObject@@@8		; CGraphicCollisionObject `RTTI Type Descriptor'
PUBLIC	??_R3CGraphicBase@@8				; CGraphicBase::`RTTI Class Hierarchy Descriptor'
PUBLIC	??_R0?AVCGraphicBase@@@8			; CGraphicBase `RTTI Type Descriptor'
PUBLIC	??_R4?$RangeTester@UCollisionChecker@@@@6B@	; RangeTester<CollisionChecker>::`RTTI Complete Object Locator'
PUBLIC	??_R4?$RangeTester@UCollisionAdjustChecker@@@@6B@ ; RangeTester<CollisionAdjustChecker>::`RTTI Complete Object Locator'
PUBLIC	??_R4?$RangeTester@UFGetPortalID@@@@6B@		; RangeTester<FGetPortalID>::`RTTI Complete Object Locator'
PUBLIC	??_R4?$CSingleton@VCPythonBackground@@@@6B@	; CSingleton<CPythonBackground>::`RTTI Complete Object Locator'
PUBLIC	??_R4CPythonBackground@@6B@			; CPythonBackground::`RTTI Complete Object Locator'
PUBLIC	??_R4CPythonBackground@@6BIPhysicsWorld@@@	; CPythonBackground::`RTTI Complete Object Locator'
PUBLIC	??_R4CPythonBackground@@6BCScreen@@@		; CPythonBackground::`RTTI Complete Object Locator'
PUBLIC	??_7?$RangeTester@UCollisionChecker@@@@6B@	; RangeTester<CollisionChecker>::`vftable'
PUBLIC	??_7?$RangeTester@UCollisionAdjustChecker@@@@6B@ ; RangeTester<CollisionAdjustChecker>::`vftable'
PUBLIC	??_7?$RangeTester@UFGetPortalID@@@@6B@		; RangeTester<FGetPortalID>::`vftable'
PUBLIC	?ms_singleton@?$CSingleton@VCPythonMiniMap@@@@0PAVCPythonMiniMap@@A ; CSingleton<CPythonMiniMap>::ms_singleton
PUBLIC	??_7?$CSingleton@VCPythonBackground@@@@6B@	; CSingleton<CPythonBackground>::`vftable'
PUBLIC	??_7CPythonBackground@@6B@			; CPythonBackground::`vftable'
PUBLIC	??_7CPythonBackground@@6BIPhysicsWorld@@@	; CPythonBackground::`vftable'
PUBLIC	??_7CPythonBackground@@6BCScreen@@@		; CPythonBackground::`vftable'
EXTRN	?GRAPHICS_CAPS_CAN_NOT_DRAW_SHADOW@@3_NA:BYTE	; GRAPHICS_CAPS_CAN_NOT_DRAW_SHADOW
EXTRN	?isPhysicalCollision@CMapManager@@UAE_NABUD3DXVECTOR3@@@Z:PROC ; CMapManager::isPhysicalCollision
EXTRN	?AllocMap@CMapManager@@UAEPAVCMapBase@@XZ:PROC	; CMapManager::AllocMap
EXTRN	?Clear@CMapManager@@UAEXXZ:PROC			; CMapManager::Clear
EXTRN	?RayTrace@SpherePackFactory@@QAEXABVVector3d@@0PAVSpherePackCallback@@@Z:PROC ; SpherePackFactory::RayTrace
EXTRN	?SpecialEffect_Delete@CMapOutdoor@@QAEXK@Z:PROC	; CMapOutdoor::SpecialEffect_Delete
EXTRN	?GetBaseXY@CMapOutdoor@@QAEXPAK0@Z:PROC		; CMapOutdoor::GetBaseXY
EXTRN	?SpecialEffect_Create@CMapOutdoor@@QAEXKMMMPBD@Z:PROC ; CMapOutdoor::SpecialEffect_Create
EXTRN	?XMasTree_Set@CMapOutdoor@@QAEXMMMPBD0@Z:PROC	; CMapOutdoor::XMasTree_Set
EXTRN	?XMasTree_Destroy@CMapOutdoor@@QAEXXZ:PROC	; CMapOutdoor::XMasTree_Destroy
EXTRN	?Enable@CSnowEnvironment@@QAEXXZ:PROC		; CSnowEnvironment::Enable
EXTRN	?Disable@CSnowEnvironment@@QAEXXZ:PROC		; CSnowEnvironment::Disable
EXTRN	?DisableMarkedArea@CMapOutdoor@@QAEXXZ:PROC	; CMapOutdoor::DisableMarkedArea
EXTRN	?EnablePortal@CMapOutdoor@@QAEX_N@Z:PROC	; CMapOutdoor::EnablePortal
EXTRN	?VisibleMarkedArea@CMapOutdoor@@QAEXXZ:PROC	; CMapOutdoor::VisibleMarkedArea
EXTRN	?SetLight@CStateManager@@QAEXKPBU_D3DLIGHT8@@@Z:PROC ; CStateManager::SetLight
EXTRN	?LoadMap@CMapManager@@UAE_NABV?$basic_string@DU?$char_traits@D@std@@V?$allocator@D@2@@std@@MMM@Z:PROC ; CMapManager::LoadMap
EXTRN	?RegisterGuildArea@CMapOutdoor@@QAEXHHHH@Z:PROC	; CMapOutdoor::RegisterGuildArea
EXTRN	?RenderAfterLensFlare@CMapOutdoor@@QAEXXZ:PROC	; CMapOutdoor::RenderAfterLensFlare
EXTRN	?ClearGuildArea@CMapOutdoor@@QAEXXZ:PROC	; CMapOutdoor::ClearGuildArea
EXTRN	?RenderEffect@CMapOutdoor@@QAEXXZ:PROC		; CMapOutdoor::RenderEffect
EXTRN	?RenderBeforeLensFlare@CMapOutdoor@@QAEXXZ:PROC	; CMapOutdoor::RenderBeforeLensFlare
EXTRN	?RenderCloud@CMapOutdoor@@QAEXXZ:PROC		; CMapOutdoor::RenderCloud
EXTRN	?RenderWater@CMapOutdoor@@QAEXXZ:PROC		; CMapOutdoor::RenderWater
EXTRN	?RenderSky@CMapOutdoor@@QAEXXZ:PROC		; CMapOutdoor::RenderSky
EXTRN	?EndRenderCharacterShadowToTexture@CMapOutdoor@@QAEXXZ:PROC ; CMapOutdoor::EndRenderCharacterShadowToTexture
EXTRN	?SetTransform@CStateManager@@QAEXW4_D3DTRANSFORMSTATETYPE@@PBU_D3DMATRIX@@@Z:PROC ; CStateManager::SetTransform
EXTRN	?GetTransform@CStateManager@@QAEXW4_D3DTRANSFORMSTATETYPE@@PAU_D3DMATRIX@@@Z:PROC ; CStateManager::GetTransform
EXTRN	?BeginRenderCharacterShadowToTexture@CMapOutdoor@@QAE_NXZ:PROC ; CMapOutdoor::BeginRenderCharacterShadowToTexture
EXTRN	?RenderPCBlocker@CMapOutdoor@@QAEXXZ:PROC	; CMapOutdoor::RenderPCBlocker
EXTRN	?RenderCollision@CMapOutdoor@@QAEXXZ:PROC	; CMapOutdoor::RenderCollision
EXTRN	?RenderMarkedArea@CMapOutdoor@@QAEXXZ:PROC	; CMapOutdoor::RenderMarkedArea
EXTRN	?Render@CSnowEnvironment@@QAEXXZ:PROC		; CSnowEnvironment::Render
EXTRN	?Deform@CSnowEnvironment@@QAEXXZ:PROC		; CSnowEnvironment::Deform
EXTRN	?Render@CMapBase@@QAEXXZ:PROC			; CMapBase::Render
EXTRN	?AddShowingPortalID@CMapManager@@QAEXH@Z:PROC	; CMapManager::AddShowingPortalID
EXTRN	?RefreshPortal@CMapManager@@QAEXXZ:PROC		; CMapManager::RefreshPortal
EXTRN	?Update@CSnowEnvironment@@QAEXABUD3DXVECTOR3@@@Z:PROC ; CSnowEnvironment::Update
EXTRN	?ClearPortal@CMapManager@@QAEXXZ:PROC		; CMapManager::ClearPortal
EXTRN	?UpdateMap@CMapManager@@QAE_NMMM@Z:PROC		; CMapManager::UpdateMap
EXTRN	?UpdateAroundAmbience@CMapManager@@QAEXMMM@Z:PROC ; CMapManager::UpdateAroundAmbience
EXTRN	?Create@CSnowEnvironment@@QAE_NXZ:PROC		; CSnowEnvironment::Create
EXTRN	?GetPortal@CGraphicObjectInstance@@QAEHK@Z:PROC	; CGraphicObjectInstance::GetPortal
EXTRN	?Create@CMapManager@@QAEXXZ:PROC		; CMapManager::Create
EXTRN	?Destroy@CSnowEnvironment@@QAEXXZ:PROC		; CSnowEnvironment::Destroy
EXTRN	?Destroy@CMapManager@@QAEXXZ:PROC		; CMapManager::Destroy
EXTRN	?GetPickingPointWithRay@CMapOutdoor@@QAE_NABVCRay@@PAUD3DXVECTOR3@@@Z:PROC ; CMapOutdoor::GetPickingPointWithRay
EXTRN	?GetPickingPointWithRayOnlyTerrain@CMapOutdoor@@QAE_NABVCRay@@PAUD3DXVECTOR3@@@Z:PROC ; CMapOutdoor::GetPickingPointWithRayOnlyTerrain
EXTRN	?Create@CDir@@QAE_NPBD0H@Z:PROC			; CDir::Create
EXTRN	?GetPickingPoint@CMapOutdoor@@QAE_NPAUD3DXVECTOR3@@@Z:PROC ; CMapOutdoor::GetPickingPoint
EXTRN	??1CPropertyLoader@@UAE@XZ:PROC			; CPropertyLoader::~CPropertyLoader
EXTRN	?SetPropertyManager@CPropertyLoader@@QAEXPAVCPropertyManager@@@Z:PROC ; CPropertyLoader::SetPropertyManager
EXTRN	?Initialize@CPropertyManager@@QAE_NPBD@Z:PROC	; CPropertyManager::Initialize
EXTRN	??0CPropertyLoader@@QAE@XZ:PROC			; CPropertyLoader::CPropertyLoader
EXTRN	?GetSearchMode@CEterPackManager@@QAEHXZ:PROC	; CEterPackManager::GetSearchMode
EXTRN	?Initialize@CMapManager@@QAEXXZ:PROC		; CMapManager::Initialize
EXTRN	??0CSnowEnvironment@@QAE@XZ:PROC		; CSnowEnvironment::CSnowEnvironment
EXTRN	??1CSnowEnvironment@@UAE@XZ:PROC		; CSnowEnvironment::~CSnowEnvironment
EXTRN	??0CMapManager@@QAE@XZ:PROC			; CMapManager::CMapManager
EXTRN	??1CMapManager@@UAE@XZ:PROC			; CMapManager::~CMapManager
EXTRN	?SetEnvironmentSkyBox@CMapOutdoor@@QAEXXZ:PROC	; CMapOutdoor::SetEnvironmentSkyBox
EXTRN	?SetDrawCharacterShadow@CMapOutdoor@@QAEX_N@Z:PROC ; CMapOutdoor::SetDrawCharacterShadow
EXTRN	?SetShadowTextureSize@CMapOutdoor@@QAEXG@Z:PROC	; CMapOutdoor::SetShadowTextureSize
EXTRN	?SetDrawShadow@CMapOutdoor@@QAEX_N@Z:PROC	; CMapOutdoor::SetDrawShadow
EXTRN	?ReleaseCharacterShadowTexture@CMapOutdoor@@QAEXXZ:PROC ; CMapOutdoor::ReleaseCharacterShadowTexture
EXTRN	?SetSplatLimit@CMapOutdoor@@QAEXH@Z:PROC	; CMapOutdoor::SetSplatLimit
EXTRN	?CreateCharacterShadowTexture@CMapOutdoor@@QAEXXZ:PROC ; CMapOutdoor::CreateCharacterShadowTexture
EXTRN	?GetMapOutdoorRef@CMapManager@@QAEAAVCMapOutdoor@@XZ:PROC ; CMapManager::GetMapOutdoorRef
EXTRN	?SetVisiblePart@CMapOutdoor@@QAEXH_N@Z:PROC	; CMapOutdoor::SetVisiblePart
;	COMDAT ?ms_singleton@?$CSingleton@VCPythonMiniMap@@@@0PAVCPythonMiniMap@@A
_BSS	SEGMENT
?ms_singleton@?$CSingleton@VCPythonMiniMap@@@@0PAVCPythonMiniMap@@A DD 01H DUP (?) ; CSingleton<CPythonMiniMap>::ms_singleton
_BSS	ENDS
;	COMDAT ?s_isCreateProperty@?1??Create@CPythonBackground@@QAEXXZ@4HA
_BSS	SEGMENT
?s_isCreateProperty@?1??Create@CPythonBackground@@QAEXXZ@4HA DD 01H DUP (?) ; `CPythonBackground::Create'::`2'::s_isCreateProperty
_BSS	ENDS
;	COMDAT ??_7CPythonBackground@@6BCScreen@@@
CONST	SEGMENT
??_7CPythonBackground@@6BCScreen@@@ DD FLAT:??_R4CPythonBackground@@6BCScreen@@@ ; CPythonBackground::`vftable'
	DD	FLAT:??_ECPythonBackground@@UAEPAXI@Z
	DD	FLAT:?Clear@CMapManager@@UAEXXZ
	DD	FLAT:?AllocMap@CMapManager@@UAEPAVCMapBase@@XZ
	DD	FLAT:?LoadMap@CMapManager@@UAE_NABV?$basic_string@DU?$char_traits@D@std@@V?$allocator@D@2@@std@@MMM@Z
CONST	ENDS
;	COMDAT ??_7CPythonBackground@@6BIPhysicsWorld@@@
CONST	SEGMENT
??_7CPythonBackground@@6BIPhysicsWorld@@@ DD FLAT:??_R4CPythonBackground@@6BIPhysicsWorld@@@ ; CPythonBackground::`vftable'
	DD	FLAT:??_ECPythonBackground@@W3AEPAXI@Z
	DD	FLAT:?isPhysicalCollision@CMapManager@@UAE_NABUD3DXVECTOR3@@@Z
CONST	ENDS
;	COMDAT ??_7CPythonBackground@@6B@
CONST	SEGMENT
??_7CPythonBackground@@6B@ DD FLAT:??_R4CPythonBackground@@6B@ ; CPythonBackground::`vftable'
	DD	FLAT:??_ECPythonBackground@@WBENM@AEPAXI@Z
CONST	ENDS
;	COMDAT ??_7?$CSingleton@VCPythonBackground@@@@6B@
CONST	SEGMENT
??_7?$CSingleton@VCPythonBackground@@@@6B@ DD FLAT:??_R4?$CSingleton@VCPythonBackground@@@@6B@ ; CSingleton<CPythonBackground>::`vftable'
	DD	FLAT:??_E?$CSingleton@VCPythonBackground@@@@UAEPAXI@Z
CONST	ENDS
;	COMDAT ??_7?$RangeTester@UFGetPortalID@@@@6B@
CONST	SEGMENT
??_7?$RangeTester@UFGetPortalID@@@@6B@ DD FLAT:??_R4?$RangeTester@UFGetPortalID@@@@6B@ ; RangeTester<FGetPortalID>::`vftable'
	DD	FLAT:??_E?$RangeTester@UFGetPortalID@@@@UAEPAXI@Z
	DD	FLAT:?VisibilityCallback@?$RangeTester@UFGetPortalID@@@@UAEXABVFrustum@@PAVSpherePack@@W4ViewState@@@Z
	DD	FLAT:?RayTraceCallback@?$RangeTester@UFGetPortalID@@@@UAEXABVVector3d@@0M0PAVSpherePack@@@Z
	DD	FLAT:?RangeTestCallback@?$RangeTester@UFGetPortalID@@@@UAEXABVVector3d@@MPAVSpherePack@@W4ViewState@@@Z
	DD	FLAT:?PointTest2dCallback@?$RangeTester@UFGetPortalID@@@@UAEXABVVector3d@@PAVSpherePack@@W4ViewState@@@Z
CONST	ENDS
;	COMDAT ??_7?$RangeTester@UCollisionAdjustChecker@@@@6B@
CONST	SEGMENT
??_7?$RangeTester@UCollisionAdjustChecker@@@@6B@ DD FLAT:??_R4?$RangeTester@UCollisionAdjustChecker@@@@6B@ ; RangeTester<CollisionAdjustChecker>::`vftable'
	DD	FLAT:??_E?$RangeTester@UCollisionAdjustChecker@@@@UAEPAXI@Z
	DD	FLAT:?VisibilityCallback@?$RangeTester@UCollisionAdjustChecker@@@@UAEXABVFrustum@@PAVSpherePack@@W4ViewState@@@Z
	DD	FLAT:?RayTraceCallback@?$RangeTester@UCollisionAdjustChecker@@@@UAEXABVVector3d@@0M0PAVSpherePack@@@Z
	DD	FLAT:?RangeTestCallback@?$RangeTester@UCollisionAdjustChecker@@@@UAEXABVVector3d@@MPAVSpherePack@@W4ViewState@@@Z
	DD	FLAT:?PointTest2dCallback@?$RangeTester@UCollisionAdjustChecker@@@@UAEXABVVector3d@@PAVSpherePack@@W4ViewState@@@Z
CONST	ENDS
;	COMDAT ??_7?$RangeTester@UCollisionChecker@@@@6B@
CONST	SEGMENT
??_7?$RangeTester@UCollisionChecker@@@@6B@ DD FLAT:??_R4?$RangeTester@UCollisionChecker@@@@6B@ ; RangeTester<CollisionChecker>::`vftable'
	DD	FLAT:??_E?$RangeTester@UCollisionChecker@@@@UAEPAXI@Z
	DD	FLAT:?VisibilityCallback@?$RangeTester@UCollisionChecker@@@@UAEXABVFrustum@@PAVSpherePack@@W4ViewState@@@Z
	DD	FLAT:?RayTraceCallback@?$RangeTester@UCollisionChecker@@@@UAEXABVVector3d@@0M0PAVSpherePack@@@Z
	DD	FLAT:?RangeTestCallback@?$RangeTester@UCollisionChecker@@@@UAEXABVVector3d@@MPAVSpherePack@@W4ViewState@@@Z
	DD	FLAT:?PointTest2dCallback@?$RangeTester@UCollisionChecker@@@@UAEXABVVector3d@@PAVSpherePack@@W4ViewState@@@Z
CONST	ENDS
;	COMDAT ??_R4CPythonBackground@@6BCScreen@@@
rdata$r	SEGMENT
??_R4CPythonBackground@@6BCScreen@@@ DD 00H		; CPythonBackground::`RTTI Complete Object Locator'
	DD	00H
	DD	00H
	DD	FLAT:??_R0?AVCPythonBackground@@@8
	DD	FLAT:??_R3CPythonBackground@@8
rdata$r	ENDS
;	COMDAT ??_R4CPythonBackground@@6BIPhysicsWorld@@@
rdata$r	SEGMENT
??_R4CPythonBackground@@6BIPhysicsWorld@@@ DD 00H	; CPythonBackground::`RTTI Complete Object Locator'
	DD	04H
	DD	00H
	DD	FLAT:??_R0?AVCPythonBackground@@@8
	DD	FLAT:??_R3CPythonBackground@@8
rdata$r	ENDS
;	COMDAT ??_R4CPythonBackground@@6B@
rdata$r	SEGMENT
??_R4CPythonBackground@@6B@ DD 00H			; CPythonBackground::`RTTI Complete Object Locator'
	DD	014dcH
	DD	00H
	DD	FLAT:??_R0?AVCPythonBackground@@@8
	DD	FLAT:??_R3CPythonBackground@@8
rdata$r	ENDS
;	COMDAT ??_R4?$CSingleton@VCPythonBackground@@@@6B@
rdata$r	SEGMENT
??_R4?$CSingleton@VCPythonBackground@@@@6B@ DD 00H	; CSingleton<CPythonBackground>::`RTTI Complete Object Locator'
	DD	00H
	DD	00H
	DD	FLAT:??_R0?AV?$CSingleton@VCPythonBackground@@@@@8
	DD	FLAT:??_R3?$CSingleton@VCPythonBackground@@@@8
rdata$r	ENDS
;	COMDAT ??_R4?$RangeTester@UFGetPortalID@@@@6B@
rdata$r	SEGMENT
??_R4?$RangeTester@UFGetPortalID@@@@6B@ DD 00H		; RangeTester<FGetPortalID>::`RTTI Complete Object Locator'
	DD	00H
	DD	00H
	DD	FLAT:??_R0?AU?$RangeTester@UFGetPortalID@@@@@8
	DD	FLAT:??_R3?$RangeTester@UFGetPortalID@@@@8
rdata$r	ENDS
;	COMDAT ??_R4?$RangeTester@UCollisionAdjustChecker@@@@6B@
rdata$r	SEGMENT
??_R4?$RangeTester@UCollisionAdjustChecker@@@@6B@ DD 00H ; RangeTester<CollisionAdjustChecker>::`RTTI Complete Object Locator'
	DD	00H
	DD	00H
	DD	FLAT:??_R0?AU?$RangeTester@UCollisionAdjustChecker@@@@@8
	DD	FLAT:??_R3?$RangeTester@UCollisionAdjustChecker@@@@8
rdata$r	ENDS
;	COMDAT ??_R4?$RangeTester@UCollisionChecker@@@@6B@
rdata$r	SEGMENT
??_R4?$RangeTester@UCollisionChecker@@@@6B@ DD 00H	; RangeTester<CollisionChecker>::`RTTI Complete Object Locator'
	DD	00H
	DD	00H
	DD	FLAT:??_R0?AU?$RangeTester@UCollisionChecker@@@@@8
	DD	FLAT:??_R3?$RangeTester@UCollisionChecker@@@@8
rdata$r	ENDS
;	COMDAT ??_R0?AVCGraphicBase@@@8
data$r	SEGMENT
??_R0?AVCGraphicBase@@@8 DD FLAT:??_7type_info@@6B@	; CGraphicBase `RTTI Type Descriptor'
	DD	00H
	DB	'.?AVCGraphicBase@@', 00H
data$r	ENDS
;	COMDAT ??_R3CGraphicBase@@8
rdata$r	SEGMENT
??_R3CGraphicBase@@8 DD 00H				; CGraphicBase::`RTTI Class Hierarchy Descriptor'
	DD	00H
	DD	01H
	DD	FLAT:??_R2CGraphicBase@@8
rdata$r	ENDS
;	COMDAT ??_R0?AVCGraphicCollisionObject@@@8
data$r	SEGMENT
??_R0?AVCGraphicCollisionObject@@@8 DD FLAT:??_7type_info@@6B@ ; CGraphicCollisionObject `RTTI Type Descriptor'
	DD	00H
	DB	'.?AVCGraphicCollisionObject@@', 00H
data$r	ENDS
;	COMDAT ??_R3CGraphicCollisionObject@@8
rdata$r	SEGMENT
??_R3CGraphicCollisionObject@@8 DD 00H			; CGraphicCollisionObject::`RTTI Class Hierarchy Descriptor'
	DD	00H
	DD	02H
	DD	FLAT:??_R2CGraphicCollisionObject@@8
rdata$r	ENDS
;	COMDAT ??_R0?AVCScreen@@@8
data$r	SEGMENT
??_R0?AVCScreen@@@8 DD FLAT:??_7type_info@@6B@		; CScreen `RTTI Type Descriptor'
	DD	00H
	DB	'.?AVCScreen@@', 00H
data$r	ENDS
;	COMDAT ??_R3CScreen@@8
rdata$r	SEGMENT
??_R3CScreen@@8 DD 00H					; CScreen::`RTTI Class Hierarchy Descriptor'
	DD	00H
	DD	03H
	DD	FLAT:??_R2CScreen@@8
rdata$r	ENDS
;	COMDAT ??_R0?AVIPhysicsWorld@@@8
data$r	SEGMENT
??_R0?AVIPhysicsWorld@@@8 DD FLAT:??_7type_info@@6B@	; IPhysicsWorld `RTTI Type Descriptor'
	DD	00H
	DB	'.?AVIPhysicsWorld@@', 00H
data$r	ENDS
;	COMDAT ??_R3IPhysicsWorld@@8
rdata$r	SEGMENT
??_R3IPhysicsWorld@@8 DD 00H				; IPhysicsWorld::`RTTI Class Hierarchy Descriptor'
	DD	00H
	DD	01H
	DD	FLAT:??_R2IPhysicsWorld@@8
rdata$r	ENDS
;	COMDAT ??_R0?AVCPythonBackground@@@8
data$r	SEGMENT
??_R0?AVCPythonBackground@@@8 DD FLAT:??_7type_info@@6B@ ; CPythonBackground `RTTI Type Descriptor'
	DD	00H
	DB	'.?AVCPythonBackground@@', 00H
data$r	ENDS
;	COMDAT ??_R3CPythonBackground@@8
rdata$r	SEGMENT
??_R3CPythonBackground@@8 DD 00H			; CPythonBackground::`RTTI Class Hierarchy Descriptor'
	DD	01H
	DD	07H
	DD	FLAT:??_R2CPythonBackground@@8
rdata$r	ENDS
;	COMDAT ??_R0?AVCMapManager@@@8
data$r	SEGMENT
??_R0?AVCMapManager@@@8 DD FLAT:??_7type_info@@6B@	; CMapManager `RTTI Type Descriptor'
	DD	00H
	DB	'.?AVCMapManager@@', 00H
data$r	ENDS
;	COMDAT ??_R3CMapManager@@8
rdata$r	SEGMENT
??_R3CMapManager@@8 DD 00H				; CMapManager::`RTTI Class Hierarchy Descriptor'
	DD	01H
	DD	05H
	DD	FLAT:??_R2CMapManager@@8
rdata$r	ENDS
;	COMDAT ??_R0?AV?$CSingleton@VCPythonBackground@@@@@8
data$r	SEGMENT
??_R0?AV?$CSingleton@VCPythonBackground@@@@@8 DD FLAT:??_7type_info@@6B@ ; CSingleton<CPythonBackground> `RTTI Type Descriptor'
	DD	00H
	DB	'.?AV?$CSingleton@VCPythonBackground@@@@', 00H
data$r	ENDS
;	COMDAT ??_R3?$CSingleton@VCPythonBackground@@@@8
rdata$r	SEGMENT
??_R3?$CSingleton@VCPythonBackground@@@@8 DD 00H	; CSingleton<CPythonBackground>::`RTTI Class Hierarchy Descriptor'
	DD	00H
	DD	01H
	DD	FLAT:??_R2?$CSingleton@VCPythonBackground@@@@8
rdata$r	ENDS
;	COMDAT ??_R0?AU?$RangeTester@UFGetPortalID@@@@@8
data$r	SEGMENT
??_R0?AU?$RangeTester@UFGetPortalID@@@@@8 DD FLAT:??_7type_info@@6B@ ; RangeTester<FGetPortalID> `RTTI Type Descriptor'
	DD	00H
	DB	'.?AU?$RangeTester@UFGetPortalID@@@@', 00H
data$r	ENDS
;	COMDAT ??_R3?$RangeTester@UFGetPortalID@@@@8
rdata$r	SEGMENT
??_R3?$RangeTester@UFGetPortalID@@@@8 DD 00H		; RangeTester<FGetPortalID>::`RTTI Class Hierarchy Descriptor'
	DD	00H
	DD	02H
	DD	FLAT:??_R2?$RangeTester@UFGetPortalID@@@@8
rdata$r	ENDS
;	COMDAT ??_R0?AU?$RangeTester@UCollisionAdjustChecker@@@@@8
data$r	SEGMENT
??_R0?AU?$RangeTester@UCollisionAdjustChecker@@@@@8 DD FLAT:??_7type_info@@6B@ ; RangeTester<CollisionAdjustChecker> `RTTI Type Descriptor'
	DD	00H
	DB	'.?AU?$RangeTester@UCollisionAdjustChecker@@@@', 00H
data$r	ENDS
;	COMDAT ??_R3?$RangeTester@UCollisionAdjustChecker@@@@8
rdata$r	SEGMENT
??_R3?$RangeTester@UCollisionAdjustChecker@@@@8 DD 00H	; RangeTester<CollisionAdjustChecker>::`RTTI Class Hierarchy Descriptor'
	DD	00H
	DD	02H
	DD	FLAT:??_R2?$RangeTester@UCollisionAdjustChecker@@@@8
rdata$r	ENDS
;	COMDAT ??_R0?AU?$RangeTester@UCollisionChecker@@@@@8
data$r	SEGMENT
??_R0?AU?$RangeTester@UCollisionChecker@@@@@8 DD FLAT:??_7type_info@@6B@ ; RangeTester<CollisionChecker> `RTTI Type Descriptor'
	DD	00H
	DB	'.?AU?$RangeTester@UCollisionChecker@@@@', 00H
data$r	ENDS
;	COMDAT ??_R3?$RangeTester@UCollisionChecker@@@@8
rdata$r	SEGMENT
??_R3?$RangeTester@UCollisionChecker@@@@8 DD 00H	; RangeTester<CollisionChecker>::`RTTI Class Hierarchy Descriptor'
	DD	00H
	DD	02H
	DD	FLAT:??_R2?$RangeTester@UCollisionChecker@@@@8
rdata$r	ENDS
;	COMDAT ??_R1A@?0A@EA@CGraphicBase@@8
rdata$r	SEGMENT
??_R1A@?0A@EA@CGraphicBase@@8 DD FLAT:??_R0?AVCGraphicBase@@@8 ; CGraphicBase::`RTTI Base Class Descriptor at (0,-1,0,64)'
	DD	00H
	DD	00H
	DD	0ffffffffH
	DD	00H
	DD	040H
	DD	FLAT:??_R3CGraphicBase@@8
rdata$r	ENDS
;	COMDAT ??_R1A@?0A@EA@CGraphicCollisionObject@@8
rdata$r	SEGMENT
??_R1A@?0A@EA@CGraphicCollisionObject@@8 DD FLAT:??_R0?AVCGraphicCollisionObject@@@8 ; CGraphicCollisionObject::`RTTI Base Class Descriptor at (0,-1,0,64)'
	DD	01H
	DD	00H
	DD	0ffffffffH
	DD	00H
	DD	040H
	DD	FLAT:??_R3CGraphicCollisionObject@@8
rdata$r	ENDS
;	COMDAT ??_R1A@?0A@EA@CScreen@@8
rdata$r	SEGMENT
??_R1A@?0A@EA@CScreen@@8 DD FLAT:??_R0?AVCScreen@@@8	; CScreen::`RTTI Base Class Descriptor at (0,-1,0,64)'
	DD	02H
	DD	00H
	DD	0ffffffffH
	DD	00H
	DD	040H
	DD	FLAT:??_R3CScreen@@8
rdata$r	ENDS
;	COMDAT ??_R1A@?0A@EA@IPhysicsWorld@@8
rdata$r	SEGMENT
??_R1A@?0A@EA@IPhysicsWorld@@8 DD FLAT:??_R0?AVIPhysicsWorld@@@8 ; IPhysicsWorld::`RTTI Base Class Descriptor at (0,-1,0,64)'
	DD	00H
	DD	00H
	DD	0ffffffffH
	DD	00H
	DD	040H
	DD	FLAT:??_R3IPhysicsWorld@@8
rdata$r	ENDS
;	COMDAT ??_R1A@?0A@EA@CMapManager@@8
rdata$r	SEGMENT
??_R1A@?0A@EA@CMapManager@@8 DD FLAT:??_R0?AVCMapManager@@@8 ; CMapManager::`RTTI Base Class Descriptor at (0,-1,0,64)'
	DD	04H
	DD	00H
	DD	0ffffffffH
	DD	00H
	DD	040H
	DD	FLAT:??_R3CMapManager@@8
rdata$r	ENDS
;	COMDAT ??_R13?0A@EA@IPhysicsWorld@@8
rdata$r	SEGMENT
??_R13?0A@EA@IPhysicsWorld@@8 DD FLAT:??_R0?AVIPhysicsWorld@@@8 ; IPhysicsWorld::`RTTI Base Class Descriptor at (4,-1,0,64)'
	DD	00H
	DD	04H
	DD	0ffffffffH
	DD	00H
	DD	040H
	DD	FLAT:??_R3IPhysicsWorld@@8
rdata$r	ENDS
;	COMDAT ??_R1A@?0A@EA@?$CSingleton@VCPythonBackground@@@@8
rdata$r	SEGMENT
??_R1A@?0A@EA@?$CSingleton@VCPythonBackground@@@@8 DD FLAT:??_R0?AV?$CSingleton@VCPythonBackground@@@@@8 ; CSingleton<CPythonBackground>::`RTTI Base Class Descriptor at (0,-1,0,64)'
	DD	00H
	DD	00H
	DD	0ffffffffH
	DD	00H
	DD	040H
	DD	FLAT:??_R3?$CSingleton@VCPythonBackground@@@@8
rdata$r	ENDS
;	COMDAT ??_R1A@?0A@EA@CPythonBackground@@8
rdata$r	SEGMENT
??_R1A@?0A@EA@CPythonBackground@@8 DD FLAT:??_R0?AVCPythonBackground@@@8 ; CPythonBackground::`RTTI Base Class Descriptor at (0,-1,0,64)'
	DD	06H
	DD	00H
	DD	0ffffffffH
	DD	00H
	DD	040H
	DD	FLAT:??_R3CPythonBackground@@8
rdata$r	ENDS
;	COMDAT ??_R1BENM@?0A@EA@?$CSingleton@VCPythonBackground@@@@8
rdata$r	SEGMENT
??_R1BENM@?0A@EA@?$CSingleton@VCPythonBackground@@@@8 DD FLAT:??_R0?AV?$CSingleton@VCPythonBackground@@@@@8 ; CSingleton<CPythonBackground>::`RTTI Base Class Descriptor at (5340,-1,0,64)'
	DD	00H
	DD	014dcH
	DD	0ffffffffH
	DD	00H
	DD	040H
	DD	FLAT:??_R3?$CSingleton@VCPythonBackground@@@@8
rdata$r	ENDS
;	COMDAT ??_R1A@?0A@EA@?$RangeTester@UFGetPortalID@@@@8
rdata$r	SEGMENT
??_R1A@?0A@EA@?$RangeTester@UFGetPortalID@@@@8 DD FLAT:??_R0?AU?$RangeTester@UFGetPortalID@@@@@8 ; RangeTester<FGetPortalID>::`RTTI Base Class Descriptor at (0,-1,0,64)'
	DD	01H
	DD	00H
	DD	0ffffffffH
	DD	00H
	DD	040H
	DD	FLAT:??_R3?$RangeTester@UFGetPortalID@@@@8
rdata$r	ENDS
;	COMDAT ??_R1A@?0A@EA@?$RangeTester@UCollisionAdjustChecker@@@@8
rdata$r	SEGMENT
??_R1A@?0A@EA@?$RangeTester@UCollisionAdjustChecker@@@@8 DD FLAT:??_R0?AU?$RangeTester@UCollisionAdjustChecker@@@@@8 ; RangeTester<CollisionAdjustChecker>::`RTTI Base Class Descriptor at (0,-1,0,64)'
	DD	01H
	DD	00H
	DD	0ffffffffH
	DD	00H
	DD	040H
	DD	FLAT:??_R3?$RangeTester@UCollisionAdjustChecker@@@@8
rdata$r	ENDS
;	COMDAT ??_R1A@?0A@EA@?$RangeTester@UCollisionChecker@@@@8
rdata$r	SEGMENT
??_R1A@?0A@EA@?$RangeTester@UCollisionChecker@@@@8 DD FLAT:??_R0?AU?$RangeTester@UCollisionChecker@@@@@8 ; RangeTester<CollisionChecker>::`RTTI Base Class Descriptor at (0,-1,0,64)'
	DD	01H
	DD	00H
	DD	0ffffffffH
	DD	00H
	DD	040H
	DD	FLAT:??_R3?$RangeTester@UCollisionChecker@@@@8
rdata$r	ENDS
;	COMDAT ??_R2CGraphicBase@@8
rdata$r	SEGMENT
??_R2CGraphicBase@@8 DD FLAT:??_R1A@?0A@EA@CGraphicBase@@8 ; CGraphicBase::`RTTI Base Class Array'
rdata$r	ENDS
;	COMDAT ??_R2CGraphicCollisionObject@@8
rdata$r	SEGMENT
??_R2CGraphicCollisionObject@@8 DD FLAT:??_R1A@?0A@EA@CGraphicCollisionObject@@8 ; CGraphicCollisionObject::`RTTI Base Class Array'
	DD	FLAT:??_R1A@?0A@EA@CGraphicBase@@8
rdata$r	ENDS
;	COMDAT ??_R2CScreen@@8
rdata$r	SEGMENT
??_R2CScreen@@8 DD FLAT:??_R1A@?0A@EA@CScreen@@8	; CScreen::`RTTI Base Class Array'
	DD	FLAT:??_R1A@?0A@EA@CGraphicCollisionObject@@8
	DD	FLAT:??_R1A@?0A@EA@CGraphicBase@@8
rdata$r	ENDS
;	COMDAT ??_R2IPhysicsWorld@@8
rdata$r	SEGMENT
??_R2IPhysicsWorld@@8 DD FLAT:??_R1A@?0A@EA@IPhysicsWorld@@8 ; IPhysicsWorld::`RTTI Base Class Array'
rdata$r	ENDS
;	COMDAT ??_R2CMapManager@@8
rdata$r	SEGMENT
??_R2CMapManager@@8 DD FLAT:??_R1A@?0A@EA@CMapManager@@8 ; CMapManager::`RTTI Base Class Array'
	DD	FLAT:??_R1A@?0A@EA@CScreen@@8
	DD	FLAT:??_R1A@?0A@EA@CGraphicCollisionObject@@8
	DD	FLAT:??_R1A@?0A@EA@CGraphicBase@@8
	DD	FLAT:??_R13?0A@EA@IPhysicsWorld@@8
rdata$r	ENDS
;	COMDAT ??_R2?$CSingleton@VCPythonBackground@@@@8
rdata$r	SEGMENT
??_R2?$CSingleton@VCPythonBackground@@@@8 DD FLAT:??_R1A@?0A@EA@?$CSingleton@VCPythonBackground@@@@8 ; CSingleton<CPythonBackground>::`RTTI Base Class Array'
rdata$r	ENDS
;	COMDAT ??_R2CPythonBackground@@8
rdata$r	SEGMENT
??_R2CPythonBackground@@8 DD FLAT:??_R1A@?0A@EA@CPythonBackground@@8 ; CPythonBackground::`RTTI Base Class Array'
	DD	FLAT:??_R1A@?0A@EA@CMapManager@@8
	DD	FLAT:??_R1A@?0A@EA@CScreen@@8
	DD	FLAT:??_R1A@?0A@EA@CGraphicCollisionObject@@8
	DD	FLAT:??_R1A@?0A@EA@CGraphicBase@@8
	DD	FLAT:??_R13?0A@EA@IPhysicsWorld@@8
	DD	FLAT:??_R1BENM@?0A@EA@?$CSingleton@VCPythonBackground@@@@8
rdata$r	ENDS
;	COMDAT ??_R2?$RangeTester@UFGetPortalID@@@@8
rdata$r	SEGMENT
??_R2?$RangeTester@UFGetPortalID@@@@8 DD FLAT:??_R1A@?0A@EA@?$RangeTester@UFGetPortalID@@@@8 ; RangeTester<FGetPortalID>::`RTTI Base Class Array'
	DD	FLAT:??_R1A@?0A@EA@SpherePackCallback@@8
rdata$r	ENDS
;	COMDAT ??_R2?$RangeTester@UCollisionAdjustChecker@@@@8
rdata$r	SEGMENT
??_R2?$RangeTester@UCollisionAdjustChecker@@@@8 DD FLAT:??_R1A@?0A@EA@?$RangeTester@UCollisionAdjustChecker@@@@8 ; RangeTester<CollisionAdjustChecker>::`RTTI Base Class Array'
	DD	FLAT:??_R1A@?0A@EA@SpherePackCallback@@8
rdata$r	ENDS
;	COMDAT ??_R2?$RangeTester@UCollisionChecker@@@@8
rdata$r	SEGMENT
??_R2?$RangeTester@UCollisionChecker@@@@8 DD FLAT:??_R1A@?0A@EA@?$RangeTester@UCollisionChecker@@@@8 ; RangeTester<CollisionChecker>::`RTTI Base Class Array'
	DD	FLAT:??_R1A@?0A@EA@SpherePackCallback@@8
rdata$r	ENDS
;	COMDAT ??_C@_0DD@EAMKIDLO@d?3?1ymir?5work?1effect?1etc?1christma@
CONST	SEGMENT
??_C@_0DD@EAMKIDLO@d?3?1ymir?5work?1effect?1etc?1christma@ DB 'd:/ymir wo'
	DB	'rk/effect/etc/christmas_tree/tree_3s.mse', 00H ; `string'
CONST	ENDS
;	COMDAT ??_C@_0DD@OGLNIIAK@d?3?1ymir?5work?1effect?1etc?1christma@
CONST	SEGMENT
??_C@_0DD@OGLNIIAK@d?3?1ymir?5work?1effect?1etc?1christma@ DB 'd:/ymir wo'
	DB	'rk/effect/etc/christmas_tree/tree_2s.mse', 00H ; `string'
CONST	ENDS
;	COMDAT ??_C@_0DD@NHFFJCJH@d?3?1ymir?5work?1effect?1etc?1christma@
CONST	SEGMENT
??_C@_0DD@NHFFJCJH@d?3?1ymir?5work?1effect?1etc?1christma@ DB 'd:/ymir wo'
	DB	'rk/effect/etc/christmas_tree/tree_1s.mse', 00H ; `string'
CONST	ENDS
;	COMDAT ??_C@_0CF@LPJHOPFJ@d?3?1ymir?5work?1tree?1christmastree3@
CONST	SEGMENT
??_C@_0CF@LPJHOPFJ@d?3?1ymir?5work?1tree?1christmastree3@ DB 'd:/ymir wor'
	DB	'k/tree/christmastree3.spt', 00H		; `string'
CONST	ENDS
;	COMDAT ??_C@_0CF@HEMLDMPM@d?3?1ymir?5work?1tree?1christmastree2@
CONST	SEGMENT
??_C@_0CF@HEMLDMPM@d?3?1ymir?5work?1tree?1christmastree2@ DB 'd:/ymir wor'
	DB	'k/tree/christmastree2.spt', 00H		; `string'
CONST	ENDS
;	COMDAT ??_C@_0CF@PCFPEOFC@d?3?1ymir?5work?1tree?1christmastree1@
CONST	SEGMENT
??_C@_0CF@PCFPEOFC@d?3?1ymir?5work?1tree?1christmastree1@ DB 'd:/ymir wor'
	DB	'k/tree/christmastree1.spt', 00H		; `string'
CONST	ENDS
;	COMDAT ??_C@_0P@EOAEHOGM@map_n_snowm_01?$AA@
CONST	SEGMENT
??_C@_0P@EOAEHOGM@map_n_snowm_01?$AA@ DB 'map_n_snowm_01', 00H ; `string'
CONST	ENDS
;	COMDAT ??_C@_0CC@FDBLKFI@NOT_FOUND_GLOBAL_POSITION?$CI?$CFd?0?5?$CFd@
CONST	SEGMENT
??_C@_0CC@FDBLKFI@NOT_FOUND_GLOBAL_POSITION?$CI?$CFd?0?5?$CFd@ DB 'NOT_FO'
	DB	'UND_GLOBAL_POSITION(%d, %d)', 00H		; `string'
CONST	ENDS
;	COMDAT ??_C@_0O@NAMKDHJD@pack?1property?$AA@
CONST	SEGMENT
??_C@_0O@NAMKDHJD@pack?1property?$AA@ DB 'pack/property', 00H ; `string'
CONST	ENDS
;	COMDAT ??_C@_03EMIMMIHL@?$CK?4?$CK?$AA@
CONST	SEGMENT
??_C@_03EMIMMIHL@?$CK?4?$CK?$AA@ DB '*.*', 00H		; `string'
CONST	ENDS
;	COMDAT ??_C@_08MOOMJPBO@Property?$AA@
CONST	SEGMENT
??_C@_08MOOMJPBO@Property?$AA@ DB 'Property', 00H	; `string'
CONST	ENDS
;	COMDAT ??_C@_08EMBNBNLN@property?$AA@
CONST	SEGMENT
??_C@_08EMBNBNLN@property?$AA@ DB 'property', 00H	; `string'
CONST	ENDS
;	COMDAT ??_C@_0P@NOGPLHFF@?1AtlasInfo?4txt?$AA@
CONST	SEGMENT
??_C@_0P@NOGPLHFF@?1AtlasInfo?4txt?$AA@ DB '/AtlasInfo.txt', 00H ; `string'
CONST	ENDS
;	COMDAT ??_C@_0BI@FJAIMBEC@CPythonBackground?5Clear?$AA@
CONST	SEGMENT
??_C@_0BI@FJAIMBEC@CPythonBackground?5Clear?$AA@ DB 'CPythonBackground Cl'
	DB	'ear', 00H					; `string'
CONST	ENDS
;	COMDAT ??_C@_0DE@ELMEDMBE@CPythonBackground?3?3GetFarClip?5m_@
CONST	SEGMENT
??_C@_0DE@ELMEDMBE@CPythonBackground?3?3GetFarClip?5m_@ DB 'CPythonBackgr'
	DB	'ound::GetFarClip m_eViewDistanceNum=%d', 00H ; `string'
CONST	ENDS
;	COMDAT ??_C@_0FF@DMIGEFGG@CPythonBackground?3?3SelectViewDis@
CONST	SEGMENT
??_C@_0FF@DMIGEFGG@CPythonBackground?3?3SelectViewDis@ DB 'CPythonBackgro'
	DB	'und::SelectViewDistanceNum(int eNum=%d) mc_pcurEnvironmentDat'
	DB	'a is NULL', 00H				; `string'
CONST	ENDS
;	COMDAT ??_C@_0DF@GEMPMAOP@d?3?1ymir?5work?1effect?1etc?1directio@
CONST	SEGMENT
??_C@_0DF@GEMPMAOP@d?3?1ymir?5work?1effect?1etc?1directio@ DB 'd:/ymir wo'
	DB	'rk/effect/etc/direction/direction_land.mse', 00H ; `string'
PUBLIC	?compare@?$basic_string@DU?$char_traits@D@std@@V?$allocator@D@2@@std@@QBEHABV12@@Z ; std::basic_string<char,std::char_traits<char>,std::allocator<char> >::compare
PUBLIC	??_ECPythonBackground@@W3AEPAXI@Z		; [thunk]:CPythonBackground::`vector deleting destructor'
PUBLIC	??_ECPythonBackground@@WBENM@AEPAXI@Z		; [thunk]:CPythonBackground::`vector deleting destructor'
PUBLIC	??$construct@V?$basic_string@DU?$char_traits@D@std@@V?$allocator@D@2@@std@@V12@@?$allocator@U?$_Tree_node@V?$basic_string@DU?$char_traits@D@std@@V?$allocator@D@2@@std@@PAX@std@@@std@@QAEXPAV?$basic_string@DU?$char_traits@D@std@@V?$allocator@D@2@@1@$$QAV21@@Z ; std::allocator<std::_Tree_node<std::basic_string<char,std::char_traits<char>,std::allocator<char> >,void *> >::construct<std::basic_string<char,std::char_traits<char>,std::allocator<char> >,std::basic_string<char,std::char_traits<char>,std::allocator<char> > >
PUBLIC	??$construct@HABH@?$allocator@U?$_Tree_node@HPAX@std@@@std@@QAEXPAHABH@Z ; std::allocator<std::_Tree_node<int,void *> >::construct<int,int const &>
PUBLIC	??$construct@HAAH@?$allocator@U?$_Tree_node@HPAX@std@@@std@@QAEXPAHAAH@Z ; std::allocator<std::_Tree_node<int,void *> >::construct<int,int &>
PUBLIC	??$forward@USReserveTargetEffect@CPythonBackground@@@std@@YA$$QAUSReserveTargetEffect@CPythonBackground@@AAU12@@Z ; std::forward<CPythonBackground::SReserveTargetEffect>
PUBLIC	??$construct@V?$basic_string@DU?$char_traits@D@std@@V?$allocator@D@2@@std@@V12@@?$allocator_traits@V?$allocator@U?$_Tree_node@V?$basic_string@DU?$char_traits@D@std@@V?$allocator@D@2@@std@@PAX@std@@@std@@@std@@SAXAAV?$allocator@U?$_Tree_node@V?$basic_string@DU?$char_traits@D@std@@V?$allocator@D@2@@std@@PAX@std@@@1@PAV?$basic_string@DU?$char_traits@D@std@@V?$allocator@D@2@@1@$$QAV31@@Z ; std::allocator_traits<std::allocator<std::_Tree_node<std::basic_string<char,std::char_traits<char>,std::allocator<char> >,void *> > >::construct<std::basic_string<char,std::char_traits<char>,std::allocator<char> >,std::basic_string<char,std::char_traits<char>,std::allocator<char> > >
PUBLIC	??$construct@HABH@?$allocator_traits@V?$allocator@U?$_Tree_node@HPAX@std@@@std@@@std@@SAXAAV?$allocator@U?$_Tree_node@HPAX@std@@@1@PAHABH@Z ; std::allocator_traits<std::allocator<std::_Tree_node<int,void *> > >::construct<int,int const &>
PUBLIC	??$construct@HAAH@?$allocator_traits@V?$allocator@U?$_Tree_node@HPAX@std@@@std@@@std@@SAXAAV?$allocator@U?$_Tree_node@HPAX@std@@@1@PAHAAH@Z ; std::allocator_traits<std::allocator<std::_Tree_node<int,void *> > >::construct<int,int &>
PUBLIC	??$?0KUSReserveTargetEffect@CPythonBackground@@X@?$pair@$$CBKUSReserveTargetEffect@CPythonBackground@@@std@@QAE@$$QAU?$pair@KUSReserveTargetEffect@CPythonBackground@@@1@@Z ; std::pair<unsigned long const ,CPythonBackground::SReserveTargetEffect>::pair<unsigned long const ,CPythonBackground::SReserveTargetEffect><unsigned long,CPythonBackground::SReserveTargetEffect,void>
PUBLIC	??$construct@V?$basic_string@DU?$char_traits@D@std@@V?$allocator@D@2@@std@@V12@@?$_Wrap_alloc@V?$allocator@U?$_Tree_node@V?$basic_string@DU?$char_traits@D@std@@V?$allocator@D@2@@std@@PAX@std@@@std@@@std@@QAEXPAV?$basic_string@DU?$char_traits@D@std@@V?$allocator@D@2@@1@$$QAV21@@Z ; std::_Wrap_alloc<std::allocator<std::_Tree_node<std::basic_string<char,std::char_traits<char>,std::allocator<char> >,void *> > >::construct<std::basic_string<char,std::char_traits<char>,std::allocator<char> >,std::basic_string<char,std::char_traits<char>,std::allocator<char> > >
PUBLIC	??$construct@HABH@?$_Wrap_alloc@V?$allocator@U?$_Tree_node@HPAX@std@@@std@@@std@@QAEXPAHABH@Z ; std::_Wrap_alloc<std::allocator<std::_Tree_node<int,void *> > >::construct<int,int const &>
PUBLIC	??$construct@HAAH@?$_Wrap_alloc@V?$allocator@U?$_Tree_node@HPAX@std@@@std@@@std@@QAEXPAHAAH@Z ; std::_Wrap_alloc<std::allocator<std::_Tree_node<int,void *> > >::construct<int,int &>
PUBLIC	??$construct@U?$pair@$$CBKUSReserveTargetEffect@CPythonBackground@@@std@@U?$pair@KUSReserveTargetEffect@CPythonBackground@@@2@@?$allocator@U?$_Tree_node@U?$pair@$$CBKUSReserveTargetEffect@CPythonBackground@@@std@@PAX@std@@@std@@QAEXPAU?$pair@$$CBKUSReserveTargetEffect@CPythonBackground@@@1@$$QAU?$pair@KUSReserveTargetEffect@CPythonBackground@@@1@@Z ; std::allocator<std::_Tree_node<std::pair<unsigned long const ,CPythonBackground::SReserveTargetEffect>,void *> >::construct<std::pair<unsigned long const ,CPythonBackground::SReserveTargetEffect>,std::pair<unsigned long,CPythonBackground::SReserveTargetEffect> >
PUBLIC	?_Freenode0@?$_Tree_buy@V?$basic_string@DU?$char_traits@D@std@@V?$allocator@D@2@@std@@V?$allocator@V?$basic_string@DU?$char_traits@D@std@@V?$allocator@D@2@@std@@@2@@std@@QAEXPAU?$_Tree_node@V?$basic_string@DU?$char_traits@D@std@@V?$allocator@D@2@@std@@PAX@2@@Z ; std::_Tree_buy<std::basic_string<char,std::char_traits<char>,std::allocator<char> >,std::allocator<std::basic_string<char,std::char_traits<char>,std::allocator<char> > > >::_Freenode0
PUBLIC	?_Buynode0@?$_Tree_buy@V?$basic_string@DU?$char_traits@D@std@@V?$allocator@D@2@@std@@V?$allocator@V?$basic_string@DU?$char_traits@D@std@@V?$allocator@D@2@@std@@@2@@std@@QAEPAU?$_Tree_node@V?$basic_string@DU?$char_traits@D@std@@V?$allocator@D@2@@std@@PAX@2@XZ ; std::_Tree_buy<std::basic_string<char,std::char_traits<char>,std::allocator<char> >,std::allocator<std::basic_string<char,std::char_traits<char>,std::allocator<char> > > >::_Buynode0
PUBLIC	?_Freenode0@?$_Tree_buy@HV?$allocator@H@std@@@std@@QAEXPAU?$_Tree_node@HPAX@2@@Z ; std::_Tree_buy<int,std::allocator<int> >::_Freenode0
PUBLIC	?_Buynode0@?$_Tree_buy@HV?$allocator@H@std@@@std@@QAEPAU?$_Tree_node@HPAX@2@XZ ; std::_Tree_buy<int,std::allocator<int> >::_Buynode0
PUBLIC	??$_Buynode@V?$basic_string@DU?$char_traits@D@std@@V?$allocator@D@2@@std@@@?$_Tree_buy@V?$basic_string@DU?$char_traits@D@std@@V?$allocator@D@2@@std@@V?$allocator@V?$basic_string@DU?$char_traits@D@std@@V?$allocator@D@2@@std@@@2@@std@@QAEPAU?$_Tree_node@V?$basic_string@DU?$char_traits@D@std@@V?$allocator@D@2@@std@@PAX@1@$$QAV?$basic_string@DU?$char_traits@D@std@@V?$allocator@D@2@@1@@Z ; std::_Tree_buy<std::basic_string<char,std::char_traits<char>,std::allocator<char> >,std::allocator<std::basic_string<char,std::char_traits<char>,std::allocator<char> > > >::_Buynode<std::basic_string<char,std::char_traits<char>,std::allocator<char> > >
PUBLIC	??$_Buynode@ABH@?$_Tree_buy@HV?$allocator@H@std@@@std@@QAEPAU?$_Tree_node@HPAX@1@ABH@Z ; std::_Tree_buy<int,std::allocator<int> >::_Buynode<int const &>
PUBLIC	??$_Buynode@AAH@?$_Tree_buy@HV?$allocator@H@std@@@std@@QAEPAU?$_Tree_node@HPAX@1@AAH@Z ; std::_Tree_buy<int,std::allocator<int> >::_Buynode<int &>
PUBLIC	??$forward@V?$_Tree_iterator@V?$_Tree_val@U?$_Tree_simple_types@U?$pair@$$CBKUSReserveTargetEffect@CPythonBackground@@@std@@@std@@@std@@@std@@@std@@YA$$QAV?$_Tree_iterator@V?$_Tree_val@U?$_Tree_simple_types@U?$pair@$$CBKUSReserveTargetEffect@CPythonBackground@@@std@@@std@@@std@@@0@AAV10@@Z ; std::forward<std::_Tree_iterator<std::_Tree_val<std::_Tree_simple_types<std::pair<unsigned long const ,CPythonBackground::SReserveTargetEffect> > > > >
PUBLIC	??$_Buynode_if_nil@AAU?$pair@$$CBKUSReserveTargetEffect@CPythonBackground@@@std@@@?$_Tree@V?$_Tmap_traits@KUSReserveTargetEffect@CPythonBackground@@U?$less@K@std@@V?$allocator@U?$pair@$$CBKUSReserveTargetEffect@CPythonBackground@@@std@@@4@$0A@@std@@@std@@IAEPAU?$_Tree_node@U?$pair@$$CBKUSReserveTargetEffect@CPythonBackground@@@std@@PAX@1@PAU21@AAU?$pair@$$CBKUSReserveTargetEffect@CPythonBackground@@@1@@Z ; std::_Tree<std::_Tmap_traits<unsigned long,CPythonBackground::SReserveTargetEffect,std::less<unsigned long>,std::allocator<std::pair<unsigned long const ,CPythonBackground::SReserveTargetEffect> >,0> >::_Buynode_if_nil<std::pair<unsigned long const ,CPythonBackground::SReserveTargetEffect> &>
PUBLIC	??$construct@U?$pair@$$CBKUSReserveTargetEffect@CPythonBackground@@@std@@U?$pair@KUSReserveTargetEffect@CPythonBackground@@@2@@?$allocator_traits@V?$allocator@U?$_Tree_node@U?$pair@$$CBKUSReserveTargetEffect@CPythonBackground@@@std@@PAX@std@@@std@@@std@@SAXAAV?$allocator@U?$_Tree_node@U?$pair@$$CBKUSReserveTargetEffect@CPythonBackground@@@std@@PAX@std@@@1@PAU?$pair@$$CBKUSReserveTargetEffect@CPythonBackground@@@1@$$QAU?$pair@KUSReserveTargetEffect@CPythonBackground@@@1@@Z ; std::allocator_traits<std::allocator<std::_Tree_node<std::pair<unsigned long const ,CPythonBackground::SReserveTargetEffect>,void *> > >::construct<std::pair<unsigned long const ,CPythonBackground::SReserveTargetEffect>,std::pair<unsigned long,CPythonBackground::SReserveTargetEffect> >
PUBLIC	?max_size@?$allocator@U?$_Tree_node@U?$pair@$$CBKUSReserveTargetEffect@CPythonBackground@@@std@@PAX@std@@@std@@QBEIXZ ; std::allocator<std::_Tree_node<std::pair<unsigned long const ,CPythonBackground::SReserveTargetEffect>,void *> >::max_size
PUBLIC	?max_size@?$allocator_traits@V?$allocator@U?$_Tree_node@U?$pair@$$CBKUSReserveTargetEffect@CPythonBackground@@@std@@PAX@std@@@std@@@std@@SAIABV?$allocator@U?$_Tree_node@U?$pair@$$CBKUSReserveTargetEffect@CPythonBackground@@@std@@PAX@std@@@2@@Z ; std::allocator_traits<std::allocator<std::_Tree_node<std::pair<unsigned long const ,CPythonBackground::SReserveTargetEffect>,void *> > >::max_size
PUBLIC	?max_size@?$_Wrap_alloc@V?$allocator@U?$_Tree_node@U?$pair@$$CBKUSReserveTargetEffect@CPythonBackground@@@std@@PAX@std@@@std@@@std@@QBEIXZ ; std::_Wrap_alloc<std::allocator<std::_Tree_node<std::pair<unsigned long const ,CPythonBackground::SReserveTargetEffect>,void *> > >::max_size
PUBLIC	?max_size@?$_Tree@V?$_Tmap_traits@KUSReserveTargetEffect@CPythonBackground@@U?$less@K@std@@V?$allocator@U?$pair@$$CBKUSReserveTargetEffect@CPythonBackground@@@std@@@4@$0A@@std@@@std@@QBEIXZ ; std::_Tree<std::_Tmap_traits<unsigned long,CPythonBackground::SReserveTargetEffect,std::less<unsigned long>,std::allocator<std::pair<unsigned long const ,CPythonBackground::SReserveTargetEffect> >,0> >::max_size
PUBLIC	??$construct@PAU?$_Tree_node@U?$pair@$$CBKUSReserveTargetEffect@CPythonBackground@@@std@@PAX@std@@AAPAU12@@?$allocator@U?$_Tree_node@U?$pair@$$CBKUSReserveTargetEffect@CPythonBackground@@@std@@PAX@std@@@std@@QAEXPAPAU?$_Tree_node@U?$pair@$$CBKUSReserveTargetEffect@CPythonBackground@@@std@@PAX@1@AAPAU21@@Z ; std::allocator<std::_Tree_node<std::pair<unsigned long const ,CPythonBackground::SReserveTargetEffect>,void *> >::construct<std::_Tree_node<std::pair<unsigned long const ,CPythonBackground::SReserveTargetEffect>,void *> *,std::_Tree_node<std::pair<unsigned long const ,CPythonBackground::SReserveTargetEffect>,void *> * &>
PUBLIC	??$construct@PAU?$_Tree_node@V?$basic_string@DU?$char_traits@D@std@@V?$allocator@D@2@@std@@PAX@std@@AAPAU12@@?$allocator@U?$_Tree_node@V?$basic_string@DU?$char_traits@D@std@@V?$allocator@D@2@@std@@PAX@std@@@std@@QAEXPAPAU?$_Tree_node@V?$basic_string@DU?$char_traits@D@std@@V?$allocator@D@2@@std@@PAX@1@AAPAU21@@Z ; std::allocator<std::_Tree_node<std::basic_string<char,std::char_traits<char>,std::allocator<char> >,void *> >::construct<std::_Tree_node<std::basic_string<char,std::char_traits<char>,std::allocator<char> >,void *> *,std::_Tree_node<std::basic_string<char,std::char_traits<char>,std::allocator<char> >,void *> * &>
PUBLIC	??$construct@PAU?$_Tree_node@HPAX@std@@AAPAU12@@?$allocator@U?$_Tree_node@HPAX@std@@@std@@QAEXPAPAU?$_Tree_node@HPAX@1@AAPAU21@@Z ; std::allocator<std::_Tree_node<int,void *> >::construct<std::_Tree_node<int,void *> *,std::_Tree_node<int,void *> * &>
PUBLIC	??$destroy@V?$basic_string@DU?$char_traits@D@std@@V?$allocator@D@2@@std@@@?$allocator@U?$_Tree_node@V?$basic_string@DU?$char_traits@D@std@@V?$allocator@D@2@@std@@PAX@std@@@std@@QAEXPAV?$basic_string@DU?$char_traits@D@std@@V?$allocator@D@2@@1@@Z ; std::allocator<std::_Tree_node<std::basic_string<char,std::char_traits<char>,std::allocator<char> >,void *> >::destroy<std::basic_string<char,std::char_traits<char>,std::allocator<char> > >
PUBLIC	??$destroy@PAU?$_Tree_node@U?$pair@$$CBKUSReserveTargetEffect@CPythonBackground@@@std@@PAX@std@@@?$allocator@U?$_Tree_node@U?$pair@$$CBKUSReserveTargetEffect@CPythonBackground@@@std@@PAX@std@@@std@@QAEXPAPAU?$_Tree_node@U?$pair@$$CBKUSReserveTargetEffect@CPythonBackground@@@std@@PAX@1@@Z ; std::allocator<std::_Tree_node<std::pair<unsigned long const ,CPythonBackground::SReserveTargetEffect>,void *> >::destroy<std::_Tree_node<std::pair<unsigned long const ,CPythonBackground::SReserveTargetEffect>,void *> *>
PUBLIC	??$destroy@PAU?$_Tree_node@V?$basic_string@DU?$char_traits@D@std@@V?$allocator@D@2@@std@@PAX@std@@@?$allocator@U?$_Tree_node@V?$basic_string@DU?$char_traits@D@std@@V?$allocator@D@2@@std@@PAX@std@@@std@@QAEXPAPAU?$_Tree_node@V?$basic_string@DU?$char_traits@D@std@@V?$allocator@D@2@@std@@PAX@1@@Z ; std::allocator<std::_Tree_node<std::basic_string<char,std::char_traits<char>,std::allocator<char> >,void *> >::destroy<std::_Tree_node<std::basic_string<char,std::char_traits<char>,std::allocator<char> >,void *> *>
PUBLIC	??$destroy@PAU?$_Tree_node@HPAX@std@@@?$allocator@U?$_Tree_node@HPAX@std@@@std@@QAEXPAPAU?$_Tree_node@HPAX@1@@Z ; std::allocator<std::_Tree_node<int,void *> >::destroy<std::_Tree_node<int,void *> *>
PUBLIC	??$forward@AAV?$_Tree_const_iterator@V?$_Tree_val@U?$_Tree_simple_types@V?$basic_string@DU?$char_traits@D@std@@V?$allocator@D@2@@std@@@std@@@std@@@std@@@std@@YAAAV?$_Tree_const_iterator@V?$_Tree_val@U?$_Tree_simple_types@V?$basic_string@DU?$char_traits@D@std@@V?$allocator@D@2@@std@@@std@@@std@@@0@AAV10@@Z ; std::forward<std::_Tree_const_iterator<std::_Tree_val<std::_Tree_simple_types<std::basic_string<char,std::char_traits<char>,std::allocator<char> > > > > &>
PUBLIC	??$forward@V?$_Tree_const_iterator@V?$_Tree_val@U?$_Tree_simple_types@V?$basic_string@DU?$char_traits@D@std@@V?$allocator@D@2@@std@@@std@@@std@@@std@@@std@@YA$$QAV?$_Tree_const_iterator@V?$_Tree_val@U?$_Tree_simple_types@V?$basic_string@DU?$char_traits@D@std@@V?$allocator@D@2@@std@@@std@@@std@@@0@AAV10@@Z ; std::forward<std::_Tree_const_iterator<std::_Tree_val<std::_Tree_simple_types<std::basic_string<char,std::char_traits<char>,std::allocator<char> > > > > >
PUBLIC	??$_Buynode_if_nil@V?$basic_string@DU?$char_traits@D@std@@V?$allocator@D@2@@std@@@?$_Tree@V?$_Tset_traits@V?$basic_string@DU?$char_traits@D@std@@V?$allocator@D@2@@std@@U?$less@V?$basic_string@DU?$char_traits@D@std@@V?$allocator@D@2@@std@@@2@V?$allocator@V?$basic_string@DU?$char_traits@D@std@@V?$allocator@D@2@@std@@@2@$0A@@std@@@std@@IAEPAU?$_Tree_node@V?$basic_string@DU?$char_traits@D@std@@V?$allocator@D@2@@std@@PAX@1@U_Nil@1@$$QAV?$basic_string@DU?$char_traits@D@std@@V?$allocator@D@2@@1@@Z ; std::_Tree<std::_Tset_traits<std::basic_string<char,std::char_traits<char>,std::allocator<char> >,std::less<std::basic_string<char,std::char_traits<char>,std::allocator<char> > >,std::allocator<std::basic_string<char,std::char_traits<char>,std::allocator<char> > >,0> >::_Buynode_if_nil<std::basic_string<char,std::char_traits<char>,std::allocator<char> > >
PUBLIC	??$destroy@H@?$allocator@U?$_Tree_node@HPAX@std@@@std@@QAEXPAH@Z ; std::allocator<std::_Tree_node<int,void *> >::destroy<int>
PUBLIC	??$forward@AAV?$_Tree_const_iterator@V?$_Tree_val@U?$_Tree_simple_types@H@std@@@std@@@std@@@std@@YAAAV?$_Tree_const_iterator@V?$_Tree_val@U?$_Tree_simple_types@H@std@@@std@@@0@AAV10@@Z ; std::forward<std::_Tree_const_iterator<std::_Tree_val<std::_Tree_simple_types<int> > > &>
PUBLIC	??$forward@V?$_Tree_const_iterator@V?$_Tree_val@U?$_Tree_simple_types@H@std@@@std@@@std@@@std@@YA$$QAV?$_Tree_const_iterator@V?$_Tree_val@U?$_Tree_simple_types@H@std@@@std@@@0@AAV10@@Z ; std::forward<std::_Tree_const_iterator<std::_Tree_val<std::_Tree_simple_types<int> > > >
PUBLIC	??$_Buynode_if_nil@ABH@?$_Tree@V?$_Tset_traits@HU?$less@H@std@@V?$allocator@H@2@$0A@@std@@@std@@IAEPAU?$_Tree_node@HPAX@1@U_Nil@1@ABH@Z ; std::_Tree<std::_Tset_traits<int,std::less<int>,std::allocator<int>,0> >::_Buynode_if_nil<int const &>
PUBLIC	??$_Copy_or_move@U?$integral_constant@_N$0A@@std@@U?$integral_constant@_N$00@2@U32@H@?$_Tree@V?$_Tset_traits@HU?$less@H@std@@V?$allocator@H@2@$0A@@std@@@std@@IAEPAU?$_Tree_node@HPAX@1@PAU21@U?$integral_constant@_N$0A@@1@U?$integral_constant@_N$00@1@2H@Z ; std::_Tree<std::_Tset_traits<int,std::less<int>,std::allocator<int>,0> >::_Copy_or_move<std::integral_constant<bool,0>,std::integral_constant<bool,1>,std::integral_constant<bool,1>,int>
PUBLIC	??$?8U?$_Tree_node@HPAX@std@@U01@@std@@YA_NABV?$allocator@U?$_Tree_node@HPAX@std@@@0@0@Z ; std::operator==<std::_Tree_node<int,void *>,std::_Tree_node<int,void *> >
PUBLIC	??$destroy@U?$pair@$$CBKUSReserveTargetEffect@CPythonBackground@@@std@@@?$allocator@U?$_Tree_node@U?$pair@$$CBKUSReserveTargetEffect@CPythonBackground@@@std@@PAX@std@@@std@@QAEXPAU?$pair@$$CBKUSReserveTargetEffect@CPythonBackground@@@1@@Z ; std::allocator<std::_Tree_node<std::pair<unsigned long const ,CPythonBackground::SReserveTargetEffect>,void *> >::destroy<std::pair<unsigned long const ,CPythonBackground::SReserveTargetEffect> >
PUBLIC	??$?0AAV?$_Tree_iterator@V?$_Tree_val@U?$_Tree_simple_types@U?$pair@$$CBKUSReserveTargetEffect@CPythonBackground@@@std@@@std@@@std@@@std@@_NX@?$pair@V?$_Tree_iterator@V?$_Tree_val@U?$_Tree_simple_types@U?$pair@$$CBKUSReserveTargetEffect@CPythonBackground@@@std@@@std@@@std@@@std@@_N@std@@QAE@AAV?$_Tree_iterator@V?$_Tree_val@U?$_Tree_simple_types@U?$pair@$$CBKUSReserveTargetEffect@CPythonBackground@@@std@@@std@@@std@@@1@$$QA_N@Z ; std::pair<std::_Tree_iterator<std::_Tree_val<std::_Tree_simple_types<std::pair<unsigned long const ,CPythonBackground::SReserveTargetEffect> > > >,bool>::pair<std::_Tree_iterator<std::_Tree_val<std::_Tree_simple_types<std::pair<unsigned long const ,CPythonBackground::SReserveTargetEffect> > > >,bool><std::_Tree_iterator<std::_Tree_val<std::_Tree_simple_types<std::pair<unsigned long const ,CPythonBackground::SReserveTargetEffect> > > > &,bool,void>
PUBLIC	??$?0V?$_Tree_iterator@V?$_Tree_val@U?$_Tree_simple_types@U?$pair@$$CBKUSReserveTargetEffect@CPythonBackground@@@std@@@std@@@std@@@std@@_NX@?$pair@V?$_Tree_iterator@V?$_Tree_val@U?$_Tree_simple_types@U?$pair@$$CBKUSReserveTargetEffect@CPythonBackground@@@std@@@std@@@std@@@std@@_N@std@@QAE@$$QAV?$_Tree_iterator@V?$_Tree_val@U?$_Tree_simple_types@U?$pair@$$CBKUSReserveTargetEffect@CPythonBackground@@@std@@@std@@@std@@@1@$$QA_N@Z ; std::pair<std::_Tree_iterator<std::_Tree_val<std::_Tree_simple_types<std::pair<unsigned long const ,CPythonBackground::SReserveTargetEffect> > > >,bool>::pair<std::_Tree_iterator<std::_Tree_val<std::_Tree_simple_types<std::pair<unsigned long const ,CPythonBackground::SReserveTargetEffect> > > >,bool><std::_Tree_iterator<std::_Tree_val<std::_Tree_simple_types<std::pair<unsigned long const ,CPythonBackground::SReserveTargetEffect> > > >,bool,void>
PUBLIC	??$_Insert_at@AAU?$pair@$$CBKUSReserveTargetEffect@CPythonBackground@@@std@@PAU?$_Tree_node@U?$pair@$$CBKUSReserveTargetEffect@CPythonBackground@@@std@@PAX@2@@?$_Tree@V?$_Tmap_traits@KUSReserveTargetEffect@CPythonBackground@@U?$less@K@std@@V?$allocator@U?$pair@$$CBKUSReserveTargetEffect@CPythonBackground@@@std@@@4@$0A@@std@@@std@@IAE?AV?$_Tree_iterator@V?$_Tree_val@U?$_Tree_simple_types@U?$pair@$$CBKUSReserveTargetEffect@CPythonBackground@@@std@@@std@@@std@@@1@_NPAU?$_Tree_node@U?$pair@$$CBKUSReserveTargetEffect@CPythonBackground@@@std@@PAX@1@AAU?$pair@$$CBKUSReserveTargetEffect@CPythonBackground@@@1@1@Z ; std::_Tree<std::_Tmap_traits<unsigned long,CPythonBackground::SReserveTargetEffect,std::less<unsigned long>,std::allocator<std::pair<unsigned long const ,CPythonBackground::SReserveTargetEffect> >,0> >::_Insert_at<std::pair<unsigned long const ,CPythonBackground::SReserveTargetEffect> &,std::_Tree_node<std::pair<unsigned long const ,CPythonBackground::SReserveTargetEffect>,void *> *>
PUBLIC	??$forward@AAU?$pair@$$CBKUSReserveTargetEffect@CPythonBackground@@@std@@@std@@YAAAU?$pair@$$CBKUSReserveTargetEffect@CPythonBackground@@@0@AAU10@@Z ; std::forward<std::pair<unsigned long const ,CPythonBackground::SReserveTargetEffect> &>
PUBLIC	??$construct@U?$pair@$$CBKUSReserveTargetEffect@CPythonBackground@@@std@@U?$pair@KUSReserveTargetEffect@CPythonBackground@@@2@@?$_Wrap_alloc@V?$allocator@U?$_Tree_node@U?$pair@$$CBKUSReserveTargetEffect@CPythonBackground@@@std@@PAX@std@@@std@@@std@@QAEXPAU?$pair@$$CBKUSReserveTargetEffect@CPythonBackground@@@1@$$QAU?$pair@KUSReserveTargetEffect@CPythonBackground@@@1@@Z ; std::_Wrap_alloc<std::allocator<std::_Tree_node<std::pair<unsigned long const ,CPythonBackground::SReserveTargetEffect>,void *> > >::construct<std::pair<unsigned long const ,CPythonBackground::SReserveTargetEffect>,std::pair<unsigned long,CPythonBackground::SReserveTargetEffect> >
PUBLIC	?max_size@?$allocator@U?$_Tree_node@V?$basic_string@DU?$char_traits@D@std@@V?$allocator@D@2@@std@@PAX@std@@@std@@QBEIXZ ; std::allocator<std::_Tree_node<std::basic_string<char,std::char_traits<char>,std::allocator<char> >,void *> >::max_size
PUBLIC	?max_size@?$allocator@U?$_Tree_node@HPAX@std@@@std@@QBEIXZ ; std::allocator<std::_Tree_node<int,void *> >::max_size
PUBLIC	??F?$_Tree_unchecked_const_iterator@V?$_Tree_val@U?$_Tree_simple_types@U?$pair@$$CBKUSReserveTargetEffect@CPythonBackground@@@std@@@std@@@std@@U_Iterator_base0@2@@std@@QAEAAV01@XZ ; std::_Tree_unchecked_const_iterator<std::_Tree_val<std::_Tree_simple_types<std::pair<unsigned long const ,CPythonBackground::SReserveTargetEffect> > >,std::_Iterator_base0>::operator--
PUBLIC	?max_size@?$allocator_traits@V?$allocator@U?$_Tree_node@V?$basic_string@DU?$char_traits@D@std@@V?$allocator@D@2@@std@@PAX@std@@@std@@@std@@SAIABV?$allocator@U?$_Tree_node@V?$basic_string@DU?$char_traits@D@std@@V?$allocator@D@2@@std@@PAX@std@@@2@@Z ; std::allocator_traits<std::allocator<std::_Tree_node<std::basic_string<char,std::char_traits<char>,std::allocator<char> >,void *> > >::max_size
PUBLIC	?max_size@?$allocator_traits@V?$allocator@U?$_Tree_node@HPAX@std@@@std@@@std@@SAIABV?$allocator@U?$_Tree_node@HPAX@std@@@2@@Z ; std::allocator_traits<std::allocator<std::_Tree_node<int,void *> > >::max_size
PUBLIC	??F?$_Tree_const_iterator@V?$_Tree_val@U?$_Tree_simple_types@U?$pair@$$CBKUSReserveTargetEffect@CPythonBackground@@@std@@@std@@@std@@@std@@QAEAAV01@XZ ; std::_Tree_const_iterator<std::_Tree_val<std::_Tree_simple_types<std::pair<unsigned long const ,CPythonBackground::SReserveTargetEffect> > > >::operator--
PUBLIC	?max_size@?$_Wrap_alloc@V?$allocator@U?$_Tree_node@V?$basic_string@DU?$char_traits@D@std@@V?$allocator@D@2@@std@@PAX@std@@@std@@@std@@QBEIXZ ; std::_Wrap_alloc<std::allocator<std::_Tree_node<std::basic_string<char,std::char_traits<char>,std::allocator<char> >,void *> > >::max_size
PUBLIC	?max_size@?$_Wrap_alloc@V?$allocator@U?$_Tree_node@HPAX@std@@@std@@@std@@QBEIXZ ; std::_Wrap_alloc<std::allocator<std::_Tree_node<int,void *> > >::max_size
PUBLIC	?_Unchecked@?$_Vector_iterator@V?$_Vector_val@U?$_Simple_types@UTMapInfo@CMapManager@@@std@@@std@@@std@@QBEPAUTMapInfo@CMapManager@@XZ ; std::_Vector_iterator<std::_Vector_val<std::_Simple_types<CMapManager::TMapInfo> > >::_Unchecked
PUBLIC	?_Rechecked@?$_Vector_iterator@V?$_Vector_val@U?$_Simple_types@UTMapInfo@CMapManager@@@std@@@std@@@std@@QAEAAV12@PAUTMapInfo@CMapManager@@@Z ; std::_Vector_iterator<std::_Vector_val<std::_Simple_types<CMapManager::TMapInfo> > >::_Rechecked
PUBLIC	??F?$_Tree_iterator@V?$_Tree_val@U?$_Tree_simple_types@U?$pair@$$CBKUSReserveTargetEffect@CPythonBackground@@@std@@@std@@@std@@@std@@QAEAAV01@XZ ; std::_Tree_iterator<std::_Tree_val<std::_Tree_simple_types<std::pair<unsigned long const ,CPythonBackground::SReserveTargetEffect> > > >::operator--
PUBLIC	?_Freenode0@?$_Tree_buy@U?$pair@$$CBKUSReserveTargetEffect@CPythonBackground@@@std@@V?$allocator@U?$pair@$$CBKUSReserveTargetEffect@CPythonBackground@@@std@@@2@@std@@QAEXPAU?$_Tree_node@U?$pair@$$CBKUSReserveTargetEffect@CPythonBackground@@@std@@PAX@2@@Z ; std::_Tree_buy<std::pair<unsigned long const ,CPythonBackground::SReserveTargetEffect>,std::allocator<std::pair<unsigned long const ,CPythonBackground::SReserveTargetEffect> > >::_Freenode0
PUBLIC	?_Buynode0@?$_Tree_buy@U?$pair@$$CBKUSReserveTargetEffect@CPythonBackground@@@std@@V?$allocator@U?$pair@$$CBKUSReserveTargetEffect@CPythonBackground@@@std@@@2@@std@@QAEPAU?$_Tree_node@U?$pair@$$CBKUSReserveTargetEffect@CPythonBackground@@@std@@PAX@2@XZ ; std::_Tree_buy<std::pair<unsigned long const ,CPythonBackground::SReserveTargetEffect>,std::allocator<std::pair<unsigned long const ,CPythonBackground::SReserveTargetEffect> > >::_Buynode0
PUBLIC	?_Destroy_if_not_nil@?$_Tree@V?$_Tmap_traits@KUSReserveTargetEffect@CPythonBackground@@U?$less@K@std@@V?$allocator@U?$pair@$$CBKUSReserveTargetEffect@CPythonBackground@@@std@@@4@$0A@@std@@@std@@IAEXPAU?$_Tree_node@U?$pair@$$CBKUSReserveTargetEffect@CPythonBackground@@@std@@PAX@2@@Z ; std::_Tree<std::_Tmap_traits<unsigned long,CPythonBackground::SReserveTargetEffect,std::less<unsigned long>,std::allocator<std::pair<unsigned long const ,CPythonBackground::SReserveTargetEffect> >,0> >::_Destroy_if_not_nil
PUBLIC	?max_size@?$_Tree@V?$_Tset_traits@V?$basic_string@DU?$char_traits@D@std@@V?$allocator@D@2@@std@@U?$less@V?$basic_string@DU?$char_traits@D@std@@V?$allocator@D@2@@std@@@2@V?$allocator@V?$basic_string@DU?$char_traits@D@std@@V?$allocator@D@2@@std@@@2@$0A@@std@@@std@@QBEIXZ ; std::_Tree<std::_Tset_traits<std::basic_string<char,std::char_traits<char>,std::allocator<char> >,std::less<std::basic_string<char,std::char_traits<char>,std::allocator<char> > >,std::allocator<std::basic_string<char,std::char_traits<char>,std::allocator<char> > >,0> >::max_size
PUBLIC	??0?$allocator@U?$_Tree_node@HPAX@std@@@std@@QAE@ABV01@@Z ; std::allocator<std::_Tree_node<int,void *> >::allocator<std::_Tree_node<int,void *> >
PUBLIC	?max_size@?$_Tree@V?$_Tset_traits@HU?$less@H@std@@V?$allocator@H@2@$0A@@std@@@std@@QBEIXZ ; std::_Tree<std::_Tset_traits<int,std::less<int>,std::allocator<int>,0> >::max_size
PUBLIC	??$construct@PAU?$_Tree_node@U?$pair@$$CBKUSReserveTargetEffect@CPythonBackground@@@std@@PAX@std@@AAPAU12@@?$allocator_traits@V?$allocator@U?$_Tree_node@U?$pair@$$CBKUSReserveTargetEffect@CPythonBackground@@@std@@PAX@std@@@std@@@std@@SAXAAV?$allocator@U?$_Tree_node@U?$pair@$$CBKUSReserveTargetEffect@CPythonBackground@@@std@@PAX@std@@@1@PAPAU?$_Tree_node@U?$pair@$$CBKUSReserveTargetEffect@CPythonBackground@@@std@@PAX@1@AAPAU31@@Z ; std::allocator_traits<std::allocator<std::_Tree_node<std::pair<unsigned long const ,CPythonBackground::SReserveTargetEffect>,void *> > >::construct<std::_Tree_node<std::pair<unsigned long const ,CPythonBackground::SReserveTargetEffect>,void *> *,std::_Tree_node<std::pair<unsigned long const ,CPythonBackground::SReserveTargetEffect>,void *> * &>
PUBLIC	??$forward@AAPAU?$_Tree_node@U?$pair@$$CBKUSReserveTargetEffect@CPythonBackground@@@std@@PAX@std@@@std@@YAAAPAU?$_Tree_node@U?$pair@$$CBKUSReserveTargetEffect@CPythonBackground@@@std@@PAX@0@AAPAU10@@Z ; std::forward<std::_Tree_node<std::pair<unsigned long const ,CPythonBackground::SReserveTargetEffect>,void *> * &>
PUBLIC	??$construct@PAU?$_Tree_node@V?$basic_string@DU?$char_traits@D@std@@V?$allocator@D@2@@std@@PAX@std@@AAPAU12@@?$allocator_traits@V?$allocator@U?$_Tree_node@V?$basic_string@DU?$char_traits@D@std@@V?$allocator@D@2@@std@@PAX@std@@@std@@@std@@SAXAAV?$allocator@U?$_Tree_node@V?$basic_string@DU?$char_traits@D@std@@V?$allocator@D@2@@std@@PAX@std@@@1@PAPAU?$_Tree_node@V?$basic_string@DU?$char_traits@D@std@@V?$allocator@D@2@@std@@PAX@1@AAPAU31@@Z ; std::allocator_traits<std::allocator<std::_Tree_node<std::basic_string<char,std::char_traits<char>,std::allocator<char> >,void *> > >::construct<std::_Tree_node<std::basic_string<char,std::char_traits<char>,std::allocator<char> >,void *> *,std::_Tree_node<std::basic_string<char,std::char_traits<char>,std::allocator<char> >,void *> * &>
PUBLIC	??$forward@AAPAU?$_Tree_node@V?$basic_string@DU?$char_traits@D@std@@V?$allocator@D@2@@std@@PAX@std@@@std@@YAAAPAU?$_Tree_node@V?$basic_string@DU?$char_traits@D@std@@V?$allocator@D@2@@std@@PAX@0@AAPAU10@@Z ; std::forward<std::_Tree_node<std::basic_string<char,std::char_traits<char>,std::allocator<char> >,void *> * &>
PUBLIC	??$construct@PAU?$_Tree_node@HPAX@std@@AAPAU12@@?$allocator_traits@V?$allocator@U?$_Tree_node@HPAX@std@@@std@@@std@@SAXAAV?$allocator@U?$_Tree_node@HPAX@std@@@1@PAPAU?$_Tree_node@HPAX@1@AAPAU31@@Z ; std::allocator_traits<std::allocator<std::_Tree_node<int,void *> > >::construct<std::_Tree_node<int,void *> *,std::_Tree_node<int,void *> * &>
PUBLIC	??$forward@AAPAU?$_Tree_node@HPAX@std@@@std@@YAAAPAU?$_Tree_node@HPAX@0@AAPAU10@@Z ; std::forward<std::_Tree_node<int,void *> * &>
PUBLIC	??$destroy@V?$basic_string@DU?$char_traits@D@std@@V?$allocator@D@2@@std@@@?$allocator_traits@V?$allocator@U?$_Tree_node@V?$basic_string@DU?$char_traits@D@std@@V?$allocator@D@2@@std@@PAX@std@@@std@@@std@@SAXAAV?$allocator@U?$_Tree_node@V?$basic_string@DU?$char_traits@D@std@@V?$allocator@D@2@@std@@PAX@std@@@1@PAV?$basic_string@DU?$char_traits@D@std@@V?$allocator@D@2@@1@@Z ; std::allocator_traits<std::allocator<std::_Tree_node<std::basic_string<char,std::char_traits<char>,std::allocator<char> >,void *> > >::destroy<std::basic_string<char,std::char_traits<char>,std::allocator<char> > >
PUBLIC	??$destroy@PAU?$_Tree_node@U?$pair@$$CBKUSReserveTargetEffect@CPythonBackground@@@std@@PAX@std@@@?$allocator_traits@V?$allocator@U?$_Tree_node@U?$pair@$$CBKUSReserveTargetEffect@CPythonBackground@@@std@@PAX@std@@@std@@@std@@SAXAAV?$allocator@U?$_Tree_node@U?$pair@$$CBKUSReserveTargetEffect@CPythonBackground@@@std@@PAX@std@@@1@PAPAU?$_Tree_node@U?$pair@$$CBKUSReserveTargetEffect@CPythonBackground@@@std@@PAX@1@@Z ; std::allocator_traits<std::allocator<std::_Tree_node<std::pair<unsigned long const ,CPythonBackground::SReserveTargetEffect>,void *> > >::destroy<std::_Tree_node<std::pair<unsigned long const ,CPythonBackground::SReserveTargetEffect>,void *> *>
PUBLIC	??$forward@AAV?$_Tree_iterator@V?$_Tree_val@U?$_Tree_simple_types@U?$pair@$$CBKUSReserveTargetEffect@CPythonBackground@@@std@@@std@@@std@@@std@@@std@@YAAAV?$_Tree_iterator@V?$_Tree_val@U?$_Tree_simple_types@U?$pair@$$CBKUSReserveTargetEffect@CPythonBackground@@@std@@@std@@@std@@@0@AAV10@@Z ; std::forward<std::_Tree_iterator<std::_Tree_val<std::_Tree_simple_types<std::pair<unsigned long const ,CPythonBackground::SReserveTargetEffect> > > > &>
PUBLIC	??$destroy@PAU?$_Tree_node@V?$basic_string@DU?$char_traits@D@std@@V?$allocator@D@2@@std@@PAX@std@@@?$allocator_traits@V?$allocator@U?$_Tree_node@V?$basic_string@DU?$char_traits@D@std@@V?$allocator@D@2@@std@@PAX@std@@@std@@@std@@SAXAAV?$allocator@U?$_Tree_node@V?$basic_string@DU?$char_traits@D@std@@V?$allocator@D@2@@std@@PAX@std@@@1@PAPAU?$_Tree_node@V?$basic_string@DU?$char_traits@D@std@@V?$allocator@D@2@@std@@PAX@1@@Z ; std::allocator_traits<std::allocator<std::_Tree_node<std::basic_string<char,std::char_traits<char>,std::allocator<char> >,void *> > >::destroy<std::_Tree_node<std::basic_string<char,std::char_traits<char>,std::allocator<char> >,void *> *>
PUBLIC	??$destroy@PAU?$_Tree_node@HPAX@std@@@?$allocator_traits@V?$allocator@U?$_Tree_node@HPAX@std@@@std@@@std@@SAXAAV?$allocator@U?$_Tree_node@HPAX@std@@@1@PAPAU?$_Tree_node@HPAX@1@@Z ; std::allocator_traits<std::allocator<std::_Tree_node<int,void *> > >::destroy<std::_Tree_node<int,void *> *>
PUBLIC	??$?0AAV?$_Tree_const_iterator@V?$_Tree_val@U?$_Tree_simple_types@V?$basic_string@DU?$char_traits@D@std@@V?$allocator@D@2@@std@@@std@@@std@@@std@@_NX@?$pair@V?$_Tree_const_iterator@V?$_Tree_val@U?$_Tree_simple_types@V?$basic_string@DU?$char_traits@D@std@@V?$allocator@D@2@@std@@@std@@@std@@@std@@_N@std@@QAE@AAV?$_Tree_const_iterator@V?$_Tree_val@U?$_Tree_simple_types@V?$basic_string@DU?$char_traits@D@std@@V?$allocator@D@2@@std@@@std@@@std@@@1@$$QA_N@Z ; std::pair<std::_Tree_const_iterator<std::_Tree_val<std::_Tree_simple_types<std::basic_string<char,std::char_traits<char>,std::allocator<char> > > > >,bool>::pair<std::_Tree_const_iterator<std::_Tree_val<std::_Tree_simple_types<std::basic_string<char,std::char_traits<char>,std::allocator<char> > > > >,bool><std::_Tree_const_iterator<std::_Tree_val<std::_Tree_simple_types<std::basic_string<char,std::char_traits<char>,std::allocator<char> > > > > &,bool,void>
PUBLIC	??$?0V?$_Tree_const_iterator@V?$_Tree_val@U?$_Tree_simple_types@V?$basic_string@DU?$char_traits@D@std@@V?$allocator@D@2@@std@@@std@@@std@@@std@@_NX@?$pair@V?$_Tree_const_iterator@V?$_Tree_val@U?$_Tree_simple_types@V?$basic_string@DU?$char_traits@D@std@@V?$allocator@D@2@@std@@@std@@@std@@@std@@_N@std@@QAE@$$QAV?$_Tree_const_iterator@V?$_Tree_val@U?$_Tree_simple_types@V?$basic_string@DU?$char_traits@D@std@@V?$allocator@D@2@@std@@@std@@@std@@@1@$$QA_N@Z ; std::pair<std::_Tree_const_iterator<std::_Tree_val<std::_Tree_simple_types<std::basic_string<char,std::char_traits<char>,std::allocator<char> > > > >,bool>::pair<std::_Tree_const_iterator<std::_Tree_val<std::_Tree_simple_types<std::basic_string<char,std::char_traits<char>,std::allocator<char> > > > >,bool><std::_Tree_const_iterator<std::_Tree_val<std::_Tree_simple_types<std::basic_string<char,std::char_traits<char>,std::allocator<char> > > > >,bool,void>
PUBLIC	??$_Insert_at@V?$basic_string@DU?$char_traits@D@std@@V?$allocator@D@2@@std@@U_Nil@2@@?$_Tree@V?$_Tset_traits@V?$basic_string@DU?$char_traits@D@std@@V?$allocator@D@2@@std@@U?$less@V?$basic_string@DU?$char_traits@D@std@@V?$allocator@D@2@@std@@@2@V?$allocator@V?$basic_string@DU?$char_traits@D@std@@V?$allocator@D@2@@std@@@2@$0A@@std@@@std@@IAE?AV?$_Tree_const_iterator@V?$_Tree_val@U?$_Tree_simple_types@V?$basic_string@DU?$char_traits@D@std@@V?$allocator@D@2@@std@@@std@@@std@@@1@_NPAU?$_Tree_node@V?$basic_string@DU?$char_traits@D@std@@V?$allocator@D@2@@std@@PAX@1@$$QAV?$basic_string@DU?$char_traits@D@std@@V?$allocator@D@2@@1@U_Nil@1@@Z ; std::_Tree<std::_Tset_traits<std::basic_string<char,std::char_traits<char>,std::allocator<char> >,std::less<std::basic_string<char,std::char_traits<char>,std::allocator<char> > >,std::allocator<std::basic_string<char,std::char_traits<char>,std::allocator<char> > >,0> >::_Insert_at<std::basic_string<char,std::char_traits<char>,std::allocator<char> >,std::_Nil>
PUBLIC	??$destroy@H@?$allocator_traits@V?$allocator@U?$_Tree_node@HPAX@std@@@std@@@std@@SAXAAV?$allocator@U?$_Tree_node@HPAX@std@@@1@PAH@Z ; std::allocator_traits<std::allocator<std::_Tree_node<int,void *> > >::destroy<int>
PUBLIC	??$?0AAV?$_Tree_const_iterator@V?$_Tree_val@U?$_Tree_simple_types@H@std@@@std@@@std@@_NX@?$pair@V?$_Tree_const_iterator@V?$_Tree_val@U?$_Tree_simple_types@H@std@@@std@@@std@@_N@std@@QAE@AAV?$_Tree_const_iterator@V?$_Tree_val@U?$_Tree_simple_types@H@std@@@std@@@1@$$QA_N@Z ; std::pair<std::_Tree_const_iterator<std::_Tree_val<std::_Tree_simple_types<int> > >,bool>::pair<std::_Tree_const_iterator<std::_Tree_val<std::_Tree_simple_types<int> > >,bool><std::_Tree_const_iterator<std::_Tree_val<std::_Tree_simple_types<int> > > &,bool,void>
PUBLIC	??$?0V?$_Tree_const_iterator@V?$_Tree_val@U?$_Tree_simple_types@H@std@@@std@@@std@@_NX@?$pair@V?$_Tree_const_iterator@V?$_Tree_val@U?$_Tree_simple_types@H@std@@@std@@@std@@_N@std@@QAE@$$QAV?$_Tree_const_iterator@V?$_Tree_val@U?$_Tree_simple_types@H@std@@@std@@@1@$$QA_N@Z ; std::pair<std::_Tree_const_iterator<std::_Tree_val<std::_Tree_simple_types<int> > >,bool>::pair<std::_Tree_const_iterator<std::_Tree_val<std::_Tree_simple_types<int> > >,bool><std::_Tree_const_iterator<std::_Tree_val<std::_Tree_simple_types<int> > >,bool,void>
PUBLIC	??$_Insert_at@ABHU_Nil@std@@@?$_Tree@V?$_Tset_traits@HU?$less@H@std@@V?$allocator@H@2@$0A@@std@@@std@@IAE?AV?$_Tree_const_iterator@V?$_Tree_val@U?$_Tree_simple_types@H@std@@@std@@@1@_NPAU?$_Tree_node@HPAX@1@ABHU_Nil@1@@Z ; std::_Tree<std::_Tset_traits<int,std::less<int>,std::allocator<int>,0> >::_Insert_at<int const &,std::_Nil>
PUBLIC	??$forward@ABH@std@@YAABHABH@Z			; std::forward<int const &>
PUBLIC	??$_Copy_nodes@U?$integral_constant@_N$0A@@std@@@?$_Tree@V?$_Tset_traits@HU?$less@H@std@@V?$allocator@H@2@$0A@@std@@@std@@IAEPAU?$_Tree_node@HPAX@1@PAU21@0U?$integral_constant@_N$0A@@1@@Z ; std::_Tree<std::_Tset_traits<int,std::less<int>,std::allocator<int>,0> >::_Copy_nodes<std::integral_constant<bool,0> >
PUBLIC	??$?8V?$allocator@U?$_Tree_node@HPAX@std@@@std@@V01@@std@@YA_NABU?$_Wrap_alloc@V?$allocator@U?$_Tree_node@HPAX@std@@@std@@@0@0@Z ; std::operator==<std::allocator<std::_Tree_node<int,void *> >,std::allocator<std::_Tree_node<int,void *> > >
PUBLIC	??$_Distance2@V?$_Tree_iterator@V?$_Tree_val@U?$_Tree_simple_types@U?$pair@$$CBKUSReserveTargetEffect@CPythonBackground@@@std@@@std@@@std@@@std@@I@std@@YAXV?$_Tree_iterator@V?$_Tree_val@U?$_Tree_simple_types@U?$pair@$$CBKUSReserveTargetEffect@CPythonBackground@@@std@@@std@@@std@@@0@0AAIUbidirectional_iterator_tag@0@@Z ; std::_Distance2<std::_Tree_iterator<std::_Tree_val<std::_Tree_simple_types<std::pair<unsigned long const ,CPythonBackground::SReserveTargetEffect> > > >,unsigned int>
PUBLIC	??$_Iter_cat@V?$_Tree_iterator@V?$_Tree_val@U?$_Tree_simple_types@U?$pair@$$CBKUSReserveTargetEffect@CPythonBackground@@@std@@@std@@@std@@@std@@@std@@YA?AUbidirectional_iterator_tag@0@ABV?$_Tree_iterator@V?$_Tree_val@U?$_Tree_simple_types@U?$pair@$$CBKUSReserveTargetEffect@CPythonBackground@@@std@@@std@@@std@@@0@@Z ; std::_Iter_cat<std::_Tree_iterator<std::_Tree_val<std::_Tree_simple_types<std::pair<unsigned long const ,CPythonBackground::SReserveTargetEffect> > > > >
PUBLIC	??$destroy@U?$pair@$$CBKUSReserveTargetEffect@CPythonBackground@@@std@@@?$allocator_traits@V?$allocator@U?$_Tree_node@U?$pair@$$CBKUSReserveTargetEffect@CPythonBackground@@@std@@PAX@std@@@std@@@std@@SAXAAV?$allocator@U?$_Tree_node@U?$pair@$$CBKUSReserveTargetEffect@CPythonBackground@@@std@@PAX@std@@@1@PAU?$pair@$$CBKUSReserveTargetEffect@CPythonBackground@@@1@@Z ; std::allocator_traits<std::allocator<std::_Tree_node<std::pair<unsigned long const ,CPythonBackground::SReserveTargetEffect>,void *> > >::destroy<std::pair<unsigned long const ,CPythonBackground::SReserveTargetEffect> >
PUBLIC	??$_Distance2@V?$_Tree_iterator@V?$_Tree_val@U?$_Tree_simple_types@U?$pair@$$CBKK@std@@@std@@@std@@@std@@I@std@@YAXV?$_Tree_iterator@V?$_Tree_val@U?$_Tree_simple_types@U?$pair@$$CBKK@std@@@std@@@std@@@0@0AAIUbidirectional_iterator_tag@0@@Z ; std::_Distance2<std::_Tree_iterator<std::_Tree_val<std::_Tree_simple_types<std::pair<unsigned long const ,unsigned long> > > >,unsigned int>
PUBLIC	??$_Iter_cat@V?$_Tree_iterator@V?$_Tree_val@U?$_Tree_simple_types@U?$pair@$$CBKK@std@@@std@@@std@@@std@@@std@@YA?AUbidirectional_iterator_tag@0@ABV?$_Tree_iterator@V?$_Tree_val@U?$_Tree_simple_types@U?$pair@$$CBKK@std@@@std@@@std@@@0@@Z ; std::_Iter_cat<std::_Tree_iterator<std::_Tree_val<std::_Tree_simple_types<std::pair<unsigned long const ,unsigned long> > > > >
PUBLIC	??$_Insert_nohint@AAU?$pair@$$CBKUSReserveTargetEffect@CPythonBackground@@@std@@PAU?$_Tree_node@U?$pair@$$CBKUSReserveTargetEffect@CPythonBackground@@@std@@PAX@2@@?$_Tree@V?$_Tmap_traits@KUSReserveTargetEffect@CPythonBackground@@U?$less@K@std@@V?$allocator@U?$pair@$$CBKUSReserveTargetEffect@CPythonBackground@@@std@@@4@$0A@@std@@@std@@IAE?AU?$pair@V?$_Tree_iterator@V?$_Tree_val@U?$_Tree_simple_types@U?$pair@$$CBKUSReserveTargetEffect@CPythonBackground@@@std@@@std@@@std@@@std@@_N@1@_NAAU?$pair@$$CBKUSReserveTargetEffect@CPythonBackground@@@1@PAU?$_Tree_node@U?$pair@$$CBKUSReserveTargetEffect@CPythonBackground@@@std@@PAX@1@@Z ; std::_Tree<std::_Tmap_traits<unsigned long,CPythonBackground::SReserveTargetEffect,std::less<unsigned long>,std::allocator<std::pair<unsigned long const ,CPythonBackground::SReserveTargetEffect> >,0> >::_Insert_nohint<std::pair<unsigned long const ,CPythonBackground::SReserveTargetEffect> &,std::_Tree_node<std::pair<unsigned long const ,CPythonBackground::SReserveTargetEffect>,void *> *>
PUBLIC	??$_Buynode@U?$pair@KUSReserveTargetEffect@CPythonBackground@@@std@@@?$_Tree_buy@U?$pair@$$CBKUSReserveTargetEffect@CPythonBackground@@@std@@V?$allocator@U?$pair@$$CBKUSReserveTargetEffect@CPythonBackground@@@std@@@2@@std@@QAEPAU?$_Tree_node@U?$pair@$$CBKUSReserveTargetEffect@CPythonBackground@@@std@@PAX@1@$$QAU?$pair@KUSReserveTargetEffect@CPythonBackground@@@1@@Z ; std::_Tree_buy<std::pair<unsigned long const ,CPythonBackground::SReserveTargetEffect>,std::allocator<std::pair<unsigned long const ,CPythonBackground::SReserveTargetEffect> > >::_Buynode<std::pair<unsigned long,CPythonBackground::SReserveTargetEffect> >
PUBLIC	??$forward@U?$pair@KUSReserveTargetEffect@CPythonBackground@@@std@@@std@@YA$$QAU?$pair@KUSReserveTargetEffect@CPythonBackground@@@0@AAU10@@Z ; std::forward<std::pair<unsigned long,CPythonBackground::SReserveTargetEffect> >
PUBLIC	??$?0AAKAAUSReserveTargetEffect@CPythonBackground@@X@?$pair@KUSReserveTargetEffect@CPythonBackground@@@std@@QAE@AAKAAUSReserveTargetEffect@CPythonBackground@@@Z ; std::pair<unsigned long,CPythonBackground::SReserveTargetEffect>::pair<unsigned long,CPythonBackground::SReserveTargetEffect><unsigned long &,CPythonBackground::SReserveTargetEffect &,void>
PUBLIC	??$forward@AAUSReserveTargetEffect@CPythonBackground@@@std@@YAAAUSReserveTargetEffect@CPythonBackground@@AAU12@@Z ; std::forward<CPythonBackground::SReserveTargetEffect &>
PUBLIC	??$?8DU?$char_traits@D@std@@V?$allocator@D@1@@std@@YA_NPBDABV?$basic_string@DU?$char_traits@D@std@@V?$allocator@D@2@@0@@Z ; std::operator==<char,std::char_traits<char>,std::allocator<char> >
PUBLIC	??$_Rechecked@V?$_Vector_val@U?$_Simple_types@UTMapInfo@CMapManager@@@std@@@std@@@std@@YAAAV?$_Vector_iterator@V?$_Vector_val@U?$_Simple_types@UTMapInfo@CMapManager@@@std@@@std@@@0@AAV10@PAUTMapInfo@CMapManager@@@Z ; std::_Rechecked<std::_Vector_val<std::_Simple_types<CMapManager::TMapInfo> > >
PUBLIC	??$_Find_if@PAUTMapInfo@CMapManager@@UFFindWarpMapName@CPythonBackground@@@std@@YAPAUTMapInfo@CMapManager@@PAU12@0UFFindWarpMapName@CPythonBackground@@@Z ; std::_Find_if<CMapManager::TMapInfo *,CPythonBackground::FFindWarpMapName>
PUBLIC	??$_Unchecked@V?$_Vector_val@U?$_Simple_types@UTMapInfo@CMapManager@@@std@@@std@@@std@@YAPAUTMapInfo@CMapManager@@V?$_Vector_iterator@V?$_Vector_val@U?$_Simple_types@UTMapInfo@CMapManager@@@std@@@std@@@0@@Z ; std::_Unchecked<std::_Vector_val<std::_Simple_types<CMapManager::TMapInfo> > >
PUBLIC	??F?$_Tree_unchecked_const_iterator@V?$_Tree_val@U?$_Tree_simple_types@V?$basic_string@DU?$char_traits@D@std@@V?$allocator@D@2@@std@@@std@@@std@@U_Iterator_base0@2@@std@@QAEAAV01@XZ ; std::_Tree_unchecked_const_iterator<std::_Tree_val<std::_Tree_simple_types<std::basic_string<char,std::char_traits<char>,std::allocator<char> > > >,std::_Iterator_base0>::operator--
PUBLIC	??F?$_Tree_unchecked_const_iterator@V?$_Tree_val@U?$_Tree_simple_types@H@std@@@std@@U_Iterator_base0@2@@std@@QAEAAV01@XZ ; std::_Tree_unchecked_const_iterator<std::_Tree_val<std::_Tree_simple_types<int> >,std::_Iterator_base0>::operator--
PUBLIC	??_G?$RangeTester@UCollisionChecker@@@@UAEPAXI@Z ; RangeTester<CollisionChecker>::`scalar deleting destructor'
PUBLIC	??_G?$RangeTester@UCollisionAdjustChecker@@@@UAEPAXI@Z ; RangeTester<CollisionAdjustChecker>::`scalar deleting destructor'
PUBLIC	??_G?$RangeTester@UFGetPortalID@@@@UAEPAXI@Z	; RangeTester<FGetPortalID>::`scalar deleting destructor'
PUBLIC	?PointTest2dCallback@?$RangeTester@UCollisionChecker@@@@UAEXABVVector3d@@PAVSpherePack@@W4ViewState@@@Z ; RangeTester<CollisionChecker>::PointTest2dCallback
PUBLIC	?RangeTestCallback@?$RangeTester@UCollisionChecker@@@@UAEXABVVector3d@@MPAVSpherePack@@W4ViewState@@@Z ; RangeTester<CollisionChecker>::RangeTestCallback
PUBLIC	?VisibilityCallback@?$RangeTester@UCollisionChecker@@@@UAEXABVFrustum@@PAVSpherePack@@W4ViewState@@@Z ; RangeTester<CollisionChecker>::VisibilityCallback
PUBLIC	?RayTraceCallback@?$RangeTester@UCollisionChecker@@@@UAEXABVVector3d@@0M0PAVSpherePack@@@Z ; RangeTester<CollisionChecker>::RayTraceCallback
PUBLIC	??1?$RangeTester@UCollisionChecker@@@@UAE@XZ	; RangeTester<CollisionChecker>::~RangeTester<CollisionChecker>
PUBLIC	??0?$RangeTester@UCollisionChecker@@@@QAE@PAUCollisionChecker@@M@Z ; RangeTester<CollisionChecker>::RangeTester<CollisionChecker>
PUBLIC	?PointTest2dCallback@?$RangeTester@UCollisionAdjustChecker@@@@UAEXABVVector3d@@PAVSpherePack@@W4ViewState@@@Z ; RangeTester<CollisionAdjustChecker>::PointTest2dCallback
PUBLIC	?RangeTestCallback@?$RangeTester@UCollisionAdjustChecker@@@@UAEXABVVector3d@@MPAVSpherePack@@W4ViewState@@@Z ; RangeTester<CollisionAdjustChecker>::RangeTestCallback
PUBLIC	?VisibilityCallback@?$RangeTester@UCollisionAdjustChecker@@@@UAEXABVFrustum@@PAVSpherePack@@W4ViewState@@@Z ; RangeTester<CollisionAdjustChecker>::VisibilityCallback
PUBLIC	?RayTraceCallback@?$RangeTester@UCollisionAdjustChecker@@@@UAEXABVVector3d@@0M0PAVSpherePack@@@Z ; RangeTester<CollisionAdjustChecker>::RayTraceCallback
PUBLIC	??1?$RangeTester@UCollisionAdjustChecker@@@@UAE@XZ ; RangeTester<CollisionAdjustChecker>::~RangeTester<CollisionAdjustChecker>
PUBLIC	??0?$RangeTester@UCollisionAdjustChecker@@@@QAE@PAUCollisionAdjustChecker@@M@Z ; RangeTester<CollisionAdjustChecker>::RangeTester<CollisionAdjustChecker>
PUBLIC	?PointTest2dCallback@?$RangeTester@UFGetPortalID@@@@UAEXABVVector3d@@PAVSpherePack@@W4ViewState@@@Z ; RangeTester<FGetPortalID>::PointTest2dCallback
PUBLIC	?RangeTestCallback@?$RangeTester@UFGetPortalID@@@@UAEXABVVector3d@@MPAVSpherePack@@W4ViewState@@@Z ; RangeTester<FGetPortalID>::RangeTestCallback
PUBLIC	?VisibilityCallback@?$RangeTester@UFGetPortalID@@@@UAEXABVFrustum@@PAVSpherePack@@W4ViewState@@@Z ; RangeTester<FGetPortalID>::VisibilityCallback
PUBLIC	?RayTraceCallback@?$RangeTester@UFGetPortalID@@@@UAEXABVVector3d@@0M0PAVSpherePack@@@Z ; RangeTester<FGetPortalID>::RayTraceCallback
PUBLIC	??1?$RangeTester@UFGetPortalID@@@@UAE@XZ	; RangeTester<FGetPortalID>::~RangeTester<FGetPortalID>
PUBLIC	??0?$RangeTester@UFGetPortalID@@@@QAE@PAUFGetPortalID@@M@Z ; RangeTester<FGetPortalID>::RangeTester<FGetPortalID>
PUBLIC	??F?$_Tree_const_iterator@V?$_Tree_val@U?$_Tree_simple_types@V?$basic_string@DU?$char_traits@D@std@@V?$allocator@D@2@@std@@@std@@@std@@@std@@QAEAAV01@XZ ; std::_Tree_const_iterator<std::_Tree_val<std::_Tree_simple_types<std::basic_string<char,std::char_traits<char>,std::allocator<char> > > > >::operator--
PUBLIC	??F?$_Tree_const_iterator@V?$_Tree_val@U?$_Tree_simple_types@H@std@@@std@@@std@@QAEAAV01@XZ ; std::_Tree_const_iterator<std::_Tree_val<std::_Tree_simple_types<int> > >::operator--
PUBLIC	?_Destroy_if_not_nil@?$_Tree@V?$_Tset_traits@V?$basic_string@DU?$char_traits@D@std@@V?$allocator@D@2@@std@@U?$less@V?$basic_string@DU?$char_traits@D@std@@V?$allocator@D@2@@std@@@2@V?$allocator@V?$basic_string@DU?$char_traits@D@std@@V?$allocator@D@2@@std@@@2@$0A@@std@@@std@@IAEXU_Nil@2@@Z ; std::_Tree<std::_Tset_traits<std::basic_string<char,std::char_traits<char>,std::allocator<char> >,std::less<std::basic_string<char,std::char_traits<char>,std::allocator<char> > >,std::allocator<std::basic_string<char,std::char_traits<char>,std::allocator<char> > >,0> >::_Destroy_if_not_nil
PUBLIC	?_Destroy_if_not_nil@?$_Tree@V?$_Tset_traits@HU?$less@H@std@@V?$allocator@H@2@$0A@@std@@@std@@IAEXU_Nil@2@@Z ; std::_Tree<std::_Tset_traits<int,std::less<int>,std::allocator<int>,0> >::_Destroy_if_not_nil
PUBLIC	?size@?$_Tree@V?$_Tset_traits@HU?$less@H@std@@V?$allocator@H@2@$0A@@std@@@std@@QBEIXZ ; std::_Tree<std::_Tset_traits<int,std::less<int>,std::allocator<int>,0> >::size
PUBLIC	??$_Allocate@U?$_Tree_node@U?$pair@$$CBKUSReserveTargetEffect@CPythonBackground@@@std@@PAX@std@@@std@@YAPAU?$_Tree_node@U?$pair@$$CBKUSReserveTargetEffect@CPythonBackground@@@std@@PAX@0@IPAU10@@Z ; std::_Allocate<std::_Tree_node<std::pair<unsigned long const ,CPythonBackground::SReserveTargetEffect>,void *> >
PUBLIC	??$_Allocate@U?$_Tree_node@V?$basic_string@DU?$char_traits@D@std@@V?$allocator@D@2@@std@@PAX@std@@@std@@YAPAU?$_Tree_node@V?$basic_string@DU?$char_traits@D@std@@V?$allocator@D@2@@std@@PAX@0@IPAU10@@Z ; std::_Allocate<std::_Tree_node<std::basic_string<char,std::char_traits<char>,std::allocator<char> >,void *> >
PUBLIC	??$_Allocate@U?$_Tree_node@HPAX@std@@@std@@YAPAU?$_Tree_node@HPAX@0@IPAU10@@Z ; std::_Allocate<std::_Tree_node<int,void *> >
PUBLIC	??$construct@PAU?$_Tree_node@U?$pair@$$CBKUSReserveTargetEffect@CPythonBackground@@@std@@PAX@std@@AAPAU12@@?$_Wrap_alloc@V?$allocator@U?$_Tree_node@U?$pair@$$CBKUSReserveTargetEffect@CPythonBackground@@@std@@PAX@std@@@std@@@std@@QAEXPAPAU?$_Tree_node@U?$pair@$$CBKUSReserveTargetEffect@CPythonBackground@@@std@@PAX@1@AAPAU21@@Z ; std::_Wrap_alloc<std::allocator<std::_Tree_node<std::pair<unsigned long const ,CPythonBackground::SReserveTargetEffect>,void *> > >::construct<std::_Tree_node<std::pair<unsigned long const ,CPythonBackground::SReserveTargetEffect>,void *> *,std::_Tree_node<std::pair<unsigned long const ,CPythonBackground::SReserveTargetEffect>,void *> * &>
PUBLIC	??$construct@PAU?$_Tree_node@V?$basic_string@DU?$char_traits@D@std@@V?$allocator@D@2@@std@@PAX@std@@AAPAU12@@?$_Wrap_alloc@V?$allocator@U?$_Tree_node@V?$basic_string@DU?$char_traits@D@std@@V?$allocator@D@2@@std@@PAX@std@@@std@@@std@@QAEXPAPAU?$_Tree_node@V?$basic_string@DU?$char_traits@D@std@@V?$allocator@D@2@@std@@PAX@1@AAPAU21@@Z ; std::_Wrap_alloc<std::allocator<std::_Tree_node<std::basic_string<char,std::char_traits<char>,std::allocator<char> >,void *> > >::construct<std::_Tree_node<std::basic_string<char,std::char_traits<char>,std::allocator<char> >,void *> *,std::_Tree_node<std::basic_string<char,std::char_traits<char>,std::allocator<char> >,void *> * &>
PUBLIC	??$construct@PAU?$_Tree_node@HPAX@std@@AAPAU12@@?$_Wrap_alloc@V?$allocator@U?$_Tree_node@HPAX@std@@@std@@@std@@QAEXPAPAU?$_Tree_node@HPAX@1@AAPAU21@@Z ; std::_Wrap_alloc<std::allocator<std::_Tree_node<int,void *> > >::construct<std::_Tree_node<int,void *> *,std::_Tree_node<int,void *> * &>
PUBLIC	??$destroy@V?$basic_string@DU?$char_traits@D@std@@V?$allocator@D@2@@std@@@?$_Wrap_alloc@V?$allocator@U?$_Tree_node@V?$basic_string@DU?$char_traits@D@std@@V?$allocator@D@2@@std@@PAX@std@@@std@@@std@@QAEXPAV?$basic_string@DU?$char_traits@D@std@@V?$allocator@D@2@@1@@Z ; std::_Wrap_alloc<std::allocator<std::_Tree_node<std::basic_string<char,std::char_traits<char>,std::allocator<char> >,void *> > >::destroy<std::basic_string<char,std::char_traits<char>,std::allocator<char> > >
PUBLIC	??$destroy@PAU?$_Tree_node@U?$pair@$$CBKUSReserveTargetEffect@CPythonBackground@@@std@@PAX@std@@@?$_Wrap_alloc@V?$allocator@U?$_Tree_node@U?$pair@$$CBKUSReserveTargetEffect@CPythonBackground@@@std@@PAX@std@@@std@@@std@@QAEXPAPAU?$_Tree_node@U?$pair@$$CBKUSReserveTargetEffect@CPythonBackground@@@std@@PAX@1@@Z ; std::_Wrap_alloc<std::allocator<std::_Tree_node<std::pair<unsigned long const ,CPythonBackground::SReserveTargetEffect>,void *> > >::destroy<std::_Tree_node<std::pair<unsigned long const ,CPythonBackground::SReserveTargetEffect>,void *> *>
PUBLIC	??$addressof@PAU?$_Tree_node@U?$pair@$$CBKUSReserveTargetEffect@CPythonBackground@@@std@@PAX@std@@@std@@YAPAPAU?$_Tree_node@U?$pair@$$CBKUSReserveTargetEffect@CPythonBackground@@@std@@PAX@0@AAPAU10@@Z ; std::addressof<std::_Tree_node<std::pair<unsigned long const ,CPythonBackground::SReserveTargetEffect>,void *> *>
PUBLIC	??$_Kfn@$$CBKUSReserveTargetEffect@CPythonBackground@@@?$_Tmap_traits@KUSReserveTargetEffect@CPythonBackground@@U?$less@K@std@@V?$allocator@U?$pair@$$CBKUSReserveTargetEffect@CPythonBackground@@@std@@@4@$0A@@std@@SAABKABU?$pair@$$CBKUSReserveTargetEffect@CPythonBackground@@@1@@Z ; std::_Tmap_traits<unsigned long,CPythonBackground::SReserveTargetEffect,std::less<unsigned long>,std::allocator<std::pair<unsigned long const ,CPythonBackground::SReserveTargetEffect> >,0>::_Kfn<unsigned long const ,CPythonBackground::SReserveTargetEffect>
PUBLIC	??$?0AAV?$_Tree_iterator@V?$_Tree_val@U?$_Tree_simple_types@U?$pair@$$CBKUSReserveTargetEffect@CPythonBackground@@@std@@@std@@@std@@@std@@AAV01@X@?$pair@V?$_Tree_iterator@V?$_Tree_val@U?$_Tree_simple_types@U?$pair@$$CBKUSReserveTargetEffect@CPythonBackground@@@std@@@std@@@std@@@std@@V12@@std@@QAE@AAV?$_Tree_iterator@V?$_Tree_val@U?$_Tree_simple_types@U?$pair@$$CBKUSReserveTargetEffect@CPythonBackground@@@std@@@std@@@std@@@1@0@Z ; std::pair<std::_Tree_iterator<std::_Tree_val<std::_Tree_simple_types<std::pair<unsigned long const ,CPythonBackground::SReserveTargetEffect> > > >,std::_Tree_iterator<std::_Tree_val<std::_Tree_simple_types<std::pair<unsigned long const ,CPythonBackground::SReserveTargetEffect> > > > >::pair<std::_Tree_iterator<std::_Tree_val<std::_Tree_simple_types<std::pair<unsigned long const ,CPythonBackground::SReserveTargetEffect> > > >,std::_Tree_iterator<std::_Tree_val<std::_Tree_simple_types<std::pair<unsigned long const ,CPythonBackground::SReserveTargetEffect> > > > ><std::_Tree_iterator<std::_Tree_val<std::_Tree_simple_types<std::pair<unsigned long const ,CPythonBackground::SReserveTargetEffect> > > > &,std::_Tree_iterator<std::_Tree_val<std::_Tree_simple_types<std::pair<unsigned long const ,CPythonBackground::SReserveTargetEffect> > > > &,void>
PUBLIC	??$?0AAV?$_Tree_iterator@V?$_Tree_val@U?$_Tree_simple_types@U?$pair@$$CBKK@std@@@std@@@std@@@std@@AAV01@X@?$pair@V?$_Tree_iterator@V?$_Tree_val@U?$_Tree_simple_types@U?$pair@$$CBKK@std@@@std@@@std@@@std@@V12@@std@@QAE@AAV?$_Tree_iterator@V?$_Tree_val@U?$_Tree_simple_types@U?$pair@$$CBKK@std@@@std@@@std@@@1@0@Z ; std::pair<std::_Tree_iterator<std::_Tree_val<std::_Tree_simple_types<std::pair<unsigned long const ,unsigned long> > > >,std::_Tree_iterator<std::_Tree_val<std::_Tree_simple_types<std::pair<unsigned long const ,unsigned long> > > > >::pair<std::_Tree_iterator<std::_Tree_val<std::_Tree_simple_types<std::pair<unsigned long const ,unsigned long> > > >,std::_Tree_iterator<std::_Tree_val<std::_Tree_simple_types<std::pair<unsigned long const ,unsigned long> > > > ><std::_Tree_iterator<std::_Tree_val<std::_Tree_simple_types<std::pair<unsigned long const ,unsigned long> > > > &,std::_Tree_iterator<std::_Tree_val<std::_Tree_simple_types<std::pair<unsigned long const ,unsigned long> > > > &,void>
PUBLIC	??$destroy@PAU?$_Tree_node@V?$basic_string@DU?$char_traits@D@std@@V?$allocator@D@2@@std@@PAX@std@@@?$_Wrap_alloc@V?$allocator@U?$_Tree_node@V?$basic_string@DU?$char_traits@D@std@@V?$allocator@D@2@@std@@PAX@std@@@std@@@std@@QAEXPAPAU?$_Tree_node@V?$basic_string@DU?$char_traits@D@std@@V?$allocator@D@2@@std@@PAX@1@@Z ; std::_Wrap_alloc<std::allocator<std::_Tree_node<std::basic_string<char,std::char_traits<char>,std::allocator<char> >,void *> > >::destroy<std::_Tree_node<std::basic_string<char,std::char_traits<char>,std::allocator<char> >,void *> *>
PUBLIC	??$addressof@PAU?$_Tree_node@V?$basic_string@DU?$char_traits@D@std@@V?$allocator@D@2@@std@@PAX@std@@@std@@YAPAPAU?$_Tree_node@V?$basic_string@DU?$char_traits@D@std@@V?$allocator@D@2@@std@@PAX@0@AAPAU10@@Z ; std::addressof<std::_Tree_node<std::basic_string<char,std::char_traits<char>,std::allocator<char> >,void *> *>
PUBLIC	??$destroy@PAU?$_Tree_node@HPAX@std@@@?$_Wrap_alloc@V?$allocator@U?$_Tree_node@HPAX@std@@@std@@@std@@QAEXPAPAU?$_Tree_node@HPAX@1@@Z ; std::_Wrap_alloc<std::allocator<std::_Tree_node<int,void *> > >::destroy<std::_Tree_node<int,void *> *>
PUBLIC	??$addressof@PAU?$_Tree_node@HPAX@std@@@std@@YAPAPAU?$_Tree_node@HPAX@0@AAPAU10@@Z ; std::addressof<std::_Tree_node<int,void *> *>
PUBLIC	??$_Insert_nohint@V?$basic_string@DU?$char_traits@D@std@@V?$allocator@D@2@@std@@U_Nil@2@@?$_Tree@V?$_Tset_traits@V?$basic_string@DU?$char_traits@D@std@@V?$allocator@D@2@@std@@U?$less@V?$basic_string@DU?$char_traits@D@std@@V?$allocator@D@2@@std@@@2@V?$allocator@V?$basic_string@DU?$char_traits@D@std@@V?$allocator@D@2@@std@@@2@$0A@@std@@@std@@IAE?AU?$pair@V?$_Tree_const_iterator@V?$_Tree_val@U?$_Tree_simple_types@V?$basic_string@DU?$char_traits@D@std@@V?$allocator@D@2@@std@@@std@@@std@@@std@@_N@1@_N$$QAV?$basic_string@DU?$char_traits@D@std@@V?$allocator@D@2@@1@U_Nil@1@@Z ; std::_Tree<std::_Tset_traits<std::basic_string<char,std::char_traits<char>,std::allocator<char> >,std::less<std::basic_string<char,std::char_traits<char>,std::allocator<char> > >,std::allocator<std::basic_string<char,std::char_traits<char>,std::allocator<char> > >,0> >::_Insert_nohint<std::basic_string<char,std::char_traits<char>,std::allocator<char> >,std::_Nil>
PUBLIC	??$destroy@H@?$_Wrap_alloc@V?$allocator@U?$_Tree_node@HPAX@std@@@std@@@std@@QAEXPAH@Z ; std::_Wrap_alloc<std::allocator<std::_Tree_node<int,void *> > >::destroy<int>
PUBLIC	??$addressof@H@std@@YAPAHAAH@Z			; std::addressof<int>
PUBLIC	??$_Insert_nohint@ABHU_Nil@std@@@?$_Tree@V?$_Tset_traits@HU?$less@H@std@@V?$allocator@H@2@$0A@@std@@@std@@IAE?AU?$pair@V?$_Tree_const_iterator@V?$_Tree_val@U?$_Tree_simple_types@H@std@@@std@@@std@@_N@1@_NABHU_Nil@1@@Z ; std::_Tree<std::_Tset_traits<int,std::less<int>,std::allocator<int>,0> >::_Insert_nohint<int const &,std::_Nil>
PUBLIC	??$_Copy@U?$integral_constant@_N$0A@@std@@@?$_Tree@V?$_Tset_traits@HU?$less@H@std@@V?$allocator@H@2@$0A@@std@@@std@@IAEXABV01@U?$integral_constant@_N$0A@@1@@Z ; std::_Tree<std::_Tset_traits<int,std::less<int>,std::allocator<int>,0> >::_Copy<std::integral_constant<bool,0> >
PUBLIC	??$?9V?$allocator@U?$_Tree_node@HPAX@std@@@std@@V01@@std@@YA_NABU?$_Wrap_alloc@V?$allocator@U?$_Tree_node@HPAX@std@@@std@@@0@0@Z ; std::operator!=<std::allocator<std::_Tree_node<int,void *> >,std::allocator<std::_Tree_node<int,void *> > >
PUBLIC	??$?MDU?$char_traits@D@std@@V?$allocator@D@1@@std@@YA_NABV?$basic_string@DU?$char_traits@D@std@@V?$allocator@D@2@@0@0@Z ; std::operator<<char,std::char_traits<char>,std::allocator<char> >
PUBLIC	??$_Distance@V?$_Tree_iterator@V?$_Tree_val@U?$_Tree_simple_types@U?$pair@$$CBKUSReserveTargetEffect@CPythonBackground@@@std@@@std@@@std@@@std@@I@std@@YAXV?$_Tree_iterator@V?$_Tree_val@U?$_Tree_simple_types@U?$pair@$$CBKUSReserveTargetEffect@CPythonBackground@@@std@@@std@@@std@@@0@0AAI@Z ; std::_Distance<std::_Tree_iterator<std::_Tree_val<std::_Tree_simple_types<std::pair<unsigned long const ,CPythonBackground::SReserveTargetEffect> > > >,unsigned int>
PUBLIC	??$destroy@U?$pair@$$CBKUSReserveTargetEffect@CPythonBackground@@@std@@@?$_Wrap_alloc@V?$allocator@U?$_Tree_node@U?$pair@$$CBKUSReserveTargetEffect@CPythonBackground@@@std@@PAX@std@@@std@@@std@@QAEXPAU?$pair@$$CBKUSReserveTargetEffect@CPythonBackground@@@1@@Z ; std::_Wrap_alloc<std::allocator<std::_Tree_node<std::pair<unsigned long const ,CPythonBackground::SReserveTargetEffect>,void *> > >::destroy<std::pair<unsigned long const ,CPythonBackground::SReserveTargetEffect> >
PUBLIC	??$addressof@U?$pair@$$CBKUSReserveTargetEffect@CPythonBackground@@@std@@@std@@YAPAU?$pair@$$CBKUSReserveTargetEffect@CPythonBackground@@@0@AAU10@@Z ; std::addressof<std::pair<unsigned long const ,CPythonBackground::SReserveTargetEffect> >
PUBLIC	??$_Distance@V?$_Tree_iterator@V?$_Tree_val@U?$_Tree_simple_types@U?$pair@$$CBKK@std@@@std@@@std@@@std@@I@std@@YAXV?$_Tree_iterator@V?$_Tree_val@U?$_Tree_simple_types@U?$pair@$$CBKK@std@@@std@@@std@@@0@0AAI@Z ; std::_Distance<std::_Tree_iterator<std::_Tree_val<std::_Tree_simple_types<std::pair<unsigned long const ,unsigned long> > > >,unsigned int>
PUBLIC	??$insert@U?$pair@KUSReserveTargetEffect@CPythonBackground@@@std@@@?$_Tree@V?$_Tmap_traits@KUSReserveTargetEffect@CPythonBackground@@U?$less@K@std@@V?$allocator@U?$pair@$$CBKUSReserveTargetEffect@CPythonBackground@@@std@@@4@$0A@@std@@@std@@QAE?AU?$pair@V?$_Tree_iterator@V?$_Tree_val@U?$_Tree_simple_types@U?$pair@$$CBKUSReserveTargetEffect@CPythonBackground@@@std@@@std@@@std@@@std@@_N@1@$$QAU?$pair@KUSReserveTargetEffect@CPythonBackground@@@1@@Z ; std::_Tree<std::_Tmap_traits<unsigned long,CPythonBackground::SReserveTargetEffect,std::less<unsigned long>,std::allocator<std::pair<unsigned long const ,CPythonBackground::SReserveTargetEffect> >,0> >::insert<std::pair<unsigned long,CPythonBackground::SReserveTargetEffect> >
PUBLIC	??$make_pair@AAKAAUSReserveTargetEffect@CPythonBackground@@@std@@YA?AU?$pair@KUSReserveTargetEffect@CPythonBackground@@@0@AAKAAUSReserveTargetEffect@CPythonBackground@@@Z ; std::make_pair<unsigned long &,CPythonBackground::SReserveTargetEffect &>
PUBLIC	??$?9DU?$char_traits@D@std@@V?$allocator@D@1@@std@@YA_NPBDABV?$basic_string@DU?$char_traits@D@std@@V?$allocator@D@2@@0@@Z ; std::operator!=<char,std::char_traits<char>,std::allocator<char> >
PUBLIC	??$find_if@V?$_Vector_iterator@V?$_Vector_val@U?$_Simple_types@UTMapInfo@CMapManager@@@std@@@std@@@std@@UFFindWarpMapName@CPythonBackground@@@std@@YA?AV?$_Vector_iterator@V?$_Vector_val@U?$_Simple_types@UTMapInfo@CMapManager@@@std@@@std@@@0@V10@0UFFindWarpMapName@CPythonBackground@@@Z ; std::find_if<std::_Vector_iterator<std::_Vector_val<std::_Simple_types<CMapManager::TMapInfo> > >,CPythonBackground::FFindWarpMapName>
PUBLIC	??$ForInRange@UCollisionChecker@@@CCullingManager@@QAEXABVVector3d@@MPAUCollisionChecker@@@Z ; CCullingManager::ForInRange<CollisionChecker>
PUBLIC	??$ForInRange@UCollisionAdjustChecker@@@CCullingManager@@QAEXABVVector3d@@MPAUCollisionAdjustChecker@@@Z ; CCullingManager::ForInRange<CollisionAdjustChecker>
PUBLIC	??$ForInRay@UFGetPortalID@@@CCullingManager@@QAEXABVVector3d@@0PAUFGetPortalID@@@Z ; CCullingManager::ForInRay<FGetPortalID>
PUBLIC	?allocate@?$allocator@U?$_Tree_node@U?$pair@$$CBKUSReserveTargetEffect@CPythonBackground@@@std@@PAX@std@@@std@@QAEPAU?$_Tree_node@U?$pair@$$CBKUSReserveTargetEffect@CPythonBackground@@@std@@PAX@2@I@Z ; std::allocator<std::_Tree_node<std::pair<unsigned long const ,CPythonBackground::SReserveTargetEffect>,void *> >::allocate
PUBLIC	?allocate@?$allocator@U?$_Tree_node@V?$basic_string@DU?$char_traits@D@std@@V?$allocator@D@2@@std@@PAX@std@@@std@@QAEPAU?$_Tree_node@V?$basic_string@DU?$char_traits@D@std@@V?$allocator@D@2@@std@@PAX@2@I@Z ; std::allocator<std::_Tree_node<std::basic_string<char,std::char_traits<char>,std::allocator<char> >,void *> >::allocate
PUBLIC	?allocate@?$allocator@U?$_Tree_node@HPAX@std@@@std@@QAEPAU?$_Tree_node@HPAX@2@I@Z ; std::allocator<std::_Tree_node<int,void *> >::allocate
PUBLIC	?allocate@?$_Wrap_alloc@V?$allocator@U?$_Tree_node@U?$pair@$$CBKUSReserveTargetEffect@CPythonBackground@@@std@@PAX@std@@@std@@@std@@QAEPAU?$_Tree_node@U?$pair@$$CBKUSReserveTargetEffect@CPythonBackground@@@std@@PAX@2@I@Z ; std::_Wrap_alloc<std::allocator<std::_Tree_node<std::pair<unsigned long const ,CPythonBackground::SReserveTargetEffect>,void *> > >::allocate
PUBLIC	?allocate@?$_Wrap_alloc@V?$allocator@U?$_Tree_node@V?$basic_string@DU?$char_traits@D@std@@V?$allocator@D@2@@std@@PAX@std@@@std@@@std@@QAEPAU?$_Tree_node@V?$basic_string@DU?$char_traits@D@std@@V?$allocator@D@2@@std@@PAX@2@I@Z ; std::_Wrap_alloc<std::allocator<std::_Tree_node<std::basic_string<char,std::char_traits<char>,std::allocator<char> >,void *> > >::allocate
PUBLIC	?allocate@?$_Wrap_alloc@V?$allocator@U?$_Tree_node@HPAX@std@@@std@@@std@@QAEPAU?$_Tree_node@HPAX@2@I@Z ; std::_Wrap_alloc<std::allocator<std::_Tree_node<int,void *> > >::allocate
PUBLIC	??E?$_Tree_unchecked_const_iterator@V?$_Tree_val@U?$_Tree_simple_types@V?$basic_string@DU?$char_traits@D@std@@V?$allocator@D@2@@std@@@std@@@std@@U_Iterator_base0@2@@std@@QAEAAV01@XZ ; std::_Tree_unchecked_const_iterator<std::_Tree_val<std::_Tree_simple_types<std::basic_string<char,std::char_traits<char>,std::allocator<char> > > >,std::_Iterator_base0>::operator++
PUBLIC	??0?$_Tree_val@U?$_Tree_simple_types@U?$pair@$$CBKUSReserveTargetEffect@CPythonBackground@@@std@@@std@@@std@@QAE@XZ ; std::_Tree_val<std::_Tree_simple_types<std::pair<unsigned long const ,CPythonBackground::SReserveTargetEffect> > >::_Tree_val<std::_Tree_simple_types<std::pair<unsigned long const ,CPythonBackground::SReserveTargetEffect> > >
PUBLIC	?_Buyheadnode@?$_Tree_alloc@$0A@U?$_Tree_base_types@U?$pair@$$CBKUSReserveTargetEffect@CPythonBackground@@@std@@V?$allocator@U?$pair@$$CBKUSReserveTargetEffect@CPythonBackground@@@std@@@2@@std@@@std@@QAEPAU?$_Tree_node@U?$pair@$$CBKUSReserveTargetEffect@CPythonBackground@@@std@@PAX@2@XZ ; std::_Tree_alloc<0,std::_Tree_base_types<std::pair<unsigned long const ,CPythonBackground::SReserveTargetEffect>,std::allocator<std::pair<unsigned long const ,CPythonBackground::SReserveTargetEffect> > > >::_Buyheadnode
PUBLIC	??0?$_Tree_val@U?$_Tree_simple_types@V?$basic_string@DU?$char_traits@D@std@@V?$allocator@D@2@@std@@@std@@@std@@QAE@XZ ; std::_Tree_val<std::_Tree_simple_types<std::basic_string<char,std::char_traits<char>,std::allocator<char> > > >::_Tree_val<std::_Tree_simple_types<std::basic_string<char,std::char_traits<char>,std::allocator<char> > > >
PUBLIC	??0?$allocator@U?$_Tree_node@V?$basic_string@DU?$char_traits@D@std@@V?$allocator@D@2@@std@@PAX@std@@@std@@QAE@XZ ; std::allocator<std::_Tree_node<std::basic_string<char,std::char_traits<char>,std::allocator<char> >,void *> >::allocator<std::_Tree_node<std::basic_string<char,std::char_traits<char>,std::allocator<char> >,void *> >
PUBLIC	?_Buyheadnode@?$_Tree_alloc@$0A@U?$_Tree_base_types@V?$basic_string@DU?$char_traits@D@std@@V?$allocator@D@2@@std@@V?$allocator@V?$basic_string@DU?$char_traits@D@std@@V?$allocator@D@2@@std@@@2@@std@@@std@@QAEPAU?$_Tree_node@V?$basic_string@DU?$char_traits@D@std@@V?$allocator@D@2@@std@@PAX@2@XZ ; std::_Tree_alloc<0,std::_Tree_base_types<std::basic_string<char,std::char_traits<char>,std::allocator<char> >,std::allocator<std::basic_string<char,std::char_traits<char>,std::allocator<char> > > > >::_Buyheadnode
PUBLIC	??0?$_Tree_val@U?$_Tree_simple_types@H@std@@@std@@QAE@XZ ; std::_Tree_val<std::_Tree_simple_types<int> >::_Tree_val<std::_Tree_simple_types<int> >
PUBLIC	?_Buyheadnode@?$_Tree_alloc@$0A@U?$_Tree_base_types@HV?$allocator@H@std@@@std@@@std@@QAEPAU?$_Tree_node@HPAX@2@XZ ; std::_Tree_alloc<0,std::_Tree_base_types<int,std::allocator<int> > >::_Buyheadnode
PUBLIC	??E?$_Tree_const_iterator@V?$_Tree_val@U?$_Tree_simple_types@V?$basic_string@DU?$char_traits@D@std@@V?$allocator@D@2@@std@@@std@@@std@@@std@@QAEAAV01@XZ ; std::_Tree_const_iterator<std::_Tree_val<std::_Tree_simple_types<std::basic_string<char,std::char_traits<char>,std::allocator<char> > > > >::operator++
PUBLIC	??0?$_Tree_alloc@$0A@U?$_Tree_base_types@U?$pair@$$CBKUSReserveTargetEffect@CPythonBackground@@@std@@V?$allocator@U?$pair@$$CBKUSReserveTargetEffect@CPythonBackground@@@std@@@2@@std@@@std@@QAE@ABV?$allocator@U?$pair@$$CBKUSReserveTargetEffect@CPythonBackground@@@std@@@1@@Z ; std::_Tree_alloc<0,std::_Tree_base_types<std::pair<unsigned long const ,CPythonBackground::SReserveTargetEffect>,std::allocator<std::pair<unsigned long const ,CPythonBackground::SReserveTargetEffect> > > >::_Tree_alloc<0,std::_Tree_base_types<std::pair<unsigned long const ,CPythonBackground::SReserveTargetEffect>,std::allocator<std::pair<unsigned long const ,CPythonBackground::SReserveTargetEffect> > > >
PUBLIC	?_Min@?$_Tree_val@U?$_Tree_simple_types@V?$basic_string@DU?$char_traits@D@std@@V?$allocator@D@2@@std@@@std@@@std@@SAPAU?$_Tree_node@V?$basic_string@DU?$char_traits@D@std@@V?$allocator@D@2@@std@@PAX@2@PAU32@@Z ; std::_Tree_val<std::_Tree_simple_types<std::basic_string<char,std::char_traits<char>,std::allocator<char> > > >::_Min
PUBLIC	?_Max@?$_Tree_val@U?$_Tree_simple_types@V?$basic_string@DU?$char_traits@D@std@@V?$allocator@D@2@@std@@@std@@@std@@SAPAU?$_Tree_node@V?$basic_string@DU?$char_traits@D@std@@V?$allocator@D@2@@std@@PAX@2@PAU32@@Z ; std::_Tree_val<std::_Tree_simple_types<std::basic_string<char,std::char_traits<char>,std::allocator<char> > > >::_Max
PUBLIC	?_Color@?$_Tree_val@U?$_Tree_simple_types@V?$basic_string@DU?$char_traits@D@std@@V?$allocator@D@2@@std@@@std@@@std@@SAAADPAU?$_Tree_node@V?$basic_string@DU?$char_traits@D@std@@V?$allocator@D@2@@std@@PAX@2@@Z ; std::_Tree_val<std::_Tree_simple_types<std::basic_string<char,std::char_traits<char>,std::allocator<char> > > >::_Color
PUBLIC	?deallocate@?$allocator@U?$_Tree_node@V?$basic_string@DU?$char_traits@D@std@@V?$allocator@D@2@@std@@PAX@std@@@std@@QAEXPAU?$_Tree_node@V?$basic_string@DU?$char_traits@D@std@@V?$allocator@D@2@@std@@PAX@2@I@Z ; std::allocator<std::_Tree_node<std::basic_string<char,std::char_traits<char>,std::allocator<char> >,void *> >::deallocate
PUBLIC	??0?$_Wrap_alloc@V?$allocator@U?$_Tree_node@V?$basic_string@DU?$char_traits@D@std@@V?$allocator@D@2@@std@@PAX@std@@@std@@@std@@QAE@XZ ; std::_Wrap_alloc<std::allocator<std::_Tree_node<std::basic_string<char,std::char_traits<char>,std::allocator<char> >,void *> > >::_Wrap_alloc<std::allocator<std::_Tree_node<std::basic_string<char,std::char_traits<char>,std::allocator<char> >,void *> > >
PUBLIC	??0?$_Tree_alloc@$0A@U?$_Tree_base_types@V?$basic_string@DU?$char_traits@D@std@@V?$allocator@D@2@@std@@V?$allocator@V?$basic_string@DU?$char_traits@D@std@@V?$allocator@D@2@@std@@@2@@std@@@std@@QAE@ABV?$allocator@V?$basic_string@DU?$char_traits@D@std@@V?$allocator@D@2@@std@@@1@@Z ; std::_Tree_alloc<0,std::_Tree_base_types<std::basic_string<char,std::char_traits<char>,std::allocator<char> >,std::allocator<std::basic_string<char,std::char_traits<char>,std::allocator<char> > > > >::_Tree_alloc<0,std::_Tree_base_types<std::basic_string<char,std::char_traits<char>,std::allocator<char> >,std::allocator<std::basic_string<char,std::char_traits<char>,std::allocator<char> > > > >
PUBLIC	?_Rrotate@?$_Tree@V?$_Tset_traits@V?$basic_string@DU?$char_traits@D@std@@V?$allocator@D@2@@std@@U?$less@V?$basic_string@DU?$char_traits@D@std@@V?$allocator@D@2@@std@@@2@V?$allocator@V?$basic_string@DU?$char_traits@D@std@@V?$allocator@D@2@@std@@@2@$0A@@std@@@std@@IAEXPAU?$_Tree_node@V?$basic_string@DU?$char_traits@D@std@@V?$allocator@D@2@@std@@PAX@2@@Z ; std::_Tree<std::_Tset_traits<std::basic_string<char,std::char_traits<char>,std::allocator<char> >,std::less<std::basic_string<char,std::char_traits<char>,std::allocator<char> > >,std::allocator<std::basic_string<char,std::char_traits<char>,std::allocator<char> > >,0> >::_Rrotate
PUBLIC	?_Rmost@?$_Tree@V?$_Tset_traits@V?$basic_string@DU?$char_traits@D@std@@V?$allocator@D@2@@std@@U?$less@V?$basic_string@DU?$char_traits@D@std@@V?$allocator@D@2@@std@@@2@V?$allocator@V?$basic_string@DU?$char_traits@D@std@@V?$allocator@D@2@@std@@@2@$0A@@std@@@std@@IBEAAPAU?$_Tree_node@V?$basic_string@DU?$char_traits@D@std@@V?$allocator@D@2@@std@@PAX@2@XZ ; std::_Tree<std::_Tset_traits<std::basic_string<char,std::char_traits<char>,std::allocator<char> >,std::less<std::basic_string<char,std::char_traits<char>,std::allocator<char> > >,std::allocator<std::basic_string<char,std::char_traits<char>,std::allocator<char> > >,0> >::_Rmost
PUBLIC	?_Lrotate@?$_Tree@V?$_Tset_traits@V?$basic_string@DU?$char_traits@D@std@@V?$allocator@D@2@@std@@U?$less@V?$basic_string@DU?$char_traits@D@std@@V?$allocator@D@2@@std@@@2@V?$allocator@V?$basic_string@DU?$char_traits@D@std@@V?$allocator@D@2@@std@@@2@$0A@@std@@@std@@IAEXPAU?$_Tree_node@V?$basic_string@DU?$char_traits@D@std@@V?$allocator@D@2@@std@@PAX@2@@Z ; std::_Tree<std::_Tset_traits<std::basic_string<char,std::char_traits<char>,std::allocator<char> >,std::less<std::basic_string<char,std::char_traits<char>,std::allocator<char> > >,std::allocator<std::basic_string<char,std::char_traits<char>,std::allocator<char> > >,0> >::_Lrotate
PUBLIC	?_Erase@?$_Tree@V?$_Tset_traits@V?$basic_string@DU?$char_traits@D@std@@V?$allocator@D@2@@std@@U?$less@V?$basic_string@DU?$char_traits@D@std@@V?$allocator@D@2@@std@@@2@V?$allocator@V?$basic_string@DU?$char_traits@D@std@@V?$allocator@D@2@@std@@@2@$0A@@std@@@std@@IAEXPAU?$_Tree_node@V?$basic_string@DU?$char_traits@D@std@@V?$allocator@D@2@@std@@PAX@2@@Z ; std::_Tree<std::_Tset_traits<std::basic_string<char,std::char_traits<char>,std::allocator<char> >,std::less<std::basic_string<char,std::char_traits<char>,std::allocator<char> > >,std::allocator<std::basic_string<char,std::char_traits<char>,std::allocator<char> > >,0> >::_Erase
PUBLIC	?_Max@?$_Tree_val@U?$_Tree_simple_types@H@std@@@std@@SAPAU?$_Tree_node@HPAX@2@PAU32@@Z ; std::_Tree_val<std::_Tree_simple_types<int> >::_Max
PUBLIC	?_Color@?$_Tree_val@U?$_Tree_simple_types@H@std@@@std@@SAAADPAU?$_Tree_node@HPAX@2@@Z ; std::_Tree_val<std::_Tree_simple_types<int> >::_Color
PUBLIC	??0?$allocator@U?$_Tree_node@HPAX@std@@@std@@QAE@XZ ; std::allocator<std::_Tree_node<int,void *> >::allocator<std::_Tree_node<int,void *> >
PUBLIC	??0?$_Tree_alloc@$0A@U?$_Tree_base_types@HV?$allocator@H@std@@@std@@@std@@QAE@ABV?$allocator@H@1@@Z ; std::_Tree_alloc<0,std::_Tree_base_types<int,std::allocator<int> > >::_Tree_alloc<0,std::_Tree_base_types<int,std::allocator<int> > >
PUBLIC	?_Rrotate@?$_Tree@V?$_Tset_traits@HU?$less@H@std@@V?$allocator@H@2@$0A@@std@@@std@@IAEXPAU?$_Tree_node@HPAX@2@@Z ; std::_Tree<std::_Tset_traits<int,std::less<int>,std::allocator<int>,0> >::_Rrotate
PUBLIC	?_Lrotate@?$_Tree@V?$_Tset_traits@HU?$less@H@std@@V?$allocator@H@2@$0A@@std@@@std@@IAEXPAU?$_Tree_node@HPAX@2@@Z ; std::_Tree<std::_Tset_traits<int,std::less<int>,std::allocator<int>,0> >::_Lrotate
PUBLIC	??E?$_Tree_const_iterator@V?$_Tree_val@U?$_Tree_simple_types@V?$basic_string@DU?$char_traits@D@std@@V?$allocator@D@2@@std@@@std@@@std@@@std@@QAE?AV01@H@Z ; std::_Tree_const_iterator<std::_Tree_val<std::_Tree_simple_types<std::basic_string<char,std::char_traits<char>,std::allocator<char> > > > >::operator++
PUBLIC	??0?$_Tree_unchecked_const_iterator@V?$_Tree_val@U?$_Tree_simple_types@U?$pair@$$CBKUSReserveTargetEffect@CPythonBackground@@@std@@@std@@@std@@U_Iterator_base0@2@@std@@QAE@PAU?$_Tree_node@U?$pair@$$CBKUSReserveTargetEffect@CPythonBackground@@@std@@PAX@1@PBV?$_Tree_val@U?$_Tree_simple_types@U?$pair@$$CBKUSReserveTargetEffect@CPythonBackground@@@std@@@std@@@1@@Z ; std::_Tree_unchecked_const_iterator<std::_Tree_val<std::_Tree_simple_types<std::pair<unsigned long const ,CPythonBackground::SReserveTargetEffect> > >,std::_Iterator_base0>::_Tree_unchecked_const_iterator<std::_Tree_val<std::_Tree_simple_types<std::pair<unsigned long const ,CPythonBackground::SReserveTargetEffect> > >,std::_Iterator_base0>
PUBLIC	??E?$_Tree_const_iterator@V?$_Tree_val@U?$_Tree_simple_types@H@std@@@std@@@std@@QAE?AV01@H@Z ; std::_Tree_const_iterator<std::_Tree_val<std::_Tree_simple_types<int> > >::operator++
PUBLIC	??0?$allocator@U?$_Tree_node@U?$pair@$$CBKUSReserveTargetEffect@CPythonBackground@@@std@@PAX@std@@@std@@QAE@XZ ; std::allocator<std::_Tree_node<std::pair<unsigned long const ,CPythonBackground::SReserveTargetEffect>,void *> >::allocator<std::_Tree_node<std::pair<unsigned long const ,CPythonBackground::SReserveTargetEffect>,void *> >
PUBLIC	??0?$_Tree_buy@U?$pair@$$CBKUSReserveTargetEffect@CPythonBackground@@@std@@V?$allocator@U?$pair@$$CBKUSReserveTargetEffect@CPythonBackground@@@std@@@2@@std@@QAE@ABV?$allocator@U?$pair@$$CBKUSReserveTargetEffect@CPythonBackground@@@std@@@1@@Z ; std::_Tree_buy<std::pair<unsigned long const ,CPythonBackground::SReserveTargetEffect>,std::allocator<std::pair<unsigned long const ,CPythonBackground::SReserveTargetEffect> > >::_Tree_buy<std::pair<unsigned long const ,CPythonBackground::SReserveTargetEffect>,std::allocator<std::pair<unsigned long const ,CPythonBackground::SReserveTargetEffect> > >
PUBLIC	?_Right@?$_Tree_val@U?$_Tree_simple_types@V?$basic_string@DU?$char_traits@D@std@@V?$allocator@D@2@@std@@@std@@@std@@SAAAPAU?$_Tree_node@V?$basic_string@DU?$char_traits@D@std@@V?$allocator@D@2@@std@@PAX@2@PAU32@@Z ; std::_Tree_val<std::_Tree_simple_types<std::basic_string<char,std::char_traits<char>,std::allocator<char> > > >::_Right
PUBLIC	?_Parent@?$_Tree_val@U?$_Tree_simple_types@V?$basic_string@DU?$char_traits@D@std@@V?$allocator@D@2@@std@@@std@@@std@@SAAAPAU?$_Tree_node@V?$basic_string@DU?$char_traits@D@std@@V?$allocator@D@2@@std@@PAX@2@PAU32@@Z ; std::_Tree_val<std::_Tree_simple_types<std::basic_string<char,std::char_traits<char>,std::allocator<char> > > >::_Parent
PUBLIC	?_Left@?$_Tree_val@U?$_Tree_simple_types@V?$basic_string@DU?$char_traits@D@std@@V?$allocator@D@2@@std@@@std@@@std@@SAAAPAU?$_Tree_node@V?$basic_string@DU?$char_traits@D@std@@V?$allocator@D@2@@std@@PAX@2@PAU32@@Z ; std::_Tree_val<std::_Tree_simple_types<std::basic_string<char,std::char_traits<char>,std::allocator<char> > > >::_Left
PUBLIC	?_Isnil@?$_Tree_val@U?$_Tree_simple_types@V?$basic_string@DU?$char_traits@D@std@@V?$allocator@D@2@@std@@@std@@@std@@SAAADPAU?$_Tree_node@V?$basic_string@DU?$char_traits@D@std@@V?$allocator@D@2@@std@@PAX@2@@Z ; std::_Tree_val<std::_Tree_simple_types<std::basic_string<char,std::char_traits<char>,std::allocator<char> > > >::_Isnil
PUBLIC	?deallocate@?$_Wrap_alloc@V?$allocator@U?$_Tree_node@V?$basic_string@DU?$char_traits@D@std@@V?$allocator@D@2@@std@@PAX@std@@@std@@@std@@QAEXPAU?$_Tree_node@V?$basic_string@DU?$char_traits@D@std@@V?$allocator@D@2@@std@@PAX@2@I@Z ; std::_Wrap_alloc<std::allocator<std::_Tree_node<std::basic_string<char,std::char_traits<char>,std::allocator<char> >,void *> > >::deallocate
PUBLIC	?_Getal@?$_Tree_alloc@$0A@U?$_Tree_base_types@V?$basic_string@DU?$char_traits@D@std@@V?$allocator@D@2@@std@@V?$allocator@V?$basic_string@DU?$char_traits@D@std@@V?$allocator@D@2@@std@@@2@@std@@@std@@QBE?AU?$_Wrap_alloc@V?$allocator@U?$_Tree_node@V?$basic_string@DU?$char_traits@D@std@@V?$allocator@D@2@@std@@PAX@std@@@std@@@2@XZ ; std::_Tree_alloc<0,std::_Tree_base_types<std::basic_string<char,std::char_traits<char>,std::allocator<char> >,std::allocator<std::basic_string<char,std::char_traits<char>,std::allocator<char> > > > >::_Getal
PUBLIC	??0?$_Tree_buy@V?$basic_string@DU?$char_traits@D@std@@V?$allocator@D@2@@std@@V?$allocator@V?$basic_string@DU?$char_traits@D@std@@V?$allocator@D@2@@std@@@2@@std@@QAE@ABV?$allocator@V?$basic_string@DU?$char_traits@D@std@@V?$allocator@D@2@@std@@@1@@Z ; std::_Tree_buy<std::basic_string<char,std::char_traits<char>,std::allocator<char> >,std::allocator<std::basic_string<char,std::char_traits<char>,std::allocator<char> > > >::_Tree_buy<std::basic_string<char,std::char_traits<char>,std::allocator<char> >,std::allocator<std::basic_string<char,std::char_traits<char>,std::allocator<char> > > >
PUBLIC	?_Kfn@?$_Tset_traits@V?$basic_string@DU?$char_traits@D@std@@V?$allocator@D@2@@std@@U?$less@V?$basic_string@DU?$char_traits@D@std@@V?$allocator@D@2@@std@@@2@V?$allocator@V?$basic_string@DU?$char_traits@D@std@@V?$allocator@D@2@@std@@@2@$0A@@std@@SAABV?$basic_string@DU?$char_traits@D@std@@V?$allocator@D@2@@2@ABV32@@Z ; std::_Tset_traits<std::basic_string<char,std::char_traits<char>,std::allocator<char> >,std::less<std::basic_string<char,std::char_traits<char>,std::allocator<char> > >,std::allocator<std::basic_string<char,std::char_traits<char>,std::allocator<char> > >,0>::_Kfn
PUBLIC	?_Root@?$_Tree@V?$_Tset_traits@V?$basic_string@DU?$char_traits@D@std@@V?$allocator@D@2@@std@@U?$less@V?$basic_string@DU?$char_traits@D@std@@V?$allocator@D@2@@std@@@2@V?$allocator@V?$basic_string@DU?$char_traits@D@std@@V?$allocator@D@2@@std@@@2@$0A@@std@@@std@@IBEAAPAU?$_Tree_node@V?$basic_string@DU?$char_traits@D@std@@V?$allocator@D@2@@std@@PAX@2@XZ ; std::_Tree<std::_Tset_traits<std::basic_string<char,std::char_traits<char>,std::allocator<char> >,std::less<std::basic_string<char,std::char_traits<char>,std::allocator<char> > >,std::allocator<std::basic_string<char,std::char_traits<char>,std::allocator<char> > >,0> >::_Root
PUBLIC	?_Lmost@?$_Tree@V?$_Tset_traits@V?$basic_string@DU?$char_traits@D@std@@V?$allocator@D@2@@std@@U?$less@V?$basic_string@DU?$char_traits@D@std@@V?$allocator@D@2@@std@@@2@V?$allocator@V?$basic_string@DU?$char_traits@D@std@@V?$allocator@D@2@@std@@@2@$0A@@std@@@std@@IBEAAPAU?$_Tree_node@V?$basic_string@DU?$char_traits@D@std@@V?$allocator@D@2@@std@@PAX@2@XZ ; std::_Tree<std::_Tset_traits<std::basic_string<char,std::char_traits<char>,std::allocator<char> >,std::less<std::basic_string<char,std::char_traits<char>,std::allocator<char> > >,std::allocator<std::basic_string<char,std::char_traits<char>,std::allocator<char> > >,0> >::_Lmost
PUBLIC	?clear@?$_Tree@V?$_Tset_traits@V?$basic_string@DU?$char_traits@D@std@@V?$allocator@D@2@@std@@U?$less@V?$basic_string@DU?$char_traits@D@std@@V?$allocator@D@2@@std@@@2@V?$allocator@V?$basic_string@DU?$char_traits@D@std@@V?$allocator@D@2@@std@@@2@$0A@@std@@@std@@QAEXXZ ; std::_Tree<std::_Tset_traits<std::basic_string<char,std::char_traits<char>,std::allocator<char> >,std::less<std::basic_string<char,std::char_traits<char>,std::allocator<char> > >,std::allocator<std::basic_string<char,std::char_traits<char>,std::allocator<char> > >,0> >::clear
PUBLIC	?erase@?$_Tree@V?$_Tset_traits@V?$basic_string@DU?$char_traits@D@std@@V?$allocator@D@2@@std@@U?$less@V?$basic_string@DU?$char_traits@D@std@@V?$allocator@D@2@@std@@@2@V?$allocator@V?$basic_string@DU?$char_traits@D@std@@V?$allocator@D@2@@std@@@2@$0A@@std@@@std@@QAE?AV?$_Tree_const_iterator@V?$_Tree_val@U?$_Tree_simple_types@V?$basic_string@DU?$char_traits@D@std@@V?$allocator@D@2@@std@@@std@@@std@@@2@V32@@Z ; std::_Tree<std::_Tset_traits<std::basic_string<char,std::char_traits<char>,std::allocator<char> >,std::less<std::basic_string<char,std::char_traits<char>,std::allocator<char> > >,std::allocator<std::basic_string<char,std::char_traits<char>,std::allocator<char> > >,0> >::erase
PUBLIC	?deallocate@?$allocator@U?$_Tree_node@HPAX@std@@@std@@QAEXPAU?$_Tree_node@HPAX@2@I@Z ; std::allocator<std::_Tree_node<int,void *> >::deallocate
PUBLIC	??0?$_Wrap_alloc@V?$allocator@U?$_Tree_node@HPAX@std@@@std@@@std@@QAE@XZ ; std::_Wrap_alloc<std::allocator<std::_Tree_node<int,void *> > >::_Wrap_alloc<std::allocator<std::_Tree_node<int,void *> > >
PUBLIC	??0?$_Tree_buy@HV?$allocator@H@std@@@std@@QAE@ABV?$allocator@H@1@@Z ; std::_Tree_buy<int,std::allocator<int> >::_Tree_buy<int,std::allocator<int> >
PUBLIC	?_Kfn@?$_Tset_traits@HU?$less@H@std@@V?$allocator@H@2@$0A@@std@@SAABHABH@Z ; std::_Tset_traits<int,std::less<int>,std::allocator<int>,0>::_Kfn
PUBLIC	?erase@?$_Tree@V?$_Tset_traits@HU?$less@H@std@@V?$allocator@H@2@$0A@@std@@@std@@QAE?AV?$_Tree_const_iterator@V?$_Tree_val@U?$_Tree_simple_types@H@std@@@std@@@2@V32@@Z ; std::_Tree<std::_Tset_traits<int,std::less<int>,std::allocator<int>,0> >::erase
PUBLIC	??0?$_Vector_const_iterator@V?$_Vector_val@U?$_Simple_types@UTMapInfo@CMapManager@@@std@@@std@@@std@@QAE@PAUTMapInfo@CMapManager@@PBU_Container_base0@1@@Z ; std::_Vector_const_iterator<std::_Vector_val<std::_Simple_types<CMapManager::TMapInfo> > >::_Vector_const_iterator<std::_Vector_val<std::_Simple_types<CMapManager::TMapInfo> > >
PUBLIC	??0?$_Tree_unchecked_const_iterator@V?$_Tree_val@U?$_Tree_simple_types@V?$basic_string@DU?$char_traits@D@std@@V?$allocator@D@2@@std@@@std@@@std@@U_Iterator_base0@2@@std@@QAE@PAU?$_Tree_node@V?$basic_string@DU?$char_traits@D@std@@V?$allocator@D@2@@std@@PAX@1@PBV?$_Tree_val@U?$_Tree_simple_types@V?$basic_string@DU?$char_traits@D@std@@V?$allocator@D@2@@std@@@std@@@1@@Z ; std::_Tree_unchecked_const_iterator<std::_Tree_val<std::_Tree_simple_types<std::basic_string<char,std::char_traits<char>,std::allocator<char> > > >,std::_Iterator_base0>::_Tree_unchecked_const_iterator<std::_Tree_val<std::_Tree_simple_types<std::basic_string<char,std::char_traits<char>,std::allocator<char> > > >,std::_Iterator_base0>
PUBLIC	??E?$_Tree_unchecked_const_iterator@V?$_Tree_val@U?$_Tree_simple_types@U?$pair@$$CBKUSReserveTargetEffect@CPythonBackground@@@std@@@std@@@std@@U_Iterator_base0@2@@std@@QAEAAV01@XZ ; std::_Tree_unchecked_const_iterator<std::_Tree_val<std::_Tree_simple_types<std::pair<unsigned long const ,CPythonBackground::SReserveTargetEffect> > >,std::_Iterator_base0>::operator++
PUBLIC	??E?$_Tree_const_iterator@V?$_Tree_val@U?$_Tree_simple_types@U?$pair@$$CBKUSReserveTargetEffect@CPythonBackground@@@std@@@std@@@std@@@std@@QAE?AV01@H@Z ; std::_Tree_const_iterator<std::_Tree_val<std::_Tree_simple_types<std::pair<unsigned long const ,CPythonBackground::SReserveTargetEffect> > > >::operator++
PUBLIC	??D?$_Tree_const_iterator@V?$_Tree_val@U?$_Tree_simple_types@U?$pair@$$CBKUSReserveTargetEffect@CPythonBackground@@@std@@@std@@@std@@@std@@QBEABU?$pair@$$CBKUSReserveTargetEffect@CPythonBackground@@@1@XZ ; std::_Tree_const_iterator<std::_Tree_val<std::_Tree_simple_types<std::pair<unsigned long const ,CPythonBackground::SReserveTargetEffect> > > >::operator*
PUBLIC	??0?$_Tree_const_iterator@V?$_Tree_val@U?$_Tree_simple_types@U?$pair@$$CBKUSReserveTargetEffect@CPythonBackground@@@std@@@std@@@std@@@std@@QAE@PAU?$_Tree_node@U?$pair@$$CBKUSReserveTargetEffect@CPythonBackground@@@std@@PAX@1@PBV?$_Tree_val@U?$_Tree_simple_types@U?$pair@$$CBKUSReserveTargetEffect@CPythonBackground@@@std@@@std@@@1@@Z ; std::_Tree_const_iterator<std::_Tree_val<std::_Tree_simple_types<std::pair<unsigned long const ,CPythonBackground::SReserveTargetEffect> > > >::_Tree_const_iterator<std::_Tree_val<std::_Tree_simple_types<std::pair<unsigned long const ,CPythonBackground::SReserveTargetEffect> > > >
PUBLIC	??0?$_Tree_unchecked_const_iterator@V?$_Tree_val@U?$_Tree_simple_types@H@std@@@std@@U_Iterator_base0@2@@std@@QAE@PAU?$_Tree_node@HPAX@1@PBV?$_Tree_val@U?$_Tree_simple_types@H@std@@@1@@Z ; std::_Tree_unchecked_const_iterator<std::_Tree_val<std::_Tree_simple_types<int> >,std::_Iterator_base0>::_Tree_unchecked_const_iterator<std::_Tree_val<std::_Tree_simple_types<int> >,std::_Iterator_base0>
PUBLIC	?deallocate@?$allocator@U?$_Tree_node@U?$pair@$$CBKUSReserveTargetEffect@CPythonBackground@@@std@@PAX@std@@@std@@QAEXPAU?$_Tree_node@U?$pair@$$CBKUSReserveTargetEffect@CPythonBackground@@@std@@PAX@2@I@Z ; std::allocator<std::_Tree_node<std::pair<unsigned long const ,CPythonBackground::SReserveTargetEffect>,void *> >::deallocate
PUBLIC	??0?$_Wrap_alloc@V?$allocator@U?$_Tree_node@U?$pair@$$CBKUSReserveTargetEffect@CPythonBackground@@@std@@PAX@std@@@std@@@std@@QAE@XZ ; std::_Wrap_alloc<std::allocator<std::_Tree_node<std::pair<unsigned long const ,CPythonBackground::SReserveTargetEffect>,void *> > >::_Wrap_alloc<std::allocator<std::_Tree_node<std::pair<unsigned long const ,CPythonBackground::SReserveTargetEffect>,void *> > >
PUBLIC	?_Freeheadnode@?$_Tree_alloc@$0A@U?$_Tree_base_types@U?$pair@$$CBKUSReserveTargetEffect@CPythonBackground@@@std@@V?$allocator@U?$pair@$$CBKUSReserveTargetEffect@CPythonBackground@@@std@@@2@@std@@@std@@QAEXPAU?$_Tree_node@U?$pair@$$CBKUSReserveTargetEffect@CPythonBackground@@@std@@PAX@2@@Z ; std::_Tree_alloc<0,std::_Tree_base_types<std::pair<unsigned long const ,CPythonBackground::SReserveTargetEffect>,std::allocator<std::pair<unsigned long const ,CPythonBackground::SReserveTargetEffect> > > >::_Freeheadnode
PUBLIC	??0?$_Tree_comp@$0A@V?$_Tmap_traits@KUSReserveTargetEffect@CPythonBackground@@U?$less@K@std@@V?$allocator@U?$pair@$$CBKUSReserveTargetEffect@CPythonBackground@@@std@@@4@$0A@@std@@@std@@QAE@ABU?$less@K@1@ABV?$allocator@U?$pair@$$CBKUSReserveTargetEffect@CPythonBackground@@@std@@@1@@Z ; std::_Tree_comp<0,std::_Tmap_traits<unsigned long,CPythonBackground::SReserveTargetEffect,std::less<unsigned long>,std::allocator<std::pair<unsigned long const ,CPythonBackground::SReserveTargetEffect> >,0> >::_Tree_comp<0,std::_Tmap_traits<unsigned long,CPythonBackground::SReserveTargetEffect,std::less<unsigned long>,std::allocator<std::pair<unsigned long const ,CPythonBackground::SReserveTargetEffect> >,0> >
PUBLIC	?_Kfn@?$_Tree@V?$_Tmap_traits@KUSReserveTargetEffect@CPythonBackground@@U?$less@K@std@@V?$allocator@U?$pair@$$CBKUSReserveTargetEffect@CPythonBackground@@@std@@@4@$0A@@std@@@std@@IBEABKABU?$pair@$$CBKUSReserveTargetEffect@CPythonBackground@@@2@@Z ; std::_Tree<std::_Tmap_traits<unsigned long,CPythonBackground::SReserveTargetEffect,std::less<unsigned long>,std::allocator<std::pair<unsigned long const ,CPythonBackground::SReserveTargetEffect> >,0> >::_Kfn
PUBLIC	?_Lbound@?$_Tree@V?$_Tmap_traits@KUSReserveTargetEffect@CPythonBackground@@U?$less@K@std@@V?$allocator@U?$pair@$$CBKUSReserveTargetEffect@CPythonBackground@@@std@@@4@$0A@@std@@@std@@IAEPAU?$_Tree_node@U?$pair@$$CBKUSReserveTargetEffect@CPythonBackground@@@std@@PAX@2@ABK@Z ; std::_Tree<std::_Tmap_traits<unsigned long,CPythonBackground::SReserveTargetEffect,std::less<unsigned long>,std::allocator<std::pair<unsigned long const ,CPythonBackground::SReserveTargetEffect> >,0> >::_Lbound
PUBLIC	?_Eqrange@?$_Tree@V?$_Tmap_traits@KUSReserveTargetEffect@CPythonBackground@@U?$less@K@std@@V?$allocator@U?$pair@$$CBKUSReserveTargetEffect@CPythonBackground@@@std@@@4@$0A@@std@@@std@@IAE?AU?$pair@V?$_Tree_iterator@V?$_Tree_val@U?$_Tree_simple_types@U?$pair@$$CBKUSReserveTargetEffect@CPythonBackground@@@std@@@std@@@std@@@std@@V12@@2@ABK@Z ; std::_Tree<std::_Tmap_traits<unsigned long,CPythonBackground::SReserveTargetEffect,std::less<unsigned long>,std::allocator<std::pair<unsigned long const ,CPythonBackground::SReserveTargetEffect> >,0> >::_Eqrange
PUBLIC	?_Eqrange@?$_Tree@V?$_Tmap_traits@KKU?$less@K@std@@V?$allocator@U?$pair@$$CBKK@std@@@2@$0A@@std@@@std@@IAE?AU?$pair@V?$_Tree_iterator@V?$_Tree_val@U?$_Tree_simple_types@U?$pair@$$CBKK@std@@@std@@@std@@@std@@V12@@2@ABK@Z ; std::_Tree<std::_Tmap_traits<unsigned long,unsigned long,std::less<unsigned long>,std::allocator<std::pair<unsigned long const ,unsigned long> >,0> >::_Eqrange
PUBLIC	?_Myval@?$_Tree_val@U?$_Tree_simple_types@V?$basic_string@DU?$char_traits@D@std@@V?$allocator@D@2@@std@@@std@@@std@@SAAAV?$basic_string@DU?$char_traits@D@std@@V?$allocator@D@2@@2@PAU?$_Tree_node@V?$basic_string@DU?$char_traits@D@std@@V?$allocator@D@2@@std@@PAX@2@@Z ; std::_Tree_val<std::_Tree_simple_types<std::basic_string<char,std::char_traits<char>,std::allocator<char> > > >::_Myval
PUBLIC	?_Freeheadnode@?$_Tree_alloc@$0A@U?$_Tree_base_types@V?$basic_string@DU?$char_traits@D@std@@V?$allocator@D@2@@std@@V?$allocator@V?$basic_string@DU?$char_traits@D@std@@V?$allocator@D@2@@std@@@2@@std@@@std@@QAEXPAU?$_Tree_node@V?$basic_string@DU?$char_traits@D@std@@V?$allocator@D@2@@std@@PAX@2@@Z ; std::_Tree_alloc<0,std::_Tree_base_types<std::basic_string<char,std::char_traits<char>,std::allocator<char> >,std::allocator<std::basic_string<char,std::char_traits<char>,std::allocator<char> > > > >::_Freeheadnode
PUBLIC	??0?$_Tree_comp@$0A@V?$_Tset_traits@V?$basic_string@DU?$char_traits@D@std@@V?$allocator@D@2@@std@@U?$less@V?$basic_string@DU?$char_traits@D@std@@V?$allocator@D@2@@std@@@2@V?$allocator@V?$basic_string@DU?$char_traits@D@std@@V?$allocator@D@2@@std@@@2@$0A@@std@@@std@@QAE@ABU?$less@V?$basic_string@DU?$char_traits@D@std@@V?$allocator@D@2@@std@@@1@ABV?$allocator@V?$basic_string@DU?$char_traits@D@std@@V?$allocator@D@2@@std@@@1@@Z ; std::_Tree_comp<0,std::_Tset_traits<std::basic_string<char,std::char_traits<char>,std::allocator<char> >,std::less<std::basic_string<char,std::char_traits<char>,std::allocator<char> > >,std::allocator<std::basic_string<char,std::char_traits<char>,std::allocator<char> > >,0> >::_Tree_comp<0,std::_Tset_traits<std::basic_string<char,std::char_traits<char>,std::allocator<char> >,std::less<std::basic_string<char,std::char_traits<char>,std::allocator<char> > >,std::allocator<std::basic_string<char,std::char_traits<char>,std::allocator<char> > >,0> >
PUBLIC	?_Kfn@?$_Tree@V?$_Tset_traits@V?$basic_string@DU?$char_traits@D@std@@V?$allocator@D@2@@std@@U?$less@V?$basic_string@DU?$char_traits@D@std@@V?$allocator@D@2@@std@@@2@V?$allocator@V?$basic_string@DU?$char_traits@D@std@@V?$allocator@D@2@@std@@@2@$0A@@std@@@std@@IBEABV?$basic_string@DU?$char_traits@D@std@@V?$allocator@D@2@@2@ABV32@@Z ; std::_Tree<std::_Tset_traits<std::basic_string<char,std::char_traits<char>,std::allocator<char> >,std::less<std::basic_string<char,std::char_traits<char>,std::allocator<char> > >,std::allocator<std::basic_string<char,std::char_traits<char>,std::allocator<char> > >,0> >::_Kfn
PUBLIC	?_Lbound@?$_Tree@V?$_Tset_traits@V?$basic_string@DU?$char_traits@D@std@@V?$allocator@D@2@@std@@U?$less@V?$basic_string@DU?$char_traits@D@std@@V?$allocator@D@2@@std@@@2@V?$allocator@V?$basic_string@DU?$char_traits@D@std@@V?$allocator@D@2@@std@@@2@$0A@@std@@@std@@IAEPAU?$_Tree_node@V?$basic_string@DU?$char_traits@D@std@@V?$allocator@D@2@@std@@PAX@2@ABV?$basic_string@DU?$char_traits@D@std@@V?$allocator@D@2@@2@@Z ; std::_Tree<std::_Tset_traits<std::basic_string<char,std::char_traits<char>,std::allocator<char> >,std::less<std::basic_string<char,std::char_traits<char>,std::allocator<char> > >,std::allocator<std::basic_string<char,std::char_traits<char>,std::allocator<char> > >,0> >::_Lbound
PUBLIC	?erase@?$_Tree@V?$_Tset_traits@V?$basic_string@DU?$char_traits@D@std@@V?$allocator@D@2@@std@@U?$less@V?$basic_string@DU?$char_traits@D@std@@V?$allocator@D@2@@std@@@2@V?$allocator@V?$basic_string@DU?$char_traits@D@std@@V?$allocator@D@2@@std@@@2@$0A@@std@@@std@@QAE?AV?$_Tree_const_iterator@V?$_Tree_val@U?$_Tree_simple_types@V?$basic_string@DU?$char_traits@D@std@@V?$allocator@D@2@@std@@@std@@@std@@@2@V32@0@Z ; std::_Tree<std::_Tset_traits<std::basic_string<char,std::char_traits<char>,std::allocator<char> >,std::less<std::basic_string<char,std::char_traits<char>,std::allocator<char> > >,std::allocator<std::basic_string<char,std::char_traits<char>,std::allocator<char> > >,0> >::erase
PUBLIC	?begin@?$_Tree@V?$_Tset_traits@V?$basic_string@DU?$char_traits@D@std@@V?$allocator@D@2@@std@@U?$less@V?$basic_string@DU?$char_traits@D@std@@V?$allocator@D@2@@std@@@2@V?$allocator@V?$basic_string@DU?$char_traits@D@std@@V?$allocator@D@2@@std@@@2@$0A@@std@@@std@@QAE?AV?$_Tree_const_iterator@V?$_Tree_val@U?$_Tree_simple_types@V?$basic_string@DU?$char_traits@D@std@@V?$allocator@D@2@@std@@@std@@@std@@@2@XZ ; std::_Tree<std::_Tset_traits<std::basic_string<char,std::char_traits<char>,std::allocator<char> >,std::less<std::basic_string<char,std::char_traits<char>,std::allocator<char> > >,std::allocator<std::basic_string<char,std::char_traits<char>,std::allocator<char> > >,0> >::begin
PUBLIC	?_Min@?$_Tree_val@U?$_Tree_simple_types@H@std@@@std@@SAPAU?$_Tree_node@HPAX@2@PAU32@@Z ; std::_Tree_val<std::_Tree_simple_types<int> >::_Min
PUBLIC	?_Right@?$_Tree_val@U?$_Tree_simple_types@H@std@@@std@@SAAAPAU?$_Tree_node@HPAX@2@PAU32@@Z ; std::_Tree_val<std::_Tree_simple_types<int> >::_Right
PUBLIC	?_Parent@?$_Tree_val@U?$_Tree_simple_types@H@std@@@std@@SAAAPAU?$_Tree_node@HPAX@2@PAU32@@Z ; std::_Tree_val<std::_Tree_simple_types<int> >::_Parent
PUBLIC	?_Left@?$_Tree_val@U?$_Tree_simple_types@H@std@@@std@@SAAAPAU?$_Tree_node@HPAX@2@PAU32@@Z ; std::_Tree_val<std::_Tree_simple_types<int> >::_Left
PUBLIC	?_Isnil@?$_Tree_val@U?$_Tree_simple_types@H@std@@@std@@SAAADPAU?$_Tree_node@HPAX@2@@Z ; std::_Tree_val<std::_Tree_simple_types<int> >::_Isnil
PUBLIC	?deallocate@?$_Wrap_alloc@V?$allocator@U?$_Tree_node@HPAX@std@@@std@@@std@@QAEXPAU?$_Tree_node@HPAX@2@I@Z ; std::_Wrap_alloc<std::allocator<std::_Tree_node<int,void *> > >::deallocate
PUBLIC	?_Getal@?$_Tree_alloc@$0A@U?$_Tree_base_types@HV?$allocator@H@std@@@std@@@std@@QBE?AU?$_Wrap_alloc@V?$allocator@U?$_Tree_node@HPAX@std@@@std@@@2@XZ ; std::_Tree_alloc<0,std::_Tree_base_types<int,std::allocator<int> > >::_Getal
PUBLIC	?_Freeheadnode@?$_Tree_alloc@$0A@U?$_Tree_base_types@HV?$allocator@H@std@@@std@@@std@@QAEXPAU?$_Tree_node@HPAX@2@@Z ; std::_Tree_alloc<0,std::_Tree_base_types<int,std::allocator<int> > >::_Freeheadnode
PUBLIC	?_Change_alloc@?$_Tree_alloc@$0A@U?$_Tree_base_types@HV?$allocator@H@std@@@std@@@std@@QAEXABU?$_Wrap_alloc@V?$allocator@U?$_Tree_node@HPAX@std@@@std@@@2@@Z ; std::_Tree_alloc<0,std::_Tree_base_types<int,std::allocator<int> > >::_Change_alloc
PUBLIC	?_Setcomp@?$_Tree_comp@$0A@V?$_Tset_traits@HU?$less@H@std@@V?$allocator@H@2@$0A@@std@@@std@@QAEXABU?$less@H@2@@Z ; std::_Tree_comp<0,std::_Tset_traits<int,std::less<int>,std::allocator<int>,0> >::_Setcomp
PUBLIC	??0?$_Tree_comp@$0A@V?$_Tset_traits@HU?$less@H@std@@V?$allocator@H@2@$0A@@std@@@std@@QAE@ABU?$less@H@1@ABV?$allocator@H@1@@Z ; std::_Tree_comp<0,std::_Tset_traits<int,std::less<int>,std::allocator<int>,0> >::_Tree_comp<0,std::_Tset_traits<int,std::less<int>,std::allocator<int>,0> >
PUBLIC	?_Kfn@?$_Tree@V?$_Tset_traits@HU?$less@H@std@@V?$allocator@H@2@$0A@@std@@@std@@IBEABHABH@Z ; std::_Tree<std::_Tset_traits<int,std::less<int>,std::allocator<int>,0> >::_Kfn
PUBLIC	?_Lbound@?$_Tree@V?$_Tset_traits@HU?$less@H@std@@V?$allocator@H@2@$0A@@std@@@std@@IAEPAU?$_Tree_node@HPAX@2@ABH@Z ; std::_Tree<std::_Tset_traits<int,std::less<int>,std::allocator<int>,0> >::_Lbound
PUBLIC	?erase@?$_Tree@V?$_Tset_traits@HU?$less@H@std@@V?$allocator@H@2@$0A@@std@@@std@@QAE?AV?$_Tree_const_iterator@V?$_Tree_val@U?$_Tree_simple_types@H@std@@@std@@@2@V32@0@Z ; std::_Tree<std::_Tset_traits<int,std::less<int>,std::allocator<int>,0> >::erase
PUBLIC	?pointer_to@?$pointer_traits@PAU?$pair@$$CBKUSReserveTargetEffect@CPythonBackground@@@std@@@std@@SAPAU?$pair@$$CBKUSReserveTargetEffect@CPythonBackground@@@2@AAU32@@Z ; std::pointer_traits<std::pair<unsigned long const ,CPythonBackground::SReserveTargetEffect> *>::pointer_to
PUBLIC	?_Compat@?$_Vector_const_iterator@V?$_Vector_val@U?$_Simple_types@UTMapInfo@CMapManager@@@std@@@std@@@std@@QBEXABV12@@Z ; std::_Vector_const_iterator<std::_Vector_val<std::_Simple_types<CMapManager::TMapInfo> > >::_Compat
PUBLIC	??D?$_Vector_const_iterator@V?$_Vector_val@U?$_Simple_types@UTMapInfo@CMapManager@@@std@@@std@@@std@@QBEABUTMapInfo@CMapManager@@XZ ; std::_Vector_const_iterator<std::_Vector_val<std::_Simple_types<CMapManager::TMapInfo> > >::operator*
PUBLIC	??0?$_Vector_iterator@V?$_Vector_val@U?$_Simple_types@UTMapInfo@CMapManager@@@std@@@std@@@std@@QAE@PAUTMapInfo@CMapManager@@PBU_Container_base0@1@@Z ; std::_Vector_iterator<std::_Vector_val<std::_Simple_types<CMapManager::TMapInfo> > >::_Vector_iterator<std::_Vector_val<std::_Simple_types<CMapManager::TMapInfo> > >
PUBLIC	?_Mynode@?$_Tree_unchecked_const_iterator@V?$_Tree_val@U?$_Tree_simple_types@V?$basic_string@DU?$char_traits@D@std@@V?$allocator@D@2@@std@@@std@@@std@@U_Iterator_base0@2@@std@@QBEPAU?$_Tree_node@V?$basic_string@DU?$char_traits@D@std@@V?$allocator@D@2@@std@@PAX@2@XZ ; std::_Tree_unchecked_const_iterator<std::_Tree_val<std::_Tree_simple_types<std::basic_string<char,std::char_traits<char>,std::allocator<char> > > >,std::_Iterator_base0>::_Mynode
PUBLIC	??8?$_Tree_const_iterator@V?$_Tree_val@U?$_Tree_simple_types@V?$basic_string@DU?$char_traits@D@std@@V?$allocator@D@2@@std@@@std@@@std@@@std@@QBE_NABV01@@Z ; std::_Tree_const_iterator<std::_Tree_val<std::_Tree_simple_types<std::basic_string<char,std::char_traits<char>,std::allocator<char> > > > >::operator==
PUBLIC	??0?$_Tree_const_iterator@V?$_Tree_val@U?$_Tree_simple_types@V?$basic_string@DU?$char_traits@D@std@@V?$allocator@D@2@@std@@@std@@@std@@@std@@QAE@PAU?$_Tree_node@V?$basic_string@DU?$char_traits@D@std@@V?$allocator@D@2@@std@@PAX@1@PBV?$_Tree_val@U?$_Tree_simple_types@V?$basic_string@DU?$char_traits@D@std@@V?$allocator@D@2@@std@@@std@@@1@@Z ; std::_Tree_const_iterator<std::_Tree_val<std::_Tree_simple_types<std::basic_string<char,std::char_traits<char>,std::allocator<char> > > > >::_Tree_const_iterator<std::_Tree_val<std::_Tree_simple_types<std::basic_string<char,std::char_traits<char>,std::allocator<char> > > > >
PUBLIC	?_Mynode@?$_Tree_unchecked_const_iterator@V?$_Tree_val@U?$_Tree_simple_types@U?$pair@$$CBKUSReserveTargetEffect@CPythonBackground@@@std@@@std@@@std@@U_Iterator_base0@2@@std@@QBEPAU?$_Tree_node@U?$pair@$$CBKUSReserveTargetEffect@CPythonBackground@@@std@@PAX@2@XZ ; std::_Tree_unchecked_const_iterator<std::_Tree_val<std::_Tree_simple_types<std::pair<unsigned long const ,CPythonBackground::SReserveTargetEffect> > >,std::_Iterator_base0>::_Mynode
PUBLIC	??8?$_Tree_const_iterator@V?$_Tree_val@U?$_Tree_simple_types@U?$pair@$$CBKUSReserveTargetEffect@CPythonBackground@@@std@@@std@@@std@@@std@@QBE_NABV01@@Z ; std::_Tree_const_iterator<std::_Tree_val<std::_Tree_simple_types<std::pair<unsigned long const ,CPythonBackground::SReserveTargetEffect> > > >::operator==
PUBLIC	??E?$_Tree_const_iterator@V?$_Tree_val@U?$_Tree_simple_types@U?$pair@$$CBKUSReserveTargetEffect@CPythonBackground@@@std@@@std@@@std@@@std@@QAEAAV01@XZ ; std::_Tree_const_iterator<std::_Tree_val<std::_Tree_simple_types<std::pair<unsigned long const ,CPythonBackground::SReserveTargetEffect> > > >::operator++
PUBLIC	??D?$_Tree_iterator@V?$_Tree_val@U?$_Tree_simple_types@U?$pair@$$CBKUSReserveTargetEffect@CPythonBackground@@@std@@@std@@@std@@@std@@QBEAAU?$pair@$$CBKUSReserveTargetEffect@CPythonBackground@@@1@XZ ; std::_Tree_iterator<std::_Tree_val<std::_Tree_simple_types<std::pair<unsigned long const ,CPythonBackground::SReserveTargetEffect> > > >::operator*
PUBLIC	??0?$_Tree_iterator@V?$_Tree_val@U?$_Tree_simple_types@U?$pair@$$CBKUSReserveTargetEffect@CPythonBackground@@@std@@@std@@@std@@@std@@QAE@PAU?$_Tree_node@U?$pair@$$CBKUSReserveTargetEffect@CPythonBackground@@@std@@PAX@1@PBV?$_Tree_val@U?$_Tree_simple_types@U?$pair@$$CBKUSReserveTargetEffect@CPythonBackground@@@std@@@std@@@1@@Z ; std::_Tree_iterator<std::_Tree_val<std::_Tree_simple_types<std::pair<unsigned long const ,CPythonBackground::SReserveTargetEffect> > > >::_Tree_iterator<std::_Tree_val<std::_Tree_simple_types<std::pair<unsigned long const ,CPythonBackground::SReserveTargetEffect> > > >
PUBLIC	?_Mynode@?$_Tree_unchecked_const_iterator@V?$_Tree_val@U?$_Tree_simple_types@H@std@@@std@@U_Iterator_base0@2@@std@@QBEPAU?$_Tree_node@HPAX@2@XZ ; std::_Tree_unchecked_const_iterator<std::_Tree_val<std::_Tree_simple_types<int> >,std::_Iterator_base0>::_Mynode
PUBLIC	??E?$_Tree_unchecked_const_iterator@V?$_Tree_val@U?$_Tree_simple_types@H@std@@@std@@U_Iterator_base0@2@@std@@QAEAAV01@XZ ; std::_Tree_unchecked_const_iterator<std::_Tree_val<std::_Tree_simple_types<int> >,std::_Iterator_base0>::operator++
PUBLIC	??0?$_Tree_unchecked_const_iterator@V?$_Tree_val@U?$_Tree_simple_types@H@std@@@std@@U_Iterator_base0@2@@std@@QAE@XZ ; std::_Tree_unchecked_const_iterator<std::_Tree_val<std::_Tree_simple_types<int> >,std::_Iterator_base0>::_Tree_unchecked_const_iterator<std::_Tree_val<std::_Tree_simple_types<int> >,std::_Iterator_base0>
PUBLIC	??0?$_Tree_const_iterator@V?$_Tree_val@U?$_Tree_simple_types@H@std@@@std@@@std@@QAE@PAU?$_Tree_node@HPAX@1@PBV?$_Tree_val@U?$_Tree_simple_types@H@std@@@1@@Z ; std::_Tree_const_iterator<std::_Tree_val<std::_Tree_simple_types<int> > >::_Tree_const_iterator<std::_Tree_val<std::_Tree_simple_types<int> > >
PUBLIC	?_Min@?$_Tree_val@U?$_Tree_simple_types@U?$pair@$$CBKUSReserveTargetEffect@CPythonBackground@@@std@@@std@@@std@@SAPAU?$_Tree_node@U?$pair@$$CBKUSReserveTargetEffect@CPythonBackground@@@std@@PAX@2@PAU32@@Z ; std::_Tree_val<std::_Tree_simple_types<std::pair<unsigned long const ,CPythonBackground::SReserveTargetEffect> > >::_Min
PUBLIC	?_Max@?$_Tree_val@U?$_Tree_simple_types@U?$pair@$$CBKUSReserveTargetEffect@CPythonBackground@@@std@@@std@@@std@@SAPAU?$_Tree_node@U?$pair@$$CBKUSReserveTargetEffect@CPythonBackground@@@std@@PAX@2@PAU32@@Z ; std::_Tree_val<std::_Tree_simple_types<std::pair<unsigned long const ,CPythonBackground::SReserveTargetEffect> > >::_Max
PUBLIC	?_Myval@?$_Tree_val@U?$_Tree_simple_types@U?$pair@$$CBKUSReserveTargetEffect@CPythonBackground@@@std@@@std@@@std@@SAAAU?$pair@$$CBKUSReserveTargetEffect@CPythonBackground@@@2@PAU?$_Tree_node@U?$pair@$$CBKUSReserveTargetEffect@CPythonBackground@@@std@@PAX@2@@Z ; std::_Tree_val<std::_Tree_simple_types<std::pair<unsigned long const ,CPythonBackground::SReserveTargetEffect> > >::_Myval
PUBLIC	?_Right@?$_Tree_val@U?$_Tree_simple_types@U?$pair@$$CBKUSReserveTargetEffect@CPythonBackground@@@std@@@std@@@std@@SAAAPAU?$_Tree_node@U?$pair@$$CBKUSReserveTargetEffect@CPythonBackground@@@std@@PAX@2@PAU32@@Z ; std::_Tree_val<std::_Tree_simple_types<std::pair<unsigned long const ,CPythonBackground::SReserveTargetEffect> > >::_Right
PUBLIC	?_Parent@?$_Tree_val@U?$_Tree_simple_types@U?$pair@$$CBKUSReserveTargetEffect@CPythonBackground@@@std@@@std@@@std@@SAAAPAU?$_Tree_node@U?$pair@$$CBKUSReserveTargetEffect@CPythonBackground@@@std@@PAX@2@PAU32@@Z ; std::_Tree_val<std::_Tree_simple_types<std::pair<unsigned long const ,CPythonBackground::SReserveTargetEffect> > >::_Parent
PUBLIC	?_Left@?$_Tree_val@U?$_Tree_simple_types@U?$pair@$$CBKUSReserveTargetEffect@CPythonBackground@@@std@@@std@@@std@@SAAAPAU?$_Tree_node@U?$pair@$$CBKUSReserveTargetEffect@CPythonBackground@@@std@@PAX@2@PAU32@@Z ; std::_Tree_val<std::_Tree_simple_types<std::pair<unsigned long const ,CPythonBackground::SReserveTargetEffect> > >::_Left
PUBLIC	?_Isnil@?$_Tree_val@U?$_Tree_simple_types@U?$pair@$$CBKUSReserveTargetEffect@CPythonBackground@@@std@@@std@@@std@@SAAADPAU?$_Tree_node@U?$pair@$$CBKUSReserveTargetEffect@CPythonBackground@@@std@@PAX@2@@Z ; std::_Tree_val<std::_Tree_simple_types<std::pair<unsigned long const ,CPythonBackground::SReserveTargetEffect> > >::_Isnil
PUBLIC	?_Color@?$_Tree_val@U?$_Tree_simple_types@U?$pair@$$CBKUSReserveTargetEffect@CPythonBackground@@@std@@@std@@@std@@SAAADPAU?$_Tree_node@U?$pair@$$CBKUSReserveTargetEffect@CPythonBackground@@@std@@PAX@2@@Z ; std::_Tree_val<std::_Tree_simple_types<std::pair<unsigned long const ,CPythonBackground::SReserveTargetEffect> > >::_Color
PUBLIC	?deallocate@?$_Wrap_alloc@V?$allocator@U?$_Tree_node@U?$pair@$$CBKUSReserveTargetEffect@CPythonBackground@@@std@@PAX@std@@@std@@@std@@QAEXPAU?$_Tree_node@U?$pair@$$CBKUSReserveTargetEffect@CPythonBackground@@@std@@PAX@2@I@Z ; std::_Wrap_alloc<std::allocator<std::_Tree_node<std::pair<unsigned long const ,CPythonBackground::SReserveTargetEffect>,void *> > >::deallocate
PUBLIC	?_Getal@?$_Tree_alloc@$0A@U?$_Tree_base_types@U?$pair@$$CBKUSReserveTargetEffect@CPythonBackground@@@std@@V?$allocator@U?$pair@$$CBKUSReserveTargetEffect@CPythonBackground@@@std@@@2@@std@@@std@@QBE?AU?$_Wrap_alloc@V?$allocator@U?$_Tree_node@U?$pair@$$CBKUSReserveTargetEffect@CPythonBackground@@@std@@PAX@std@@@std@@@2@XZ ; std::_Tree_alloc<0,std::_Tree_base_types<std::pair<unsigned long const ,CPythonBackground::SReserveTargetEffect>,std::allocator<std::pair<unsigned long const ,CPythonBackground::SReserveTargetEffect> > > >::_Getal
PUBLIC	??1?$_Tree_alloc@$0A@U?$_Tree_base_types@U?$pair@$$CBKUSReserveTargetEffect@CPythonBackground@@@std@@V?$allocator@U?$pair@$$CBKUSReserveTargetEffect@CPythonBackground@@@std@@@2@@std@@@std@@QAE@XZ ; std::_Tree_alloc<0,std::_Tree_base_types<std::pair<unsigned long const ,CPythonBackground::SReserveTargetEffect>,std::allocator<std::pair<unsigned long const ,CPythonBackground::SReserveTargetEffect> > > >::~_Tree_alloc<0,std::_Tree_base_types<std::pair<unsigned long const ,CPythonBackground::SReserveTargetEffect>,std::allocator<std::pair<unsigned long const ,CPythonBackground::SReserveTargetEffect> > > >
PUBLIC	??0?$allocator@U?$pair@$$CBKUSReserveTargetEffect@CPythonBackground@@@std@@@std@@QAE@XZ ; std::allocator<std::pair<unsigned long const ,CPythonBackground::SReserveTargetEffect> >::allocator<std::pair<unsigned long const ,CPythonBackground::SReserveTargetEffect> >
PUBLIC	?_Getcomp@?$_Tree_comp@$0A@V?$_Tmap_traits@KUSReserveTargetEffect@CPythonBackground@@U?$less@K@std@@V?$allocator@U?$pair@$$CBKUSReserveTargetEffect@CPythonBackground@@@std@@@4@$0A@@std@@@std@@QBE?AU?$less@K@2@XZ ; std::_Tree_comp<0,std::_Tmap_traits<unsigned long,CPythonBackground::SReserveTargetEffect,std::less<unsigned long>,std::allocator<std::pair<unsigned long const ,CPythonBackground::SReserveTargetEffect> >,0> >::_Getcomp
PUBLIC	?_Key@?$_Tree@V?$_Tmap_traits@KUSReserveTargetEffect@CPythonBackground@@U?$less@K@std@@V?$allocator@U?$pair@$$CBKUSReserveTargetEffect@CPythonBackground@@@std@@@4@$0A@@std@@@std@@IBEABKPAU?$_Tree_node@U?$pair@$$CBKUSReserveTargetEffect@CPythonBackground@@@std@@PAX@2@@Z ; std::_Tree<std::_Tmap_traits<unsigned long,CPythonBackground::SReserveTargetEffect,std::less<unsigned long>,std::allocator<std::pair<unsigned long const ,CPythonBackground::SReserveTargetEffect> >,0> >::_Key
PUBLIC	?_Tidy@?$_Tree@V?$_Tmap_traits@KUSReserveTargetEffect@CPythonBackground@@U?$less@K@std@@V?$allocator@U?$pair@$$CBKUSReserveTargetEffect@CPythonBackground@@@std@@@4@$0A@@std@@@std@@IAEXXZ ; std::_Tree<std::_Tmap_traits<unsigned long,CPythonBackground::SReserveTargetEffect,std::less<unsigned long>,std::allocator<std::pair<unsigned long const ,CPythonBackground::SReserveTargetEffect> >,0> >::_Tidy
PUBLIC	?_Rrotate@?$_Tree@V?$_Tmap_traits@KUSReserveTargetEffect@CPythonBackground@@U?$less@K@std@@V?$allocator@U?$pair@$$CBKUSReserveTargetEffect@CPythonBackground@@@std@@@4@$0A@@std@@@std@@IAEXPAU?$_Tree_node@U?$pair@$$CBKUSReserveTargetEffect@CPythonBackground@@@std@@PAX@2@@Z ; std::_Tree<std::_Tmap_traits<unsigned long,CPythonBackground::SReserveTargetEffect,std::less<unsigned long>,std::allocator<std::pair<unsigned long const ,CPythonBackground::SReserveTargetEffect> >,0> >::_Rrotate
PUBLIC	?_Root@?$_Tree@V?$_Tmap_traits@KUSReserveTargetEffect@CPythonBackground@@U?$less@K@std@@V?$allocator@U?$pair@$$CBKUSReserveTargetEffect@CPythonBackground@@@std@@@4@$0A@@std@@@std@@IBEAAPAU?$_Tree_node@U?$pair@$$CBKUSReserveTargetEffect@CPythonBackground@@@std@@PAX@2@XZ ; std::_Tree<std::_Tmap_traits<unsigned long,CPythonBackground::SReserveTargetEffect,std::less<unsigned long>,std::allocator<std::pair<unsigned long const ,CPythonBackground::SReserveTargetEffect> >,0> >::_Root
PUBLIC	?_Rmost@?$_Tree@V?$_Tmap_traits@KUSReserveTargetEffect@CPythonBackground@@U?$less@K@std@@V?$allocator@U?$pair@$$CBKUSReserveTargetEffect@CPythonBackground@@@std@@@4@$0A@@std@@@std@@IBEAAPAU?$_Tree_node@U?$pair@$$CBKUSReserveTargetEffect@CPythonBackground@@@std@@PAX@2@XZ ; std::_Tree<std::_Tmap_traits<unsigned long,CPythonBackground::SReserveTargetEffect,std::less<unsigned long>,std::allocator<std::pair<unsigned long const ,CPythonBackground::SReserveTargetEffect> >,0> >::_Rmost
PUBLIC	?_Lrotate@?$_Tree@V?$_Tmap_traits@KUSReserveTargetEffect@CPythonBackground@@U?$less@K@std@@V?$allocator@U?$pair@$$CBKUSReserveTargetEffect@CPythonBackground@@@std@@@4@$0A@@std@@@std@@IAEXPAU?$_Tree_node@U?$pair@$$CBKUSReserveTargetEffect@CPythonBackground@@@std@@PAX@2@@Z ; std::_Tree<std::_Tmap_traits<unsigned long,CPythonBackground::SReserveTargetEffect,std::less<unsigned long>,std::allocator<std::pair<unsigned long const ,CPythonBackground::SReserveTargetEffect> >,0> >::_Lrotate
PUBLIC	?_Lmost@?$_Tree@V?$_Tmap_traits@KUSReserveTargetEffect@CPythonBackground@@U?$less@K@std@@V?$allocator@U?$pair@$$CBKUSReserveTargetEffect@CPythonBackground@@@std@@@4@$0A@@std@@@std@@IBEAAPAU?$_Tree_node@U?$pair@$$CBKUSReserveTargetEffect@CPythonBackground@@@std@@PAX@2@XZ ; std::_Tree<std::_Tmap_traits<unsigned long,CPythonBackground::SReserveTargetEffect,std::less<unsigned long>,std::allocator<std::pair<unsigned long const ,CPythonBackground::SReserveTargetEffect> >,0> >::_Lmost
PUBLIC	?_Erase@?$_Tree@V?$_Tmap_traits@KUSReserveTargetEffect@CPythonBackground@@U?$less@K@std@@V?$allocator@U?$pair@$$CBKUSReserveTargetEffect@CPythonBackground@@@std@@@4@$0A@@std@@@std@@IAEXPAU?$_Tree_node@U?$pair@$$CBKUSReserveTargetEffect@CPythonBackground@@@std@@PAX@2@@Z ; std::_Tree<std::_Tmap_traits<unsigned long,CPythonBackground::SReserveTargetEffect,std::less<unsigned long>,std::allocator<std::pair<unsigned long const ,CPythonBackground::SReserveTargetEffect> >,0> >::_Erase
PUBLIC	?equal_range@?$_Tree@V?$_Tmap_traits@KUSReserveTargetEffect@CPythonBackground@@U?$less@K@std@@V?$allocator@U?$pair@$$CBKUSReserveTargetEffect@CPythonBackground@@@std@@@4@$0A@@std@@@std@@QAE?AU?$pair@V?$_Tree_iterator@V?$_Tree_val@U?$_Tree_simple_types@U?$pair@$$CBKUSReserveTargetEffect@CPythonBackground@@@std@@@std@@@std@@@std@@V12@@2@ABK@Z ; std::_Tree<std::_Tmap_traits<unsigned long,CPythonBackground::SReserveTargetEffect,std::less<unsigned long>,std::allocator<std::pair<unsigned long const ,CPythonBackground::SReserveTargetEffect> >,0> >::equal_range
PUBLIC	?lower_bound@?$_Tree@V?$_Tmap_traits@KUSReserveTargetEffect@CPythonBackground@@U?$less@K@std@@V?$allocator@U?$pair@$$CBKUSReserveTargetEffect@CPythonBackground@@@std@@@4@$0A@@std@@@std@@QAE?AV?$_Tree_iterator@V?$_Tree_val@U?$_Tree_simple_types@U?$pair@$$CBKUSReserveTargetEffect@CPythonBackground@@@std@@@std@@@std@@@2@ABK@Z ; std::_Tree<std::_Tmap_traits<unsigned long,CPythonBackground::SReserveTargetEffect,std::less<unsigned long>,std::allocator<std::pair<unsigned long const ,CPythonBackground::SReserveTargetEffect> >,0> >::lower_bound
PUBLIC	?erase@?$_Tree@V?$_Tmap_traits@KUSReserveTargetEffect@CPythonBackground@@U?$less@K@std@@V?$allocator@U?$pair@$$CBKUSReserveTargetEffect@CPythonBackground@@@std@@@4@$0A@@std@@@std@@QAE?AV?$_Tree_iterator@V?$_Tree_val@U?$_Tree_simple_types@U?$pair@$$CBKUSReserveTargetEffect@CPythonBackground@@@std@@@std@@@std@@@2@V?$_Tree_const_iterator@V?$_Tree_val@U?$_Tree_simple_types@U?$pair@$$CBKUSReserveTargetEffect@CPythonBackground@@@std@@@std@@@std@@@2@0@Z ; std::_Tree<std::_Tmap_traits<unsigned long,CPythonBackground::SReserveTargetEffect,std::less<unsigned long>,std::allocator<std::pair<unsigned long const ,CPythonBackground::SReserveTargetEffect> >,0> >::erase
PUBLIC	??0?$_Tree@V?$_Tmap_traits@KUSReserveTargetEffect@CPythonBackground@@U?$less@K@std@@V?$allocator@U?$pair@$$CBKUSReserveTargetEffect@CPythonBackground@@@std@@@4@$0A@@std@@@std@@QAE@ABU?$less@K@1@ABV?$allocator@U?$pair@$$CBKUSReserveTargetEffect@CPythonBackground@@@std@@@1@@Z ; std::_Tree<std::_Tmap_traits<unsigned long,CPythonBackground::SReserveTargetEffect,std::less<unsigned long>,std::allocator<std::pair<unsigned long const ,CPythonBackground::SReserveTargetEffect> >,0> >::_Tree<std::_Tmap_traits<unsigned long,CPythonBackground::SReserveTargetEffect,std::less<unsigned long>,std::allocator<std::pair<unsigned long const ,CPythonBackground::SReserveTargetEffect> >,0> >
PUBLIC	?equal_range@?$_Tree@V?$_Tmap_traits@KKU?$less@K@std@@V?$allocator@U?$pair@$$CBKK@std@@@2@$0A@@std@@@std@@QAE?AU?$pair@V?$_Tree_iterator@V?$_Tree_val@U?$_Tree_simple_types@U?$pair@$$CBKK@std@@@std@@@std@@@std@@V12@@2@ABK@Z ; std::_Tree<std::_Tmap_traits<unsigned long,unsigned long,std::less<unsigned long>,std::allocator<std::pair<unsigned long const ,unsigned long> >,0> >::equal_range
PUBLIC	??1?$_Tree_alloc@$0A@U?$_Tree_base_types@V?$basic_string@DU?$char_traits@D@std@@V?$allocator@D@2@@std@@V?$allocator@V?$basic_string@DU?$char_traits@D@std@@V?$allocator@D@2@@std@@@2@@std@@@std@@QAE@XZ ; std::_Tree_alloc<0,std::_Tree_base_types<std::basic_string<char,std::char_traits<char>,std::allocator<char> >,std::allocator<std::basic_string<char,std::char_traits<char>,std::allocator<char> > > > >::~_Tree_alloc<0,std::_Tree_base_types<std::basic_string<char,std::char_traits<char>,std::allocator<char> >,std::allocator<std::basic_string<char,std::char_traits<char>,std::allocator<char> > > > >
PUBLIC	?_Getcomp@?$_Tree_comp@$0A@V?$_Tset_traits@V?$basic_string@DU?$char_traits@D@std@@V?$allocator@D@2@@std@@U?$less@V?$basic_string@DU?$char_traits@D@std@@V?$allocator@D@2@@std@@@2@V?$allocator@V?$basic_string@DU?$char_traits@D@std@@V?$allocator@D@2@@std@@@2@$0A@@std@@@std@@QBE?AU?$less@V?$basic_string@DU?$char_traits@D@std@@V?$allocator@D@2@@std@@@2@XZ ; std::_Tree_comp<0,std::_Tset_traits<std::basic_string<char,std::char_traits<char>,std::allocator<char> >,std::less<std::basic_string<char,std::char_traits<char>,std::allocator<char> > >,std::allocator<std::basic_string<char,std::char_traits<char>,std::allocator<char> > >,0> >::_Getcomp
PUBLIC	?_Key@?$_Tree@V?$_Tset_traits@V?$basic_string@DU?$char_traits@D@std@@V?$allocator@D@2@@std@@U?$less@V?$basic_string@DU?$char_traits@D@std@@V?$allocator@D@2@@std@@@2@V?$allocator@V?$basic_string@DU?$char_traits@D@std@@V?$allocator@D@2@@std@@@2@$0A@@std@@@std@@IBEABV?$basic_string@DU?$char_traits@D@std@@V?$allocator@D@2@@2@PAU?$_Tree_node@V?$basic_string@DU?$char_traits@D@std@@V?$allocator@D@2@@std@@PAX@2@@Z ; std::_Tree<std::_Tset_traits<std::basic_string<char,std::char_traits<char>,std::allocator<char> >,std::less<std::basic_string<char,std::char_traits<char>,std::allocator<char> > >,std::allocator<std::basic_string<char,std::char_traits<char>,std::allocator<char> > >,0> >::_Key
PUBLIC	?_Tidy@?$_Tree@V?$_Tset_traits@V?$basic_string@DU?$char_traits@D@std@@V?$allocator@D@2@@std@@U?$less@V?$basic_string@DU?$char_traits@D@std@@V?$allocator@D@2@@std@@@2@V?$allocator@V?$basic_string@DU?$char_traits@D@std@@V?$allocator@D@2@@std@@@2@$0A@@std@@@std@@IAEXXZ ; std::_Tree<std::_Tset_traits<std::basic_string<char,std::char_traits<char>,std::allocator<char> >,std::less<std::basic_string<char,std::char_traits<char>,std::allocator<char> > >,std::allocator<std::basic_string<char,std::char_traits<char>,std::allocator<char> > >,0> >::_Tidy
PUBLIC	?lower_bound@?$_Tree@V?$_Tset_traits@V?$basic_string@DU?$char_traits@D@std@@V?$allocator@D@2@@std@@U?$less@V?$basic_string@DU?$char_traits@D@std@@V?$allocator@D@2@@std@@@2@V?$allocator@V?$basic_string@DU?$char_traits@D@std@@V?$allocator@D@2@@std@@@2@$0A@@std@@@std@@QAE?AV?$_Tree_const_iterator@V?$_Tree_val@U?$_Tree_simple_types@V?$basic_string@DU?$char_traits@D@std@@V?$allocator@D@2@@std@@@std@@@std@@@2@ABV?$basic_string@DU?$char_traits@D@std@@V?$allocator@D@2@@2@@Z ; std::_Tree<std::_Tset_traits<std::basic_string<char,std::char_traits<char>,std::allocator<char> >,std::less<std::basic_string<char,std::char_traits<char>,std::allocator<char> > >,std::allocator<std::basic_string<char,std::char_traits<char>,std::allocator<char> > >,0> >::lower_bound
PUBLIC	?insert@?$_Tree@V?$_Tset_traits@V?$basic_string@DU?$char_traits@D@std@@V?$allocator@D@2@@std@@U?$less@V?$basic_string@DU?$char_traits@D@std@@V?$allocator@D@2@@std@@@2@V?$allocator@V?$basic_string@DU?$char_traits@D@std@@V?$allocator@D@2@@std@@@2@$0A@@std@@@std@@QAE?AU?$pair@V?$_Tree_const_iterator@V?$_Tree_val@U?$_Tree_simple_types@V?$basic_string@DU?$char_traits@D@std@@V?$allocator@D@2@@std@@@std@@@std@@@std@@_N@2@$$QAV?$basic_string@DU?$char_traits@D@std@@V?$allocator@D@2@@2@@Z ; std::_Tree<std::_Tset_traits<std::basic_string<char,std::char_traits<char>,std::allocator<char> >,std::less<std::basic_string<char,std::char_traits<char>,std::allocator<char> > >,std::allocator<std::basic_string<char,std::char_traits<char>,std::allocator<char> > >,0> >::insert
PUBLIC	??0?$_Tree@V?$_Tset_traits@V?$basic_string@DU?$char_traits@D@std@@V?$allocator@D@2@@std@@U?$less@V?$basic_string@DU?$char_traits@D@std@@V?$allocator@D@2@@std@@@2@V?$allocator@V?$basic_string@DU?$char_traits@D@std@@V?$allocator@D@2@@std@@@2@$0A@@std@@@std@@QAE@ABU?$less@V?$basic_string@DU?$char_traits@D@std@@V?$allocator@D@2@@std@@@1@ABV?$allocator@V?$basic_string@DU?$char_traits@D@std@@V?$allocator@D@2@@std@@@1@@Z ; std::_Tree<std::_Tset_traits<std::basic_string<char,std::char_traits<char>,std::allocator<char> >,std::less<std::basic_string<char,std::char_traits<char>,std::allocator<char> > >,std::allocator<std::basic_string<char,std::char_traits<char>,std::allocator<char> > >,0> >::_Tree<std::_Tset_traits<std::basic_string<char,std::char_traits<char>,std::allocator<char> >,std::less<std::basic_string<char,std::char_traits<char>,std::allocator<char> > >,std::allocator<std::basic_string<char,std::char_traits<char>,std::allocator<char> > >,0> >
PUBLIC	?_Myval@?$_Tree_val@U?$_Tree_simple_types@H@std@@@std@@SAAAHPAU?$_Tree_node@HPAX@2@@Z ; std::_Tree_val<std::_Tree_simple_types<int> >::_Myval
PUBLIC	??1?$_Tree_alloc@$0A@U?$_Tree_base_types@HV?$allocator@H@std@@@std@@@std@@QAE@XZ ; std::_Tree_alloc<0,std::_Tree_base_types<int,std::allocator<int> > >::~_Tree_alloc<0,std::_Tree_base_types<int,std::allocator<int> > >
PUBLIC	??0?$allocator@H@std@@QAE@XZ			; std::allocator<int>::allocator<int>
PUBLIC	?_Getcomp@?$_Tree_comp@$0A@V?$_Tset_traits@HU?$less@H@std@@V?$allocator@H@2@$0A@@std@@@std@@QBE?AU?$less@H@2@XZ ; std::_Tree_comp<0,std::_Tset_traits<int,std::less<int>,std::allocator<int>,0> >::_Getcomp
PUBLIC	?_Key@?$_Tree@V?$_Tset_traits@HU?$less@H@std@@V?$allocator@H@2@$0A@@std@@@std@@IBEABHPAU?$_Tree_node@HPAX@2@@Z ; std::_Tree<std::_Tset_traits<int,std::less<int>,std::allocator<int>,0> >::_Key
PUBLIC	?_Tidy@?$_Tree@V?$_Tset_traits@HU?$less@H@std@@V?$allocator@H@2@$0A@@std@@@std@@IAEXXZ ; std::_Tree<std::_Tset_traits<int,std::less<int>,std::allocator<int>,0> >::_Tidy
PUBLIC	?_Root@?$_Tree@V?$_Tset_traits@HU?$less@H@std@@V?$allocator@H@2@$0A@@std@@@std@@IBEAAPAU?$_Tree_node@HPAX@2@XZ ; std::_Tree<std::_Tset_traits<int,std::less<int>,std::allocator<int>,0> >::_Root
PUBLIC	?_Rmost@?$_Tree@V?$_Tset_traits@HU?$less@H@std@@V?$allocator@H@2@$0A@@std@@@std@@IBEAAPAU?$_Tree_node@HPAX@2@XZ ; std::_Tree<std::_Tset_traits<int,std::less<int>,std::allocator<int>,0> >::_Rmost
PUBLIC	?_Lmost@?$_Tree@V?$_Tset_traits@HU?$less@H@std@@V?$allocator@H@2@$0A@@std@@@std@@IBEAAPAU?$_Tree_node@HPAX@2@XZ ; std::_Tree<std::_Tset_traits<int,std::less<int>,std::allocator<int>,0> >::_Lmost
PUBLIC	?_Erase@?$_Tree@V?$_Tset_traits@HU?$less@H@std@@V?$allocator@H@2@$0A@@std@@@std@@IAEXPAU?$_Tree_node@HPAX@2@@Z ; std::_Tree<std::_Tset_traits<int,std::less<int>,std::allocator<int>,0> >::_Erase
PUBLIC	?lower_bound@?$_Tree@V?$_Tset_traits@HU?$less@H@std@@V?$allocator@H@2@$0A@@std@@@std@@QAE?AV?$_Tree_const_iterator@V?$_Tree_val@U?$_Tree_simple_types@H@std@@@std@@@2@ABH@Z ; std::_Tree<std::_Tset_traits<int,std::less<int>,std::allocator<int>,0> >::lower_bound
PUBLIC	?insert@?$_Tree@V?$_Tset_traits@HU?$less@H@std@@V?$allocator@H@2@$0A@@std@@@std@@QAE?AU?$pair@V?$_Tree_const_iterator@V?$_Tree_val@U?$_Tree_simple_types@H@std@@@std@@@std@@_N@2@ABH@Z ; std::_Tree<std::_Tset_traits<int,std::less<int>,std::allocator<int>,0> >::insert
PUBLIC	??4?$_Tree@V?$_Tset_traits@HU?$less@H@std@@V?$allocator@H@2@$0A@@std@@@std@@QAEAAV01@ABV01@@Z ; std::_Tree<std::_Tset_traits<int,std::less<int>,std::allocator<int>,0> >::operator=
PUBLIC	??0?$_Tree@V?$_Tset_traits@HU?$less@H@std@@V?$allocator@H@2@$0A@@std@@@std@@QAE@ABU?$less@H@1@ABV?$allocator@H@1@@Z ; std::_Tree<std::_Tset_traits<int,std::less<int>,std::allocator<int>,0> >::_Tree<std::_Tset_traits<int,std::less<int>,std::allocator<int>,0> >
PUBLIC	??R?$less@V?$basic_string@DU?$char_traits@D@std@@V?$allocator@D@2@@std@@@std@@QBE_NABV?$basic_string@DU?$char_traits@D@std@@V?$allocator@D@2@@1@0@Z ; std::less<std::basic_string<char,std::char_traits<char>,std::allocator<char> > >::operator()
PUBLIC	??1?$_Tree_buy@U?$pair@$$CBKUSReserveTargetEffect@CPythonBackground@@@std@@V?$allocator@U?$pair@$$CBKUSReserveTargetEffect@CPythonBackground@@@std@@@2@@std@@QAE@XZ ; std::_Tree_buy<std::pair<unsigned long const ,CPythonBackground::SReserveTargetEffect>,std::allocator<std::pair<unsigned long const ,CPythonBackground::SReserveTargetEffect> > >::~_Tree_buy<std::pair<unsigned long const ,CPythonBackground::SReserveTargetEffect>,std::allocator<std::pair<unsigned long const ,CPythonBackground::SReserveTargetEffect> > >
PUBLIC	??1?$_Tree_buy@V?$basic_string@DU?$char_traits@D@std@@V?$allocator@D@2@@std@@V?$allocator@V?$basic_string@DU?$char_traits@D@std@@V?$allocator@D@2@@std@@@2@@std@@QAE@XZ ; std::_Tree_buy<std::basic_string<char,std::char_traits<char>,std::allocator<char> >,std::allocator<std::basic_string<char,std::char_traits<char>,std::allocator<char> > > >::~_Tree_buy<std::basic_string<char,std::char_traits<char>,std::allocator<char> >,std::allocator<std::basic_string<char,std::char_traits<char>,std::allocator<char> > > >
PUBLIC	??1?$_Tree_buy@HV?$allocator@H@std@@@std@@QAE@XZ ; std::_Tree_buy<int,std::allocator<int> >::~_Tree_buy<int,std::allocator<int> >
PUBLIC	??1?$_Tree_comp@$0A@V?$_Tmap_traits@KUSReserveTargetEffect@CPythonBackground@@U?$less@K@std@@V?$allocator@U?$pair@$$CBKUSReserveTargetEffect@CPythonBackground@@@std@@@4@$0A@@std@@@std@@QAE@XZ ; std::_Tree_comp<0,std::_Tmap_traits<unsigned long,CPythonBackground::SReserveTargetEffect,std::less<unsigned long>,std::allocator<std::pair<unsigned long const ,CPythonBackground::SReserveTargetEffect> >,0> >::~_Tree_comp<0,std::_Tmap_traits<unsigned long,CPythonBackground::SReserveTargetEffect,std::less<unsigned long>,std::allocator<std::pair<unsigned long const ,CPythonBackground::SReserveTargetEffect> >,0> >
PUBLIC	??1?$_Tree_comp@$0A@V?$_Tset_traits@V?$basic_string@DU?$char_traits@D@std@@V?$allocator@D@2@@std@@U?$less@V?$basic_string@DU?$char_traits@D@std@@V?$allocator@D@2@@std@@@2@V?$allocator@V?$basic_string@DU?$char_traits@D@std@@V?$allocator@D@2@@std@@@2@$0A@@std@@@std@@QAE@XZ ; std::_Tree_comp<0,std::_Tset_traits<std::basic_string<char,std::char_traits<char>,std::allocator<char> >,std::less<std::basic_string<char,std::char_traits<char>,std::allocator<char> > >,std::allocator<std::basic_string<char,std::char_traits<char>,std::allocator<char> > >,0> >::~_Tree_comp<0,std::_Tset_traits<std::basic_string<char,std::char_traits<char>,std::allocator<char> >,std::less<std::basic_string<char,std::char_traits<char>,std::allocator<char> > >,std::allocator<std::basic_string<char,std::char_traits<char>,std::allocator<char> > >,0> >
PUBLIC	??_G?$CSingleton@VCPythonBackground@@@@UAEPAXI@Z ; CSingleton<CPythonBackground>::`scalar deleting destructor'
PUBLIC	??1?$_Tree_comp@$0A@V?$_Tset_traits@HU?$less@H@std@@V?$allocator@H@2@$0A@@std@@@std@@QAE@XZ ; std::_Tree_comp<0,std::_Tset_traits<int,std::less<int>,std::allocator<int>,0> >::~_Tree_comp<0,std::_Tset_traits<int,std::less<int>,std::allocator<int>,0> >
PUBLIC	??8?$_Vector_const_iterator@V?$_Vector_val@U?$_Simple_types@UTMapInfo@CMapManager@@@std@@@std@@@std@@QBE_NABV01@@Z ; std::_Vector_const_iterator<std::_Vector_val<std::_Simple_types<CMapManager::TMapInfo> > >::operator==
PUBLIC	??D?$_Vector_iterator@V?$_Vector_val@U?$_Simple_types@UTMapInfo@CMapManager@@@std@@@std@@@std@@QBEAAUTMapInfo@CMapManager@@XZ ; std::_Vector_iterator<std::_Vector_val<std::_Simple_types<CMapManager::TMapInfo> > >::operator*
PUBLIC	??9?$_Tree_const_iterator@V?$_Tree_val@U?$_Tree_simple_types@V?$basic_string@DU?$char_traits@D@std@@V?$allocator@D@2@@std@@@std@@@std@@@std@@QBE_NABV01@@Z ; std::_Tree_const_iterator<std::_Tree_val<std::_Tree_simple_types<std::basic_string<char,std::char_traits<char>,std::allocator<char> > > > >::operator!=
PUBLIC	??9?$_Tree_const_iterator@V?$_Tree_val@U?$_Tree_simple_types@U?$pair@$$CBKUSReserveTargetEffect@CPythonBackground@@@std@@@std@@@std@@@std@@QBE_NABV01@@Z ; std::_Tree_const_iterator<std::_Tree_val<std::_Tree_simple_types<std::pair<unsigned long const ,CPythonBackground::SReserveTargetEffect> > > >::operator!=
PUBLIC	??E?$_Tree_iterator@V?$_Tree_val@U?$_Tree_simple_types@U?$pair@$$CBKUSReserveTargetEffect@CPythonBackground@@@std@@@std@@@std@@@std@@QAEAAV01@XZ ; std::_Tree_iterator<std::_Tree_val<std::_Tree_simple_types<std::pair<unsigned long const ,CPythonBackground::SReserveTargetEffect> > > >::operator++
PUBLIC	??C?$_Tree_iterator@V?$_Tree_val@U?$_Tree_simple_types@U?$pair@$$CBKUSReserveTargetEffect@CPythonBackground@@@std@@@std@@@std@@@std@@QBEPAU?$pair@$$CBKUSReserveTargetEffect@CPythonBackground@@@1@XZ ; std::_Tree_iterator<std::_Tree_val<std::_Tree_simple_types<std::pair<unsigned long const ,CPythonBackground::SReserveTargetEffect> > > >::operator->
PUBLIC	??9?$_Tree_const_iterator@V?$_Tree_val@U?$_Tree_simple_types@H@std@@@std@@@std@@QBE_NABV01@@Z ; std::_Tree_const_iterator<std::_Tree_val<std::_Tree_simple_types<int> > >::operator!=
PUBLIC	??8?$_Tree_const_iterator@V?$_Tree_val@U?$_Tree_simple_types@H@std@@@std@@@std@@QBE_NABV01@@Z ; std::_Tree_const_iterator<std::_Tree_val<std::_Tree_simple_types<int> > >::operator==
PUBLIC	??E?$_Tree_const_iterator@V?$_Tree_val@U?$_Tree_simple_types@H@std@@@std@@@std@@QAEAAV01@XZ ; std::_Tree_const_iterator<std::_Tree_val<std::_Tree_simple_types<int> > >::operator++
PUBLIC	??D?$_Tree_const_iterator@V?$_Tree_val@U?$_Tree_simple_types@H@std@@@std@@@std@@QBEABHXZ ; std::_Tree_const_iterator<std::_Tree_val<std::_Tree_simple_types<int> > >::operator*
PUBLIC	??0?$_Tree_const_iterator@V?$_Tree_val@U?$_Tree_simple_types@H@std@@@std@@@std@@QAE@XZ ; std::_Tree_const_iterator<std::_Tree_val<std::_Tree_simple_types<int> > >::_Tree_const_iterator<std::_Tree_val<std::_Tree_simple_types<int> > >
PUBLIC	?Instance@?$CSingleton@VCPythonMiniMap@@@@SAAAVCPythonMiniMap@@XZ ; CSingleton<CPythonMiniMap>::Instance
PUBLIC	?find@?$_Tree@V?$_Tmap_traits@KUSReserveTargetEffect@CPythonBackground@@U?$less@K@std@@V?$allocator@U?$pair@$$CBKUSReserveTargetEffect@CPythonBackground@@@std@@@4@$0A@@std@@@std@@QAE?AV?$_Tree_iterator@V?$_Tree_val@U?$_Tree_simple_types@U?$pair@$$CBKUSReserveTargetEffect@CPythonBackground@@@std@@@std@@@std@@@2@ABK@Z ; std::_Tree<std::_Tmap_traits<unsigned long,CPythonBackground::SReserveTargetEffect,std::less<unsigned long>,std::allocator<std::pair<unsigned long const ,CPythonBackground::SReserveTargetEffect> >,0> >::find
PUBLIC	?clear@?$_Tree@V?$_Tmap_traits@KUSReserveTargetEffect@CPythonBackground@@U?$less@K@std@@V?$allocator@U?$pair@$$CBKUSReserveTargetEffect@CPythonBackground@@@std@@@4@$0A@@std@@@std@@QAEXXZ ; std::_Tree<std::_Tmap_traits<unsigned long,CPythonBackground::SReserveTargetEffect,std::less<unsigned long>,std::allocator<std::pair<unsigned long const ,CPythonBackground::SReserveTargetEffect> >,0> >::clear
PUBLIC	?erase@?$_Tree@V?$_Tmap_traits@KUSReserveTargetEffect@CPythonBackground@@U?$less@K@std@@V?$allocator@U?$pair@$$CBKUSReserveTargetEffect@CPythonBackground@@@std@@@4@$0A@@std@@@std@@QAEIABK@Z ; std::_Tree<std::_Tmap_traits<unsigned long,CPythonBackground::SReserveTargetEffect,std::less<unsigned long>,std::allocator<std::pair<unsigned long const ,CPythonBackground::SReserveTargetEffect> >,0> >::erase
PUBLIC	?erase@?$_Tree@V?$_Tmap_traits@KUSReserveTargetEffect@CPythonBackground@@U?$less@K@std@@V?$allocator@U?$pair@$$CBKUSReserveTargetEffect@CPythonBackground@@@std@@@4@$0A@@std@@@std@@QAE?AV?$_Tree_iterator@V?$_Tree_val@U?$_Tree_simple_types@U?$pair@$$CBKUSReserveTargetEffect@CPythonBackground@@@std@@@std@@@std@@@2@V?$_Tree_const_iterator@V?$_Tree_val@U?$_Tree_simple_types@U?$pair@$$CBKUSReserveTargetEffect@CPythonBackground@@@std@@@std@@@std@@@2@@Z ; std::_Tree<std::_Tmap_traits<unsigned long,CPythonBackground::SReserveTargetEffect,std::less<unsigned long>,std::allocator<std::pair<unsigned long const ,CPythonBackground::SReserveTargetEffect> >,0> >::erase
PUBLIC	?end@?$_Tree@V?$_Tmap_traits@KUSReserveTargetEffect@CPythonBackground@@U?$less@K@std@@V?$allocator@U?$pair@$$CBKUSReserveTargetEffect@CPythonBackground@@@std@@@4@$0A@@std@@@std@@QAE?AV?$_Tree_iterator@V?$_Tree_val@U?$_Tree_simple_types@U?$pair@$$CBKUSReserveTargetEffect@CPythonBackground@@@std@@@std@@@std@@@2@XZ ; std::_Tree<std::_Tmap_traits<unsigned long,CPythonBackground::SReserveTargetEffect,std::less<unsigned long>,std::allocator<std::pair<unsigned long const ,CPythonBackground::SReserveTargetEffect> >,0> >::end
PUBLIC	?begin@?$_Tree@V?$_Tmap_traits@KUSReserveTargetEffect@CPythonBackground@@U?$less@K@std@@V?$allocator@U?$pair@$$CBKUSReserveTargetEffect@CPythonBackground@@@std@@@4@$0A@@std@@@std@@QAE?AV?$_Tree_iterator@V?$_Tree_val@U?$_Tree_simple_types@U?$pair@$$CBKUSReserveTargetEffect@CPythonBackground@@@std@@@std@@@std@@@2@XZ ; std::_Tree<std::_Tmap_traits<unsigned long,CPythonBackground::SReserveTargetEffect,std::less<unsigned long>,std::allocator<std::pair<unsigned long const ,CPythonBackground::SReserveTargetEffect> >,0> >::begin
PUBLIC	??1?$_Tree@V?$_Tmap_traits@KUSReserveTargetEffect@CPythonBackground@@U?$less@K@std@@V?$allocator@U?$pair@$$CBKUSReserveTargetEffect@CPythonBackground@@@std@@@4@$0A@@std@@@std@@QAE@XZ ; std::_Tree<std::_Tmap_traits<unsigned long,CPythonBackground::SReserveTargetEffect,std::less<unsigned long>,std::allocator<std::pair<unsigned long const ,CPythonBackground::SReserveTargetEffect> >,0> >::~_Tree<std::_Tmap_traits<unsigned long,CPythonBackground::SReserveTargetEffect,std::less<unsigned long>,std::allocator<std::pair<unsigned long const ,CPythonBackground::SReserveTargetEffect> >,0> >
PUBLIC	??0?$map@KUSReserveTargetEffect@CPythonBackground@@U?$less@K@std@@V?$allocator@U?$pair@$$CBKUSReserveTargetEffect@CPythonBackground@@@std@@@4@@std@@QAE@XZ ; std::map<unsigned long,CPythonBackground::SReserveTargetEffect,std::less<unsigned long>,std::allocator<std::pair<unsigned long const ,CPythonBackground::SReserveTargetEffect> > >::map<unsigned long,CPythonBackground::SReserveTargetEffect,std::less<unsigned long>,std::allocator<std::pair<unsigned long const ,CPythonBackground::SReserveTargetEffect> > >
PUBLIC	?erase@?$_Tree@V?$_Tmap_traits@KKU?$less@K@std@@V?$allocator@U?$pair@$$CBKK@std@@@2@$0A@@std@@@std@@QAEIABK@Z ; std::_Tree<std::_Tmap_traits<unsigned long,unsigned long,std::less<unsigned long>,std::allocator<std::pair<unsigned long const ,unsigned long> >,0> >::erase
PUBLIC	?find@?$_Tree@V?$_Tset_traits@V?$basic_string@DU?$char_traits@D@std@@V?$allocator@D@2@@std@@U?$less@V?$basic_string@DU?$char_traits@D@std@@V?$allocator@D@2@@std@@@2@V?$allocator@V?$basic_string@DU?$char_traits@D@std@@V?$allocator@D@2@@std@@@2@$0A@@std@@@std@@QAE?AV?$_Tree_const_iterator@V?$_Tree_val@U?$_Tree_simple_types@V?$basic_string@DU?$char_traits@D@std@@V?$allocator@D@2@@std@@@std@@@std@@@2@ABV?$basic_string@DU?$char_traits@D@std@@V?$allocator@D@2@@2@@Z ; std::_Tree<std::_Tset_traits<std::basic_string<char,std::char_traits<char>,std::allocator<char> >,std::less<std::basic_string<char,std::char_traits<char>,std::allocator<char> > >,std::allocator<std::basic_string<char,std::char_traits<char>,std::allocator<char> > >,0> >::find
PUBLIC	?end@?$_Tree@V?$_Tset_traits@V?$basic_string@DU?$char_traits@D@std@@V?$allocator@D@2@@std@@U?$less@V?$basic_string@DU?$char_traits@D@std@@V?$allocator@D@2@@std@@@2@V?$allocator@V?$basic_string@DU?$char_traits@D@std@@V?$allocator@D@2@@std@@@2@$0A@@std@@@std@@QAE?AV?$_Tree_const_iterator@V?$_Tree_val@U?$_Tree_simple_types@V?$basic_string@DU?$char_traits@D@std@@V?$allocator@D@2@@std@@@std@@@std@@@2@XZ ; std::_Tree<std::_Tset_traits<std::basic_string<char,std::char_traits<char>,std::allocator<char> >,std::less<std::basic_string<char,std::char_traits<char>,std::allocator<char> > >,std::allocator<std::basic_string<char,std::char_traits<char>,std::allocator<char> > >,0> >::end
PUBLIC	??1?$_Tree@V?$_Tset_traits@V?$basic_string@DU?$char_traits@D@std@@V?$allocator@D@2@@std@@U?$less@V?$basic_string@DU?$char_traits@D@std@@V?$allocator@D@2@@std@@@2@V?$allocator@V?$basic_string@DU?$char_traits@D@std@@V?$allocator@D@2@@std@@@2@$0A@@std@@@std@@QAE@XZ ; std::_Tree<std::_Tset_traits<std::basic_string<char,std::char_traits<char>,std::allocator<char> >,std::less<std::basic_string<char,std::char_traits<char>,std::allocator<char> > >,std::allocator<std::basic_string<char,std::char_traits<char>,std::allocator<char> > >,0> >::~_Tree<std::_Tset_traits<std::basic_string<char,std::char_traits<char>,std::allocator<char> >,std::less<std::basic_string<char,std::char_traits<char>,std::allocator<char> > >,std::allocator<std::basic_string<char,std::char_traits<char>,std::allocator<char> > >,0> >
PUBLIC	?insert@?$set@V?$basic_string@DU?$char_traits@D@std@@V?$allocator@D@2@@std@@U?$less@V?$basic_string@DU?$char_traits@D@std@@V?$allocator@D@2@@std@@@2@V?$allocator@V?$basic_string@DU?$char_traits@D@std@@V?$allocator@D@2@@std@@@2@@std@@QAE?AU?$pair@V?$_Tree_const_iterator@V?$_Tree_val@U?$_Tree_simple_types@V?$basic_string@DU?$char_traits@D@std@@V?$allocator@D@2@@std@@@std@@@std@@@std@@_N@2@$$QAV?$basic_string@DU?$char_traits@D@std@@V?$allocator@D@2@@2@@Z ; std::set<std::basic_string<char,std::char_traits<char>,std::allocator<char> >,std::less<std::basic_string<char,std::char_traits<char>,std::allocator<char> > >,std::allocator<std::basic_string<char,std::char_traits<char>,std::allocator<char> > > >::insert
PUBLIC	??0?$set@V?$basic_string@DU?$char_traits@D@std@@V?$allocator@D@2@@std@@U?$less@V?$basic_string@DU?$char_traits@D@std@@V?$allocator@D@2@@std@@@2@V?$allocator@V?$basic_string@DU?$char_traits@D@std@@V?$allocator@D@2@@std@@@2@@std@@QAE@XZ ; std::set<std::basic_string<char,std::char_traits<char>,std::allocator<char> >,std::less<std::basic_string<char,std::char_traits<char>,std::allocator<char> > >,std::allocator<std::basic_string<char,std::char_traits<char>,std::allocator<char> > > >::set<std::basic_string<char,std::char_traits<char>,std::allocator<char> >,std::less<std::basic_string<char,std::char_traits<char>,std::allocator<char> > >,std::allocator<std::basic_string<char,std::char_traits<char>,std::allocator<char> > > >
PUBLIC	??1?$CSingleton@VCPythonBackground@@@@UAE@XZ	; CSingleton<CPythonBackground>::~CSingleton<CPythonBackground>
PUBLIC	??0?$CSingleton@VCPythonBackground@@@@QAE@XZ	; CSingleton<CPythonBackground>::CSingleton<CPythonBackground>
PUBLIC	?end@?$vector@UTMapInfo@CMapManager@@V?$allocator@UTMapInfo@CMapManager@@@std@@@std@@QAE?AV?$_Vector_iterator@V?$_Vector_val@U?$_Simple_types@UTMapInfo@CMapManager@@@std@@@std@@@2@XZ ; std::vector<CMapManager::TMapInfo,std::allocator<CMapManager::TMapInfo> >::end
PUBLIC	?begin@?$vector@UTMapInfo@CMapManager@@V?$allocator@UTMapInfo@CMapManager@@@std@@@std@@QAE?AV?$_Vector_iterator@V?$_Vector_val@U?$_Simple_types@UTMapInfo@CMapManager@@@std@@@std@@@2@XZ ; std::vector<CMapManager::TMapInfo,std::allocator<CMapManager::TMapInfo> >::begin
PUBLIC	?find@?$_Tree@V?$_Tset_traits@HU?$less@H@std@@V?$allocator@H@2@$0A@@std@@@std@@QAE?AV?$_Tree_const_iterator@V?$_Tree_val@U?$_Tree_simple_types@H@std@@@std@@@2@ABH@Z ; std::_Tree<std::_Tset_traits<int,std::less<int>,std::allocator<int>,0> >::find
PUBLIC	?clear@?$_Tree@V?$_Tset_traits@HU?$less@H@std@@V?$allocator@H@2@$0A@@std@@@std@@QAEXXZ ; std::_Tree<std::_Tset_traits<int,std::less<int>,std::allocator<int>,0> >::clear
PUBLIC	?end@?$_Tree@V?$_Tset_traits@HU?$less@H@std@@V?$allocator@H@2@$0A@@std@@@std@@QAE?AV?$_Tree_const_iterator@V?$_Tree_val@U?$_Tree_simple_types@H@std@@@std@@@2@XZ ; std::_Tree<std::_Tset_traits<int,std::less<int>,std::allocator<int>,0> >::end
PUBLIC	?begin@?$_Tree@V?$_Tset_traits@HU?$less@H@std@@V?$allocator@H@2@$0A@@std@@@std@@QAE?AV?$_Tree_const_iterator@V?$_Tree_val@U?$_Tree_simple_types@H@std@@@std@@@2@XZ ; std::_Tree<std::_Tset_traits<int,std::less<int>,std::allocator<int>,0> >::begin
PUBLIC	??1?$_Tree@V?$_Tset_traits@HU?$less@H@std@@V?$allocator@H@2@$0A@@std@@@std@@QAE@XZ ; std::_Tree<std::_Tset_traits<int,std::less<int>,std::allocator<int>,0> >::~_Tree<std::_Tset_traits<int,std::less<int>,std::allocator<int>,0> >
PUBLIC	?insert@?$set@HU?$less@H@std@@V?$allocator@H@2@@std@@QAE?AU?$pair@V?$_Tree_const_iterator@V?$_Tree_val@U?$_Tree_simple_types@H@std@@@std@@@std@@_N@2@ABH@Z ; std::set<int,std::less<int>,std::allocator<int> >::insert
PUBLIC	??4?$set@HU?$less@H@std@@V?$allocator@H@2@@std@@QAEAAV01@ABV01@@Z ; std::set<int,std::less<int>,std::allocator<int> >::operator=
PUBLIC	??0?$set@HU?$less@H@std@@V?$allocator@H@2@@std@@QAE@XZ ; std::set<int,std::less<int>,std::allocator<int> >::set<int,std::less<int>,std::allocator<int> >
PUBLIC	?DeleteSpecialEffect@CPythonBackground@@QAEXK@Z	; CPythonBackground::DeleteSpecialEffect
PUBLIC	?CreateSpecialEffect@CPythonBackground@@QAEXKMMMPBD@Z ; CPythonBackground::CreateSpecialEffect
PUBLIC	?DeleteTargetEffect@CPythonBackground@@QAEXK@Z	; CPythonBackground::DeleteTargetEffect
PUBLIC	?CreateTargetEffect@CPythonBackground@@QAEXKJJ@Z ; CPythonBackground::CreateTargetEffect
PUBLIC	?CreateTargetEffect@CPythonBackground@@QAEXKK@Z	; CPythonBackground::CreateTargetEffect
PUBLIC	?SetXMaxTree@CPythonBackground@@QAEXH@Z		; CPythonBackground::SetXMaxTree
PUBLIC	?DisableSnowEnvironment@CPythonBackground@@QAEXXZ ; CPythonBackground::DisableSnowEnvironment
PUBLIC	?EnableSnowEnvironment@CPythonBackground@@QAEXXZ ; CPythonBackground::EnableSnowEnvironment
PUBLIC	?GetWarpMapName@CPythonBackground@@QAEPBDXZ	; CPythonBackground::GetWarpMapName
PUBLIC	?DisableGuildArea@CPythonBackground@@QAEXXZ	; CPythonBackground::DisableGuildArea
PUBLIC	?VisibleGuildArea@CPythonBackground@@QAEXXZ	; CPythonBackground::VisibleGuildArea
PUBLIC	?Warp@CPythonBackground@@QAEXKK@Z		; CPythonBackground::Warp
PUBLIC	?GlobalPositionToMapInfo@CPythonBackground@@QAEPAUTMapInfo@CMapManager@@KK@Z ; CPythonBackground::GlobalPositionToMapInfo
PUBLIC	?RegisterDungeonMapName@CPythonBackground@@QAEXPBD@Z ; CPythonBackground::RegisterDungeonMapName
PUBLIC	?LocalPositionToGlobalPosition@CPythonBackground@@QAEXAAJ0@Z ; CPythonBackground::LocalPositionToGlobalPosition
PUBLIC	?RegisterGuildArea@CPythonBackground@@QAEXHHHH@Z ; CPythonBackground::RegisterGuildArea
PUBLIC	?ClearGuildArea@CPythonBackground@@QAEXXZ	; CPythonBackground::ClearGuildArea
PUBLIC	?CheckAdvancing@CPythonBackground@@QAE_NPAVCInstanceBase@@@Z ; CPythonBackground::CheckAdvancing
PUBLIC	??RCollisionAdjustChecker@@QAEXPAVCGraphicObjectInstance@@@Z ; CollisionAdjustChecker::operator()
PUBLIC	??0CollisionAdjustChecker@@QAE@PAVCInstanceBase@@@Z ; CollisionAdjustChecker::CollisionAdjustChecker
PUBLIC	??RCollisionChecker@@QAEXPAVCGraphicObjectInstance@@@Z ; CollisionChecker::operator()
PUBLIC	??0CollisionChecker@@QAE@PAVCInstanceBase@@@Z	; CollisionChecker::CollisionChecker
PUBLIC	?RenderCollision@CPythonBackground@@QAEXXZ	; CPythonBackground::RenderCollision
PUBLIC	?__IsSame@CPythonBackground@@IAE_NAAV?$set@HU?$less@H@std@@V?$allocator@H@2@@std@@0@Z ; CPythonBackground::__IsSame
PUBLIC	??1FGetPortalID@@QAE@XZ				; FGetPortalID::~FGetPortalID
PUBLIC	??RFGetPortalID@@QAEXPAVCGraphicObjectInstance@@@Z ; FGetPortalID::operator()
PUBLIC	??0FGetPortalID@@QAE@MM@Z			; FGetPortalID::FGetPortalID
PUBLIC	?Create@CPythonBackground@@QAEXXZ		; CPythonBackground::Create
PUBLIC	?GetPickingPoint@CPythonBackground@@QAE_NPAUD3DXVECTOR3@@@Z ; CPythonBackground::GetPickingPoint
PUBLIC	?__CreateProperty@CPythonBackground@@IAEXXZ	; CPythonBackground::__CreateProperty
PUBLIC	?Initialize@CPythonBackground@@QAEXXZ		; CPythonBackground::Initialize
PUBLIC	??1?$map@KUSReserveTargetEffect@CPythonBackground@@U?$less@K@std@@V?$allocator@U?$pair@$$CBKUSReserveTargetEffect@CPythonBackground@@@std@@@4@@std@@QAE@XZ ; std::map<unsigned long,CPythonBackground::SReserveTargetEffect,std::less<unsigned long>,std::allocator<std::pair<unsigned long const ,CPythonBackground::SReserveTargetEffect> > >::~map<unsigned long,CPythonBackground::SReserveTargetEffect,std::less<unsigned long>,std::allocator<std::pair<unsigned long const ,CPythonBackground::SReserveTargetEffect> > >
PUBLIC	??1?$set@V?$basic_string@DU?$char_traits@D@std@@V?$allocator@D@2@@std@@U?$less@V?$basic_string@DU?$char_traits@D@std@@V?$allocator@D@2@@std@@@2@V?$allocator@V?$basic_string@DU?$char_traits@D@std@@V?$allocator@D@2@@std@@@2@@std@@QAE@XZ ; std::set<std::basic_string<char,std::char_traits<char>,std::allocator<char> >,std::less<std::basic_string<char,std::char_traits<char>,std::allocator<char> > >,std::allocator<std::basic_string<char,std::char_traits<char>,std::allocator<char> > > >::~set<std::basic_string<char,std::char_traits<char>,std::allocator<char> >,std::less<std::basic_string<char,std::char_traits<char>,std::allocator<char> > >,std::allocator<std::basic_string<char,std::char_traits<char>,std::allocator<char> > > >
PUBLIC	??1?$set@HU?$less@H@std@@V?$allocator@H@2@@std@@QAE@XZ ; std::set<int,std::less<int>,std::allocator<int> >::~set<int,std::less<int>,std::allocator<int> >
PUBLIC	??0SVIEWDISTANCESET@CPythonBackground@@QAE@XZ	; CPythonBackground::SVIEWDISTANCESET::SVIEWDISTANCESET
PUBLIC	??_GCPythonBackground@@UAEPAXI@Z		; CPythonBackground::`scalar deleting destructor'
PUBLIC	?GetDistanceSetInfo@CPythonBackground@@QAEXPAHPAM11@Z ; CPythonBackground::GetDistanceSetInfo
PUBLIC	?SelectViewDistanceNum@CPythonBackground@@QAEXH@Z ; CPythonBackground::SelectViewDistanceNum
PUBLIC	?SetShadowLevel@CPythonBackground@@QAE_NH@Z	; CPythonBackground::SetShadowLevel
PUBLIC	?RefreshShadowLevel@CPythonBackground@@QAEXXZ	; CPythonBackground::RefreshShadowLevel
PUBLIC	?SetSplatLimit@CPythonBackground@@QAE_NH@Z	; CPythonBackground::SetSplatLimit
PUBLIC	?EnableTerrainOnlyForHeight@CPythonBackground@@QAEXXZ ; CPythonBackground::EnableTerrainOnlyForHeight
PUBLIC	?SetVisiblePart@CPythonBackground@@QAE_NH_N@Z	; CPythonBackground::SetVisiblePart
PUBLIC	?GetRenderShadowTime@CPythonBackground@@QAEKXZ	; CPythonBackground::GetRenderShadowTime
PUBLIC	??RFFindWarpMapName@CPythonBackground@@QAE_NAAUTMapInfo@CMapManager@@@Z ; CPythonBackground::FFindWarpMapName::operator()
PUBLIC	??0FFindWarpMapName@CPythonBackground@@QAE@KK@Z	; CPythonBackground::FFindWarpMapName::FFindWarpMapName
PUBLIC	?SetAtlasInfoFileName@CMapManager@@QAEXPBD@Z	; CMapManager::SetAtlasInfoFileName
PUBLIC	?IsEnablePortal@CMapOutdoor@@QAE_NXZ		; CMapOutdoor::IsEnablePortal
PUBLIC	?EnableTerrainOnlyForHeight@CMapOutdoor@@QAEX_N@Z ; CMapOutdoor::EnableTerrainOnlyForHeight
PUBLIC	??0CPythonBackground@@QAE@XZ			; CPythonBackground::CPythonBackground
PUBLIC	??1CPythonBackground@@UAE@XZ			; CPythonBackground::~CPythonBackground
PUBLIC	?GetFarClip@CPythonBackground@@QAEMXZ		; CPythonBackground::GetFarClip
PUBLIC	?RenderCharacterShadowToTexture@CPythonBackground@@QAEXXZ ; CPythonBackground::RenderCharacterShadowToTexture
PUBLIC	?RenderSky@CPythonBackground@@QAEXXZ		; CPythonBackground::RenderSky
PUBLIC	?RenderBeforeLensFlare@CPythonBackground@@QAEXXZ ; CPythonBackground::RenderBeforeLensFlare
PUBLIC	?RenderCloud@CPythonBackground@@QAEXXZ		; CPythonBackground::RenderCloud
PUBLIC	?Render@CPythonBackground@@QAEXXZ		; CPythonBackground::Render
PUBLIC	?SetCharacterDirLight@CPythonBackground@@QAEXXZ	; CPythonBackground::SetCharacterDirLight
PUBLIC	?SetBackgroundDirLight@CPythonBackground@@QAEXXZ ; CPythonBackground::SetBackgroundDirLight
PUBLIC	?RenderWater@CPythonBackground@@QAEXXZ		; CPythonBackground::RenderWater
PUBLIC	?RenderSnow@CPythonBackground@@QAEXXZ		; CPythonBackground::RenderSnow
PUBLIC	?RenderEffect@CPythonBackground@@QAEXXZ		; CPythonBackground::RenderEffect
PUBLIC	?RenderPCBlocker@CPythonBackground@@QAEXXZ	; CPythonBackground::RenderPCBlocker
PUBLIC	?RenderAfterLensFlare@CPythonBackground@@QAEXXZ	; CPythonBackground::RenderAfterLensFlare
PUBLIC	?Update@CPythonBackground@@QAEXMMM@Z		; CPythonBackground::Update
PUBLIC	?ReleaseCharacterShadowTexture@CPythonBackground@@QAEXXZ ; CPythonBackground::ReleaseCharacterShadowTexture
PUBLIC	?CreateCharacterShadowTexture@CPythonBackground@@QAEXXZ ; CPythonBackground::CreateCharacterShadowTexture
PUBLIC	?SetViewDistanceSet@CPythonBackground@@QAEXHM@Z	; CPythonBackground::SetViewDistanceSet
PUBLIC	?GlobalPositionToLocalPosition@CPythonBackground@@QAEXAAJ0@Z ; CPythonBackground::GlobalPositionToLocalPosition
PUBLIC	?Destroy@CPythonBackground@@QAEXXZ		; CPythonBackground::Destroy
PUBLIC	?GetPickingPointWithRayOnlyTerrain@CPythonBackground@@QAE_NABVCRay@@PAUD3DXVECTOR3@@@Z ; CPythonBackground::GetPickingPointWithRayOnlyTerrain
PUBLIC	?g_strEffectName@@3V?$basic_string@DU?$char_traits@D@std@@V?$allocator@D@2@@std@@A ; g_strEffectName
EXTRN	??_ECPythonBackground@@UAEPAXI@Z:PROC		; CPythonBackground::`vector deleting destructor'
EXTRN	??_E?$CSingleton@VCPythonBackground@@@@UAEPAXI@Z:PROC ; CSingleton<CPythonBackground>::`vector deleting destructor'
EXTRN	??_E?$RangeTester@UFGetPortalID@@@@UAEPAXI@Z:PROC ; RangeTester<FGetPortalID>::`vector deleting destructor'
EXTRN	??_E?$RangeTester@UCollisionAdjustChecker@@@@UAEPAXI@Z:PROC ; RangeTester<CollisionAdjustChecker>::`vector deleting destructor'
EXTRN	??_E?$RangeTester@UCollisionChecker@@@@UAEPAXI@Z:PROC ; RangeTester<CollisionChecker>::`vector deleting destructor'
	ALIGN	4

_piecewise_construct DB 01H DUP (?)
_BSS	ENDS
;	COMDAT ?$S1@?9??SetXMaxTree@CPythonBackground@@QAEXH@Z@4IA
_BSS	SEGMENT
?$S1@?9??SetXMaxTree@CPythonBackground@@QAEXH@Z@4IA DD 01H DUP (?) ; S1<`template-parameter-10',CPythonBackground::XMaxTree,unsigned char * const,void,int>
_BSS	ENDS
;	COMDAT ?s_strTreeName@?9??SetXMaxTree@CPythonBackground@@QAEXH@Z@4PAV?$basic_string@DU?$char_traits@D@std@@V?$allocator@D@2@@std@@A
_BSS	SEGMENT
?s_strTreeName@?9??SetXMaxTree@CPythonBackground@@QAEXH@Z@4PAV?$basic_string@DU?$char_traits@D@std@@V?$allocator@D@2@@std@@A DB 048H DUP (?) ; `CPythonBackground::SetXMaxTree'::`10'::s_strTreeName
_BSS	ENDS
;	COMDAT ?s_strEffectName@?9??SetXMaxTree@CPythonBackground@@QAEXH@Z@4PAV?$basic_string@DU?$char_traits@D@std@@V?$allocator@D@2@@std@@A
_BSS	SEGMENT
?s_strEffectName@?9??SetXMaxTree@CPythonBackground@@QAEXH@Z@4PAV?$basic_string@DU?$char_traits@D@std@@V?$allocator@D@2@@std@@A DB 048H DUP (?) ; `CPythonBackground::SetXMaxTree'::`10'::s_strEffectName
	ALIGN	4

__Nil_obj DB	01H DUP (?)
_BSS	ENDS
	ORG $+46032
_c_v3TreePos DD	047956a00r			; 76500
	DD	0c76de400r			; -60900
	DD	0469dee00r			; 20215
CONST	ENDS
;	COMDAT xdata$x
xdata$x	SEGMENT
__ehfuncinfo$?Update@CPythonBackground@@QAEXMMM@Z DD 019930522H
	DD	02H
	DD	FLAT:__unwindtable$?Update@CPythonBackground@@QAEXMMM@Z
	DD	2 DUP(00H)
	DD	2 DUP(00H)
	DD	00H
	DD	01H
__unwindtable$?Update@CPythonBackground@@QAEXMMM@Z DD 0ffffffffH
	DD	FLAT:__unwindfunclet$?Update@CPythonBackground@@QAEXMMM@Z$0
	DD	00H
	DD	FLAT:__unwindfunclet$?Update@CPythonBackground@@QAEXMMM@Z$6
xdata$x	ENDS
;	COMDAT xdata$x
xdata$x	SEGMENT
__ehfuncinfo$??1CPythonBackground@@UAE@XZ DD 019930522H
	DD	08H
	DD	FLAT:__unwindtable$??1CPythonBackground@@UAE@XZ
	DD	2 DUP(00H)
	DD	2 DUP(00H)
	DD	00H
	DD	01H
	ORG $+4
__unwindtable$??1CPythonBackground@@UAE@XZ DD 0ffffffffH
	DD	FLAT:__unwindfunclet$??1CPythonBackground@@UAE@XZ$0
	DD	00H
	DD	FLAT:__unwindfunclet$??1CPythonBackground@@UAE@XZ$1
	DD	01H
	DD	FLAT:__unwindfunclet$??1CPythonBackground@@UAE@XZ$2
	DD	02H
	DD	FLAT:__unwindfunclet$??1CPythonBackground@@UAE@XZ$3
	DD	03H
	DD	FLAT:__unwindfunclet$??1CPythonBackground@@UAE@XZ$4
	DD	04H
	DD	FLAT:__unwindfunclet$??1CPythonBackground@@UAE@XZ$5
	DD	05H
	DD	FLAT:__unwindfunclet$??1CPythonBackground@@UAE@XZ$6
	DD	06H
	DD	FLAT:__unwindfunclet$??1CPythonBackground@@UAE@XZ$7
xdata$x	ENDS
;	COMDAT xdata$x
xdata$x	SEGMENT
__ehfuncinfo$??0CPythonBackground@@QAE@XZ DD 019930522H
	DD	08H
	DD	FLAT:__unwindtable$??0CPythonBackground@@QAE@XZ
	DD	2 DUP(00H)
	DD	2 DUP(00H)
	DD	00H
	DD	01H
	ORG $+4
__unwindtable$??0CPythonBackground@@QAE@XZ DD 0ffffffffH
	DD	FLAT:__unwindfunclet$??0CPythonBackground@@QAE@XZ$0
	DD	00H
	DD	FLAT:__unwindfunclet$??0CPythonBackground@@QAE@XZ$1
	DD	01H
	DD	FLAT:__unwindfunclet$??0CPythonBackground@@QAE@XZ$2
	DD	02H
	DD	FLAT:__unwindfunclet$??0CPythonBackground@@QAE@XZ$3
	DD	03H
	DD	FLAT:__unwindfunclet$??0CPythonBackground@@QAE@XZ$4
	DD	04H
	DD	FLAT:__unwindfunclet$??0CPythonBackground@@QAE@XZ$5
	DD	05H
	DD	FLAT:__unwindfunclet$??0CPythonBackground@@QAE@XZ$6
	DD	06H
	DD	FLAT:__unwindfunclet$??0CPythonBackground@@QAE@XZ$7
xdata$x	ENDS
;	COMDAT xdata$x
xdata$x	SEGMENT
__ehfuncinfo$?Initialize@CPythonBackground@@QAEXXZ DD 019930522H
	DD	01H
	DD	FLAT:__unwindtable$?Initialize@CPythonBackground@@QAEXXZ
	DD	2 DUP(00H)
	DD	2 DUP(00H)
	DD	00H
	DD	01H
__unwindtable$?Initialize@CPythonBackground@@QAEXXZ DD 0ffffffffH
	DD	FLAT:__unwindfunclet$?Initialize@CPythonBackground@@QAEXXZ$0
xdata$x	ENDS
;	COMDAT xdata$x
xdata$x	SEGMENT
__ehfuncinfo$?__CreateProperty@CPythonBackground@@IAEXXZ DD 019930522H
	DD	01H
	DD	FLAT:__unwindtable$?__CreateProperty@CPythonBackground@@IAEXXZ
	DD	2 DUP(00H)
	DD	2 DUP(00H)
	DD	00H
	DD	01H
__unwindtable$?__CreateProperty@CPythonBackground@@IAEXXZ DD 0ffffffffH
	DD	FLAT:__unwindfunclet$?__CreateProperty@CPythonBackground@@IAEXXZ$0
xdata$x	ENDS
;	COMDAT xdata$x
xdata$x	SEGMENT
__ehfuncinfo$?CheckAdvancing@CPythonBackground@@QAE_NPAVCInstanceBase@@@Z DD 019930522H
	DD	02H
	DD	FLAT:__unwindtable$?CheckAdvancing@CPythonBackground@@QAE_NPAVCInstanceBase@@@Z
	DD	2 DUP(00H)
	DD	2 DUP(00H)
	DD	00H
	DD	01H
__unwindtable$?CheckAdvancing@CPythonBackground@@QAE_NPAVCInstanceBase@@@Z DD 0ffffffffH
	DD	FLAT:__unwindfunclet$?CheckAdvancing@CPythonBackground@@QAE_NPAVCInstanceBase@@@Z$0
	DD	0ffffffffH
	DD	FLAT:__unwindfunclet$?CheckAdvancing@CPythonBackground@@QAE_NPAVCInstanceBase@@@Z$1
xdata$x	ENDS
;	COMDAT xdata$x
xdata$x	SEGMENT
__ehfuncinfo$?RegisterDungeonMapName@CPythonBackground@@QAEXPBD@Z DD 019930522H
	DD	01H
	DD	FLAT:__unwindtable$?RegisterDungeonMapName@CPythonBackground@@QAEXPBD@Z
	DD	2 DUP(00H)
	DD	2 DUP(00H)
	DD	00H
	DD	01H
__unwindtable$?RegisterDungeonMapName@CPythonBackground@@QAEXPBD@Z DD 0ffffffffH
	DD	FLAT:__unwindfunclet$?RegisterDungeonMapName@CPythonBackground@@QAEXPBD@Z$0
xdata$x	ENDS
;	COMDAT xdata$x
xdata$x	SEGMENT
__ehfuncinfo$?SetXMaxTree@CPythonBackground@@QAEXH@Z DD 019930522H
	DD	06H
	DD	FLAT:__unwindtable$?SetXMaxTree@CPythonBackground@@QAEXH@Z
	DD	2 DUP(00H)
	DD	2 DUP(00H)
	DD	00H
	DD	01H
__unwindtable$?SetXMaxTree@CPythonBackground@@QAEXH@Z DD 0ffffffffH
	DD	FLAT:__unwindfunclet$?SetXMaxTree@CPythonBackground@@QAEXH@Z$0
	DD	00H
	DD	FLAT:__unwindfunclet$?SetXMaxTree@CPythonBackground@@QAEXH@Z$1
	DD	01H
	DD	FLAT:__unwindfunclet$?SetXMaxTree@CPythonBackground@@QAEXH@Z$2
	DD	0ffffffffH
	DD	FLAT:__unwindfunclet$?SetXMaxTree@CPythonBackground@@QAEXH@Z$4
	DD	03H
	DD	FLAT:__unwindfunclet$?SetXMaxTree@CPythonBackground@@QAEXH@Z$5
	DD	04H
	DD	FLAT:__unwindfunclet$?SetXMaxTree@CPythonBackground@@QAEXH@Z$6
xdata$x	ENDS
;	COMDAT xdata$x
xdata$x	SEGMENT
__ehfuncinfo$??$ForInRay@UFGetPortalID@@@CCullingManager@@QAEXABVVector3d@@0PAUFGetPortalID@@@Z DD 019930522H
	DD	01H
	DD	FLAT:__unwindtable$??$ForInRay@UFGetPortalID@@@CCullingManager@@QAEXABVVector3d@@0PAUFGetPortalID@@@Z
	DD	2 DUP(00H)
	DD	2 DUP(00H)
	DD	00H
	DD	01H
__unwindtable$??$ForInRay@UFGetPortalID@@@CCullingManager@@QAEXABVVector3d@@0PAUFGetPortalID@@@Z DD 0ffffffffH
	DD	FLAT:__unwindfunclet$??$ForInRay@UFGetPortalID@@@CCullingManager@@QAEXABVVector3d@@0PAUFGetPortalID@@@Z$0
xdata$x	ENDS
;	COMDAT xdata$x
xdata$x	SEGMENT
__ehfuncinfo$??$ForInRange@UCollisionAdjustChecker@@@CCullingManager@@QAEXABVVector3d@@MPAUCollisionAdjustChecker@@@Z DD 019930522H
	DD	01H
	DD	FLAT:__unwindtable$??$ForInRange@UCollisionAdjustChecker@@@CCullingManager@@QAEXABVVector3d@@MPAUCollisionAdjustChecker@@@Z
	DD	2 DUP(00H)
	DD	2 DUP(00H)
	DD	00H
	DD	01H
__unwindtable$??$ForInRange@UCollisionAdjustChecker@@@CCullingManager@@QAEXABVVector3d@@MPAUCollisionAdjustChecker@@@Z DD 0ffffffffH
	DD	FLAT:__unwindfunclet$??$ForInRange@UCollisionAdjustChecker@@@CCullingManager@@QAEXABVVector3d@@MPAUCollisionAdjustChecker@@@Z$0
xdata$x	ENDS
;	COMDAT xdata$x
xdata$x	SEGMENT
__ehfuncinfo$??$ForInRange@UCollisionChecker@@@CCullingManager@@QAEXABVVector3d@@MPAUCollisionChecker@@@Z DD 019930522H
	DD	01H
	DD	FLAT:__unwindtable$??$ForInRange@UCollisionChecker@@@CCullingManager@@QAEXABVVector3d@@MPAUCollisionChecker@@@Z
	DD	2 DUP(00H)
	DD	2 DUP(00H)
	DD	00H
	DD	01H
__unwindtable$??$ForInRange@UCollisionChecker@@@CCullingManager@@QAEXABVVector3d@@MPAUCollisionChecker@@@Z DD 0ffffffffH
	DD	FLAT:__unwindfunclet$??$ForInRange@UCollisionChecker@@@CCullingManager@@QAEXABVVector3d@@MPAUCollisionChecker@@@Z$0
xdata$x	ENDS
;	COMDAT xdata$x
xdata$x	SEGMENT
__ehfuncinfo$??$_Insert_nohint@ABHU_Nil@std@@@?$_Tree@V?$_Tset_traits@HU?$less@H@std@@V?$allocator@H@2@$0A@@std@@@std@@IAE?AU?$pair@V?$_Tree_const_iterator@V?$_Tree_val@U?$_Tree_simple_types@H@std@@@std@@@std@@_N@1@_NABHU_Nil@1@@Z DD 019930522H
	DD	02H
	DD	FLAT:__unwindtable$??$_Insert_nohint@ABHU_Nil@std@@@?$_Tree@V?$_Tset_traits@HU?$less@H@std@@V?$allocator@H@2@$0A@@std@@@std@@IAE?AU?$pair@V?$_Tree_const_iterator@V?$_Tree_val@U?$_Tree_simple_types@H@std@@@std@@@std@@_N@1@_NABHU_Nil@1@@Z
	DD	01H
	DD	FLAT:__tryblocktable$??$_Insert_nohint@ABHU_Nil@std@@@?$_Tree@V?$_Tset_traits@HU?$less@H@std@@V?$allocator@H@2@$0A@@std@@@std@@IAE?AU?$pair@V?$_Tree_const_iterator@V?$_Tree_val@U?$_Tree_simple_types@H@std@@@std@@@std@@_N@1@_NABHU_Nil@1@@Z
	DD	2 DUP(00H)
	DD	00H
	DD	01H
__unwindtable$??$_Insert_nohint@ABHU_Nil@std@@@?$_Tree@V?$_Tset_traits@HU?$less@H@std@@V?$allocator@H@2@$0A@@std@@@std@@IAE?AU?$pair@V?$_Tree_const_iterator@V?$_Tree_val@U?$_Tree_simple_types@H@std@@@std@@@std@@_N@1@_NABHU_Nil@1@@Z DD 0ffffffffH
	DD	00H
	DD	0ffffffffH
	DD	00H
__tryblocktable$??$_Insert_nohint@ABHU_Nil@std@@@?$_Tree@V?$_Tset_traits@HU?$less@H@std@@V?$allocator@H@2@$0A@@std@@@std@@IAE?AU?$pair@V?$_Tree_const_iterator@V?$_Tree_val@U?$_Tree_simple_types@H@std@@@std@@@std@@_N@1@_NABHU_Nil@1@@Z DD 00H
	DD	00H
	DD	01H
	DD	01H
	DD	FLAT:__catchsym$??$_Insert_nohint@ABHU_Nil@std@@@?$_Tree@V?$_Tset_traits@HU?$less@H@std@@V?$allocator@H@2@$0A@@std@@@std@@IAE?AU?$pair@V?$_Tree_const_iterator@V?$_Tree_val@U?$_Tree_simple_types@H@std@@@std@@@std@@_N@1@_NABHU_Nil@1@@Z$2
__catchsym$??$_Insert_nohint@ABHU_Nil@std@@@?$_Tree@V?$_Tset_traits@HU?$less@H@std@@V?$allocator@H@2@$0A@@std@@@std@@IAE?AU?$pair@V?$_Tree_const_iterator@V?$_Tree_val@U?$_Tree_simple_types@H@std@@@std@@@std@@_N@1@_NABHU_Nil@1@@Z$2 DD 040H
	DD	00H
	DD	00H
	DD	FLAT:__catch$??$_Insert_nohint@ABHU_Nil@std@@@?$_Tree@V?$_Tset_traits@HU?$less@H@std@@V?$allocator@H@2@$0A@@std@@@std@@IAE?AU?$pair@V?$_Tree_const_iterator@V?$_Tree_val@U?$_Tree_simple_types@H@std@@@std@@@std@@_N@1@_NABHU_Nil@1@@Z$0
xdata$x	ENDS
;	COMDAT xdata$x
xdata$x	SEGMENT
__ehfuncinfo$??$_Insert_nohint@V?$basic_string@DU?$char_traits@D@std@@V?$allocator@D@2@@std@@U_Nil@2@@?$_Tree@V?$_Tset_traits@V?$basic_string@DU?$char_traits@D@std@@V?$allocator@D@2@@std@@U?$less@V?$basic_string@DU?$char_traits@D@std@@V?$allocator@D@2@@std@@@2@V?$allocator@V?$basic_string@DU?$char_traits@D@std@@V?$allocator@D@2@@std@@@2@$0A@@std@@@std@@IAE?AU?$pair@V?$_Tree_const_iterator@V?$_Tree_val@U?$_Tree_simple_types@V?$basic_string@DU?$char_traits@D@std@@V?$allocator@D@2@@std@@@std@@@std@@@std@@_N@1@_N$$QAV?$basic_string@DU?$char_traits@D@std@@V?$allocator@D@2@@1@U_Nil@1@@Z DD 019930522H
	DD	02H
	DD	FLAT:__unwindtable$??$_Insert_nohint@V?$basic_string@DU?$char_traits@D@std@@V?$allocator@D@2@@std@@U_Nil@2@@?$_Tree@V?$_Tset_traits@V?$basic_string@DU?$char_traits@D@std@@V?$allocator@D@2@@std@@U?$less@V?$basic_string@DU?$char_traits@D@std@@V?$allocator@D@2@@std@@@2@V?$allocator@V?$basic_string@DU?$char_traits@D@std@@V?$allocator@D@2@@std@@@2@$0A@@std@@@std@@IAE?AU?$pair@V?$_Tree_const_iterator@V?$_Tree_val@U?$_Tree_simple_types@V?$basic_string@DU?$char_traits@D@std@@V?$allocator@D@2@@std@@@std@@@std@@@std@@_N@1@_N$$QAV?$basic_string@DU?$char_traits@D@std@@V?$allocator@D@2@@1@U_Nil@1@@Z
	DD	01H
	DD	FLAT:__tryblocktable$??$_Insert_nohint@V?$basic_string@DU?$char_traits@D@std@@V?$allocator@D@2@@std@@U_Nil@2@@?$_Tree@V?$_Tset_traits@V?$basic_string@DU?$char_traits@D@std@@V?$allocator@D@2@@std@@U?$less@V?$basic_string@DU?$char_traits@D@std@@V?$allocator@D@2@@std@@@2@V?$allocator@V?$basic_string@DU?$char_traits@D@std@@V?$allocator@D@2@@std@@@2@$0A@@std@@@std@@IAE?AU?$pair@V?$_Tree_const_iterator@V?$_Tree_val@U?$_Tree_simple_types@V?$basic_string@DU?$char_traits@D@std@@V?$allocator@D@2@@std@@@std@@@std@@@std@@_N@1@_N$$QAV?$basic_string@DU?$char_traits@D@std@@V?$allocator@D@2@@1@U_Nil@1@@Z
	DD	2 DUP(00H)
	DD	00H
	DD	01H
__unwindtable$??$_Insert_nohint@V?$basic_string@DU?$char_traits@D@std@@V?$allocator@D@2@@std@@U_Nil@2@@?$_Tree@V?$_Tset_traits@V?$basic_string@DU?$char_traits@D@std@@V?$allocator@D@2@@std@@U?$less@V?$basic_string@DU?$char_traits@D@std@@V?$allocator@D@2@@std@@@2@V?$allocator@V?$basic_string@DU?$char_traits@D@std@@V?$allocator@D@2@@std@@@2@$0A@@std@@@std@@IAE?AU?$pair@V?$_Tree_const_iterator@V?$_Tree_val@U?$_Tree_simple_types@V?$basic_string@DU?$char_traits@D@std@@V?$allocator@D@2@@std@@@std@@@std@@@std@@_N@1@_N$$QAV?$basic_string@DU?$char_traits@D@std@@V?$allocator@D@2@@1@U_Nil@1@@Z DD 0ffffffffH
	DD	00H
	DD	0ffffffffH
	DD	00H
__tryblocktable$??$_Insert_nohint@V?$basic_string@DU?$char_traits@D@std@@V?$allocator@D@2@@std@@U_Nil@2@@?$_Tree@V?$_Tset_traits@V?$basic_string@DU?$char_traits@D@std@@V?$allocator@D@2@@std@@U?$less@V?$basic_string@DU?$char_traits@D@std@@V?$allocator@D@2@@std@@@2@V?$allocator@V?$basic_string@DU?$char_traits@D@std@@V?$allocator@D@2@@std@@@2@$0A@@std@@@std@@IAE?AU?$pair@V?$_Tree_const_iterator@V?$_Tree_val@U?$_Tree_simple_types@V?$basic_string@DU?$char_traits@D@std@@V?$allocator@D@2@@std@@@std@@@std@@@std@@_N@1@_N$$QAV?$basic_string@DU?$char_traits@D@std@@V?$allocator@D@2@@1@U_Nil@1@@Z DD 00H
	DD	00H
	DD	01H
	DD	01H
	DD	FLAT:__catchsym$??$_Insert_nohint@V?$basic_string@DU?$char_traits@D@std@@V?$allocator@D@2@@std@@U_Nil@2@@?$_Tree@V?$_Tset_traits@V?$basic_string@DU?$char_traits@D@std@@V?$allocator@D@2@@std@@U?$less@V?$basic_string@DU?$char_traits@D@std@@V?$allocator@D@2@@std@@@2@V?$allocator@V?$basic_string@DU?$char_traits@D@std@@V?$allocator@D@2@@std@@@2@$0A@@std@@@std@@IAE?AU?$pair@V?$_Tree_const_iterator@V?$_Tree_val@U?$_Tree_simple_types@V?$basic_string@DU?$char_traits@D@std@@V?$allocator@D@2@@std@@@std@@@std@@@std@@_N@1@_N$$QAV?$basic_string@DU?$char_traits@D@std@@V?$allocator@D@2@@1@U_Nil@1@@Z$2
__catchsym$??$_Insert_nohint@V?$basic_string@DU?$char_traits@D@std@@V?$allocator@D@2@@std@@U_Nil@2@@?$_Tree@V?$_Tset_traits@V?$basic_string@DU?$char_traits@D@std@@V?$allocator@D@2@@std@@U?$less@V?$basic_string@DU?$char_traits@D@std@@V?$allocator@D@2@@std@@@2@V?$allocator@V?$basic_string@DU?$char_traits@D@std@@V?$allocator@D@2@@std@@@2@$0A@@std@@@std@@IAE?AU?$pair@V?$_Tree_const_iterator@V?$_Tree_val@U?$_Tree_simple_types@V?$basic_string@DU?$char_traits@D@std@@V?$allocator@D@2@@std@@@std@@@std@@@std@@_N@1@_N$$QAV?$basic_string@DU?$char_traits@D@std@@V?$allocator@D@2@@1@U_Nil@1@@Z$2 DD 040H
	DD	00H
	DD	00H
	DD	FLAT:__catch$??$_Insert_nohint@V?$basic_string@DU?$char_traits@D@std@@V?$allocator@D@2@@std@@U_Nil@2@@?$_Tree@V?$_Tset_traits@V?$basic_string@DU?$char_traits@D@std@@V?$allocator@D@2@@std@@U?$less@V?$basic_string@DU?$char_traits@D@std@@V?$allocator@D@2@@std@@@2@V?$allocator@V?$basic_string@DU?$char_traits@D@std@@V?$allocator@D@2@@std@@@2@$0A@@std@@@std@@IAE?AU?$pair@V?$_Tree_const_iterator@V?$_Tree_val@U?$_Tree_simple_types@V?$basic_string@DU?$char_traits@D@std@@V?$allocator@D@2@@std@@@std@@@std@@@std@@_N@1@_N$$QAV?$basic_string@DU?$char_traits@D@std@@V?$allocator@D@2@@1@U_Nil@1@@Z$0
xdata$x	ENDS
;	COMDAT xdata$x
xdata$x	SEGMENT
__ehfuncinfo$??$_Insert_nohint@AAU?$pair@$$CBKUSReserveTargetEffect@CPythonBackground@@@std@@PAU?$_Tree_node@U?$pair@$$CBKUSReserveTargetEffect@CPythonBackground@@@std@@PAX@2@@?$_Tree@V?$_Tmap_traits@KUSReserveTargetEffect@CPythonBackground@@U?$less@K@std@@V?$allocator@U?$pair@$$CBKUSReserveTargetEffect@CPythonBackground@@@std@@@4@$0A@@std@@@std@@IAE?AU?$pair@V?$_Tree_iterator@V?$_Tree_val@U?$_Tree_simple_types@U?$pair@$$CBKUSReserveTargetEffect@CPythonBackground@@@std@@@std@@@std@@@std@@_N@1@_NAAU?$pair@$$CBKUSReserveTargetEffect@CPythonBackground@@@1@PAU?$_Tree_node@U?$pair@$$CBKUSReserveTargetEffect@CPythonBackground@@@std@@PAX@1@@Z DD 019930522H
	DD	02H
	DD	FLAT:__unwindtable$??$_Insert_nohint@AAU?$pair@$$CBKUSReserveTargetEffect@CPythonBackground@@@std@@PAU?$_Tree_node@U?$pair@$$CBKUSReserveTargetEffect@CPythonBackground@@@std@@PAX@2@@?$_Tree@V?$_Tmap_traits@KUSReserveTargetEffect@CPythonBackground@@U?$less@K@std@@V?$allocator@U?$pair@$$CBKUSReserveTargetEffect@CPythonBackground@@@std@@@4@$0A@@std@@@std@@IAE?AU?$pair@V?$_Tree_iterator@V?$_Tree_val@U?$_Tree_simple_types@U?$pair@$$CBKUSReserveTargetEffect@CPythonBackground@@@std@@@std@@@std@@@std@@_N@1@_NAAU?$pair@$$CBKUSReserveTargetEffect@CPythonBackground@@@1@PAU?$_Tree_node@U?$pair@$$CBKUSReserveTargetEffect@CPythonBackground@@@std@@PAX@1@@Z
	DD	01H
	DD	FLAT:__tryblocktable$??$_Insert_nohint@AAU?$pair@$$CBKUSReserveTargetEffect@CPythonBackground@@@std@@PAU?$_Tree_node@U?$pair@$$CBKUSReserveTargetEffect@CPythonBackground@@@std@@PAX@2@@?$_Tree@V?$_Tmap_traits@KUSReserveTargetEffect@CPythonBackground@@U?$less@K@std@@V?$allocator@U?$pair@$$CBKUSReserveTargetEffect@CPythonBackground@@@std@@@4@$0A@@std@@@std@@IAE?AU?$pair@V?$_Tree_iterator@V?$_Tree_val@U?$_Tree_simple_types@U?$pair@$$CBKUSReserveTargetEffect@CPythonBackground@@@std@@@std@@@std@@@std@@_N@1@_NAAU?$pair@$$CBKUSReserveTargetEffect@CPythonBackground@@@1@PAU?$_Tree_node@U?$pair@$$CBKUSReserveTargetEffect@CPythonBackground@@@std@@PAX@1@@Z
	DD	2 DUP(00H)
	DD	00H
	DD	01H
__unwindtable$??$_Insert_nohint@AAU?$pair@$$CBKUSReserveTargetEffect@CPythonBackground@@@std@@PAU?$_Tree_node@U?$pair@$$CBKUSReserveTargetEffect@CPythonBackground@@@std@@PAX@2@@?$_Tree@V?$_Tmap_traits@KUSReserveTargetEffect@CPythonBackground@@U?$less@K@std@@V?$allocator@U?$pair@$$CBKUSReserveTargetEffect@CPythonBackground@@@std@@@4@$0A@@std@@@std@@IAE?AU?$pair@V?$_Tree_iterator@V?$_Tree_val@U?$_Tree_simple_types@U?$pair@$$CBKUSReserveTargetEffect@CPythonBackground@@@std@@@std@@@std@@@std@@_N@1@_NAAU?$pair@$$CBKUSReserveTargetEffect@CPythonBackground@@@1@PAU?$_Tree_node@U?$pair@$$CBKUSReserveTargetEffect@CPythonBackground@@@std@@PAX@1@@Z DD 0ffffffffH
	DD	00H
	DD	0ffffffffH
	DD	00H
__tryblocktable$??$_Insert_nohint@AAU?$pair@$$CBKUSReserveTargetEffect@CPythonBackground@@@std@@PAU?$_Tree_node@U?$pair@$$CBKUSReserveTargetEffect@CPythonBackground@@@std@@PAX@2@@?$_Tree@V?$_Tmap_traits@KUSReserveTargetEffect@CPythonBackground@@U?$less@K@std@@V?$allocator@U?$pair@$$CBKUSReserveTargetEffect@CPythonBackground@@@std@@@4@$0A@@std@@@std@@IAE?AU?$pair@V?$_Tree_iterator@V?$_Tree_val@U?$_Tree_simple_types@U?$pair@$$CBKUSReserveTargetEffect@CPythonBackground@@@std@@@std@@@std@@@std@@_N@1@_NAAU?$pair@$$CBKUSReserveTargetEffect@CPythonBackground@@@1@PAU?$_Tree_node@U?$pair@$$CBKUSReserveTargetEffect@CPythonBackground@@@std@@PAX@1@@Z DD 00H
	DD	00H
	DD	01H
	DD	01H
	DD	FLAT:__catchsym$??$_Insert_nohint@AAU?$pair@$$CBKUSReserveTargetEffect@CPythonBackground@@@std@@PAU?$_Tree_node@U?$pair@$$CBKUSReserveTargetEffect@CPythonBackground@@@std@@PAX@2@@?$_Tree@V?$_Tmap_traits@KUSReserveTargetEffect@CPythonBackground@@U?$less@K@std@@V?$allocator@U?$pair@$$CBKUSReserveTargetEffect@CPythonBackground@@@std@@@4@$0A@@std@@@std@@IAE?AU?$pair@V?$_Tree_iterator@V?$_Tree_val@U?$_Tree_simple_types@U?$pair@$$CBKUSReserveTargetEffect@CPythonBackground@@@std@@@std@@@std@@@std@@_N@1@_NAAU?$pair@$$CBKUSReserveTargetEffect@CPythonBackground@@@1@PAU?$_Tree_node@U?$pair@$$CBKUSReserveTargetEffect@CPythonBackground@@@std@@PAX@1@@Z$2
__catchsym$??$_Insert_nohint@AAU?$pair@$$CBKUSReserveTargetEffect@CPythonBackground@@@std@@PAU?$_Tree_node@U?$pair@$$CBKUSReserveTargetEffect@CPythonBackground@@@std@@PAX@2@@?$_Tree@V?$_Tmap_traits@KUSReserveTargetEffect@CPythonBackground@@U?$less@K@std@@V?$allocator@U?$pair@$$CBKUSReserveTargetEffect@CPythonBackground@@@std@@@4@$0A@@std@@@std@@IAE?AU?$pair@V?$_Tree_iterator@V?$_Tree_val@U?$_Tree_simple_types@U?$pair@$$CBKUSReserveTargetEffect@CPythonBackground@@@std@@@std@@@std@@@std@@_N@1@_NAAU?$pair@$$CBKUSReserveTargetEffect@CPythonBackground@@@1@PAU?$_Tree_node@U?$pair@$$CBKUSReserveTargetEffect@CPythonBackground@@@std@@PAX@1@@Z$2 DD 040H
	DD	00H
	DD	00H
	DD	FLAT:__catch$??$_Insert_nohint@AAU?$pair@$$CBKUSReserveTargetEffect@CPythonBackground@@@std@@PAU?$_Tree_node@U?$pair@$$CBKUSReserveTargetEffect@CPythonBackground@@@std@@PAX@2@@?$_Tree@V?$_Tmap_traits@KUSReserveTargetEffect@CPythonBackground@@U?$less@K@std@@V?$allocator@U?$pair@$$CBKUSReserveTargetEffect@CPythonBackground@@@std@@@4@$0A@@std@@@std@@IAE?AU?$pair@V?$_Tree_iterator@V?$_Tree_val@U?$_Tree_simple_types@U?$pair@$$CBKUSReserveTargetEffect@CPythonBackground@@@std@@@std@@@std@@@std@@_N@1@_NAAU?$pair@$$CBKUSReserveTargetEffect@CPythonBackground@@@1@PAU?$_Tree_node@U?$pair@$$CBKUSReserveTargetEffect@CPythonBackground@@@std@@PAX@1@@Z$0
xdata$x	ENDS
;	COMDAT xdata$x
xdata$x	SEGMENT
__ehfuncinfo$??$_Copy_nodes@U?$integral_constant@_N$0A@@std@@@?$_Tree@V?$_Tset_traits@HU?$less@H@std@@V?$allocator@H@2@$0A@@std@@@std@@IAEPAU?$_Tree_node@HPAX@1@PAU21@0U?$integral_constant@_N$0A@@1@@Z DD 019930522H
	DD	02H
	DD	FLAT:__unwindtable$??$_Copy_nodes@U?$integral_constant@_N$0A@@std@@@?$_Tree@V?$_Tset_traits@HU?$less@H@std@@V?$allocator@H@2@$0A@@std@@@std@@IAEPAU?$_Tree_node@HPAX@1@PAU21@0U?$integral_constant@_N$0A@@1@@Z
	DD	01H
	DD	FLAT:__tryblocktable$??$_Copy_nodes@U?$integral_constant@_N$0A@@std@@@?$_Tree@V?$_Tset_traits@HU?$less@H@std@@V?$allocator@H@2@$0A@@std@@@std@@IAEPAU?$_Tree_node@HPAX@1@PAU21@0U?$integral_constant@_N$0A@@1@@Z
	DD	2 DUP(00H)
	DD	00H
	DD	01H
__unwindtable$??$_Copy_nodes@U?$integral_constant@_N$0A@@std@@@?$_Tree@V?$_Tset_traits@HU?$less@H@std@@V?$allocator@H@2@$0A@@std@@@std@@IAEPAU?$_Tree_node@HPAX@1@PAU21@0U?$integral_constant@_N$0A@@1@@Z DD 0ffffffffH
	DD	00H
	DD	0ffffffffH
	DD	00H
__tryblocktable$??$_Copy_nodes@U?$integral_constant@_N$0A@@std@@@?$_Tree@V?$_Tset_traits@HU?$less@H@std@@V?$allocator@H@2@$0A@@std@@@std@@IAEPAU?$_Tree_node@HPAX@1@PAU21@0U?$integral_constant@_N$0A@@1@@Z DD 00H
	DD	00H
	DD	01H
	DD	01H
	DD	FLAT:__catchsym$??$_Copy_nodes@U?$integral_constant@_N$0A@@std@@@?$_Tree@V?$_Tset_traits@HU?$less@H@std@@V?$allocator@H@2@$0A@@std@@@std@@IAEPAU?$_Tree_node@HPAX@1@PAU21@0U?$integral_constant@_N$0A@@1@@Z$2
__catchsym$??$_Copy_nodes@U?$integral_constant@_N$0A@@std@@@?$_Tree@V?$_Tset_traits@HU?$less@H@std@@V?$allocator@H@2@$0A@@std@@@std@@IAEPAU?$_Tree_node@HPAX@1@PAU21@0U?$integral_constant@_N$0A@@1@@Z$2 DD 040H
	DD	00H
	DD	00H
	DD	FLAT:__catch$??$_Copy_nodes@U?$integral_constant@_N$0A@@std@@@?$_Tree@V?$_Tset_traits@HU?$less@H@std@@V?$allocator@H@2@$0A@@std@@@std@@IAEPAU?$_Tree_node@HPAX@1@PAU21@0U?$integral_constant@_N$0A@@1@@Z$0
?g_strEffectName@@3V?$basic_string@DU?$char_traits@D@std@@V?$allocator@D@2@@std@@A DB 00H ; g_strEffectName
	DB	15 DUP(00H)
	DD	00H
	DD	0fH
_g_strEffectName$initializer$ DD FLAT:??__Eg_strEffectName@@YAXXZ
; Function compile flags: /Ogtp
; File d:\metin2\metin2\client_source_clean\client_source_clean\source\userinterface\pythonbackground.cpp
;	COMDAT ?GetPickingPointWithRayOnlyTerrain@CPythonBackground@@QAE_NABVCRay@@PAUD3DXVECTOR3@@@Z
_TEXT	SEGMENT
_rRay$ = 8						; size = 4
_v3IntersectPt$ = 12					; size = 4
?GetPickingPointWithRayOnlyTerrain@CPythonBackground@@QAE_NABVCRay@@PAUD3DXVECTOR3@@@Z PROC ; CPythonBackground::GetPickingPointWithRayOnlyTerrain, COMDAT
; _this$ = ecx

; 276  : {

  00000	55		 push	 ebp
  00001	8b ec		 mov	 ebp, esp

; 277  : 	CMapOutdoor& rkMap=GetMapOutdoorRef();

  00003	e8 00 00 00 00	 call	 ?GetMapOutdoorRef@CMapManager@@QAEAAVCMapOutdoor@@XZ ; CMapManager::GetMapOutdoorRef

; 278  : 	return rkMap.GetPickingPointWithRayOnlyTerrain(rRay, v3IntersectPt);

  00008	8b c8		 mov	 ecx, eax

; 279  : }

  0000a	5d		 pop	 ebp

; 278  : 	return rkMap.GetPickingPointWithRayOnlyTerrain(rRay, v3IntersectPt);

  0000b	e9 00 00 00 00	 jmp	 ?GetPickingPointWithRayOnlyTerrain@CMapOutdoor@@QAE_NABVCRay@@PAUD3DXVECTOR3@@@Z ; CMapOutdoor::GetPickingPointWithRayOnlyTerrain
?GetPickingPointWithRayOnlyTerrain@CPythonBackground@@QAE_NABVCRay@@PAUD3DXVECTOR3@@@Z ENDP ; CPythonBackground::GetPickingPointWithRayOnlyTerrain
_TEXT	ENDS
; Function compile flags: /Ogtp
; File d:\metin2\metin2\client_source_clean\client_source_clean\source\userinterface\pythonbackground.cpp
;	COMDAT ?Destroy@CPythonBackground@@QAEXXZ
_TEXT	SEGMENT
?Destroy@CPythonBackground@@QAEXXZ PROC			; CPythonBackground::Destroy, COMDAT
; _this$ = ecx

; 296  : {

  00000	56		 push	 esi
  00001	8b f1		 mov	 esi, ecx

; 297  : 	CMapManager::Destroy();

  00003	e8 00 00 00 00	 call	 ?Destroy@CMapManager@@QAEXXZ ; CMapManager::Destroy

; 298  : 	m_SnowEnvironment.Destroy();

  00008	8d 8e f8 14 00
	00		 lea	 ecx, DWORD PTR [esi+5368]
  0000e	e8 00 00 00 00	 call	 ?Destroy@CSnowEnvironment@@QAEXXZ ; CSnowEnvironment::Destroy

; 299  : 	m_bVisibleGuildArea = FALSE;

  00013	c7 86 60 15 00
	00 00 00 00 00	 mov	 DWORD PTR [esi+5472], 0
  0001d	5e		 pop	 esi

; 300  : }

  0001e	c3		 ret	 0
?Destroy@CPythonBackground@@QAEXXZ ENDP			; CPythonBackground::Destroy
_TEXT	ENDS
; Function compile flags: /Ogtp
; File d:\metin2\metin2\client_source_clean\client_source_clean\source\userinterface\pythonbackground.cpp
;	COMDAT ?GlobalPositionToLocalPosition@CPythonBackground@@QAEXAAJ0@Z
_TEXT	SEGMENT
_rGlobalX$ = 8						; size = 4
_rGlobalY$ = 12						; size = 4
?GlobalPositionToLocalPosition@CPythonBackground@@QAEXAAJ0@Z PROC ; CPythonBackground::GlobalPositionToLocalPosition, COMDAT
; _this$ = ecx

; 706  : {

  00000	55		 push	 ebp
  00001	8b ec		 mov	 ebp, esp

; 707  : 	rGlobalX-=m_dwBaseX;

  00003	8b 45 08	 mov	 eax, DWORD PTR _rGlobalX$[ebp]
  00006	8b 91 68 15 00
	00		 mov	 edx, DWORD PTR [ecx+5480]
  0000c	29 10		 sub	 DWORD PTR [eax], edx

; 708  : 	rGlobalY-=m_dwBaseY;

  0000e	8b 45 0c	 mov	 eax, DWORD PTR _rGlobalY$[ebp]
  00011	8b 89 6c 15 00
	00		 mov	 ecx, DWORD PTR [ecx+5484]
  00017	29 08		 sub	 DWORD PTR [eax], ecx

; 709  : }

  00019	5d		 pop	 ebp
  0001a	c2 08 00	 ret	 8
?GlobalPositionToLocalPosition@CPythonBackground@@QAEXAAJ0@Z ENDP ; CPythonBackground::GlobalPositionToLocalPosition
_TEXT	ENDS
; Function compile flags: /Ogtp
; File d:\metin2\metin2\client_source_clean\client_source_clean\source\userinterface\pythonbackground.cpp
; File d:\metin2\metin2\client_source_clean\client_source_clean\extern\include\d3dx8math.inl
; File d:\metin2\metin2\client_source_clean\client_source_clean\source\userinterface\pythonbackground.cpp
;	COMDAT ?SetViewDistanceSet@CPythonBackground@@QAEXHM@Z
_TEXT	SEGMENT
$T1 = -12						; size = 12
_eNum$ = 8						; size = 4
?SetViewDistanceSet@CPythonBackground@@QAEXHM@Z PROC	; CPythonBackground::SetViewDistanceSet, COMDAT
; _this$ = ecx
; _fFarClip$ = xmm2s

; 158  : {

  00000	55		 push	 ebp
  00001	8b ec		 mov	 ebp, esp
  00003	83 ec 0c	 sub	 esp, 12			; 0000000cH

; 159  : 	if (!m_pkMap)

  00006	83 b9 30 14 00
	00 00		 cmp	 DWORD PTR [ecx+5168], 0
  0000d	74 70		 je	 SHORT $LN1@SetViewDis

; 160  : 		return;
; 161  : 	
; 162  : 	m_ViewDistanceSet[eNum].m_fFogStart		= fFarClip * 0.5f;//0.3333333f;

  0000f	56		 push	 esi
  00010	8b 75 08	 mov	 esi, DWORD PTR _eNum$[ebp]
  00013	0f 28 c2	 movaps	 xmm0, xmm2
  00016	f3 0f 59 05 00
	00 00 00	 mulss	 xmm0, DWORD PTR __real@3f000000
  0001e	8d 14 76	 lea	 edx, DWORD PTR [esi+esi*2]
  00021	f3 0f 11 84 d1
	70 15 00 00	 movss	 DWORD PTR [ecx+edx*8+5488], xmm0

; 163  : 	m_ViewDistanceSet[eNum].m_fFogEnd		= fFarClip * 0.7f;//0.6666667f;

  0002a	0f 28 c2	 movaps	 xmm0, xmm2
  0002d	f3 0f 59 05 00
	00 00 00	 mulss	 xmm0, DWORD PTR __real@3f333333
  00035	f3 0f 11 84 d1
	74 15 00 00	 movss	 DWORD PTR [ecx+edx*8+5492], xmm0

; 164  : 	
; 165  : 	float fSkyBoxScale						= fFarClip * 0.6f;//0.5773502f;

  0003e	0f 28 c2	 movaps	 xmm0, xmm2
  00041	f3 0f 59 05 00
	00 00 00	 mulss	 xmm0, DWORD PTR __real@3f19999a
; File d:\metin2\metin2\client_source_clean\client_source_clean\extern\include\d3dx8math.inl

; 182  :     z = fz;

  00049	f3 0f 11 45 fc	 movss	 DWORD PTR $T1[ebp+8], xmm0
; File d:\metin2\metin2\client_source_clean\client_source_clean\source\userinterface\pythonbackground.cpp

; 166  : 	m_ViewDistanceSet[eNum].m_v3SkyBoxScale	= D3DXVECTOR3(fSkyBoxScale, fSkyBoxScale, fSkyBoxScale);

  0004e	8b 45 fc	 mov	 eax, DWORD PTR $T1[ebp+8]
  00051	0f 14 c0	 unpcklps xmm0, xmm0
  00054	66 0f d6 84 d1
	7c 15 00 00	 movq	 QWORD PTR [ecx+edx*8+5500], xmm0
  0005d	89 84 d1 84 15
	00 00		 mov	 DWORD PTR [ecx+edx*8+5508], eax

; 167  : 	m_ViewDistanceSet[eNum].m_fFarClip		= fFarClip;

  00064	8d 04 76	 lea	 eax, DWORD PTR [esi+esi*2]
  00067	f3 0f 11 94 c1
	78 15 00 00	 movss	 DWORD PTR [ecx+eax*8+5496], xmm2

; 168  : 
; 169  : 	if (eNum == m_eViewDistanceNum)

  00070	3b b1 5c 15 00
	00		 cmp	 esi, DWORD PTR [ecx+5468]
  00076	75 06		 jne	 SHORT $LN7@SetViewDis

; 170  : 		SelectViewDistanceNum(eNum);

  00078	56		 push	 esi
  00079	e8 00 00 00 00	 call	 ?SelectViewDistanceNum@CPythonBackground@@QAEXH@Z ; CPythonBackground::SelectViewDistanceNum
$LN7@SetViewDis:
  0007e	5e		 pop	 esi
$LN1@SetViewDis:

; 171  : }

  0007f	8b e5		 mov	 esp, ebp
  00081	5d		 pop	 ebp
  00082	c2 04 00	 ret	 4
?SetViewDistanceSet@CPythonBackground@@QAEXHM@Z ENDP	; CPythonBackground::SetViewDistanceSet
_TEXT	ENDS
; Function compile flags: /Ogtp
; File d:\metin2\metin2\client_source_clean\client_source_clean\source\userinterface\pythonbackground.cpp
;	COMDAT ?CreateCharacterShadowTexture@CPythonBackground@@QAEXXZ
_TEXT	SEGMENT
?CreateCharacterShadowTexture@CPythonBackground@@QAEXXZ PROC ; CPythonBackground::CreateCharacterShadowTexture, COMDAT
; _this$ = ecx

; 56   : 	if (!m_pkMap)

  00000	83 b9 30 14 00
	00 00		 cmp	 DWORD PTR [ecx+5168], 0
  00007	74 0c		 je	 SHORT $LN2@CreateChar

; 57   : 		return;
; 58   : 
; 59   : 	CMapOutdoor& rkMap = GetMapOutdoorRef();

  00009	e8 00 00 00 00	 call	 ?GetMapOutdoorRef@CMapManager@@QAEAAVCMapOutdoor@@XZ ; CMapManager::GetMapOutdoorRef

; 60   : 	rkMap.CreateCharacterShadowTexture();

  0000e	8b c8		 mov	 ecx, eax
  00010	e9 00 00 00 00	 jmp	 ?CreateCharacterShadowTexture@CMapOutdoor@@QAEXXZ ; CMapOutdoor::CreateCharacterShadowTexture
$LN2@CreateChar:

; 61   : }

  00015	c3		 ret	 0
?CreateCharacterShadowTexture@CPythonBackground@@QAEXXZ ENDP ; CPythonBackground::CreateCharacterShadowTexture
_TEXT	ENDS
; Function compile flags: /Ogtp
; File d:\metin2\metin2\client_source_clean\client_source_clean\source\userinterface\pythonbackground.cpp
;	COMDAT ?ReleaseCharacterShadowTexture@CPythonBackground@@QAEXXZ
_TEXT	SEGMENT
?ReleaseCharacterShadowTexture@CPythonBackground@@QAEXXZ PROC ; CPythonBackground::ReleaseCharacterShadowTexture, COMDAT
; _this$ = ecx

; 65   : 	if (!m_pkMap)

  00000	83 b9 30 14 00
	00 00		 cmp	 DWORD PTR [ecx+5168], 0
  00007	74 0c		 je	 SHORT $LN2@ReleaseCha

; 66   : 		return;
; 67   : 
; 68   : 	CMapOutdoor& rkMap = GetMapOutdoorRef();

  00009	e8 00 00 00 00	 call	 ?GetMapOutdoorRef@CMapManager@@QAEAAVCMapOutdoor@@XZ ; CMapManager::GetMapOutdoorRef

; 69   : 	rkMap.ReleaseCharacterShadowTexture();

  0000e	8b c8		 mov	 ecx, eax
  00010	e9 00 00 00 00	 jmp	 ?ReleaseCharacterShadowTexture@CMapOutdoor@@QAEXXZ ; CMapOutdoor::ReleaseCharacterShadowTexture
$LN2@ReleaseCha:

; 70   : }

  00015	c3		 ret	 0
?ReleaseCharacterShadowTexture@CPythonBackground@@QAEXXZ ENDP ; CPythonBackground::ReleaseCharacterShadowTexture
_TEXT	ENDS
; Function compile flags: /Ogtp
; File d:\metin2\metin2\client_source_clean\client_source_clean\source\userinterface\pythonbackground.cpp
; File d:\metin2\metin2\client_source_clean\client_source_clean\extern\include\d3dx8math.inl
; File d:\metin2\metin2\client_source_clean\client_source_clean\source\userinterface\pythonbackground.cpp
; File d:\metin2\metin2\client_source_clean\client_source_clean\extern\include\d3dx8math.inl
; File d:\metin2\metin2\client_source_clean\client_source_clean\source\userinterface\pythonbackground.cpp
; File d:\metin2\metin2\client_source_clean\client_source_clean\extern\include\d3dx8math.inl
; File d:\metin2\metin2\client_source_clean\client_source_clean\source\userinterface\pythonbackground.cpp
; File d:\metin2\metin2\client_source_clean\client_source_clean\extern\include\d3dx8math.inl
; File d:\metin2\metin2\client_source_clean\client_source_clean\source\userinterface\pythonbackground.cpp
; File d:\metin2\metin2\client_source_clean\client_source_clean\source\gamelib\mapoutdoor.h
; File d:\metin2\metin2\client_source_clean\client_source_clean\source\userinterface\pythonbackground.cpp
; File c:\program files (x86)\microsoft visual studio 12.0\vc\include\xtree
; File d:\metin2\metin2\client_source_clean\client_source_clean\source\userinterface\pythonbackground.cpp
; File c:\program files (x86)\microsoft visual studio 12.0\vc\include\xtree
; File d:\metin2\metin2\client_source_clean\client_source_clean\source\userinterface\pythonbackground.cpp
; File d:\metin2\metin2\client_source_clean\client_source_clean\source\eterlib\cullingmanager.h
; File d:\metin2\metin2\client_source_clean\client_source_clean\source\spherelib\vector.h
; File d:\metin2\metin2\client_source_clean\client_source_clean\source\eterlib\cullingmanager.h
; File d:\metin2\metin2\client_source_clean\client_source_clean\source\userinterface\pythonbackground.cpp
; File d:\metin2\metin2\client_source_clean\client_source_clean\source\eterlib\cullingmanager.h
; File d:\metin2\metin2\client_source_clean\client_source_clean\source\userinterface\pythonbackground.cpp
; File c:\program files (x86)\microsoft visual studio 12.0\vc\include\xtree
; File d:\metin2\metin2\client_source_clean\client_source_clean\source\userinterface\pythonbackground.cpp
; File c:\program files (x86)\microsoft visual studio 12.0\vc\include\xtree
; File d:\metin2\metin2\client_source_clean\client_source_clean\source\userinterface\pythonbackground.cpp
; File c:\program files (x86)\microsoft visual studio 12.0\vc\include\xtree
; File d:\metin2\metin2\client_source_clean\client_source_clean\source\userinterface\pythonbackground.cpp
; File c:\program files (x86)\microsoft visual studio 12.0\vc\include\xtree
; File c:\program files (x86)\microsoft visual studio 12.0\vc\include\xmemory0
; File c:\program files (x86)\microsoft visual studio 12.0\vc\include\xtree
; File d:\metin2\metin2\client_source_clean\client_source_clean\source\userinterface\pythonbackground.cpp
; File c:\program files (x86)\microsoft visual studio 12.0\vc\include\xstring
; File d:\metin2\metin2\client_source_clean\client_source_clean\source\userinterface\pythonbackground.cpp
; File c:\program files (x86)\microsoft visual studio 12.0\vc\include\xstring
; File d:\metin2\metin2\client_source_clean\client_source_clean\source\userinterface\pythonbackground.cpp
; File c:\program files (x86)\microsoft visual studio 12.0\vc\include\xtree
; File d:\metin2\metin2\client_source_clean\client_source_clean\source\userinterface\pythonbackground.cpp
; File c:\program files (x86)\microsoft visual studio 12.0\vc\include\xtree
; File d:\metin2\metin2\client_source_clean\client_source_clean\source\userinterface\pythonbackground.cpp
; File c:\program files (x86)\microsoft visual studio 12.0\vc\include\xtree
; File d:\metin2\metin2\client_source_clean\client_source_clean\source\userinterface\pythonbackground.cpp
; File c:\program files (x86)\microsoft visual studio 12.0\vc\include\xstring
; File d:\metin2\metin2\client_source_clean\client_source_clean\source\userinterface\pythonbackground.cpp
; File c:\program files (x86)\microsoft visual studio 12.0\vc\include\xstring
; File d:\metin2\metin2\client_source_clean\client_source_clean\source\userinterface\pythonbackground.cpp
; File c:\program files (x86)\microsoft visual studio 12.0\vc\include\xtree
; File d:\metin2\metin2\client_source_clean\client_source_clean\source\userinterface\pythonbackground.cpp
;	COMDAT ?Update@CPythonBackground@@QAEXMMM@Z
_TEXT	SEGMENT
_fCenterZ$GSCopy$1$ = -96				; size = 4
_dwTargetID$1$ = -96					; size = 4
$T2 = -96						; size = 1
_fHeight$3 = -96					; size = 4
_itor$4 = -96						; size = 4
_ily$1$ = -92						; size = 4
_fCenterY$GSCopy$1$ = -92				; size = 4
_fCenterX$GSCopy$1$ = -88				; size = 4
_dwID$1$ = -88						; size = 4
_kGetPortalID$5 = -84					; size = 16
_ilx$1$ = -68						; size = 4
$T6 = -68						; size = 4
_rkMap$1$ = -64						; size = 4
$T7 = -60						; size = 4
_r$8 = -56						; size = 12
_kPixelPosition$9 = -56					; size = 12
$T10 = -56						; size = 12
_toTop$11 = -44						; size = 12
_aVector3d$12 = -32					; size = 12
__$ArrayPad$ = -20					; size = 4
__$EHRec$ = -12						; size = 12
?Update@CPythonBackground@@QAEXMMM@Z PROC		; CPythonBackground::Update, COMDAT
; _this$ = ecx
; _fCenterX$ = xmm1s
; _fCenterY$ = xmm2s
; _fCenterZ$ = xmm3s

; 340  : {

  00000	55		 push	 ebp
  00001	8b ec		 mov	 ebp, esp
  00003	83 e4 f8	 and	 esp, -8			; fffffff8H
  00006	6a ff		 push	 -1
  00008	68 00 00 00 00	 push	 __ehhandler$?Update@CPythonBackground@@QAEXMMM@Z
  0000d	64 a1 00 00 00
	00		 mov	 eax, DWORD PTR fs:0
  00013	50		 push	 eax
  00014	83 ec 54	 sub	 esp, 84			; 00000054H
  00017	a1 00 00 00 00	 mov	 eax, DWORD PTR ___security_cookie
  0001c	33 c4		 xor	 eax, esp
  0001e	89 44 24 4c	 mov	 DWORD PTR __$ArrayPad$[esp+96], eax
  00022	56		 push	 esi
  00023	57		 push	 edi
  00024	a1 00 00 00 00	 mov	 eax, DWORD PTR ___security_cookie
  00029	33 c4		 xor	 eax, esp
  0002b	50		 push	 eax
  0002c	8d 44 24 60	 lea	 eax, DWORD PTR __$EHRec$[esp+108]
  00030	64 a3 00 00 00
	00		 mov	 DWORD PTR fs:0, eax
  00036	f3 0f 11 5c 24
	0c		 movss	 DWORD PTR _fCenterZ$GSCopy$1$[esp+108], xmm3
  0003c	f3 0f 11 54 24
	10		 movss	 DWORD PTR _fCenterY$GSCopy$1$[esp+108], xmm2
  00042	f3 0f 11 4c 24
	14		 movss	 DWORD PTR _fCenterX$GSCopy$1$[esp+108], xmm1
  00048	8b f9		 mov	 edi, ecx

; 341  : 	if (!IsMapReady())

  0004a	e8 00 00 00 00	 call	 ?IsMapReady@CMapManager@@QAE_NXZ ; CMapManager::IsMapReady
  0004f	84 c0		 test	 al, al
  00051	0f 84 c2 03 00
	00		 je	 $LN2@Update

; 342  : 		return;
; 343  : #ifdef __PERFORMANCE_CHECKER__
; 344  : 	DWORD t1=ELTimer_GetMSec();
; 345  : #endif
; 346  : 	UpdateMap(fCenterX, fCenterY, fCenterZ);

  00057	f3 0f 10 44 24
	0c		 movss	 xmm0, DWORD PTR _fCenterZ$GSCopy$1$[esp+108]
  0005d	83 ec 0c	 sub	 esp, 12			; 0000000cH
  00060	8b cf		 mov	 ecx, edi
  00062	f3 0f 11 44 24
	08		 movss	 DWORD PTR [esp+8], xmm0
  00068	f3 0f 10 44 24
	1c		 movss	 xmm0, DWORD PTR _fCenterY$GSCopy$1$[esp+120]
  0006e	f3 0f 11 44 24
	04		 movss	 DWORD PTR [esp+4], xmm0
  00074	f3 0f 10 44 24
	20		 movss	 xmm0, DWORD PTR _fCenterX$GSCopy$1$[esp+120]
  0007a	f3 0f 11 04 24	 movss	 DWORD PTR [esp], xmm0
  0007f	e8 00 00 00 00	 call	 ?UpdateMap@CMapManager@@QAE_NMMM@Z ; CMapManager::UpdateMap

; 347  : #ifdef __PERFORMANCE_CHECKER__
; 348  : 	DWORD t2=ELTimer_GetMSec();
; 349  : #endif
; 350  : 	UpdateAroundAmbience(fCenterX, fCenterY, fCenterZ);

  00084	f3 0f 10 44 24
	0c		 movss	 xmm0, DWORD PTR _fCenterZ$GSCopy$1$[esp+108]
  0008a	83 ec 0c	 sub	 esp, 12			; 0000000cH
  0008d	8b cf		 mov	 ecx, edi
  0008f	f3 0f 11 44 24
	08		 movss	 DWORD PTR [esp+8], xmm0
  00095	f3 0f 10 44 24
	1c		 movss	 xmm0, DWORD PTR _fCenterY$GSCopy$1$[esp+120]
  0009b	f3 0f 11 44 24
	04		 movss	 DWORD PTR [esp+4], xmm0
  000a1	f3 0f 10 44 24
	20		 movss	 xmm0, DWORD PTR _fCenterX$GSCopy$1$[esp+120]
  000a7	f3 0f 11 04 24	 movss	 DWORD PTR [esp], xmm0
  000ac	e8 00 00 00 00	 call	 ?UpdateAroundAmbience@CMapManager@@QAEXMMM@Z ; CMapManager::UpdateAroundAmbience
; File d:\metin2\metin2\client_source_clean\client_source_clean\extern\include\d3dx8math.inl

; 180  :     x = fx;

  000b1	f3 0f 10 44 24
	14		 movss	 xmm0, DWORD PTR _fCenterX$GSCopy$1$[esp+108]
; File d:\metin2\metin2\client_source_clean\client_source_clean\source\userinterface\pythonbackground.cpp

; 354  : 	m_SnowEnvironment.Update(D3DXVECTOR3(fCenterX, -fCenterY, fCenterZ));

  000b7	8d 44 24 34	 lea	 eax, DWORD PTR $T10[esp+108]
; File d:\metin2\metin2\client_source_clean\client_source_clean\extern\include\d3dx8math.inl

; 180  :     x = fx;

  000bb	f3 0f 11 44 24
	34		 movss	 DWORD PTR $T10[esp+108], xmm0
; File d:\metin2\metin2\client_source_clean\client_source_clean\source\userinterface\pythonbackground.cpp

; 354  : 	m_SnowEnvironment.Update(D3DXVECTOR3(fCenterX, -fCenterY, fCenterZ));

  000c1	8d 8f f8 14 00
	00		 lea	 ecx, DWORD PTR [edi+5368]
  000c7	f3 0f 10 44 24
	10		 movss	 xmm0, DWORD PTR _fCenterY$GSCopy$1$[esp+108]
  000cd	0f 57 05 00 00
	00 00		 xorps	 xmm0, DWORD PTR __xmm@80000000800000008000000080000000
  000d4	f3 0f 11 44 24
	10		 movss	 DWORD PTR _fCenterY$GSCopy$1$[esp+108], xmm0
; File d:\metin2\metin2\client_source_clean\client_source_clean\extern\include\d3dx8math.inl

; 181  :     y = fy;

  000da	f3 0f 11 44 24
	38		 movss	 DWORD PTR $T10[esp+112], xmm0

; 182  :     z = fz;

  000e0	f3 0f 10 44 24
	0c		 movss	 xmm0, DWORD PTR _fCenterZ$GSCopy$1$[esp+108]
; File d:\metin2\metin2\client_source_clean\client_source_clean\source\userinterface\pythonbackground.cpp

; 354  : 	m_SnowEnvironment.Update(D3DXVECTOR3(fCenterX, -fCenterY, fCenterZ));

  000e6	50		 push	 eax
; File d:\metin2\metin2\client_source_clean\client_source_clean\extern\include\d3dx8math.inl

; 182  :     z = fz;

  000e7	f3 0f 11 44 24
	40		 movss	 DWORD PTR $T10[esp+120], xmm0
; File d:\metin2\metin2\client_source_clean\client_source_clean\source\userinterface\pythonbackground.cpp

; 354  : 	m_SnowEnvironment.Update(D3DXVECTOR3(fCenterX, -fCenterY, fCenterZ));

  000ed	e8 00 00 00 00	 call	 ?Update@CSnowEnvironment@@QAEXABUD3DXVECTOR3@@@Z ; CSnowEnvironment::Update

; 355  : 
; 356  : #ifdef __PERFORMANCE_CHECKER__
; 357  : 	{
; 358  : 		static FILE* fp=fopen("perf_bg_update.txt", "w");
; 359  : 		if (t3-t1>5)
; 360  : 		{
; 361  : 			fprintf(fp, "BG.Total %d (Time %f)\n", t3-t1, ELTimer_GetMSec()/1000.0f);
; 362  : 			fprintf(fp, "BG.UpdateMap %d\n", t2-t1);
; 363  : 			fprintf(fp, "BG.UpdateAmb %d\n", t3-t2);
; 364  : 			fflush(fp);
; 365  : 		}
; 366  : 	}
; 367  : #endif
; 368  : 
; 369  : 	// Portal Process
; 370  : 	CMapOutdoor& rkMap=GetMapOutdoorRef();

  000f2	8b cf		 mov	 ecx, edi
  000f4	e8 00 00 00 00	 call	 ?GetMapOutdoorRef@CMapManager@@QAEAAVCMapOutdoor@@XZ ; CMapManager::GetMapOutdoorRef
  000f9	89 44 24 2c	 mov	 DWORD PTR _rkMap$1$[esp+108], eax
; File d:\metin2\metin2\client_source_clean\client_source_clean\source\gamelib\mapoutdoor.h

; 709  : 		bool IsEnablePortal() { return m_bEnablePortal; }

  000fd	8a 88 b7 0e 00
	00		 mov	 cl, BYTE PTR [eax+3767]
; File d:\metin2\metin2\client_source_clean\client_source_clean\source\userinterface\pythonbackground.cpp

; 371  : 	if (rkMap.IsEnablePortal())

  00103	84 c9		 test	 cl, cl
  00105	0f 84 47 01 00
	00		 je	 $LN187@Update

; 372  : 	{
; 373  : 		CCullingManager & rkCullingMgr = CCullingManager::Instance();

  0010b	8b 35 00 00 00
	00		 mov	 esi, DWORD PTR ?ms_singleton@?$CSingleton@VCCullingManager@@@@0PAVCCullingManager@@A ; CSingleton<CCullingManager>::ms_singleton
; File c:\program files (x86)\microsoft visual studio 12.0\vc\include\xtree

; 773  : 		this->_Myhead = _Buyheadnode();

  00111	8d 4c 24 20	 lea	 ecx, DWORD PTR _kGetPortalID$5[esp+116]

; 337  : 		}
; 338  : 
; 339  : 	bool operator!=(const _Myiter& _Right) const
; 340  : 		{	// test for iterator inequality
; 341  : 		return (!(*this == _Right));
; 342  : 		}
; 343  : 	};
; 344  : 
; 345  : template<class _Mytree> inline
; 346  : 	typename _Tree_const_iterator<_Mytree>::_Unchecked_type
; 347  : 		_Unchecked(_Tree_const_iterator<_Mytree> _Iter)
; 348  : 	{	// convert to unchecked
; 349  : 	return (_Iter._Unchecked());
; 350  : 	}
; 351  : 
; 352  : template<class _Mytree> inline
; 353  : 	_Tree_const_iterator<_Mytree>&
; 354  : 		_Rechecked(_Tree_const_iterator<_Mytree>& _Iter,
; 355  : 			typename _Tree_const_iterator<_Mytree>
; 356  : 				::_Unchecked_type _Right)
; 357  : 	{	// convert to checked
; 358  : 	return (_Iter._Rechecked(_Right));
; 359  : 	}
; 360  : 
; 361  : 	// TEMPLATE CLASS _Tree_iterator
; 362  : template<class _Mytree>
; 363  : 	class _Tree_iterator
; 364  : 		: public _Tree_const_iterator<_Mytree>
; 365  : 	{	// iterator for mutable tree
; 366  : public:
; 367  : 	typedef _Tree_iterator<_Mytree> _Myiter;
; 368  : 	typedef _Tree_const_iterator<_Mytree> _Mybase;
; 369  : 	typedef bidirectional_iterator_tag iterator_category;
; 370  : 
; 371  : 	typedef typename _Mytree::_Nodeptr _Nodeptr;
; 372  : 	typedef typename _Mytree::value_type value_type;
; 373  : 	typedef typename _Mytree::difference_type difference_type;
; 374  : 
; 375  : 	typedef typename _Mytree::pointer pointer;
; 376  : 	typedef typename _Mytree::reference reference;
; 377  : 
; 378  : 	_Tree_iterator()
; 379  : 		{	// construct with null node
; 380  : 		}
; 381  : 
; 382  : 	_Tree_iterator(_Nodeptr _Pnode, const _Mytree *_Plist)
; 383  : 		: _Mybase(_Pnode, _Plist)
; 384  : 		{	// construct with node pointer _Pnode
; 385  : 		}
; 386  : 
; 387  : 	typedef _Tree_unchecked_iterator<_Mytree> _Unchecked_type;
; 388  : 
; 389  : 	_Myiter& _Rechecked(_Unchecked_type _Right)
; 390  : 		{	// reset from unchecked iterator
; 391  : 		this->_Ptr = _Right._Ptr;
; 392  : 		return (*this);
; 393  : 		}
; 394  : 
; 395  : 	_Unchecked_type _Unchecked() const
; 396  : 		{	// make an unchecked iterator
; 397  : 		return (_Unchecked_type(this->_Ptr, (_Mytree *)this->_Getcont()));
; 398  : 		}
; 399  : 
; 400  : 	reference operator*() const
; 401  : 		{	// return designated value
; 402  : 		return ((reference)**(_Mybase *)this);
; 403  : 		}
; 404  : 
; 405  : 	pointer operator->() const
; 406  : 		{	// return pointer to class object
; 407  : 		return (_STD pointer_traits<pointer>::pointer_to(**this));
; 408  : 		}
; 409  : 
; 410  : 	_Myiter& operator++()
; 411  : 		{	// preincrement
; 412  : 		++(*(_Mybase *)this);
; 413  : 		return (*this);
; 414  : 		}
; 415  : 
; 416  : 	_Myiter operator++(int)
; 417  : 		{	// postincrement
; 418  : 		_Myiter _Tmp = *this;
; 419  : 		++*this;
; 420  : 		return (_Tmp);
; 421  : 		}
; 422  : 
; 423  : 	_Myiter& operator--()
; 424  : 		{	// predecrement
; 425  : 		--(*(_Mybase *)this);
; 426  : 		return (*this);
; 427  : 		}
; 428  : 
; 429  : 	_Myiter operator--(int)
; 430  : 		{	// postdecrement
; 431  : 		_Myiter _Tmp = *this;
; 432  : 		--*this;
; 433  : 		return (_Tmp);
; 434  : 		}
; 435  : 	};
; 436  : 
; 437  : template<class _Mytree> inline
; 438  : 	typename _Tree_iterator<_Mytree>::_Unchecked_type
; 439  : 		_Unchecked(_Tree_iterator<_Mytree> _Iter)
; 440  : 	{	// convert to unchecked
; 441  : 	return (_Iter._Unchecked());
; 442  : 	}
; 443  : 
; 444  : template<class _Mytree> inline
; 445  : 	_Tree_iterator<_Mytree>&
; 446  : 		_Rechecked(_Tree_iterator<_Mytree>& _Iter,
; 447  : 			typename _Tree_iterator<_Mytree>
; 448  : 				::_Unchecked_type _Right)
; 449  : 	{	// convert to checked
; 450  : 	return (_Iter._Rechecked(_Right));
; 451  : 	}
; 452  : 
; 453  : 		// tree TYPE WRAPPERS
; 454  : template<class _Value_type,
; 455  : 	class _Size_type,
; 456  : 	class _Difference_type,
; 457  : 	class _Pointer,
; 458  : 	class _Const_pointer,
; 459  : 	class _Reference,
; 460  : 	class _Const_reference,
; 461  : 	class _Nodeptr_type>
; 462  : 	struct _Tree_iter_types
; 463  : 	{	// wraps types needed by iterators
; 464  : 	typedef _Value_type value_type;
; 465  : 	typedef _Size_type size_type;
; 466  : 	typedef _Difference_type difference_type;
; 467  : 	typedef _Pointer pointer;
; 468  : 	typedef _Const_pointer const_pointer;
; 469  : 	typedef _Reference reference;
; 470  : 	typedef _Const_reference const_reference;
; 471  : 	typedef _Nodeptr_type _Nodeptr;
; 472  : 	};
; 473  : 
; 474  : template<class _Value_type,
; 475  : 	class _Voidptr>
; 476  : 	struct _Tree_node
; 477  : 		{	// tree node
; 478  : 		_Voidptr _Left;	// left subtree, or smallest element if head
; 479  : 		_Voidptr _Parent;	// parent, or root of tree if head
; 480  : 		_Voidptr _Right;	// right subtree, or largest element if head
; 481  : 		char _Color;	// _Red or _Black, _Black if head
; 482  : 		char _Isnil;	// true only if head (also nil) node
; 483  : 		_Value_type _Myval;	// the stored value, unused if head
; 484  : 
; 485  : 	private:
; 486  : 		_Tree_node& operator=(const _Tree_node&);
; 487  : 		};
; 488  : 
; 489  : template<class _Value_type>
; 490  : 	struct _Tree_node<_Value_type, void *>
; 491  : 		{	// tree node
; 492  : 		typedef _Tree_node<_Value_type, void *> *_Nodeptr;
; 493  : 		_Nodeptr _Left;	// left subtree, or smallest element if head
; 494  : 		_Nodeptr _Parent;	// parent, or root of tree if head
; 495  : 		_Nodeptr _Right;	// right subtree, or largest element if head
; 496  : 		char _Color;	// _Red or _Black, _Black if head
; 497  : 		char _Isnil;	// true only if head (also nil) node
; 498  : 		_Value_type _Myval;	// the stored value, unused if head
; 499  : 
; 500  : 	private:
; 501  : 		_Tree_node& operator=(const _Tree_node&);
; 502  : 		};
; 503  : 
; 504  : template<class _Ty>
; 505  : 	struct _Tree_simple_types
; 506  : 		: public _Simple_types<_Ty>
; 507  : 	{	// wraps types needed by iterators
; 508  : 	typedef _Tree_node<_Ty, void *> _Node;
; 509  : 	typedef _Node *_Nodeptr;
; 510  : 	};
; 511  : 
; 512  : template<class _Ty,
; 513  : 	class _Alloc0>
; 514  : 	struct _Tree_base_types
; 515  : 	{	// types needed for a container base
; 516  : 	typedef _Alloc0 _Alloc;
; 517  : 	typedef _Tree_base_types<_Ty, _Alloc> _Myt;
; 518  : 
; 519  : 	typedef _Wrap_alloc<_Alloc> _Alty0;
; 520  : 	typedef typename _Alty0::template rebind<_Ty>::other _Alty;
; 521  : 
; 522  : 
; 523  : 	typedef typename _Get_voidptr<_Alty, typename _Alty::pointer>::type
; 524  : 		_Voidptr;
; 525  : 	typedef _Tree_node<typename _Alty::value_type,
; 526  : 		_Voidptr> _Node;
; 527  : 
; 528  : 	typedef typename _Alty::template rebind<_Node>::other _Alnod_type;
; 529  : 	typedef typename _Alnod_type::pointer _Nodeptr;
; 530  : 	typedef _Nodeptr& _Nodepref;
; 531  : 
; 532  : 	typedef typename _If<_Is_simple_alloc<_Alty>::value,
; 533  : 		_Tree_simple_types<typename _Alty::value_type>,
; 534  : 		_Tree_iter_types<typename _Alty::value_type,
; 535  : 			typename _Alty::size_type,
; 536  : 			typename _Alty::difference_type,
; 537  : 			typename _Alty::pointer,
; 538  : 			typename _Alty::const_pointer,
; 539  : 			typename _Alty::reference,
; 540  : 			typename _Alty::const_reference,
; 541  : 			_Nodeptr> >::type
; 542  : 		_Val_types;
; 543  : 	};
; 544  : 
; 545  : 		// TEMPLATE CLASS _Tree_val
; 546  : template<class _Val_types>
; 547  : 	class _Tree_val
; 548  : 		: public _Container_base
; 549  : 	{	// base class for tree to hold data
; 550  : public:
; 551  : 	typedef _Tree_val<_Val_types> _Myt;
; 552  : 
; 553  : 	typedef typename _Val_types::_Nodeptr _Nodeptr;
; 554  : 	typedef _Nodeptr& _Nodepref;
; 555  : 
; 556  : 	typedef typename _Val_types::value_type value_type;
; 557  : 	typedef typename _Val_types::size_type size_type;
; 558  : 	typedef typename _Val_types::difference_type difference_type;
; 559  : 	typedef typename _Val_types::pointer pointer;
; 560  : 	typedef typename _Val_types::const_pointer const_pointer;
; 561  : 	typedef typename _Val_types::reference reference;
; 562  : 	typedef typename _Val_types::const_reference const_reference;
; 563  : 
; 564  : 	typedef _Tree_const_iterator<_Myt> const_iterator;
; 565  : 	typedef _Tree_iterator<_Myt> iterator;
; 566  : 
; 567  : 	_Tree_val()
; 568  : 		{	// initialize data
; 569  : 		this->_Myhead = 0;

  00115	c7 44 24 20 00
	00 00 00	 mov	 DWORD PTR _kGetPortalID$5[esp+116], 0

; 570  : 		this->_Mysize = 0;

  0011d	c7 44 24 24 00
	00 00 00	 mov	 DWORD PTR _kGetPortalID$5[esp+120], 0

; 773  : 		this->_Myhead = _Buyheadnode();

  00125	e8 00 00 00 00	 call	 ?_Buyheadnode@?$_Tree_alloc@$0A@U?$_Tree_base_types@HV?$allocator@H@std@@@std@@@std@@QAEPAU?$_Tree_node@HPAX@2@XZ ; std::_Tree_alloc<0,std::_Tree_base_types<int,std::allocator<int> > >::_Buyheadnode
; File d:\metin2\metin2\client_source_clean\client_source_clean\source\userinterface\pythonbackground.cpp

; 323  : 		m_fRequestX=fRequestX;

  0012a	f3 0f 10 4c 24
	14		 movss	 xmm1, DWORD PTR _fCenterX$GSCopy$1$[esp+108]

; 324  : 		m_fRequestY=fRequestY;

  00130	f3 0f 10 44 24
	10		 movss	 xmm0, DWORD PTR _fCenterY$GSCopy$1$[esp+108]
; File c:\program files (x86)\microsoft visual studio 12.0\vc\include\xtree

; 773  : 		this->_Myhead = _Buyheadnode();

  00136	89 44 24 20	 mov	 DWORD PTR _kGetPortalID$5[esp+116], eax
; File d:\metin2\metin2\client_source_clean\client_source_clean\source\userinterface\pythonbackground.cpp

; 323  : 		m_fRequestX=fRequestX;

  0013a	f3 0f 11 4c 24
	18		 movss	 DWORD PTR _kGetPortalID$5[esp+108], xmm1

; 324  : 		m_fRequestY=fRequestY;

  00140	f3 0f 11 44 24
	1c		 movss	 DWORD PTR _kGetPortalID$5[esp+112], xmm0

; 374  : 		FGetPortalID kGetPortalID(fCenterX, -fCenterY);

  00146	c7 44 24 68 00
	00 00 00	 mov	 DWORD PTR __$EHRec$[esp+116], 0
; File d:\metin2\metin2\client_source_clean\client_source_clean\source\eterlib\cullingmanager.h

; 16   : 	{}

  0014e	8d 44 24 18	 lea	 eax, DWORD PTR _kGetPortalID$5[esp+108]
; File d:\metin2\metin2\client_source_clean\client_source_clean\source\spherelib\vector.h

; 108  : 		y = b;

  00152	f3 0f 11 44 24
	50		 movss	 DWORD PTR _aVector3d$12[esp+112], xmm0

; 109  : 		z = c;

  00158	f3 0f 10 44 24
	0c		 movss	 xmm0, DWORD PTR _fCenterZ$GSCopy$1$[esp+108]
  0015e	f3 0f 11 4c 24
	4c		 movss	 DWORD PTR _aVector3d$12[esp+108], xmm1
  00164	f3 0f 11 44 24
	54		 movss	 DWORD PTR _aVector3d$12[esp+116], xmm0

; 107  : 		x = a;

  0016a	c7 44 24 40 00
	00 00 00	 mov	 DWORD PTR _toTop$11[esp+108], 0

; 108  : 		y = b;

  00172	c7 44 24 44 00
	00 00 00	 mov	 DWORD PTR _toTop$11[esp+112], 0

; 109  : 		z = c;

  0017a	c7 44 24 48 00
	50 c3 46	 mov	 DWORD PTR _toTop$11[esp+116], 1187205120 ; 46c35000H
; File d:\metin2\metin2\client_source_clean\client_source_clean\source\eterlib\cullingmanager.h

; 16   : 	{}

  00182	c7 44 24 34 00
	00 00 00	 mov	 DWORD PTR _r$8[esp+108], OFFSET ??_7?$RangeTester@UFGetPortalID@@@@6B@
  0018a	89 44 24 38	 mov	 DWORD PTR _r$8[esp+112], eax
  0018e	c7 44 24 3c 00
	00 80 bf	 mov	 DWORD PTR _r$8[esp+116], -1082130432 ; bf800000H

; 17   : 
; 18   : 	virtual ~RangeTester()
; 19   : 	{}
; 20   : 
; 21   : 
; 22   : 	virtual void RayTraceCallback(const Vector3d &p1,          // source pos of ray
; 23   : 		const Vector3d &dir,          // dest pos of ray
; 24   : 		float distance,
; 25   : 		const Vector3d &sect,
; 26   : 		SpherePack *sphere)
; 27   : 	{
; 28   : #ifdef SPHERELIB_STRICT
; 29   : 		if (sphere->IS_SPHERE)
; 30   : 			puts("RangeTester::RayTraceCallback");
; 31   : #endif	
; 32   : 		if (dist<=0.0f || dist>=distance)
; 33   : 			(*f)((CGraphicObjectInstance *)sphere->GetUserData());
; 34   : 	};
; 35   : 	
; 36   : 	
; 37   : 	virtual void VisibilityCallback(const Frustum &f,SpherePack *sphere,ViewState state){};
; 38   : 
; 39   : 	virtual void RangeTestCallback(const Vector3d &p,float distance,SpherePack *sphere,ViewState state)
; 40   : 	{
; 41   : #ifdef SPHERELIB_STRICT
; 42   : 		if (sphere->IS_SPHERE)
; 43   : 			puts("RangeTester::RangeTestCallback");
; 44   : #endif	
; 45   : 		if (state!=VS_OUTSIDE)
; 46   : 			(*f)((CGraphicObjectInstance *)sphere->GetUserData());
; 47   : 	}
; 48   : 
; 49   : 	virtual void PointTest2dCallback(const Vector3d &p, SpherePack *sphere,ViewState state)
; 50   : 	{
; 51   : #ifdef SPHERELIB_STRICT
; 52   : 		if (sphere->IS_SPHERE)
; 53   : 			puts("RangeTester::PointTest2dCallback");	
; 54   : #endif
; 55   : 		if (state!=VS_OUTSIDE)
; 56   : 		{
; 57   : #ifdef SPHERELIB_STRICT
; 58   : 			puts("FIND!!");
; 59   : #endif
; 60   : 			(*f)((CGraphicObjectInstance *)sphere->GetUserData());
; 61   : 		}
; 62   : 	}
; 63   : };
; 64   : 
; 65   : class CCullingManager : public CSingleton<CCullingManager>, public SpherePackCallback, private CScreen
; 66   : {
; 67   : public:
; 68   : 	typedef SpherePack * CullingHandle;
; 69   : 	typedef std::vector<CGraphicObjectInstance *> TRangeList;
; 70   : 
; 71   : 	CCullingManager();
; 72   : 	virtual ~CCullingManager();
; 73   : 
; 74   : 	virtual void RayTraceCallback(const Vector3d &p1,          // source pos of ray
; 75   : 		const Vector3d &dir,          // dest pos of ray
; 76   : 		float distance,
; 77   : 		const Vector3d &sect,
; 78   : 		SpherePack *sphere);
; 79   : 	
; 80   : 	
; 81   : 	virtual void VisibilityCallback(const Frustum &f,SpherePack *sphere,ViewState state);
; 82   : 	
; 83   : 	void RangeTestCallback(const Vector3d &p,float distance,SpherePack *sphere,ViewState state);	
; 84   : 
; 85   : 	void Reset();
; 86   : 	void Update();
; 87   : 	void Process();
; 88   : 	
; 89   : 	void FindRange(const Vector3d &p, float radius);
; 90   : 	void FindRay(const Vector3d &p1, const Vector3d &dir);
; 91   : 	void FindRayDistance(const Vector3d &p1, const Vector3d &dir, float distance);
; 92   : 
; 93   : 	void RangeTest(const Vector3d& p, float radius, SpherePackCallback* callback)
; 94   : 	{
; 95   : 		m_Factory->RangeTest(p, radius, callback);
; 96   : 	}
; 97   : 
; 98   : 	void PointTest2d(const Vector3d& p, SpherePackCallback* callback)
; 99   : 	{
; 100  : 		m_Factory->PointTest2d(p, callback);
; 101  : 	}
; 102  : 
; 103  : 	template <class T>
; 104  : 	void ForInRange2d(const Vector3d& p, T* pFunc)
; 105  : 	{
; 106  : 		RangeTester<T> r(pFunc);
; 107  : 		m_Factory->PointTest2d(p, &r);
; 108  : 	}
; 109  : 
; 110  : 	template <class T>
; 111  : 	void ForInRange(const Vector3d &p, float radius, T* pFunc)
; 112  : 	{
; 113  : 		RangeTester<T> r(pFunc);
; 114  : 		m_Factory->RangeTest(p, radius, &r/*this*/);	
; 115  : 	}
; 116  : 
; 117  : 	template <class T>
; 118  : 	void ForInRay(const Vector3d &p1, const Vector3d &dir, T* pFunc)
; 119  : 	{
; 120  : 		RangeTester<T> r(pFunc);
; 121  : 		/*Vector3d p2;
; 122  : 		//p2.Set(p.x+(dir.x*50000.0f),p.y+(dir.y*50000.0f),p.z+(dir.z*50000.0f));
; 123  : 		p2.x = p.x+50000.0f*dir.x;
; 124  : 		p2.y = p.y+50000.0f*dir.y;
; 125  : 		p2.z = p.z+50000.0f*dir.z;
; 126  : 			// p + (50000.0f*dir);//(p.x+(dir.x*50000.0f),p.y+(dir.y*50000.0f),p.z+(dir.z*50000.0f));*/
; 127  : 		m_Factory->RayTrace(p1, dir, &r/*this*/);		

  00196	8d 44 24 34	 lea	 eax, DWORD PTR _r$8[esp+108]
  0019a	c6 44 24 68 01	 mov	 BYTE PTR __$EHRec$[esp+116], 1
  0019f	8b 4e 1c	 mov	 ecx, DWORD PTR [esi+28]
  001a2	50		 push	 eax
  001a3	8d 44 24 44	 lea	 eax, DWORD PTR _toTop$11[esp+112]
  001a7	50		 push	 eax
  001a8	8d 44 24 54	 lea	 eax, DWORD PTR _aVector3d$12[esp+116]
  001ac	50		 push	 eax
  001ad	e8 00 00 00 00	 call	 ?RayTrace@SpherePackFactory@@QAEXABVVector3d@@0PAVSpherePackCallback@@@Z ; SpherePackFactory::RayTrace
; File d:\metin2\metin2\client_source_clean\client_source_clean\source\userinterface\pythonbackground.cpp

; 385  : 		if (!__IsSame(kGetPortalID.m_kSet_iPortalID, m_kSet_iShowingPortalID))

  001b2	8d b7 e8 15 00
	00		 lea	 esi, DWORD PTR [edi+5608]
; File d:\metin2\metin2\client_source_clean\client_source_clean\source\eterlib\cullingmanager.h

; 128  : 	}

  001b8	c6 44 24 68 00	 mov	 BYTE PTR __$EHRec$[esp+116], 0
; File d:\metin2\metin2\client_source_clean\client_source_clean\source\userinterface\pythonbackground.cpp

; 385  : 		if (!__IsSame(kGetPortalID.m_kSet_iPortalID, m_kSet_iShowingPortalID))

  001bd	56		 push	 esi
  001be	8d 44 24 24	 lea	 eax, DWORD PTR _kGetPortalID$5[esp+120]
  001c2	50		 push	 eax
  001c3	e8 00 00 00 00	 call	 ?__IsSame@CPythonBackground@@IAE_NAAV?$set@HU?$less@H@std@@V?$allocator@H@2@@std@@0@Z ; CPythonBackground::__IsSame
  001c8	84 c0		 test	 al, al
  001ca	75 5d		 jne	 SHORT $LN104@Update

; 386  : 		{
; 387  : 			ClearPortal();

  001cc	8b cf		 mov	 ecx, edi
  001ce	e8 00 00 00 00	 call	 ?ClearPortal@CMapManager@@QAEXXZ ; CMapManager::ClearPortal
; File c:\program files (x86)\microsoft visual studio 12.0\vc\include\xtree

; 44   : 		{	// construct with node pointer _Pnode

  001d3	8b 4c 24 20	 mov	 ecx, DWORD PTR _kGetPortalID$5[esp+116]
  001d7	8b 01		 mov	 eax, DWORD PTR [ecx]
  001d9	89 44 24 0c	 mov	 DWORD PTR _itor$4[esp+108], eax

; 336  : 		return (this->_Ptr == _Right._Ptr);

  001dd	3b c1		 cmp	 eax, ecx
; File d:\metin2\metin2\client_source_clean\client_source_clean\source\userinterface\pythonbackground.cpp

; 389  : 			for (; itor!=kGetPortalID.m_kSet_iPortalID.end(); ++itor)

  001df	74 1d		 je	 SHORT $LN8@Update
$LL83@Update:

; 390  : 			{
; 391  : 				AddShowingPortalID(*itor);

  001e1	ff 70 10	 push	 DWORD PTR [eax+16]
  001e4	8b cf		 mov	 ecx, edi
  001e6	e8 00 00 00 00	 call	 ?AddShowingPortalID@CMapManager@@QAEXH@Z ; CMapManager::AddShowingPortalID
; File c:\program files (x86)\microsoft visual studio 12.0\vc\include\xtree

; 271  : 		++(*(_Mybase *)this);

  001eb	8d 4c 24 0c	 lea	 ecx, DWORD PTR _itor$4[esp+108]
  001ef	e8 00 00 00 00	 call	 ??E?$_Tree_unchecked_const_iterator@V?$_Tree_val@U?$_Tree_simple_types@H@std@@@std@@U_Iterator_base0@2@@std@@QAEAAV01@XZ ; std::_Tree_unchecked_const_iterator<std::_Tree_val<std::_Tree_simple_types<int> >,std::_Iterator_base0>::operator++

; 336  : 		return (this->_Ptr == _Right._Ptr);

  001f4	8b 44 24 0c	 mov	 eax, DWORD PTR _itor$4[esp+108]
  001f8	3b 44 24 20	 cmp	 eax, DWORD PTR _kGetPortalID$5[esp+116]
; File d:\metin2\metin2\client_source_clean\client_source_clean\source\userinterface\pythonbackground.cpp

; 389  : 			for (; itor!=kGetPortalID.m_kSet_iPortalID.end(); ++itor)

  001fc	75 e3		 jne	 SHORT $LL83@Update
$LN8@Update:

; 392  : 			}
; 393  : 			RefreshPortal();

  001fe	8b cf		 mov	 ecx, edi
  00200	e8 00 00 00 00	 call	 ?RefreshPortal@CMapManager@@QAEXXZ ; CMapManager::RefreshPortal
; File c:\program files (x86)\microsoft visual studio 12.0\vc\include\xtree

; 1197 : 		if (this != &_Right)

  00205	8d 44 24 20	 lea	 eax, DWORD PTR _kGetPortalID$5[esp+116]
  00209	3b f0		 cmp	 esi, eax
  0020b	74 1c		 je	 SHORT $LN104@Update

; 1198 : 			{	// different, assign it
; 1199 : 			clear();

  0020d	8b ce		 mov	 ecx, esi
  0020f	e8 00 00 00 00	 call	 ?clear@?$_Tree@V?$_Tset_traits@HU?$less@H@std@@V?$allocator@H@2@$0A@@std@@@std@@QAEXXZ ; std::_Tree<std::_Tset_traits<int,std::less<int>,std::allocator<int>,0> >::clear

; 1200 : 			if (this->_Getal() != _Right._Getal()
; 1201 : 				&& _Alty::propagate_on_container_copy_assignment::value)
; 1202 : 				this->_Change_alloc(_Right._Getal());
; 1203 : 
; 1204 : 			this->_Setcomp(_Right._Getcomp());
; 1205 : 			_Copy(_Right, false_type());

  00214	c6 44 24 0c 00	 mov	 BYTE PTR $T2[esp+108], 0
  00219	8d 44 24 20	 lea	 eax, DWORD PTR _kGetPortalID$5[esp+116]
  0021d	ff 74 24 0c	 push	 DWORD PTR $T2[esp+108]
  00221	8b ce		 mov	 ecx, esi
  00223	50		 push	 eax
  00224	e8 00 00 00 00	 call	 ??$_Copy@U?$integral_constant@_N$0A@@std@@@?$_Tree@V?$_Tset_traits@HU?$less@H@std@@V?$allocator@H@2@$0A@@std@@@std@@IAEXABV01@U?$integral_constant@_N$0A@@1@@Z ; std::_Tree<std::_Tset_traits<int,std::less<int>,std::allocator<int>,0> >::_Copy<std::integral_constant<bool,0> >
$LN104@Update:
; File d:\metin2\metin2\client_source_clean\client_source_clean\source\userinterface\pythonbackground.cpp

; 397  : 	}

  00229	c7 44 24 68 ff
	ff ff ff	 mov	 DWORD PTR __$EHRec$[esp+116], -1
; File c:\program files (x86)\microsoft visual studio 12.0\vc\include\xtree

; 2230 : 		erase(begin(), end());

  00231	8d 4c 24 20	 lea	 ecx, DWORD PTR _kGetPortalID$5[esp+116]

; 44   : 		{	// construct with node pointer _Pnode

  00235	8b 44 24 20	 mov	 eax, DWORD PTR _kGetPortalID$5[esp+116]

; 2230 : 		erase(begin(), end());

  00239	50		 push	 eax
  0023a	ff 30		 push	 DWORD PTR [eax]
  0023c	8d 44 24 30	 lea	 eax, DWORD PTR $T6[esp+116]
  00240	50		 push	 eax
  00241	e8 00 00 00 00	 call	 ?erase@?$_Tree@V?$_Tset_traits@HU?$less@H@std@@V?$allocator@H@2@$0A@@std@@@std@@QAE?AV?$_Tree_const_iterator@V?$_Tree_val@U?$_Tree_simple_types@H@std@@@std@@@2@V32@0@Z ; std::_Tree<std::_Tset_traits<int,std::less<int>,std::allocator<int>,0> >::erase
; File c:\program files (x86)\microsoft visual studio 12.0\vc\include\xmemory0

; 573  : 		::operator delete(_Ptr);

  00246	ff 74 24 20	 push	 DWORD PTR _kGetPortalID$5[esp+116]
  0024a	e8 00 00 00 00	 call	 ??3@YAXPAX@Z		; operator delete
  0024f	83 c4 04	 add	 esp, 4
$LN187@Update:
; File c:\program files (x86)\microsoft visual studio 12.0\vc\include\xtree

; 589  : 		return ((_Nodepref)_Pnode->_Left);

  00252	8b 87 f8 15 00
	00		 mov	 eax, DWORD PTR [edi+5624]

; 44   : 		{	// construct with node pointer _Pnode

  00258	8b 30		 mov	 esi, DWORD PTR [eax]

; 336  : 		return (this->_Ptr == _Right._Ptr);

  0025a	3b f0		 cmp	 esi, eax
; File d:\metin2\metin2\client_source_clean\client_source_clean\source\userinterface\pythonbackground.cpp

; 402  : 		for (; itor != m_kMap_dwTargetID_dwChrID.end(); ++itor)

  0025c	0f 84 b4 00 00
	00		 je	 $LN5@Update
$LL209@Update:

; 403  : 		{
; 404  : 			DWORD dwTargetID = itor->first;
; 405  : 			DWORD dwChrID = itor->second;
; 406  : 
; 407  : 			CInstanceBase * pInstance = CPythonCharacterManager::Instance().GetInstancePtr(dwChrID);

  00262	8b 0d 00 00 00
	00		 mov	 ecx, DWORD PTR ?ms_singleton@?$CSingleton@VCPythonCharacterManager@@@@0PAVCPythonCharacterManager@@A ; CSingleton<CPythonCharacterManager>::ms_singleton
  00268	8b 46 10	 mov	 eax, DWORD PTR [esi+16]
  0026b	83 c1 04	 add	 ecx, 4
  0026e	ff 76 14	 push	 DWORD PTR [esi+20]
  00271	89 44 24 10	 mov	 DWORD PTR _dwTargetID$1$[esp+112], eax
  00275	8b 01		 mov	 eax, DWORD PTR [ecx]
  00277	8b 40 08	 mov	 eax, DWORD PTR [eax+8]
  0027a	ff d0		 call	 eax

; 408  : 
; 409  : 			if (!pInstance)

  0027c	85 c0		 test	 eax, eax
  0027e	74 4a		 je	 SHORT $LN6@Update

; 410  : 				continue;
; 411  : 
; 412  : 			TPixelPosition kPixelPosition;
; 413  : 			pInstance->NEW_GetPixelPosition(&kPixelPosition);

  00280	8d 4c 24 34	 lea	 ecx, DWORD PTR _kPixelPosition$9[esp+108]
  00284	51		 push	 ecx
  00285	8b c8		 mov	 ecx, eax
  00287	e8 00 00 00 00	 call	 ?NEW_GetPixelPosition@CInstanceBase@@QAEXPAUD3DXVECTOR3@@@Z ; CInstanceBase::NEW_GetPixelPosition
; File c:\program files (x86)\microsoft visual studio 12.0\vc\include\xstring

; 520  : 			: this->_Bx._Buf);

  0028c	83 3d 14 00 00
	00 10		 cmp	 DWORD PTR ?g_strEffectName@@3V?$basic_string@DU?$char_traits@D@std@@V?$allocator@D@2@@std@@A+20, 16 ; 00000010H
  00293	b8 00 00 00 00	 mov	 eax, OFFSET ?g_strEffectName@@3V?$basic_string@DU?$char_traits@D@std@@V?$allocator@D@2@@std@@A ; g_strEffectName
; File d:\metin2\metin2\client_source_clean\client_source_clean\source\userinterface\pythonbackground.cpp

; 419  : 								g_strEffectName.c_str());

  00298	f3 0f 10 44 24
	3c		 movss	 xmm0, DWORD PTR _kPixelPosition$9[esp+116]
; File c:\program files (x86)\microsoft visual studio 12.0\vc\include\xstring

; 520  : 			: this->_Bx._Buf);

  0029e	0f 43 05 00 00
	00 00		 cmovae	 eax, DWORD PTR ?g_strEffectName@@3V?$basic_string@DU?$char_traits@D@std@@V?$allocator@D@2@@std@@A
; File d:\metin2\metin2\client_source_clean\client_source_clean\source\userinterface\pythonbackground.cpp

; 419  : 								g_strEffectName.c_str());

  002a5	f3 0f 10 5c 24
	38		 movss	 xmm3, DWORD PTR _kPixelPosition$9[esp+112]
  002ab	0f 57 1d 00 00
	00 00		 xorps	 xmm3, DWORD PTR __xmm@80000000800000008000000080000000
  002b2	f3 0f 10 54 24
	34		 movss	 xmm2, DWORD PTR _kPixelPosition$9[esp+108]
  002b8	50		 push	 eax
  002b9	51		 push	 ecx
  002ba	f3 0f 11 04 24	 movss	 DWORD PTR [esp], xmm0
  002bf	8b cf		 mov	 ecx, edi
  002c1	ff 74 24 14	 push	 DWORD PTR _dwTargetID$1$[esp+116]
  002c5	e8 00 00 00 00	 call	 ?CreateSpecialEffect@CPythonBackground@@QAEXKMMMPBD@Z ; CPythonBackground::CreateSpecialEffect
$LN6@Update:
; File c:\program files (x86)\microsoft visual studio 12.0\vc\include\xtree

; 60   : 		if (_Mytree::_Isnil(_Ptr))

  002ca	80 7e 0d 00	 cmp	 BYTE PTR [esi+13], 0
  002ce	75 3a		 jne	 SHORT $LN396@Update

; 571  : 		}
; 572  : 
; 573  : 	enum _Redbl
; 574  : 		{	// colors for link to parent
; 575  : 		_Red, _Black};
; 576  : 
; 577  : 	static char& _Color(_Nodeptr _Pnode)
; 578  : 		{	// return reference to color in node
; 579  : 		return ((char&)_Pnode->_Color);
; 580  : 		}
; 581  : 
; 582  : 	static char& _Isnil(_Nodeptr _Pnode)
; 583  : 		{	// return reference to nil flag in node
; 584  : 		return ((char&)_Pnode->_Isnil);

  002d0	8b 46 08	 mov	 eax, DWORD PTR [esi+8]

; 61   : 			;	// end() shouldn't be incremented, don't move
; 62   : 		else if (!_Mytree::_Isnil(_Mytree::_Right(_Ptr)))

  002d3	80 78 0d 00	 cmp	 BYTE PTR [eax+13], 0
  002d7	75 16		 jne	 SHORT $LN389@Update

; 63   : 			_Ptr = _Mytree::_Min(
; 64   : 				_Mytree::_Right(_Ptr));	// ==> smallest of right subtree

  002d9	8b f0		 mov	 esi, eax

; 571  : 		}
; 572  : 
; 573  : 	enum _Redbl
; 574  : 		{	// colors for link to parent
; 575  : 		_Red, _Black};
; 576  : 
; 577  : 	static char& _Color(_Nodeptr _Pnode)
; 578  : 		{	// return reference to color in node
; 579  : 		return ((char&)_Pnode->_Color);
; 580  : 		}
; 581  : 
; 582  : 	static char& _Isnil(_Nodeptr _Pnode)
; 583  : 		{	// return reference to nil flag in node
; 584  : 		return ((char&)_Pnode->_Isnil);

  002db	8b 06		 mov	 eax, DWORD PTR [esi]

; 590  : 		}
; 591  : 
; 592  : 	static _Nodepref _Parent(_Nodeptr _Pnode)
; 593  : 		{	// return reference to parent pointer in node
; 594  : 		return ((_Nodepref)_Pnode->_Parent);
; 595  : 		}
; 596  : 
; 597  : 	static _Nodepref _Right(_Nodeptr _Pnode)
; 598  : 		{	// return reference to right pointer in node
; 599  : 		return ((_Nodepref)_Pnode->_Right);
; 600  : 		}
; 601  : 
; 602  : 	static reference _Myval(_Nodeptr _Pnode)
; 603  : 		{	// return reference to value in node
; 604  : 		return ((reference)_Pnode->_Myval);
; 605  : 		}
; 606  : 
; 607  : 	static _Nodeptr _Max(_Nodeptr _Pnode)
; 608  : 		{	// return rightmost node in subtree at _Pnode
; 609  : 		while (!_Isnil(_Right(_Pnode)))
; 610  : 			_Pnode = _Right(_Pnode);
; 611  : 		return (_Pnode);
; 612  : 		}
; 613  : 
; 614  : 	static _Nodeptr _Min(_Nodeptr _Pnode)
; 615  : 		{	// return leftmost node in subtree at _Pnode
; 616  : 		while (!_Isnil(_Left(_Pnode)))

  002dd	80 78 0d 00	 cmp	 BYTE PTR [eax+13], 0
  002e1	75 27		 jne	 SHORT $LN396@Update
$LL224@Update:

; 617  : 			_Pnode = _Left(_Pnode);

  002e3	8b f0		 mov	 esi, eax

; 571  : 		}
; 572  : 
; 573  : 	enum _Redbl
; 574  : 		{	// colors for link to parent
; 575  : 		_Red, _Black};
; 576  : 
; 577  : 	static char& _Color(_Nodeptr _Pnode)
; 578  : 		{	// return reference to color in node
; 579  : 		return ((char&)_Pnode->_Color);
; 580  : 		}
; 581  : 
; 582  : 	static char& _Isnil(_Nodeptr _Pnode)
; 583  : 		{	// return reference to nil flag in node
; 584  : 		return ((char&)_Pnode->_Isnil);

  002e5	8b 06		 mov	 eax, DWORD PTR [esi]

; 590  : 		}
; 591  : 
; 592  : 	static _Nodepref _Parent(_Nodeptr _Pnode)
; 593  : 		{	// return reference to parent pointer in node
; 594  : 		return ((_Nodepref)_Pnode->_Parent);
; 595  : 		}
; 596  : 
; 597  : 	static _Nodepref _Right(_Nodeptr _Pnode)
; 598  : 		{	// return reference to right pointer in node
; 599  : 		return ((_Nodepref)_Pnode->_Right);
; 600  : 		}
; 601  : 
; 602  : 	static reference _Myval(_Nodeptr _Pnode)
; 603  : 		{	// return reference to value in node
; 604  : 		return ((reference)_Pnode->_Myval);
; 605  : 		}
; 606  : 
; 607  : 	static _Nodeptr _Max(_Nodeptr _Pnode)
; 608  : 		{	// return rightmost node in subtree at _Pnode
