; Listing generated by Microsoft (R) Optimizing Compiler Version 18.00.40629.0 

	TITLE	D:\Metin2\Metin2\client_source_clean\client_source_clean\source\UserInterface\PythonTextTailModule.cpp
	.686P
	.XMM
	include listing.inc
	.model	flat

INCLUDELIB OLDNAMES

PUBLIC	??_C@_0BC@HIDLOAIP@UpdateAllTextTail?$AA@	; `string'
PUBLIC	??_C@_0BB@NMNDPCFJ@ShowItemTextTail?$AA@	; `string'
PUBLIC	??_C@_0M@GFJLCLIA@GetPosition?$AA@		; `string'
PUBLIC	??_C@_0BG@CGLFBHI@UpdateShowingTextTail?$AA@	; `string'
PUBLIC	??_C@_0BG@LIPEMMLC@ShowCharacterTextTail?$AA@	; `string'
PUBLIC	??_C@_0BA@PONNLPCF@HideAllTextTail?$AA@		; `string'
PUBLIC	??_C@_0BA@GALJFJJC@ShowAllTextTail?$AA@		; `string'
PUBLIC	??_C@_06NNDBIPNE@IsChat?$AA@			; `string'
PUBLIC	??_C@_0BA@FCGIHNAB@ArrangeTextTail?$AA@		; `string'
PUBLIC	??_C@_0BK@HJNOJEAA@RegisterCharacterTextTail?$AA@ ; `string'
PUBLIC	??_C@_0BB@HKPOGMDA@RegisterChatTail?$AA@	; `string'
PUBLIC	??_C@_0P@KGIJNKFO@SelectItemName?$AA@		; `string'
PUBLIC	??_C@_0O@NECGPBDE@EnablePKTitle?$AA@		; `string'
PUBLIC	??_C@_08KDMBCLKF@textTail?$AA@			; `string'
PUBLIC	??_C@_0BB@IFAJCDPP@RegisterInfoTail?$AA@	; `string'
PUBLIC	??_C@_0M@INLHDDBB@AttachTitle?$AA@		; `string'
;	COMDAT ?s_methods@?1??initTextTail@@YAXXZ@4PAUPyMethodDef@@A
_DATA	SEGMENT
?s_methods@?1??initTextTail@@YAXXZ@4PAUPyMethodDef@@A DD FLAT:??_C@_05MDNHABIA@Clear?$AA@ ; `initTextTail'::`2'::s_methods
	DD	FLAT:?textTailClear@@YAPAU_object@@PAU1@0@Z
	DD	01H
	ORG $+4
	DD	FLAT:??_C@_0BC@HIDLOAIP@UpdateAllTextTail?$AA@
	DD	FLAT:?textTailUpdateAllTextTail@@YAPAU_object@@PAU1@0@Z
	DD	01H
	ORG $+4
	DD	FLAT:??_C@_0BG@CGLFBHI@UpdateShowingTextTail?$AA@
	DD	FLAT:?textTailUpdateShowingTextTail@@YAPAU_object@@PAU1@0@Z
	DD	01H
	ORG $+4
	DD	FLAT:??_C@_06EPLDPNDB@Render?$AA@
	DD	FLAT:?textTailRender@@YAPAU_object@@PAU1@0@Z
	DD	01H
	ORG $+4
	DD	FLAT:??_C@_0BG@LIPEMMLC@ShowCharacterTextTail?$AA@
	DD	FLAT:?textTailShowCharacterTextTail@@YAPAU_object@@PAU1@0@Z
	DD	01H
	ORG $+4
	DD	FLAT:??_C@_0BB@NMNDPCFJ@ShowItemTextTail?$AA@
	DD	FLAT:?textTailShowItemTextTail@@YAPAU_object@@PAU1@0@Z
	DD	01H
	ORG $+4
	DD	FLAT:??_C@_0M@GFJLCLIA@GetPosition?$AA@
	DD	FLAT:?textTailGetPosition@@YAPAU_object@@PAU1@0@Z
	DD	01H
	ORG $+4
	DD	FLAT:??_C@_06NNDBIPNE@IsChat?$AA@
	DD	FLAT:?textTailIsChat@@YAPAU_object@@PAU1@0@Z
	DD	01H
	ORG $+4
	DD	FLAT:??_C@_0BA@FCGIHNAB@ArrangeTextTail?$AA@
	DD	FLAT:?textTailArrangeTextTail@@YAPAU_object@@PAU1@0@Z
	DD	01H
	ORG $+4
	DD	FLAT:??_C@_0BA@PONNLPCF@HideAllTextTail?$AA@
	DD	FLAT:?textTailHideAllTextTail@@YAPAU_object@@PAU1@0@Z
	DD	01H
	ORG $+4
	DD	FLAT:??_C@_0BA@GALJFJJC@ShowAllTextTail?$AA@
	DD	FLAT:?textTailShowAllTextTail@@YAPAU_object@@PAU1@0@Z
	DD	01H
	ORG $+4
	DD	FLAT:??_C@_04ILHILILF@Pick?$AA@
	DD	FLAT:?textTailPick@@YAPAU_object@@PAU1@0@Z
	DD	01H
	ORG $+4
	DD	FLAT:??_C@_0P@KGIJNKFO@SelectItemName?$AA@
	DD	FLAT:?textTailSelectItemName@@YAPAU_object@@PAU1@0@Z
	DD	01H
	ORG $+4
	DD	FLAT:??_C@_0O@NECGPBDE@EnablePKTitle?$AA@
	DD	FLAT:?textTailEnablePKTitle@@YAPAU_object@@PAU1@0@Z
	DD	01H
	ORG $+4
	DD	FLAT:??_C@_0BK@HJNOJEAA@RegisterCharacterTextTail?$AA@
	DD	FLAT:?textTailRegisterCharacterTextTail@@YAPAU_object@@PAU1@0@Z
	DD	01H
	ORG $+4
	DD	FLAT:??_C@_0BB@HKPOGMDA@RegisterChatTail?$AA@
	DD	FLAT:?textTailRegisterChatTail@@YAPAU_object@@PAU1@0@Z
	DD	01H
	ORG $+4
	DD	FLAT:??_C@_0BB@IFAJCDPP@RegisterInfoTail?$AA@
	DD	FLAT:?textTailRegisterInfoTail@@YAPAU_object@@PAU1@0@Z
	DD	01H
	ORG $+4
	DD	FLAT:??_C@_0M@INLHDDBB@AttachTitle?$AA@
	DD	FLAT:?textTailAttachTitle@@YAPAU_object@@PAU1@0@Z
	DD	01H
	ORG $+4
	DD	00H
	DD	00H
	DD	00H
	ORG $+4
_DATA	ENDS
;	COMDAT ??_C@_0M@INLHDDBB@AttachTitle?$AA@
CONST	SEGMENT
??_C@_0M@INLHDDBB@AttachTitle?$AA@ DB 'AttachTitle', 00H ; `string'
CONST	ENDS
;	COMDAT ??_C@_0BB@IFAJCDPP@RegisterInfoTail?$AA@
CONST	SEGMENT
??_C@_0BB@IFAJCDPP@RegisterInfoTail?$AA@ DB 'RegisterInfoTail', 00H ; `string'
CONST	ENDS
;	COMDAT ??_C@_08KDMBCLKF@textTail?$AA@
CONST	SEGMENT
??_C@_08KDMBCLKF@textTail?$AA@ DB 'textTail', 00H	; `string'
CONST	ENDS
;	COMDAT ??_C@_0O@NECGPBDE@EnablePKTitle?$AA@
CONST	SEGMENT
??_C@_0O@NECGPBDE@EnablePKTitle?$AA@ DB 'EnablePKTitle', 00H ; `string'
CONST	ENDS
;	COMDAT ??_C@_0P@KGIJNKFO@SelectItemName?$AA@
CONST	SEGMENT
??_C@_0P@KGIJNKFO@SelectItemName?$AA@ DB 'SelectItemName', 00H ; `string'
CONST	ENDS
;	COMDAT ??_C@_0BB@HKPOGMDA@RegisterChatTail?$AA@
CONST	SEGMENT
??_C@_0BB@HKPOGMDA@RegisterChatTail?$AA@ DB 'RegisterChatTail', 00H ; `string'
CONST	ENDS
;	COMDAT ??_C@_0BK@HJNOJEAA@RegisterCharacterTextTail?$AA@
CONST	SEGMENT
??_C@_0BK@HJNOJEAA@RegisterCharacterTextTail?$AA@ DB 'RegisterCharacterTe'
	DB	'xtTail', 00H				; `string'
CONST	ENDS
;	COMDAT ??_C@_0BA@FCGIHNAB@ArrangeTextTail?$AA@
CONST	SEGMENT
??_C@_0BA@FCGIHNAB@ArrangeTextTail?$AA@ DB 'ArrangeTextTail', 00H ; `string'
CONST	ENDS
;	COMDAT ??_C@_06NNDBIPNE@IsChat?$AA@
CONST	SEGMENT
??_C@_06NNDBIPNE@IsChat?$AA@ DB 'IsChat', 00H		; `string'
CONST	ENDS
;	COMDAT ??_C@_0BA@GALJFJJC@ShowAllTextTail?$AA@
CONST	SEGMENT
??_C@_0BA@GALJFJJC@ShowAllTextTail?$AA@ DB 'ShowAllTextTail', 00H ; `string'
CONST	ENDS
;	COMDAT ??_C@_0BA@PONNLPCF@HideAllTextTail?$AA@
CONST	SEGMENT
??_C@_0BA@PONNLPCF@HideAllTextTail?$AA@ DB 'HideAllTextTail', 00H ; `string'
CONST	ENDS
;	COMDAT ??_C@_0BG@LIPEMMLC@ShowCharacterTextTail?$AA@
CONST	SEGMENT
??_C@_0BG@LIPEMMLC@ShowCharacterTextTail?$AA@ DB 'ShowCharacterTextTail', 00H ; `string'
CONST	ENDS
;	COMDAT ??_C@_0BG@CGLFBHI@UpdateShowingTextTail?$AA@
CONST	SEGMENT
??_C@_0BG@CGLFBHI@UpdateShowingTextTail?$AA@ DB 'UpdateShowingTextTail', 00H ; `string'
CONST	ENDS
;	COMDAT ??_C@_0M@GFJLCLIA@GetPosition?$AA@
CONST	SEGMENT
??_C@_0M@GFJLCLIA@GetPosition?$AA@ DB 'GetPosition', 00H ; `string'
CONST	ENDS
;	COMDAT ??_C@_0BB@NMNDPCFJ@ShowItemTextTail?$AA@
CONST	SEGMENT
??_C@_0BB@NMNDPCFJ@ShowItemTextTail?$AA@ DB 'ShowItemTextTail', 00H ; `string'
CONST	ENDS
;	COMDAT ??_C@_0BC@HIDLOAIP@UpdateAllTextTail?$AA@
CONST	SEGMENT
??_C@_0BC@HIDLOAIP@UpdateAllTextTail?$AA@ DB 'UpdateAllTextTail', 00H ; `string'
PUBLIC	?initTextTail@@YAXXZ				; initTextTail
PUBLIC	?textTailEnablePKTitle@@YAPAU_object@@PAU1@0@Z	; textTailEnablePKTitle
PUBLIC	?textTailSelectItemName@@YAPAU_object@@PAU1@0@Z	; textTailSelectItemName
PUBLIC	?textTailPick@@YAPAU_object@@PAU1@0@Z		; textTailPick
PUBLIC	?textTailShowAllTextTail@@YAPAU_object@@PAU1@0@Z ; textTailShowAllTextTail
PUBLIC	?textTailHideAllTextTail@@YAPAU_object@@PAU1@0@Z ; textTailHideAllTextTail
PUBLIC	?textTailArrangeTextTail@@YAPAU_object@@PAU1@0@Z ; textTailArrangeTextTail
PUBLIC	?textTailShowItemTextTail@@YAPAU_object@@PAU1@0@Z ; textTailShowItemTextTail
PUBLIC	?textTailShowCharacterTextTail@@YAPAU_object@@PAU1@0@Z ; textTailShowCharacterTextTail
PUBLIC	?textTailAttachTitle@@YAPAU_object@@PAU1@0@Z	; textTailAttachTitle
PUBLIC	?textTailRegisterInfoTail@@YAPAU_object@@PAU1@0@Z ; textTailRegisterInfoTail
PUBLIC	?textTailRegisterChatTail@@YAPAU_object@@PAU1@0@Z ; textTailRegisterChatTail
PUBLIC	?textTailIsChat@@YAPAU_object@@PAU1@0@Z		; textTailIsChat
PUBLIC	?textTailGetPosition@@YAPAU_object@@PAU1@0@Z	; textTailGetPosition
PUBLIC	?textTailRegisterCharacterTextTail@@YAPAU_object@@PAU1@0@Z ; textTailRegisterCharacterTextTail
PUBLIC	?textTailRender@@YAPAU_object@@PAU1@0@Z		; textTailRender
PUBLIC	?textTailUpdateShowingTextTail@@YAPAU_object@@PAU1@0@Z ; textTailUpdateShowingTextTail
PUBLIC	?textTailUpdateAllTextTail@@YAPAU_object@@PAU1@0@Z ; textTailUpdateAllTextTail
PUBLIC	?textTailClear@@YAPAU_object@@PAU1@0@Z		; textTailClear
; Function compile flags: /Ogtp
; File d:\metin2\metin2\client_source_clean\client_source_clean\source\userinterface\pythontexttailmodule.cpp
;	COMDAT ?textTailClear@@YAPAU_object@@PAU1@0@Z
_TEXT	SEGMENT
_poSelf$ = 8						; size = 4
_poArgs$ = 12						; size = 4
?textTailClear@@YAPAU_object@@PAU1@0@Z PROC		; textTailClear, COMDAT

; 7    : 	CPythonTextTail::Instance().Clear();

  00000	8b 0d 00 00 00
	00		 mov	 ecx, DWORD PTR ?ms_singleton@?$CSingleton@VCPythonTextTail@@@@0PAVCPythonTextTail@@A ; CSingleton<CPythonTextTail>::ms_singleton
  00006	e8 00 00 00 00	 call	 ?Clear@CPythonTextTail@@QAEXXZ ; CPythonTextTail::Clear

; 8    : 	return Py_BuildNone();

  0000b	e9 00 00 00 00	 jmp	 ?Py_BuildNone@@YAPAU_object@@XZ ; Py_BuildNone
?textTailClear@@YAPAU_object@@PAU1@0@Z ENDP		; textTailClear
_TEXT	ENDS
; Function compile flags: /Ogtp
; File d:\metin2\metin2\client_source_clean\client_source_clean\source\userinterface\pythontexttailmodule.cpp
;	COMDAT ?textTailUpdateAllTextTail@@YAPAU_object@@PAU1@0@Z
_TEXT	SEGMENT
_poSelf$ = 8						; size = 4
_poArgs$ = 12						; size = 4
?textTailUpdateAllTextTail@@YAPAU_object@@PAU1@0@Z PROC	; textTailUpdateAllTextTail, COMDAT

; 13   : 	CPythonTextTail::Instance().UpdateAllTextTail();

  00000	8b 0d 00 00 00
	00		 mov	 ecx, DWORD PTR ?ms_singleton@?$CSingleton@VCPythonTextTail@@@@0PAVCPythonTextTail@@A ; CSingleton<CPythonTextTail>::ms_singleton
  00006	e8 00 00 00 00	 call	 ?UpdateAllTextTail@CPythonTextTail@@QAEXXZ ; CPythonTextTail::UpdateAllTextTail

; 14   : 	return Py_BuildNone();

  0000b	e9 00 00 00 00	 jmp	 ?Py_BuildNone@@YAPAU_object@@XZ ; Py_BuildNone
?textTailUpdateAllTextTail@@YAPAU_object@@PAU1@0@Z ENDP	; textTailUpdateAllTextTail
_TEXT	ENDS
; Function compile flags: /Ogtp
; File d:\metin2\metin2\client_source_clean\client_source_clean\source\userinterface\pythontexttailmodule.cpp
;	COMDAT ?textTailUpdateShowingTextTail@@YAPAU_object@@PAU1@0@Z
_TEXT	SEGMENT
_poSelf$ = 8						; size = 4
_poArgs$ = 12						; size = 4
?textTailUpdateShowingTextTail@@YAPAU_object@@PAU1@0@Z PROC ; textTailUpdateShowingTextTail, COMDAT

; 19   : 	CPythonTextTail::Instance().UpdateShowingTextTail();

  00000	8b 0d 00 00 00
	00		 mov	 ecx, DWORD PTR ?ms_singleton@?$CSingleton@VCPythonTextTail@@@@0PAVCPythonTextTail@@A ; CSingleton<CPythonTextTail>::ms_singleton
  00006	e8 00 00 00 00	 call	 ?UpdateShowingTextTail@CPythonTextTail@@QAEXXZ ; CPythonTextTail::UpdateShowingTextTail

; 20   : 	return Py_BuildNone();

  0000b	e9 00 00 00 00	 jmp	 ?Py_BuildNone@@YAPAU_object@@XZ ; Py_BuildNone
?textTailUpdateShowingTextTail@@YAPAU_object@@PAU1@0@Z ENDP ; textTailUpdateShowingTextTail
_TEXT	ENDS
; Function compile flags: /Ogtp
; File d:\metin2\metin2\client_source_clean\client_source_clean\source\userinterface\pythontexttailmodule.cpp
;	COMDAT ?textTailRender@@YAPAU_object@@PAU1@0@Z
_TEXT	SEGMENT
_poSelf$ = 8						; size = 4
_poArgs$ = 12						; size = 4
?textTailRender@@YAPAU_object@@PAU1@0@Z PROC		; textTailRender, COMDAT

; 25   : 	CPythonTextTail::Instance().Render();

  00000	8b 0d 00 00 00
	00		 mov	 ecx, DWORD PTR ?ms_singleton@?$CSingleton@VCPythonTextTail@@@@0PAVCPythonTextTail@@A ; CSingleton<CPythonTextTail>::ms_singleton
  00006	e8 00 00 00 00	 call	 ?Render@CPythonTextTail@@QAEXXZ ; CPythonTextTail::Render

; 26   : 	return Py_BuildNone();

  0000b	e9 00 00 00 00	 jmp	 ?Py_BuildNone@@YAPAU_object@@XZ ; Py_BuildNone
?textTailRender@@YAPAU_object@@PAU1@0@Z ENDP		; textTailRender
_TEXT	ENDS
; Function compile flags: /Ogtp
; File d:\metin2\metin2\client_source_clean\client_source_clean\source\userinterface\pythontexttailmodule.cpp
;	COMDAT ?textTailRegisterCharacterTextTail@@YAPAU_object@@PAU1@0@Z
_TEXT	SEGMENT
_iVirtualID$ = -24					; size = 4
_iGuildID$ = -20					; size = 4
$T1 = -16						; size = 16
_poSelf$ = 8						; size = 4
_poArgs$ = 12						; size = 4
?textTailRegisterCharacterTextTail@@YAPAU_object@@PAU1@0@Z PROC ; textTailRegisterCharacterTextTail, COMDAT

; 30   : {

  00000	55		 push	 ebp
  00001	8b ec		 mov	 ebp, esp
  00003	83 e4 f8	 and	 esp, -8			; fffffff8H
  00006	83 ec 18	 sub	 esp, 24			; 00000018H

; 31   : 	int iGuildID;
; 32   : 	if (!PyTuple_GetInteger(poArgs, 0, &iGuildID))

  00009	8d 44 24 04	 lea	 eax, DWORD PTR _iGuildID$[esp+24]
  0000d	50		 push	 eax
  0000e	6a 00		 push	 0
  00010	ff 75 0c	 push	 DWORD PTR _poArgs$[ebp]
  00013	e8 00 00 00 00	 call	 ?PyTuple_GetInteger@@YA_NPAU_object@@HPAH@Z ; PyTuple_GetInteger
  00018	83 c4 0c	 add	 esp, 12			; 0000000cH
  0001b	84 c0		 test	 al, al
  0001d	75 0e		 jne	 SHORT $LN2@textTailRe
$LN20@textTailRe:

; 33   : 		return Py_BuildException();

  0001f	6a 00		 push	 0
  00021	e8 00 00 00 00	 call	 ?Py_BuildException@@YAPAU_object@@PBDZZ ; Py_BuildException
  00026	83 c4 04	 add	 esp, 4

; 41   : }

  00029	8b e5		 mov	 esp, ebp
  0002b	5d		 pop	 ebp
  0002c	c3		 ret	 0
$LN2@textTailRe:

; 34   : 	int iVirtualID;
; 35   : 	if (!PyTuple_GetInteger(poArgs, 1, &iVirtualID))

  0002d	8d 04 24	 lea	 eax, DWORD PTR _iVirtualID$[esp+24]
  00030	50		 push	 eax
  00031	6a 01		 push	 1
  00033	ff 75 0c	 push	 DWORD PTR _poArgs$[ebp]
  00036	e8 00 00 00 00	 call	 ?PyTuple_GetInteger@@YA_NPAU_object@@HPAH@Z ; PyTuple_GetInteger
  0003b	83 c4 0c	 add	 esp, 12			; 0000000cH
  0003e	84 c0		 test	 al, al
  00040	74 dd		 je	 SHORT $LN20@textTailRe

; 36   : 		return Py_BuildException();
; 37   : 
; 38   : 	CPythonTextTail::Instance().RegisterCharacterTextTail(iGuildID, iVirtualID, D3DXCOLOR(1.0f, 1.0f, 1.0f, 1.0f));

  00042	0f 28 05 00 00
	00 00		 movaps	 xmm0, XMMWORD PTR __xmm@3f8000003f8000003f8000003f800000
  00049	8d 44 24 08	 lea	 eax, DWORD PTR $T1[esp+24]
  0004d	51		 push	 ecx
  0004e	8b 0d 00 00 00
	00		 mov	 ecx, DWORD PTR ?ms_singleton@?$CSingleton@VCPythonTextTail@@@@0PAVCPythonTextTail@@A ; CSingleton<CPythonTextTail>::ms_singleton
  00054	c7 04 24 00 00
	20 41		 mov	 DWORD PTR [esp], 1092616192 ; 41200000H
  0005b	50		 push	 eax
  0005c	ff 74 24 08	 push	 DWORD PTR _iVirtualID$[esp+32]
  00060	0f 11 44 24 14	 movups	 XMMWORD PTR $T1[esp+36], xmm0
  00065	ff 74 24 10	 push	 DWORD PTR _iGuildID$[esp+36]
  00069	e8 00 00 00 00	 call	 ?RegisterCharacterTextTail@CPythonTextTail@@QAEXKKABUD3DXCOLOR@@M@Z ; CPythonTextTail::RegisterCharacterTextTail

; 39   : 
; 40   : 	return Py_BuildNone();

  0006e	e8 00 00 00 00	 call	 ?Py_BuildNone@@YAPAU_object@@XZ ; Py_BuildNone

; 41   : }

  00073	8b e5		 mov	 esp, ebp
  00075	5d		 pop	 ebp
  00076	c3		 ret	 0
?textTailRegisterCharacterTextTail@@YAPAU_object@@PAU1@0@Z ENDP ; textTailRegisterCharacterTextTail
_TEXT	ENDS
; Function compile flags: /Ogtp
; File d:\metin2\metin2\client_source_clean\client_source_clean\source\userinterface\pythontexttailmodule.cpp
;	COMDAT ?textTailGetPosition@@YAPAU_object@@PAU1@0@Z
_TEXT	SEGMENT
_y$ = -16						; size = 4
_x$ = -12						; size = 4
_z$ = -8						; size = 4
_VirtualID$ = -4					; size = 4
_poSelf$ = 8						; size = 4
_poArgs$ = 12						; size = 4
?textTailGetPosition@@YAPAU_object@@PAU1@0@Z PROC	; textTailGetPosition, COMDAT

; 44   : {

  00000	55		 push	 ebp
  00001	8b ec		 mov	 ebp, esp
  00003	83 e4 c0	 and	 esp, -64		; ffffffc0H
  00006	83 ec 40	 sub	 esp, 64			; 00000040H

; 45   : 	int VirtualID;
; 46   : 	if (!PyTuple_GetInteger(poArgs, 0, &VirtualID))

  00009	8d 44 24 3c	 lea	 eax, DWORD PTR _VirtualID$[esp+64]
  0000d	50		 push	 eax
  0000e	6a 00		 push	 0
  00010	ff 75 0c	 push	 DWORD PTR _poArgs$[ebp]
  00013	e8 00 00 00 00	 call	 ?PyTuple_GetInteger@@YA_NPAU_object@@HPAH@Z ; PyTuple_GetInteger
  00018	83 c4 0c	 add	 esp, 12			; 0000000cH
  0001b	84 c0		 test	 al, al
  0001d	75 0e		 jne	 SHORT $LN3@textTailGe

; 47   : 		return Py_BuildException();

  0001f	6a 00		 push	 0
  00021	e8 00 00 00 00	 call	 ?Py_BuildException@@YAPAU_object@@PBDZZ ; Py_BuildException
  00026	83 c4 04	 add	 esp, 4

; 65   : }

  00029	8b e5		 mov	 esp, ebp
  0002b	5d		 pop	 ebp
  0002c	c3		 ret	 0
$LN3@textTailGe:

; 48   : 
; 49   : 	float x=0.0f;
; 50   : 	float y=0.0f;
; 51   : 	float z=0.0f;
; 52   : 	bool isData=CPythonTextTail::Instance().GetTextTailPosition(VirtualID, &x, &y, &z);

  0002d	8b 0d 00 00 00
	00		 mov	 ecx, DWORD PTR ?ms_singleton@?$CSingleton@VCPythonTextTail@@@@0PAVCPythonTextTail@@A ; CSingleton<CPythonTextTail>::ms_singleton
  00033	8d 44 24 38	 lea	 eax, DWORD PTR _z$[esp+64]
  00037	50		 push	 eax
  00038	8d 44 24 34	 lea	 eax, DWORD PTR _y$[esp+68]
  0003c	c7 44 24 38 00
	00 00 00	 mov	 DWORD PTR _x$[esp+68], 0
  00044	50		 push	 eax
  00045	8d 44 24 3c	 lea	 eax, DWORD PTR _x$[esp+72]
  00049	c7 44 24 38 00
	00 00 00	 mov	 DWORD PTR _y$[esp+72], 0
  00051	50		 push	 eax
  00052	ff 74 24 48	 push	 DWORD PTR _VirtualID$[esp+76]
  00056	c7 44 24 48 00
	00 00 00	 mov	 DWORD PTR _z$[esp+80], 0
  0005e	e8 00 00 00 00	 call	 ?GetTextTailPosition@CPythonTextTail@@QAE_NKPAM00@Z ; CPythonTextTail::GetTextTailPosition

; 53   : 	if (!isData)

  00063	84 c0		 test	 al, al
  00065	75 54		 jne	 SHORT $LN1@textTailGe

; 54   : 	{
; 55   : 		CPythonCharacterManager& rkChrMgr=CPythonCharacterManager::Instance();
; 56   : 		CInstanceBase* pkInstMain=rkChrMgr.GetMainInstancePtr();

  00067	8b 0d 00 00 00
	00		 mov	 ecx, DWORD PTR ?ms_singleton@?$CSingleton@VCPythonCharacterManager@@@@0PAVCPythonCharacterManager@@A ; CSingleton<CPythonCharacterManager>::ms_singleton
  0006d	e8 00 00 00 00	 call	 ?GetMainInstancePtr@CPythonCharacterManager@@QAEPAVCInstanceBase@@XZ ; CPythonCharacterManager::GetMainInstancePtr

; 57   : 		if (pkInstMain)

  00072	85 c0		 test	 eax, eax
  00074	74 45		 je	 SHORT $LN1@textTailGe

; 58   : 		{
; 59   : 			const D3DXVECTOR3 & c_rv3Position = pkInstMain->GetGraphicThingInstanceRef().GetPosition();

  00076	8b c8		 mov	 ecx, eax
  00078	e8 00 00 00 00	 call	 ?GetGraphicThingInstanceRef@CInstanceBase@@QAEAAVCActorInstance@@XZ ; CInstanceBase::GetGraphicThingInstanceRef
  0007d	8b c8		 mov	 ecx, eax
  0007f	e8 00 00 00 00	 call	 ?GetPosition@CGraphicObjectInstance@@QBEABUD3DXVECTOR3@@XZ ; CGraphicObjectInstance::GetPosition

; 60   : 			CPythonGraphic::Instance().ProjectPosition(c_rv3Position.x, c_rv3Position.y, c_rv3Position.z, &x, &y);	

  00084	8d 4c 24 30	 lea	 ecx, DWORD PTR _y$[esp+64]
  00088	51		 push	 ecx
  00089	8d 4c 24 38	 lea	 ecx, DWORD PTR _x$[esp+68]
  0008d	f3 0f 10 40 08	 movss	 xmm0, DWORD PTR [eax+8]
  00092	51		 push	 ecx
  00093	8b 0d 00 00 00
	00		 mov	 ecx, DWORD PTR ?ms_singleton@?$CSingleton@VCPythonGraphic@@@@0PAVCPythonGraphic@@A ; CSingleton<CPythonGraphic>::ms_singleton
  00099	83 ec 0c	 sub	 esp, 12			; 0000000cH
  0009c	f3 0f 11 44 24
	08		 movss	 DWORD PTR [esp+8], xmm0
  000a2	f3 0f 10 40 04	 movss	 xmm0, DWORD PTR [eax+4]
  000a7	f3 0f 11 44 24
	04		 movss	 DWORD PTR [esp+4], xmm0
  000ad	f3 0f 10 00	 movss	 xmm0, DWORD PTR [eax]
  000b1	f3 0f 11 04 24	 movss	 DWORD PTR [esp], xmm0
  000b6	e8 00 00 00 00	 call	 ?ProjectPosition@CScreen@@QAEXMMMPAM0@Z ; CScreen::ProjectPosition
$LN1@textTailGe:

; 61   : 		}
; 62   : 	}	
; 63   : 
; 64   : 	return Py_BuildValue("fff", x, y, z);

  000bb	f3 0f 10 44 24
	38		 movss	 xmm0, DWORD PTR _z$[esp+64]
  000c1	83 ec 18	 sub	 esp, 24			; 00000018H
  000c4	0f 5a c0	 cvtps2pd xmm0, xmm0
  000c7	f2 0f 11 44 24
	10		 movsd	 QWORD PTR [esp+16], xmm0
  000cd	f3 0f 10 44 24
	48		 movss	 xmm0, DWORD PTR _y$[esp+88]
  000d3	0f 5a c0	 cvtps2pd xmm0, xmm0
  000d6	f2 0f 11 44 24
	08		 movsd	 QWORD PTR [esp+8], xmm0
  000dc	f3 0f 10 44 24
	4c		 movss	 xmm0, DWORD PTR _x$[esp+88]
  000e2	0f 5a c0	 cvtps2pd xmm0, xmm0
  000e5	f2 0f 11 04 24	 movsd	 QWORD PTR [esp], xmm0
  000ea	68 00 00 00 00	 push	 OFFSET ??_C@_03LPALPDIP@fff?$AA@
  000ef	ff 15 00 00 00
	00		 call	 DWORD PTR __imp__Py_BuildValue
  000f5	83 c4 1c	 add	 esp, 28			; 0000001cH

; 65   : }

  000f8	8b e5		 mov	 esp, ebp
  000fa	5d		 pop	 ebp
  000fb	c3		 ret	 0
?textTailGetPosition@@YAPAU_object@@PAU1@0@Z ENDP	; textTailGetPosition
_TEXT	ENDS
; Function compile flags: /Ogtp
; File d:\metin2\metin2\client_source_clean\client_source_clean\source\userinterface\pythontexttailmodule.cpp
;	COMDAT ?textTailIsChat@@YAPAU_object@@PAU1@0@Z
_TEXT	SEGMENT
_VirtualID$ = -4					; size = 4
_poSelf$ = 8						; size = 4
_poArgs$ = 12						; size = 4
?textTailIsChat@@YAPAU_object@@PAU1@0@Z PROC		; textTailIsChat, COMDAT

; 68   : {

  00000	55		 push	 ebp
  00001	8b ec		 mov	 ebp, esp
  00003	51		 push	 ecx

; 69   : 	int VirtualID;
; 70   : 	if (!PyTuple_GetInteger(poArgs, 0, &VirtualID))

  00004	8d 45 fc	 lea	 eax, DWORD PTR _VirtualID$[ebp]
  00007	50		 push	 eax
  00008	6a 00		 push	 0
  0000a	ff 75 0c	 push	 DWORD PTR _poArgs$[ebp]
  0000d	e8 00 00 00 00	 call	 ?PyTuple_GetInteger@@YA_NPAU_object@@HPAH@Z ; PyTuple_GetInteger
  00012	83 c4 0c	 add	 esp, 12			; 0000000cH
  00015	84 c0		 test	 al, al
  00017	75 0e		 jne	 SHORT $LN1@textTailIs

; 71   : 		return Py_BuildException();

  00019	6a 00		 push	 0
  0001b	e8 00 00 00 00	 call	 ?Py_BuildException@@YAPAU_object@@PBDZZ ; Py_BuildException
  00020	83 c4 04	 add	 esp, 4

; 74   : }

  00023	8b e5		 mov	 esp, ebp
  00025	5d		 pop	 ebp
  00026	c3		 ret	 0
$LN1@textTailIs:

; 72   : 
; 73   : 	return Py_BuildValue("i", CPythonTextTail::Instance().IsChatTextTail(VirtualID));

  00027	ff 75 fc	 push	 DWORD PTR _VirtualID$[ebp]
  0002a	8b 0d 00 00 00
	00		 mov	 ecx, DWORD PTR ?ms_singleton@?$CSingleton@VCPythonTextTail@@@@0PAVCPythonTextTail@@A ; CSingleton<CPythonTextTail>::ms_singleton
  00030	e8 00 00 00 00	 call	 ?IsChatTextTail@CPythonTextTail@@QAE_NK@Z ; CPythonTextTail::IsChatTextTail
  00035	0f b6 c0	 movzx	 eax, al
  00038	50		 push	 eax
  00039	68 00 00 00 00	 push	 OFFSET ??_C@_01KBJDNOO@i?$AA@
  0003e	ff 15 00 00 00
	00		 call	 DWORD PTR __imp__Py_BuildValue
  00044	83 c4 08	 add	 esp, 8

; 74   : }

  00047	8b e5		 mov	 esp, ebp
  00049	5d		 pop	 ebp
  0004a	c3		 ret	 0
?textTailIsChat@@YAPAU_object@@PAU1@0@Z ENDP		; textTailIsChat
_TEXT	ENDS
; Function compile flags: /Ogtp
; File d:\metin2\metin2\client_source_clean\client_source_clean\source\userinterface\pythontexttailmodule.cpp
;	COMDAT ?textTailRegisterChatTail@@YAPAU_object@@PAU1@0@Z
_TEXT	SEGMENT
_VirtualID$ = -8					; size = 4
_szText$ = -4						; size = 4
_poSelf$ = 8						; size = 4
_poArgs$ = 12						; size = 4
?textTailRegisterChatTail@@YAPAU_object@@PAU1@0@Z PROC	; textTailRegisterChatTail, COMDAT

; 77   : {

  00000	55		 push	 ebp
  00001	8b ec		 mov	 ebp, esp
  00003	83 ec 08	 sub	 esp, 8

; 78   : 	int VirtualID;
; 79   : 	if (!PyTuple_GetInteger(poArgs, 0, &VirtualID))

  00006	8d 45 f8	 lea	 eax, DWORD PTR _VirtualID$[ebp]
  00009	50		 push	 eax
  0000a	6a 00		 push	 0
  0000c	ff 75 0c	 push	 DWORD PTR _poArgs$[ebp]
  0000f	e8 00 00 00 00	 call	 ?PyTuple_GetInteger@@YA_NPAU_object@@HPAH@Z ; PyTuple_GetInteger
  00014	83 c4 0c	 add	 esp, 12			; 0000000cH
  00017	84 c0		 test	 al, al
  00019	75 0e		 jne	 SHORT $LN2@textTailRe
$LN7@textTailRe:

; 80   : 		return Py_BuildException();

  0001b	6a 00		 push	 0
  0001d	e8 00 00 00 00	 call	 ?Py_BuildException@@YAPAU_object@@PBDZZ ; Py_BuildException
  00022	83 c4 04	 add	 esp, 4

; 89   : }

  00025	8b e5		 mov	 esp, ebp
  00027	5d		 pop	 ebp
  00028	c3		 ret	 0
$LN2@textTailRe:

; 81   : 
; 82   : 	char * szText;
; 83   : 	if (!PyTuple_GetString(poArgs, 1, &szText))

  00029	8d 45 fc	 lea	 eax, DWORD PTR _szText$[ebp]
  0002c	50		 push	 eax
  0002d	6a 01		 push	 1
  0002f	ff 75 0c	 push	 DWORD PTR _poArgs$[ebp]
  00032	e8 00 00 00 00	 call	 ?PyTuple_GetString@@YA_NPAU_object@@HPAPAD@Z ; PyTuple_GetString
  00037	83 c4 0c	 add	 esp, 12			; 0000000cH
  0003a	84 c0		 test	 al, al
  0003c	74 dd		 je	 SHORT $LN7@textTailRe

; 84   : 		return Py_BuildException();
; 85   : 
; 86   : 	CPythonTextTail::Instance().RegisterChatTail(VirtualID, szText);

  0003e	ff 75 fc	 push	 DWORD PTR _szText$[ebp]
  00041	8b 0d 00 00 00
	00		 mov	 ecx, DWORD PTR ?ms_singleton@?$CSingleton@VCPythonTextTail@@@@0PAVCPythonTextTail@@A ; CSingleton<CPythonTextTail>::ms_singleton
  00047	ff 75 f8	 push	 DWORD PTR _VirtualID$[ebp]
  0004a	e8 00 00 00 00	 call	 ?RegisterChatTail@CPythonTextTail@@QAEXKPBD@Z ; CPythonTextTail::RegisterChatTail

; 87   : 
; 88   : 	return Py_BuildNone();

  0004f	e8 00 00 00 00	 call	 ?Py_BuildNone@@YAPAU_object@@XZ ; Py_BuildNone

; 89   : }

  00054	8b e5		 mov	 esp, ebp
  00056	5d		 pop	 ebp
  00057	c3		 ret	 0
?textTailRegisterChatTail@@YAPAU_object@@PAU1@0@Z ENDP	; textTailRegisterChatTail
_TEXT	ENDS
; Function compile flags: /Ogtp
; File d:\metin2\metin2\client_source_clean\client_source_clean\source\userinterface\pythontexttailmodule.cpp
;	COMDAT ?textTailRegisterInfoTail@@YAPAU_object@@PAU1@0@Z
_TEXT	SEGMENT
_VirtualID$ = -8					; size = 4
_szText$ = -4						; size = 4
_poSelf$ = 8						; size = 4
_poArgs$ = 12						; size = 4
?textTailRegisterInfoTail@@YAPAU_object@@PAU1@0@Z PROC	; textTailRegisterInfoTail, COMDAT

; 92   : {

  00000	55		 push	 ebp
  00001	8b ec		 mov	 ebp, esp
  00003	83 ec 08	 sub	 esp, 8

; 93   : 	int VirtualID;
; 94   : 	if (!PyTuple_GetInteger(poArgs, 0, &VirtualID))

  00006	8d 45 f8	 lea	 eax, DWORD PTR _VirtualID$[ebp]
  00009	50		 push	 eax
  0000a	6a 00		 push	 0
  0000c	ff 75 0c	 push	 DWORD PTR _poArgs$[ebp]
  0000f	e8 00 00 00 00	 call	 ?PyTuple_GetInteger@@YA_NPAU_object@@HPAH@Z ; PyTuple_GetInteger
  00014	83 c4 0c	 add	 esp, 12			; 0000000cH
  00017	84 c0		 test	 al, al
  00019	75 0e		 jne	 SHORT $LN2@textTailRe
$LN7@textTailRe:

; 95   : 		return Py_BuildException();

  0001b	6a 00		 push	 0
  0001d	e8 00 00 00 00	 call	 ?Py_BuildException@@YAPAU_object@@PBDZZ ; Py_BuildException
  00022	83 c4 04	 add	 esp, 4

; 104  : }

  00025	8b e5		 mov	 esp, ebp
  00027	5d		 pop	 ebp
  00028	c3		 ret	 0
$LN2@textTailRe:

; 96   : 
; 97   : 	char * szText;
; 98   : 	if (!PyTuple_GetString(poArgs, 1, &szText))

  00029	8d 45 fc	 lea	 eax, DWORD PTR _szText$[ebp]
  0002c	50		 push	 eax
  0002d	6a 01		 push	 1
  0002f	ff 75 0c	 push	 DWORD PTR _poArgs$[ebp]
  00032	e8 00 00 00 00	 call	 ?PyTuple_GetString@@YA_NPAU_object@@HPAPAD@Z ; PyTuple_GetString
  00037	83 c4 0c	 add	 esp, 12			; 0000000cH
  0003a	84 c0		 test	 al, al
  0003c	74 dd		 je	 SHORT $LN7@textTailRe

; 99   : 		return Py_BuildException();
; 100  : 
; 101  : 	CPythonTextTail::Instance().RegisterInfoTail(VirtualID, szText);

  0003e	ff 75 fc	 push	 DWORD PTR _szText$[ebp]
  00041	8b 0d 00 00 00
	00		 mov	 ecx, DWORD PTR ?ms_singleton@?$CSingleton@VCPythonTextTail@@@@0PAVCPythonTextTail@@A ; CSingleton<CPythonTextTail>::ms_singleton
  00047	ff 75 f8	 push	 DWORD PTR _VirtualID$[ebp]
  0004a	e8 00 00 00 00	 call	 ?RegisterInfoTail@CPythonTextTail@@QAEXKPBD@Z ; CPythonTextTail::RegisterInfoTail

; 102  : 
; 103  : 	return Py_BuildNone();

  0004f	e8 00 00 00 00	 call	 ?Py_BuildNone@@YAPAU_object@@XZ ; Py_BuildNone

; 104  : }

  00054	8b e5		 mov	 esp, ebp
  00056	5d		 pop	 ebp
  00057	c3		 ret	 0
?textTailRegisterInfoTail@@YAPAU_object@@PAU1@0@Z ENDP	; textTailRegisterInfoTail
_TEXT	ENDS
; Function compile flags: /Ogtp
; File d:\metin2\metin2\client_source_clean\client_source_clean\source\userinterface\pythontexttailmodule.cpp
; File d:\metin2\metin2\client_source_clean\client_source_clean\extern\include\d3dx8math.inl
; File d:\metin2\metin2\client_source_clean\client_source_clean\source\userinterface\pythontexttailmodule.cpp
; File d:\metin2\metin2\client_source_clean\client_source_clean\extern\include\d3dx8math.inl
; File d:\metin2\metin2\client_source_clean\client_source_clean\source\userinterface\pythontexttailmodule.cpp
; File d:\metin2\metin2\client_source_clean\client_source_clean\extern\include\d3dx8math.inl
; File d:\metin2\metin2\client_source_clean\client_source_clean\source\userinterface\pythontexttailmodule.cpp
;	COMDAT ?textTailAttachTitle@@YAPAU_object@@PAU1@0@Z
_TEXT	SEGMENT
$T1 = -36						; size = 16
_iVirtualID$ = -20					; size = 4
_szName$ = -16						; size = 4
_fb$ = -12						; size = 4
_fg$ = -8						; size = 4
_fr$ = -4						; size = 4
_poSelf$ = 8						; size = 4
_poArgs$ = 12						; size = 4
?textTailAttachTitle@@YAPAU_object@@PAU1@0@Z PROC	; textTailAttachTitle, COMDAT

; 107  : {

  00000	55		 push	 ebp
  00001	8b ec		 mov	 ebp, esp
  00003	83 ec 24	 sub	 esp, 36			; 00000024H

; 108  : 	int iVirtualID;
; 109  : 	if (!PyTuple_GetInteger(poArgs, 0, &iVirtualID))

  00006	8d 45 ec	 lea	 eax, DWORD PTR _iVirtualID$[ebp]
  00009	56		 push	 esi
  0000a	8b 75 0c	 mov	 esi, DWORD PTR _poArgs$[ebp]
  0000d	50		 push	 eax
  0000e	6a 00		 push	 0
  00010	56		 push	 esi
  00011	e8 00 00 00 00	 call	 ?PyTuple_GetInteger@@YA_NPAU_object@@HPAH@Z ; PyTuple_GetInteger
  00016	83 c4 0c	 add	 esp, 12			; 0000000cH
  00019	84 c0		 test	 al, al
  0001b	75 0f		 jne	 SHORT $LN5@textTailAt
$LN12@textTailAt:

; 110  : 		return Py_BuildException();

  0001d	6a 00		 push	 0
  0001f	e8 00 00 00 00	 call	 ?Py_BuildException@@YAPAU_object@@PBDZZ ; Py_BuildException
  00024	83 c4 04	 add	 esp, 4
  00027	5e		 pop	 esi

; 127  : }

  00028	8b e5		 mov	 esp, ebp
  0002a	5d		 pop	 ebp
  0002b	c3		 ret	 0
$LN5@textTailAt:

; 111  : 	char * szName;
; 112  : 	if (!PyTuple_GetString(poArgs, 1, &szName))

  0002c	8d 45 f0	 lea	 eax, DWORD PTR _szName$[ebp]
  0002f	50		 push	 eax
  00030	6a 01		 push	 1
  00032	56		 push	 esi
  00033	e8 00 00 00 00	 call	 ?PyTuple_GetString@@YA_NPAU_object@@HPAPAD@Z ; PyTuple_GetString
  00038	83 c4 0c	 add	 esp, 12			; 0000000cH
  0003b	84 c0		 test	 al, al
  0003d	74 de		 je	 SHORT $LN12@textTailAt

; 113  : 		return Py_BuildException();
; 114  : 	float fr;
; 115  : 	if (!PyTuple_GetFloat(poArgs, 2, &fr))

  0003f	8d 45 fc	 lea	 eax, DWORD PTR _fr$[ebp]
  00042	50		 push	 eax
  00043	6a 02		 push	 2
  00045	56		 push	 esi
  00046	e8 00 00 00 00	 call	 ?PyTuple_GetFloat@@YA_NPAU_object@@HPAM@Z ; PyTuple_GetFloat
  0004b	83 c4 0c	 add	 esp, 12			; 0000000cH
  0004e	84 c0		 test	 al, al
  00050	74 cb		 je	 SHORT $LN12@textTailAt

; 116  : 		return Py_BuildException();
; 117  : 	float fg;
; 118  : 	if (!PyTuple_GetFloat(poArgs, 3, &fg))

  00052	8d 45 f8	 lea	 eax, DWORD PTR _fg$[ebp]
  00055	50		 push	 eax
  00056	6a 03		 push	 3
  00058	56		 push	 esi
  00059	e8 00 00 00 00	 call	 ?PyTuple_GetFloat@@YA_NPAU_object@@HPAM@Z ; PyTuple_GetFloat
  0005e	83 c4 0c	 add	 esp, 12			; 0000000cH
  00061	84 c0		 test	 al, al
  00063	74 b8		 je	 SHORT $LN12@textTailAt

; 119  : 		return Py_BuildException();
; 120  : 	float fb;
; 121  : 	if (!PyTuple_GetFloat(poArgs, 4, &fb))

  00065	8d 45 f4	 lea	 eax, DWORD PTR _fb$[ebp]
  00068	50		 push	 eax
  00069	6a 04		 push	 4
  0006b	56		 push	 esi
  0006c	e8 00 00 00 00	 call	 ?PyTuple_GetFloat@@YA_NPAU_object@@HPAM@Z ; PyTuple_GetFloat
  00071	83 c4 0c	 add	 esp, 12			; 0000000cH
  00074	84 c0		 test	 al, al
  00076	74 a5		 je	 SHORT $LN12@textTailAt
; File d:\metin2\metin2\client_source_clean\client_source_clean\extern\include\d3dx8math.inl

; 920  :     r = fr;

  00078	f3 0f 10 45 fc	 movss	 xmm0, DWORD PTR _fr$[ebp]
; File d:\metin2\metin2\client_source_clean\client_source_clean\source\userinterface\pythontexttailmodule.cpp

; 124  : 	CPythonTextTail::Instance().AttachTitle(iVirtualID, szName, D3DXCOLOR(fr, fg, fb, 1.0f));

  0007d	8d 45 dc	 lea	 eax, DWORD PTR $T1[ebp]
  00080	8b 0d 00 00 00
	00		 mov	 ecx, DWORD PTR ?ms_singleton@?$CSingleton@VCPythonTextTail@@@@0PAVCPythonTextTail@@A ; CSingleton<CPythonTextTail>::ms_singleton
  00086	50		 push	 eax
  00087	ff 75 f0	 push	 DWORD PTR _szName$[ebp]
; File d:\metin2\metin2\client_source_clean\client_source_clean\extern\include\d3dx8math.inl

; 920  :     r = fr;

  0008a	f3 0f 11 45 dc	 movss	 DWORD PTR $T1[ebp], xmm0

; 921  :     g = fg;

  0008f	f3 0f 10 45 f8	 movss	 xmm0, DWORD PTR _fg$[ebp]
; File d:\metin2\metin2\client_source_clean\client_source_clean\source\userinterface\pythontexttailmodule.cpp

; 124  : 	CPythonTextTail::Instance().AttachTitle(iVirtualID, szName, D3DXCOLOR(fr, fg, fb, 1.0f));

  00094	ff 75 ec	 push	 DWORD PTR _iVirtualID$[ebp]
; File d:\metin2\metin2\client_source_clean\client_source_clean\extern\include\d3dx8math.inl

; 921  :     g = fg;

  00097	f3 0f 11 45 e0	 movss	 DWORD PTR $T1[ebp+4], xmm0

; 922  :     b = fb;

  0009c	f3 0f 10 45 f4	 movss	 xmm0, DWORD PTR _fb$[ebp]
  000a1	f3 0f 11 45 e4	 movss	 DWORD PTR $T1[ebp+8], xmm0

; 923  :     a = fa;

  000a6	c7 45 e8 00 00
	80 3f		 mov	 DWORD PTR $T1[ebp+12], 1065353216 ; 3f800000H
; File d:\metin2\metin2\client_source_clean\client_source_clean\source\userinterface\pythontexttailmodule.cpp

; 124  : 	CPythonTextTail::Instance().AttachTitle(iVirtualID, szName, D3DXCOLOR(fr, fg, fb, 1.0f));

  000ad	e8 00 00 00 00	 call	 ?AttachTitle@CPythonTextTail@@QAEXKPBDABUD3DXCOLOR@@@Z ; CPythonTextTail::AttachTitle

; 125  : 
; 126  : 	return Py_BuildNone();

  000b2	e8 00 00 00 00	 call	 ?Py_BuildNone@@YAPAU_object@@XZ ; Py_BuildNone
  000b7	5e		 pop	 esi

; 127  : }

  000b8	8b e5		 mov	 esp, ebp
  000ba	5d		 pop	 ebp
  000bb	c3		 ret	 0
?textTailAttachTitle@@YAPAU_object@@PAU1@0@Z ENDP	; textTailAttachTitle
_TEXT	ENDS
; Function compile flags: /Ogtp
; File d:\metin2\metin2\client_source_clean\client_source_clean\source\userinterface\pythontexttailmodule.cpp
;	COMDAT ?textTailShowCharacterTextTail@@YAPAU_object@@PAU1@0@Z
_TEXT	SEGMENT
_VirtualID$ = -4					; size = 4
_poSelf$ = 8						; size = 4
_poArgs$ = 12						; size = 4
?textTailShowCharacterTextTail@@YAPAU_object@@PAU1@0@Z PROC ; textTailShowCharacterTextTail, COMDAT

; 130  : {

  00000	55		 push	 ebp
  00001	8b ec		 mov	 ebp, esp
  00003	51		 push	 ecx

; 131  : 	int VirtualID;
; 132  : 	if (!PyTuple_GetInteger(poArgs, 0, &VirtualID))

  00004	8d 45 fc	 lea	 eax, DWORD PTR _VirtualID$[ebp]
  00007	50		 push	 eax
  00008	6a 00		 push	 0
  0000a	ff 75 0c	 push	 DWORD PTR _poArgs$[ebp]
  0000d	e8 00 00 00 00	 call	 ?PyTuple_GetInteger@@YA_NPAU_object@@HPAH@Z ; PyTuple_GetInteger
  00012	83 c4 0c	 add	 esp, 12			; 0000000cH
  00015	84 c0		 test	 al, al
  00017	75 0e		 jne	 SHORT $LN1@textTailSh

; 133  : 		return Py_BuildException();

  00019	6a 00		 push	 0
  0001b	e8 00 00 00 00	 call	 ?Py_BuildException@@YAPAU_object@@PBDZZ ; Py_BuildException
  00020	83 c4 04	 add	 esp, 4

; 137  : }

  00023	8b e5		 mov	 esp, ebp
  00025	5d		 pop	 ebp
  00026	c3		 ret	 0
$LN1@textTailSh:

; 134  : 
; 135  : 	CPythonTextTail::Instance().ShowCharacterTextTail(VirtualID);

  00027	ff 75 fc	 push	 DWORD PTR _VirtualID$[ebp]
  0002a	8b 0d 00 00 00
	00		 mov	 ecx, DWORD PTR ?ms_singleton@?$CSingleton@VCPythonTextTail@@@@0PAVCPythonTextTail@@A ; CSingleton<CPythonTextTail>::ms_singleton
  00030	e8 00 00 00 00	 call	 ?ShowCharacterTextTail@CPythonTextTail@@QAEXK@Z ; CPythonTextTail::ShowCharacterTextTail

; 136  : 	return Py_BuildNone();

  00035	e8 00 00 00 00	 call	 ?Py_BuildNone@@YAPAU_object@@XZ ; Py_BuildNone

; 137  : }

  0003a	8b e5		 mov	 esp, ebp
  0003c	5d		 pop	 ebp
  0003d	c3		 ret	 0
?textTailShowCharacterTextTail@@YAPAU_object@@PAU1@0@Z ENDP ; textTailShowCharacterTextTail
_TEXT	ENDS
; Function compile flags: /Ogtp
; File d:\metin2\metin2\client_source_clean\client_source_clean\source\userinterface\pythontexttailmodule.cpp
;	COMDAT ?textTailShowItemTextTail@@YAPAU_object@@PAU1@0@Z
_TEXT	SEGMENT
_VirtualID$ = -4					; size = 4
_poSelf$ = 8						; size = 4
_poArgs$ = 12						; size = 4
?textTailShowItemTextTail@@YAPAU_object@@PAU1@0@Z PROC	; textTailShowItemTextTail, COMDAT

; 140  : {

  00000	55		 push	 ebp
  00001	8b ec		 mov	 ebp, esp
  00003	51		 push	 ecx

; 141  : 	int VirtualID;
; 142  : 	if (!PyTuple_GetInteger(poArgs, 0, &VirtualID))

  00004	8d 45 fc	 lea	 eax, DWORD PTR _VirtualID$[ebp]
  00007	50		 push	 eax
  00008	6a 00		 push	 0
  0000a	ff 75 0c	 push	 DWORD PTR _poArgs$[ebp]
  0000d	e8 00 00 00 00	 call	 ?PyTuple_GetInteger@@YA_NPAU_object@@HPAH@Z ; PyTuple_GetInteger
  00012	83 c4 0c	 add	 esp, 12			; 0000000cH
  00015	84 c0		 test	 al, al
  00017	75 0e		 jne	 SHORT $LN1@textTailSh

; 143  : 		return Py_BuildException();

  00019	6a 00		 push	 0
  0001b	e8 00 00 00 00	 call	 ?Py_BuildException@@YAPAU_object@@PBDZZ ; Py_BuildException
  00020	83 c4 04	 add	 esp, 4

; 147  : }

  00023	8b e5		 mov	 esp, ebp
  00025	5d		 pop	 ebp
  00026	c3		 ret	 0
$LN1@textTailSh:

; 144  : 
; 145  : 	CPythonTextTail::Instance().ShowItemTextTail(VirtualID);

  00027	ff 75 fc	 push	 DWORD PTR _VirtualID$[ebp]
  0002a	8b 0d 00 00 00
	00		 mov	 ecx, DWORD PTR ?ms_singleton@?$CSingleton@VCPythonTextTail@@@@0PAVCPythonTextTail@@A ; CSingleton<CPythonTextTail>::ms_singleton
  00030	e8 00 00 00 00	 call	 ?ShowItemTextTail@CPythonTextTail@@QAEXK@Z ; CPythonTextTail::ShowItemTextTail

; 146  : 	return Py_BuildNone();

  00035	e8 00 00 00 00	 call	 ?Py_BuildNone@@YAPAU_object@@XZ ; Py_BuildNone

; 147  : }

  0003a	8b e5		 mov	 esp, ebp
  0003c	5d		 pop	 ebp
  0003d	c3		 ret	 0
?textTailShowItemTextTail@@YAPAU_object@@PAU1@0@Z ENDP	; textTailShowItemTextTail
_TEXT	ENDS
; Function compile flags: /Ogtp
; File d:\metin2\metin2\client_source_clean\client_source_clean\source\userinterface\pythontexttailmodule.cpp
;	COMDAT ?textTailArrangeTextTail@@YAPAU_object@@PAU1@0@Z
_TEXT	SEGMENT
_poSelf$ = 8						; size = 4
_poArgs$ = 12						; size = 4
?textTailArrangeTextTail@@YAPAU_object@@PAU1@0@Z PROC	; textTailArrangeTextTail, COMDAT

; 151  : 	CPythonTextTail::Instance().ArrangeTextTail();

  00000	8b 0d 00 00 00
	00		 mov	 ecx, DWORD PTR ?ms_singleton@?$CSingleton@VCPythonTextTail@@@@0PAVCPythonTextTail@@A ; CSingleton<CPythonTextTail>::ms_singleton
  00006	e8 00 00 00 00	 call	 ?ArrangeTextTail@CPythonTextTail@@QAEXXZ ; CPythonTextTail::ArrangeTextTail

; 152  : 	return Py_BuildNone();

  0000b	e9 00 00 00 00	 jmp	 ?Py_BuildNone@@YAPAU_object@@XZ ; Py_BuildNone
?textTailArrangeTextTail@@YAPAU_object@@PAU1@0@Z ENDP	; textTailArrangeTextTail
_TEXT	ENDS
; Function compile flags: /Ogtp
; File d:\metin2\metin2\client_source_clean\client_source_clean\source\userinterface\pythontexttailmodule.cpp
;	COMDAT ?textTailHideAllTextTail@@YAPAU_object@@PAU1@0@Z
_TEXT	SEGMENT
_poSelf$ = 8						; size = 4
_poArgs$ = 12						; size = 4
?textTailHideAllTextTail@@YAPAU_object@@PAU1@0@Z PROC	; textTailHideAllTextTail, COMDAT

; 157  : 	CPythonTextTail::Instance().HideAllTextTail();

  00000	8b 0d 00 00 00
	00		 mov	 ecx, DWORD PTR ?ms_singleton@?$CSingleton@VCPythonTextTail@@@@0PAVCPythonTextTail@@A ; CSingleton<CPythonTextTail>::ms_singleton
  00006	e8 00 00 00 00	 call	 ?HideAllTextTail@CPythonTextTail@@QAEXXZ ; CPythonTextTail::HideAllTextTail

; 158  : 	return Py_BuildNone();

  0000b	e9 00 00 00 00	 jmp	 ?Py_BuildNone@@YAPAU_object@@XZ ; Py_BuildNone
?textTailHideAllTextTail@@YAPAU_object@@PAU1@0@Z ENDP	; textTailHideAllTextTail
_TEXT	ENDS
; Function compile flags: /Ogtp
; File d:\metin2\metin2\client_source_clean\client_source_clean\source\userinterface\pythontexttailmodule.cpp
;	COMDAT ?textTailShowAllTextTail@@YAPAU_object@@PAU1@0@Z
_TEXT	SEGMENT
_poSelf$ = 8						; size = 4
_poArgs$ = 12						; size = 4
?textTailShowAllTextTail@@YAPAU_object@@PAU1@0@Z PROC	; textTailShowAllTextTail, COMDAT

; 163  : 	CPythonTextTail::Instance().ShowAllTextTail();

  00000	8b 0d 00 00 00
	00		 mov	 ecx, DWORD PTR ?ms_singleton@?$CSingleton@VCPythonTextTail@@@@0PAVCPythonTextTail@@A ; CSingleton<CPythonTextTail>::ms_singleton
  00006	e8 00 00 00 00	 call	 ?ShowAllTextTail@CPythonTextTail@@QAEXXZ ; CPythonTextTail::ShowAllTextTail

; 164  : 	return Py_BuildNone();

  0000b	e9 00 00 00 00	 jmp	 ?Py_BuildNone@@YAPAU_object@@XZ ; Py_BuildNone
?textTailShowAllTextTail@@YAPAU_object@@PAU1@0@Z ENDP	; textTailShowAllTextTail
_TEXT	ENDS
; Function compile flags: /Ogtp
; File d:\metin2\metin2\client_source_clean\client_source_clean\source\userinterface\pythontexttailmodule.cpp
;	COMDAT ?textTailPick@@YAPAU_object@@PAU1@0@Z
_TEXT	SEGMENT
_ix$ = -8						; size = 4
_iy$ = -4						; size = 4
_poSelf$ = 8						; size = 4
_poArgs$ = 12						; size = 4
?textTailPick@@YAPAU_object@@PAU1@0@Z PROC		; textTailPick, COMDAT

; 168  : {

  00000	55		 push	 ebp
  00001	8b ec		 mov	 ebp, esp
  00003	83 ec 08	 sub	 esp, 8

; 169  : 	int ix;
; 170  : 	if (!PyTuple_GetInteger(poArgs, 0, &ix))

  00006	8d 45 f8	 lea	 eax, DWORD PTR _ix$[ebp]
  00009	50		 push	 eax
  0000a	6a 00		 push	 0
  0000c	ff 75 0c	 push	 DWORD PTR _poArgs$[ebp]
  0000f	e8 00 00 00 00	 call	 ?PyTuple_GetInteger@@YA_NPAU_object@@HPAH@Z ; PyTuple_GetInteger
  00014	83 c4 0c	 add	 esp, 12			; 0000000cH
  00017	84 c0		 test	 al, al
  00019	75 0e		 jne	 SHORT $LN2@textTailPi
$LN7@textTailPi:

; 171  : 		return Py_BuildException();

  0001b	6a 00		 push	 0
  0001d	e8 00 00 00 00	 call	 ?Py_BuildException@@YAPAU_object@@PBDZZ ; Py_BuildException
  00022	83 c4 04	 add	 esp, 4

; 178  : }

  00025	8b e5		 mov	 esp, ebp
  00027	5d		 pop	 ebp
  00028	c3		 ret	 0
$LN2@textTailPi:

; 172  : 	int iy;
; 173  : 	if (!PyTuple_GetInteger(poArgs, 1, &iy))

  00029	8d 45 fc	 lea	 eax, DWORD PTR _iy$[ebp]
  0002c	50		 push	 eax
  0002d	6a 01		 push	 1
  0002f	ff 75 0c	 push	 DWORD PTR _poArgs$[ebp]
  00032	e8 00 00 00 00	 call	 ?PyTuple_GetInteger@@YA_NPAU_object@@HPAH@Z ; PyTuple_GetInteger
  00037	83 c4 0c	 add	 esp, 12			; 0000000cH
  0003a	84 c0		 test	 al, al
  0003c	74 dd		 je	 SHORT $LN7@textTailPi

; 174  : 		return Py_BuildException();
; 175  : 
; 176  : 	int iValue = CPythonTextTail::Instance().Pick(ix, iy);

  0003e	ff 75 fc	 push	 DWORD PTR _iy$[ebp]
  00041	8b 0d 00 00 00
	00		 mov	 ecx, DWORD PTR ?ms_singleton@?$CSingleton@VCPythonTextTail@@@@0PAVCPythonTextTail@@A ; CSingleton<CPythonTextTail>::ms_singleton
  00047	ff 75 f8	 push	 DWORD PTR _ix$[ebp]
  0004a	e8 00 00 00 00	 call	 ?Pick@CPythonTextTail@@QAEHHH@Z ; CPythonTextTail::Pick

; 177  : 	return Py_BuildValue("i", iValue);

  0004f	50		 push	 eax
  00050	68 00 00 00 00	 push	 OFFSET ??_C@_01KBJDNOO@i?$AA@
  00055	ff 15 00 00 00
	00		 call	 DWORD PTR __imp__Py_BuildValue
  0005b	83 c4 08	 add	 esp, 8

; 178  : }

  0005e	8b e5		 mov	 esp, ebp
  00060	5d		 pop	 ebp
  00061	c3		 ret	 0
?textTailPick@@YAPAU_object@@PAU1@0@Z ENDP		; textTailPick
_TEXT	ENDS
; Function compile flags: /Ogtp
; File d:\metin2\metin2\client_source_clean\client_source_clean\source\userinterface\pythontexttailmodule.cpp
;	COMDAT ?textTailSelectItemName@@YAPAU_object@@PAU1@0@Z
_TEXT	SEGMENT
_iVirtualID$ = -4					; size = 4
_poSelf$ = 8						; size = 4
_poArgs$ = 12						; size = 4
?textTailSelectItemName@@YAPAU_object@@PAU1@0@Z PROC	; textTailSelectItemName, COMDAT

; 181  : {

  00000	55		 push	 ebp
  00001	8b ec		 mov	 ebp, esp
  00003	51		 push	 ecx

; 182  : 	int iVirtualID;
; 183  : 	if (!PyTuple_GetInteger(poArgs, 0, &iVirtualID))

  00004	8d 45 fc	 lea	 eax, DWORD PTR _iVirtualID$[ebp]
  00007	50		 push	 eax
  00008	6a 00		 push	 0
  0000a	ff 75 0c	 push	 DWORD PTR _poArgs$[ebp]
  0000d	e8 00 00 00 00	 call	 ?PyTuple_GetInteger@@YA_NPAU_object@@HPAH@Z ; PyTuple_GetInteger
  00012	83 c4 0c	 add	 esp, 12			; 0000000cH
  00015	84 c0		 test	 al, al
  00017	75 0e		 jne	 SHORT $LN1@textTailSe

; 184  : 		return Py_BuildException();

  00019	6a 00		 push	 0
  0001b	e8 00 00 00 00	 call	 ?Py_BuildException@@YAPAU_object@@PBDZZ ; Py_BuildException
  00020	83 c4 04	 add	 esp, 4

; 188  : }

  00023	8b e5		 mov	 esp, ebp
  00025	5d		 pop	 ebp
  00026	c3		 ret	 0
$LN1@textTailSe:

; 185  : 
; 186  : 	CPythonTextTail::Instance().SelectItemName(iVirtualID);

  00027	ff 75 fc	 push	 DWORD PTR _iVirtualID$[ebp]
  0002a	8b 0d 00 00 00
	00		 mov	 ecx, DWORD PTR ?ms_singleton@?$CSingleton@VCPythonTextTail@@@@0PAVCPythonTextTail@@A ; CSingleton<CPythonTextTail>::ms_singleton
  00030	e8 00 00 00 00	 call	 ?SelectItemName@CPythonTextTail@@QAEXK@Z ; CPythonTextTail::SelectItemName

; 187  : 	return Py_BuildNone();

  00035	e8 00 00 00 00	 call	 ?Py_BuildNone@@YAPAU_object@@XZ ; Py_BuildNone

; 188  : }

  0003a	8b e5		 mov	 esp, ebp
  0003c	5d		 pop	 ebp
  0003d	c3		 ret	 0
?textTailSelectItemName@@YAPAU_object@@PAU1@0@Z ENDP	; textTailSelectItemName
_TEXT	ENDS
; Function compile flags: /Ogtp
; File d:\metin2\metin2\client_source_clean\client_source_clean\source\userinterface\pythontexttailmodule.cpp
;	COMDAT ?textTailEnablePKTitle@@YAPAU_object@@PAU1@0@Z
_TEXT	SEGMENT
_iFlag$ = -4						; size = 4
_poSelf$ = 8						; size = 4
_poArgs$ = 12						; size = 4
?textTailEnablePKTitle@@YAPAU_object@@PAU1@0@Z PROC	; textTailEnablePKTitle, COMDAT

; 191  : {

  00000	55		 push	 ebp
  00001	8b ec		 mov	 ebp, esp
  00003	51		 push	 ecx

; 192  : 	int iFlag;
; 193  : 	if (!PyTuple_GetInteger(poArgs, 0, &iFlag))

  00004	8d 45 fc	 lea	 eax, DWORD PTR _iFlag$[ebp]
  00007	50		 push	 eax
  00008	6a 00		 push	 0
  0000a	ff 75 0c	 push	 DWORD PTR _poArgs$[ebp]
  0000d	e8 00 00 00 00	 call	 ?PyTuple_GetInteger@@YA_NPAU_object@@HPAH@Z ; PyTuple_GetInteger
  00012	83 c4 0c	 add	 esp, 12			; 0000000cH
  00015	84 c0		 test	 al, al
  00017	75 0e		 jne	 SHORT $LN1@textTailEn

; 194  : 		return Py_BuildException();

  00019	6a 00		 push	 0
  0001b	e8 00 00 00 00	 call	 ?Py_BuildException@@YAPAU_object@@PBDZZ ; Py_BuildException
  00020	83 c4 04	 add	 esp, 4

; 198  : }

  00023	8b e5		 mov	 esp, ebp
  00025	5d		 pop	 ebp
  00026	c3		 ret	 0
$LN1@textTailEn:

; 195  : 
; 196  : 	CPythonTextTail::Instance().EnablePKTitle(iFlag);

  00027	ff 75 fc	 push	 DWORD PTR _iFlag$[ebp]
  0002a	e8 00 00 00 00	 call	 ?EnablePKTitle@CPythonTextTail@@QAEXH@Z ; CPythonTextTail::EnablePKTitle

; 197  : 	return Py_BuildNone();

  0002f	e8 00 00 00 00	 call	 ?Py_BuildNone@@YAPAU_object@@XZ ; Py_BuildNone

; 198  : }

  00034	8b e5		 mov	 esp, ebp
  00036	5d		 pop	 ebp
  00037	c3		 ret	 0
?textTailEnablePKTitle@@YAPAU_object@@PAU1@0@Z ENDP	; textTailEnablePKTitle
_TEXT	ENDS
; Function compile flags: /Ogtp
; File d:\metin2\metin2\client_source_clean\client_source_clean\source\userinterface\pythontexttailmodule.cpp
;	COMDAT ?initTextTail@@YAXXZ
_TEXT	SEGMENT
?initTextTail@@YAXXZ PROC				; initTextTail, COMDAT

; 202  : 	static PyMethodDef s_methods[] =
; 203  : 	{
; 204  : 		{ "Clear",						textTailClear,						METH_VARARGS },
; 205  : 
; 206  : 		{ "UpdateAllTextTail",			textTailUpdateAllTextTail,			METH_VARARGS },
; 207  : 		{ "UpdateShowingTextTail",		textTailUpdateShowingTextTail,		METH_VARARGS },
; 208  : 		{ "Render",						textTailRender,						METH_VARARGS },
; 209  : 
; 210  : 		{ "ShowCharacterTextTail",		textTailShowCharacterTextTail,		METH_VARARGS },
; 211  : 		{ "ShowItemTextTail",			textTailShowItemTextTail,			METH_VARARGS },
; 212  : 
; 213  : 		{ "GetPosition",				textTailGetPosition,				METH_VARARGS },
; 214  : 		{ "IsChat",						textTailIsChat,						METH_VARARGS },
; 215  : 
; 216  : 		{ "ArrangeTextTail",			textTailArrangeTextTail,			METH_VARARGS },
; 217  : 		{ "HideAllTextTail",			textTailHideAllTextTail,			METH_VARARGS },
; 218  : 		{ "ShowAllTextTail",			textTailShowAllTextTail,			METH_VARARGS },
; 219  : 
; 220  : 		{ "Pick",						textTailPick,						METH_VARARGS },
; 221  : 		{ "SelectItemName",				textTailSelectItemName,				METH_VARARGS },
; 222  : 
; 223  : 		{ "EnablePKTitle",				textTailEnablePKTitle,				METH_VARARGS },
; 224  : 
; 225  : 		// For Test
; 226  : 		{ "RegisterCharacterTextTail",	textTailRegisterCharacterTextTail,	METH_VARARGS },
; 227  : 		{ "RegisterChatTail",			textTailRegisterChatTail,			METH_VARARGS },
; 228  : 		{ "RegisterInfoTail",			textTailRegisterInfoTail,			METH_VARARGS },
; 229  : 		{ "AttachTitle",				textTailAttachTitle,				METH_VARARGS },
; 230  : 
; 231  : 		{ NULL, NULL, NULL },
; 232  : 	};
; 233  : 
; 234  : 	Py_InitModule("textTail", s_methods);

  00000	68 f5 03 00 00	 push	 1013			; 000003f5H
  00005	6a 00		 push	 0
  00007	6a 00		 push	 0
  00009	68 00 00 00 00	 push	 OFFSET ?s_methods@?1??initTextTail@@YAXXZ@4PAUPyMethodDef@@A
  0000e	68 00 00 00 00	 push	 OFFSET ??_C@_08KDMBCLKF@textTail?$AA@
  00013	ff 15 00 00 00
	00		 call	 DWORD PTR __imp__Py_InitModule4
  00019	83 c4 14	 add	 esp, 20			; 00000014H

; 235  : }

  0001c	c3		 ret	 0
?initTextTail@@YAXXZ ENDP				; initTextTail
_TEXT	ENDS
END
