; Listing generated by Microsoft (R) Optimizing Compiler Version 18.00.40629.0 

	TITLE	D:\Metin2\Metin2\client_source_clean\client_source_clean\source\UserInterface\PythonApplicationLogo.cpp
	.686P
	.XMM
	include listing.inc
	.model	flat

INCLUDELIB OLDNAMES

PUBLIC	?ms_singleton@?$CSingleton@VCPythonGraphic@@@@0PAVCPythonGraphic@@A ; CSingleton<CPythonGraphic>::ms_singleton
PUBLIC	??_C@_1BM@OEMAOINM@?$AAS?$AAa?$AAm?$AAp?$AAl?$AAe?$AAG?$AAr?$AAa?$AAb?$AAb?$AAe?$AAr?$AA?$AA@ ; `string'
PUBLIC	??_C@_1O@FDGFDJPD@?$AAS?$AAo?$AAu?$AAr?$AAc?$AAe?$AA?$AA@ ; `string'
EXTRN	?SetTextureStage@CGraphicTexture@@QBEXH@Z:PROC	; CGraphicTexture::SetTextureStage
EXTRN	?RenderTextureBox@CScreen@@QAEXMMMMMMMMM@Z:PROC	; CScreen::RenderTextureBox
EXTRN	?Destroy@CGraphicImageTexture@@QAEXXZ:PROC	; CGraphicImageTexture::Destroy
EXTRN	?GetWidth@CGraphicTexture@@QBEHXZ:PROC		; CGraphicTexture::GetWidth
EXTRN	?GetD3DTexture@CGraphicTexture@@QBEPAUIDirect3DTexture8@@XZ:PROC ; CGraphicTexture::GetD3DTexture
EXTRN	_IID_IBasicVideo:BYTE
EXTRN	_IID_IMediaEventEx:BYTE
EXTRN	_IID_IVideoWindow:BYTE
EXTRN	_IID_IMediaControl:BYTE
EXTRN	_IID_ISampleGrabber:BYTE
EXTRN	_MEDIASUBTYPE_RGB32:BYTE
EXTRN	_MEDIATYPE_Video:BYTE
EXTRN	_CLSID_FilterGraph:BYTE
EXTRN	_CLSID_SampleGrabber:BYTE
EXTRN	_IID_IGraphBuilder:BYTE
EXTRN	?Create@CGraphicImageTexture@@QAE_NIIW4_D3DFORMAT@@K@Z:PROC ; CGraphicImageTexture::Create
EXTRN	??0CGraphicImageTexture@@QAE@XZ:PROC		; CGraphicImageTexture::CGraphicImageTexture
;	COMDAT ?ms_singleton@?$CSingleton@VCPythonGraphic@@@@0PAVCPythonGraphic@@A
_BSS	SEGMENT
?ms_singleton@?$CSingleton@VCPythonGraphic@@@@0PAVCPythonGraphic@@A DD 01H DUP (?) ; CSingleton<CPythonGraphic>::ms_singleton
_BSS	ENDS
;	COMDAT ??_C@_1O@FDGFDJPD@?$AAS?$AAo?$AAu?$AAr?$AAc?$AAe?$AA?$AA@
CONST	SEGMENT
??_C@_1O@FDGFDJPD@?$AAS?$AAo?$AAu?$AAr?$AAc?$AAe?$AA?$AA@ DB 'S', 00H, 'o'
	DB	00H, 'u', 00H, 'r', 00H, 'c', 00H, 'e', 00H, 00H, 00H ; `string'
CONST	ENDS
;	COMDAT ??_C@_1BM@OEMAOINM@?$AAS?$AAa?$AAm?$AAp?$AAl?$AAe?$AAG?$AAr?$AAa?$AAb?$AAb?$AAe?$AAr?$AA?$AA@
CONST	SEGMENT
??_C@_1BM@OEMAOINM@?$AAS?$AAa?$AAm?$AAp?$AAl?$AAe?$AAG?$AAr?$AAa?$AAb?$AAb?$AAe?$AAr?$AA?$AA@ DB 'S'
	DB	00H, 'a', 00H, 'm', 00H, 'p', 00H, 'l', 00H, 'e', 00H, 'G', 00H
	DB	'r', 00H, 'a', 00H, 'b', 00H, 'b', 00H, 'e', 00H, 'r', 00H, 00H
	DB	00H						; `string'
	ALIGN	4

_piecewise_construct DB 01H DUP (?)
_BSS	ENDS
END
