; Listing generated by Microsoft (R) Optimizing Compiler Version 18.00.40629.0 

	TITLE	D:\Metin2\Metin2\client_source_clean\client_source_clean\source\UserInterface\PythonSystem.cpp
	.686P
	.XMM
	include listing.inc
	.model	flat

INCLUDELIB OLDNAMES

PUBLIC	??_R2CPythonSystem@@8				; CPythonSystem::`RTTI Base Class Array'
PUBLIC	??_R2?$CSingleton@VCPythonSystem@@@@8		; CSingleton<CPythonSystem>::`RTTI Base Class Array'
PUBLIC	??_R1A@?0A@EA@?$CSingleton@VCPythonSystem@@@@8	; CSingleton<CPythonSystem>::`RTTI Base Class Descriptor at (0,-1,0,64)'
PUBLIC	??_R1A@?0A@EA@CPythonSystem@@8			; CPythonSystem::`RTTI Base Class Descriptor at (0,-1,0,64)'
PUBLIC	??_R3?$CSingleton@VCPythonSystem@@@@8		; CSingleton<CPythonSystem>::`RTTI Class Hierarchy Descriptor'
PUBLIC	??_R0?AV?$CSingleton@VCPythonSystem@@@@@8	; CSingleton<CPythonSystem> `RTTI Type Descriptor'
PUBLIC	??_R3CPythonSystem@@8				; CPythonSystem::`RTTI Class Hierarchy Descriptor'
PUBLIC	??_R0?AVCPythonSystem@@@8			; CPythonSystem `RTTI Type Descriptor'
PUBLIC	??_R4CPythonSystem@@6B@				; CPythonSystem::`RTTI Complete Object Locator'
PUBLIC	??_R4?$CSingleton@VCPythonSystem@@@@6B@		; CSingleton<CPythonSystem>::`RTTI Complete Object Locator'
PUBLIC	??_7?$CSingleton@VCPythonSystem@@@@6B@		; CSingleton<CPythonSystem>::`vftable'
PUBLIC	??_7CPythonSystem@@6B@				; CPythonSystem::`vftable'
PUBLIC	??_C@_01EEMJAFIK@?6?$AA@			; `string'
PUBLIC	??_C@_0L@PJKCGBDF@metin2?4cfg?$AA@		; `string'
PUBLIC	??_C@_05ENDGNACA@WIDTH?$AA@			; `string'
PUBLIC	??_C@_07IJONGFBP@?5?$CFs?5?$CFs?6?$AA@		; `string'
PUBLIC	??_C@_03DJKBMDLB@BPP?$AA@			; `string'
PUBLIC	??_C@_06LJJMJONE@HEIGHT?$AA@			; `string'
PUBLIC	??_C@_0BA@KHKJCKOL@SOFTWARE_CURSOR?$AA@		; `string'
PUBLIC	??_C@_09JJJEBDOD@FREQUENCY?$AA@			; `string'
PUBLIC	??_C@_0L@JLMBCMBB@VISIBILITY?$AA@		; `string'
PUBLIC	??_C@_0P@HLGCIFEM@OBJECT_CULLING?$AA@		; `string'
PUBLIC	??_C@_0N@PBAPMOIE@VOICE_VOLUME?$AA@		; `string'
PUBLIC	??_C@_0N@GMIPKHGM@MUSIC_VOLUME?$AA@		; `string'
PUBLIC	??_C@_0L@MNJEEPBE@IS_SAVE_ID?$AA@		; `string'
PUBLIC	??_C@_05MBKNPFEG@GAMMA?$AA@			; `string'
PUBLIC	??_C@_0BH@DLIOKMKH@PRE_LOADING_DELAY_TIME?$AA@	; `string'
PUBLIC	??_C@_07JBPMLFBH@SAVE_ID?$AA@			; `string'
PUBLIC	??_C@_0BA@LLBGEPPK@USE_DEFAULT_IME?$AA@		; `string'
PUBLIC	??_C@_08NHNHGFNP@WINDOWED?$AA@			; `string'
PUBLIC	??_C@_0N@FFBEOPBM@SHADOW_LEVEL?$AA@		; `string'
PUBLIC	??_C@_0BA@KHMHFIHA@SOFTWARE_TILING?$AA@		; `string'
PUBLIC	??_C@_0O@HAABBABC@NO_SOUND_CARD?$AA@		; `string'
PUBLIC	??_C@_0BF@BGGNMKON@DECOMPRESSED_TEXTURE?$AA@	; `string'
PUBLIC	??_C@_0BB@PPFHKIN@ALWAYS_VIEW_NAME?$AA@		; `string'
PUBLIC	??_C@_09EOOFFIKE@VIEW_CHAT?$AA@			; `string'
PUBLIC	??_C@_0P@FIIALOBN@SHOW_SALESTEXT?$AA@		; `string'
PUBLIC	??_C@_0M@FJJANDDI@SHOW_DAMAGE?$AA@		; `string'
PUBLIC	??_C@_0BAC@DOGJKKLN@WIDTH?7?7?7?7?7?7?$CFd?6HEIGHT?7?7?7?7?7?7?$CFd?6BPP@ ; `string'
PUBLIC	??_C@_02BKFDOEMK@wt?$AA@			; `string'
PUBLIC	??_C@_0BB@EKNDKDHN@VIEW_CHAT?7?7?7?7?$CFd?6?$AA@ ; `string'
PUBLIC	??_C@_0BA@HPBHGBH@WINDOWED?7?7?7?7?$CFd?6?$AA@	; `string'
PUBLIC	??_C@_0BB@DLBIFMBO@SHOW_DAMAGE?7?7?$CFd?6?$AA@	; `string'
PUBLIC	??_C@_0BG@HBKBHOOM@ALWAYS_VIEW_NAME?7?7?$CFd?6?$AA@ ; `string'
PUBLIC	??_C@_0BF@NGKLEPOF@USE_DEFAULT_IME?7?7?$CFd?6?$AA@ ; `string'
PUBLIC	??_C@_0BE@POEIEBIF@SHOW_SALESTEXT?7?7?$CFd?6?$AA@ ; `string'
PUBLIC	??_C@_0BD@PGMGBMGN@SHADOW_LEVEL?7?7?7?$CFd?6?$AA@ ; `string'
PUBLIC	??_C@_0BF@IKAPIKKK@SOFTWARE_TILING?7?7?$CFd?6?$AA@ ; `string'
PUBLIC	??_C@_0BG@OMGMEENH@OnSaveInterfaceStatus?$AA@	; `string'
PUBLIC	??_C@_0O@OMHCOGAL@interface?4cfg?$AA@		; `string'
PUBLIC	??_C@_0BK@BDPDEBGA@Cannot?5open?5interface?4cfg?$AA@ ; `string'
EXTRN	__imp__GetSystemMetrics@4:PROC
EXTRN	?g_iLoadingDelayTime@@3HA:DWORD			; g_iLoadingDelayTime
EXTRN	?SetGamma@CPythonGraphic@@QAEXM@Z:PROC		; CPythonGraphic::SetGamma
EXTRN	?GetD3D@CPythonGraphic@@QAEPAUIDirect3D8@@XZ:PROC ; CPythonGraphic::GetD3D
;	COMDAT ??_C@_0BK@BDPDEBGA@Cannot?5open?5interface?4cfg?$AA@
CONST	SEGMENT
??_C@_0BK@BDPDEBGA@Cannot?5open?5interface?4cfg?$AA@ DB 'Cannot open inte'
	DB	'rface.cfg', 00H				; `string'
CONST	ENDS
;	COMDAT ??_C@_0O@OMHCOGAL@interface?4cfg?$AA@
CONST	SEGMENT
??_C@_0O@OMHCOGAL@interface?4cfg?$AA@ DB 'interface.cfg', 00H ; `string'
CONST	ENDS
;	COMDAT ??_C@_0BG@OMGMEENH@OnSaveInterfaceStatus?$AA@
CONST	SEGMENT
??_C@_0BG@OMGMEENH@OnSaveInterfaceStatus?$AA@ DB 'OnSaveInterfaceStatus', 00H ; `string'
CONST	ENDS
;	COMDAT ??_C@_0BF@IKAPIKKK@SOFTWARE_TILING?7?7?$CFd?6?$AA@
CONST	SEGMENT
??_C@_0BF@IKAPIKKK@SOFTWARE_TILING?7?7?$CFd?6?$AA@ DB 'SOFTWARE_TILING', 09H
	DB	09H, '%d', 0aH, 00H				; `string'
CONST	ENDS
;	COMDAT ??_C@_0BD@PGMGBMGN@SHADOW_LEVEL?7?7?7?$CFd?6?$AA@
CONST	SEGMENT
??_C@_0BD@PGMGBMGN@SHADOW_LEVEL?7?7?7?$CFd?6?$AA@ DB 'SHADOW_LEVEL', 09H, 09H
	DB	09H, '%d', 0aH, 00H				; `string'
CONST	ENDS
;	COMDAT ??_C@_0BE@POEIEBIF@SHOW_SALESTEXT?7?7?$CFd?6?$AA@
CONST	SEGMENT
??_C@_0BE@POEIEBIF@SHOW_SALESTEXT?7?7?$CFd?6?$AA@ DB 'SHOW_SALESTEXT', 09H
	DB	09H, '%d', 0aH, 00H				; `string'
CONST	ENDS
;	COMDAT ??_C@_0BF@NGKLEPOF@USE_DEFAULT_IME?7?7?$CFd?6?$AA@
CONST	SEGMENT
??_C@_0BF@NGKLEPOF@USE_DEFAULT_IME?7?7?$CFd?6?$AA@ DB 'USE_DEFAULT_IME', 09H
	DB	09H, '%d', 0aH, 00H				; `string'
CONST	ENDS
;	COMDAT ??_C@_0BG@HBKBHOOM@ALWAYS_VIEW_NAME?7?7?$CFd?6?$AA@
CONST	SEGMENT
??_C@_0BG@HBKBHOOM@ALWAYS_VIEW_NAME?7?7?$CFd?6?$AA@ DB 'ALWAYS_VIEW_NAME', 09H
	DB	09H, '%d', 0aH, 00H				; `string'
CONST	ENDS
;	COMDAT ??_C@_0BB@DLBIFMBO@SHOW_DAMAGE?7?7?$CFd?6?$AA@
CONST	SEGMENT
??_C@_0BB@DLBIFMBO@SHOW_DAMAGE?7?7?$CFd?6?$AA@ DB 'SHOW_DAMAGE', 09H, 09H
	DB	'%d', 0aH, 00H				; `string'
CONST	ENDS
;	COMDAT ??_C@_0BA@HPBHGBH@WINDOWED?7?7?7?7?$CFd?6?$AA@
CONST	SEGMENT
??_C@_0BA@HPBHGBH@WINDOWED?7?7?7?7?$CFd?6?$AA@ DB 'WINDOWED', 09H, 09H, 09H
	DB	09H, '%d', 0aH, 00H				; `string'
CONST	ENDS
;	COMDAT ??_C@_0BB@EKNDKDHN@VIEW_CHAT?7?7?7?7?$CFd?6?$AA@
CONST	SEGMENT
??_C@_0BB@EKNDKDHN@VIEW_CHAT?7?7?7?7?$CFd?6?$AA@ DB 'VIEW_CHAT', 09H, 09H
	DB	09H, 09H, '%d', 0aH, 00H			; `string'
CONST	ENDS
;	COMDAT ??_C@_02BKFDOEMK@wt?$AA@
CONST	SEGMENT
??_C@_02BKFDOEMK@wt?$AA@ DB 'wt', 00H			; `string'
CONST	ENDS
;	COMDAT ??_C@_0BAC@DOGJKKLN@WIDTH?7?7?7?7?7?7?$CFd?6HEIGHT?7?7?7?7?7?7?$CFd?6BPP@
CONST	SEGMENT
??_C@_0BAC@DOGJKKLN@WIDTH?7?7?7?7?7?7?$CFd?6HEIGHT?7?7?7?7?7?7?$CFd?6BPP@ DB 'W'
	DB	'IDTH', 09H, 09H, 09H, 09H, 09H, 09H, '%d', 0aH, 'HEIGHT', 09H
	DB	09H, 09H, 09H, 09H, 09H, '%d', 0aH, 'BPP', 09H, 09H, 09H, 09H, 09H
	DB	09H, '%d', 0aH, 'FREQUENCY', 09H, 09H, 09H, 09H, 09H, '%d', 0aH
	DB	'SOFTWARE_CURSOR', 09H, 09H, 09H, '%d', 0aH, 'OBJECT_CULLING', 09H
	DB	09H, 09H, 09H, '%d', 0aH, 'VISIBILITY', 09H, 09H, 09H, 09H, 09H
	DB	'%d', 0aH, 'MUSIC_VOLUME', 09H, 09H, 09H, 09H, '%.3f', 0aH, 'V'
	DB	'OICE_VOLUME', 09H, 09H, 09H, 09H, '%d', 0aH, 'GAMMA', 09H, 09H
	DB	09H, 09H, 09H, 09H, '%d', 0aH, 'IS_SAVE_ID', 09H, 09H, 09H, 09H
	DB	09H, '%d', 0aH, 'SAVE_ID', 09H, 09H, 09H, 09H, 09H, '%s', 0aH, 'P'
	DB	'RE_LOADING_DELAY_TIME', 09H, 09H, '%d', 0aH, 'DECOMPRESSED_TE'
	DB	'XTURE', 09H, 09H, '%d', 0aH, 00H		; `string'
CONST	ENDS
;	COMDAT ??_C@_0M@FJJANDDI@SHOW_DAMAGE?$AA@
CONST	SEGMENT
??_C@_0M@FJJANDDI@SHOW_DAMAGE?$AA@ DB 'SHOW_DAMAGE', 00H ; `string'
CONST	ENDS
;	COMDAT ??_C@_0P@FIIALOBN@SHOW_SALESTEXT?$AA@
CONST	SEGMENT
??_C@_0P@FIIALOBN@SHOW_SALESTEXT?$AA@ DB 'SHOW_SALESTEXT', 00H ; `string'
CONST	ENDS
;	COMDAT ??_C@_09EOOFFIKE@VIEW_CHAT?$AA@
CONST	SEGMENT
??_C@_09EOOFFIKE@VIEW_CHAT?$AA@ DB 'VIEW_CHAT', 00H	; `string'
CONST	ENDS
;	COMDAT ??_C@_0BB@PPFHKIN@ALWAYS_VIEW_NAME?$AA@
CONST	SEGMENT
??_C@_0BB@PPFHKIN@ALWAYS_VIEW_NAME?$AA@ DB 'ALWAYS_VIEW_NAME', 00H ; `string'
CONST	ENDS
;	COMDAT ??_C@_0BF@BGGNMKON@DECOMPRESSED_TEXTURE?$AA@
CONST	SEGMENT
??_C@_0BF@BGGNMKON@DECOMPRESSED_TEXTURE?$AA@ DB 'DECOMPRESSED_TEXTURE', 00H ; `string'
CONST	ENDS
;	COMDAT ??_C@_0O@HAABBABC@NO_SOUND_CARD?$AA@
CONST	SEGMENT
??_C@_0O@HAABBABC@NO_SOUND_CARD?$AA@ DB 'NO_SOUND_CARD', 00H ; `string'
CONST	ENDS
;	COMDAT ??_C@_0BA@KHMHFIHA@SOFTWARE_TILING?$AA@
CONST	SEGMENT
??_C@_0BA@KHMHFIHA@SOFTWARE_TILING?$AA@ DB 'SOFTWARE_TILING', 00H ; `string'
CONST	ENDS
;	COMDAT ??_C@_0N@FFBEOPBM@SHADOW_LEVEL?$AA@
CONST	SEGMENT
??_C@_0N@FFBEOPBM@SHADOW_LEVEL?$AA@ DB 'SHADOW_LEVEL', 00H ; `string'
CONST	ENDS
;	COMDAT ??_C@_08NHNHGFNP@WINDOWED?$AA@
CONST	SEGMENT
??_C@_08NHNHGFNP@WINDOWED?$AA@ DB 'WINDOWED', 00H	; `string'
CONST	ENDS
;	COMDAT ??_C@_0BA@LLBGEPPK@USE_DEFAULT_IME?$AA@
CONST	SEGMENT
??_C@_0BA@LLBGEPPK@USE_DEFAULT_IME?$AA@ DB 'USE_DEFAULT_IME', 00H ; `string'
CONST	ENDS
;	COMDAT ??_C@_07JBPMLFBH@SAVE_ID?$AA@
CONST	SEGMENT
??_C@_07JBPMLFBH@SAVE_ID?$AA@ DB 'SAVE_ID', 00H		; `string'
CONST	ENDS
;	COMDAT ??_C@_0BH@DLIOKMKH@PRE_LOADING_DELAY_TIME?$AA@
CONST	SEGMENT
??_C@_0BH@DLIOKMKH@PRE_LOADING_DELAY_TIME?$AA@ DB 'PRE_LOADING_DELAY_TIME'
	DB	00H						; `string'
CONST	ENDS
;	COMDAT ??_C@_05MBKNPFEG@GAMMA?$AA@
CONST	SEGMENT
??_C@_05MBKNPFEG@GAMMA?$AA@ DB 'GAMMA', 00H		; `string'
CONST	ENDS
;	COMDAT ??_C@_0L@MNJEEPBE@IS_SAVE_ID?$AA@
CONST	SEGMENT
??_C@_0L@MNJEEPBE@IS_SAVE_ID?$AA@ DB 'IS_SAVE_ID', 00H	; `string'
CONST	ENDS
;	COMDAT ??_C@_0N@GMIPKHGM@MUSIC_VOLUME?$AA@
CONST	SEGMENT
??_C@_0N@GMIPKHGM@MUSIC_VOLUME?$AA@ DB 'MUSIC_VOLUME', 00H ; `string'
CONST	ENDS
;	COMDAT ??_C@_0N@PBAPMOIE@VOICE_VOLUME?$AA@
CONST	SEGMENT
??_C@_0N@PBAPMOIE@VOICE_VOLUME?$AA@ DB 'VOICE_VOLUME', 00H ; `string'
CONST	ENDS
;	COMDAT ??_C@_0P@HLGCIFEM@OBJECT_CULLING?$AA@
CONST	SEGMENT
??_C@_0P@HLGCIFEM@OBJECT_CULLING?$AA@ DB 'OBJECT_CULLING', 00H ; `string'
CONST	ENDS
;	COMDAT ??_C@_0L@JLMBCMBB@VISIBILITY?$AA@
CONST	SEGMENT
??_C@_0L@JLMBCMBB@VISIBILITY?$AA@ DB 'VISIBILITY', 00H	; `string'
CONST	ENDS
;	COMDAT ??_C@_09JJJEBDOD@FREQUENCY?$AA@
CONST	SEGMENT
??_C@_09JJJEBDOD@FREQUENCY?$AA@ DB 'FREQUENCY', 00H	; `string'
CONST	ENDS
;	COMDAT ??_C@_0BA@KHKJCKOL@SOFTWARE_CURSOR?$AA@
CONST	SEGMENT
??_C@_0BA@KHKJCKOL@SOFTWARE_CURSOR?$AA@ DB 'SOFTWARE_CURSOR', 00H ; `string'
CONST	ENDS
;	COMDAT ??_C@_06LJJMJONE@HEIGHT?$AA@
CONST	SEGMENT
??_C@_06LJJMJONE@HEIGHT?$AA@ DB 'HEIGHT', 00H		; `string'
CONST	ENDS
;	COMDAT ??_C@_03DJKBMDLB@BPP?$AA@
CONST	SEGMENT
??_C@_03DJKBMDLB@BPP?$AA@ DB 'BPP', 00H			; `string'
CONST	ENDS
;	COMDAT ??_C@_07IJONGFBP@?5?$CFs?5?$CFs?6?$AA@
CONST	SEGMENT
??_C@_07IJONGFBP@?5?$CFs?5?$CFs?6?$AA@ DB ' %s %s', 0aH, 00H ; `string'
CONST	ENDS
;	COMDAT ??_C@_05ENDGNACA@WIDTH?$AA@
CONST	SEGMENT
??_C@_05ENDGNACA@WIDTH?$AA@ DB 'WIDTH', 00H		; `string'
CONST	ENDS
;	COMDAT ??_C@_0L@PJKCGBDF@metin2?4cfg?$AA@
CONST	SEGMENT
??_C@_0L@PJKCGBDF@metin2?4cfg?$AA@ DB 'metin2.cfg', 00H	; `string'
CONST	ENDS
;	COMDAT ??_C@_01EEMJAFIK@?6?$AA@
CONST	SEGMENT
??_C@_01EEMJAFIK@?6?$AA@ DB 0aH, 00H			; `string'
CONST	ENDS
;	COMDAT ??_7CPythonSystem@@6B@
CONST	SEGMENT
??_7CPythonSystem@@6B@ DD FLAT:??_R4CPythonSystem@@6B@	; CPythonSystem::`vftable'
	DD	FLAT:??_ECPythonSystem@@UAEPAXI@Z
CONST	ENDS
;	COMDAT ??_7?$CSingleton@VCPythonSystem@@@@6B@
CONST	SEGMENT
??_7?$CSingleton@VCPythonSystem@@@@6B@ DD FLAT:??_R4?$CSingleton@VCPythonSystem@@@@6B@ ; CSingleton<CPythonSystem>::`vftable'
	DD	FLAT:??_E?$CSingleton@VCPythonSystem@@@@UAEPAXI@Z
CONST	ENDS
;	COMDAT ??_R4?$CSingleton@VCPythonSystem@@@@6B@
rdata$r	SEGMENT
??_R4?$CSingleton@VCPythonSystem@@@@6B@ DD 00H		; CSingleton<CPythonSystem>::`RTTI Complete Object Locator'
	DD	00H
	DD	00H
	DD	FLAT:??_R0?AV?$CSingleton@VCPythonSystem@@@@@8
	DD	FLAT:??_R3?$CSingleton@VCPythonSystem@@@@8
rdata$r	ENDS
;	COMDAT ??_R4CPythonSystem@@6B@
rdata$r	SEGMENT
??_R4CPythonSystem@@6B@ DD 00H				; CPythonSystem::`RTTI Complete Object Locator'
	DD	00H
	DD	00H
	DD	FLAT:??_R0?AVCPythonSystem@@@8
	DD	FLAT:??_R3CPythonSystem@@8
rdata$r	ENDS
;	COMDAT ??_R0?AVCPythonSystem@@@8
data$r	SEGMENT
??_R0?AVCPythonSystem@@@8 DD FLAT:??_7type_info@@6B@	; CPythonSystem `RTTI Type Descriptor'
	DD	00H
	DB	'.?AVCPythonSystem@@', 00H
data$r	ENDS
;	COMDAT ??_R3CPythonSystem@@8
rdata$r	SEGMENT
??_R3CPythonSystem@@8 DD 00H				; CPythonSystem::`RTTI Class Hierarchy Descriptor'
	DD	00H
	DD	02H
	DD	FLAT:??_R2CPythonSystem@@8
rdata$r	ENDS
;	COMDAT ??_R0?AV?$CSingleton@VCPythonSystem@@@@@8
data$r	SEGMENT
??_R0?AV?$CSingleton@VCPythonSystem@@@@@8 DD FLAT:??_7type_info@@6B@ ; CSingleton<CPythonSystem> `RTTI Type Descriptor'
	DD	00H
	DB	'.?AV?$CSingleton@VCPythonSystem@@@@', 00H
data$r	ENDS
;	COMDAT ??_R3?$CSingleton@VCPythonSystem@@@@8
rdata$r	SEGMENT
??_R3?$CSingleton@VCPythonSystem@@@@8 DD 00H		; CSingleton<CPythonSystem>::`RTTI Class Hierarchy Descriptor'
	DD	00H
	DD	01H
	DD	FLAT:??_R2?$CSingleton@VCPythonSystem@@@@8
rdata$r	ENDS
;	COMDAT ??_R1A@?0A@EA@CPythonSystem@@8
rdata$r	SEGMENT
??_R1A@?0A@EA@CPythonSystem@@8 DD FLAT:??_R0?AVCPythonSystem@@@8 ; CPythonSystem::`RTTI Base Class Descriptor at (0,-1,0,64)'
	DD	01H
	DD	00H
	DD	0ffffffffH
	DD	00H
	DD	040H
	DD	FLAT:??_R3CPythonSystem@@8
rdata$r	ENDS
;	COMDAT ??_R1A@?0A@EA@?$CSingleton@VCPythonSystem@@@@8
rdata$r	SEGMENT
??_R1A@?0A@EA@?$CSingleton@VCPythonSystem@@@@8 DD FLAT:??_R0?AV?$CSingleton@VCPythonSystem@@@@@8 ; CSingleton<CPythonSystem>::`RTTI Base Class Descriptor at (0,-1,0,64)'
	DD	00H
	DD	00H
	DD	0ffffffffH
	DD	00H
	DD	040H
	DD	FLAT:??_R3?$CSingleton@VCPythonSystem@@@@8
rdata$r	ENDS
;	COMDAT ??_R2?$CSingleton@VCPythonSystem@@@@8
rdata$r	SEGMENT
??_R2?$CSingleton@VCPythonSystem@@@@8 DD FLAT:??_R1A@?0A@EA@?$CSingleton@VCPythonSystem@@@@8 ; CSingleton<CPythonSystem>::`RTTI Base Class Array'
rdata$r	ENDS
;	COMDAT ??_R2CPythonSystem@@8
rdata$r	SEGMENT
??_R2CPythonSystem@@8 DD FLAT:??_R1A@?0A@EA@CPythonSystem@@8 ; CPythonSystem::`RTTI Base Class Array'
	DD	FLAT:??_R1A@?0A@EA@?$CSingleton@VCPythonSystem@@@@8
PUBLIC	?pow@@YAMMM@Z					; pow
PUBLIC	_powf
PUBLIC	??_G?$CSingleton@VCPythonSystem@@@@UAEPAXI@Z	; CSingleton<CPythonSystem>::`scalar deleting destructor'
PUBLIC	?instance@?$CSingleton@VCPythonBackground@@@@SAAAVCPythonBackground@@XZ ; CSingleton<CPythonBackground>::instance
PUBLIC	??1?$CSingleton@VCPythonSystem@@@@UAE@XZ	; CSingleton<CPythonSystem>::~CSingleton<CPythonSystem>
PUBLIC	??0?$CSingleton@VCPythonSystem@@@@QAE@XZ	; CSingleton<CPythonSystem>::CSingleton<CPythonSystem>
PUBLIC	??_GCPythonSystem@@UAEPAXI@Z			; CPythonSystem::`scalar deleting destructor'
PUBLIC	?ChangeSystem@CPythonSystem@@QAEXXZ		; CPythonSystem::ChangeSystem
PUBLIC	?ApplyConfig@CPythonSystem@@QAEXXZ		; CPythonSystem::ApplyConfig
PUBLIC	?GetWindowStatusReference@CPythonSystem@@QAEABUSWindowStatus@1@H@Z ; CPythonSystem::GetWindowStatusReference
PUBLIC	?isInterfaceConfig@CPythonSystem@@QAE_NXZ	; CPythonSystem::isInterfaceConfig
PUBLIC	?LoadInterfaceStatus@CPythonSystem@@QAE_NXZ	; CPythonSystem::LoadInterfaceStatus
PUBLIC	?LoadConfig@CPythonSystem@@QAE_NXZ		; CPythonSystem::LoadConfig
PUBLIC	?SetShowSalesTextFlag@CPythonSystem@@QAEXH@Z	; CPythonSystem::SetShowSalesTextFlag
PUBLIC	?IsShowSalesText@CPythonSystem@@QAE_NXZ		; CPythonSystem::IsShowSalesText
PUBLIC	?SetShowDamageFlag@CPythonSystem@@QAEXH@Z	; CPythonSystem::SetShowDamageFlag
PUBLIC	?SetAlwaysShowNameFlag@CPythonSystem@@QAEXH@Z	; CPythonSystem::SetAlwaysShowNameFlag
PUBLIC	?IsAlwaysShowName@CPythonSystem@@QAE_NXZ	; CPythonSystem::IsAlwaysShowName
PUBLIC	?SetViewChatFlag@CPythonSystem@@QAEXH@Z		; CPythonSystem::SetViewChatFlag
PUBLIC	?IsViewChat@CPythonSystem@@QAE_NXZ		; CPythonSystem::IsViewChat
PUBLIC	?SetDefaultConfig@CPythonSystem@@QAEXXZ		; CPythonSystem::SetDefaultConfig
PUBLIC	?SetConfig@CPythonSystem@@QAEXPAUSConfig@1@@Z	; CPythonSystem::SetConfig
PUBLIC	?GetConfig@CPythonSystem@@QAEPAUSConfig@1@XZ	; CPythonSystem::GetConfig
PUBLIC	?SetSaveID@CPythonSystem@@QAEXHPBD@Z		; CPythonSystem::SetSaveID
PUBLIC	?GetSaveID@CPythonSystem@@QAEPBDXZ		; CPythonSystem::GetSaveID
PUBLIC	?IsSaveID@CPythonSystem@@QAEHXZ			; CPythonSystem::IsSaveID
PUBLIC	?SetShadowLevel@CPythonSystem@@QAEXI@Z		; CPythonSystem::SetShadowLevel
PUBLIC	?SetSoundVolumef@CPythonSystem@@QAEXM@Z		; CPythonSystem::SetSoundVolumef
PUBLIC	?SetMusicVolume@CPythonSystem@@QAEXM@Z		; CPythonSystem::SetMusicVolume
PUBLIC	?GetSoundVolume@CPythonSystem@@QAEHXZ		; CPythonSystem::GetSoundVolume
PUBLIC	?GetMusicVolume@CPythonSystem@@QAEMXZ		; CPythonSystem::GetMusicVolume
PUBLIC	?GetFrequencyIndex@CPythonSystem@@QAEHHK@Z	; CPythonSystem::GetFrequencyIndex
PUBLIC	?GetResolutionIndex@CPythonSystem@@QAEHKKK@Z	; CPythonSystem::GetResolutionIndex
PUBLIC	?GetFrequency@CPythonSystem@@QAE_NHHPAK@Z	; CPythonSystem::GetFrequency
PUBLIC	?GetResolution@CPythonSystem@@QAE_NHPAK00@Z	; CPythonSystem::GetResolution
PUBLIC	?GetFrequencyCount@CPythonSystem@@QAEHH@Z	; CPythonSystem::GetFrequencyCount
PUBLIC	?GetResolutionCount@CPythonSystem@@QAEHXZ	; CPythonSystem::GetResolutionCount
PUBLIC	?SaveWindowStatus@CPythonSystem@@QAEXHHHHHH@Z	; CPythonSystem::SaveWindowStatus
PUBLIC	?DestroyInterfaceHandler@CPythonSystem@@QAEXXZ	; CPythonSystem::DestroyInterfaceHandler
PUBLIC	?SetInterfaceHandler@CPythonSystem@@QAEXPAU_object@@@Z ; CPythonSystem::SetInterfaceHandler
PUBLIC	?SetSoftwareTiling@CPythonSystem@@QAEX_N@Z	; CPythonSystem::SetSoftwareTiling
PUBLIC	?GetShadowLevel@CPythonSystem@@QAEHXZ		; CPythonSystem::GetShadowLevel
PUBLIC	??0CPythonSystem@@QAE@XZ			; CPythonSystem::CPythonSystem
PUBLIC	??1CPythonSystem@@UAE@XZ			; CPythonSystem::~CPythonSystem
PUBLIC	?IsWindowed@CPythonSystem@@QAE_NXZ		; CPythonSystem::IsWindowed
PUBLIC	?IsUseDefaultIME@CPythonSystem@@QAE_NXZ		; CPythonSystem::IsUseDefaultIME
PUBLIC	?GetBPP@CPythonSystem@@QAEKXZ			; CPythonSystem::GetBPP
PUBLIC	?GetHeight@CPythonSystem@@QAEKXZ		; CPythonSystem::GetHeight
PUBLIC	?GetWidth@CPythonSystem@@QAEKXZ			; CPythonSystem::GetWidth
PUBLIC	?IsNoSoundCard@CPythonSystem@@QAE_NXZ		; CPythonSystem::IsNoSoundCard
PUBLIC	?IsAutoTiling@CPythonSystem@@QAE_NXZ		; CPythonSystem::IsAutoTiling
PUBLIC	?IsSoftwareTiling@CPythonSystem@@QAE_NXZ	; CPythonSystem::IsSoftwareTiling
PUBLIC	?GetFrequency@CPythonSystem@@QAEKXZ		; CPythonSystem::GetFrequency
PUBLIC	?GetDisplaySettings@CPythonSystem@@QAEXXZ	; CPythonSystem::GetDisplaySettings
PUBLIC	?IsSoftwareCursor@CPythonSystem@@QAE_NXZ	; CPythonSystem::IsSoftwareCursor
PUBLIC	?Clear@CPythonSystem@@QAEXXZ			; CPythonSystem::Clear
PUBLIC	?SaveConfig@CPythonSystem@@QAE_NXZ		; CPythonSystem::SaveConfig
PUBLIC	?SaveInterfaceStatus@CPythonSystem@@QAEXXZ	; CPythonSystem::SaveInterfaceStatus
PUBLIC	?IsShowDamage@CPythonSystem@@QAE_NXZ		; CPythonSystem::IsShowDamage
EXTRN	??_ECPythonSystem@@UAEPAXI@Z:PROC		; CPythonSystem::`vector deleting destructor'
EXTRN	??_E?$CSingleton@VCPythonSystem@@@@UAEPAXI@Z:PROC ; CSingleton<CPythonSystem>::`vector deleting destructor'
	ALIGN	4

_piecewise_construct DB 01H DUP (?)
_BSS	ENDS
;	COMDAT xdata$x
xdata$x	SEGMENT
__ehfuncinfo$??0CPythonSystem@@QAE@XZ DD 019930522H
	DD	01H
	DD	FLAT:__unwindtable$??0CPythonSystem@@QAE@XZ
	DD	2 DUP(00H)
	DD	2 DUP(00H)
	DD	00H
	DD	01H
__unwindtable$??0CPythonSystem@@QAE@XZ DD 0ffffffffH
	DD	FLAT:__unwindfunclet$??0CPythonSystem@@QAE@XZ$0
; Function compile flags: /Ogtp
; File d:\metin2\metin2\client_source_clean\client_source_clean\source\userinterface\pythonsystem.cpp
;	COMDAT ?IsShowDamage@CPythonSystem@@QAE_NXZ
_TEXT	SEGMENT
?IsShowDamage@CPythonSystem@@QAE_NXZ PROC		; CPythonSystem::IsShowDamage, COMDAT
; _this$ = ecx

; 339  : 	return m_Config.bShowDamage;

  00000	8a 81 cf 25 00
	00		 mov	 al, BYTE PTR [ecx+9679]

; 340  : }

  00006	c3		 ret	 0
?IsShowDamage@CPythonSystem@@QAE_NXZ ENDP		; CPythonSystem::IsShowDamage
_TEXT	ENDS
; Function compile flags: /Ogtp
; File d:\metin2\metin2\client_source_clean\client_source_clean\source\userinterface\pythonsystem.cpp
;	COMDAT ?SaveInterfaceStatus@CPythonSystem@@QAEXXZ
_TEXT	SEGMENT
?SaveInterfaceStatus@CPythonSystem@@QAEXXZ PROC		; CPythonSystem::SaveInterfaceStatus, COMDAT
; _this$ = ecx

; 559  : {

  00000	56		 push	 esi
  00001	8b f1		 mov	 esi, ecx

; 560  : 	if (!m_poInterfaceHandler)

  00003	83 be 24 26 00
	00 00		 cmp	 DWORD PTR [esi+9764], 0
  0000a	74 63		 je	 SHORT $LN3@SaveInterf

; 561  : 		return;
; 562  : 
; 563  : 	PyCallClassMemberFunc(m_poInterfaceHandler, "OnSaveInterfaceStatus", Py_BuildValue("()"));

  0000c	57		 push	 edi
  0000d	68 00 00 00 00	 push	 OFFSET ??_C@_02HCKGKOFO@?$CI?$CJ?$AA@
  00012	ff 15 00 00 00
	00		 call	 DWORD PTR __imp__Py_BuildValue
  00018	50		 push	 eax
  00019	68 00 00 00 00	 push	 OFFSET ??_C@_0BG@OMGMEENH@OnSaveInterfaceStatus?$AA@
  0001e	ff b6 24 26 00
	00		 push	 DWORD PTR [esi+9764]
  00024	e8 00 00 00 00	 call	 ?PyCallClassMemberFunc@@YA_NPAU_object@@PBD0@Z ; PyCallClassMemberFunc

; 564  : 
; 565  : 	FILE * File;
; 566  : 
; 567  : 	File = fopen("interface.cfg", "wb");

  00029	68 00 00 00 00	 push	 OFFSET ??_C@_02GMLFBBN@wb?$AA@
  0002e	68 00 00 00 00	 push	 OFFSET ??_C@_0O@OMHCOGAL@interface?4cfg?$AA@
  00033	e8 00 00 00 00	 call	 _fopen
  00038	8b f8		 mov	 edi, eax
  0003a	83 c4 18	 add	 esp, 24			; 00000018H

; 568  : 
; 569  : 	if (!File)

  0003d	85 ff		 test	 edi, edi
  0003f	75 10		 jne	 SHORT $LN1@SaveInterf

; 570  : 	{
; 571  : 		TraceError("Cannot open interface.cfg");

  00041	68 00 00 00 00	 push	 OFFSET ??_C@_0BK@BDPDEBGA@Cannot?5open?5interface?4cfg?$AA@
  00046	e8 00 00 00 00	 call	 ?TraceError@@YAXPBDZZ	; TraceError
  0004b	83 c4 04	 add	 esp, 4
  0004e	5f		 pop	 edi
  0004f	5e		 pop	 esi

; 577  : }

  00050	c3		 ret	 0
$LN1@SaveInterf:

; 572  : 		return;
; 573  : 	}
; 574  : 
; 575  : 	fwrite(m_WindowStatus, 1, sizeof(TWindowStatus) * WINDOW_MAX_NUM, File);

  00051	57		 push	 edi
  00052	68 c8 00 00 00	 push	 200			; 000000c8H
  00057	8d 86 28 26 00
	00		 lea	 eax, DWORD PTR [esi+9768]
  0005d	6a 01		 push	 1
  0005f	50		 push	 eax
  00060	e8 00 00 00 00	 call	 _fwrite

; 576  : 	fclose(File);

  00065	57		 push	 edi
  00066	e8 00 00 00 00	 call	 _fclose
  0006b	83 c4 14	 add	 esp, 20			; 00000014H
  0006e	5f		 pop	 edi
$LN3@SaveInterf:
  0006f	5e		 pop	 esi

; 577  : }

  00070	c3		 ret	 0
?SaveInterfaceStatus@CPythonSystem@@QAEXXZ ENDP		; CPythonSystem::SaveInterfaceStatus
_TEXT	ENDS
; Function compile flags: /Ogtp
; File d:\metin2\metin2\client_source_clean\client_source_clean\source\userinterface\pythonsystem.cpp
;	COMDAT ?SaveConfig@CPythonSystem@@QAE_NXZ
_TEXT	SEGMENT
?SaveConfig@CPythonSystem@@QAE_NXZ PROC			; CPythonSystem::SaveConfig, COMDAT
; _this$ = ecx

; 490  : {

  00000	55		 push	 ebp
  00001	8b ec		 mov	 ebp, esp
  00003	83 e4 c0	 and	 esp, -64		; ffffffc0H
  00006	83 ec 38	 sub	 esp, 56			; 00000038H
  00009	56		 push	 esi
  0000a	57		 push	 edi

; 491  : 	FILE *fp;
; 492  : 
; 493  : 	if (NULL == (fp = fopen("metin2.cfg", "wt")))

  0000b	68 00 00 00 00	 push	 OFFSET ??_C@_02BKFDOEMK@wt?$AA@
  00010	68 00 00 00 00	 push	 OFFSET ??_C@_0L@PJKCGBDF@metin2?4cfg?$AA@
  00015	8b f9		 mov	 edi, ecx
  00017	e8 00 00 00 00	 call	 _fopen
  0001c	8b f0		 mov	 esi, eax
  0001e	83 c4 08	 add	 esp, 8
  00021	85 f6		 test	 esi, esi
  00023	75 08		 jne	 SHORT $LN6@SaveConfig

; 494  : 		return false;

  00025	32 c0		 xor	 al, al

; 543  : }

  00027	5f		 pop	 edi
  00028	5e		 pop	 esi
  00029	8b e5		 mov	 esp, ebp
  0002b	5d		 pop	 ebp
  0002c	c3		 ret	 0
$LN6@SaveConfig:

; 495  : 
; 496  : 	fprintf(fp, "WIDTH						%d\n"
; 497  : 				"HEIGHT						%d\n"
; 498  : 				"BPP						%d\n"
; 499  : 				"FREQUENCY					%d\n"
; 500  : 				"SOFTWARE_CURSOR			%d\n"
; 501  : 				"OBJECT_CULLING				%d\n"
; 502  : 				"VISIBILITY					%d\n"
; 503  : 				"MUSIC_VOLUME				%.3f\n"
; 504  : 				"VOICE_VOLUME				%d\n"
; 505  : 				"GAMMA						%d\n"
; 506  : 				"IS_SAVE_ID					%d\n"
; 507  : 				"SAVE_ID					%s\n"
; 508  : 				"PRE_LOADING_DELAY_TIME		%d\n"
; 509  : 				"DECOMPRESSED_TEXTURE		%d\n",
; 510  : 				m_Config.width,
; 511  : 				m_Config.height,
; 512  : 				m_Config.bpp,
; 513  : 				m_Config.frequency,
; 514  : 				m_Config.is_software_cursor,
; 515  : 				m_Config.is_object_culling,
; 516  : 				m_Config.iDistance,
; 517  : 				m_Config.music_volume,
; 518  : 				m_Config.voice_volume,
; 519  : 				m_Config.gamma,
; 520  : 				m_Config.isSaveID,
; 521  : 				m_Config.SaveID,
; 522  : 				g_iLoadingDelayTime,
; 523  : 				m_Config.bDecompressDDS);

  0002d	0f b6 87 c9 25
	00 00		 movzx	 eax, BYTE PTR [edi+9673]
  00034	f3 0f 10 87 a4
	25 00 00	 movss	 xmm0, DWORD PTR [edi+9636]
  0003c	50		 push	 eax
  0003d	ff 35 00 00 00
	00		 push	 DWORD PTR ?g_iLoadingDelayTime@@3HA ; g_iLoadingDelayTime
  00043	8d 87 b4 25 00
	00		 lea	 eax, DWORD PTR [edi+9652]
  00049	50		 push	 eax
  0004a	ff b7 b0 25 00
	00		 push	 DWORD PTR [edi+9648]
  00050	0f b6 87 a8 25
	00 00		 movzx	 eax, BYTE PTR [edi+9640]
  00057	ff b7 ac 25 00
	00		 push	 DWORD PTR [edi+9644]
  0005d	0f 5a c0	 cvtps2pd xmm0, xmm0
  00060	50		 push	 eax
  00061	0f b6 87 99 25
	00 00		 movzx	 eax, BYTE PTR [edi+9625]
  00068	83 ec 08	 sub	 esp, 8
  0006b	f2 0f 11 04 24	 movsd	 QWORD PTR [esp], xmm0
  00070	ff b7 9c 25 00
	00		 push	 DWORD PTR [edi+9628]
  00076	50		 push	 eax
  00077	0f b6 87 98 25
	00 00		 movzx	 eax, BYTE PTR [edi+9624]
  0007e	50		 push	 eax
  0007f	ff b7 94 25 00
	00		 push	 DWORD PTR [edi+9620]
  00085	ff b7 90 25 00
	00		 push	 DWORD PTR [edi+9616]
  0008b	ff b7 8c 25 00
	00		 push	 DWORD PTR [edi+9612]
  00091	ff b7 88 25 00
	00		 push	 DWORD PTR [edi+9608]
  00097	68 00 00 00 00	 push	 OFFSET ??_C@_0BAC@DOGJKKLN@WIDTH?7?7?7?7?7?7?$CFd?6HEIGHT?7?7?7?7?7?7?$CFd?6BPP@
  0009c	56		 push	 esi
  0009d	e8 00 00 00 00	 call	 _fprintf
  000a2	83 c4 44	 add	 esp, 68			; 00000044H

; 524  : 
; 525  : 	if (m_Config.bWindowed == 1)

  000a5	80 bf c8 25 00
	00 01		 cmp	 BYTE PTR [edi+9672], 1
  000ac	75 10		 jne	 SHORT $LN5@SaveConfig

; 526  : 		fprintf(fp, "WINDOWED				%d\n", m_Config.bWindowed);

  000ae	6a 01		 push	 1
  000b0	68 00 00 00 00	 push	 OFFSET ??_C@_0BA@HPBHGBH@WINDOWED?7?7?7?7?$CFd?6?$AA@
  000b5	56		 push	 esi
  000b6	e8 00 00 00 00	 call	 _fprintf
  000bb	83 c4 0c	 add	 esp, 12			; 0000000cH
$LN5@SaveConfig:

; 527  : 	if (m_Config.bViewChat == 0)

  000be	80 bf cd 25 00
	00 00		 cmp	 BYTE PTR [edi+9677], 0
  000c5	75 10		 jne	 SHORT $LN4@SaveConfig

; 528  : 		fprintf(fp, "VIEW_CHAT				%d\n", m_Config.bViewChat);

  000c7	6a 00		 push	 0
  000c9	68 00 00 00 00	 push	 OFFSET ??_C@_0BB@EKNDKDHN@VIEW_CHAT?7?7?7?7?$CFd?6?$AA@
  000ce	56		 push	 esi
  000cf	e8 00 00 00 00	 call	 _fprintf
  000d4	83 c4 0c	 add	 esp, 12			; 0000000cH
$LN4@SaveConfig:

; 529  : 	if (m_Config.bAlwaysShowName != DEFAULT_VALUE_ALWAYS_SHOW_NAME)

  000d7	8a 87 ce 25 00
	00		 mov	 al, BYTE PTR [edi+9678]
  000dd	3c 01		 cmp	 al, 1
  000df	74 12		 je	 SHORT $LN3@SaveConfig

; 530  : 		fprintf(fp, "ALWAYS_VIEW_NAME		%d\n", m_Config.bAlwaysShowName);

  000e1	0f b6 c0	 movzx	 eax, al
  000e4	50		 push	 eax
  000e5	68 00 00 00 00	 push	 OFFSET ??_C@_0BG@HBKBHOOM@ALWAYS_VIEW_NAME?7?7?$CFd?6?$AA@
  000ea	56		 push	 esi
  000eb	e8 00 00 00 00	 call	 _fprintf
  000f0	83 c4 0c	 add	 esp, 12			; 0000000cH
$LN3@SaveConfig:

; 531  : 	if (m_Config.bShowDamage == 0)

  000f3	80 bf cf 25 00
	00 00		 cmp	 BYTE PTR [edi+9679], 0
  000fa	75 10		 jne	 SHORT $LN2@SaveConfig

; 532  : 		fprintf(fp, "SHOW_DAMAGE		%d\n", m_Config.bShowDamage);

  000fc	6a 00		 push	 0
  000fe	68 00 00 00 00	 push	 OFFSET ??_C@_0BB@DLBIFMBO@SHOW_DAMAGE?7?7?$CFd?6?$AA@
  00103	56		 push	 esi
  00104	e8 00 00 00 00	 call	 _fprintf
  00109	83 c4 0c	 add	 esp, 12			; 0000000cH
$LN2@SaveConfig:

; 533  : 	if (m_Config.bShowSalesText == 0)

  0010c	80 bf d0 25 00
	00 00		 cmp	 BYTE PTR [edi+9680], 0
  00113	75 10		 jne	 SHORT $LN1@SaveConfig

; 534  : 		fprintf(fp, "SHOW_SALESTEXT		%d\n", m_Config.bShowSalesText);

  00115	6a 00		 push	 0
  00117	68 00 00 00 00	 push	 OFFSET ??_C@_0BE@POEIEBIF@SHOW_SALESTEXT?7?7?$CFd?6?$AA@
  0011c	56		 push	 esi
  0011d	e8 00 00 00 00	 call	 _fprintf
  00122	83 c4 0c	 add	 esp, 12			; 0000000cH
$LN1@SaveConfig:

; 535  : 
; 536  : 	fprintf(fp, "USE_DEFAULT_IME		%d\n", m_Config.bUseDefaultIME);

  00125	0f b6 87 cb 25
	00 00		 movzx	 eax, BYTE PTR [edi+9675]
  0012c	50		 push	 eax
  0012d	68 00 00 00 00	 push	 OFFSET ??_C@_0BF@NGKLEPOF@USE_DEFAULT_IME?7?7?$CFd?6?$AA@
  00132	56		 push	 esi
  00133	e8 00 00 00 00	 call	 _fprintf

; 537  : 	fprintf(fp, "SOFTWARE_TILING		%d\n", m_Config.bSoftwareTiling);

  00138	0f b6 87 cc 25
	00 00		 movzx	 eax, BYTE PTR [edi+9676]
  0013f	50		 push	 eax
  00140	68 00 00 00 00	 push	 OFFSET ??_C@_0BF@IKAPIKKK@SOFTWARE_TILING?7?7?$CFd?6?$AA@
  00145	56		 push	 esi
  00146	e8 00 00 00 00	 call	 _fprintf

; 538  : 	fprintf(fp, "SHADOW_LEVEL			%d\n", m_Config.iShadowLevel);

  0014b	ff b7 a0 25 00
	00		 push	 DWORD PTR [edi+9632]
  00151	68 00 00 00 00	 push	 OFFSET ??_C@_0BD@PGMGBMGN@SHADOW_LEVEL?7?7?7?$CFd?6?$AA@
  00156	56		 push	 esi
  00157	e8 00 00 00 00	 call	 _fprintf

; 539  : 	fprintf(fp, "\n");

  0015c	68 00 00 00 00	 push	 OFFSET ??_C@_01EEMJAFIK@?6?$AA@
  00161	56		 push	 esi
  00162	e8 00 00 00 00	 call	 _fprintf

; 540  : 
; 541  : 	fclose(fp);

  00167	56		 push	 esi
  00168	e8 00 00 00 00	 call	 _fclose
  0016d	83 c4 30	 add	 esp, 48			; 00000030H

; 542  : 	return true;

  00170	b0 01		 mov	 al, 1

; 543  : }

  00172	5f		 pop	 edi
  00173	5e		 pop	 esi
  00174	8b e5		 mov	 esp, ebp
  00176	5d		 pop	 ebp
  00177	c3		 ret	 0
?SaveConfig@CPythonSystem@@QAE_NXZ ENDP			; CPythonSystem::SaveConfig
_TEXT	ENDS
; Function compile flags: /Ogtp
; File d:\metin2\metin2\client_source_clean\client_source_clean\source\userinterface\pythonsystem.cpp
;	COMDAT ?Clear@CPythonSystem@@QAEXXZ
_TEXT	SEGMENT
?Clear@CPythonSystem@@QAEXXZ PROC			; CPythonSystem::Clear, COMDAT
; _this$ = ecx

; 651  : 	SetInterfaceHandler(NULL);

  00000	6a 00		 push	 0
  00002	e8 00 00 00 00	 call	 ?SetInterfaceHandler@CPythonSystem@@QAEXPAU_object@@@Z ; CPythonSystem::SetInterfaceHandler

; 652  : }

  00007	c3		 ret	 0
?Clear@CPythonSystem@@QAEXXZ ENDP			; CPythonSystem::Clear
_TEXT	ENDS
; Function compile flags: /Ogtp
; File d:\metin2\metin2\client_source_clean\client_source_clean\source\userinterface\pythonsystem.cpp
;	COMDAT ?IsSoftwareCursor@CPythonSystem@@QAE_NXZ
_TEXT	SEGMENT
?IsSoftwareCursor@CPythonSystem@@QAE_NXZ PROC		; CPythonSystem::IsSoftwareCursor, COMDAT
; _this$ = ecx

; 208  : 	return m_Config.is_software_cursor;

  00000	8a 81 98 25 00
	00		 mov	 al, BYTE PTR [ecx+9624]

; 209  : }

  00006	c3		 ret	 0
?IsSoftwareCursor@CPythonSystem@@QAE_NXZ ENDP		; CPythonSystem::IsSoftwareCursor
_TEXT	ENDS
; Function compile flags: /Ogtp
; File d:\metin2\metin2\client_source_clean\client_source_clean\source\userinterface\pythonsystem.cpp
;	COMDAT ?GetDisplaySettings@CPythonSystem@@QAEXXZ
_TEXT	SEGMENT
_dwNumAdapterModes$1$ = -1144				; size = 4
_iMode$1$ = -1140					; size = 4
_i$1$ = -1136						; size = 4
_this$GSCopy$1$ = -1132					; size = 4
_bpp$1$ = -1128						; size = 4
_DisplayMode$1$ = -1124					; size = 4
_lpD3D$1$ = -1120					; size = 4
tv624 = -1116						; size = 4
_d3dAdapterIdentifier$ = -1112				; size = 1068
_d3ddmDesktop$ = -36					; size = 16
_DisplayMode$1 = -20					; size = 16
__$ArrayPad$ = -4					; size = 4
?GetDisplaySettings@CPythonSystem@@QAEXXZ PROC		; CPythonSystem::GetDisplaySettings, COMDAT
; _this$ = ecx

; 35   : {

  00000	55		 push	 ebp
  00001	8b ec		 mov	 ebp, esp
  00003	81 ec 7c 04 00
	00		 sub	 esp, 1148		; 0000047cH
  00009	a1 00 00 00 00	 mov	 eax, DWORD PTR ___security_cookie
  0000e	33 c5		 xor	 eax, ebp
  00010	89 45 fc	 mov	 DWORD PTR __$ArrayPad$[ebp], eax
  00013	53		 push	 ebx
  00014	56		 push	 esi
  00015	8b d9		 mov	 ebx, ecx
  00017	57		 push	 edi

; 36   : 	memset(m_ResolutionList, 0, sizeof(TResolution) * RESOLUTION_MAX_NUM);

  00018	68 80 25 00 00	 push	 9600			; 00002580H
  0001d	6a 00		 push	 0
  0001f	8d 43 04	 lea	 eax, DWORD PTR [ebx+4]
  00022	89 9d 94 fb ff
	ff		 mov	 DWORD PTR _this$GSCopy$1$[ebp], ebx
  00028	50		 push	 eax
  00029	e8 00 00 00 00	 call	 _memset
  0002e	83 c4 0c	 add	 esp, 12			; 0000000cH

; 37   : 	m_ResolutionCount = 0;

  00031	c7 83 84 25 00
	00 00 00 00 00	 mov	 DWORD PTR [ebx+9604], 0

; 38   : 
; 39   : 	LPDIRECT3D8 lpD3D = CPythonGraphic::Instance().GetD3D();

  0003b	8b 0d 00 00 00
	00		 mov	 ecx, DWORD PTR ?ms_singleton@?$CSingleton@VCPythonGraphic@@@@0PAVCPythonGraphic@@A ; CSingleton<CPythonGraphic>::ms_singleton
  00041	e8 00 00 00 00	 call	 ?GetD3D@CPythonGraphic@@QAEPAUIDirect3D8@@XZ ; CPythonGraphic::GetD3D
  00046	8b f0		 mov	 esi, eax

; 40   : 
; 41   : 	D3DADAPTER_IDENTIFIER8 d3dAdapterIdentifier;
; 42   : 	D3DDISPLAYMODE d3ddmDesktop;
; 43   : 
; 44   : 	lpD3D->GetAdapterIdentifier(0, D3DENUM_NO_WHQL_LEVEL, &d3dAdapterIdentifier);

  00048	8d 85 a8 fb ff
	ff		 lea	 eax, DWORD PTR _d3dAdapterIdentifier$[ebp]
  0004e	50		 push	 eax
  0004f	6a 02		 push	 2
  00051	6a 00		 push	 0
  00053	8b 0e		 mov	 ecx, DWORD PTR [esi]
  00055	56		 push	 esi
  00056	89 b5 a0 fb ff
	ff		 mov	 DWORD PTR _lpD3D$1$[ebp], esi
  0005c	ff 51 14	 call	 DWORD PTR [ecx+20]

; 45   : 	lpD3D->GetAdapterDisplayMode(0, &d3ddmDesktop);

  0005f	8b 0e		 mov	 ecx, DWORD PTR [esi]
  00061	8d 45 dc	 lea	 eax, DWORD PTR _d3ddmDesktop$[ebp]
  00064	50		 push	 eax
  00065	6a 00		 push	 0
  00067	56		 push	 esi
  00068	ff 51 20	 call	 DWORD PTR [ecx+32]

; 46   : 
; 47   : 	// 이 어뎁터가 가지고 있는 디스플래이 모드갯수를 나열한다..
; 48   : 	DWORD dwNumAdapterModes = lpD3D->GetAdapterModeCount(0);

  0006b	8b 06		 mov	 eax, DWORD PTR [esi]
  0006d	6a 00		 push	 0
  0006f	56		 push	 esi
  00070	ff 50 18	 call	 DWORD PTR [eax+24]
  00073	8b c8		 mov	 ecx, eax

; 49   : 
; 50   : 	for (UINT iMode = 0; iMode < dwNumAdapterModes; iMode++)

  00075	33 c0		 xor	 eax, eax
  00077	89 8d 88 fb ff
	ff		 mov	 DWORD PTR _dwNumAdapterModes$1$[ebp], ecx
  0007d	89 85 8c fb ff
	ff		 mov	 DWORD PTR _iMode$1$[ebp], eax
  00083	85 c9		 test	 ecx, ecx
  00085	0f 84 bd 01 00
	00		 je	 $LN20@GetDisplay
  0008b	eb 03 8d 49 00	 npad	 5
$LL22@GetDisplay:

; 51   : 	{
; 52   : 		D3DDISPLAYMODE DisplayMode;
; 53   : 		lpD3D->EnumAdapterModes(0, iMode, &DisplayMode);

  00090	8b 0e		 mov	 ecx, DWORD PTR [esi]
  00092	8d 55 ec	 lea	 edx, DWORD PTR _DisplayMode$1[ebp]
  00095	52		 push	 edx
  00096	50		 push	 eax
  00097	6a 00		 push	 0
  00099	56		 push	 esi
  0009a	ff 51 1c	 call	 DWORD PTR [ecx+28]

; 54   : 		DWORD bpp = 0;
; 55   : 
; 56   : 		// 800 600 이상만 걸러낸다.
; 57   : 		if (DisplayMode.Width < 800 || DisplayMode.Height < 600)

  0009d	8b 45 ec	 mov	 eax, DWORD PTR _DisplayMode$1[ebp]
  000a0	89 85 9c fb ff
	ff		 mov	 DWORD PTR _DisplayMode$1$[ebp], eax
  000a6	3d 20 03 00 00	 cmp	 eax, 800		; 00000320H
  000ab	0f 82 7e 01 00
	00		 jb	 $LN21@GetDisplay
  000b1	81 7d f0 58 02
	00 00		 cmp	 DWORD PTR _DisplayMode$1[ebp+4], 600 ; 00000258H
  000b8	0f 82 71 01 00
	00		 jb	 $LN21@GetDisplay

; 58   : 			continue;
; 59   : 
; 60   : 		// 일단 16bbp 와 32bbp만 취급하자.
; 61   : 		// 16bbp만 처리하게끔 했음 - [levites]
; 62   : 		if (DisplayMode.Format == D3DFMT_R5G6B5)

  000be	8b 45 f8	 mov	 eax, DWORD PTR _DisplayMode$1[ebp+12]
  000c1	83 f8 17	 cmp	 eax, 23			; 00000017H
  000c4	75 0c		 jne	 SHORT $LN17@GetDisplay

; 63   : 			bpp = 16;

  000c6	c7 85 98 fb ff
	ff 10 00 00 00	 mov	 DWORD PTR _bpp$1$[ebp], 16 ; 00000010H
  000d0	eb 13		 jmp	 SHORT $LN14@GetDisplay
$LN17@GetDisplay:

; 64   : 		else if (DisplayMode.Format == D3DFMT_X8R8G8B8)

  000d2	83 f8 16	 cmp	 eax, 22			; 00000016H
  000d5	0f 85 54 01 00
	00		 jne	 $LN21@GetDisplay

; 65   : 			bpp = 32;

  000db	c7 85 98 fb ff
	ff 20 00 00 00	 mov	 DWORD PTR _bpp$1$[ebp], 32 ; 00000020H
$LN14@GetDisplay:

; 66   : 		else
; 67   : 			continue;
; 68   : 
; 69   : 		int check_res = false;

  000e5	8b 7d f4	 mov	 edi, DWORD PTR _DisplayMode$1[ebp+8]
  000e8	8d 53 60	 lea	 edx, DWORD PTR [ebx+96]

; 70   : 
; 71   : 		for (int i = 0; !check_res && i < m_ResolutionCount; ++i)

  000eb	33 c9		 xor	 ecx, ecx
  000ed	33 c0		 xor	 eax, eax
  000ef	33 f6		 xor	 esi, esi
  000f1	89 8d 90 fb ff
	ff		 mov	 DWORD PTR _i$1$[ebp], ecx
  000f7	89 b5 a4 fb ff
	ff		 mov	 DWORD PTR tv624[ebp], esi
  000fd	8d 49 00	 npad	 3
$LL13@GetDisplay:
  00100	3b 8b 84 25 00
	00		 cmp	 ecx, DWORD PTR [ebx+9604]
  00106	0f 8d ab 00 00
	00		 jge	 $LN11@GetDisplay

; 72   : 		{
; 73   : 			if (m_ResolutionList[i].bpp != bpp ||
; 74   : 				m_ResolutionList[i].width != DisplayMode.Width ||
; 75   : 				m_ResolutionList[i].height != DisplayMode.Height)

  0010c	8b b5 98 fb ff
	ff		 mov	 esi, DWORD PTR _bpp$1$[ebp]
  00112	39 72 ac	 cmp	 DWORD PTR [edx-84], esi
  00115	8b b5 a4 fb ff
	ff		 mov	 esi, DWORD PTR tv624[ebp]
  0011b	75 7d		 jne	 SHORT $LN12@GetDisplay
  0011d	8b b5 9c fb ff
	ff		 mov	 esi, DWORD PTR _DisplayMode$1$[ebp]
  00123	39 72 a4	 cmp	 DWORD PTR [edx-92], esi
  00126	8b b5 a4 fb ff
	ff		 mov	 esi, DWORD PTR tv624[ebp]
  0012c	75 6c		 jne	 SHORT $LN12@GetDisplay
  0012e	8b 75 f0	 mov	 esi, DWORD PTR _DisplayMode$1[ebp+4]
  00131	39 72 a8	 cmp	 DWORD PTR [edx-88], esi
  00134	8b b5 a4 fb ff
	ff		 mov	 esi, DWORD PTR tv624[ebp]
  0013a	75 5e		 jne	 SHORT $LN12@GetDisplay

; 76   : 				continue;
; 77   : 
; 78   : 			int check_fre = false;
; 79   : 
; 80   : 			// 프리퀀시만 다르므로 프리퀀시만 셋팅해준다.
; 81   : 			for (int j = 0; j < m_ResolutionList[i].frequency_count; ++j)

  0013c	8a 1a		 mov	 bl, BYTE PTR [edx]
  0013e	33 c9		 xor	 ecx, ecx
  00140	0f b6 f3	 movzx	 esi, bl
  00143	85 f6		 test	 esi, esi
  00145	7e 15		 jle	 SHORT $LN40@GetDisplay
  00147	8d 42 b0	 lea	 eax, DWORD PTR [edx-80]
  0014a	8d 9b 00 00 00
	00		 npad	 6
$LL8@GetDisplay:

; 82   : 			{
; 83   : 				if (m_ResolutionList[i].frequency[j] == DisplayMode.RefreshRate)

  00150	39 38		 cmp	 DWORD PTR [eax], edi
  00152	74 2f		 je	 SHORT $LN41@GetDisplay

; 76   : 				continue;
; 77   : 
; 78   : 			int check_fre = false;
; 79   : 
; 80   : 			// 프리퀀시만 다르므로 프리퀀시만 셋팅해준다.
; 81   : 			for (int j = 0; j < m_ResolutionList[i].frequency_count; ++j)

  00154	41		 inc	 ecx
  00155	83 c0 04	 add	 eax, 4
  00158	3b ce		 cmp	 ecx, esi
  0015a	7c f4		 jl	 SHORT $LL8@GetDisplay
$LN40@GetDisplay:

; 84   : 				{
; 85   : 					check_fre = true;
; 86   : 					break;
; 87   : 				}
; 88   : 			}
; 89   : 
; 90   : 			if (!check_fre)
; 91   : 				if (m_ResolutionList[i].frequency_count < FREQUENCY_MAX_NUM)

  0015c	80 fb 1e	 cmp	 bl, 30			; 0000001eH

; 92   : 					m_ResolutionList[i].frequency[m_ResolutionList[i].frequency_count++] = DisplayMode.RefreshRate;

  0015f	8b 9d 94 fb ff
	ff		 mov	 ebx, DWORD PTR _this$GSCopy$1$[ebp]
  00165	73 22		 jae	 SHORT $LN3@GetDisplay
  00167	8b 85 a4 fb ff
	ff		 mov	 eax, DWORD PTR tv624[ebp]
  0016d	03 c6		 add	 eax, esi
  0016f	89 7c 83 10	 mov	 DWORD PTR [ebx+eax*4+16], edi
  00173	8b 45 ec	 mov	 eax, DWORD PTR _DisplayMode$1[ebp]
  00176	fe 02		 inc	 BYTE PTR [edx]
  00178	8b 7d f4	 mov	 edi, DWORD PTR _DisplayMode$1[ebp+8]
  0017b	89 85 9c fb ff
	ff		 mov	 DWORD PTR _DisplayMode$1$[ebp], eax
  00181	eb 06		 jmp	 SHORT $LN3@GetDisplay
$LN41@GetDisplay:
  00183	8b 9d 94 fb ff
	ff		 mov	 ebx, DWORD PTR _this$GSCopy$1$[ebp]
$LN3@GetDisplay:
  00189	8b 8d 90 fb ff
	ff		 mov	 ecx, DWORD PTR _i$1$[ebp]

; 93   : 
; 94   : 			check_res = true;

  0018f	b8 01 00 00 00	 mov	 eax, 1
  00194	8b b5 a4 fb ff
	ff		 mov	 esi, DWORD PTR tv624[ebp]
$LN12@GetDisplay:

; 70   : 
; 71   : 		for (int i = 0; !check_res && i < m_ResolutionCount; ++i)

  0019a	41		 inc	 ecx
  0019b	83 c6 18	 add	 esi, 24			; 00000018H
  0019e	83 c2 60	 add	 edx, 96			; 00000060H
  001a1	89 8d 90 fb ff
	ff		 mov	 DWORD PTR _i$1$[ebp], ecx
  001a7	89 b5 a4 fb ff
	ff		 mov	 DWORD PTR tv624[ebp], esi
  001ad	85 c0		 test	 eax, eax
  001af	0f 84 4b ff ff
	ff		 je	 $LL13@GetDisplay

; 95   : 		}
; 96   : 
; 97   : 		if (!check_res)

  001b5	eb 72		 jmp	 SHORT $LN44@GetDisplay
$LN11@GetDisplay:
  001b7	85 c0		 test	 eax, eax
  001b9	75 6e		 jne	 SHORT $LN44@GetDisplay

; 98   : 		{
; 99   : 			// 새로운 거니까 추가해주자.
; 100  : 			if (m_ResolutionCount < RESOLUTION_MAX_NUM)

  001bb	8b 83 84 25 00
	00		 mov	 eax, DWORD PTR [ebx+9604]
  001c1	83 f8 64	 cmp	 eax, 100		; 00000064H
  001c4	7d 63		 jge	 SHORT $LN44@GetDisplay

; 101  : 			{
; 102  : 				m_ResolutionList[m_ResolutionCount].width			= DisplayMode.Width;

  001c6	8b 8d 9c fb ff
	ff		 mov	 ecx, DWORD PTR _DisplayMode$1$[ebp]
  001cc	8d 04 40	 lea	 eax, DWORD PTR [eax+eax*2]
  001cf	c1 e0 05	 shl	 eax, 5
  001d2	89 4c 18 04	 mov	 DWORD PTR [eax+ebx+4], ecx

; 103  : 				m_ResolutionList[m_ResolutionCount].height			= DisplayMode.Height;

  001d6	8b 83 84 25 00
	00		 mov	 eax, DWORD PTR [ebx+9604]
  001dc	8d 0c 40	 lea	 ecx, DWORD PTR [eax+eax*2]
  001df	8b 45 f0	 mov	 eax, DWORD PTR _DisplayMode$1[ebp+4]
  001e2	c1 e1 05	 shl	 ecx, 5
  001e5	89 44 19 08	 mov	 DWORD PTR [ecx+ebx+8], eax

; 104  : 				m_ResolutionList[m_ResolutionCount].bpp				= bpp;

  001e9	8b 83 84 25 00
	00		 mov	 eax, DWORD PTR [ebx+9604]
  001ef	8b 8d 98 fb ff
	ff		 mov	 ecx, DWORD PTR _bpp$1$[ebp]
  001f5	8d 04 40	 lea	 eax, DWORD PTR [eax+eax*2]
  001f8	c1 e0 05	 shl	 eax, 5
  001fb	89 4c 18 0c	 mov	 DWORD PTR [eax+ebx+12], ecx

; 105  : 				m_ResolutionList[m_ResolutionCount].frequency[0]	= DisplayMode.RefreshRate;

  001ff	8b 83 84 25 00
	00		 mov	 eax, DWORD PTR [ebx+9604]
  00205	8d 0c 40	 lea	 ecx, DWORD PTR [eax+eax*2]
  00208	8b 45 f4	 mov	 eax, DWORD PTR _DisplayMode$1[ebp+8]
  0020b	c1 e1 05	 shl	 ecx, 5
  0020e	89 44 19 10	 mov	 DWORD PTR [ecx+ebx+16], eax

; 106  : 				m_ResolutionList[m_ResolutionCount].frequency_count	= 1;

  00212	8b 83 84 25 00
	00		 mov	 eax, DWORD PTR [ebx+9604]
  00218	40		 inc	 eax
  00219	8d 04 40	 lea	 eax, DWORD PTR [eax+eax*2]
  0021c	c1 e0 05	 shl	 eax, 5
  0021f	c6 04 18 01	 mov	 BYTE PTR [eax+ebx], 1

; 107  : 
; 108  : 				++m_ResolutionCount;

  00223	ff 83 84 25 00
	00		 inc	 DWORD PTR [ebx+9604]
$LN44@GetDisplay:
  00229	8b b5 a0 fb ff
	ff		 mov	 esi, DWORD PTR _lpD3D$1$[ebp]
$LN21@GetDisplay:

; 49   : 
; 50   : 	for (UINT iMode = 0; iMode < dwNumAdapterModes; iMode++)

  0022f	8b 85 8c fb ff
	ff		 mov	 eax, DWORD PTR _iMode$1$[ebp]
  00235	40		 inc	 eax
  00236	89 85 8c fb ff
	ff		 mov	 DWORD PTR _iMode$1$[ebp], eax
  0023c	3b 85 88 fb ff
	ff		 cmp	 eax, DWORD PTR _dwNumAdapterModes$1$[ebp]
  00242	0f 82 48 fe ff
	ff		 jb	 $LL22@GetDisplay
$LN20@GetDisplay:

; 109  : 			}
; 110  : 		}
; 111  : 	}
; 112  : }

  00248	8b 4d fc	 mov	 ecx, DWORD PTR __$ArrayPad$[ebp]
  0024b	5f		 pop	 edi
  0024c	5e		 pop	 esi
  0024d	33 cd		 xor	 ecx, ebp
  0024f	5b		 pop	 ebx
  00250	e8 00 00 00 00	 call	 @__security_check_cookie@4
  00255	8b e5		 mov	 esp, ebp
  00257	5d		 pop	 ebp
  00258	c3		 ret	 0
?GetDisplaySettings@CPythonSystem@@QAEXXZ ENDP		; CPythonSystem::GetDisplaySettings
_TEXT	ENDS
; Function compile flags: /Ogtp
; File d:\metin2\metin2\client_source_clean\client_source_clean\source\userinterface\pythonsystem.cpp
;	COMDAT ?GetFrequency@CPythonSystem@@QAEKXZ
_TEXT	SEGMENT
?GetFrequency@CPythonSystem@@QAEKXZ PROC		; CPythonSystem::GetFrequency, COMDAT
; _this$ = ecx

; 198  : 	return m_Config.frequency;

  00000	8b 81 94 25 00
	00		 mov	 eax, DWORD PTR [ecx+9620]

; 199  : }

  00006	c3		 ret	 0
?GetFrequency@CPythonSystem@@QAEKXZ ENDP		; CPythonSystem::GetFrequency
_TEXT	ENDS
; Function compile flags: /Ogtp
; File d:\metin2\metin2\client_source_clean\client_source_clean\source\userinterface\pythonsystem.cpp
;	COMDAT ?IsSoftwareTiling@CPythonSystem@@QAE_NXZ
_TEXT	SEGMENT
?IsSoftwareTiling@CPythonSystem@@QAE_NXZ PROC		; CPythonSystem::IsSoftwareTiling, COMDAT
; _this$ = ecx

; 375  : 	if (m_Config.bSoftwareTiling==1)

  00000	80 b9 cc 25 00
	00 01		 cmp	 BYTE PTR [ecx+9676], 1
  00007	0f 94 c0	 sete	 al

; 376  : 		return true;
; 377  : 
; 378  : 	return false;
; 379  : }

  0000a	c3		 ret	 0
?IsSoftwareTiling@CPythonSystem@@QAE_NXZ ENDP		; CPythonSystem::IsSoftwareTiling
_TEXT	ENDS
; Function compile flags: /Ogtp
; File d:\metin2\metin2\client_source_clean\client_source_clean\source\userinterface\pythonsystem.cpp
;	COMDAT ?IsAutoTiling@CPythonSystem@@QAE_NXZ
_TEXT	SEGMENT
?IsAutoTiling@CPythonSystem@@QAE_NXZ PROC		; CPythonSystem::IsAutoTiling, COMDAT
; _this$ = ecx

; 359  : 	if (m_Config.bSoftwareTiling == 0)

  00000	80 b9 cc 25 00
	00 00		 cmp	 BYTE PTR [ecx+9676], 0
  00007	0f 94 c0	 sete	 al

; 360  : 		return true;
; 361  : 
; 362  : 	return false;
; 363  : }

  0000a	c3		 ret	 0
?IsAutoTiling@CPythonSystem@@QAE_NXZ ENDP		; CPythonSystem::IsAutoTiling
_TEXT	ENDS
; Function compile flags: /Ogtp
; File d:\metin2\metin2\client_source_clean\client_source_clean\source\userinterface\pythonsystem.cpp
;	COMDAT ?IsNoSoundCard@CPythonSystem@@QAE_NXZ
_TEXT	SEGMENT
?IsNoSoundCard@CPythonSystem@@QAE_NXZ PROC		; CPythonSystem::IsNoSoundCard, COMDAT
; _this$ = ecx

; 203  : 	return m_Config.bNoSoundCard;

  00000	8a 81 ca 25 00
	00		 mov	 al, BYTE PTR [ecx+9674]

; 204  : }

  00006	c3		 ret	 0
?IsNoSoundCard@CPythonSystem@@QAE_NXZ ENDP		; CPythonSystem::IsNoSoundCard
_TEXT	ENDS
; Function compile flags: /Ogtp
; File d:\metin2\metin2\client_source_clean\client_source_clean\source\userinterface\pythonsystem.cpp
;	COMDAT ?GetWidth@CPythonSystem@@QAEKXZ
_TEXT	SEGMENT
?GetWidth@CPythonSystem@@QAEKXZ PROC			; CPythonSystem::GetWidth, COMDAT
; _this$ = ecx

; 185  : 	return m_Config.width;

  00000	8b 81 88 25 00
	00		 mov	 eax, DWORD PTR [ecx+9608]

; 186  : }

  00006	c3		 ret	 0
?GetWidth@CPythonSystem@@QAEKXZ ENDP			; CPythonSystem::GetWidth
_TEXT	ENDS
; Function compile flags: /Ogtp
; File d:\metin2\metin2\client_source_clean\client_source_clean\source\userinterface\pythonsystem.cpp
;	COMDAT ?GetHeight@CPythonSystem@@QAEKXZ
_TEXT	SEGMENT
?GetHeight@CPythonSystem@@QAEKXZ PROC			; CPythonSystem::GetHeight, COMDAT
; _this$ = ecx

; 190  : 	return m_Config.height;

  00000	8b 81 8c 25 00
	00		 mov	 eax, DWORD PTR [ecx+9612]

; 191  : }

  00006	c3		 ret	 0
?GetHeight@CPythonSystem@@QAEKXZ ENDP			; CPythonSystem::GetHeight
_TEXT	ENDS
; Function compile flags: /Ogtp
; File d:\metin2\metin2\client_source_clean\client_source_clean\source\userinterface\pythonsystem.cpp
;	COMDAT ?GetBPP@CPythonSystem@@QAEKXZ
_TEXT	SEGMENT
?GetBPP@CPythonSystem@@QAEKXZ PROC			; CPythonSystem::GetBPP, COMDAT
; _this$ = ecx

; 194  : 	return m_Config.bpp;

  00000	8b 81 90 25 00
	00		 mov	 eax, DWORD PTR [ecx+9616]

; 195  : }

  00006	c3		 ret	 0
?GetBPP@CPythonSystem@@QAEKXZ ENDP			; CPythonSystem::GetBPP
_TEXT	ENDS
; Function compile flags: /Ogtp
; File d:\metin2\metin2\client_source_clean\client_source_clean\source\userinterface\pythonsystem.cpp
;	COMDAT ?IsUseDefaultIME@CPythonSystem@@QAE_NXZ
_TEXT	SEGMENT
?IsUseDefaultIME@CPythonSystem@@QAE_NXZ PROC		; CPythonSystem::IsUseDefaultIME, COMDAT
; _this$ = ecx

; 383  : 	return m_Config.bUseDefaultIME;

  00000	8a 81 cb 25 00
	00		 mov	 al, BYTE PTR [ecx+9675]

; 384  : }

  00006	c3		 ret	 0
?IsUseDefaultIME@CPythonSystem@@QAE_NXZ ENDP		; CPythonSystem::IsUseDefaultIME
_TEXT	ENDS
; Function compile flags: /Ogtp
; File d:\metin2\metin2\client_source_clean\client_source_clean\source\userinterface\pythonsystem.cpp
;	COMDAT ?IsWindowed@CPythonSystem@@QAE_NXZ
_TEXT	SEGMENT
?IsWindowed@CPythonSystem@@QAE_NXZ PROC			; CPythonSystem::IsWindowed, COMDAT
; _this$ = ecx

; 314  : 	return m_Config.bWindowed;

  00000	8a 81 c8 25 00
	00		 mov	 al, BYTE PTR [ecx+9672]

; 315  : }

  00006	c3		 ret	 0
?IsWindowed@CPythonSystem@@QAE_NXZ ENDP			; CPythonSystem::IsWindowed
_TEXT	ENDS
; Function compile flags: /Ogtp
; File d:\metin2\metin2\client_source_clean\client_source_clean\source\userinterface\pythonsystem.cpp
; File d:\metin2\metin2\client_source_clean\client_source_clean\source\eterbase\singleton.h
; File d:\metin2\metin2\client_source_clean\client_source_clean\source\userinterface\pythonsystem.cpp
;	COMDAT ??1CPythonSystem@@UAE@XZ
_TEXT	SEGMENT
??1CPythonSystem@@UAE@XZ PROC				; CPythonSystem::~CPythonSystem, COMDAT
; _this$ = ecx
; File d:\metin2\metin2\client_source_clean\client_source_clean\source\eterbase\singleton.h

; 19   : 	{ 

  00000	c7 01 00 00 00
	00		 mov	 DWORD PTR [ecx], OFFSET ??_7?$CSingleton@VCPythonSystem@@@@6B@

; 20   : 		assert(ms_singleton);
; 21   : 		ms_singleton = 0; 

  00006	c7 05 00 00 00
	00 00 00 00 00	 mov	 DWORD PTR ?ms_singleton@?$CSingleton@VCPythonSystem@@@@0PAVCPythonSystem@@A, 0 ; CSingleton<CPythonSystem>::ms_singleton
; File d:\metin2\metin2\client_source_clean\client_source_clean\source\userinterface\pythonsystem.cpp

; 675  : }

  00010	c3		 ret	 0
??1CPythonSystem@@UAE@XZ ENDP				; CPythonSystem::~CPythonSystem
_TEXT	ENDS
; Function compile flags: /Ogtp
; File d:\metin2\metin2\client_source_clean\client_source_clean\source\userinterface\pythonsystem.cpp
; File d:\metin2\metin2\client_source_clean\client_source_clean\source\eterbase\singleton.h
; File d:\metin2\metin2\client_source_clean\client_source_clean\source\userinterface\pythonsystem.cpp
;	COMDAT ??0CPythonSystem@@QAE@XZ
_TEXT	SEGMENT
_this$ = -16						; size = 4
__$EHRec$ = -12						; size = 12
??0CPythonSystem@@QAE@XZ PROC				; CPythonSystem::CPythonSystem, COMDAT
; _this$ = ecx

; 655  : {

  00000	55		 push	 ebp
  00001	8b ec		 mov	 ebp, esp
  00003	6a ff		 push	 -1
  00005	68 00 00 00 00	 push	 __ehhandler$??0CPythonSystem@@QAE@XZ
  0000a	64 a1 00 00 00
	00		 mov	 eax, DWORD PTR fs:0
  00010	50		 push	 eax
  00011	51		 push	 ecx
  00012	56		 push	 esi
  00013	a1 00 00 00 00	 mov	 eax, DWORD PTR ___security_cookie
  00018	33 c5		 xor	 eax, ebp
  0001a	50		 push	 eax
  0001b	8d 45 f4	 lea	 eax, DWORD PTR __$EHRec$[ebp]
  0001e	64 a3 00 00 00
	00		 mov	 DWORD PTR fs:0, eax
  00024	8b f1		 mov	 esi, ecx
  00026	89 75 f0	 mov	 DWORD PTR _this$[ebp], esi
; File d:\metin2\metin2\client_source_clean\client_source_clean\source\eterbase\singleton.h

; 15   : 		ms_singleton = (T*) ((int) this + offset);

  00029	89 35 00 00 00
	00		 mov	 DWORD PTR ?ms_singleton@?$CSingleton@VCPythonSystem@@@@0PAVCPythonSystem@@A, esi ; CSingleton<CPythonSystem>::ms_singleton
; File d:\metin2\metin2\client_source_clean\client_source_clean\source\userinterface\pythonsystem.cpp

; 656  : 	memset(&m_Config, 0, sizeof(TConfig));

  0002f	6a 4c		 push	 76			; 0000004cH
  00031	8d 86 88 25 00
	00		 lea	 eax, DWORD PTR [esi+9608]
  00037	c7 45 fc 00 00
	00 00		 mov	 DWORD PTR __$EHRec$[ebp+8], 0
  0003e	6a 00		 push	 0
  00040	50		 push	 eax
  00041	c7 06 00 00 00
	00		 mov	 DWORD PTR [esi], OFFSET ??_7CPythonSystem@@6B@
  00047	e8 00 00 00 00	 call	 _memset
  0004c	83 c4 0c	 add	 esp, 12			; 0000000cH

; 657  : 
; 658  : 	m_poInterfaceHandler = NULL;

  0004f	c7 86 24 26 00
	00 00 00 00 00	 mov	 DWORD PTR [esi+9764], 0

; 659  : 
; 660  : 	SetDefaultConfig();

  00059	8b ce		 mov	 ecx, esi
  0005b	e8 00 00 00 00	 call	 ?SetDefaultConfig@CPythonSystem@@QAEXXZ ; CPythonSystem::SetDefaultConfig

; 661  : 
; 662  : 	LoadConfig();

  00060	8b ce		 mov	 ecx, esi
  00062	e8 00 00 00 00	 call	 ?LoadConfig@CPythonSystem@@QAE_NXZ ; CPythonSystem::LoadConfig

; 663  : 
; 664  : 	ChangeSystem();

  00067	8b ce		 mov	 ecx, esi
  00069	e8 00 00 00 00	 call	 ?ChangeSystem@CPythonSystem@@QAEXXZ ; CPythonSystem::ChangeSystem

; 665  : 
; 666  : 	if (LoadInterfaceStatus())

  0006e	8b ce		 mov	 ecx, esi
  00070	e8 00 00 00 00	 call	 ?LoadInterfaceStatus@CPythonSystem@@QAE_NXZ ; CPythonSystem::LoadInterfaceStatus
  00075	84 c0		 test	 al, al
  00077	0f 95 c0	 setne	 al
  0007a	88 86 20 26 00
	00		 mov	 BYTE PTR [esi+9760], al

; 667  : 		m_isInterfaceConfig = true;
; 668  : 	else
; 669  : 		m_isInterfaceConfig = false;
; 670  : }

  00080	8b c6		 mov	 eax, esi
  00082	8b 4d f4	 mov	 ecx, DWORD PTR __$EHRec$[ebp]
  00085	64 89 0d 00 00
	00 00		 mov	 DWORD PTR fs:0, ecx
  0008c	59		 pop	 ecx
  0008d	5e		 pop	 esi
  0008e	8b e5		 mov	 esp, ebp
  00090	5d		 pop	 ebp
  00091	c3		 ret	 0
_TEXT	ENDS
;	COMDAT text$x
text$x	SEGMENT
__unwindfunclet$??0CPythonSystem@@QAE@XZ$0:
  00000	8b 4d f0	 mov	 ecx, DWORD PTR _this$[ebp]
  00003	e9 00 00 00 00	 jmp	 ??1?$CSingleton@VCPythonSystem@@@@UAE@XZ ; CSingleton<CPythonSystem>::~CSingleton<CPythonSystem>
__ehhandler$??0CPythonSystem@@QAE@XZ:
  00008	8b 54 24 08	 mov	 edx, DWORD PTR [esp+8]
  0000c	8d 42 0c	 lea	 eax, DWORD PTR [edx+12]
  0000f	8b 4a f4	 mov	 ecx, DWORD PTR [edx-12]
  00012	33 c8		 xor	 ecx, eax
  00014	e8 00 00 00 00	 call	 @__security_check_cookie@4
  00019	b8 00 00 00 00	 mov	 eax, OFFSET __ehfuncinfo$??0CPythonSystem@@QAE@XZ
  0001e	e9 00 00 00 00	 jmp	 ___CxxFrameHandler3
text$x	ENDS
??0CPythonSystem@@QAE@XZ ENDP				; CPythonSystem::CPythonSystem
; Function compile flags: /Ogtp
; File d:\metin2\metin2\client_source_clean\client_source_clean\source\userinterface\pythonsystem.cpp
;	COMDAT ?GetShadowLevel@CPythonSystem@@QAEHXZ
_TEXT	SEGMENT
?GetShadowLevel@CPythonSystem@@QAEHXZ PROC		; CPythonSystem::GetShadowLevel, COMDAT
; _this$ = ecx

; 238  : 	return m_Config.iShadowLevel;

  00000	8b 81 a0 25 00
	00		 mov	 eax, DWORD PTR [ecx+9632]

; 239  : }

  00006	c3		 ret	 0
?GetShadowLevel@CPythonSystem@@QAEHXZ ENDP		; CPythonSystem::GetShadowLevel
_TEXT	ENDS
; Function compile flags: /Ogtp
; File d:\metin2\metin2\client_source_clean\client_source_clean\source\userinterface\pythonsystem.cpp
;	COMDAT ?SetSoftwareTiling@CPythonSystem@@QAEX_N@Z
_TEXT	SEGMENT
_isEnable$ = 8						; size = 1
?SetSoftwareTiling@CPythonSystem@@QAEX_N@Z PROC		; CPythonSystem::SetSoftwareTiling, COMDAT
; _this$ = ecx

; 366  : {

  00000	55		 push	 ebp
  00001	8b ec		 mov	 ebp, esp

; 367  : 	if (isEnable)

  00003	80 7d 08 00	 cmp	 BYTE PTR _isEnable$[ebp], 0
  00007	0f 94 c0	 sete	 al
  0000a	fe c0		 inc	 al
  0000c	88 81 cc 25 00
	00		 mov	 BYTE PTR [ecx+9676], al

; 368  : 		m_Config.bSoftwareTiling=1;
; 369  : 	else
; 370  : 		m_Config.bSoftwareTiling=2;
; 371  : }

  00012	5d		 pop	 ebp
  00013	c2 04 00	 ret	 4
?SetSoftwareTiling@CPythonSystem@@QAEX_N@Z ENDP		; CPythonSystem::SetSoftwareTiling
_TEXT	ENDS
; Function compile flags: /Ogtp
; File d:\metin2\metin2\client_source_clean\client_source_clean\source\userinterface\pythonsystem.cpp
;	COMDAT ?SetInterfaceHandler@CPythonSystem@@QAEXPAU_object@@@Z
_TEXT	SEGMENT
_poHandler$ = 8						; size = 4
?SetInterfaceHandler@CPythonSystem@@QAEXPAU_object@@@Z PROC ; CPythonSystem::SetInterfaceHandler, COMDAT
; _this$ = ecx

; 8    : {

  00000	55		 push	 ebp
  00001	8b ec		 mov	 ebp, esp

; 9    : // NOTE : 레퍼런스 카운트는 바꾸지 않는다. 레퍼런스가 남아 있어 Python에서 완전히 지워지지 않기 때문.
; 10   : //        대신에 __del__때 Destroy를 호출해 Handler를 NULL로 셋팅한다. - [levites]
; 11   : //	if (m_poInterfaceHandler)
; 12   : //		Py_DECREF(m_poInterfaceHandler);
; 13   : 
; 14   : 	m_poInterfaceHandler = poHandler;

  00003	8b 45 08	 mov	 eax, DWORD PTR _poHandler$[ebp]
  00006	89 81 24 26 00
	00		 mov	 DWORD PTR [ecx+9764], eax

; 15   : 
; 16   : //	if (m_poInterfaceHandler)
; 17   : //		Py_INCREF(m_poInterfaceHandler);
; 18   : }

  0000c	5d		 pop	 ebp
  0000d	c2 04 00	 ret	 4
?SetInterfaceHandler@CPythonSystem@@QAEXPAU_object@@@Z ENDP ; CPythonSystem::SetInterfaceHandler
_TEXT	ENDS
; Function compile flags: /Ogtp
; File d:\metin2\metin2\client_source_clean\client_source_clean\source\userinterface\pythonsystem.cpp
;	COMDAT ?DestroyInterfaceHandler@CPythonSystem@@QAEXXZ
_TEXT	SEGMENT
?DestroyInterfaceHandler@CPythonSystem@@QAEXXZ PROC	; CPythonSystem::DestroyInterfaceHandler, COMDAT
; _this$ = ecx

; 22   : 	m_poInterfaceHandler = NULL;

  00000	c7 81 24 26 00
	00 00 00 00 00	 mov	 DWORD PTR [ecx+9764], 0

; 23   : }

  0000a	c3		 ret	 0
?DestroyInterfaceHandler@CPythonSystem@@QAEXXZ ENDP	; CPythonSystem::DestroyInterfaceHandler
_TEXT	ENDS
; Function compile flags: /Ogtp
; File d:\metin2\metin2\client_source_clean\client_source_clean\source\userinterface\pythonsystem.cpp
;	COMDAT ?SaveWindowStatus@CPythonSystem@@QAEXHHHHHH@Z
_TEXT	SEGMENT
_iIndex$ = 8						; size = 4
_iVisible$ = 12						; size = 4
_iMinimized$ = 16					; size = 4
_ix$ = 20						; size = 4
_iy$ = 24						; size = 4
_iHeight$ = 28						; size = 4
?SaveWindowStatus@CPythonSystem@@QAEXHHHHHH@Z PROC	; CPythonSystem::SaveWindowStatus, COMDAT
; _this$ = ecx

; 26   : {

  00000	55		 push	 ebp
  00001	8b ec		 mov	 ebp, esp

; 27   : 	m_WindowStatus[iIndex].isVisible	= iVisible;

  00003	8b 55 08	 mov	 edx, DWORD PTR _iIndex$[ebp]
  00006	56		 push	 esi
  00007	57		 push	 edi
  00008	8b f9		 mov	 edi, ecx
  0000a	8d 04 92	 lea	 eax, DWORD PTR [edx+edx*4]
  0000d	8d 34 87	 lea	 esi, DWORD PTR [edi+eax*4]
  00010	8b 45 0c	 mov	 eax, DWORD PTR _iVisible$[ebp]
  00013	89 86 28 26 00
	00		 mov	 DWORD PTR [esi+9768], eax

; 28   : 	m_WindowStatus[iIndex].isMinimized	= iMinimized;
; 29   : 	m_WindowStatus[iIndex].ixPosition	= ix;
; 30   : 	m_WindowStatus[iIndex].iyPosition	= iy;

  00019	8d 0c 92	 lea	 ecx, DWORD PTR [edx+edx*4]
  0001c	8b 45 10	 mov	 eax, DWORD PTR _iMinimized$[ebp]
  0001f	89 86 2c 26 00
	00		 mov	 DWORD PTR [esi+9772], eax
  00025	8b 45 14	 mov	 eax, DWORD PTR _ix$[ebp]
  00028	89 86 30 26 00
	00		 mov	 DWORD PTR [esi+9776], eax
  0002e	8b 45 18	 mov	 eax, DWORD PTR _iy$[ebp]
  00031	89 84 8f 34 26
	00 00		 mov	 DWORD PTR [edi+ecx*4+9780], eax

; 31   : 	m_WindowStatus[iIndex].iHeight		= iHeight;

  00038	8b 45 1c	 mov	 eax, DWORD PTR _iHeight$[ebp]
  0003b	5f		 pop	 edi
  0003c	89 86 38 26 00
	00		 mov	 DWORD PTR [esi+9784], eax
  00042	5e		 pop	 esi

; 32   : }

  00043	5d		 pop	 ebp
  00044	c2 18 00	 ret	 24			; 00000018H
?SaveWindowStatus@CPythonSystem@@QAEXHHHHHH@Z ENDP	; CPythonSystem::SaveWindowStatus
_TEXT	ENDS
; Function compile flags: /Ogtp
; File d:\metin2\metin2\client_source_clean\client_source_clean\source\userinterface\pythonsystem.cpp
;	COMDAT ?GetResolutionCount@CPythonSystem@@QAEHXZ
_TEXT	SEGMENT
?GetResolutionCount@CPythonSystem@@QAEHXZ PROC		; CPythonSystem::GetResolutionCount, COMDAT
; _this$ = ecx

; 116  : 	return m_ResolutionCount;

  00000	8b 81 84 25 00
	00		 mov	 eax, DWORD PTR [ecx+9604]

; 117  : }

  00006	c3		 ret	 0
?GetResolutionCount@CPythonSystem@@QAEHXZ ENDP		; CPythonSystem::GetResolutionCount
_TEXT	ENDS
; Function compile flags: /Ogtp
; File d:\metin2\metin2\client_source_clean\client_source_clean\source\userinterface\pythonsystem.cpp
;	COMDAT ?GetFrequencyCount@CPythonSystem@@QAEHH@Z
_TEXT	SEGMENT
_index$ = 8						; size = 4
?GetFrequencyCount@CPythonSystem@@QAEHH@Z PROC		; CPythonSystem::GetFrequencyCount, COMDAT
; _this$ = ecx

; 120  : {

  00000	55		 push	 ebp
  00001	8b ec		 mov	 ebp, esp

; 121  : 	if (index >= m_ResolutionCount)

  00003	8b 45 08	 mov	 eax, DWORD PTR _index$[ebp]
  00006	3b 81 84 25 00
	00		 cmp	 eax, DWORD PTR [ecx+9604]
  0000c	7c 06		 jl	 SHORT $LN1@GetFrequen

; 122  : 		return 0;

  0000e	33 c0		 xor	 eax, eax

; 125  : }

  00010	5d		 pop	 ebp
  00011	c2 04 00	 ret	 4
$LN1@GetFrequen:

; 123  : 
; 124  :     return m_ResolutionList[index].frequency_count;

  00014	8d 04 40	 lea	 eax, DWORD PTR [eax+eax*2]
  00017	83 c0 03	 add	 eax, 3
  0001a	c1 e0 05	 shl	 eax, 5
  0001d	0f b6 04 08	 movzx	 eax, BYTE PTR [eax+ecx]

; 125  : }

  00021	5d		 pop	 ebp
  00022	c2 04 00	 ret	 4
?GetFrequencyCount@CPythonSystem@@QAEHH@Z ENDP		; CPythonSystem::GetFrequencyCount
_TEXT	ENDS
; Function compile flags: /Ogtp
; File d:\metin2\metin2\client_source_clean\client_source_clean\source\userinterface\pythonsystem.cpp
;	COMDAT ?GetResolution@CPythonSystem@@QAE_NHPAK00@Z
_TEXT	SEGMENT
_index$ = 8						; size = 4
_width$ = 12						; size = 4
_height$ = 16						; size = 4
_bpp$ = 20						; size = 4
?GetResolution@CPythonSystem@@QAE_NHPAK00@Z PROC	; CPythonSystem::GetResolution, COMDAT
; _this$ = ecx

; 128  : {

  00000	55		 push	 ebp
  00001	8b ec		 mov	 ebp, esp

; 129  : 	if (index >= m_ResolutionCount)

  00003	8b 45 08	 mov	 eax, DWORD PTR _index$[ebp]
  00006	3b 81 84 25 00
	00		 cmp	 eax, DWORD PTR [ecx+9604]
  0000c	7c 06		 jl	 SHORT $LN1@GetResolut

; 130  : 		return false;

  0000e	32 c0		 xor	 al, al

; 136  : }

  00010	5d		 pop	 ebp
  00011	c2 10 00	 ret	 16			; 00000010H
$LN1@GetResolut:

; 131  : 
; 132  : 	*width = m_ResolutionList[index].width;

  00014	8d 14 40	 lea	 edx, DWORD PTR [eax+eax*2]
  00017	8b 45 0c	 mov	 eax, DWORD PTR _width$[ebp]
  0001a	c1 e2 05	 shl	 edx, 5
  0001d	03 d1		 add	 edx, ecx
  0001f	8b 4a 04	 mov	 ecx, DWORD PTR [edx+4]
  00022	89 08		 mov	 DWORD PTR [eax], ecx

; 133  : 	*height = m_ResolutionList[index].height;

  00024	8b 45 10	 mov	 eax, DWORD PTR _height$[ebp]
  00027	8b 4a 08	 mov	 ecx, DWORD PTR [edx+8]
  0002a	89 08		 mov	 DWORD PTR [eax], ecx

; 134  : 	*bpp = m_ResolutionList[index].bpp;

  0002c	8b 45 14	 mov	 eax, DWORD PTR _bpp$[ebp]
  0002f	8b 4a 0c	 mov	 ecx, DWORD PTR [edx+12]
  00032	89 08		 mov	 DWORD PTR [eax], ecx

; 135  : 	return true;

  00034	b0 01		 mov	 al, 1

; 136  : }

  00036	5d		 pop	 ebp
  00037	c2 10 00	 ret	 16			; 00000010H
?GetResolution@CPythonSystem@@QAE_NHPAK00@Z ENDP	; CPythonSystem::GetResolution
_TEXT	ENDS
; Function compile flags: /Ogtp
; File d:\metin2\metin2\client_source_clean\client_source_clean\source\userinterface\pythonsystem.cpp
;	COMDAT ?GetFrequency@CPythonSystem@@QAE_NHHPAK@Z
_TEXT	SEGMENT
_index$ = 8						; size = 4
_freq_index$ = 12					; size = 4
_frequncy$ = 16						; size = 4
?GetFrequency@CPythonSystem@@QAE_NHHPAK@Z PROC		; CPythonSystem::GetFrequency, COMDAT
; _this$ = ecx

; 139  : {

  00000	55		 push	 ebp
  00001	8b ec		 mov	 ebp, esp

; 140  : 	if (index >= m_ResolutionCount)

  00003	8b 55 08	 mov	 edx, DWORD PTR _index$[ebp]
  00006	3b 91 84 25 00
	00		 cmp	 edx, DWORD PTR [ecx+9604]
  0000c	7c 06		 jl	 SHORT $LN2@GetFrequen

; 141  : 		return false;

  0000e	32 c0		 xor	 al, al

; 148  : }

  00010	5d		 pop	 ebp
  00011	c2 0c 00	 ret	 12			; 0000000cH
$LN2@GetFrequen:

; 142  : 
; 143  : 	if (freq_index >= m_ResolutionList[index].frequency_count)

  00014	8d 42 01	 lea	 eax, DWORD PTR [edx+1]
  00017	8d 04 40	 lea	 eax, DWORD PTR [eax+eax*2]
  0001a	c1 e0 05	 shl	 eax, 5
  0001d	56		 push	 esi
  0001e	8b 75 0c	 mov	 esi, DWORD PTR _freq_index$[ebp]
  00021	0f b6 04 08	 movzx	 eax, BYTE PTR [eax+ecx]
  00025	3b f0		 cmp	 esi, eax
  00027	7c 07		 jl	 SHORT $LN1@GetFrequen

; 144  : 		return false;

  00029	32 c0		 xor	 al, al
  0002b	5e		 pop	 esi

; 148  : }

  0002c	5d		 pop	 ebp
  0002d	c2 0c 00	 ret	 12			; 0000000cH
$LN1@GetFrequen:

; 145  : 
; 146  : 	*frequncy = m_ResolutionList[index].frequency[freq_index];

  00030	8d 04 52	 lea	 eax, DWORD PTR [edx+edx*2]
  00033	8d 04 c6	 lea	 eax, DWORD PTR [esi+eax*8]
  00036	8b 4c 81 10	 mov	 ecx, DWORD PTR [ecx+eax*4+16]
  0003a	8b 45 10	 mov	 eax, DWORD PTR _frequncy$[ebp]
  0003d	5e		 pop	 esi
  0003e	89 08		 mov	 DWORD PTR [eax], ecx

; 147  : 	return true;

  00040	b0 01		 mov	 al, 1

; 148  : }

  00042	5d		 pop	 ebp
  00043	c2 0c 00	 ret	 12			; 0000000cH
?GetFrequency@CPythonSystem@@QAE_NHHPAK@Z ENDP		; CPythonSystem::GetFrequency
_TEXT	ENDS
; Function compile flags: /Ogtp
; File d:\metin2\metin2\client_source_clean\client_source_clean\source\userinterface\pythonsystem.cpp
;	COMDAT ?GetResolutionIndex@CPythonSystem@@QAEHKKK@Z
_TEXT	SEGMENT
_this$1$ = -16						; size = 4
_re_width$ = -12					; size = 4
_re_height$ = -8					; size = 4
_re_bit$ = -4						; size = 4
_width$ = 8						; size = 4
_height$ = 12						; size = 4
_bit$ = 16						; size = 4
?GetResolutionIndex@CPythonSystem@@QAEHKKK@Z PROC	; CPythonSystem::GetResolutionIndex, COMDAT
; _this$ = ecx

; 151  : {

  00000	55		 push	 ebp
  00001	8b ec		 mov	 ebp, esp
  00003	83 ec 10	 sub	 esp, 16			; 00000010H
  00006	53		 push	 ebx
  00007	56		 push	 esi
  00008	8b c1		 mov	 eax, ecx

; 152  : 	DWORD re_width, re_height, re_bit;
; 153  : 	int i = 0;

  0000a	33 f6		 xor	 esi, esi
  0000c	57		 push	 edi

; 154  : 
; 155  : 	while (GetResolution(i, &re_width, &re_height, &re_bit))

  0000d	8d 4d fc	 lea	 ecx, DWORD PTR _re_bit$[ebp]
  00010	89 45 f0	 mov	 DWORD PTR _this$1$[ebp], eax
  00013	51		 push	 ecx
  00014	8d 4d f8	 lea	 ecx, DWORD PTR _re_height$[ebp]
  00017	51		 push	 ecx
  00018	8d 4d f4	 lea	 ecx, DWORD PTR _re_width$[ebp]
  0001b	51		 push	 ecx
  0001c	56		 push	 esi
  0001d	8b c8		 mov	 ecx, eax
  0001f	e8 00 00 00 00	 call	 ?GetResolution@CPythonSystem@@QAE_NHPAK00@Z ; CPythonSystem::GetResolution
  00024	84 c0		 test	 al, al
  00026	74 34		 je	 SHORT $LN13@GetResolut
  00028	8b 7d 10	 mov	 edi, DWORD PTR _bit$[ebp]
  0002b	8b 5d 0c	 mov	 ebx, DWORD PTR _height$[ebp]
  0002e	8b ff		 npad	 2
$LL5@GetResolut:

; 156  : 	{
; 157  : 		if (re_width == width)

  00030	8b 45 08	 mov	 eax, DWORD PTR _width$[ebp]
  00033	39 45 f4	 cmp	 DWORD PTR _re_width$[ebp], eax
  00036	75 0a		 jne	 SHORT $LN1@GetResolut

; 158  : 			if (re_height == height)

  00038	39 5d f8	 cmp	 DWORD PTR _re_height$[ebp], ebx
  0003b	75 05		 jne	 SHORT $LN1@GetResolut

; 159  : 				if (re_bit == bit)

  0003d	39 7d fc	 cmp	 DWORD PTR _re_bit$[ebp], edi
  00040	74 25		 je	 SHORT $LN9@GetResolut
$LN1@GetResolut:

; 154  : 
; 155  : 	while (GetResolution(i, &re_width, &re_height, &re_bit))

  00042	8b 4d f0	 mov	 ecx, DWORD PTR _this$1$[ebp]
  00045	8d 45 fc	 lea	 eax, DWORD PTR _re_bit$[ebp]
  00048	50		 push	 eax
  00049	8d 45 f8	 lea	 eax, DWORD PTR _re_height$[ebp]

; 161  : 		i++;

  0004c	46		 inc	 esi
  0004d	50		 push	 eax
  0004e	8d 45 f4	 lea	 eax, DWORD PTR _re_width$[ebp]
  00051	50		 push	 eax
  00052	56		 push	 esi
  00053	e8 00 00 00 00	 call	 ?GetResolution@CPythonSystem@@QAE_NHPAK00@Z ; CPythonSystem::GetResolution
  00058	84 c0		 test	 al, al
  0005a	75 d4		 jne	 SHORT $LL5@GetResolut
$LN13@GetResolut:
  0005c	5f		 pop	 edi
  0005d	5e		 pop	 esi

; 162  : 	}
; 163  : 
; 164  : 	return 0;

  0005e	33 c0		 xor	 eax, eax
  00060	5b		 pop	 ebx

; 165  : }

  00061	8b e5		 mov	 esp, ebp
  00063	5d		 pop	 ebp
  00064	c2 0c 00	 ret	 12			; 0000000cH
$LN9@GetResolut:
  00067	5f		 pop	 edi

; 160  : 					return i;

  00068	8b c6		 mov	 eax, esi
  0006a	5e		 pop	 esi
  0006b	5b		 pop	 ebx

; 165  : }

  0006c	8b e5		 mov	 esp, ebp
  0006e	5d		 pop	 ebp
  0006f	c2 0c 00	 ret	 12			; 0000000cH
?GetResolutionIndex@CPythonSystem@@QAEHKKK@Z ENDP	; CPythonSystem::GetResolutionIndex
_TEXT	ENDS
; Function compile flags: /Ogtp
; File d:\metin2\metin2\client_source_clean\client_source_clean\source\userinterface\pythonsystem.cpp
;	COMDAT ?GetFrequencyIndex@CPythonSystem@@QAEHHK@Z
_TEXT	SEGMENT
_re_frequency$ = -4					; size = 4
_res_index$ = 8						; size = 4
_frequency$ = 12					; size = 4
?GetFrequencyIndex@CPythonSystem@@QAEHHK@Z PROC		; CPythonSystem::GetFrequencyIndex, COMDAT
; _this$ = ecx

; 168  : {

  00000	55		 push	 ebp
  00001	8b ec		 mov	 ebp, esp
  00003	51		 push	 ecx
  00004	53		 push	 ebx
  00005	56		 push	 esi
  00006	57		 push	 edi

; 169  : 	DWORD re_frequency;
; 170  : 	int i = 0;
; 171  : 
; 172  : 	while (GetFrequency(res_index, i, &re_frequency))

  00007	8d 45 fc	 lea	 eax, DWORD PTR _re_frequency$[ebp]
  0000a	33 f6		 xor	 esi, esi
  0000c	50		 push	 eax
  0000d	56		 push	 esi
  0000e	ff 75 08	 push	 DWORD PTR _res_index$[ebp]
  00011	8b d9		 mov	 ebx, ecx
  00013	e8 00 00 00 00	 call	 ?GetFrequency@CPythonSystem@@QAE_NHHPAK@Z ; CPythonSystem::GetFrequency
  00018	84 c0		 test	 al, al
  0001a	74 1d		 je	 SHORT $LN2@GetFrequen
  0001c	8b 7d 0c	 mov	 edi, DWORD PTR _frequency$[ebp]
  0001f	90		 npad	 1
$LL3@GetFrequen:

; 173  : 	{
; 174  : 		if (re_frequency == frequency)

  00020	39 7d fc	 cmp	 DWORD PTR _re_frequency$[ebp], edi
  00023	74 1f		 je	 SHORT $LN7@GetFrequen

; 176  : 
; 177  : 		i++;

  00025	8d 45 fc	 lea	 eax, DWORD PTR _re_frequency$[ebp]
  00028	46		 inc	 esi
  00029	50		 push	 eax
  0002a	56		 push	 esi
  0002b	ff 75 08	 push	 DWORD PTR _res_index$[ebp]
  0002e	8b cb		 mov	 ecx, ebx
  00030	e8 00 00 00 00	 call	 ?GetFrequency@CPythonSystem@@QAE_NHHPAK@Z ; CPythonSystem::GetFrequency
  00035	84 c0		 test	 al, al
  00037	75 e7		 jne	 SHORT $LL3@GetFrequen
$LN2@GetFrequen:
  00039	5f		 pop	 edi
  0003a	5e		 pop	 esi

; 178  : 	}
; 179  : 
; 180  : 	return 0;

  0003b	33 c0		 xor	 eax, eax
  0003d	5b		 pop	 ebx

; 181  : }

  0003e	8b e5		 mov	 esp, ebp
  00040	5d		 pop	 ebp
  00041	c2 08 00	 ret	 8
$LN7@GetFrequen:
  00044	5f		 pop	 edi

; 175  : 			return i;

  00045	8b c6		 mov	 eax, esi
  00047	5e		 pop	 esi
  00048	5b		 pop	 ebx

; 181  : }

  00049	8b e5		 mov	 esp, ebp
  0004b	5d		 pop	 ebp
  0004c	c2 08 00	 ret	 8
?GetFrequencyIndex@CPythonSystem@@QAEHHK@Z ENDP		; CPythonSystem::GetFrequencyIndex
_TEXT	ENDS
; Function compile flags: /Ogtp
; File d:\metin2\metin2\client_source_clean\client_source_clean\source\userinterface\pythonsystem.cpp
;	COMDAT ?GetMusicVolume@CPythonSystem@@QAEMXZ
_TEXT	SEGMENT
?GetMusicVolume@CPythonSystem@@QAEMXZ PROC		; CPythonSystem::GetMusicVolume, COMDAT
; _this$ = ecx

; 213  : 	return m_Config.music_volume;

  00000	f3 0f 10 81 a4
	25 00 00	 movss	 xmm0, DWORD PTR [ecx+9636]

; 214  : }

  00008	c3		 ret	 0
?GetMusicVolume@CPythonSystem@@QAEMXZ ENDP		; CPythonSystem::GetMusicVolume
_TEXT	ENDS
; Function compile flags: /Ogtp
; File d:\metin2\metin2\client_source_clean\client_source_clean\source\userinterface\pythonsystem.cpp
;	COMDAT ?GetSoundVolume@CPythonSystem@@QAEHXZ
_TEXT	SEGMENT
?GetSoundVolume@CPythonSystem@@QAEHXZ PROC		; CPythonSystem::GetSoundVolume, COMDAT
; _this$ = ecx

; 218  : 	return m_Config.voice_volume;

  00000	0f b6 81 a8 25
	00 00		 movzx	 eax, BYTE PTR [ecx+9640]

; 219  : }

  00007	c3		 ret	 0
?GetSoundVolume@CPythonSystem@@QAEHXZ ENDP		; CPythonSystem::GetSoundVolume
_TEXT	ENDS
; Function compile flags: /Ogtp
; File d:\metin2\metin2\client_source_clean\client_source_clean\source\userinterface\pythonsystem.cpp
;	COMDAT ?SetMusicVolume@CPythonSystem@@QAEXM@Z
_TEXT	SEGMENT
?SetMusicVolume@CPythonSystem@@QAEXM@Z PROC		; CPythonSystem::SetMusicVolume, COMDAT
; _this$ = ecx
; _fVolume$ = xmm1s

; 223  : 	m_Config.music_volume = fVolume;

  00000	f3 0f 11 89 a4
	25 00 00	 movss	 DWORD PTR [ecx+9636], xmm1

; 224  : }

  00008	c3		 ret	 0
?SetMusicVolume@CPythonSystem@@QAEXM@Z ENDP		; CPythonSystem::SetMusicVolume
_TEXT	ENDS
; Function compile flags: /Ogtp
; File d:\metin2\metin2\client_source_clean\client_source_clean\source\userinterface\pythonsystem.cpp
;	COMDAT ?SetSoundVolumef@CPythonSystem@@QAEXM@Z
_TEXT	SEGMENT
?SetSoundVolumef@CPythonSystem@@QAEXM@Z PROC		; CPythonSystem::SetSoundVolumef, COMDAT
; _this$ = ecx
; _fVolume$ = xmm1s

; 228  : 	m_Config.voice_volume = int(5 * fVolume);

  00000	f3 0f 59 0d 00
	00 00 00	 mulss	 xmm1, DWORD PTR __real@40a00000
  00008	f3 0f 2c c1	 cvttss2si eax, xmm1
  0000c	88 81 a8 25 00
	00		 mov	 BYTE PTR [ecx+9640], al

; 229  : }

  00012	c3		 ret	 0
?SetSoundVolumef@CPythonSystem@@QAEXM@Z ENDP		; CPythonSystem::SetSoundVolumef
_TEXT	ENDS
; Function compile flags: /Ogtp
; File d:\metin2\metin2\client_source_clean\client_source_clean\source\userinterface\pythonsystem.cpp
;	COMDAT ?SetShadowLevel@CPythonSystem@@QAEXI@Z
_TEXT	SEGMENT
_level$ = 8						; size = 4
?SetShadowLevel@CPythonSystem@@QAEXI@Z PROC		; CPythonSystem::SetShadowLevel, COMDAT
; _this$ = ecx

; 242  : {

  00000	55		 push	 ebp
  00001	8b ec		 mov	 ebp, esp
  00003	56		 push	 esi

; 243  : 	m_Config.iShadowLevel = MIN(level, 5);

  00004	6a 05		 push	 5
  00006	ff 75 08	 push	 DWORD PTR _level$[ebp]
  00009	8b f1		 mov	 esi, ecx
  0000b	e8 00 00 00 00	 call	 ?MIN@@YAHHH@Z		; MIN

; 244  : 	CPythonBackground::instance().RefreshShadowLevel();

  00010	8b 0d 00 00 00
	00		 mov	 ecx, DWORD PTR ?ms_singleton@?$CSingleton@VCPythonBackground@@@@0PAVCPythonBackground@@A ; CSingleton<CPythonBackground>::ms_singleton
  00016	83 c4 08	 add	 esp, 8
  00019	89 86 a0 25 00
	00		 mov	 DWORD PTR [esi+9632], eax
  0001f	e8 00 00 00 00	 call	 ?RefreshShadowLevel@CPythonBackground@@QAEXXZ ; CPythonBackground::RefreshShadowLevel
  00024	5e		 pop	 esi

; 245  : }

  00025	5d		 pop	 ebp
  00026	c2 04 00	 ret	 4
?SetShadowLevel@CPythonSystem@@QAEXI@Z ENDP		; CPythonSystem::SetShadowLevel
_TEXT	ENDS
; Function compile flags: /Ogtp
; File d:\metin2\metin2\client_source_clean\client_source_clean\source\userinterface\pythonsystem.cpp
;	COMDAT ?IsSaveID@CPythonSystem@@QAEHXZ
_TEXT	SEGMENT
?IsSaveID@CPythonSystem@@QAEHXZ PROC			; CPythonSystem::IsSaveID, COMDAT
; _this$ = ecx

; 249  : 	return m_Config.isSaveID;

  00000	8b 81 b0 25 00
	00		 mov	 eax, DWORD PTR [ecx+9648]

; 250  : }

  00006	c3		 ret	 0
?IsSaveID@CPythonSystem@@QAEHXZ ENDP			; CPythonSystem::IsSaveID
_TEXT	ENDS
; Function compile flags: /Ogtp
; File d:\metin2\metin2\client_source_clean\client_source_clean\source\userinterface\pythonsystem.cpp
;	COMDAT ?GetSaveID@CPythonSystem@@QAEPBDXZ
_TEXT	SEGMENT
?GetSaveID@CPythonSystem@@QAEPBDXZ PROC			; CPythonSystem::GetSaveID, COMDAT
; _this$ = ecx

; 254  : 	return m_Config.SaveID;

  00000	8d 81 b4 25 00
	00		 lea	 eax, DWORD PTR [ecx+9652]

; 255  : }

  00006	c3		 ret	 0
?GetSaveID@CPythonSystem@@QAEPBDXZ ENDP			; CPythonSystem::GetSaveID
_TEXT	ENDS
; Function compile flags: /Ogtp
; File d:\metin2\metin2\client_source_clean\client_source_clean\source\userinterface\pythonsystem.cpp
;	COMDAT ?SetSaveID@CPythonSystem@@QAEXHPBD@Z
_TEXT	SEGMENT
_iValue$ = 8						; size = 4
_c_szSaveID$ = 12					; size = 4
?SetSaveID@CPythonSystem@@QAEXHPBD@Z PROC		; CPythonSystem::SetSaveID, COMDAT
; _this$ = ecx

; 263  : {

  00000	55		 push	 ebp
  00001	8b ec		 mov	 ebp, esp

; 264  : 	if (iValue != 1)

  00003	83 7d 08 01	 cmp	 DWORD PTR _iValue$[ebp], 1
  00007	75 1e		 jne	 SHORT $LN2@SetSaveID

; 265  : 		return;
; 266  : 	
; 267  : 	m_Config.isSaveID = iValue;
; 268  : 	strncpy(m_Config.SaveID, c_szSaveID, sizeof(m_Config.SaveID) - 1);

  00009	6a 13		 push	 19			; 00000013H
  0000b	ff 75 0c	 push	 DWORD PTR _c_szSaveID$[ebp]
  0000e	8d 81 b4 25 00
	00		 lea	 eax, DWORD PTR [ecx+9652]
  00014	c7 81 b0 25 00
	00 01 00 00 00	 mov	 DWORD PTR [ecx+9648], 1
  0001e	50		 push	 eax
  0001f	e8 00 00 00 00	 call	 _strncpy
  00024	83 c4 0c	 add	 esp, 12			; 0000000cH
$LN2@SetSaveID:

; 269  : }

  00027	5d		 pop	 ebp
  00028	c2 08 00	 ret	 8
?SetSaveID@CPythonSystem@@QAEXHPBD@Z ENDP		; CPythonSystem::SetSaveID
_TEXT	ENDS
; Function compile flags: /Ogtp
; File d:\metin2\metin2\client_source_clean\client_source_clean\source\userinterface\pythonsystem.cpp
;	COMDAT ?GetConfig@CPythonSystem@@QAEPAUSConfig@1@XZ
_TEXT	SEGMENT
?GetConfig@CPythonSystem@@QAEPAUSConfig@1@XZ PROC	; CPythonSystem::GetConfig, COMDAT
; _this$ = ecx

; 273  : 	return &m_Config;

  00000	8d 81 88 25 00
	00		 lea	 eax, DWORD PTR [ecx+9608]

; 274  : }

  00006	c3		 ret	 0
?GetConfig@CPythonSystem@@QAEPAUSConfig@1@XZ ENDP	; CPythonSystem::GetConfig
_TEXT	ENDS
; Function compile flags: /Ogtp
; File d:\metin2\metin2\client_source_clean\client_source_clean\source\userinterface\pythonsystem.cpp
;	COMDAT ?SetConfig@CPythonSystem@@QAEXPAUSConfig@1@@Z
_TEXT	SEGMENT
_pNewConfig$ = 8					; size = 4
?SetConfig@CPythonSystem@@QAEXPAUSConfig@1@@Z PROC	; CPythonSystem::SetConfig, COMDAT
; _this$ = ecx

; 277  : {

  00000	55		 push	 ebp
  00001	8b ec		 mov	 ebp, esp

; 278  : 	m_Config = *pNewConfig;

  00003	8b 45 08	 mov	 eax, DWORD PTR _pNewConfig$[ebp]
  00006	f3 0f 6f 00	 movdqu	 xmm0, XMMWORD PTR [eax]
  0000a	f3 0f 7f 81 88
	25 00 00	 movdqu	 XMMWORD PTR [ecx+9608], xmm0
  00012	f3 0f 6f 40 10	 movdqu	 xmm0, XMMWORD PTR [eax+16]
  00017	f3 0f 7f 81 98
	25 00 00	 movdqu	 XMMWORD PTR [ecx+9624], xmm0
  0001f	f3 0f 6f 40 20	 movdqu	 xmm0, XMMWORD PTR [eax+32]
  00024	f3 0f 7f 81 a8
	25 00 00	 movdqu	 XMMWORD PTR [ecx+9640], xmm0
  0002c	f3 0f 6f 40 30	 movdqu	 xmm0, XMMWORD PTR [eax+48]
  00031	f3 0f 7f 81 b8
	25 00 00	 movdqu	 XMMWORD PTR [ecx+9656], xmm0
  00039	f3 0f 7e 40 40	 movq	 xmm0, QWORD PTR [eax+64]
  0003e	8b 40 48	 mov	 eax, DWORD PTR [eax+72]
  00041	66 0f d6 81 c8
	25 00 00	 movq	 QWORD PTR [ecx+9672], xmm0
  00049	89 81 d0 25 00
	00		 mov	 DWORD PTR [ecx+9680], eax

; 279  : }

  0004f	5d		 pop	 ebp
  00050	c2 04 00	 ret	 4
?SetConfig@CPythonSystem@@QAEXPAUSConfig@1@@Z ENDP	; CPythonSystem::SetConfig
_TEXT	ENDS
; Function compile flags: /Ogtp
; File d:\metin2\metin2\client_source_clean\client_source_clean\source\userinterface\pythonsystem.cpp
;	COMDAT ?SetDefaultConfig@CPythonSystem@@QAEXXZ
_TEXT	SEGMENT
?SetDefaultConfig@CPythonSystem@@QAEXXZ PROC		; CPythonSystem::SetDefaultConfig, COMDAT
; _this$ = ecx

; 282  : {

  00000	56		 push	 esi
  00001	57		 push	 edi
  00002	8b f9		 mov	 edi, ecx

; 283  : 	memset(&m_Config, 0, sizeof(m_Config));

  00004	6a 4c		 push	 76			; 0000004cH
  00006	6a 00		 push	 0
  00008	8d b7 88 25 00
	00		 lea	 esi, DWORD PTR [edi+9608]
  0000e	56		 push	 esi
  0000f	e8 00 00 00 00	 call	 _memset
  00014	83 c4 0c	 add	 esp, 12			; 0000000cH

; 284  : 
; 285  : 	m_Config.width				= 1024;
; 286  : 	m_Config.height				= 768;

  00017	c7 87 8c 25 00
	00 00 03 00 00	 mov	 DWORD PTR [edi+9612], 768 ; 00000300H

; 287  : 	m_Config.bpp				= 32;

  00021	c7 87 90 25 00
	00 20 00 00 00	 mov	 DWORD PTR [edi+9616], 32 ; 00000020H

; 288  : 
; 289  : #if defined( LOCALE_SERVICE_WE_JAPAN )
; 290  : 	m_Config.bWindowed			= true;
; 291  : #else
; 292  : 	m_Config.bWindowed			= false;

  0002b	66 c7 87 c8 25
	00 00 00 00	 mov	 WORD PTR [edi+9672], 0

; 293  : #endif
; 294  : 
; 295  : 	m_Config.is_software_cursor	= false;

  00034	66 c7 87 98 25
	00 00 00 01	 mov	 WORD PTR [edi+9624], 256 ; 00000100H

; 296  : 	m_Config.is_object_culling	= true;
; 297  : 	m_Config.iDistance			= 3;

  0003d	c7 87 9c 25 00
	00 03 00 00 00	 mov	 DWORD PTR [edi+9628], 3

; 298  : 
; 299  : 	m_Config.gamma				= 3;

  00047	c7 87 ac 25 00
	00 03 00 00 00	 mov	 DWORD PTR [edi+9644], 3

; 300  : 	m_Config.music_volume		= 1.0f;

  00051	c7 87 a4 25 00
	00 00 00 80 3f	 mov	 DWORD PTR [edi+9636], 1065353216 ; 3f800000H

; 301  : 	m_Config.voice_volume		= 5;

  0005b	c6 87 a8 25 00
	00 05		 mov	 BYTE PTR [edi+9640], 5

; 302  : 
; 303  : 	m_Config.bDecompressDDS		= 0;
; 304  : 	m_Config.bSoftwareTiling	= 0;

  00062	c7 87 cc 25 00
	00 00 01 01 01	 mov	 DWORD PTR [edi+9676], 16843008 ; 01010100H

; 305  : 	m_Config.iShadowLevel		= 3;

  0006c	c7 87 a0 25 00
	00 03 00 00 00	 mov	 DWORD PTR [edi+9632], 3

; 306  : 	m_Config.bViewChat			= true;
; 307  : 	m_Config.bAlwaysShowName	= DEFAULT_VALUE_ALWAYS_SHOW_NAME;
; 308  : 	m_Config.bShowDamage		= true;
; 309  : 	m_Config.bShowSalesText		= true;

  00076	c6 87 d0 25 00
	00 01		 mov	 BYTE PTR [edi+9680], 1
  0007d	5f		 pop	 edi
  0007e	c7 06 00 04 00
	00		 mov	 DWORD PTR [esi], 1024	; 00000400H
  00084	5e		 pop	 esi

; 310  : }

  00085	c3		 ret	 0
?SetDefaultConfig@CPythonSystem@@QAEXXZ ENDP		; CPythonSystem::SetDefaultConfig
_TEXT	ENDS
; Function compile flags: /Ogtp
; File d:\metin2\metin2\client_source_clean\client_source_clean\source\userinterface\pythonsystem.cpp
;	COMDAT ?IsViewChat@CPythonSystem@@QAE_NXZ
_TEXT	SEGMENT
?IsViewChat@CPythonSystem@@QAE_NXZ PROC			; CPythonSystem::IsViewChat, COMDAT
; _this$ = ecx

; 319  : 	return m_Config.bViewChat;

  00000	8a 81 cd 25 00
	00		 mov	 al, BYTE PTR [ecx+9677]

; 320  : }

  00006	c3		 ret	 0
?IsViewChat@CPythonSystem@@QAE_NXZ ENDP			; CPythonSystem::IsViewChat
_TEXT	ENDS
; Function compile flags: /Ogtp
; File d:\metin2\metin2\client_source_clean\client_source_clean\source\userinterface\pythonsystem.cpp
;	COMDAT ?SetViewChatFlag@CPythonSystem@@QAEXH@Z
_TEXT	SEGMENT
_iFlag$ = 8						; size = 4
?SetViewChatFlag@CPythonSystem@@QAEXH@Z PROC		; CPythonSystem::SetViewChatFlag, COMDAT
; _this$ = ecx

; 323  : {

  00000	55		 push	 ebp
  00001	8b ec		 mov	 ebp, esp

; 324  : 	m_Config.bViewChat = iFlag == 1 ? true : false;

  00003	83 7d 08 01	 cmp	 DWORD PTR _iFlag$[ebp], 1
  00007	0f 94 c0	 sete	 al
  0000a	88 81 cd 25 00
	00		 mov	 BYTE PTR [ecx+9677], al

; 325  : }

  00010	5d		 pop	 ebp
  00011	c2 04 00	 ret	 4
?SetViewChatFlag@CPythonSystem@@QAEXH@Z ENDP		; CPythonSystem::SetViewChatFlag
_TEXT	ENDS
; Function compile flags: /Ogtp
; File d:\metin2\metin2\client_source_clean\client_source_clean\source\userinterface\pythonsystem.cpp
;	COMDAT ?IsAlwaysShowName@CPythonSystem@@QAE_NXZ
_TEXT	SEGMENT
?IsAlwaysShowName@CPythonSystem@@QAE_NXZ PROC		; CPythonSystem::IsAlwaysShowName, COMDAT
; _this$ = ecx

; 329  : 	return m_Config.bAlwaysShowName;

  00000	8a 81 ce 25 00
	00		 mov	 al, BYTE PTR [ecx+9678]

; 330  : }

  00006	c3		 ret	 0
?IsAlwaysShowName@CPythonSystem@@QAE_NXZ ENDP		; CPythonSystem::IsAlwaysShowName
_TEXT	ENDS
; Function compile flags: /Ogtp
; File d:\metin2\metin2\client_source_clean\client_source_clean\source\userinterface\pythonsystem.cpp
;	COMDAT ?SetAlwaysShowNameFlag@CPythonSystem@@QAEXH@Z
_TEXT	SEGMENT
_iFlag$ = 8						; size = 4
?SetAlwaysShowNameFlag@CPythonSystem@@QAEXH@Z PROC	; CPythonSystem::SetAlwaysShowNameFlag, COMDAT
; _this$ = ecx

; 333  : {

  00000	55		 push	 ebp
  00001	8b ec		 mov	 ebp, esp

; 334  : 	m_Config.bAlwaysShowName = iFlag == 1 ? true : false;

  00003	83 7d 08 01	 cmp	 DWORD PTR _iFlag$[ebp], 1
  00007	0f 94 c0	 sete	 al
  0000a	88 81 ce 25 00
	00		 mov	 BYTE PTR [ecx+9678], al

; 335  : }

  00010	5d		 pop	 ebp
  00011	c2 04 00	 ret	 4
?SetAlwaysShowNameFlag@CPythonSystem@@QAEXH@Z ENDP	; CPythonSystem::SetAlwaysShowNameFlag
_TEXT	ENDS
; Function compile flags: /Ogtp
; File d:\metin2\metin2\client_source_clean\client_source_clean\source\userinterface\pythonsystem.cpp
;	COMDAT ?SetShowDamageFlag@CPythonSystem@@QAEXH@Z
_TEXT	SEGMENT
_iFlag$ = 8						; size = 4
?SetShowDamageFlag@CPythonSystem@@QAEXH@Z PROC		; CPythonSystem::SetShowDamageFlag, COMDAT
; _this$ = ecx

; 343  : {

  00000	55		 push	 ebp
  00001	8b ec		 mov	 ebp, esp

; 344  : 	m_Config.bShowDamage = iFlag == 1 ? true : false;

  00003	83 7d 08 01	 cmp	 DWORD PTR _iFlag$[ebp], 1
  00007	0f 94 c0	 sete	 al
  0000a	88 81 cf 25 00
	00		 mov	 BYTE PTR [ecx+9679], al

; 345  : }

  00010	5d		 pop	 ebp
  00011	c2 04 00	 ret	 4
?SetShowDamageFlag@CPythonSystem@@QAEXH@Z ENDP		; CPythonSystem::SetShowDamageFlag
_TEXT	ENDS
; Function compile flags: /Ogtp
; File d:\metin2\metin2\client_source_clean\client_source_clean\source\userinterface\pythonsystem.cpp
;	COMDAT ?IsShowSalesText@CPythonSystem@@QAE_NXZ
_TEXT	SEGMENT
?IsShowSalesText@CPythonSystem@@QAE_NXZ PROC		; CPythonSystem::IsShowSalesText, COMDAT
; _this$ = ecx

; 349  : 	return m_Config.bShowSalesText;

  00000	8a 81 d0 25 00
	00		 mov	 al, BYTE PTR [ecx+9680]

; 350  : }

  00006	c3		 ret	 0
?IsShowSalesText@CPythonSystem@@QAE_NXZ ENDP		; CPythonSystem::IsShowSalesText
_TEXT	ENDS
; Function compile flags: /Ogtp
; File d:\metin2\metin2\client_source_clean\client_source_clean\source\userinterface\pythonsystem.cpp
;	COMDAT ?SetShowSalesTextFlag@CPythonSystem@@QAEXH@Z
_TEXT	SEGMENT
_iFlag$ = 8						; size = 4
?SetShowSalesTextFlag@CPythonSystem@@QAEXH@Z PROC	; CPythonSystem::SetShowSalesTextFlag, COMDAT
; _this$ = ecx

; 353  : {

  00000	55		 push	 ebp
  00001	8b ec		 mov	 ebp, esp

; 354  : 	m_Config.bShowSalesText = iFlag == 1 ? true : false;

  00003	83 7d 08 01	 cmp	 DWORD PTR _iFlag$[ebp], 1
  00007	0f 94 c0	 sete	 al
  0000a	88 81 d0 25 00
	00		 mov	 BYTE PTR [ecx+9680], al

; 355  : }

  00010	5d		 pop	 ebp
  00011	c2 04 00	 ret	 4
?SetShowSalesTextFlag@CPythonSystem@@QAEXH@Z ENDP	; CPythonSystem::SetShowSalesTextFlag
_TEXT	ENDS
; Function compile flags: /Ogtp
; File d:\metin2\metin2\client_source_clean\client_source_clean\source\userinterface\pythonsystem.cpp
; File c:\program files (x86)\microsoft visual studio 12.0\vc\include\string.h
; File d:\metin2\metin2\client_source_clean\client_source_clean\source\userinterface\pythonsystem.cpp
; File c:\program files (x86)\microsoft visual studio 12.0\vc\include\math.h
; File d:\metin2\metin2\client_source_clean\client_source_clean\source\userinterface\pythonsystem.cpp
; File c:\program files (x86)\microsoft visual studio 12.0\vc\include\math.h
; File d:\metin2\metin2\client_source_clean\client_source_clean\source\userinterface\pythonsystem.cpp
;	COMDAT ?LoadConfig@CPythonSystem@@QAE_NXZ
_TEXT	SEGMENT
_fp$1$ = -780						; size = 4
_buf$ = -776						; size = 256
_command$ = -520					; size = 256
_value$ = -264						; size = 256
__$ArrayPad$ = -4					; size = 4
?LoadConfig@CPythonSystem@@QAE_NXZ PROC			; CPythonSystem::LoadConfig, COMDAT
; _this$ = ecx

; 387  : {

  00000	55		 push	 ebp
  00001	8b ec		 mov	 ebp, esp
  00003	81 ec 10 03 00
	00		 sub	 esp, 784		; 00000310H
  00009	a1 00 00 00 00	 mov	 eax, DWORD PTR ___security_cookie
  0000e	33 c5		 xor	 eax, ebp
  00010	89 45 fc	 mov	 DWORD PTR __$ArrayPad$[ebp], eax
  00013	53		 push	 ebx
  00014	57		 push	 edi

; 388  : 	FILE * fp = NULL;
; 389  : 
; 390  : 	if (NULL == (fp = fopen("metin2.cfg", "rt")))

  00015	68 00 00 00 00	 push	 OFFSET ??_C@_02BMJICGCB@rt?$AA@
  0001a	68 00 00 00 00	 push	 OFFSET ??_C@_0L@PJKCGBDF@metin2?4cfg?$AA@
  0001f	8b f9		 mov	 edi, ecx
  00021	e8 00 00 00 00	 call	 _fopen
  00026	8b d8		 mov	 ebx, eax
  00028	83 c4 08	 add	 esp, 8
  0002b	89 9d f4 fc ff
	ff		 mov	 DWORD PTR _fp$1$[ebp], ebx
  00031	85 db		 test	 ebx, ebx
  00033	75 12		 jne	 SHORT $LN84@LoadConfig

; 391  : 		return false;

  00035	32 c0		 xor	 al, al

; 475  : 
; 476  : //	Tracef("LoadConfig: Resolution: %dx%d %dBPP %dHZ Software Cursor: %d, Music/Voice Volume: %d/%d Gamma: %d\n",
; 477  : //		m_Config.width,
; 478  : //		m_Config.height,
; 479  : //		m_Config.bpp,
; 480  : //		m_Config.frequency,
; 481  : //		m_Config.is_software_cursor,
; 482  : //		m_Config.music_volume,
; 483  : //		m_Config.voice_volume,
; 484  : //		m_Config.gamma);
; 485  : 
; 486  : 	return true;
; 487  : }

  00037	5f		 pop	 edi
  00038	5b		 pop	 ebx
  00039	8b 4d fc	 mov	 ecx, DWORD PTR __$ArrayPad$[ebp]
  0003c	33 cd		 xor	 ecx, ebp
  0003e	e8 00 00 00 00	 call	 @__security_check_cookie@4
  00043	8b e5		 mov	 esp, ebp
  00045	5d		 pop	 ebp
  00046	c3		 ret	 0
$LN84@LoadConfig:

; 392  : 
; 393  : 	char buf[256];
; 394  : 	char command[256];
; 395  : 	char value[256];
; 396  : 
; 397  : 	while (fgets(buf, 256, fp))

  00047	53		 push	 ebx
  00048	8d 85 f8 fc ff
	ff		 lea	 eax, DWORD PTR _buf$[ebp]
  0004e	68 00 01 00 00	 push	 256			; 00000100H
  00053	50		 push	 eax
  00054	e8 00 00 00 00	 call	 _fgets
  00059	83 c4 0c	 add	 esp, 12			; 0000000cH
  0005c	85 c0		 test	 eax, eax
  0005e	0f 84 1f 06 00
	00		 je	 $LN88@LoadConfig
  00064	eb 0a 8d a4 24
	00 00 00 00 8d
	49 00		 npad	 12
$LL54@LoadConfig:

; 398  : 	{
; 399  : 		if (sscanf(buf, " %s %s\n", command, value) == EOF)

  00070	8d 85 f8 fe ff
	ff		 lea	 eax, DWORD PTR _value$[ebp]
  00076	50		 push	 eax
  00077	8d 85 f8 fd ff
	ff		 lea	 eax, DWORD PTR _command$[ebp]
  0007d	50		 push	 eax
  0007e	8d 85 f8 fc ff
	ff		 lea	 eax, DWORD PTR _buf$[ebp]
  00084	68 00 00 00 00	 push	 OFFSET ??_C@_07IJONGFBP@?5?$CFs?5?$CFs?6?$AA@
  00089	50		 push	 eax
  0008a	e8 00 00 00 00	 call	 _sscanf
  0008f	83 c4 10	 add	 esp, 16			; 00000010H
  00092	83 f8 ff	 cmp	 eax, -1
  00095	0f 84 e8 05 00
	00		 je	 $LN88@LoadConfig

; 400  : 			break;
; 401  : 
; 402  : 		if (!stricmp(command, "WIDTH"))

  0009b	8d 85 f8 fd ff
	ff		 lea	 eax, DWORD PTR _command$[ebp]
  000a1	68 00 00 00 00	 push	 OFFSET ??_C@_05ENDGNACA@WIDTH?$AA@
  000a6	50		 push	 eax
  000a7	e8 00 00 00 00	 call	 __stricmp
  000ac	83 c4 08	 add	 esp, 8
  000af	85 c0		 test	 eax, eax
  000b1	75 1a		 jne	 SHORT $LN51@LoadConfig

; 403  : 			m_Config.width		= atoi(value);

  000b3	8d 85 f8 fe ff
	ff		 lea	 eax, DWORD PTR _value$[ebp]
  000b9	50		 push	 eax
  000ba	e8 00 00 00 00	 call	 __atoi64
  000bf	83 c4 04	 add	 esp, 4
  000c2	89 87 88 25 00
	00		 mov	 DWORD PTR [edi+9608], eax
  000c8	e9 99 05 00 00	 jmp	 $LN4@LoadConfig
$LN51@LoadConfig:

; 404  : 		else if (!stricmp(command, "HEIGHT"))

  000cd	8d 85 f8 fd ff
	ff		 lea	 eax, DWORD PTR _command$[ebp]
  000d3	68 00 00 00 00	 push	 OFFSET ??_C@_06LJJMJONE@HEIGHT?$AA@
  000d8	50		 push	 eax
  000d9	e8 00 00 00 00	 call	 __stricmp
  000de	83 c4 08	 add	 esp, 8
  000e1	85 c0		 test	 eax, eax
  000e3	75 1a		 jne	 SHORT $LN49@LoadConfig

; 405  : 			m_Config.height	= atoi(value);

  000e5	8d 85 f8 fe ff
	ff		 lea	 eax, DWORD PTR _value$[ebp]
  000eb	50		 push	 eax
  000ec	e8 00 00 00 00	 call	 __atoi64
  000f1	83 c4 04	 add	 esp, 4
  000f4	89 87 8c 25 00
	00		 mov	 DWORD PTR [edi+9612], eax
  000fa	e9 67 05 00 00	 jmp	 $LN4@LoadConfig
$LN49@LoadConfig:

; 406  : 		else if (!stricmp(command, "BPP"))

  000ff	8d 85 f8 fd ff
	ff		 lea	 eax, DWORD PTR _command$[ebp]
  00105	68 00 00 00 00	 push	 OFFSET ??_C@_03DJKBMDLB@BPP?$AA@
  0010a	50		 push	 eax
  0010b	e8 00 00 00 00	 call	 __stricmp
  00110	83 c4 08	 add	 esp, 8
  00113	85 c0		 test	 eax, eax
  00115	75 1a		 jne	 SHORT $LN47@LoadConfig

; 407  : 			m_Config.bpp		= atoi(value);

  00117	8d 85 f8 fe ff
	ff		 lea	 eax, DWORD PTR _value$[ebp]
  0011d	50		 push	 eax
  0011e	e8 00 00 00 00	 call	 __atoi64
  00123	83 c4 04	 add	 esp, 4
  00126	89 87 90 25 00
	00		 mov	 DWORD PTR [edi+9616], eax
  0012c	e9 35 05 00 00	 jmp	 $LN4@LoadConfig
$LN47@LoadConfig:

; 408  : 		else if (!stricmp(command, "FREQUENCY"))

  00131	8d 85 f8 fd ff
	ff		 lea	 eax, DWORD PTR _command$[ebp]
  00137	68 00 00 00 00	 push	 OFFSET ??_C@_09JJJEBDOD@FREQUENCY?$AA@
  0013c	50		 push	 eax
  0013d	e8 00 00 00 00	 call	 __stricmp
  00142	83 c4 08	 add	 esp, 8
  00145	85 c0		 test	 eax, eax
  00147	75 1a		 jne	 SHORT $LN45@LoadConfig

; 409  : 			m_Config.frequency = atoi(value);

  00149	8d 85 f8 fe ff
	ff		 lea	 eax, DWORD PTR _value$[ebp]
  0014f	50		 push	 eax
  00150	e8 00 00 00 00	 call	 __atoi64
  00155	83 c4 04	 add	 esp, 4
  00158	89 87 94 25 00
	00		 mov	 DWORD PTR [edi+9620], eax
  0015e	e9 03 05 00 00	 jmp	 $LN4@LoadConfig
$LN45@LoadConfig:

; 410  : 		else if (!stricmp(command, "SOFTWARE_CURSOR"))

  00163	8d 85 f8 fd ff
	ff		 lea	 eax, DWORD PTR _command$[ebp]
  00169	68 00 00 00 00	 push	 OFFSET ??_C@_0BA@KHKJCKOL@SOFTWARE_CURSOR?$AA@
  0016e	50		 push	 eax
  0016f	e8 00 00 00 00	 call	 __stricmp
  00174	83 c4 08	 add	 esp, 8
  00177	85 c0		 test	 eax, eax
  00179	75 2d		 jne	 SHORT $LN43@LoadConfig

; 411  : 			m_Config.is_software_cursor = atoi(value) ? true : false;

  0017b	8d 85 f8 fe ff
	ff		 lea	 eax, DWORD PTR _value$[ebp]
  00181	50		 push	 eax
  00182	e8 00 00 00 00	 call	 __atoi64
  00187	83 c4 04	 add	 esp, 4
  0018a	0b c2		 or	 eax, edx
  0018c	74 0d		 je	 SHORT $LN58@LoadConfig
  0018e	b0 01		 mov	 al, 1
  00190	88 87 98 25 00
	00		 mov	 BYTE PTR [edi+9624], al
  00196	e9 cb 04 00 00	 jmp	 $LN4@LoadConfig
$LN58@LoadConfig:
  0019b	32 c0		 xor	 al, al
  0019d	88 87 98 25 00
	00		 mov	 BYTE PTR [edi+9624], al
  001a3	e9 be 04 00 00	 jmp	 $LN4@LoadConfig
$LN43@LoadConfig:

; 412  : 		else if (!stricmp(command, "OBJECT_CULLING"))

  001a8	8d 85 f8 fd ff
	ff		 lea	 eax, DWORD PTR _command$[ebp]
  001ae	68 00 00 00 00	 push	 OFFSET ??_C@_0P@HLGCIFEM@OBJECT_CULLING?$AA@
  001b3	50		 push	 eax
  001b4	e8 00 00 00 00	 call	 __stricmp
  001b9	83 c4 08	 add	 esp, 8
  001bc	85 c0		 test	 eax, eax
  001be	75 2d		 jne	 SHORT $LN41@LoadConfig

; 413  : 			m_Config.is_object_culling = atoi(value) ? true : false;

  001c0	8d 85 f8 fe ff
	ff		 lea	 eax, DWORD PTR _value$[ebp]
  001c6	50		 push	 eax
  001c7	e8 00 00 00 00	 call	 __atoi64
  001cc	83 c4 04	 add	 esp, 4
  001cf	0b c2		 or	 eax, edx
  001d1	74 0d		 je	 SHORT $LN60@LoadConfig
  001d3	b0 01		 mov	 al, 1
  001d5	88 87 99 25 00
	00		 mov	 BYTE PTR [edi+9625], al
  001db	e9 86 04 00 00	 jmp	 $LN4@LoadConfig
$LN60@LoadConfig:
  001e0	32 c0		 xor	 al, al
  001e2	88 87 99 25 00
	00		 mov	 BYTE PTR [edi+9625], al
  001e8	e9 79 04 00 00	 jmp	 $LN4@LoadConfig
$LN41@LoadConfig:

; 414  : 		else if (!stricmp(command, "VISIBILITY"))

  001ed	8d 85 f8 fd ff
	ff		 lea	 eax, DWORD PTR _command$[ebp]
  001f3	68 00 00 00 00	 push	 OFFSET ??_C@_0L@JLMBCMBB@VISIBILITY?$AA@
  001f8	50		 push	 eax
  001f9	e8 00 00 00 00	 call	 __stricmp
  001fe	83 c4 08	 add	 esp, 8
  00201	85 c0		 test	 eax, eax
  00203	75 1a		 jne	 SHORT $LN39@LoadConfig

; 415  : 			m_Config.iDistance = atoi(value);

  00205	8d 85 f8 fe ff
	ff		 lea	 eax, DWORD PTR _value$[ebp]
  0020b	50		 push	 eax
  0020c	e8 00 00 00 00	 call	 __atoi64
  00211	83 c4 04	 add	 esp, 4
  00214	89 87 9c 25 00
	00		 mov	 DWORD PTR [edi+9628], eax
  0021a	e9 47 04 00 00	 jmp	 $LN4@LoadConfig
$LN39@LoadConfig:

; 416  : 		else if (!stricmp(command, "MUSIC_VOLUME")) {

  0021f	8d 85 f8 fd ff
	ff		 lea	 eax, DWORD PTR _command$[ebp]
  00225	68 00 00 00 00	 push	 OFFSET ??_C@_0N@GMIPKHGM@MUSIC_VOLUME?$AA@
  0022a	50		 push	 eax
  0022b	e8 00 00 00 00	 call	 __stricmp
  00230	83 c4 08	 add	 esp, 8
  00233	85 c0		 test	 eax, eax
  00235	0f 85 8f 00 00
	00		 jne	 $LN37@LoadConfig
; File c:\program files (x86)\microsoft visual studio 12.0\vc\include\string.h

; 222  :         { return (char*)strchr((const char*)_Str, _Ch); }

  0023b	8d 85 f8 fe ff
	ff		 lea	 eax, DWORD PTR _value$[ebp]
  00241	6a 2e		 push	 46			; 0000002eH
  00243	50		 push	 eax
  00244	e8 00 00 00 00	 call	 _strchr
  00249	83 c4 08	 add	 esp, 8
; File d:\metin2\metin2\client_source_clean\client_source_clean\source\userinterface\pythonsystem.cpp

; 417  : 			if(strchr(value, '.') == 0) { // Old compatiability

  0024c	85 c0		 test	 eax, eax

; 418  : 				m_Config.music_volume = pow(10.0f, (-1.0f + (((float) atoi(value)) / 5.0f)));

  0024e	8d 85 f8 fe ff
	ff		 lea	 eax, DWORD PTR _value$[ebp]
  00254	50		 push	 eax
  00255	75 60		 jne	 SHORT $LN36@LoadConfig
  00257	e8 00 00 00 00	 call	 __atoi64
  0025c	83 c4 04	 add	 esp, 4
  0025f	8b c8		 mov	 ecx, eax
  00261	e8 00 00 00 00	 call	 __ltod3
  00266	f2 0f 5a c0	 cvtsd2ss xmm0, xmm0
; File c:\program files (x86)\microsoft visual studio 12.0\vc\include\math.h

; 1116 :         {return (powf(_X, _Y)); }

  0026a	83 ec 08	 sub	 esp, 8
; File d:\metin2\metin2\client_source_clean\client_source_clean\source\userinterface\pythonsystem.cpp

; 418  : 				m_Config.music_volume = pow(10.0f, (-1.0f + (((float) atoi(value)) / 5.0f)));

  0026d	f3 0f 5e 05 00
	00 00 00	 divss	 xmm0, DWORD PTR __real@40a00000
  00275	f3 0f 5c 05 00
	00 00 00	 subss	 xmm0, DWORD PTR __real@3f800000
; File c:\program files (x86)\microsoft visual studio 12.0\vc\include\math.h

; 1116 :         {return (powf(_X, _Y)); }

  0027d	f3 0f 11 44 24
	04		 movss	 DWORD PTR [esp+4], xmm0
  00283	c7 04 24 00 00
	20 41		 mov	 DWORD PTR [esp], 1092616192 ; 41200000H
  0028a	e8 00 00 00 00	 call	 _powf
; File d:\metin2\metin2\client_source_clean\client_source_clean\source\userinterface\pythonsystem.cpp

; 419  : 				if(atoi(value) == 0)

  0028f	8d 85 f8 fe ff
	ff		 lea	 eax, DWORD PTR _value$[ebp]
  00295	50		 push	 eax
  00296	d9 9f a4 25 00
	00		 fstp	 DWORD PTR [edi+9636]
  0029c	e8 00 00 00 00	 call	 __atoi64
  002a1	83 c4 0c	 add	 esp, 12			; 0000000cH
  002a4	0b c2		 or	 eax, edx
  002a6	0f 85 ba 03 00
	00		 jne	 $LN4@LoadConfig

; 420  : 					m_Config.music_volume = 0.0f;

  002ac	89 87 a4 25 00
	00		 mov	 DWORD PTR [edi+9636], eax

; 421  : 			} else

  002b2	e9 af 03 00 00	 jmp	 $LN4@LoadConfig
$LN36@LoadConfig:

; 422  : 				m_Config.music_volume = atof(value);

  002b7	e8 00 00 00 00	 call	 _atof
  002bc	d9 9f a4 25 00
	00		 fstp	 DWORD PTR [edi+9636]
  002c2	83 c4 04	 add	 esp, 4
  002c5	e9 9c 03 00 00	 jmp	 $LN4@LoadConfig
$LN37@LoadConfig:

; 423  : 		} else if (!stricmp(command, "VOICE_VOLUME"))

  002ca	8d 85 f8 fd ff
	ff		 lea	 eax, DWORD PTR _command$[ebp]
  002d0	68 00 00 00 00	 push	 OFFSET ??_C@_0N@PBAPMOIE@VOICE_VOLUME?$AA@
  002d5	50		 push	 eax
  002d6	e8 00 00 00 00	 call	 __stricmp
  002db	83 c4 08	 add	 esp, 8
  002de	85 c0		 test	 eax, eax
  002e0	75 1a		 jne	 SHORT $LN32@LoadConfig

; 424  : 			m_Config.voice_volume = (char) atoi(value);

  002e2	8d 85 f8 fe ff
	ff		 lea	 eax, DWORD PTR _value$[ebp]
  002e8	50		 push	 eax
  002e9	e8 00 00 00 00	 call	 __atoi64
  002ee	83 c4 04	 add	 esp, 4
  002f1	88 87 a8 25 00
	00		 mov	 BYTE PTR [edi+9640], al
  002f7	e9 6a 03 00 00	 jmp	 $LN4@LoadConfig
$LN32@LoadConfig:

; 425  : 		else if (!stricmp(command, "GAMMA"))

  002fc	8d 85 f8 fd ff
	ff		 lea	 eax, DWORD PTR _command$[ebp]
  00302	68 00 00 00 00	 push	 OFFSET ??_C@_05MBKNPFEG@GAMMA?$AA@
  00307	50		 push	 eax
  00308	e8 00 00 00 00	 call	 __stricmp
  0030d	83 c4 08	 add	 esp, 8
  00310	85 c0		 test	 eax, eax
  00312	75 1a		 jne	 SHORT $LN30@LoadConfig

; 426  : 			m_Config.gamma = atoi(value);

  00314	8d 85 f8 fe ff
	ff		 lea	 eax, DWORD PTR _value$[ebp]
  0031a	50		 push	 eax
  0031b	e8 00 00 00 00	 call	 __atoi64
  00320	83 c4 04	 add	 esp, 4
  00323	89 87 ac 25 00
	00		 mov	 DWORD PTR [edi+9644], eax
  00329	e9 38 03 00 00	 jmp	 $LN4@LoadConfig
$LN30@LoadConfig:

; 427  : 		else if (!stricmp(command, "IS_SAVE_ID"))

  0032e	8d 85 f8 fd ff
	ff		 lea	 eax, DWORD PTR _command$[ebp]
  00334	68 00 00 00 00	 push	 OFFSET ??_C@_0L@MNJEEPBE@IS_SAVE_ID?$AA@
  00339	50		 push	 eax
  0033a	e8 00 00 00 00	 call	 __stricmp
  0033f	83 c4 08	 add	 esp, 8
  00342	85 c0		 test	 eax, eax
  00344	75 1a		 jne	 SHORT $LN28@LoadConfig

; 428  : 			m_Config.isSaveID = atoi(value);

  00346	8d 85 f8 fe ff
	ff		 lea	 eax, DWORD PTR _value$[ebp]
  0034c	50		 push	 eax
  0034d	e8 00 00 00 00	 call	 __atoi64
  00352	83 c4 04	 add	 esp, 4
  00355	89 87 b0 25 00
	00		 mov	 DWORD PTR [edi+9648], eax
  0035b	e9 06 03 00 00	 jmp	 $LN4@LoadConfig
$LN28@LoadConfig:

; 429  : 		else if (!stricmp(command, "SAVE_ID"))

  00360	8d 85 f8 fd ff
	ff		 lea	 eax, DWORD PTR _command$[ebp]
  00366	68 00 00 00 00	 push	 OFFSET ??_C@_07JBPMLFBH@SAVE_ID?$AA@
  0036b	50		 push	 eax
  0036c	e8 00 00 00 00	 call	 __stricmp
  00371	83 c4 08	 add	 esp, 8
  00374	85 c0		 test	 eax, eax
  00376	75 1d		 jne	 SHORT $LN26@LoadConfig

; 430  : 			strncpy(m_Config.SaveID, value, 20);

  00378	6a 14		 push	 20			; 00000014H
  0037a	8d 85 f8 fe ff
	ff		 lea	 eax, DWORD PTR _value$[ebp]
  00380	50		 push	 eax
  00381	8d 87 b4 25 00
	00		 lea	 eax, DWORD PTR [edi+9652]
  00387	50		 push	 eax
  00388	e8 00 00 00 00	 call	 _strncpy
  0038d	83 c4 0c	 add	 esp, 12			; 0000000cH
  00390	e9 d1 02 00 00	 jmp	 $LN4@LoadConfig
$LN26@LoadConfig:

; 431  : 		else if (!stricmp(command, "PRE_LOADING_DELAY_TIME"))

  00395	8d 85 f8 fd ff
	ff		 lea	 eax, DWORD PTR _command$[ebp]
  0039b	68 00 00 00 00	 push	 OFFSET ??_C@_0BH@DLIOKMKH@PRE_LOADING_DELAY_TIME?$AA@
  003a0	50		 push	 eax
  003a1	e8 00 00 00 00	 call	 __stricmp
  003a6	83 c4 08	 add	 esp, 8
  003a9	85 c0		 test	 eax, eax
  003ab	75 19		 jne	 SHORT $LN24@LoadConfig

; 432  : 			g_iLoadingDelayTime = atoi(value);

  003ad	8d 85 f8 fe ff
	ff		 lea	 eax, DWORD PTR _value$[ebp]
  003b3	50		 push	 eax
  003b4	e8 00 00 00 00	 call	 __atoi64
  003b9	83 c4 04	 add	 esp, 4
  003bc	a3 00 00 00 00	 mov	 DWORD PTR ?g_iLoadingDelayTime@@3HA, eax ; g_iLoadingDelayTime
  003c1	e9 a0 02 00 00	 jmp	 $LN4@LoadConfig
$LN24@LoadConfig:

; 433  : 		else if (!stricmp(command, "WINDOWED"))

  003c6	8d 85 f8 fd ff
	ff		 lea	 eax, DWORD PTR _command$[ebp]
  003cc	68 00 00 00 00	 push	 OFFSET ??_C@_08NHNHGFNP@WINDOWED?$AA@
  003d1	50		 push	 eax
  003d2	e8 00 00 00 00	 call	 __stricmp
  003d7	83 c4 08	 add	 esp, 8
  003da	85 c0		 test	 eax, eax
  003dc	75 32		 jne	 SHORT $LN22@LoadConfig

; 434  : 		{
; 435  : 			m_Config.bWindowed = atoi(value) == 1 ? true : false;

  003de	8d 85 f8 fe ff
	ff		 lea	 eax, DWORD PTR _value$[ebp]
  003e4	50		 push	 eax
  003e5	e8 00 00 00 00	 call	 __atoi64
  003ea	83 c4 04	 add	 esp, 4
  003ed	83 f8 01	 cmp	 eax, 1
  003f0	75 11		 jne	 SHORT $LN62@LoadConfig
  003f2	85 d2		 test	 edx, edx
  003f4	75 0d		 jne	 SHORT $LN62@LoadConfig
  003f6	8a c0		 mov	 al, al
  003f8	88 87 c8 25 00
	00		 mov	 BYTE PTR [edi+9672], al
  003fe	e9 63 02 00 00	 jmp	 $LN4@LoadConfig
$LN62@LoadConfig:
  00403	32 c0		 xor	 al, al
  00405	88 87 c8 25 00
	00		 mov	 BYTE PTR [edi+9672], al
  0040b	e9 56 02 00 00	 jmp	 $LN4@LoadConfig
$LN22@LoadConfig:

; 436  : 		}
; 437  : 		else if (!stricmp(command, "USE_DEFAULT_IME"))

  00410	8d 85 f8 fd ff
	ff		 lea	 eax, DWORD PTR _command$[ebp]
  00416	68 00 00 00 00	 push	 OFFSET ??_C@_0BA@LLBGEPPK@USE_DEFAULT_IME?$AA@
  0041b	50		 push	 eax
  0041c	e8 00 00 00 00	 call	 __stricmp
  00421	83 c4 08	 add	 esp, 8
  00424	85 c0		 test	 eax, eax
  00426	75 32		 jne	 SHORT $LN20@LoadConfig

; 438  : 			m_Config.bUseDefaultIME = atoi(value) == 1 ? true : false;

  00428	8d 85 f8 fe ff
	ff		 lea	 eax, DWORD PTR _value$[ebp]
  0042e	50		 push	 eax
  0042f	e8 00 00 00 00	 call	 __atoi64
  00434	83 c4 04	 add	 esp, 4
  00437	83 f8 01	 cmp	 eax, 1
  0043a	75 11		 jne	 SHORT $LN64@LoadConfig
  0043c	85 d2		 test	 edx, edx
  0043e	75 0d		 jne	 SHORT $LN64@LoadConfig
  00440	8a c0		 mov	 al, al
  00442	88 87 cb 25 00
	00		 mov	 BYTE PTR [edi+9675], al
  00448	e9 19 02 00 00	 jmp	 $LN4@LoadConfig
$LN64@LoadConfig:
  0044d	32 c0		 xor	 al, al
  0044f	88 87 cb 25 00
	00		 mov	 BYTE PTR [edi+9675], al
  00455	e9 0c 02 00 00	 jmp	 $LN4@LoadConfig
$LN20@LoadConfig:

; 439  : 		else if (!stricmp(command, "SOFTWARE_TILING"))

  0045a	8d 85 f8 fd ff
	ff		 lea	 eax, DWORD PTR _command$[ebp]
  00460	68 00 00 00 00	 push	 OFFSET ??_C@_0BA@KHMHFIHA@SOFTWARE_TILING?$AA@
  00465	50		 push	 eax
  00466	e8 00 00 00 00	 call	 __stricmp
  0046b	83 c4 08	 add	 esp, 8
  0046e	85 c0		 test	 eax, eax
  00470	75 1a		 jne	 SHORT $LN18@LoadConfig

; 440  : 			m_Config.bSoftwareTiling = atoi(value);

  00472	8d 85 f8 fe ff
	ff		 lea	 eax, DWORD PTR _value$[ebp]
  00478	50		 push	 eax
  00479	e8 00 00 00 00	 call	 __atoi64
  0047e	83 c4 04	 add	 esp, 4
  00481	88 87 cc 25 00
	00		 mov	 BYTE PTR [edi+9676], al
  00487	e9 da 01 00 00	 jmp	 $LN4@LoadConfig
$LN18@LoadConfig:

; 441  : 		else if (!stricmp(command, "SHADOW_LEVEL"))

  0048c	8d 85 f8 fd ff
	ff		 lea	 eax, DWORD PTR _command$[ebp]
  00492	68 00 00 00 00	 push	 OFFSET ??_C@_0N@FFBEOPBM@SHADOW_LEVEL?$AA@
  00497	50		 push	 eax
  00498	e8 00 00 00 00	 call	 __stricmp
  0049d	83 c4 08	 add	 esp, 8
  004a0	85 c0		 test	 eax, eax
  004a2	75 1a		 jne	 SHORT $LN16@LoadConfig

; 442  : 			m_Config.iShadowLevel = atoi(value);

  004a4	8d 85 f8 fe ff
	ff		 lea	 eax, DWORD PTR _value$[ebp]
  004aa	50		 push	 eax
  004ab	e8 00 00 00 00	 call	 __atoi64
  004b0	83 c4 04	 add	 esp, 4
  004b3	89 87 a0 25 00
	00		 mov	 DWORD PTR [edi+9632], eax
  004b9	e9 a8 01 00 00	 jmp	 $LN4@LoadConfig
$LN16@LoadConfig:

; 443  : 		else if (!stricmp(command, "DECOMPRESSED_TEXTURE"))

  004be	8d 85 f8 fd ff
	ff		 lea	 eax, DWORD PTR _command$[ebp]
  004c4	68 00 00 00 00	 push	 OFFSET ??_C@_0BF@BGGNMKON@DECOMPRESSED_TEXTURE?$AA@
  004c9	50		 push	 eax
  004ca	e8 00 00 00 00	 call	 __stricmp
  004cf	83 c4 08	 add	 esp, 8
  004d2	85 c0		 test	 eax, eax
  004d4	75 32		 jne	 SHORT $LN14@LoadConfig

; 444  : 			m_Config.bDecompressDDS = atoi(value) == 1 ? true : false;

  004d6	8d 85 f8 fe ff
	ff		 lea	 eax, DWORD PTR _value$[ebp]
  004dc	50		 push	 eax
  004dd	e8 00 00 00 00	 call	 __atoi64
  004e2	83 c4 04	 add	 esp, 4
  004e5	83 f8 01	 cmp	 eax, 1
  004e8	75 11		 jne	 SHORT $LN66@LoadConfig
  004ea	85 d2		 test	 edx, edx
  004ec	75 0d		 jne	 SHORT $LN66@LoadConfig
  004ee	8a c0		 mov	 al, al
  004f0	88 87 c9 25 00
	00		 mov	 BYTE PTR [edi+9673], al
  004f6	e9 6b 01 00 00	 jmp	 $LN4@LoadConfig
$LN66@LoadConfig:
  004fb	32 c0		 xor	 al, al
  004fd	88 87 c9 25 00
	00		 mov	 BYTE PTR [edi+9673], al
  00503	e9 5e 01 00 00	 jmp	 $LN4@LoadConfig
$LN14@LoadConfig:

; 445  : 		else if (!stricmp(command, "NO_SOUND_CARD"))

  00508	8d 85 f8 fd ff
	ff		 lea	 eax, DWORD PTR _command$[ebp]
  0050e	68 00 00 00 00	 push	 OFFSET ??_C@_0O@HAABBABC@NO_SOUND_CARD?$AA@
  00513	50		 push	 eax
  00514	e8 00 00 00 00	 call	 __stricmp
  00519	83 c4 08	 add	 esp, 8
  0051c	85 c0		 test	 eax, eax
  0051e	75 32		 jne	 SHORT $LN12@LoadConfig

; 446  : 			m_Config.bNoSoundCard = atoi(value) == 1 ? true : false;

  00520	8d 85 f8 fe ff
	ff		 lea	 eax, DWORD PTR _value$[ebp]
  00526	50		 push	 eax
  00527	e8 00 00 00 00	 call	 __atoi64
  0052c	83 c4 04	 add	 esp, 4
  0052f	83 f8 01	 cmp	 eax, 1
  00532	75 11		 jne	 SHORT $LN68@LoadConfig
  00534	85 d2		 test	 edx, edx
  00536	75 0d		 jne	 SHORT $LN68@LoadConfig
  00538	8a c0		 mov	 al, al
  0053a	88 87 ca 25 00
	00		 mov	 BYTE PTR [edi+9674], al
  00540	e9 21 01 00 00	 jmp	 $LN4@LoadConfig
$LN68@LoadConfig:
  00545	32 c0		 xor	 al, al
  00547	88 87 ca 25 00
	00		 mov	 BYTE PTR [edi+9674], al
  0054d	e9 14 01 00 00	 jmp	 $LN4@LoadConfig
$LN12@LoadConfig:

; 447  : 		else if (!stricmp(command, "VIEW_CHAT"))

  00552	8d 85 f8 fd ff
	ff		 lea	 eax, DWORD PTR _command$[ebp]
  00558	68 00 00 00 00	 push	 OFFSET ??_C@_09EOOFFIKE@VIEW_CHAT?$AA@
  0055d	50		 push	 eax
  0055e	e8 00 00 00 00	 call	 __stricmp
  00563	83 c4 08	 add	 esp, 8
  00566	85 c0		 test	 eax, eax
  00568	75 32		 jne	 SHORT $LN10@LoadConfig

; 448  : 			m_Config.bViewChat = atoi(value) == 1 ? true : false;

  0056a	8d 85 f8 fe ff
	ff		 lea	 eax, DWORD PTR _value$[ebp]
  00570	50		 push	 eax
  00571	e8 00 00 00 00	 call	 __atoi64
  00576	83 c4 04	 add	 esp, 4
  00579	83 f8 01	 cmp	 eax, 1
  0057c	75 11		 jne	 SHORT $LN70@LoadConfig
  0057e	85 d2		 test	 edx, edx
  00580	75 0d		 jne	 SHORT $LN70@LoadConfig
  00582	8a c0		 mov	 al, al
  00584	88 87 cd 25 00
	00		 mov	 BYTE PTR [edi+9677], al
  0058a	e9 d7 00 00 00	 jmp	 $LN4@LoadConfig
$LN70@LoadConfig:
  0058f	32 c0		 xor	 al, al
  00591	88 87 cd 25 00
	00		 mov	 BYTE PTR [edi+9677], al
  00597	e9 ca 00 00 00	 jmp	 $LN4@LoadConfig
$LN10@LoadConfig:

; 449  : 		else if (!stricmp(command, "ALWAYS_VIEW_NAME"))

  0059c	8d 85 f8 fd ff
	ff		 lea	 eax, DWORD PTR _command$[ebp]
  005a2	68 00 00 00 00	 push	 OFFSET ??_C@_0BB@PPFHKIN@ALWAYS_VIEW_NAME?$AA@
  005a7	50		 push	 eax
  005a8	e8 00 00 00 00	 call	 __stricmp
  005ad	83 c4 08	 add	 esp, 8
  005b0	85 c0		 test	 eax, eax
  005b2	75 32		 jne	 SHORT $LN8@LoadConfig

; 450  : 			m_Config.bAlwaysShowName = atoi(value) == 1 ? true : false;

  005b4	8d 85 f8 fe ff
	ff		 lea	 eax, DWORD PTR _value$[ebp]
  005ba	50		 push	 eax
  005bb	e8 00 00 00 00	 call	 __atoi64
  005c0	83 c4 04	 add	 esp, 4
  005c3	83 f8 01	 cmp	 eax, 1
  005c6	75 11		 jne	 SHORT $LN72@LoadConfig
  005c8	85 d2		 test	 edx, edx
  005ca	75 0d		 jne	 SHORT $LN72@LoadConfig
  005cc	8a c0		 mov	 al, al
  005ce	88 87 ce 25 00
	00		 mov	 BYTE PTR [edi+9678], al
  005d4	e9 8d 00 00 00	 jmp	 $LN4@LoadConfig
$LN72@LoadConfig:
  005d9	32 c0		 xor	 al, al
  005db	88 87 ce 25 00
	00		 mov	 BYTE PTR [edi+9678], al
  005e1	e9 80 00 00 00	 jmp	 $LN4@LoadConfig
$LN8@LoadConfig:

; 451  : 		else if (!stricmp(command, "SHOW_DAMAGE"))

  005e6	8d 85 f8 fd ff
	ff		 lea	 eax, DWORD PTR _command$[ebp]
  005ec	68 00 00 00 00	 push	 OFFSET ??_C@_0M@FJJANDDI@SHOW_DAMAGE?$AA@
  005f1	50		 push	 eax
  005f2	e8 00 00 00 00	 call	 __stricmp
  005f7	83 c4 08	 add	 esp, 8
  005fa	85 c0		 test	 eax, eax
  005fc	75 2c		 jne	 SHORT $LN6@LoadConfig

; 452  : 			m_Config.bShowDamage = atoi(value) == 1 ? true : false;

  005fe	8d 85 f8 fe ff
	ff		 lea	 eax, DWORD PTR _value$[ebp]
  00604	50		 push	 eax
  00605	e8 00 00 00 00	 call	 __atoi64
  0060a	83 c4 04	 add	 esp, 4
  0060d	83 f8 01	 cmp	 eax, 1
  00610	75 0e		 jne	 SHORT $LN74@LoadConfig
  00612	85 d2		 test	 edx, edx
  00614	75 0a		 jne	 SHORT $LN74@LoadConfig
  00616	8a c0		 mov	 al, al
  00618	88 87 cf 25 00
	00		 mov	 BYTE PTR [edi+9679], al
  0061e	eb 46		 jmp	 SHORT $LN4@LoadConfig
$LN74@LoadConfig:
  00620	32 c0		 xor	 al, al
  00622	88 87 cf 25 00
	00		 mov	 BYTE PTR [edi+9679], al
  00628	eb 3c		 jmp	 SHORT $LN4@LoadConfig
$LN6@LoadConfig:

; 453  : 		else if (!stricmp(command, "SHOW_SALESTEXT"))

  0062a	8d 85 f8 fd ff
	ff		 lea	 eax, DWORD PTR _command$[ebp]
  00630	68 00 00 00 00	 push	 OFFSET ??_C@_0P@FIIALOBN@SHOW_SALESTEXT?$AA@
  00635	50		 push	 eax
  00636	e8 00 00 00 00	 call	 __stricmp
  0063b	83 c4 08	 add	 esp, 8
  0063e	85 c0		 test	 eax, eax
  00640	75 24		 jne	 SHORT $LN4@LoadConfig

; 454  : 			m_Config.bShowSalesText = atoi(value) == 1 ? true : false;

  00642	8d 85 f8 fe ff
	ff		 lea	 eax, DWORD PTR _value$[ebp]
  00648	50		 push	 eax
  00649	e8 00 00 00 00	 call	 __atoi64
  0064e	83 c4 04	 add	 esp, 4
  00651	83 f8 01	 cmp	 eax, 1
  00654	75 08		 jne	 SHORT $LN76@LoadConfig
  00656	85 d2		 test	 edx, edx
  00658	75 04		 jne	 SHORT $LN76@LoadConfig
  0065a	8a c0		 mov	 al, al
  0065c	eb 02		 jmp	 SHORT $LN77@LoadConfig
$LN76@LoadConfig:
  0065e	32 c0		 xor	 al, al
$LN77@LoadConfig:
  00660	88 87 d0 25 00
	00		 mov	 BYTE PTR [edi+9680], al
$LN4@LoadConfig:

; 392  : 
; 393  : 	char buf[256];
; 394  : 	char command[256];
; 395  : 	char value[256];
; 396  : 
; 397  : 	while (fgets(buf, 256, fp))

  00666	53		 push	 ebx
  00667	8d 85 f8 fc ff
	ff		 lea	 eax, DWORD PTR _buf$[ebp]
  0066d	68 00 01 00 00	 push	 256			; 00000100H
  00672	50		 push	 eax
  00673	e8 00 00 00 00	 call	 _fgets
  00678	83 c4 0c	 add	 esp, 12			; 0000000cH
  0067b	85 c0		 test	 eax, eax
  0067d	0f 85 ed f9 ff
	ff		 jne	 $LL54@LoadConfig
$LN88@LoadConfig:

; 455  : 	}
; 456  : 
; 457  : 	if (m_Config.bWindowed)

  00683	80 bf c8 25 00
	00 00		 cmp	 BYTE PTR [edi+9672], 0
  0068a	74 34		 je	 SHORT $LN1@LoadConfig

; 458  : 	{
; 459  : 		unsigned screen_width = GetSystemMetrics(SM_CXFULLSCREEN);

  0068c	6a 10		 push	 16			; 00000010H
  0068e	ff 15 00 00 00
	00		 call	 DWORD PTR __imp__GetSystemMetrics@4

; 460  : 		unsigned screen_height = GetSystemMetrics(SM_CYFULLSCREEN);

  00694	6a 11		 push	 17			; 00000011H
  00696	8b d8		 mov	 ebx, eax
  00698	ff 15 00 00 00
	00		 call	 DWORD PTR __imp__GetSystemMetrics@4

; 461  : 
; 462  : 		if (m_Config.width >= screen_width)

  0069e	39 9f 88 25 00
	00		 cmp	 DWORD PTR [edi+9608], ebx
  006a4	72 06		 jb	 SHORT $LN2@LoadConfig

; 463  : 		{
; 464  : 			m_Config.width = screen_width;

  006a6	89 9f 88 25 00
	00		 mov	 DWORD PTR [edi+9608], ebx
$LN2@LoadConfig:
  006ac	8b 9d f4 fc ff
	ff		 mov	 ebx, DWORD PTR _fp$1$[ebp]

; 465  : 		}
; 466  : 		if (m_Config.height >= screen_height)

  006b2	39 87 8c 25 00
	00		 cmp	 DWORD PTR [edi+9612], eax
  006b8	72 06		 jb	 SHORT $LN1@LoadConfig

; 467  : 		{
; 468  : 			m_Config.height = screen_height;

  006ba	89 87 8c 25 00
	00		 mov	 DWORD PTR [edi+9612], eax
$LN1@LoadConfig:

; 469  : 		}
; 470  : 	}
; 471  : 	
; 472  : 	m_OldConfig = m_Config;

  006c0	f3 0f 6f 87 88
	25 00 00	 movdqu	 xmm0, XMMWORD PTR [edi+9608]
  006c8	8b 87 d0 25 00
	00		 mov	 eax, DWORD PTR [edi+9680]

; 473  : 
; 474  : 	fclose(fp);

  006ce	53		 push	 ebx
  006cf	f3 0f 7f 87 d4
	25 00 00	 movdqu	 XMMWORD PTR [edi+9684], xmm0
  006d7	f3 0f 6f 87 98
	25 00 00	 movdqu	 xmm0, XMMWORD PTR [edi+9624]
  006df	f3 0f 7f 87 e4
	25 00 00	 movdqu	 XMMWORD PTR [edi+9700], xmm0
  006e7	f3 0f 6f 87 a8
	25 00 00	 movdqu	 xmm0, XMMWORD PTR [edi+9640]
  006ef	f3 0f 7f 87 f4
	25 00 00	 movdqu	 XMMWORD PTR [edi+9716], xmm0
  006f7	f3 0f 6f 87 b8
	25 00 00	 movdqu	 xmm0, XMMWORD PTR [edi+9656]
  006ff	f3 0f 7f 87 04
	26 00 00	 movdqu	 XMMWORD PTR [edi+9732], xmm0
  00707	f3 0f 7e 87 c8
	25 00 00	 movq	 xmm0, QWORD PTR [edi+9672]
  0070f	66 0f d6 87 14
	26 00 00	 movq	 QWORD PTR [edi+9748], xmm0
  00717	89 87 1c 26 00
	00		 mov	 DWORD PTR [edi+9756], eax
  0071d	e8 00 00 00 00	 call	 _fclose

; 475  : 
; 476  : //	Tracef("LoadConfig: Resolution: %dx%d %dBPP %dHZ Software Cursor: %d, Music/Voice Volume: %d/%d Gamma: %d\n",
; 477  : //		m_Config.width,
; 478  : //		m_Config.height,
; 479  : //		m_Config.bpp,
; 480  : //		m_Config.frequency,
; 481  : //		m_Config.is_software_cursor,
; 482  : //		m_Config.music_volume,
; 483  : //		m_Config.voice_volume,
; 484  : //		m_Config.gamma);
; 485  : 
; 486  : 	return true;
; 487  : }

  00722	8b 4d fc	 mov	 ecx, DWORD PTR __$ArrayPad$[ebp]
  00725	83 c4 04	 add	 esp, 4
  00728	33 cd		 xor	 ecx, ebp
  0072a	b0 01		 mov	 al, 1
  0072c	5f		 pop	 edi
  0072d	5b		 pop	 ebx
  0072e	e8 00 00 00 00	 call	 @__security_check_cookie@4
  00733	8b e5		 mov	 esp, ebp
  00735	5d		 pop	 ebp
  00736	c3		 ret	 0
?LoadConfig@CPythonSystem@@QAE_NXZ ENDP			; CPythonSystem::LoadConfig
_TEXT	ENDS
; Function compile flags: /Ogtp
; File d:\metin2\metin2\client_source_clean\client_source_clean\source\userinterface\pythonsystem.cpp
;	COMDAT ?LoadInterfaceStatus@CPythonSystem@@QAE_NXZ
_TEXT	SEGMENT
?LoadInterfaceStatus@CPythonSystem@@QAE_NXZ PROC	; CPythonSystem::LoadInterfaceStatus, COMDAT
; _this$ = ecx

; 546  : {

  00000	56		 push	 esi
  00001	57		 push	 edi

; 547  : 	FILE * File;
; 548  : 	File = fopen("interface.cfg", "rb");

  00002	68 00 00 00 00	 push	 OFFSET ??_C@_02JDPG@rb?$AA@
  00007	68 00 00 00 00	 push	 OFFSET ??_C@_0O@OMHCOGAL@interface?4cfg?$AA@
  0000c	8b f9		 mov	 edi, ecx
  0000e	e8 00 00 00 00	 call	 _fopen
  00013	8b f0		 mov	 esi, eax
  00015	83 c4 08	 add	 esp, 8

; 549  : 
; 550  : 	if (!File)

  00018	85 f6		 test	 esi, esi
  0001a	75 05		 jne	 SHORT $LN1@LoadInterf

; 551  : 		return false;

  0001c	5f		 pop	 edi
  0001d	32 c0		 xor	 al, al
  0001f	5e		 pop	 esi

; 556  : }

  00020	c3		 ret	 0
$LN1@LoadInterf:

; 552  : 
; 553  : 	fread(m_WindowStatus, 1, sizeof(TWindowStatus) * WINDOW_MAX_NUM, File);

  00021	56		 push	 esi
  00022	68 c8 00 00 00	 push	 200			; 000000c8H
  00027	8d 87 28 26 00
	00		 lea	 eax, DWORD PTR [edi+9768]
  0002d	6a 01		 push	 1
  0002f	50		 push	 eax
  00030	e8 00 00 00 00	 call	 _fread

; 554  : 	fclose(File);

  00035	56		 push	 esi
  00036	e8 00 00 00 00	 call	 _fclose
  0003b	83 c4 14	 add	 esp, 20			; 00000014H

; 555  : 	return true;

  0003e	b0 01		 mov	 al, 1
  00040	5f		 pop	 edi
  00041	5e		 pop	 esi

; 556  : }

  00042	c3		 ret	 0
?LoadInterfaceStatus@CPythonSystem@@QAE_NXZ ENDP	; CPythonSystem::LoadInterfaceStatus
_TEXT	ENDS
; Function compile flags: /Ogtp
; File d:\metin2\metin2\client_source_clean\client_source_clean\source\userinterface\pythonsystem.cpp
;	COMDAT ?isInterfaceConfig@CPythonSystem@@QAE_NXZ
_TEXT	SEGMENT
?isInterfaceConfig@CPythonSystem@@QAE_NXZ PROC		; CPythonSystem::isInterfaceConfig, COMDAT
; _this$ = ecx

; 581  : 	return m_isInterfaceConfig;

  00000	8a 81 20 26 00
	00		 mov	 al, BYTE PTR [ecx+9760]

; 582  : }

  00006	c3		 ret	 0
?isInterfaceConfig@CPythonSystem@@QAE_NXZ ENDP		; CPythonSystem::isInterfaceConfig
_TEXT	ENDS
; Function compile flags: /Ogtp
; File d:\metin2\metin2\client_source_clean\client_source_clean\source\userinterface\pythonsystem.cpp
;	COMDAT ?GetWindowStatusReference@CPythonSystem@@QAEABUSWindowStatus@1@H@Z
_TEXT	SEGMENT
_iIndex$ = 8						; size = 4
?GetWindowStatusReference@CPythonSystem@@QAEABUSWindowStatus@1@H@Z PROC ; CPythonSystem::GetWindowStatusReference, COMDAT
; _this$ = ecx

; 585  : {

  00000	55		 push	 ebp
  00001	8b ec		 mov	 ebp, esp

; 586  : 	return m_WindowStatus[iIndex];

  00003	8b 45 08	 mov	 eax, DWORD PTR _iIndex$[ebp]
  00006	8d 04 80	 lea	 eax, DWORD PTR [eax+eax*4]
  00009	8d 80 8a 09 00
	00		 lea	 eax, DWORD PTR [eax+2442]
  0000f	8d 04 81	 lea	 eax, DWORD PTR [ecx+eax*4]

; 587  : }

  00012	5d		 pop	 ebp
  00013	c2 04 00	 ret	 4
?GetWindowStatusReference@CPythonSystem@@QAEABUSWindowStatus@1@H@Z ENDP ; CPythonSystem::GetWindowStatusReference
_TEXT	ENDS
; Function compile flags: /Ogtp
; File d:\metin2\metin2\client_source_clean\client_source_clean\source\userinterface\pythonsystem.cpp
;	COMDAT ?ApplyConfig@CPythonSystem@@QAEXXZ
_TEXT	SEGMENT
?ApplyConfig@CPythonSystem@@QAEXXZ PROC			; CPythonSystem::ApplyConfig, COMDAT
; _this$ = ecx

; 590  : {

  00000	56		 push	 esi
  00001	8b f1		 mov	 esi, ecx

; 591  : 	if (m_OldConfig.gamma != m_Config.gamma)

  00003	8b 86 ac 25 00
	00		 mov	 eax, DWORD PTR [esi+9644]
  00009	39 86 f8 25 00
	00		 cmp	 DWORD PTR [esi+9720], eax
  0000f	74 4b		 je	 SHORT $LN11@ApplyConfi

; 592  : 	{
; 593  : 		float val = 1.0f;

  00011	f3 0f 10 05 00
	00 00 00	 movss	 xmm0, DWORD PTR __real@3f800000

; 594  : 		
; 595  : 		switch (m_Config.gamma)

  00019	83 f8 04	 cmp	 eax, 4
  0001c	77 2d		 ja	 SHORT $LN9@ApplyConfi
  0001e	ff 24 85 00 00
	00 00		 jmp	 DWORD PTR $LN24@ApplyConfi[eax*4]
$LN8@ApplyConfi:

; 596  : 		{
; 597  : 			case 0: val = 0.4f;	break;

  00025	f3 0f 10 05 00
	00 00 00	 movss	 xmm0, DWORD PTR __real@3ecccccd
  0002d	eb 1c		 jmp	 SHORT $LN9@ApplyConfi
$LN7@ApplyConfi:

; 598  : 			case 1: val = 0.7f; break;

  0002f	f3 0f 10 05 00
	00 00 00	 movss	 xmm0, DWORD PTR __real@3f333333
  00037	eb 12		 jmp	 SHORT $LN9@ApplyConfi
$LN5@ApplyConfi:

; 599  : 			case 2: val = 1.0f; break;
; 600  : 			case 3: val = 1.2f; break;

  00039	f3 0f 10 05 00
	00 00 00	 movss	 xmm0, DWORD PTR __real@3f99999a
  00041	eb 08		 jmp	 SHORT $LN9@ApplyConfi
$LN4@ApplyConfi:

; 601  : 			case 4: val = 1.4f; break;

  00043	f3 0f 10 05 00
	00 00 00	 movss	 xmm0, DWORD PTR __real@3fb33333
$LN9@ApplyConfi:

; 602  : 		}
; 603  : 		
; 604  : 		CPythonGraphic::Instance().SetGamma(val);

  0004b	51		 push	 ecx
  0004c	8b 0d 00 00 00
	00		 mov	 ecx, DWORD PTR ?ms_singleton@?$CSingleton@VCPythonGraphic@@@@0PAVCPythonGraphic@@A ; CSingleton<CPythonGraphic>::ms_singleton
  00052	f3 0f 11 04 24	 movss	 DWORD PTR [esp], xmm0
  00057	e8 00 00 00 00	 call	 ?SetGamma@CPythonGraphic@@QAEXM@Z ; CPythonGraphic::SetGamma
$LN11@ApplyConfi:

; 605  : 	}
; 606  : 
; 607  : 	if (m_OldConfig.is_software_cursor != m_Config.is_software_cursor)

  0005c	8a 86 98 25 00
	00		 mov	 al, BYTE PTR [esi+9624]
  00062	38 86 e4 25 00
	00		 cmp	 BYTE PTR [esi+9700], al
  00068	74 15		 je	 SHORT $LN1@ApplyConfi

; 608  : 	{
; 609  : 		if (m_Config.is_software_cursor)
; 610  : 			CPythonApplication::Instance().SetCursorMode(CPythonApplication::CURSOR_MODE_SOFTWARE);

  0006a	8b 0d 00 00 00
	00		 mov	 ecx, DWORD PTR ?ms_pInstance@CPythonApplication@@1PAV1@A ; CPythonApplication::ms_pInstance
  00070	84 c0		 test	 al, al
  00072	74 04		 je	 SHORT $LN2@ApplyConfi
  00074	6a 01		 push	 1

; 611  : 		else

  00076	eb 02		 jmp	 SHORT $LN22@ApplyConfi
$LN2@ApplyConfi:

; 612  : 			CPythonApplication::Instance().SetCursorMode(CPythonApplication::CURSOR_MODE_HARDWARE);

  00078	6a 00		 push	 0
$LN22@ApplyConfi:
  0007a	e8 00 00 00 00	 call	 ?SetCursorMode@CPythonApplication@@QAEXH@Z ; CPythonApplication::SetCursorMode
$LN1@ApplyConfi:

; 613  : 	}
; 614  : 
; 615  : 	m_OldConfig = m_Config;

  0007f	f3 0f 6f 86 88
	25 00 00	 movdqu	 xmm0, XMMWORD PTR [esi+9608]
  00087	8b 86 d0 25 00
	00		 mov	 eax, DWORD PTR [esi+9680]

; 616  : 
; 617  : 	ChangeSystem();

  0008d	8b ce		 mov	 ecx, esi
  0008f	f3 0f 7f 86 d4
	25 00 00	 movdqu	 XMMWORD PTR [esi+9684], xmm0
  00097	f3 0f 6f 86 98
	25 00 00	 movdqu	 xmm0, XMMWORD PTR [esi+9624]
  0009f	f3 0f 7f 86 e4
	25 00 00	 movdqu	 XMMWORD PTR [esi+9700], xmm0
  000a7	f3 0f 6f 86 a8
	25 00 00	 movdqu	 xmm0, XMMWORD PTR [esi+9640]
  000af	f3 0f 7f 86 f4
	25 00 00	 movdqu	 XMMWORD PTR [esi+9716], xmm0
  000b7	f3 0f 6f 86 b8
	25 00 00	 movdqu	 xmm0, XMMWORD PTR [esi+9656]
  000bf	f3 0f 7f 86 04
	26 00 00	 movdqu	 XMMWORD PTR [esi+9732], xmm0
  000c7	f3 0f 7e 86 c8
	25 00 00	 movq	 xmm0, QWORD PTR [esi+9672]
  000cf	66 0f d6 86 14
	26 00 00	 movq	 QWORD PTR [esi+9748], xmm0
  000d7	89 86 1c 26 00
	00		 mov	 DWORD PTR [esi+9756], eax
  000dd	5e		 pop	 esi
  000de	e9 00 00 00 00	 jmp	 ?ChangeSystem@CPythonSystem@@QAEXXZ ; CPythonSystem::ChangeSystem
  000e3	90		 npad	 1
$LN24@ApplyConfi:

; 618  : }

  000e4	00 00 00 00	 DD	 $LN8@ApplyConfi
  000e8	00 00 00 00	 DD	 $LN7@ApplyConfi
  000ec	00 00 00 00	 DD	 $LN9@ApplyConfi
  000f0	00 00 00 00	 DD	 $LN5@ApplyConfi
  000f4	00 00 00 00	 DD	 $LN4@ApplyConfi
?ApplyConfig@CPythonSystem@@QAEXXZ ENDP			; CPythonSystem::ApplyConfig
_TEXT	ENDS
; Function compile flags: /Ogtp
; File d:\metin2\metin2\client_source_clean\client_source_clean\source\userinterface\pythonsystem.cpp
;	COMDAT ?ChangeSystem@CPythonSystem@@QAEXXZ
_TEXT	SEGMENT
?ChangeSystem@CPythonSystem@@QAEXXZ PROC		; CPythonSystem::ChangeSystem, COMDAT
; _this$ = ecx

; 621  : {

  00000	56		 push	 esi
  00001	8b f1		 mov	 esi, ecx
  00003	57		 push	 edi

; 622  : 	// Shadow
; 623  : 	/*
; 624  : 	if (m_Config.is_shadow)
; 625  : 		CScreen::SetShadowFlag(true);
; 626  : 	else
; 627  : 		CScreen::SetShadowFlag(false);
; 628  : 	*/
; 629  : 	CSoundManager& rkSndMgr = CSoundManager::Instance();

  00004	8b 3d 00 00 00
	00		 mov	 edi, DWORD PTR ?ms_singleton@?$CSingleton@VCSoundManager@@@@0PAVCSoundManager@@A ; CSingleton<CSoundManager>::ms_singleton

; 630  : 	/*
; 631  : 	float fMusicVolume;
; 632  : 	if (0 == m_Config.music_volume)
; 633  : 		fMusicVolume = 0.0f;
; 634  : 	else
; 635  : 		fMusicVolume= (float)pow(10.0f, (-1.0f + (float)m_Config.music_volume / 5.0f));
; 636  : 		*/
; 637  : 	rkSndMgr.SetMusicVolume(m_Config.music_volume);

  0000a	51		 push	 ecx
  0000b	f3 0f 10 86 a4
	25 00 00	 movss	 xmm0, DWORD PTR [esi+9636]
  00013	8b cf		 mov	 ecx, edi
  00015	f3 0f 11 04 24	 movss	 DWORD PTR [esp], xmm0
  0001a	e8 00 00 00 00	 call	 ?SetMusicVolume@CSoundManager@@QAEXM@Z ; CSoundManager::SetMusicVolume

; 638  : 
; 639  : 	/*
; 640  : 	float fVoiceVolume;
; 641  : 	if (0 == m_Config.voice_volume)
; 642  : 		fVoiceVolume = 0.0f;
; 643  : 	else
; 644  : 		fVoiceVolume = (float)pow(10.0f, (-1.0f + (float)m_Config.voice_volume / 5.0f));
; 645  : 	*/
; 646  : 	rkSndMgr.SetSoundVolumeGrade(m_Config.voice_volume);	

  0001f	0f b6 86 a8 25
	00 00		 movzx	 eax, BYTE PTR [esi+9640]
  00026	8b cf		 mov	 ecx, edi
  00028	50		 push	 eax
  00029	e8 00 00 00 00	 call	 ?SetSoundVolumeGrade@CSoundManager@@QAEXH@Z ; CSoundManager::SetSoundVolumeGrade
  0002e	5f		 pop	 edi
  0002f	5e		 pop	 esi

; 647  : }

  00030	c3		 ret	 0
?ChangeSystem@CPythonSystem@@QAEXXZ ENDP		; CPythonSystem::ChangeSystem
_TEXT	ENDS
; Function compile flags: /Ogtp
;	COMDAT ??_GCPythonSystem@@UAEPAXI@Z
_TEXT	SEGMENT
___flags$ = 8						; size = 4
??_GCPythonSystem@@UAEPAXI@Z PROC			; CPythonSystem::`scalar deleting destructor', COMDAT
; _this$ = ecx
  00000	55		 push	 ebp
  00001	8b ec		 mov	 ebp, esp
  00003	56		 push	 esi
  00004	8b f1		 mov	 esi, ecx
  00006	e8 00 00 00 00	 call	 ??1CPythonSystem@@UAE@XZ ; CPythonSystem::~CPythonSystem
  0000b	f6 45 08 01	 test	 BYTE PTR ___flags$[ebp], 1
  0000f	74 09		 je	 SHORT $LN4@scalar
  00011	56		 push	 esi
  00012	e8 00 00 00 00	 call	 ??3@YAXPAX@Z		; operator delete
  00017	83 c4 04	 add	 esp, 4
$LN4@scalar:
  0001a	8b c6		 mov	 eax, esi
  0001c	5e		 pop	 esi
  0001d	5d		 pop	 ebp
  0001e	c2 04 00	 ret	 4
??_GCPythonSystem@@UAEPAXI@Z ENDP			; CPythonSystem::`scalar deleting destructor'
_TEXT	ENDS
; Function compile flags: /Ogtp
; File d:\metin2\metin2\client_source_clean\client_source_clean\source\eterbase\singleton.h
;	COMDAT ??0?$CSingleton@VCPythonSystem@@@@QAE@XZ
_TEXT	SEGMENT
??0?$CSingleton@VCPythonSystem@@@@QAE@XZ PROC		; CSingleton<CPythonSystem>::CSingleton<CPythonSystem>, COMDAT
; _this$ = ecx

; 11   : 	CSingleton()

  00000	c7 01 00 00 00
	00		 mov	 DWORD PTR [ecx], OFFSET ??_7?$CSingleton@VCPythonSystem@@@@6B@

; 12   : 	{ 
; 13   : 		assert(!ms_singleton);
; 14   : 		int offset = (int) (T*) 1 - (int) (CSingleton <T>*) (T*) 1; 
; 15   : 		ms_singleton = (T*) ((int) this + offset);
; 16   : 	} 

  00006	8b c1		 mov	 eax, ecx
  00008	89 0d 00 00 00
	00		 mov	 DWORD PTR ?ms_singleton@?$CSingleton@VCPythonSystem@@@@0PAVCPythonSystem@@A, ecx ; CSingleton<CPythonSystem>::ms_singleton
  0000e	c3		 ret	 0
??0?$CSingleton@VCPythonSystem@@@@QAE@XZ ENDP		; CSingleton<CPythonSystem>::CSingleton<CPythonSystem>
_TEXT	ENDS
; Function compile flags: /Ogtp
; File d:\metin2\metin2\client_source_clean\client_source_clean\source\eterbase\singleton.h
;	COMDAT ??1?$CSingleton@VCPythonSystem@@@@UAE@XZ
_TEXT	SEGMENT
??1?$CSingleton@VCPythonSystem@@@@UAE@XZ PROC		; CSingleton<CPythonSystem>::~CSingleton<CPythonSystem>, COMDAT
; _this$ = ecx

; 19   : 	{ 

  00000	c7 01 00 00 00
	00		 mov	 DWORD PTR [ecx], OFFSET ??_7?$CSingleton@VCPythonSystem@@@@6B@

; 20   : 		assert(ms_singleton);
; 21   : 		ms_singleton = 0; 

  00006	c7 05 00 00 00
	00 00 00 00 00	 mov	 DWORD PTR ?ms_singleton@?$CSingleton@VCPythonSystem@@@@0PAVCPythonSystem@@A, 0 ; CSingleton<CPythonSystem>::ms_singleton

; 22   : 	}

  00010	c3		 ret	 0
??1?$CSingleton@VCPythonSystem@@@@UAE@XZ ENDP		; CSingleton<CPythonSystem>::~CSingleton<CPythonSystem>
_TEXT	ENDS
; Function compile flags: /Ogtp
; File d:\metin2\metin2\client_source_clean\client_source_clean\source\eterbase\singleton.h
;	COMDAT ?instance@?$CSingleton@VCPythonBackground@@@@SAAAVCPythonBackground@@XZ
_TEXT	SEGMENT
?instance@?$CSingleton@VCPythonBackground@@@@SAAAVCPythonBackground@@XZ PROC ; CSingleton<CPythonBackground>::instance, COMDAT

; 37   : 		assert(ms_singleton);
; 38   : 		return (*ms_singleton);

  00000	a1 00 00 00 00	 mov	 eax, DWORD PTR ?ms_singleton@?$CSingleton@VCPythonBackground@@@@0PAVCPythonBackground@@A ; CSingleton<CPythonBackground>::ms_singleton

; 39   : 	}

  00005	c3		 ret	 0
?instance@?$CSingleton@VCPythonBackground@@@@SAAAVCPythonBackground@@XZ ENDP ; CSingleton<CPythonBackground>::instance
_TEXT	ENDS
; Function compile flags: /Ogtp
; File d:\metin2\metin2\client_source_clean\client_source_clean\source\eterbase\singleton.h
;	COMDAT ??_G?$CSingleton@VCPythonSystem@@@@UAEPAXI@Z
_TEXT	SEGMENT
___flags$ = 8						; size = 4
??_G?$CSingleton@VCPythonSystem@@@@UAEPAXI@Z PROC	; CSingleton<CPythonSystem>::`scalar deleting destructor', COMDAT
; _this$ = ecx
  00000	55		 push	 ebp
  00001	8b ec		 mov	 ebp, esp
  00003	f6 45 08 01	 test	 BYTE PTR ___flags$[ebp], 1
  00007	56		 push	 esi
  00008	8b f1		 mov	 esi, ecx

; 21   : 		ms_singleton = 0; 

  0000a	c7 05 00 00 00
	00 00 00 00 00	 mov	 DWORD PTR ?ms_singleton@?$CSingleton@VCPythonSystem@@@@0PAVCPythonSystem@@A, 0 ; CSingleton<CPythonSystem>::ms_singleton
  00014	c7 06 00 00 00
	00		 mov	 DWORD PTR [esi], OFFSET ??_7?$CSingleton@VCPythonSystem@@@@6B@
  0001a	74 09		 je	 SHORT $LN6@scalar
  0001c	56		 push	 esi
  0001d	e8 00 00 00 00	 call	 ??3@YAXPAX@Z		; operator delete
  00022	83 c4 04	 add	 esp, 4
$LN6@scalar:
  00025	8b c6		 mov	 eax, esi
  00027	5e		 pop	 esi
  00028	5d		 pop	 ebp
  00029	c2 04 00	 ret	 4
??_G?$CSingleton@VCPythonSystem@@@@UAEPAXI@Z ENDP	; CSingleton<CPythonSystem>::`scalar deleting destructor'
_TEXT	ENDS
; Function compile flags: /Ogtp
; File c:\program files (x86)\microsoft visual studio 12.0\vc\include\math.h
;	COMDAT _powf
_TEXT	SEGMENT
tv72 = -4						; size = 4
__X$ = 8						; size = 4
__Y$ = 12						; size = 4
_powf	PROC						; COMDAT

; 759  : {

  00000	55		 push	 ebp
  00001	8b ec		 mov	 ebp, esp
  00003	83 e4 f8	 and	 esp, -8			; fffffff8H
  00006	83 ec 08	 sub	 esp, 8
  00009	f3 0f 10 4d 0c	 movss	 xmm1, DWORD PTR __Y$[ebp]
  0000e	f3 0f 10 45 08	 movss	 xmm0, DWORD PTR __X$[ebp]

; 760  :     return (float)pow(_X, _Y);

  00013	0f 5a c0	 cvtps2pd xmm0, xmm0
  00016	0f 5a c9	 cvtps2pd xmm1, xmm1
  00019	e8 00 00 00 00	 call	 __libm_sse2_pow_precise
  0001e	f2 0f 5a c0	 cvtsd2ss xmm0, xmm0
  00022	f3 0f 11 44 24
	04		 movss	 DWORD PTR tv72[esp+8], xmm0
  00028	d9 44 24 04	 fld	 DWORD PTR tv72[esp+8]

; 761  : }

  0002c	8b e5		 mov	 esp, ebp
  0002e	5d		 pop	 ebp
  0002f	c3		 ret	 0
_powf	ENDP
_TEXT	ENDS
; Function compile flags: /Ogtp
; File c:\program files (x86)\microsoft visual studio 12.0\vc\include\math.h
;	COMDAT ?pow@@YAMMM@Z
_TEXT	SEGMENT
__X$ = 8						; size = 4
__Y$ = 12						; size = 4
?pow@@YAMMM@Z PROC					; pow, COMDAT

; 1116 :         {return (powf(_X, _Y)); }

  00000	55		 push	 ebp
  00001	8b ec		 mov	 ebp, esp
  00003	f3 0f 10 45 0c	 movss	 xmm0, DWORD PTR __Y$[ebp]
  00008	83 ec 08	 sub	 esp, 8
  0000b	f3 0f 11 44 24
	04		 movss	 DWORD PTR [esp+4], xmm0
  00011	f3 0f 10 45 08	 movss	 xmm0, DWORD PTR __X$[ebp]
  00016	f3 0f 11 04 24	 movss	 DWORD PTR [esp], xmm0
  0001b	e8 00 00 00 00	 call	 _powf
  00020	83 c4 08	 add	 esp, 8
  00023	5d		 pop	 ebp
  00024	c3		 ret	 0
?pow@@YAMMM@Z ENDP					; pow
_TEXT	ENDS
END
