; Listing generated by Microsoft (R) Optimizing Compiler Version 18.00.40629.0 

	TITLE	D:\Metin2\Metin2\client_source_clean\client_source_clean\source\UserInterface\PythonNetworkStreamEvent.cpp
	.686P
	.XMM
	include listing.inc
	.model	flat

INCLUDELIB OLDNAMES

PUBLIC	??_C@_0BA@MPIMMMAP@OpenQuestWindow?$AA@		; `string'
;	COMDAT ??_C@_0BA@MPIMMMAP@OpenQuestWindow?$AA@
CONST	SEGMENT
??_C@_0BA@MPIMMMAP@OpenQuestWindow?$AA@ DB 'OpenQuestWindow', 00H ; `string'
PUBLIC	?OnScriptEventStart@CPythonNetworkStream@@IAEXHH@Z ; CPythonNetworkStream::OnScriptEventStart
PUBLIC	?OnRemoteDisconnect@CPythonNetworkStream@@MAEXXZ ; CPythonNetworkStream::OnRemoteDisconnect
PUBLIC	?OnDisconnect@CPythonNetworkStream@@MAEXXZ	; CPythonNetworkStream::OnDisconnect
; Function compile flags: /Ogtp
; File d:\metin2\metin2\client_source_clean\client_source_clean\source\userinterface\pythonnetworkstreamevent.cpp
;	COMDAT ?OnDisconnect@CPythonNetworkStream@@MAEXXZ
_TEXT	SEGMENT
?OnDisconnect@CPythonNetworkStream@@MAEXXZ PROC		; CPythonNetworkStream::OnDisconnect, COMDAT
; _this$ = ecx

; 11   : }

  00000	c3		 ret	 0
?OnDisconnect@CPythonNetworkStream@@MAEXXZ ENDP		; CPythonNetworkStream::OnDisconnect
_TEXT	ENDS
; Function compile flags: /Ogtp
; File d:\metin2\metin2\client_source_clean\client_source_clean\source\userinterface\pythonnetworkstreamevent.cpp
;	COMDAT ?OnRemoteDisconnect@CPythonNetworkStream@@MAEXXZ
_TEXT	SEGMENT
?OnRemoteDisconnect@CPythonNetworkStream@@MAEXXZ PROC	; CPythonNetworkStream::OnRemoteDisconnect, COMDAT
; _this$ = ecx

; 5    : {

  00000	56		 push	 esi

; 6    : 	PyCallClassMemberFunc(m_poHandler, "SetLoginPhase", Py_BuildValue("()"));

  00001	68 00 00 00 00	 push	 OFFSET ??_C@_02HCKGKOFO@?$CI?$CJ?$AA@
  00006	8b f1		 mov	 esi, ecx
  00008	ff 15 00 00 00
	00		 call	 DWORD PTR __imp__Py_BuildValue
  0000e	50		 push	 eax
  0000f	68 00 00 00 00	 push	 OFFSET ??_C@_0O@PJEEOCNO@SetLoginPhase?$AA@
  00014	ff b6 78 01 00
	00		 push	 DWORD PTR [esi+376]
  0001a	e8 00 00 00 00	 call	 ?PyCallClassMemberFunc@@YA_NPAU_object@@PBD0@Z ; PyCallClassMemberFunc
  0001f	83 c4 10	 add	 esp, 16			; 00000010H
  00022	5e		 pop	 esi

; 7    : }

  00023	c3		 ret	 0
?OnRemoteDisconnect@CPythonNetworkStream@@MAEXXZ ENDP	; CPythonNetworkStream::OnRemoteDisconnect
_TEXT	ENDS
; Function compile flags: /Ogtp
; File d:\metin2\metin2\client_source_clean\client_source_clean\source\userinterface\pythonnetworkstreamevent.cpp
;	COMDAT ?OnScriptEventStart@CPythonNetworkStream@@IAEXHH@Z
_TEXT	SEGMENT
_iSkin$ = 8						; size = 4
_iIndex$ = 12						; size = 4
?OnScriptEventStart@CPythonNetworkStream@@IAEXHH@Z PROC	; CPythonNetworkStream::OnScriptEventStart, COMDAT
; _this$ = ecx

; 16   : {

  00000	55		 push	 ebp
  00001	8b ec		 mov	 ebp, esp
  00003	56		 push	 esi

; 17   : 	PyCallClassMemberFunc(m_apoPhaseWnd[PHASE_WINDOW_GAME], "OpenQuestWindow", Py_BuildValue("(ii)", iSkin, iIndex));

  00004	ff 75 0c	 push	 DWORD PTR _iIndex$[ebp]
  00007	8b f1		 mov	 esi, ecx
  00009	ff 75 08	 push	 DWORD PTR _iSkin$[ebp]
  0000c	68 00 00 00 00	 push	 OFFSET ??_C@_04INACLLOK@?$CIii?$CJ?$AA@
  00011	ff 15 00 00 00
	00		 call	 DWORD PTR __imp__Py_BuildValue
  00017	50		 push	 eax
  00018	68 00 00 00 00	 push	 OFFSET ??_C@_0BA@MPIMMMAP@OpenQuestWindow?$AA@
  0001d	ff b6 90 01 00
	00		 push	 DWORD PTR [esi+400]
  00023	e8 00 00 00 00	 call	 ?PyCallClassMemberFunc@@YA_NPAU_object@@PBD0@Z ; PyCallClassMemberFunc
  00028	83 c4 18	 add	 esp, 24			; 00000018H
  0002b	5e		 pop	 esi

; 18   : }

  0002c	5d		 pop	 ebp
  0002d	c2 08 00	 ret	 8
?OnScriptEventStart@CPythonNetworkStream@@IAEXHH@Z ENDP	; CPythonNetworkStream::OnScriptEventStart
_TEXT	ENDS
END
