; Listing generated by Microsoft (R) Optimizing Compiler Version 18.00.40629.0 

	TITLE	D:\Metin2\Metin2\client_source_clean\client_source_clean\source\UserInterface\PythonFlyModule.cpp
	.686P
	.XMM
	include listing.inc
	.model	flat

INCLUDELIB OLDNAMES

PUBLIC	??_C@_03HPMGHIMH@fly?$AA@			; `string'
;	COMDAT ?s_methods@?1??initfly@@YAXXZ@4PAUPyMethodDef@@A
_DATA	SEGMENT
?s_methods@?1??initfly@@YAXXZ@4PAUPyMethodDef@@A DD FLAT:??_C@_06LMAGPFNF@Update?$AA@ ; `initfly'::`2'::s_methods
	DD	FLAT:?flyUpdate@@YAPAU_object@@PAU1@0@Z
	DD	01H
	ORG $+4
	DD	FLAT:??_C@_06EPLDPNDB@Render?$AA@
	DD	FLAT:?flyRender@@YAPAU_object@@PAU1@0@Z
	DD	01H
	ORG $+4
	DD	00H
	DD	00H
	DD	00H
	ORG $+4
_DATA	ENDS
;	COMDAT ??_C@_03HPMGHIMH@fly?$AA@
CONST	SEGMENT
??_C@_03HPMGHIMH@fly?$AA@ DB 'fly', 00H			; `string'
PUBLIC	?initfly@@YAXXZ					; initfly
PUBLIC	?flyRender@@YAPAU_object@@PAU1@0@Z		; flyRender
PUBLIC	?flyUpdate@@YAPAU_object@@PAU1@0@Z		; flyUpdate
; Function compile flags: /Ogtp
; File d:\metin2\metin2\client_source_clean\client_source_clean\source\userinterface\pythonflymodule.cpp
;	COMDAT ?flyUpdate@@YAPAU_object@@PAU1@0@Z
_TEXT	SEGMENT
_poSelf$ = 8						; size = 4
_poArgs$ = 12						; size = 4
?flyUpdate@@YAPAU_object@@PAU1@0@Z PROC			; flyUpdate, COMDAT

; 5    : 	CFlyingManager::Instance().Update();

  00000	8b 0d 00 00 00
	00		 mov	 ecx, DWORD PTR ?ms_singleton@?$CSingleton@VCFlyingManager@@@@0PAVCFlyingManager@@A ; CSingleton<CFlyingManager>::ms_singleton
  00006	e8 00 00 00 00	 call	 ?Update@CFlyingManager@@QAEXXZ ; CFlyingManager::Update

; 6    : 	return Py_BuildNone();

  0000b	e9 00 00 00 00	 jmp	 ?Py_BuildNone@@YAPAU_object@@XZ ; Py_BuildNone
?flyUpdate@@YAPAU_object@@PAU1@0@Z ENDP			; flyUpdate
_TEXT	ENDS
; Function compile flags: /Ogtp
; File d:\metin2\metin2\client_source_clean\client_source_clean\source\userinterface\pythonflymodule.cpp
;	COMDAT ?flyRender@@YAPAU_object@@PAU1@0@Z
_TEXT	SEGMENT
_poSelf$ = 8						; size = 4
_poArgs$ = 12						; size = 4
?flyRender@@YAPAU_object@@PAU1@0@Z PROC			; flyRender, COMDAT

; 11   : 	CFlyingManager::Instance().Render();

  00000	8b 0d 00 00 00
	00		 mov	 ecx, DWORD PTR ?ms_singleton@?$CSingleton@VCFlyingManager@@@@0PAVCFlyingManager@@A ; CSingleton<CFlyingManager>::ms_singleton
  00006	e8 00 00 00 00	 call	 ?Render@CFlyingManager@@QAEXXZ ; CFlyingManager::Render

; 12   : 	return Py_BuildNone();

  0000b	e9 00 00 00 00	 jmp	 ?Py_BuildNone@@YAPAU_object@@XZ ; Py_BuildNone
?flyRender@@YAPAU_object@@PAU1@0@Z ENDP			; flyRender
_TEXT	ENDS
; Function compile flags: /Ogtp
; File d:\metin2\metin2\client_source_clean\client_source_clean\source\userinterface\pythonflymodule.cpp
;	COMDAT ?initfly@@YAXXZ
_TEXT	SEGMENT
?initfly@@YAXXZ PROC					; initfly, COMDAT

; 17   : 	static PyMethodDef s_methods[] =
; 18   : 	{
; 19   : 		{ "Update",						flyUpdate,					METH_VARARGS },
; 20   : 		{ "Render",						flyRender,					METH_VARARGS },
; 21   : 		
; 22   : 		{ NULL,							NULL,							NULL         },
; 23   : 	};
; 24   : 	
; 25   : 	Py_InitModule("fly", s_methods);

  00000	68 f5 03 00 00	 push	 1013			; 000003f5H
  00005	6a 00		 push	 0
  00007	6a 00		 push	 0
  00009	68 00 00 00 00	 push	 OFFSET ?s_methods@?1??initfly@@YAXXZ@4PAUPyMethodDef@@A
  0000e	68 00 00 00 00	 push	 OFFSET ??_C@_03HPMGHIMH@fly?$AA@
  00013	ff 15 00 00 00
	00		 call	 DWORD PTR __imp__Py_InitModule4
  00019	83 c4 14	 add	 esp, 20			; 00000014H

; 26   : }

  0001c	c3		 ret	 0
?initfly@@YAXXZ ENDP					; initfly
_TEXT	ENDS
END
