; Listing generated by Microsoft (R) Optimizing Compiler Version 18.00.40629.0 

	TITLE	D:\Metin2\Metin2\client_source_clean\client_source_clean\source\UserInterface\PythonExchangeModule.cpp
	.686P
	.XMM
	include listing.inc
	.model	flat

INCLUDELIB OLDNAMES

PUBLIC	??_C@_0M@IAKFCGCD@InitTrading?$AA@		; `string'
PUBLIC	??_C@_0P@FLKEMEBG@GetElkFromSelf?$AA@		; `string'
PUBLIC	??_C@_09NDPDNFKM@isTrading?$AA@			; `string'
PUBLIC	??_C@_0BE@IGEBIKPO@GetItemVnumFromSelf?$AA@	; `string'
PUBLIC	??_C@_0BB@LMIEGPPN@GetElkFromTarget?$AA@	; `string'
PUBLIC	??_C@_0BF@MADFKIJK@GetItemCountFromSelf?$AA@	; `string'
PUBLIC	??_C@_0BG@LLEHKHGL@GetItemVnumFromTarget?$AA@	; `string'
PUBLIC	??_C@_0BC@EFOHFOPD@GetAcceptFromSelf?$AA@	; `string'
PUBLIC	??_C@_0BH@GPLGAOFI@GetItemCountFromTarget?$AA@	; `string'
PUBLIC	??_C@_0BA@JBODFEMD@GetNameFromSelf?$AA@		; `string'
PUBLIC	??_C@_0BE@IPFHAMEN@GetAcceptFromTarget?$AA@	; `string'
PUBLIC	??_C@_0BN@FJAFLLEI@GetItemMetinSocketFromTarget?$AA@ ; `string'
PUBLIC	??_C@_0BC@LAMEAHKE@GetNameFromTarget?$AA@	; `string'
PUBLIC	??_C@_0BL@CDOBAGEH@GetItemAttributeFromTarget?$AA@ ; `string'
PUBLIC	??_C@_0BL@OPELCAOA@GetItemMetinSocketFromSelf?$AA@ ; `string'
PUBLIC	??_C@_0L@CKKAINKA@GetElkMode?$AA@		; `string'
PUBLIC	??_C@_0BJ@LGADFCHN@GetItemAttributeFromSelf?$AA@ ; `string'
PUBLIC	??_C@_08EPHOCFK@exchange?$AA@			; `string'
PUBLIC	??_C@_0L@DEIPDKOJ@SetElkMode?$AA@		; `string'
PUBLIC	??_C@_0BG@LKADPLLF@EXCHANGE_ITEM_MAX_NUM?$AA@	; `string'
;	COMDAT ?s_methods@?1??initTrade@@YAXXZ@4PAUPyMethodDef@@A
_DATA	SEGMENT
?s_methods@?1??initTrade@@YAXXZ@4PAUPyMethodDef@@A DD FLAT:??_C@_0M@IAKFCGCD@InitTrading?$AA@ ; `initTrade'::`2'::s_methods
	DD	FLAT:?exchangeInitTrading@@YAPAU_object@@PAU1@0@Z
	DD	01H
	ORG $+4
	DD	FLAT:??_C@_09NDPDNFKM@isTrading?$AA@
	DD	FLAT:?exchangeisTrading@@YAPAU_object@@PAU1@0@Z
	DD	01H
	ORG $+4
	DD	FLAT:??_C@_0P@FLKEMEBG@GetElkFromSelf?$AA@
	DD	FLAT:?exchangeGetElkFromSelf@@YAPAU_object@@PAU1@0@Z
	DD	01H
	ORG $+4
	DD	FLAT:??_C@_0BB@LMIEGPPN@GetElkFromTarget?$AA@
	DD	FLAT:?exchangeGetElkFromTarget@@YAPAU_object@@PAU1@0@Z
	DD	01H
	ORG $+4
	DD	FLAT:??_C@_0BE@IGEBIKPO@GetItemVnumFromSelf?$AA@
	DD	FLAT:?exchangeGetItemVnumFromSelf@@YAPAU_object@@PAU1@0@Z
	DD	01H
	ORG $+4
	DD	FLAT:??_C@_0BG@LLEHKHGL@GetItemVnumFromTarget?$AA@
	DD	FLAT:?exchangeGetItemVnumFromTarget@@YAPAU_object@@PAU1@0@Z
	DD	01H
	ORG $+4
	DD	FLAT:??_C@_0BF@MADFKIJK@GetItemCountFromSelf?$AA@
	DD	FLAT:?exchangeGetItemCountFromSelf@@YAPAU_object@@PAU1@0@Z
	DD	01H
	ORG $+4
	DD	FLAT:??_C@_0BH@GPLGAOFI@GetItemCountFromTarget?$AA@
	DD	FLAT:?exchangeGetItemCountFromTarget@@YAPAU_object@@PAU1@0@Z
	DD	01H
	ORG $+4
	DD	FLAT:??_C@_0BC@EFOHFOPD@GetAcceptFromSelf?$AA@
	DD	FLAT:?exchangeGetAcceptFromSelf@@YAPAU_object@@PAU1@0@Z
	DD	01H
	ORG $+4
	DD	FLAT:??_C@_0BE@IPFHAMEN@GetAcceptFromTarget?$AA@
	DD	FLAT:?exchangeGetAcceptFromTarget@@YAPAU_object@@PAU1@0@Z
	DD	01H
	ORG $+4
	DD	FLAT:??_C@_0BA@JBODFEMD@GetNameFromSelf?$AA@
	DD	FLAT:?exchangeGetNameFromSelf@@YAPAU_object@@PAU1@0@Z
	DD	01H
	ORG $+4
	DD	FLAT:??_C@_0BC@LAMEAHKE@GetNameFromTarget?$AA@
	DD	FLAT:?exchangeGetNameFromTarget@@YAPAU_object@@PAU1@0@Z
	DD	01H
	ORG $+4
	DD	FLAT:??_C@_0BN@FJAFLLEI@GetItemMetinSocketFromTarget?$AA@
	DD	FLAT:?exchangeGetItemMetinSocketFromTarget@@YAPAU_object@@PAU1@0@Z
	DD	01H
	ORG $+4
	DD	FLAT:??_C@_0BL@OPELCAOA@GetItemMetinSocketFromSelf?$AA@
	DD	FLAT:?exchangeGetItemMetinSocketFromSelf@@YAPAU_object@@PAU1@0@Z
	DD	01H
	ORG $+4
	DD	FLAT:??_C@_0BL@CDOBAGEH@GetItemAttributeFromTarget?$AA@
	DD	FLAT:?exchangeGetItemAttributeFromTarget@@YAPAU_object@@PAU1@0@Z
	DD	01H
	ORG $+4
	DD	FLAT:??_C@_0BJ@LGADFCHN@GetItemAttributeFromSelf?$AA@
	DD	FLAT:?exchangeGetItemAttributeFromSelf@@YAPAU_object@@PAU1@0@Z
	DD	01H
	ORG $+4
	DD	FLAT:??_C@_0L@CKKAINKA@GetElkMode?$AA@
	DD	FLAT:?exchangeGetElkMode@@YAPAU_object@@PAU1@0@Z
	DD	01H
	ORG $+4
	DD	FLAT:??_C@_0L@DEIPDKOJ@SetElkMode?$AA@
	DD	FLAT:?exchangeSetElkMode@@YAPAU_object@@PAU1@0@Z
	DD	01H
	ORG $+4
	DD	00H
	DD	00H
	ORG $+8
_DATA	ENDS
;	COMDAT ??_C@_0BG@LKADPLLF@EXCHANGE_ITEM_MAX_NUM?$AA@
CONST	SEGMENT
??_C@_0BG@LKADPLLF@EXCHANGE_ITEM_MAX_NUM?$AA@ DB 'EXCHANGE_ITEM_MAX_NUM', 00H ; `string'
CONST	ENDS
;	COMDAT ??_C@_0L@DEIPDKOJ@SetElkMode?$AA@
CONST	SEGMENT
??_C@_0L@DEIPDKOJ@SetElkMode?$AA@ DB 'SetElkMode', 00H	; `string'
CONST	ENDS
;	COMDAT ??_C@_08EPHOCFK@exchange?$AA@
CONST	SEGMENT
??_C@_08EPHOCFK@exchange?$AA@ DB 'exchange', 00H	; `string'
CONST	ENDS
;	COMDAT ??_C@_0BJ@LGADFCHN@GetItemAttributeFromSelf?$AA@
CONST	SEGMENT
??_C@_0BJ@LGADFCHN@GetItemAttributeFromSelf?$AA@ DB 'GetItemAttributeFrom'
	DB	'Self', 00H					; `string'
CONST	ENDS
;	COMDAT ??_C@_0L@CKKAINKA@GetElkMode?$AA@
CONST	SEGMENT
??_C@_0L@CKKAINKA@GetElkMode?$AA@ DB 'GetElkMode', 00H	; `string'
CONST	ENDS
;	COMDAT ??_C@_0BL@OPELCAOA@GetItemMetinSocketFromSelf?$AA@
CONST	SEGMENT
??_C@_0BL@OPELCAOA@GetItemMetinSocketFromSelf?$AA@ DB 'GetItemMetinSocket'
	DB	'FromSelf', 00H				; `string'
CONST	ENDS
;	COMDAT ??_C@_0BL@CDOBAGEH@GetItemAttributeFromTarget?$AA@
CONST	SEGMENT
??_C@_0BL@CDOBAGEH@GetItemAttributeFromTarget?$AA@ DB 'GetItemAttributeFr'
	DB	'omTarget', 00H				; `string'
CONST	ENDS
;	COMDAT ??_C@_0BC@LAMEAHKE@GetNameFromTarget?$AA@
CONST	SEGMENT
??_C@_0BC@LAMEAHKE@GetNameFromTarget?$AA@ DB 'GetNameFromTarget', 00H ; `string'
CONST	ENDS
;	COMDAT ??_C@_0BN@FJAFLLEI@GetItemMetinSocketFromTarget?$AA@
CONST	SEGMENT
??_C@_0BN@FJAFLLEI@GetItemMetinSocketFromTarget?$AA@ DB 'GetItemMetinSock'
	DB	'etFromTarget', 00H				; `string'
CONST	ENDS
;	COMDAT ??_C@_0BE@IPFHAMEN@GetAcceptFromTarget?$AA@
CONST	SEGMENT
??_C@_0BE@IPFHAMEN@GetAcceptFromTarget?$AA@ DB 'GetAcceptFromTarget', 00H ; `string'
CONST	ENDS
;	COMDAT ??_C@_0BA@JBODFEMD@GetNameFromSelf?$AA@
CONST	SEGMENT
??_C@_0BA@JBODFEMD@GetNameFromSelf?$AA@ DB 'GetNameFromSelf', 00H ; `string'
CONST	ENDS
;	COMDAT ??_C@_0BH@GPLGAOFI@GetItemCountFromTarget?$AA@
CONST	SEGMENT
??_C@_0BH@GPLGAOFI@GetItemCountFromTarget?$AA@ DB 'GetItemCountFromTarget'
	DB	00H						; `string'
CONST	ENDS
;	COMDAT ??_C@_0BC@EFOHFOPD@GetAcceptFromSelf?$AA@
CONST	SEGMENT
??_C@_0BC@EFOHFOPD@GetAcceptFromSelf?$AA@ DB 'GetAcceptFromSelf', 00H ; `string'
CONST	ENDS
;	COMDAT ??_C@_0BG@LLEHKHGL@GetItemVnumFromTarget?$AA@
CONST	SEGMENT
??_C@_0BG@LLEHKHGL@GetItemVnumFromTarget?$AA@ DB 'GetItemVnumFromTarget', 00H ; `string'
CONST	ENDS
;	COMDAT ??_C@_0BF@MADFKIJK@GetItemCountFromSelf?$AA@
CONST	SEGMENT
??_C@_0BF@MADFKIJK@GetItemCountFromSelf?$AA@ DB 'GetItemCountFromSelf', 00H ; `string'
CONST	ENDS
;	COMDAT ??_C@_0BB@LMIEGPPN@GetElkFromTarget?$AA@
CONST	SEGMENT
??_C@_0BB@LMIEGPPN@GetElkFromTarget?$AA@ DB 'GetElkFromTarget', 00H ; `string'
CONST	ENDS
;	COMDAT ??_C@_0BE@IGEBIKPO@GetItemVnumFromSelf?$AA@
CONST	SEGMENT
??_C@_0BE@IGEBIKPO@GetItemVnumFromSelf?$AA@ DB 'GetItemVnumFromSelf', 00H ; `string'
CONST	ENDS
;	COMDAT ??_C@_09NDPDNFKM@isTrading?$AA@
CONST	SEGMENT
??_C@_09NDPDNFKM@isTrading?$AA@ DB 'isTrading', 00H	; `string'
CONST	ENDS
;	COMDAT ??_C@_0P@FLKEMEBG@GetElkFromSelf?$AA@
CONST	SEGMENT
??_C@_0P@FLKEMEBG@GetElkFromSelf?$AA@ DB 'GetElkFromSelf', 00H ; `string'
CONST	ENDS
;	COMDAT ??_C@_0M@IAKFCGCD@InitTrading?$AA@
CONST	SEGMENT
??_C@_0M@IAKFCGCD@InitTrading?$AA@ DB 'InitTrading', 00H ; `string'
PUBLIC	?Instance@?$CSingleton@VCPythonExchange@@@@SAAAVCPythonExchange@@XZ ; CSingleton<CPythonExchange>::Instance
PUBLIC	?initTrade@@YAXXZ				; initTrade
PUBLIC	?exchangeSetElkMode@@YAPAU_object@@PAU1@0@Z	; exchangeSetElkMode
PUBLIC	?exchangeGetElkMode@@YAPAU_object@@PAU1@0@Z	; exchangeGetElkMode
PUBLIC	?exchangeGetItemAttributeFromSelf@@YAPAU_object@@PAU1@0@Z ; exchangeGetItemAttributeFromSelf
PUBLIC	?exchangeGetItemAttributeFromTarget@@YAPAU_object@@PAU1@0@Z ; exchangeGetItemAttributeFromTarget
PUBLIC	?exchangeGetItemMetinSocketFromSelf@@YAPAU_object@@PAU1@0@Z ; exchangeGetItemMetinSocketFromSelf
PUBLIC	?exchangeGetItemMetinSocketFromTarget@@YAPAU_object@@PAU1@0@Z ; exchangeGetItemMetinSocketFromTarget
PUBLIC	?exchangeGetNameFromTarget@@YAPAU_object@@PAU1@0@Z ; exchangeGetNameFromTarget
PUBLIC	?exchangeGetNameFromSelf@@YAPAU_object@@PAU1@0@Z ; exchangeGetNameFromSelf
PUBLIC	?exchangeGetItemCountFromTarget@@YAPAU_object@@PAU1@0@Z ; exchangeGetItemCountFromTarget
PUBLIC	?exchangeGetItemCountFromSelf@@YAPAU_object@@PAU1@0@Z ; exchangeGetItemCountFromSelf
PUBLIC	?exchangeGetItemVnumFromTarget@@YAPAU_object@@PAU1@0@Z ; exchangeGetItemVnumFromTarget
PUBLIC	?exchangeGetItemVnumFromSelf@@YAPAU_object@@PAU1@0@Z ; exchangeGetItemVnumFromSelf
PUBLIC	?exchangeGetAcceptFromTarget@@YAPAU_object@@PAU1@0@Z ; exchangeGetAcceptFromTarget
PUBLIC	?exchangeGetAcceptFromSelf@@YAPAU_object@@PAU1@0@Z ; exchangeGetAcceptFromSelf
PUBLIC	?exchangeGetElkFromTarget@@YAPAU_object@@PAU1@0@Z ; exchangeGetElkFromTarget
PUBLIC	?exchangeGetElkFromSelf@@YAPAU_object@@PAU1@0@Z	; exchangeGetElkFromSelf
PUBLIC	?exchangeisTrading@@YAPAU_object@@PAU1@0@Z	; exchangeisTrading
PUBLIC	?exchangeInitTrading@@YAPAU_object@@PAU1@0@Z	; exchangeInitTrading
; Function compile flags: /Ogtp
; File d:\metin2\metin2\client_source_clean\client_source_clean\source\userinterface\pythonexchangemodule.cpp
;	COMDAT ?exchangeInitTrading@@YAPAU_object@@PAU1@0@Z
_TEXT	SEGMENT
_poSelf$ = 8						; size = 4
_poArgs$ = 12						; size = 4
?exchangeInitTrading@@YAPAU_object@@PAU1@0@Z PROC	; exchangeInitTrading, COMDAT

; 6    : 	CPythonExchange::Instance().End();

  00000	8b 0d 00 00 00
	00		 mov	 ecx, DWORD PTR ?ms_singleton@?$CSingleton@VCPythonExchange@@@@0PAVCPythonExchange@@A ; CSingleton<CPythonExchange>::ms_singleton
  00006	e8 00 00 00 00	 call	 ?End@CPythonExchange@@QAEXXZ ; CPythonExchange::End

; 7    : 	return Py_BuildNone();

  0000b	e9 00 00 00 00	 jmp	 ?Py_BuildNone@@YAPAU_object@@XZ ; Py_BuildNone
?exchangeInitTrading@@YAPAU_object@@PAU1@0@Z ENDP	; exchangeInitTrading
_TEXT	ENDS
; Function compile flags: /Ogtp
; File d:\metin2\metin2\client_source_clean\client_source_clean\source\userinterface\pythonexchangemodule.cpp
;	COMDAT ?exchangeisTrading@@YAPAU_object@@PAU1@0@Z
_TEXT	SEGMENT
_poSelf$ = 8						; size = 4
_poArgs$ = 12						; size = 4
?exchangeisTrading@@YAPAU_object@@PAU1@0@Z PROC		; exchangeisTrading, COMDAT

; 12   : 	return Py_BuildValue("i", CPythonExchange::Instance().isTrading());

  00000	8b 0d 00 00 00
	00		 mov	 ecx, DWORD PTR ?ms_singleton@?$CSingleton@VCPythonExchange@@@@0PAVCPythonExchange@@A ; CSingleton<CPythonExchange>::ms_singleton
  00006	e8 00 00 00 00	 call	 ?isTrading@CPythonExchange@@QAE_NXZ ; CPythonExchange::isTrading
  0000b	0f b6 c0	 movzx	 eax, al
  0000e	50		 push	 eax
  0000f	68 00 00 00 00	 push	 OFFSET ??_C@_01KBJDNOO@i?$AA@
  00014	ff 15 00 00 00
	00		 call	 DWORD PTR __imp__Py_BuildValue
  0001a	83 c4 08	 add	 esp, 8

; 13   : }

  0001d	c3		 ret	 0
?exchangeisTrading@@YAPAU_object@@PAU1@0@Z ENDP		; exchangeisTrading
_TEXT	ENDS
; Function compile flags: /Ogtp
; File d:\metin2\metin2\client_source_clean\client_source_clean\source\userinterface\pythonexchangemodule.cpp
;	COMDAT ?exchangeGetElkFromSelf@@YAPAU_object@@PAU1@0@Z
_TEXT	SEGMENT
_poSelf$ = 8						; size = 4
_poArgs$ = 12						; size = 4
?exchangeGetElkFromSelf@@YAPAU_object@@PAU1@0@Z PROC	; exchangeGetElkFromSelf, COMDAT

; 17   : 	return Py_BuildValue("i", CPythonExchange::Instance().GetElkFromSelf());

  00000	8b 0d 00 00 00
	00		 mov	 ecx, DWORD PTR ?ms_singleton@?$CSingleton@VCPythonExchange@@@@0PAVCPythonExchange@@A ; CSingleton<CPythonExchange>::ms_singleton
  00006	e8 00 00 00 00	 call	 ?GetElkFromSelf@CPythonExchange@@QAEKXZ ; CPythonExchange::GetElkFromSelf
  0000b	50		 push	 eax
  0000c	68 00 00 00 00	 push	 OFFSET ??_C@_01KBJDNOO@i?$AA@
  00011	ff 15 00 00 00
	00		 call	 DWORD PTR __imp__Py_BuildValue
  00017	83 c4 08	 add	 esp, 8

; 18   : }

  0001a	c3		 ret	 0
?exchangeGetElkFromSelf@@YAPAU_object@@PAU1@0@Z ENDP	; exchangeGetElkFromSelf
_TEXT	ENDS
; Function compile flags: /Ogtp
; File d:\metin2\metin2\client_source_clean\client_source_clean\source\userinterface\pythonexchangemodule.cpp
;	COMDAT ?exchangeGetElkFromTarget@@YAPAU_object@@PAU1@0@Z
_TEXT	SEGMENT
_poSelf$ = 8						; size = 4
_poArgs$ = 12						; size = 4
?exchangeGetElkFromTarget@@YAPAU_object@@PAU1@0@Z PROC	; exchangeGetElkFromTarget, COMDAT

; 22   : 	return Py_BuildValue("i", CPythonExchange::Instance().GetElkFromTarget());

  00000	8b 0d 00 00 00
	00		 mov	 ecx, DWORD PTR ?ms_singleton@?$CSingleton@VCPythonExchange@@@@0PAVCPythonExchange@@A ; CSingleton<CPythonExchange>::ms_singleton
  00006	e8 00 00 00 00	 call	 ?GetElkFromTarget@CPythonExchange@@QAEKXZ ; CPythonExchange::GetElkFromTarget
  0000b	50		 push	 eax
  0000c	68 00 00 00 00	 push	 OFFSET ??_C@_01KBJDNOO@i?$AA@
  00011	ff 15 00 00 00
	00		 call	 DWORD PTR __imp__Py_BuildValue
  00017	83 c4 08	 add	 esp, 8

; 23   : }

  0001a	c3		 ret	 0
?exchangeGetElkFromTarget@@YAPAU_object@@PAU1@0@Z ENDP	; exchangeGetElkFromTarget
_TEXT	ENDS
; Function compile flags: /Ogtp
; File d:\metin2\metin2\client_source_clean\client_source_clean\source\userinterface\pythonexchangemodule.cpp
;	COMDAT ?exchangeGetAcceptFromSelf@@YAPAU_object@@PAU1@0@Z
_TEXT	SEGMENT
_poSelf$ = 8						; size = 4
_poArgs$ = 12						; size = 4
?exchangeGetAcceptFromSelf@@YAPAU_object@@PAU1@0@Z PROC	; exchangeGetAcceptFromSelf, COMDAT

; 27   : 	return Py_BuildValue("i", CPythonExchange::Instance().GetAcceptFromSelf());

  00000	8b 0d 00 00 00
	00		 mov	 ecx, DWORD PTR ?ms_singleton@?$CSingleton@VCPythonExchange@@@@0PAVCPythonExchange@@A ; CSingleton<CPythonExchange>::ms_singleton
  00006	e8 00 00 00 00	 call	 ?GetAcceptFromSelf@CPythonExchange@@QAE_NXZ ; CPythonExchange::GetAcceptFromSelf
  0000b	0f b6 c0	 movzx	 eax, al
  0000e	50		 push	 eax
  0000f	68 00 00 00 00	 push	 OFFSET ??_C@_01KBJDNOO@i?$AA@
  00014	ff 15 00 00 00
	00		 call	 DWORD PTR __imp__Py_BuildValue
  0001a	83 c4 08	 add	 esp, 8

; 28   : }

  0001d	c3		 ret	 0
?exchangeGetAcceptFromSelf@@YAPAU_object@@PAU1@0@Z ENDP	; exchangeGetAcceptFromSelf
_TEXT	ENDS
; Function compile flags: /Ogtp
; File d:\metin2\metin2\client_source_clean\client_source_clean\source\userinterface\pythonexchangemodule.cpp
;	COMDAT ?exchangeGetAcceptFromTarget@@YAPAU_object@@PAU1@0@Z
_TEXT	SEGMENT
_poSelf$ = 8						; size = 4
_poArgs$ = 12						; size = 4
?exchangeGetAcceptFromTarget@@YAPAU_object@@PAU1@0@Z PROC ; exchangeGetAcceptFromTarget, COMDAT

; 32   : 	return Py_BuildValue("i", CPythonExchange::Instance().GetAcceptFromTarget());

  00000	8b 0d 00 00 00
	00		 mov	 ecx, DWORD PTR ?ms_singleton@?$CSingleton@VCPythonExchange@@@@0PAVCPythonExchange@@A ; CSingleton<CPythonExchange>::ms_singleton
  00006	e8 00 00 00 00	 call	 ?GetAcceptFromTarget@CPythonExchange@@QAE_NXZ ; CPythonExchange::GetAcceptFromTarget
  0000b	0f b6 c0	 movzx	 eax, al
  0000e	50		 push	 eax
  0000f	68 00 00 00 00	 push	 OFFSET ??_C@_01KBJDNOO@i?$AA@
  00014	ff 15 00 00 00
	00		 call	 DWORD PTR __imp__Py_BuildValue
  0001a	83 c4 08	 add	 esp, 8

; 33   : }

  0001d	c3		 ret	 0
?exchangeGetAcceptFromTarget@@YAPAU_object@@PAU1@0@Z ENDP ; exchangeGetAcceptFromTarget
_TEXT	ENDS
; Function compile flags: /Ogtp
; File d:\metin2\metin2\client_source_clean\client_source_clean\source\userinterface\pythonexchangemodule.cpp
;	COMDAT ?exchangeGetItemVnumFromSelf@@YAPAU_object@@PAU1@0@Z
_TEXT	SEGMENT
_pos$ = -4						; size = 4
_poSelf$ = 8						; size = 4
_poArgs$ = 12						; size = 4
?exchangeGetItemVnumFromSelf@@YAPAU_object@@PAU1@0@Z PROC ; exchangeGetItemVnumFromSelf, COMDAT

; 36   : {

  00000	55		 push	 ebp
  00001	8b ec		 mov	 ebp, esp
  00003	51		 push	 ecx

; 37   : 	int pos;
; 38   : 
; 39   : 	if (!PyTuple_GetInteger(poArgs, 0, &pos))

  00004	8d 45 fc	 lea	 eax, DWORD PTR _pos$[ebp]
  00007	50		 push	 eax
  00008	6a 00		 push	 0
  0000a	ff 75 0c	 push	 DWORD PTR _poArgs$[ebp]
  0000d	e8 00 00 00 00	 call	 ?PyTuple_GetInteger@@YA_NPAU_object@@HPAH@Z ; PyTuple_GetInteger
  00012	83 c4 0c	 add	 esp, 12			; 0000000cH
  00015	84 c0		 test	 al, al
  00017	75 0e		 jne	 SHORT $LN1@exchangeGe

; 40   : 		return Py_BuildException();

  00019	6a 00		 push	 0
  0001b	e8 00 00 00 00	 call	 ?Py_BuildException@@YAPAU_object@@PBDZZ ; Py_BuildException
  00020	83 c4 04	 add	 esp, 4

; 43   : }

  00023	8b e5		 mov	 esp, ebp
  00025	5d		 pop	 ebp
  00026	c3		 ret	 0
$LN1@exchangeGe:

; 41   : 
; 42   : 	return Py_BuildValue("i", CPythonExchange::Instance().GetItemVnumFromSelf((char) pos));

  00027	ff 75 fc	 push	 DWORD PTR _pos$[ebp]
  0002a	8b 0d 00 00 00
	00		 mov	 ecx, DWORD PTR ?ms_singleton@?$CSingleton@VCPythonExchange@@@@0PAVCPythonExchange@@A ; CSingleton<CPythonExchange>::ms_singleton
  00030	e8 00 00 00 00	 call	 ?GetItemVnumFromSelf@CPythonExchange@@QAEKE@Z ; CPythonExchange::GetItemVnumFromSelf
  00035	50		 push	 eax
  00036	68 00 00 00 00	 push	 OFFSET ??_C@_01KBJDNOO@i?$AA@
  0003b	ff 15 00 00 00
	00		 call	 DWORD PTR __imp__Py_BuildValue
  00041	83 c4 08	 add	 esp, 8

; 43   : }

  00044	8b e5		 mov	 esp, ebp
  00046	5d		 pop	 ebp
  00047	c3		 ret	 0
?exchangeGetItemVnumFromSelf@@YAPAU_object@@PAU1@0@Z ENDP ; exchangeGetItemVnumFromSelf
_TEXT	ENDS
; Function compile flags: /Ogtp
; File d:\metin2\metin2\client_source_clean\client_source_clean\source\userinterface\pythonexchangemodule.cpp
;	COMDAT ?exchangeGetItemVnumFromTarget@@YAPAU_object@@PAU1@0@Z
_TEXT	SEGMENT
_pos$ = -4						; size = 4
_poTarget$ = 8						; size = 4
_poArgs$ = 12						; size = 4
?exchangeGetItemVnumFromTarget@@YAPAU_object@@PAU1@0@Z PROC ; exchangeGetItemVnumFromTarget, COMDAT

; 46   : {

  00000	55		 push	 ebp
  00001	8b ec		 mov	 ebp, esp
  00003	51		 push	 ecx

; 47   : 	int pos;
; 48   : 
; 49   : 	if (!PyTuple_GetInteger(poArgs, 0, &pos))

  00004	8d 45 fc	 lea	 eax, DWORD PTR _pos$[ebp]
  00007	50		 push	 eax
  00008	6a 00		 push	 0
  0000a	ff 75 0c	 push	 DWORD PTR _poArgs$[ebp]
  0000d	e8 00 00 00 00	 call	 ?PyTuple_GetInteger@@YA_NPAU_object@@HPAH@Z ; PyTuple_GetInteger
  00012	83 c4 0c	 add	 esp, 12			; 0000000cH
  00015	84 c0		 test	 al, al
  00017	75 0e		 jne	 SHORT $LN1@exchangeGe

; 50   : 		return Py_BuildException();

  00019	6a 00		 push	 0
  0001b	e8 00 00 00 00	 call	 ?Py_BuildException@@YAPAU_object@@PBDZZ ; Py_BuildException
  00020	83 c4 04	 add	 esp, 4

; 53   : }

  00023	8b e5		 mov	 esp, ebp
  00025	5d		 pop	 ebp
  00026	c3		 ret	 0
$LN1@exchangeGe:

; 51   : 
; 52   : 	return Py_BuildValue("i", CPythonExchange::Instance().GetItemVnumFromTarget((char) pos));

  00027	ff 75 fc	 push	 DWORD PTR _pos$[ebp]
  0002a	8b 0d 00 00 00
	00		 mov	 ecx, DWORD PTR ?ms_singleton@?$CSingleton@VCPythonExchange@@@@0PAVCPythonExchange@@A ; CSingleton<CPythonExchange>::ms_singleton
  00030	e8 00 00 00 00	 call	 ?GetItemVnumFromTarget@CPythonExchange@@QAEKE@Z ; CPythonExchange::GetItemVnumFromTarget
  00035	50		 push	 eax
  00036	68 00 00 00 00	 push	 OFFSET ??_C@_01KBJDNOO@i?$AA@
  0003b	ff 15 00 00 00
	00		 call	 DWORD PTR __imp__Py_BuildValue
  00041	83 c4 08	 add	 esp, 8

; 53   : }

  00044	8b e5		 mov	 esp, ebp
  00046	5d		 pop	 ebp
  00047	c3		 ret	 0
?exchangeGetItemVnumFromTarget@@YAPAU_object@@PAU1@0@Z ENDP ; exchangeGetItemVnumFromTarget
_TEXT	ENDS
; Function compile flags: /Ogtp
; File d:\metin2\metin2\client_source_clean\client_source_clean\source\userinterface\pythonexchangemodule.cpp
;	COMDAT ?exchangeGetItemCountFromSelf@@YAPAU_object@@PAU1@0@Z
_TEXT	SEGMENT
_pos$ = -4						; size = 4
_poSelf$ = 8						; size = 4
_poArgs$ = 12						; size = 4
?exchangeGetItemCountFromSelf@@YAPAU_object@@PAU1@0@Z PROC ; exchangeGetItemCountFromSelf, COMDAT

; 56   : {

  00000	55		 push	 ebp
  00001	8b ec		 mov	 ebp, esp
  00003	51		 push	 ecx

; 57   : 	int pos;
; 58   : 
; 59   : 	if (!PyTuple_GetInteger(poArgs, 0, &pos))

  00004	8d 45 fc	 lea	 eax, DWORD PTR _pos$[ebp]
  00007	50		 push	 eax
  00008	6a 00		 push	 0
  0000a	ff 75 0c	 push	 DWORD PTR _poArgs$[ebp]
  0000d	e8 00 00 00 00	 call	 ?PyTuple_GetInteger@@YA_NPAU_object@@HPAH@Z ; PyTuple_GetInteger
  00012	83 c4 0c	 add	 esp, 12			; 0000000cH
  00015	84 c0		 test	 al, al
  00017	75 0e		 jne	 SHORT $LN1@exchangeGe

; 60   : 		return Py_BuildException();

  00019	6a 00		 push	 0
  0001b	e8 00 00 00 00	 call	 ?Py_BuildException@@YAPAU_object@@PBDZZ ; Py_BuildException
  00020	83 c4 04	 add	 esp, 4

; 63   : }

  00023	8b e5		 mov	 esp, ebp
  00025	5d		 pop	 ebp
  00026	c3		 ret	 0
$LN1@exchangeGe:

; 61   : 
; 62   : 	return Py_BuildValue("i", CPythonExchange::Instance().GetItemCountFromSelf((char) pos));

  00027	ff 75 fc	 push	 DWORD PTR _pos$[ebp]
  0002a	8b 0d 00 00 00
	00		 mov	 ecx, DWORD PTR ?ms_singleton@?$CSingleton@VCPythonExchange@@@@0PAVCPythonExchange@@A ; CSingleton<CPythonExchange>::ms_singleton
  00030	e8 00 00 00 00	 call	 ?GetItemCountFromSelf@CPythonExchange@@QAEEE@Z ; CPythonExchange::GetItemCountFromSelf
  00035	0f b6 c0	 movzx	 eax, al
  00038	50		 push	 eax
  00039	68 00 00 00 00	 push	 OFFSET ??_C@_01KBJDNOO@i?$AA@
  0003e	ff 15 00 00 00
	00		 call	 DWORD PTR __imp__Py_BuildValue
  00044	83 c4 08	 add	 esp, 8

; 63   : }

  00047	8b e5		 mov	 esp, ebp
  00049	5d		 pop	 ebp
  0004a	c3		 ret	 0
?exchangeGetItemCountFromSelf@@YAPAU_object@@PAU1@0@Z ENDP ; exchangeGetItemCountFromSelf
_TEXT	ENDS
; Function compile flags: /Ogtp
; File d:\metin2\metin2\client_source_clean\client_source_clean\source\userinterface\pythonexchangemodule.cpp
;	COMDAT ?exchangeGetItemCountFromTarget@@YAPAU_object@@PAU1@0@Z
_TEXT	SEGMENT
_pos$ = -4						; size = 4
_poTarget$ = 8						; size = 4
_poArgs$ = 12						; size = 4
?exchangeGetItemCountFromTarget@@YAPAU_object@@PAU1@0@Z PROC ; exchangeGetItemCountFromTarget, COMDAT

; 66   : {

  00000	55		 push	 ebp
  00001	8b ec		 mov	 ebp, esp
  00003	51		 push	 ecx

; 67   : 	int pos;
; 68   : 
; 69   : 	if (!PyTuple_GetInteger(poArgs, 0, &pos))

  00004	8d 45 fc	 lea	 eax, DWORD PTR _pos$[ebp]
  00007	50		 push	 eax
  00008	6a 00		 push	 0
  0000a	ff 75 0c	 push	 DWORD PTR _poArgs$[ebp]
  0000d	e8 00 00 00 00	 call	 ?PyTuple_GetInteger@@YA_NPAU_object@@HPAH@Z ; PyTuple_GetInteger
  00012	83 c4 0c	 add	 esp, 12			; 0000000cH
  00015	84 c0		 test	 al, al
  00017	75 0e		 jne	 SHORT $LN1@exchangeGe

; 70   : 		return Py_BuildException();

  00019	6a 00		 push	 0
  0001b	e8 00 00 00 00	 call	 ?Py_BuildException@@YAPAU_object@@PBDZZ ; Py_BuildException
  00020	83 c4 04	 add	 esp, 4

; 73   : }

  00023	8b e5		 mov	 esp, ebp
  00025	5d		 pop	 ebp
  00026	c3		 ret	 0
$LN1@exchangeGe:

; 71   : 
; 72   : 	return Py_BuildValue("i", CPythonExchange::Instance().GetItemCountFromTarget((char) pos));

  00027	ff 75 fc	 push	 DWORD PTR _pos$[ebp]
  0002a	8b 0d 00 00 00
	00		 mov	 ecx, DWORD PTR ?ms_singleton@?$CSingleton@VCPythonExchange@@@@0PAVCPythonExchange@@A ; CSingleton<CPythonExchange>::ms_singleton
  00030	e8 00 00 00 00	 call	 ?GetItemCountFromTarget@CPythonExchange@@QAEEE@Z ; CPythonExchange::GetItemCountFromTarget
  00035	0f b6 c0	 movzx	 eax, al
  00038	50		 push	 eax
  00039	68 00 00 00 00	 push	 OFFSET ??_C@_01KBJDNOO@i?$AA@
  0003e	ff 15 00 00 00
	00		 call	 DWORD PTR __imp__Py_BuildValue
  00044	83 c4 08	 add	 esp, 8

; 73   : }

  00047	8b e5		 mov	 esp, ebp
  00049	5d		 pop	 ebp
  0004a	c3		 ret	 0
?exchangeGetItemCountFromTarget@@YAPAU_object@@PAU1@0@Z ENDP ; exchangeGetItemCountFromTarget
_TEXT	ENDS
; Function compile flags: /Ogtp
; File d:\metin2\metin2\client_source_clean\client_source_clean\source\userinterface\pythonexchangemodule.cpp
;	COMDAT ?exchangeGetNameFromSelf@@YAPAU_object@@PAU1@0@Z
_TEXT	SEGMENT
_poTarget$ = 8						; size = 4
_poArgs$ = 12						; size = 4
?exchangeGetNameFromSelf@@YAPAU_object@@PAU1@0@Z PROC	; exchangeGetNameFromSelf, COMDAT

; 77   : 	return Py_BuildValue("s", CPythonExchange::Instance().GetNameFromSelf());

  00000	8b 0d 00 00 00
	00		 mov	 ecx, DWORD PTR ?ms_singleton@?$CSingleton@VCPythonExchange@@@@0PAVCPythonExchange@@A ; CSingleton<CPythonExchange>::ms_singleton
  00006	e8 00 00 00 00	 call	 ?GetNameFromSelf@CPythonExchange@@QAEPADXZ ; CPythonExchange::GetNameFromSelf
  0000b	50		 push	 eax
  0000c	68 00 00 00 00	 push	 OFFSET ??_C@_01LKDEMHDF@s?$AA@
  00011	ff 15 00 00 00
	00		 call	 DWORD PTR __imp__Py_BuildValue
  00017	83 c4 08	 add	 esp, 8

; 78   : }

  0001a	c3		 ret	 0
?exchangeGetNameFromSelf@@YAPAU_object@@PAU1@0@Z ENDP	; exchangeGetNameFromSelf
_TEXT	ENDS
; Function compile flags: /Ogtp
; File d:\metin2\metin2\client_source_clean\client_source_clean\source\userinterface\pythonexchangemodule.cpp
;	COMDAT ?exchangeGetNameFromTarget@@YAPAU_object@@PAU1@0@Z
_TEXT	SEGMENT
_poTarget$ = 8						; size = 4
_poArgs$ = 12						; size = 4
?exchangeGetNameFromTarget@@YAPAU_object@@PAU1@0@Z PROC	; exchangeGetNameFromTarget, COMDAT

; 82   : 	return Py_BuildValue("s", CPythonExchange::Instance().GetNameFromTarget());

  00000	8b 0d 00 00 00
	00		 mov	 ecx, DWORD PTR ?ms_singleton@?$CSingleton@VCPythonExchange@@@@0PAVCPythonExchange@@A ; CSingleton<CPythonExchange>::ms_singleton
  00006	e8 00 00 00 00	 call	 ?GetNameFromTarget@CPythonExchange@@QAEPADXZ ; CPythonExchange::GetNameFromTarget
  0000b	50		 push	 eax
  0000c	68 00 00 00 00	 push	 OFFSET ??_C@_01LKDEMHDF@s?$AA@
  00011	ff 15 00 00 00
	00		 call	 DWORD PTR __imp__Py_BuildValue
  00017	83 c4 08	 add	 esp, 8

; 83   : }

  0001a	c3		 ret	 0
?exchangeGetNameFromTarget@@YAPAU_object@@PAU1@0@Z ENDP	; exchangeGetNameFromTarget
_TEXT	ENDS
; Function compile flags: /Ogtp
; File d:\metin2\metin2\client_source_clean\client_source_clean\source\userinterface\pythonexchangemodule.cpp
;	COMDAT ?exchangeGetItemMetinSocketFromTarget@@YAPAU_object@@PAU1@0@Z
_TEXT	SEGMENT
_pos$ = -8						; size = 4
_iMetinSocketPos$ = -4					; size = 4
_poTarget$ = 8						; size = 4
_poArgs$ = 12						; size = 4
?exchangeGetItemMetinSocketFromTarget@@YAPAU_object@@PAU1@0@Z PROC ; exchangeGetItemMetinSocketFromTarget, COMDAT

; 86   : {

  00000	55		 push	 ebp
  00001	8b ec		 mov	 ebp, esp
  00003	83 ec 08	 sub	 esp, 8

; 87   : 	int pos;
; 88   : 	if (!PyTuple_GetInteger(poArgs, 0, &pos))

  00006	8d 45 f8	 lea	 eax, DWORD PTR _pos$[ebp]
  00009	50		 push	 eax
  0000a	6a 00		 push	 0
  0000c	ff 75 0c	 push	 DWORD PTR _poArgs$[ebp]
  0000f	e8 00 00 00 00	 call	 ?PyTuple_GetInteger@@YA_NPAU_object@@HPAH@Z ; PyTuple_GetInteger
  00014	83 c4 0c	 add	 esp, 12			; 0000000cH
  00017	84 c0		 test	 al, al
  00019	75 0e		 jne	 SHORT $LN2@exchangeGe
$LN7@exchangeGe:

; 89   : 		return Py_BuildException();

  0001b	6a 00		 push	 0
  0001d	e8 00 00 00 00	 call	 ?Py_BuildException@@YAPAU_object@@PBDZZ ; Py_BuildException
  00022	83 c4 04	 add	 esp, 4

; 94   : }

  00025	8b e5		 mov	 esp, ebp
  00027	5d		 pop	 ebp
  00028	c3		 ret	 0
$LN2@exchangeGe:

; 90   : 	int iMetinSocketPos;
; 91   : 	if (!PyTuple_GetInteger(poArgs, 1, &iMetinSocketPos))

  00029	8d 45 fc	 lea	 eax, DWORD PTR _iMetinSocketPos$[ebp]
  0002c	50		 push	 eax
  0002d	6a 01		 push	 1
  0002f	ff 75 0c	 push	 DWORD PTR _poArgs$[ebp]
  00032	e8 00 00 00 00	 call	 ?PyTuple_GetInteger@@YA_NPAU_object@@HPAH@Z ; PyTuple_GetInteger
  00037	83 c4 0c	 add	 esp, 12			; 0000000cH
  0003a	84 c0		 test	 al, al
  0003c	74 dd		 je	 SHORT $LN7@exchangeGe

; 92   : 		return Py_BuildException();
; 93   : 	return Py_BuildValue("i", CPythonExchange::Instance().GetItemMetinSocketFromTarget(pos, iMetinSocketPos));

  0003e	ff 75 fc	 push	 DWORD PTR _iMetinSocketPos$[ebp]
  00041	8b 0d 00 00 00
	00		 mov	 ecx, DWORD PTR ?ms_singleton@?$CSingleton@VCPythonExchange@@@@0PAVCPythonExchange@@A ; CSingleton<CPythonExchange>::ms_singleton
  00047	ff 75 f8	 push	 DWORD PTR _pos$[ebp]
  0004a	e8 00 00 00 00	 call	 ?GetItemMetinSocketFromTarget@CPythonExchange@@QAEKEH@Z ; CPythonExchange::GetItemMetinSocketFromTarget
  0004f	50		 push	 eax
  00050	68 00 00 00 00	 push	 OFFSET ??_C@_01KBJDNOO@i?$AA@
  00055	ff 15 00 00 00
	00		 call	 DWORD PTR __imp__Py_BuildValue
  0005b	83 c4 08	 add	 esp, 8

; 94   : }

  0005e	8b e5		 mov	 esp, ebp
  00060	5d		 pop	 ebp
  00061	c3		 ret	 0
?exchangeGetItemMetinSocketFromTarget@@YAPAU_object@@PAU1@0@Z ENDP ; exchangeGetItemMetinSocketFromTarget
_TEXT	ENDS
; Function compile flags: /Ogtp
; File d:\metin2\metin2\client_source_clean\client_source_clean\source\userinterface\pythonexchangemodule.cpp
;	COMDAT ?exchangeGetItemMetinSocketFromSelf@@YAPAU_object@@PAU1@0@Z
_TEXT	SEGMENT
_pos$ = -8						; size = 4
_iMetinSocketPos$ = -4					; size = 4
_poTarget$ = 8						; size = 4
_poArgs$ = 12						; size = 4
?exchangeGetItemMetinSocketFromSelf@@YAPAU_object@@PAU1@0@Z PROC ; exchangeGetItemMetinSocketFromSelf, COMDAT

; 97   : {

  00000	55		 push	 ebp
  00001	8b ec		 mov	 ebp, esp
  00003	83 ec 08	 sub	 esp, 8

; 98   : 	int pos;
; 99   : 	if (!PyTuple_GetInteger(poArgs, 0, &pos))

  00006	8d 45 f8	 lea	 eax, DWORD PTR _pos$[ebp]
  00009	50		 push	 eax
  0000a	6a 00		 push	 0
  0000c	ff 75 0c	 push	 DWORD PTR _poArgs$[ebp]
  0000f	e8 00 00 00 00	 call	 ?PyTuple_GetInteger@@YA_NPAU_object@@HPAH@Z ; PyTuple_GetInteger
  00014	83 c4 0c	 add	 esp, 12			; 0000000cH
  00017	84 c0		 test	 al, al
  00019	75 0e		 jne	 SHORT $LN2@exchangeGe
$LN7@exchangeGe:

; 100  : 		return Py_BuildException();

  0001b	6a 00		 push	 0
  0001d	e8 00 00 00 00	 call	 ?Py_BuildException@@YAPAU_object@@PBDZZ ; Py_BuildException
  00022	83 c4 04	 add	 esp, 4

; 105  : }

  00025	8b e5		 mov	 esp, ebp
  00027	5d		 pop	 ebp
  00028	c3		 ret	 0
$LN2@exchangeGe:

; 101  : 	int iMetinSocketPos;
; 102  : 	if (!PyTuple_GetInteger(poArgs, 1, &iMetinSocketPos))

  00029	8d 45 fc	 lea	 eax, DWORD PTR _iMetinSocketPos$[ebp]
  0002c	50		 push	 eax
  0002d	6a 01		 push	 1
  0002f	ff 75 0c	 push	 DWORD PTR _poArgs$[ebp]
  00032	e8 00 00 00 00	 call	 ?PyTuple_GetInteger@@YA_NPAU_object@@HPAH@Z ; PyTuple_GetInteger
  00037	83 c4 0c	 add	 esp, 12			; 0000000cH
  0003a	84 c0		 test	 al, al
  0003c	74 dd		 je	 SHORT $LN7@exchangeGe

; 103  : 		return Py_BuildException();
; 104  : 	return Py_BuildValue("i", CPythonExchange::Instance().GetItemMetinSocketFromSelf(pos, iMetinSocketPos));

  0003e	ff 75 fc	 push	 DWORD PTR _iMetinSocketPos$[ebp]
  00041	8b 0d 00 00 00
	00		 mov	 ecx, DWORD PTR ?ms_singleton@?$CSingleton@VCPythonExchange@@@@0PAVCPythonExchange@@A ; CSingleton<CPythonExchange>::ms_singleton
  00047	ff 75 f8	 push	 DWORD PTR _pos$[ebp]
  0004a	e8 00 00 00 00	 call	 ?GetItemMetinSocketFromSelf@CPythonExchange@@QAEKEH@Z ; CPythonExchange::GetItemMetinSocketFromSelf
  0004f	50		 push	 eax
  00050	68 00 00 00 00	 push	 OFFSET ??_C@_01KBJDNOO@i?$AA@
  00055	ff 15 00 00 00
	00		 call	 DWORD PTR __imp__Py_BuildValue
  0005b	83 c4 08	 add	 esp, 8

; 105  : }

  0005e	8b e5		 mov	 esp, ebp
  00060	5d		 pop	 ebp
  00061	c3		 ret	 0
?exchangeGetItemMetinSocketFromSelf@@YAPAU_object@@PAU1@0@Z ENDP ; exchangeGetItemMetinSocketFromSelf
_TEXT	ENDS
; Function compile flags: /Ogtp
; File d:\metin2\metin2\client_source_clean\client_source_clean\source\userinterface\pythonexchangemodule.cpp
;	COMDAT ?exchangeGetItemAttributeFromTarget@@YAPAU_object@@PAU1@0@Z
_TEXT	SEGMENT
_pos$ = -16						; size = 4
_iAttrSlotPos$ = -12					; size = 4
_sValue$ = -8						; size = 2
_byType$ = -1						; size = 1
_poTarget$ = 8						; size = 4
_poArgs$ = 12						; size = 4
?exchangeGetItemAttributeFromTarget@@YAPAU_object@@PAU1@0@Z PROC ; exchangeGetItemAttributeFromTarget, COMDAT

; 108  : {

  00000	55		 push	 ebp
  00001	8b ec		 mov	 ebp, esp
  00003	83 ec 10	 sub	 esp, 16			; 00000010H

; 109  : 	int pos;
; 110  : 	if (!PyTuple_GetInteger(poArgs, 0, &pos))

  00006	8d 45 f0	 lea	 eax, DWORD PTR _pos$[ebp]
  00009	50		 push	 eax
  0000a	6a 00		 push	 0
  0000c	ff 75 0c	 push	 DWORD PTR _poArgs$[ebp]
  0000f	e8 00 00 00 00	 call	 ?PyTuple_GetInteger@@YA_NPAU_object@@HPAH@Z ; PyTuple_GetInteger
  00014	83 c4 0c	 add	 esp, 12			; 0000000cH
  00017	84 c0		 test	 al, al
  00019	75 0e		 jne	 SHORT $LN2@exchangeGe
$LN7@exchangeGe:

; 111  : 		return Py_BuildException();

  0001b	6a 00		 push	 0
  0001d	e8 00 00 00 00	 call	 ?Py_BuildException@@YAPAU_object@@PBDZZ ; Py_BuildException
  00022	83 c4 04	 add	 esp, 4

; 121  : }

  00025	8b e5		 mov	 esp, ebp
  00027	5d		 pop	 ebp
  00028	c3		 ret	 0
$LN2@exchangeGe:

; 112  : 	int iAttrSlotPos;
; 113  : 	if (!PyTuple_GetInteger(poArgs, 1, &iAttrSlotPos))

  00029	8d 45 f4	 lea	 eax, DWORD PTR _iAttrSlotPos$[ebp]
  0002c	50		 push	 eax
  0002d	6a 01		 push	 1
  0002f	ff 75 0c	 push	 DWORD PTR _poArgs$[ebp]
  00032	e8 00 00 00 00	 call	 ?PyTuple_GetInteger@@YA_NPAU_object@@HPAH@Z ; PyTuple_GetInteger
  00037	83 c4 0c	 add	 esp, 12			; 0000000cH
  0003a	84 c0		 test	 al, al
  0003c	74 dd		 je	 SHORT $LN7@exchangeGe

; 114  : 		return Py_BuildException();
; 115  : 
; 116  : 	BYTE byType;
; 117  : 	short sValue;
; 118  : 	CPythonExchange::Instance().GetItemAttributeFromTarget(pos, iAttrSlotPos, &byType, &sValue);

  0003e	8b 0d 00 00 00
	00		 mov	 ecx, DWORD PTR ?ms_singleton@?$CSingleton@VCPythonExchange@@@@0PAVCPythonExchange@@A ; CSingleton<CPythonExchange>::ms_singleton
  00044	8d 45 f8	 lea	 eax, DWORD PTR _sValue$[ebp]
  00047	50		 push	 eax
  00048	8d 45 ff	 lea	 eax, DWORD PTR _byType$[ebp]
  0004b	50		 push	 eax
  0004c	ff 75 f4	 push	 DWORD PTR _iAttrSlotPos$[ebp]
  0004f	ff 75 f0	 push	 DWORD PTR _pos$[ebp]
  00052	e8 00 00 00 00	 call	 ?GetItemAttributeFromTarget@CPythonExchange@@QAEXEHPAEPAF@Z ; CPythonExchange::GetItemAttributeFromTarget

; 119  : 
; 120  : 	return Py_BuildValue("ii", byType, sValue);

  00057	0f bf 45 f8	 movsx	 eax, WORD PTR _sValue$[ebp]
  0005b	50		 push	 eax
  0005c	0f b6 45 ff	 movzx	 eax, BYTE PTR _byType$[ebp]
  00060	50		 push	 eax
  00061	68 00 00 00 00	 push	 OFFSET ??_C@_02PDIHAGKM@ii?$AA@
  00066	ff 15 00 00 00
	00		 call	 DWORD PTR __imp__Py_BuildValue
  0006c	83 c4 0c	 add	 esp, 12			; 0000000cH

; 121  : }

  0006f	8b e5		 mov	 esp, ebp
  00071	5d		 pop	 ebp
  00072	c3		 ret	 0
?exchangeGetItemAttributeFromTarget@@YAPAU_object@@PAU1@0@Z ENDP ; exchangeGetItemAttributeFromTarget
_TEXT	ENDS
; Function compile flags: /Ogtp
; File d:\metin2\metin2\client_source_clean\client_source_clean\source\userinterface\pythonexchangemodule.cpp
;	COMDAT ?exchangeGetItemAttributeFromSelf@@YAPAU_object@@PAU1@0@Z
_TEXT	SEGMENT
_pos$ = -16						; size = 4
_iAttrSlotPos$ = -12					; size = 4
_sValue$ = -8						; size = 2
_byType$ = -1						; size = 1
_poTarget$ = 8						; size = 4
_poArgs$ = 12						; size = 4
?exchangeGetItemAttributeFromSelf@@YAPAU_object@@PAU1@0@Z PROC ; exchangeGetItemAttributeFromSelf, COMDAT

; 124  : {

  00000	55		 push	 ebp
  00001	8b ec		 mov	 ebp, esp
  00003	83 ec 10	 sub	 esp, 16			; 00000010H

; 125  : 	int pos;
; 126  : 	if (!PyTuple_GetInteger(poArgs, 0, &pos))

  00006	8d 45 f0	 lea	 eax, DWORD PTR _pos$[ebp]
  00009	50		 push	 eax
  0000a	6a 00		 push	 0
  0000c	ff 75 0c	 push	 DWORD PTR _poArgs$[ebp]
  0000f	e8 00 00 00 00	 call	 ?PyTuple_GetInteger@@YA_NPAU_object@@HPAH@Z ; PyTuple_GetInteger
  00014	83 c4 0c	 add	 esp, 12			; 0000000cH
  00017	84 c0		 test	 al, al
  00019	75 0e		 jne	 SHORT $LN2@exchangeGe
$LN7@exchangeGe:

; 127  : 		return Py_BuildException();

  0001b	6a 00		 push	 0
  0001d	e8 00 00 00 00	 call	 ?Py_BuildException@@YAPAU_object@@PBDZZ ; Py_BuildException
  00022	83 c4 04	 add	 esp, 4

; 137  : }

  00025	8b e5		 mov	 esp, ebp
  00027	5d		 pop	 ebp
  00028	c3		 ret	 0
$LN2@exchangeGe:

; 128  : 	int iAttrSlotPos;
; 129  : 	if (!PyTuple_GetInteger(poArgs, 1, &iAttrSlotPos))

  00029	8d 45 f4	 lea	 eax, DWORD PTR _iAttrSlotPos$[ebp]
  0002c	50		 push	 eax
  0002d	6a 01		 push	 1
  0002f	ff 75 0c	 push	 DWORD PTR _poArgs$[ebp]
  00032	e8 00 00 00 00	 call	 ?PyTuple_GetInteger@@YA_NPAU_object@@HPAH@Z ; PyTuple_GetInteger
  00037	83 c4 0c	 add	 esp, 12			; 0000000cH
  0003a	84 c0		 test	 al, al
  0003c	74 dd		 je	 SHORT $LN7@exchangeGe

; 130  : 		return Py_BuildException();
; 131  : 
; 132  : 	BYTE byType;
; 133  : 	short sValue;
; 134  : 	CPythonExchange::Instance().GetItemAttributeFromSelf(pos, iAttrSlotPos, &byType, &sValue);

  0003e	8b 0d 00 00 00
	00		 mov	 ecx, DWORD PTR ?ms_singleton@?$CSingleton@VCPythonExchange@@@@0PAVCPythonExchange@@A ; CSingleton<CPythonExchange>::ms_singleton
  00044	8d 45 f8	 lea	 eax, DWORD PTR _sValue$[ebp]
  00047	50		 push	 eax
  00048	8d 45 ff	 lea	 eax, DWORD PTR _byType$[ebp]
  0004b	50		 push	 eax
  0004c	ff 75 f4	 push	 DWORD PTR _iAttrSlotPos$[ebp]
  0004f	ff 75 f0	 push	 DWORD PTR _pos$[ebp]
  00052	e8 00 00 00 00	 call	 ?GetItemAttributeFromSelf@CPythonExchange@@QAEXEHPAEPAF@Z ; CPythonExchange::GetItemAttributeFromSelf

; 135  : 
; 136  : 	return Py_BuildValue("ii", byType, sValue);

  00057	0f bf 45 f8	 movsx	 eax, WORD PTR _sValue$[ebp]
  0005b	50		 push	 eax
  0005c	0f b6 45 ff	 movzx	 eax, BYTE PTR _byType$[ebp]
  00060	50		 push	 eax
  00061	68 00 00 00 00	 push	 OFFSET ??_C@_02PDIHAGKM@ii?$AA@
  00066	ff 15 00 00 00
	00		 call	 DWORD PTR __imp__Py_BuildValue
  0006c	83 c4 0c	 add	 esp, 12			; 0000000cH

; 137  : }

  0006f	8b e5		 mov	 esp, ebp
  00071	5d		 pop	 ebp
  00072	c3		 ret	 0
?exchangeGetItemAttributeFromSelf@@YAPAU_object@@PAU1@0@Z ENDP ; exchangeGetItemAttributeFromSelf
_TEXT	ENDS
; Function compile flags: /Ogtp
; File d:\metin2\metin2\client_source_clean\client_source_clean\source\userinterface\pythonexchangemodule.cpp
;	COMDAT ?exchangeGetElkMode@@YAPAU_object@@PAU1@0@Z
_TEXT	SEGMENT
_poTarget$ = 8						; size = 4
_poArgs$ = 12						; size = 4
?exchangeGetElkMode@@YAPAU_object@@PAU1@0@Z PROC	; exchangeGetElkMode, COMDAT

; 141  : 	return Py_BuildValue("b", CPythonExchange::Instance().GetElkMode());

  00000	8b 0d 00 00 00
	00		 mov	 ecx, DWORD PTR ?ms_singleton@?$CSingleton@VCPythonExchange@@@@0PAVCPythonExchange@@A ; CSingleton<CPythonExchange>::ms_singleton
  00006	e8 00 00 00 00	 call	 ?GetElkMode@CPythonExchange@@QAE_NXZ ; CPythonExchange::GetElkMode
  0000b	0f b6 c0	 movzx	 eax, al
  0000e	50		 push	 eax
  0000f	68 00 00 00 00	 push	 OFFSET ??_C@_01OJONOECF@b?$AA@
  00014	ff 15 00 00 00
	00		 call	 DWORD PTR __imp__Py_BuildValue
  0001a	83 c4 08	 add	 esp, 8

; 142  : }

  0001d	c3		 ret	 0
?exchangeGetElkMode@@YAPAU_object@@PAU1@0@Z ENDP	; exchangeGetElkMode
_TEXT	ENDS
; Function compile flags: /Ogtp
; File d:\metin2\metin2\client_source_clean\client_source_clean\source\userinterface\pythonexchangemodule.cpp
;	COMDAT ?exchangeSetElkMode@@YAPAU_object@@PAU1@0@Z
_TEXT	SEGMENT
_elk_mode$ = -4						; size = 4
_poTarget$ = 8						; size = 4
_poArgs$ = 12						; size = 4
?exchangeSetElkMode@@YAPAU_object@@PAU1@0@Z PROC	; exchangeSetElkMode, COMDAT

; 145  : {

  00000	55		 push	 ebp
  00001	8b ec		 mov	 ebp, esp
  00003	51		 push	 ecx

; 146  : 	int elk_mode;
; 147  : 
; 148  : 	if (!PyTuple_GetInteger(poArgs, 0, &elk_mode))

  00004	8d 45 fc	 lea	 eax, DWORD PTR _elk_mode$[ebp]
  00007	50		 push	 eax
  00008	6a 00		 push	 0
  0000a	ff 75 0c	 push	 DWORD PTR _poArgs$[ebp]
  0000d	e8 00 00 00 00	 call	 ?PyTuple_GetInteger@@YA_NPAU_object@@HPAH@Z ; PyTuple_GetInteger
  00012	83 c4 0c	 add	 esp, 12			; 0000000cH
  00015	84 c0		 test	 al, al
  00017	75 0e		 jne	 SHORT $LN1@exchangeSe

; 149  : 		return Py_BuildException();

  00019	6a 00		 push	 0
  0001b	e8 00 00 00 00	 call	 ?Py_BuildException@@YAPAU_object@@PBDZZ ; Py_BuildException
  00020	83 c4 04	 add	 esp, 4

; 153  : }

  00023	8b e5		 mov	 esp, ebp
  00025	5d		 pop	 ebp
  00026	c3		 ret	 0
$LN1@exchangeSe:

; 150  : 
; 151  : 	CPythonExchange::Instance().SetElkMode(elk_mode ? true : false);

  00027	83 7d fc 00	 cmp	 DWORD PTR _elk_mode$[ebp], 0
  0002b	8b 0d 00 00 00
	00		 mov	 ecx, DWORD PTR ?ms_singleton@?$CSingleton@VCPythonExchange@@@@0PAVCPythonExchange@@A ; CSingleton<CPythonExchange>::ms_singleton
  00031	0f 95 c0	 setne	 al
  00034	0f b6 c0	 movzx	 eax, al
  00037	50		 push	 eax
  00038	e8 00 00 00 00	 call	 ?SetElkMode@CPythonExchange@@QAEX_N@Z ; CPythonExchange::SetElkMode

; 152  : 	return Py_BuildNone();

  0003d	e8 00 00 00 00	 call	 ?Py_BuildNone@@YAPAU_object@@XZ ; Py_BuildNone

; 153  : }

  00042	8b e5		 mov	 esp, ebp
  00044	5d		 pop	 ebp
  00045	c3		 ret	 0
?exchangeSetElkMode@@YAPAU_object@@PAU1@0@Z ENDP	; exchangeSetElkMode
_TEXT	ENDS
; Function compile flags: /Ogtp
; File d:\metin2\metin2\client_source_clean\client_source_clean\source\userinterface\pythonexchangemodule.cpp
;	COMDAT ?initTrade@@YAXXZ
_TEXT	SEGMENT
?initTrade@@YAXXZ PROC					; initTrade, COMDAT

; 157  : 	static PyMethodDef s_methods[] = 
; 158  : 	{
; 159  : 		{"InitTrading",					exchangeInitTrading,				METH_VARARGS},
; 160  : 		{"isTrading",					exchangeisTrading,					METH_VARARGS},
; 161  : 
; 162  : 		{"GetElkFromSelf",				exchangeGetElkFromSelf,				METH_VARARGS},
; 163  : 		{"GetElkFromTarget",			exchangeGetElkFromTarget,			METH_VARARGS},
; 164  : 
; 165  : 		{"GetItemVnumFromSelf",			exchangeGetItemVnumFromSelf,		METH_VARARGS},
; 166  : 		{"GetItemVnumFromTarget",		exchangeGetItemVnumFromTarget,		METH_VARARGS},
; 167  : 
; 168  : 		{"GetItemCountFromSelf",		exchangeGetItemCountFromSelf,		METH_VARARGS},
; 169  : 		{"GetItemCountFromTarget",		exchangeGetItemCountFromTarget,		METH_VARARGS},
; 170  : 
; 171  : 		{"GetAcceptFromSelf",			exchangeGetAcceptFromSelf,			METH_VARARGS},
; 172  : 		{"GetAcceptFromTarget",			exchangeGetAcceptFromTarget,		METH_VARARGS},
; 173  : 
; 174  : 		{"GetNameFromSelf",				exchangeGetNameFromSelf,			METH_VARARGS},
; 175  : 		{"GetNameFromTarget",			exchangeGetNameFromTarget,			METH_VARARGS},
; 176  : 
; 177  : 		{"GetItemMetinSocketFromTarget",	exchangeGetItemMetinSocketFromTarget,	METH_VARARGS},
; 178  : 		{"GetItemMetinSocketFromSelf",		exchangeGetItemMetinSocketFromSelf,		METH_VARARGS},
; 179  : 
; 180  : 		{"GetItemAttributeFromTarget",	exchangeGetItemAttributeFromTarget,	METH_VARARGS},
; 181  : 		{"GetItemAttributeFromSelf",	exchangeGetItemAttributeFromSelf,	METH_VARARGS},
; 182  : 
; 183  : 		{"GetElkMode",					exchangeGetElkMode,					METH_VARARGS},
; 184  : 		{"SetElkMode",					exchangeSetElkMode,					METH_VARARGS},
; 185  : 
; 186  : 		{NULL, NULL},
; 187  : 	};
; 188  : 
; 189  : 	PyObject * poModule = Py_InitModule("exchange", s_methods);

  00000	68 f5 03 00 00	 push	 1013			; 000003f5H
  00005	6a 00		 push	 0
  00007	6a 00		 push	 0
  00009	68 00 00 00 00	 push	 OFFSET ?s_methods@?1??initTrade@@YAXXZ@4PAUPyMethodDef@@A
  0000e	68 00 00 00 00	 push	 OFFSET ??_C@_08EPHOCFK@exchange?$AA@
  00013	ff 15 00 00 00
	00		 call	 DWORD PTR __imp__Py_InitModule4

; 190  : 	PyModule_AddIntConstant(poModule, "EXCHANGE_ITEM_MAX_NUM", CPythonExchange::EXCHANGE_ITEM_MAX_NUM);

  00019	6a 0c		 push	 12			; 0000000cH
  0001b	68 00 00 00 00	 push	 OFFSET ??_C@_0BG@LKADPLLF@EXCHANGE_ITEM_MAX_NUM?$AA@
  00020	50		 push	 eax
  00021	ff 15 00 00 00
	00		 call	 DWORD PTR __imp__PyModule_AddIntConstant
  00027	83 c4 20	 add	 esp, 32			; 00000020H

; 191  : }

  0002a	c3		 ret	 0
?initTrade@@YAXXZ ENDP					; initTrade
_TEXT	ENDS
; Function compile flags: /Ogtp
; File d:\metin2\metin2\client_source_clean\client_source_clean\source\eterbase\singleton.h
;	COMDAT ?Instance@?$CSingleton@VCPythonExchange@@@@SAAAVCPythonExchange@@XZ
_TEXT	SEGMENT
?Instance@?$CSingleton@VCPythonExchange@@@@SAAAVCPythonExchange@@XZ PROC ; CSingleton<CPythonExchange>::Instance, COMDAT

; 26   : 		assert(ms_singleton);
; 27   : 		return (*ms_singleton);

  00000	a1 00 00 00 00	 mov	 eax, DWORD PTR ?ms_singleton@?$CSingleton@VCPythonExchange@@@@0PAVCPythonExchange@@A ; CSingleton<CPythonExchange>::ms_singleton

; 28   : 	}

  00005	c3		 ret	 0
?Instance@?$CSingleton@VCPythonExchange@@@@SAAAVCPythonExchange@@XZ ENDP ; CSingleton<CPythonExchange>::Instance
_TEXT	ENDS
END
