; Listing generated by Microsoft (R) Optimizing Compiler Version 18.00.40629.0 

	TITLE	D:\Metin2\Metin2\client_source_clean\client_source_clean\source\UserInterface\ServerStateCheckerModule.cpp
	.686P
	.XMM
	include listing.inc
	.model	flat

INCLUDELIB OLDNAMES

PUBLIC	??_C@_0BD@FAMPLJOF@ServerStateChecker?$AA@	; `string'
PUBLIC	??_C@_07LEAAGLHO@Request?$AA@			; `string'
PUBLIC	??_C@_0L@PMHBIDJB@AddChannel?$AA@		; `string'
;	COMDAT ?s_methods@?1??initServerStateChecker@@YAXXZ@4PAUPyMethodDef@@A
_DATA	SEGMENT
?s_methods@?1??initServerStateChecker@@YAXXZ@4PAUPyMethodDef@@A DD FLAT:??_C@_06MIKANEJK@Create?$AA@ ; `initServerStateChecker'::`2'::s_methods
	DD	FLAT:?ServerStateCheckerCreate@@YAPAU_object@@PAU1@0@Z
	DD	01H
	ORG $+4
	DD	FLAT:??_C@_06LMAGPFNF@Update?$AA@
	DD	FLAT:?ServerStateCheckerUpdate@@YAPAU_object@@PAU1@0@Z
	DD	01H
	ORG $+4
	DD	FLAT:??_C@_07LEAAGLHO@Request?$AA@
	DD	FLAT:?ServerStateCheckerRequest@@YAPAU_object@@PAU1@0@Z
	DD	01H
	ORG $+4
	DD	FLAT:??_C@_0L@PMHBIDJB@AddChannel?$AA@
	DD	FLAT:?ServerStateCheckerAddChannel@@YAPAU_object@@PAU1@0@Z
	DD	01H
	ORG $+4
	DD	FLAT:??_C@_0L@KIAPHAEH@Initialize?$AA@
	DD	FLAT:?ServerStateCheckerInitialize@@YAPAU_object@@PAU1@0@Z
	DD	01H
	ORG $+4
	DD	00H
	DD	00H
	DD	00H
	ORG $+4
_DATA	ENDS
;	COMDAT ??_C@_0L@PMHBIDJB@AddChannel?$AA@
CONST	SEGMENT
??_C@_0L@PMHBIDJB@AddChannel?$AA@ DB 'AddChannel', 00H	; `string'
CONST	ENDS
;	COMDAT ??_C@_07LEAAGLHO@Request?$AA@
CONST	SEGMENT
??_C@_07LEAAGLHO@Request?$AA@ DB 'Request', 00H		; `string'
CONST	ENDS
;	COMDAT ??_C@_0BD@FAMPLJOF@ServerStateChecker?$AA@
CONST	SEGMENT
??_C@_0BD@FAMPLJOF@ServerStateChecker?$AA@ DB 'ServerStateChecker', 00H ; `string'
PUBLIC	?Instance@?$CSingleton@VCServerStateChecker@@@@SAAAVCServerStateChecker@@XZ ; CSingleton<CServerStateChecker>::Instance
PUBLIC	?initServerStateChecker@@YAXXZ			; initServerStateChecker
PUBLIC	?ServerStateCheckerInitialize@@YAPAU_object@@PAU1@0@Z ; ServerStateCheckerInitialize
PUBLIC	?ServerStateCheckerAddChannel@@YAPAU_object@@PAU1@0@Z ; ServerStateCheckerAddChannel
PUBLIC	?ServerStateCheckerRequest@@YAPAU_object@@PAU1@0@Z ; ServerStateCheckerRequest
PUBLIC	?ServerStateCheckerUpdate@@YAPAU_object@@PAU1@0@Z ; ServerStateCheckerUpdate
PUBLIC	?ServerStateCheckerCreate@@YAPAU_object@@PAU1@0@Z ; ServerStateCheckerCreate
; Function compile flags: /Ogtp
; File d:\metin2\metin2\client_source_clean\client_source_clean\source\userinterface\serverstatecheckermodule.cpp
;	COMDAT ?ServerStateCheckerCreate@@YAPAU_object@@PAU1@0@Z
_TEXT	SEGMENT
_poWnd$ = -4						; size = 4
_poSelf$ = 8						; size = 4
_poArgs$ = 12						; size = 4
?ServerStateCheckerCreate@@YAPAU_object@@PAU1@0@Z PROC	; ServerStateCheckerCreate, COMDAT

; 5    : {

  00000	55		 push	 ebp
  00001	8b ec		 mov	 ebp, esp
  00003	51		 push	 ecx

; 6    : 	PyObject * poWnd;
; 7    : 	if (!PyTuple_GetObject(poArgs, 0, &poWnd))

  00004	8d 45 fc	 lea	 eax, DWORD PTR _poWnd$[ebp]
  00007	50		 push	 eax
  00008	6a 00		 push	 0
  0000a	ff 75 0c	 push	 DWORD PTR _poArgs$[ebp]
  0000d	e8 00 00 00 00	 call	 ?PyTuple_GetObject@@YA_NPAU_object@@HPAPAU1@@Z ; PyTuple_GetObject
  00012	83 c4 0c	 add	 esp, 12			; 0000000cH
  00015	84 c0		 test	 al, al
  00017	75 09		 jne	 SHORT $LN1@ServerStat

; 8    : 		return Py_BadArgument();

  00019	e8 00 00 00 00	 call	 ?Py_BadArgument@@YAPAU_object@@XZ ; Py_BadArgument

; 12   : }

  0001e	8b e5		 mov	 esp, ebp
  00020	5d		 pop	 ebp
  00021	c3		 ret	 0
$LN1@ServerStat:

; 9    : 
; 10   : 	CServerStateChecker::Instance().Create(poWnd);

  00022	ff 75 fc	 push	 DWORD PTR _poWnd$[ebp]
  00025	8b 0d 00 00 00
	00		 mov	 ecx, DWORD PTR ?ms_singleton@?$CSingleton@VCServerStateChecker@@@@0PAVCServerStateChecker@@A ; CSingleton<CServerStateChecker>::ms_singleton
  0002b	e8 00 00 00 00	 call	 ?Create@CServerStateChecker@@QAEXPAU_object@@@Z ; CServerStateChecker::Create

; 11   : 	return Py_BuildNone();

  00030	e8 00 00 00 00	 call	 ?Py_BuildNone@@YAPAU_object@@XZ ; Py_BuildNone

; 12   : }

  00035	8b e5		 mov	 esp, ebp
  00037	5d		 pop	 ebp
  00038	c3		 ret	 0
?ServerStateCheckerCreate@@YAPAU_object@@PAU1@0@Z ENDP	; ServerStateCheckerCreate
_TEXT	ENDS
; Function compile flags: /Ogtp
; File d:\metin2\metin2\client_source_clean\client_source_clean\source\userinterface\serverstatecheckermodule.cpp
;	COMDAT ?ServerStateCheckerUpdate@@YAPAU_object@@PAU1@0@Z
_TEXT	SEGMENT
_poSelf$ = 8						; size = 4
_poArgs$ = 12						; size = 4
?ServerStateCheckerUpdate@@YAPAU_object@@PAU1@0@Z PROC	; ServerStateCheckerUpdate, COMDAT

; 16   : 	CServerStateChecker::Instance().Update();

  00000	8b 0d 00 00 00
	00		 mov	 ecx, DWORD PTR ?ms_singleton@?$CSingleton@VCServerStateChecker@@@@0PAVCServerStateChecker@@A ; CSingleton<CServerStateChecker>::ms_singleton
  00006	e8 00 00 00 00	 call	 ?Update@CServerStateChecker@@QAEXXZ ; CServerStateChecker::Update

; 17   : 	return Py_BuildNone();

  0000b	e9 00 00 00 00	 jmp	 ?Py_BuildNone@@YAPAU_object@@XZ ; Py_BuildNone
?ServerStateCheckerUpdate@@YAPAU_object@@PAU1@0@Z ENDP	; ServerStateCheckerUpdate
_TEXT	ENDS
; Function compile flags: /Ogtp
; File d:\metin2\metin2\client_source_clean\client_source_clean\source\userinterface\serverstatecheckermodule.cpp
;	COMDAT ?ServerStateCheckerRequest@@YAPAU_object@@PAU1@0@Z
_TEXT	SEGMENT
_poSelf$ = 8						; size = 4
_poArgs$ = 12						; size = 4
?ServerStateCheckerRequest@@YAPAU_object@@PAU1@0@Z PROC	; ServerStateCheckerRequest, COMDAT

; 22   : 	CServerStateChecker::Instance().Request();

  00000	8b 0d 00 00 00
	00		 mov	 ecx, DWORD PTR ?ms_singleton@?$CSingleton@VCServerStateChecker@@@@0PAVCServerStateChecker@@A ; CSingleton<CServerStateChecker>::ms_singleton
  00006	e8 00 00 00 00	 call	 ?Request@CServerStateChecker@@QAEXXZ ; CServerStateChecker::Request

; 23   : 	return Py_BuildNone();

  0000b	e9 00 00 00 00	 jmp	 ?Py_BuildNone@@YAPAU_object@@XZ ; Py_BuildNone
?ServerStateCheckerRequest@@YAPAU_object@@PAU1@0@Z ENDP	; ServerStateCheckerRequest
_TEXT	ENDS
; Function compile flags: /Ogtp
; File d:\metin2\metin2\client_source_clean\client_source_clean\source\userinterface\serverstatecheckermodule.cpp
;	COMDAT ?ServerStateCheckerAddChannel@@YAPAU_object@@PAU1@0@Z
_TEXT	SEGMENT
_nServerIndex$ = -12					; size = 4
_szAddr$ = -8						; size = 4
_nPort$ = -4						; size = 4
_poSelf$ = 8						; size = 4
_poArgs$ = 12						; size = 4
?ServerStateCheckerAddChannel@@YAPAU_object@@PAU1@0@Z PROC ; ServerStateCheckerAddChannel, COMDAT

; 27   : {

  00000	55		 push	 ebp
  00001	8b ec		 mov	 ebp, esp
  00003	83 ec 0c	 sub	 esp, 12			; 0000000cH

; 28   : 	int nServerIndex;
; 29   : 	if (!PyTuple_GetInteger(poArgs, 0, &nServerIndex))

  00006	8d 45 f4	 lea	 eax, DWORD PTR _nServerIndex$[ebp]
  00009	56		 push	 esi
  0000a	8b 75 0c	 mov	 esi, DWORD PTR _poArgs$[ebp]
  0000d	50		 push	 eax
  0000e	6a 00		 push	 0
  00010	56		 push	 esi
  00011	e8 00 00 00 00	 call	 ?PyTuple_GetInteger@@YA_NPAU_object@@HPAH@Z ; PyTuple_GetInteger
  00016	83 c4 0c	 add	 esp, 12			; 0000000cH
  00019	84 c0		 test	 al, al
  0001b	75 0f		 jne	 SHORT $LN3@ServerStat
$LN8@ServerStat:

; 30   : 		return Py_BuildException();

  0001d	6a 00		 push	 0
  0001f	e8 00 00 00 00	 call	 ?Py_BuildException@@YAPAU_object@@PBDZZ ; Py_BuildException
  00024	83 c4 04	 add	 esp, 4
  00027	5e		 pop	 esi

; 42   : }

  00028	8b e5		 mov	 esp, ebp
  0002a	5d		 pop	 ebp
  0002b	c3		 ret	 0
$LN3@ServerStat:

; 31   : 
; 32   : 	char * szAddr;
; 33   : 	if (!PyTuple_GetString(poArgs, 1, &szAddr))

  0002c	8d 45 f8	 lea	 eax, DWORD PTR _szAddr$[ebp]
  0002f	50		 push	 eax
  00030	6a 01		 push	 1
  00032	56		 push	 esi
  00033	e8 00 00 00 00	 call	 ?PyTuple_GetString@@YA_NPAU_object@@HPAPAD@Z ; PyTuple_GetString
  00038	83 c4 0c	 add	 esp, 12			; 0000000cH
  0003b	84 c0		 test	 al, al
  0003d	74 de		 je	 SHORT $LN8@ServerStat

; 34   : 		return Py_BuildException();
; 35   : 
; 36   : 	int nPort;
; 37   : 	if (!PyTuple_GetInteger(poArgs, 2, &nPort))

  0003f	8d 45 fc	 lea	 eax, DWORD PTR _nPort$[ebp]
  00042	50		 push	 eax
  00043	6a 02		 push	 2
  00045	56		 push	 esi
  00046	e8 00 00 00 00	 call	 ?PyTuple_GetInteger@@YA_NPAU_object@@HPAH@Z ; PyTuple_GetInteger
  0004b	83 c4 0c	 add	 esp, 12			; 0000000cH
  0004e	84 c0		 test	 al, al
  00050	74 cb		 je	 SHORT $LN8@ServerStat

; 38   : 		return Py_BuildException();
; 39   : 
; 40   : 	CServerStateChecker::Instance().AddChannel(nServerIndex, szAddr, nPort);

  00052	ff 75 fc	 push	 DWORD PTR _nPort$[ebp]
  00055	8b 0d 00 00 00
	00		 mov	 ecx, DWORD PTR ?ms_singleton@?$CSingleton@VCServerStateChecker@@@@0PAVCServerStateChecker@@A ; CSingleton<CServerStateChecker>::ms_singleton
  0005b	ff 75 f8	 push	 DWORD PTR _szAddr$[ebp]
  0005e	ff 75 f4	 push	 DWORD PTR _nServerIndex$[ebp]
  00061	e8 00 00 00 00	 call	 ?AddChannel@CServerStateChecker@@QAEXIPBDI@Z ; CServerStateChecker::AddChannel

; 41   : 	return Py_BuildNone();

  00066	e8 00 00 00 00	 call	 ?Py_BuildNone@@YAPAU_object@@XZ ; Py_BuildNone
  0006b	5e		 pop	 esi

; 42   : }

  0006c	8b e5		 mov	 esp, ebp
  0006e	5d		 pop	 ebp
  0006f	c3		 ret	 0
?ServerStateCheckerAddChannel@@YAPAU_object@@PAU1@0@Z ENDP ; ServerStateCheckerAddChannel
_TEXT	ENDS
; Function compile flags: /Ogtp
; File d:\metin2\metin2\client_source_clean\client_source_clean\source\userinterface\serverstatecheckermodule.cpp
;	COMDAT ?ServerStateCheckerInitialize@@YAPAU_object@@PAU1@0@Z
_TEXT	SEGMENT
_poSelf$ = 8						; size = 4
_poArgs$ = 12						; size = 4
?ServerStateCheckerInitialize@@YAPAU_object@@PAU1@0@Z PROC ; ServerStateCheckerInitialize, COMDAT

; 46   : 	CServerStateChecker::Instance().Initialize();

  00000	8b 0d 00 00 00
	00		 mov	 ecx, DWORD PTR ?ms_singleton@?$CSingleton@VCServerStateChecker@@@@0PAVCServerStateChecker@@A ; CSingleton<CServerStateChecker>::ms_singleton
  00006	e8 00 00 00 00	 call	 ?Initialize@CServerStateChecker@@QAEXXZ ; CServerStateChecker::Initialize

; 47   : 	return Py_BuildNone();

  0000b	e9 00 00 00 00	 jmp	 ?Py_BuildNone@@YAPAU_object@@XZ ; Py_BuildNone
?ServerStateCheckerInitialize@@YAPAU_object@@PAU1@0@Z ENDP ; ServerStateCheckerInitialize
_TEXT	ENDS
; Function compile flags: /Ogtp
; File d:\metin2\metin2\client_source_clean\client_source_clean\source\userinterface\serverstatecheckermodule.cpp
;	COMDAT ?initServerStateChecker@@YAXXZ
_TEXT	SEGMENT
?initServerStateChecker@@YAXXZ PROC			; initServerStateChecker, COMDAT

; 52   : 	static PyMethodDef s_methods[] =
; 53   : 	{
; 54   : 		{ "Create",		ServerStateCheckerCreate,		METH_VARARGS },
; 55   : 		{ "Update",		ServerStateCheckerUpdate,		METH_VARARGS },
; 56   : 		{ "Request",	ServerStateCheckerRequest,		METH_VARARGS },
; 57   : 		{ "AddChannel",	ServerStateCheckerAddChannel,	METH_VARARGS },
; 58   : 		{ "Initialize",	ServerStateCheckerInitialize,	METH_VARARGS },
; 59   : 		{ NULL,			NULL,							NULL },
; 60   : 	};
; 61   : 
; 62   : 	//PyObject * poModule = Py_InitModule("ServerStateChecker", s_methods);
; 63   : 	Py_InitModule("ServerStateChecker", s_methods);

  00000	68 f5 03 00 00	 push	 1013			; 000003f5H
  00005	6a 00		 push	 0
  00007	6a 00		 push	 0
  00009	68 00 00 00 00	 push	 OFFSET ?s_methods@?1??initServerStateChecker@@YAXXZ@4PAUPyMethodDef@@A
  0000e	68 00 00 00 00	 push	 OFFSET ??_C@_0BD@FAMPLJOF@ServerStateChecker?$AA@
  00013	ff 15 00 00 00
	00		 call	 DWORD PTR __imp__Py_InitModule4
  00019	83 c4 14	 add	 esp, 20			; 00000014H

; 64   : }

  0001c	c3		 ret	 0
?initServerStateChecker@@YAXXZ ENDP			; initServerStateChecker
_TEXT	ENDS
; Function compile flags: /Ogtp
; File d:\metin2\metin2\client_source_clean\client_source_clean\source\eterbase\singleton.h
;	COMDAT ?Instance@?$CSingleton@VCServerStateChecker@@@@SAAAVCServerStateChecker@@XZ
_TEXT	SEGMENT
?Instance@?$CSingleton@VCServerStateChecker@@@@SAAAVCServerStateChecker@@XZ PROC ; CSingleton<CServerStateChecker>::Instance, COMDAT

; 26   : 		assert(ms_singleton);
; 27   : 		return (*ms_singleton);

  00000	a1 00 00 00 00	 mov	 eax, DWORD PTR ?ms_singleton@?$CSingleton@VCServerStateChecker@@@@0PAVCServerStateChecker@@A ; CSingleton<CServerStateChecker>::ms_singleton

; 28   : 	}

  00005	c3		 ret	 0
?Instance@?$CSingleton@VCServerStateChecker@@@@SAAAVCServerStateChecker@@XZ ENDP ; CSingleton<CServerStateChecker>::Instance
_TEXT	ENDS
END
