; Listing generated by Microsoft (R) Optimizing Compiler Version 18.00.40629.0 

	TITLE	D:\Metin2\Metin2\client_source_clean\client_source_clean\source\UserInterface\UserInterface.cpp
	.686P
	.XMM
	include listing.inc
	.model	flat

INCLUDELIB OLDNAMES

PUBLIC	??_C@_0N@CMMKLLC@UserDict?4pyc?$AA@		; `string'
PUBLIC	??_C@_0P@KBODAEKE@__future__?4pyc?$AA@		; `string'
PUBLIC	??_C@_0L@HJCEJGHC@ntpath?4pyc?$AA@		; `string'
PUBLIC	??_C@_06JCOFDJKA@os?4pyc?$AA@			; `string'
PUBLIC	??_C@_0N@GCNFBOJN@copy_reg?4pyc?$AA@		; `string'
PUBLIC	??_C@_0O@COBIIGAD@linecache?4pyc?$AA@		; `string'
PUBLIC	??_C@_0L@NDKNFNNI@string?4pyc?$AA@		; `string'
PUBLIC	??_C@_0O@PMKHJGGH@traceback?4pyc?$AA@		; `string'
PUBLIC	??_C@_08FPFMJPEC@site?4pyc?$AA@			; `string'
PUBLIC	??_C@_08EFIONJOP@stat?4pyc?$AA@			; `string'
PUBLIC	??_C@_01KICIPPFI@?2?$AA@			; `string'
PUBLIC	??_C@_0BB@FPBAACEA@metin2client?4dat?$AA@	; `string'
PUBLIC	??_C@_09EHIBBABK@types?4pyc?$AA@		; `string'
PUBLIC	??_C@_04HOGMCHDB@lib?2?$AA@			; `string'
PUBLIC	??_C@_05FNNGFGLF@Index?$AA@			; `string'
PUBLIC	??_C@_0CA@PJKENNIH@FATAL?5ERROR?$CB?5File?5not?5exist?3?5?$CFs?$AA@ ; `string'
PUBLIC	??_C@_07GHKFPDHK@locale?1?$AA@			; `string'
PUBLIC	??_C@_02LFNMGJAP@en?$AA@			; `string'
PUBLIC	??_C@_0ED@CBACJNDK@Pack?1Index?5has?5invalid?5syntax?4?5F@ ; `string'
PUBLIC	??_C@_0BG@FJMFFOHK@?$LO?K?$LI?$LC?3?5?F?Q?5?$LI?p?$LF?e?$MA?T?$LE?O?$LE?Y?4?6?$AA@ ; `string'
PUBLIC	??_C@_04PMPMHNFI@FILE?$AA@			; `string'
PUBLIC	??_C@_04EDDHFNCG@PACK?$AA@			; `string'
PUBLIC	??_C@_0O@GIEHGGHC@__DEBUG__?5?$DN?50?$AA@	; `string'
PUBLIC	??_C@_0BI@JAFKHBD@RegisterDebugFlag?5Error?$AA@	; `string'
PUBLIC	??_C@_09ODEGJGJI@_texcache?$AA@			; `string'
PUBLIC	??_C@_04NBFCGMPH@root?$AA@			; `string'
PUBLIC	??_C@_0BE@FPKDPBJI@__COMMAND_LINE__?5?$DN?5?$AA@ ; `string'
PUBLIC	??_C@_0BK@DPMNHJLC@RegisterCommandLine?5Error?$AA@ ; `string'
PUBLIC	??_C@_03MCGAAIEM@?9cs?$AA@			; `string'
PUBLIC	??_C@_04JFPGDMCL@?9ncs?$AA@			; `string'
PUBLIC	??_C@_09LEIJOBCA@system?4py?$AA@		; `string'
PUBLIC	??_C@_0O@BEEPKJML@RunMain?5Error?$AA@		; `string'
PUBLIC	??_C@_0BN@KIGJPBEF@?9?9pause?9before?9create?9window?$AA@ ; `string'
PUBLIC	??_C@_05PDJBBECF@pause?$AA@			; `string'
PUBLIC	??_C@_0DB@BGMLOPGB@Pack?5Initialization?5failed?4?5Chec@ ; `string'
PUBLIC	??_C@_0M@PFDHIIAP@eter?4python?$AA@		; `string'
PUBLIC	??_C@_0N@JIKFFHPP@newpatch?4exe?$AA@		; `string'
PUBLIC	??_C@_0BB@LLCBDFGP@patchupdater?4exe?$AA@	; `string'
PUBLIC	??_C@_0L@HBFAHJLE@?1timestamp?$AA@		; `string'
PUBLIC	??_C@_0BJ@CPGCGJKO@Fri?5Sep?511?508?312?333?52015?$AA@ ; `string'
PUBLIC	??_C@_0BA@OEEELOKH@Metin2GameMutex?$AA@		; `string'
PUBLIC	??_C@_0CN@OHDPHKKH@FATAL?5ERROR?$CB?$CB?5Python?5Library?5fil@ ; `string'
PUBLIC	??_C@_08LJMAFCGB@?9?9locale?$AA@		; `string'
PUBLIC	??_C@_0BE@FJLABEAB@?9?9perforce?9revision?$AA@	; `string'
PUBLIC	??_C@_0DG@JFMPGIL@METIN2?5BINARY?5TEST?5VERSION?5?$CFs?5?5?$CI@ ; `string'
PUBLIC	??_C@_0DL@IHCMKBOK@METIN2?5BINARY?5DISTRIBUTE?5VERSION@ ; `string'
PUBLIC	??_C@_0L@IBAMLFBB@?$CFs?4version?$AA@		; `string'
PUBLIC	??_C@_04JIBCGPDH@r?$CFd?6?$AA@			; `string'
PUBLIC	??_C@_0N@FPLLJIDE@?9?9hackshield?$AA@		; `string'
PUBLIC	??_C@_0L@LCFODDFH@locale?4cfg?$AA@		; `string'
PUBLIC	??_C@_0BD@BMCCGKJE@?9?9force?9set?9locale?$AA@	; `string'
PUBLIC	??_C@_08GKBDCAOF@APP_NAME?$AA@			; `string'
PUBLIC	??_C@_0L@IMHJDJJ@locale?4txt?$AA@		; `string'
PUBLIC	??_C@_0BK@LJMCIPPN@service?$FL?$CFs?$FN?5code_page?$FL?$CFd?$FN?$AA@ ; `string'
PUBLIC	??_C@_0BC@PALKPJEA@Invalid?5arguments?$AA@	; `string'
PUBLIC	??_C@_0L@GNJGCFKN@GRANNY?3?5?$CFs?$AA@		; `string'
PUBLIC	?gs_szErrorString@@3PADA			; gs_szErrorString
PUBLIC	?__IS_TEST_SERVER_MODE__@@3_NA			; __IS_TEST_SERVER_MODE__
EXTRN	__imp__GrannySetLogCallback@4:PROC
EXTRN	__imp__timeBeginPeriod@4:PROC
EXTRN	?MINMAX@@YAHHHH@Z:PROC				; MINMAX
EXTRN	_WebBrowser_Cleanup:PROC
EXTRN	_WebBrowser_Startup:PROC
EXTRN	__imp__MessageBoxA@16:PROC
EXTRN	__imp__timeGetDevCaps@8:PROC
EXTRN	__imp__GlobalFree@4:PROC
EXTRN	__imp__ReleaseMutex@4:PROC
EXTRN	__imp__CreateMutexA@12:PROC
EXTRN	??1CLZO@@UAE@XZ:PROC				; CLZO::~CLZO
EXTRN	__imp__GetModuleFileNameA@12:PROC
EXTRN	?CommandLineToArgv@@YAPAPADPADPAH@Z:PROC	; CommandLineToArgv
EXTRN	?Create@CPythonLauncher@@QAE_NPBD@Z:PROC	; CPythonLauncher::Create
EXTRN	?SetExceptionSender@@YAXPAVIPythonExceptionSender@@@Z:PROC ; SetExceptionSender
EXTRN	??1CPythonLauncher@@UAE@XZ:PROC			; CPythonLauncher::~CPythonLauncher
EXTRN	??0CPythonLauncher@@QAE@XZ:PROC			; CPythonLauncher::CPythonLauncher
EXTRN	??1CEterPackManager@@UAE@XZ:PROC		; CEterPackManager::~CEterPackManager
EXTRN	?Clear@CPythonLauncher@@QAEXXZ:PROC		; CPythonLauncher::Clear
EXTRN	__imp__timeEndPeriod@4:PROC
EXTRN	??0CEterPackManager@@QAE@XZ:PROC		; CEterPackManager::CEterPackManager
EXTRN	??0CLZO@@QAE@XZ:PROC				; CLZO::CLZO
EXTRN	?Initialize@CMSApplication@@QAEXPAUHINSTANCE__@@@Z:PROC ; CMSApplication::Initialize
EXTRN	?SetDefaultCodePage@@YA_NK@Z:PROC		; SetDefaultCodePage
EXTRN	__imp__ilInit@0:PROC
EXTRN	__imp__DeleteFileA@4:PROC
EXTRN	?SetLogLevel@@YAXI@Z:PROC			; SetLogLevel
EXTRN	?OpenLogFile@@YAX_N@Z:PROC			; OpenLogFile
EXTRN	_system:PROC
EXTRN	?base64_decode@@YAXPBDPAD@Z:PROC		; base64_decode
EXTRN	?SplitLine@@YA_NPBD0PAV?$vector@V?$basic_string@DU?$char_traits@D@std@@V?$allocator@D@2@@std@@V?$allocator@V?$basic_string@DU?$char_traits@D@std@@V?$allocator@D@2@@std@@@2@@std@@@Z:PROC ; SplitLine
EXTRN	_srand:PROC
EXTRN	?srandom@@YAXK@Z:PROC				; srandom
EXTRN	?initgrp@@YAXXZ:PROC				; initgrp
EXTRN	?initdbg@@YAXXZ:PROC				; initdbg
EXTRN	?RegisterRootPack@CEterPackManager@@QAEXPBD@Z:PROC ; CEterPackManager::RegisterRootPack
EXTRN	?SetPackMode@CSoundData@@SAXXZ:PROC		; CSoundData::SetPackMode
EXTRN	?RunLine@CPythonLauncher@@QAE_NPBD@Z:PROC	; CPythonLauncher::RunLine
EXTRN	?initwndMgr@@YAXXZ:PROC				; initwndMgr
EXTRN	?initgrpText@@YAXXZ:PROC			; initgrpText
EXTRN	?initgrpImage@@YAXXZ:PROC			; initgrpImage
EXTRN	?Create@CMappedFile@@QAEHPBDPAPBXHH@Z:PROC	; CMappedFile::Create
EXTRN	__imp__LoadStringA@16:PROC
EXTRN	?SetSearchMode@CEterPackManager@@QAEX_N@Z:PROC	; CEterPackManager::SetSearchMode
EXTRN	?SetCacheMode@CEterPackManager@@QAEXXZ:PROC	; CEterPackManager::SetCacheMode
EXTRN	?SetCacheMode@CTextFileLoader@@SAXXZ:PROC	; CTextFileLoader::SetCacheMode
EXTRN	?LogBoxf@@YAXPBDZZ:PROC				; LogBoxf
EXTRN	__imp__GetCurrentDirectoryA@8:PROC
EXTRN	__imp__GetPrivateProfileStringA@24:PROC
EXTRN	__imp__lstrlenA@4:PROC
EXTRN	__fltused:DWORD
EXTRN	__imp__MoveFileA@8:PROC
?gs_szErrorString@@3PADA DB 0200H DUP (?)		; gs_szErrorString
?__IS_TEST_SERVER_MODE__@@3_NA DB 01H DUP (?)		; __IS_TEST_SERVER_MODE__
_BSS	ENDS
;	COMDAT ??_C@_0L@GNJGCFKN@GRANNY?3?5?$CFs?$AA@
CONST	SEGMENT
??_C@_0L@GNJGCFKN@GRANNY?3?5?$CFs?$AA@ DB 'GRANNY: %s', 00H ; `string'
CONST	ENDS
;	COMDAT ??_C@_0BC@PALKPJEA@Invalid?5arguments?$AA@
CONST	SEGMENT
??_C@_0BC@PALKPJEA@Invalid?5arguments?$AA@ DB 'Invalid arguments', 00H ; `string'
CONST	ENDS
;	COMDAT ??_C@_0BK@LJMCIPPN@service?$FL?$CFs?$FN?5code_page?$FL?$CFd?$FN?$AA@
CONST	SEGMENT
??_C@_0BK@LJMCIPPN@service?$FL?$CFs?$FN?5code_page?$FL?$CFd?$FN?$AA@ DB 's'
	DB	'ervice[%s] code_page[%d]', 00H		; `string'
CONST	ENDS
;	COMDAT ??_C@_0L@IMHJDJJ@locale?4txt?$AA@
CONST	SEGMENT
??_C@_0L@IMHJDJJ@locale?4txt?$AA@ DB 'locale.txt', 00H	; `string'
CONST	ENDS
;	COMDAT ??_C@_08GKBDCAOF@APP_NAME?$AA@
CONST	SEGMENT
??_C@_08GKBDCAOF@APP_NAME?$AA@ DB 'APP_NAME', 00H	; `string'
CONST	ENDS
;	COMDAT ??_C@_0BD@BMCCGKJE@?9?9force?9set?9locale?$AA@
CONST	SEGMENT
??_C@_0BD@BMCCGKJE@?9?9force?9set?9locale?$AA@ DB '--force-set-locale', 00H ; `string'
CONST	ENDS
;	COMDAT ??_C@_0L@LCFODDFH@locale?4cfg?$AA@
CONST	SEGMENT
??_C@_0L@LCFODDFH@locale?4cfg?$AA@ DB 'locale.cfg', 00H	; `string'
CONST	ENDS
;	COMDAT ??_C@_0N@FPLLJIDE@?9?9hackshield?$AA@
CONST	SEGMENT
??_C@_0N@FPLLJIDE@?9?9hackshield?$AA@ DB '--hackshield', 00H ; `string'
CONST	ENDS
;	COMDAT ??_C@_04JIBCGPDH@r?$CFd?6?$AA@
CONST	SEGMENT
??_C@_04JIBCGPDH@r?$CFd?6?$AA@ DB 'r%d', 0aH, 00H	; `string'
CONST	ENDS
;	COMDAT ??_C@_0L@IBAMLFBB@?$CFs?4version?$AA@
CONST	SEGMENT
??_C@_0L@IBAMLFBB@?$CFs?4version?$AA@ DB '%s.version', 00H ; `string'
CONST	ENDS
;	COMDAT ??_C@_0DL@IHCMKBOK@METIN2?5BINARY?5DISTRIBUTE?5VERSION@
CONST	SEGMENT
??_C@_0DL@IHCMKBOK@METIN2?5BINARY?5DISTRIBUTE?5VERSION@ DB 'METIN2 BINARY'
	DB	' DISTRIBUTE VERSION %s ( MS C++ %d Compiled )', 00H ; `string'
CONST	ENDS
;	COMDAT ??_C@_0DG@JFMPGIL@METIN2?5BINARY?5TEST?5VERSION?5?$CFs?5?5?$CI@
CONST	SEGMENT
??_C@_0DG@JFMPGIL@METIN2?5BINARY?5TEST?5VERSION?5?$CFs?5?5?$CI@ DB 'METIN'
	DB	'2 BINARY TEST VERSION %s  ( MS C++ %d Compiled )', 00H ; `string'
CONST	ENDS
;	COMDAT ??_C@_0BE@FJLABEAB@?9?9perforce?9revision?$AA@
CONST	SEGMENT
??_C@_0BE@FJLABEAB@?9?9perforce?9revision?$AA@ DB '--perforce-revision', 00H ; `string'
CONST	ENDS
;	COMDAT ??_C@_08LJMAFCGB@?9?9locale?$AA@
CONST	SEGMENT
??_C@_08LJMAFCGB@?9?9locale?$AA@ DB '--locale', 00H	; `string'
CONST	ENDS
;	COMDAT ??_C@_0CN@OHDPHKKH@FATAL?5ERROR?$CB?$CB?5Python?5Library?5fil@
CONST	SEGMENT
??_C@_0CN@OHDPHKKH@FATAL?5ERROR?$CB?$CB?5Python?5Library?5fil@ DB 'FATAL '
	DB	'ERROR!! Python Library file not exist!', 00H ; `string'
CONST	ENDS
;	COMDAT ??_C@_0BA@OEEELOKH@Metin2GameMutex?$AA@
CONST	SEGMENT
??_C@_0BA@OEEELOKH@Metin2GameMutex?$AA@ DB 'Metin2GameMutex', 00H ; `string'
CONST	ENDS
;	COMDAT ??_C@_0BJ@CPGCGJKO@Fri?5Sep?511?508?312?333?52015?$AA@
CONST	SEGMENT
??_C@_0BJ@CPGCGJKO@Fri?5Sep?511?508?312?333?52015?$AA@ DB 'Fri Sep 11 08:'
	DB	'12:33 2015', 00H				; `string'
CONST	ENDS
;	COMDAT ??_C@_0L@HBFAHJLE@?1timestamp?$AA@
CONST	SEGMENT
??_C@_0L@HBFAHJLE@?1timestamp?$AA@ DB '/timestamp', 00H	; `string'
CONST	ENDS
;	COMDAT ??_C@_0BB@LLCBDFGP@patchupdater?4exe?$AA@
CONST	SEGMENT
??_C@_0BB@LLCBDFGP@patchupdater?4exe?$AA@ DB 'patchupdater.exe', 00H ; `string'
CONST	ENDS
;	COMDAT ??_C@_0N@JIKFFHPP@newpatch?4exe?$AA@
CONST	SEGMENT
??_C@_0N@JIKFFHPP@newpatch?4exe?$AA@ DB 'newpatch.exe', 00H ; `string'
CONST	ENDS
;	COMDAT ??_C@_0M@PFDHIIAP@eter?4python?$AA@
CONST	SEGMENT
??_C@_0M@PFDHIIAP@eter?4python?$AA@ DB 'eter.python', 00H ; `string'
CONST	ENDS
;	COMDAT ??_C@_0DB@BGMLOPGB@Pack?5Initialization?5failed?4?5Chec@
CONST	SEGMENT
??_C@_0DB@BGMLOPGB@Pack?5Initialization?5failed?4?5Chec@ DB 'Pack Initial'
	DB	'ization failed. Check log.txt file..', 00H	; `string'
CONST	ENDS
;	COMDAT ??_C@_05PDJBBECF@pause?$AA@
CONST	SEGMENT
??_C@_05PDJBBECF@pause?$AA@ DB 'pause', 00H		; `string'
CONST	ENDS
;	COMDAT ??_C@_0BN@KIGJPBEF@?9?9pause?9before?9create?9window?$AA@
CONST	SEGMENT
??_C@_0BN@KIGJPBEF@?9?9pause?9before?9create?9window?$AA@ DB '--pause-bef'
	DB	'ore-create-window', 00H			; `string'
CONST	ENDS
;	COMDAT ??_C@_0O@BEEPKJML@RunMain?5Error?$AA@
CONST	SEGMENT
??_C@_0O@BEEPKJML@RunMain?5Error?$AA@ DB 'RunMain Error', 00H ; `string'
CONST	ENDS
;	COMDAT ??_C@_09LEIJOBCA@system?4py?$AA@
CONST	SEGMENT
??_C@_09LEIJOBCA@system?4py?$AA@ DB 'system.py', 00H	; `string'
CONST	ENDS
;	COMDAT ??_C@_04JFPGDMCL@?9ncs?$AA@
CONST	SEGMENT
??_C@_04JFPGDMCL@?9ncs?$AA@ DB '-ncs', 00H		; `string'
CONST	ENDS
;	COMDAT ??_C@_03MCGAAIEM@?9cs?$AA@
CONST	SEGMENT
??_C@_03MCGAAIEM@?9cs?$AA@ DB '-cs', 00H		; `string'
CONST	ENDS
;	COMDAT ??_C@_0BK@DPMNHJLC@RegisterCommandLine?5Error?$AA@
CONST	SEGMENT
??_C@_0BK@DPMNHJLC@RegisterCommandLine?5Error?$AA@ DB 'RegisterCommandLin'
	DB	'e Error', 00H				; `string'
CONST	ENDS
;	COMDAT ??_C@_0BE@FPKDPBJI@__COMMAND_LINE__?5?$DN?5?$AA@
CONST	SEGMENT
??_C@_0BE@FPKDPBJI@__COMMAND_LINE__?5?$DN?5?$AA@ DB '__COMMAND_LINE__ = ', 00H ; `string'
CONST	ENDS
;	COMDAT ??_C@_04NBFCGMPH@root?$AA@
CONST	SEGMENT
??_C@_04NBFCGMPH@root?$AA@ DB 'root', 00H		; `string'
CONST	ENDS
;	COMDAT ??_C@_09ODEGJGJI@_texcache?$AA@
CONST	SEGMENT
??_C@_09ODEGJGJI@_texcache?$AA@ DB '_texcache', 00H	; `string'
CONST	ENDS
;	COMDAT ??_C@_0BI@JAFKHBD@RegisterDebugFlag?5Error?$AA@
CONST	SEGMENT
??_C@_0BI@JAFKHBD@RegisterDebugFlag?5Error?$AA@ DB 'RegisterDebugFlag Err'
	DB	'or', 00H					; `string'
CONST	ENDS
;	COMDAT ??_C@_0O@GIEHGGHC@__DEBUG__?5?$DN?50?$AA@
CONST	SEGMENT
??_C@_0O@GIEHGGHC@__DEBUG__?5?$DN?50?$AA@ DB '__DEBUG__ = 0', 00H ; `string'
CONST	ENDS
;	COMDAT ??_C@_04EDDHFNCG@PACK?$AA@
CONST	SEGMENT
??_C@_04EDDHFNCG@PACK?$AA@ DB 'PACK', 00H		; `string'
CONST	ENDS
;	COMDAT ??_C@_04PMPMHNFI@FILE?$AA@
CONST	SEGMENT
??_C@_04PMPMHNFI@FILE?$AA@ DB 'FILE', 00H		; `string'
CONST	ENDS
;	COMDAT ??_C@_0BG@FJMFFOHK@?$LO?K?$LI?$LC?3?5?F?Q?5?$LI?p?$LF?e?$MA?T?$LE?O?$LE?Y?4?6?$AA@
CONST	SEGMENT
??_C@_0BG@FJMFFOHK@?$LO?K?$LI?$LC?3?5?F?Q?5?$LI?p?$LF?e?$MA?T?$LE?O?$LE?Y?4?6?$AA@ DB 0beH
	DB	0cbH, 0b8H, 0b2H, ': ', 0c6H, 0d1H, ' ', 0b8H, 0f0H, 0b5H, 0e5H
	DB	0c0H, 0d4H, 0b4H, 0cfH, 0b4H, 0d9H, '.', 0aH, 00H ; `string'
CONST	ENDS
;	COMDAT ??_C@_0ED@CBACJNDK@Pack?1Index?5has?5invalid?5syntax?4?5F@
CONST	SEGMENT
??_C@_0ED@CBACJNDK@Pack?1Index?5has?5invalid?5syntax?4?5F@ DB 'Pack/Index'
	DB	' has invalid syntax. First line must be ''PACK'' or ''FILE''', 00H ; `string'
CONST	ENDS
;	COMDAT ??_C@_02LFNMGJAP@en?$AA@
CONST	SEGMENT
??_C@_02LFNMGJAP@en?$AA@ DB 'en', 00H			; `string'
CONST	ENDS
;	COMDAT ??_C@_07GHKFPDHK@locale?1?$AA@
CONST	SEGMENT
??_C@_07GHKFPDHK@locale?1?$AA@ DB 'locale/', 00H	; `string'
CONST	ENDS
;	COMDAT ??_C@_0CA@PJKENNIH@FATAL?5ERROR?$CB?5File?5not?5exist?3?5?$CFs?$AA@
CONST	SEGMENT
??_C@_0CA@PJKENNIH@FATAL?5ERROR?$CB?5File?5not?5exist?3?5?$CFs?$AA@ DB 'F'
	DB	'ATAL ERROR! File not exist: %s', 00H	; `string'
CONST	ENDS
;	COMDAT ??_C@_05FNNGFGLF@Index?$AA@
CONST	SEGMENT
??_C@_05FNNGFGLF@Index?$AA@ DB 'Index', 00H		; `string'
CONST	ENDS
;	COMDAT ??_C@_04HOGMCHDB@lib?2?$AA@
CONST	SEGMENT
??_C@_04HOGMCHDB@lib?2?$AA@ DB 'lib\', 00H		; `string'
CONST	ENDS
;	COMDAT ??_C@_09EHIBBABK@types?4pyc?$AA@
CONST	SEGMENT
??_C@_09EHIBBABK@types?4pyc?$AA@ DB 'types.pyc', 00H	; `string'
CONST	ENDS
;	COMDAT ??_C@_0BB@FPBAACEA@metin2client?4dat?$AA@
CONST	SEGMENT
??_C@_0BB@FPBAACEA@metin2client?4dat?$AA@ DB 'metin2client.dat', 00H ; `string'
CONST	ENDS
;	COMDAT ??_C@_01KICIPPFI@?2?$AA@
CONST	SEGMENT
??_C@_01KICIPPFI@?2?$AA@ DB '\', 00H			; `string'
CONST	ENDS
;	COMDAT ??_C@_08EFIONJOP@stat?4pyc?$AA@
CONST	SEGMENT
??_C@_08EFIONJOP@stat?4pyc?$AA@ DB 'stat.pyc', 00H	; `string'
CONST	ENDS
;	COMDAT ??_C@_08FPFMJPEC@site?4pyc?$AA@
CONST	SEGMENT
??_C@_08FPFMJPEC@site?4pyc?$AA@ DB 'site.pyc', 00H	; `string'
CONST	ENDS
;	COMDAT ??_C@_0O@PMKHJGGH@traceback?4pyc?$AA@
CONST	SEGMENT
??_C@_0O@PMKHJGGH@traceback?4pyc?$AA@ DB 'traceback.pyc', 00H ; `string'
CONST	ENDS
;	COMDAT ??_C@_0L@NDKNFNNI@string?4pyc?$AA@
CONST	SEGMENT
??_C@_0L@NDKNFNNI@string?4pyc?$AA@ DB 'string.pyc', 00H	; `string'
CONST	ENDS
;	COMDAT ??_C@_0O@COBIIGAD@linecache?4pyc?$AA@
CONST	SEGMENT
??_C@_0O@COBIIGAD@linecache?4pyc?$AA@ DB 'linecache.pyc', 00H ; `string'
CONST	ENDS
;	COMDAT ??_C@_0N@GCNFBOJN@copy_reg?4pyc?$AA@
CONST	SEGMENT
??_C@_0N@GCNFBOJN@copy_reg?4pyc?$AA@ DB 'copy_reg.pyc', 00H ; `string'
CONST	ENDS
;	COMDAT ??_C@_06JCOFDJKA@os?4pyc?$AA@
CONST	SEGMENT
??_C@_06JCOFDJKA@os?4pyc?$AA@ DB 'os.pyc', 00H		; `string'
CONST	ENDS
;	COMDAT ??_C@_0L@HJCEJGHC@ntpath?4pyc?$AA@
CONST	SEGMENT
??_C@_0L@HJCEJGHC@ntpath?4pyc?$AA@ DB 'ntpath.pyc', 00H	; `string'
CONST	ENDS
;	COMDAT ??_C@_0P@KBODAEKE@__future__?4pyc?$AA@
CONST	SEGMENT
??_C@_0P@KBODAEKE@__future__?4pyc?$AA@ DB '__future__.pyc', 00H ; `string'
CONST	ENDS
;	COMDAT ??_C@_0N@CMMKLLC@UserDict?4pyc?$AA@
CONST	SEGMENT
??_C@_0N@CMMKLLC@UserDict?4pyc?$AA@ DB 'UserDict.pyc', 00H ; `string'
_sc_apszPythonLibraryFilenames DD FLAT:??_C@_0N@CMMKLLC@UserDict?4pyc?$AA@
	DD	FLAT:??_C@_0P@KBODAEKE@__future__?4pyc?$AA@
	DD	FLAT:??_C@_0N@GCNFBOJN@copy_reg?4pyc?$AA@
	DD	FLAT:??_C@_0O@COBIIGAD@linecache?4pyc?$AA@
	DD	FLAT:??_C@_0L@HJCEJGHC@ntpath?4pyc?$AA@
	DD	FLAT:??_C@_06JCOFDJKA@os?4pyc?$AA@
	DD	FLAT:??_C@_08FPFMJPEC@site?4pyc?$AA@
	DD	FLAT:??_C@_08EFIONJOP@stat?4pyc?$AA@
	DD	FLAT:??_C@_0L@NDKNFNNI@string?4pyc?$AA@
	DD	FLAT:??_C@_0O@PMKHJGGH@traceback?4pyc?$AA@
	DD	FLAT:??_C@_09EHIBBABK@types?4pyc?$AA@
	DD	FLAT:??_C@_01EEMJAFIK@?6?$AA@
PUBLIC	?insert@?$basic_string@DU?$char_traits@D@std@@V?$allocator@D@2@@std@@QAEAAV12@IABV12@II@Z ; std::basic_string<char,std::char_traits<char>,std::allocator<char> >::insert
PUBLIC	??F?$_Vector_const_iterator@V?$_Vector_val@U?$_Simple_types@V?$basic_string@DU?$char_traits@D@std@@V?$allocator@D@2@@std@@@std@@@std@@@std@@QAEAAV01@XZ ; std::_Vector_const_iterator<std::_Vector_val<std::_Simple_types<std::basic_string<char,std::char_traits<char>,std::allocator<char> > > > >::operator--
PUBLIC	??E?$_Vector_const_iterator@V?$_Vector_val@U?$_Simple_types@V?$basic_string@DU?$char_traits@D@std@@V?$allocator@D@2@@std@@@std@@@std@@@std@@QAE?AV01@H@Z ; std::_Vector_const_iterator<std::_Vector_val<std::_Simple_types<std::basic_string<char,std::char_traits<char>,std::allocator<char> > > > >::operator++
PUBLIC	?insert@?$basic_string@DU?$char_traits@D@std@@V?$allocator@D@2@@std@@QAEAAV12@IABV12@@Z ; std::basic_string<char,std::char_traits<char>,std::allocator<char> >::insert
PUBLIC	??$string_join@V?$vector@V?$basic_string@DU?$char_traits@D@std@@V?$allocator@D@2@@std@@V?$allocator@V?$basic_string@DU?$char_traits@D@std@@V?$allocator@D@2@@std@@@2@@std@@@@YAXABV?$basic_string@DU?$char_traits@D@std@@V?$allocator@D@2@@std@@ABV?$vector@V?$basic_string@DU?$char_traits@D@std@@V?$allocator@D@2@@std@@V?$allocator@V?$basic_string@DU?$char_traits@D@std@@V?$allocator@D@2@@std@@@2@@1@PAV01@@Z ; string_join<std::vector<std::basic_string<char,std::char_traits<char>,std::allocator<char> >,std::allocator<std::basic_string<char,std::char_traits<char>,std::allocator<char> > > > >
PUBLIC	??$?HDU?$char_traits@D@std@@V?$allocator@D@1@@std@@YA?AV?$basic_string@DU?$char_traits@D@std@@V?$allocator@D@2@@0@ABV10@$$QAV10@@Z ; std::operator+<char,std::char_traits<char>,std::allocator<char> >
PUBLIC	??Y?$basic_string@DU?$char_traits@D@std@@V?$allocator@D@2@@std@@QAEAAV01@D@Z ; std::basic_string<char,std::char_traits<char>,std::allocator<char> >::operator+=
PUBLIC	?Setup@@YAHPAD@Z				; Setup
PUBLIC	_WinMain@16
PUBLIC	?__IsLocaleVersion@@YA_NPAD@Z			; __IsLocaleVersion
PUBLIC	?__IsLocaleOption@@YA_NPAD@Z			; __IsLocaleOption
PUBLIC	?__PrintTimeStamp@@YAXXZ			; __PrintTimeStamp
PUBLIC	?__IsTimeStampOption@@YA_NPAD@Z			; __IsTimeStampOption
PUBLIC	?__ErrorPythonLibraryIsNotExist@@YAXXZ		; __ErrorPythonLibraryIsNotExist
PUBLIC	?Main@@YA_NPAUHINSTANCE__@@PAD@Z		; Main
PUBLIC	?RunMainScript@@YA_NAAVCPythonLauncher@@PBD@Z	; RunMainScript
PUBLIC	?PackInitialize@@YA_NPBD@Z			; PackInitialize
PUBLIC	?ApplicationStringTable_GetString@@YAABV?$basic_string@DU?$char_traits@D@std@@V?$allocator@D@2@@std@@KPBD@Z ; ApplicationStringTable_GetString
PUBLIC	?ApplicationStringTable_Initialize@@YAXPAUHINSTANCE__@@@Z ; ApplicationStringTable_Initialize
PUBLIC	??1ApplicationStringTable@@QAE@XZ		; ApplicationStringTable::~ApplicationStringTable
PUBLIC	??0ApplicationStringTable@@QAE@XZ		; ApplicationStringTable::ApplicationStringTable
PUBLIC	?CheckPythonLibraryFilenames@@YA_NXZ		; CheckPythonLibraryFilenames
PUBLIC	?METIN2_GET_VERSION@@YAHXZ			; METIN2_GET_VERSION
PUBLIC	?ApplicationStringTable_GetString@@YAABV?$basic_string@DU?$char_traits@D@std@@V?$allocator@D@2@@std@@K@Z ; ApplicationStringTable_GetString
PUBLIC	?ApplicationStringTable_GetStringz@@YAPBDKPBD@Z	; ApplicationStringTable_GetStringz
PUBLIC	__AVOID_FLOATING_POINT_LIBRARY_BUG
PUBLIC	?gs_kAppStrTable@@3UApplicationStringTable@@A	; gs_kAppStrTable
	ALIGN	4

_piecewise_construct DB 01H DUP (?)
	ALIGN	4

__AVOID_FLOATING_POINT_LIBRARY_BUG DD 01H DUP (?)
?gs_kAppStrTable@@3UApplicationStringTable@@A DB 0cH DUP (?) ; gs_kAppStrTable
_BSS	ENDS
;	COMDAT ?$S1@?9??Main@@YA_NPAUHINSTANCE__@@PAD@Z@4IA
_BSS	SEGMENT
?$S1@?9??Main@@YA_NPAUHINSTANCE__@@PAD@Z@4IA DD 01H DUP (?) ; S1<`template-parameter-10',in,A_NPAUHINSTANCE__,char *>
_BSS	ENDS
;	COMDAT ?lzo@?9??Main@@YA_NPAUHINSTANCE__@@PAD@Z@4VCLZO@@A
_BSS	SEGMENT
?lzo@?9??Main@@YA_NPAUHINSTANCE__@@PAD@Z@4VCLZO@@A DQ 01H DUP (?) ; `Main'::`10'::lzo
_BSS	ENDS
;	COMDAT ?EterPackManager@?9??Main@@YA_NPAUHINSTANCE__@@PAD@Z@4VCEterPackManager@@A
_BSS	SEGMENT
?EterPackManager@?9??Main@@YA_NPAUHINSTANCE__@@PAD@Z@4VCEterPackManager@@A DB 01478H DUP (?) ; `Main'::`10'::EterPackManager
_piecewise_construct DB 01H DUP (?)
_BSS	ENDS
;	COMDAT xdata$x
xdata$x	SEGMENT
__ehfuncinfo$?CheckPythonLibraryFilenames@@YA_NXZ DD 019930522H
	DD	01H
	DD	FLAT:__unwindtable$?CheckPythonLibraryFilenames@@YA_NXZ
	DD	2 DUP(00H)
	DD	2 DUP(00H)
	DD	00H
	DD	01H
__unwindtable$?CheckPythonLibraryFilenames@@YA_NXZ DD 0ffffffffH
	DD	FLAT:__unwindfunclet$?CheckPythonLibraryFilenames@@YA_NXZ$0
xdata$x	ENDS
;	COMDAT xdata$x
xdata$x	SEGMENT
__ehfuncinfo$?PackInitialize@@YA_NPBD@Z DD 019930522H
	DD	08H
	DD	FLAT:__unwindtable$?PackInitialize@@YA_NPBD@Z
	DD	2 DUP(00H)
	DD	2 DUP(00H)
	DD	00H
	DD	01H
	ORG $+4
__unwindtable$?PackInitialize@@YA_NPBD@Z DD 0ffffffffH
	DD	FLAT:__unwindfunclet$?PackInitialize@@YA_NPBD@Z$0
	DD	00H
	DD	FLAT:__unwindfunclet$?PackInitialize@@YA_NPBD@Z$1
	DD	01H
	DD	FLAT:__unwindfunclet$?PackInitialize@@YA_NPBD@Z$2
	DD	02H
	DD	FLAT:__unwindfunclet$?PackInitialize@@YA_NPBD@Z$3
	DD	03H
	DD	FLAT:__unwindfunclet$?PackInitialize@@YA_NPBD@Z$4
	DD	04H
	DD	FLAT:__unwindfunclet$?PackInitialize@@YA_NPBD@Z$5
	DD	05H
	DD	FLAT:__unwindfunclet$?PackInitialize@@YA_NPBD@Z$8
	DD	06H
	DD	FLAT:__unwindfunclet$?PackInitialize@@YA_NPBD@Z$9
xdata$x	ENDS
;	COMDAT xdata$x
xdata$x	SEGMENT
__ehfuncinfo$?RunMainScript@@YA_NAAVCPythonLauncher@@PBD@Z DD 019930522H
	DD	07H
	DD	FLAT:__unwindtable$?RunMainScript@@YA_NAAVCPythonLauncher@@PBD@Z
	DD	2 DUP(00H)
	DD	2 DUP(00H)
	DD	00H
	DD	01H
__unwindtable$?RunMainScript@@YA_NAAVCPythonLauncher@@PBD@Z DD 0ffffffffH
	DD	FLAT:__unwindfunclet$?RunMainScript@@YA_NAAVCPythonLauncher@@PBD@Z$0
	DD	0ffffffffH
	DD	FLAT:__unwindfunclet$?RunMainScript@@YA_NAAVCPythonLauncher@@PBD@Z$1
	DD	01H
	DD	FLAT:__unwindfunclet$?RunMainScript@@YA_NAAVCPythonLauncher@@PBD@Z$2
	DD	02H
	DD	FLAT:__unwindfunclet$?RunMainScript@@YA_NAAVCPythonLauncher@@PBD@Z$3
	DD	03H
	DD	FLAT:__unwindfunclet$?RunMainScript@@YA_NAAVCPythonLauncher@@PBD@Z$4
	DD	03H
	DD	FLAT:__unwindfunclet$?RunMainScript@@YA_NAAVCPythonLauncher@@PBD@Z$5
	DD	0ffffffffH
	DD	FLAT:__unwindfunclet$?RunMainScript@@YA_NAAVCPythonLauncher@@PBD@Z$6
xdata$x	ENDS
;	COMDAT xdata$x
xdata$x	SEGMENT
__ehfuncinfo$?Main@@YA_NPAUHINSTANCE__@@PAD@Z DD 019930522H
	DD	05H
	DD	FLAT:__unwindtable$?Main@@YA_NPAUHINSTANCE__@@PAD@Z
	DD	2 DUP(00H)
	DD	2 DUP(00H)
	DD	00H
	DD	01H
__unwindtable$?Main@@YA_NPAUHINSTANCE__@@PAD@Z DD 0ffffffffH
	DD	FLAT:__unwindfunclet$?Main@@YA_NPAUHINSTANCE__@@PAD@Z$0
	DD	0ffffffffH
	DD	FLAT:__unwindfunclet$?Main@@YA_NPAUHINSTANCE__@@PAD@Z$1
	DD	0ffffffffH
	DD	FLAT:__unwindfunclet$?Main@@YA_NPAUHINSTANCE__@@PAD@Z$2
	DD	0ffffffffH
	DD	FLAT:__unwindfunclet$?Main@@YA_NPAUHINSTANCE__@@PAD@Z$3
	DD	03H
	DD	FLAT:__unwindfunclet$?Main@@YA_NPAUHINSTANCE__@@PAD@Z$4
xdata$x	ENDS
;	COMDAT xdata$x
xdata$x	SEGMENT
__ehfuncinfo$??$string_join@V?$vector@V?$basic_string@DU?$char_traits@D@std@@V?$allocator@D@2@@std@@V?$allocator@V?$basic_string@DU?$char_traits@D@std@@V?$allocator@D@2@@std@@@2@@std@@@@YAXABV?$basic_string@DU?$char_traits@D@std@@V?$allocator@D@2@@std@@ABV?$vector@V?$basic_string@DU?$char_traits@D@std@@V?$allocator@D@2@@std@@V?$allocator@V?$basic_string@DU?$char_traits@D@std@@V?$allocator@D@2@@std@@@2@@1@PAV01@@Z DD 019930522H
	DD	02H
	DD	FLAT:__unwindtable$??$string_join@V?$vector@V?$basic_string@DU?$char_traits@D@std@@V?$allocator@D@2@@std@@V?$allocator@V?$basic_string@DU?$char_traits@D@std@@V?$allocator@D@2@@std@@@2@@std@@@@YAXABV?$basic_string@DU?$char_traits@D@std@@V?$allocator@D@2@@std@@ABV?$vector@V?$basic_string@DU?$char_traits@D@std@@V?$allocator@D@2@@std@@V?$allocator@V?$basic_string@DU?$char_traits@D@std@@V?$allocator@D@2@@std@@@2@@1@PAV01@@Z
	DD	2 DUP(00H)
	DD	2 DUP(00H)
	DD	00H
	DD	01H
__unwindtable$??$string_join@V?$vector@V?$basic_string@DU?$char_traits@D@std@@V?$allocator@D@2@@std@@V?$allocator@V?$basic_string@DU?$char_traits@D@std@@V?$allocator@D@2@@std@@@2@@std@@@@YAXABV?$basic_string@DU?$char_traits@D@std@@V?$allocator@D@2@@std@@ABV?$vector@V?$basic_string@DU?$char_traits@D@std@@V?$allocator@D@2@@std@@V?$allocator@V?$basic_string@DU?$char_traits@D@std@@V?$allocator@D@2@@std@@@2@@1@PAV01@@Z DD 0ffffffffH
	DD	FLAT:__unwindfunclet$??$string_join@V?$vector@V?$basic_string@DU?$char_traits@D@std@@V?$allocator@D@2@@std@@V?$allocator@V?$basic_string@DU?$char_traits@D@std@@V?$allocator@D@2@@std@@@2@@std@@@@YAXABV?$basic_string@DU?$char_traits@D@std@@V?$allocator@D@2@@std@@ABV?$vector@V?$basic_string@DU?$char_traits@D@std@@V?$allocator@D@2@@std@@V?$allocator@V?$basic_string@DU?$char_traits@D@std@@V?$allocator@D@2@@std@@@2@@1@PAV01@@Z$0
	DD	00H
	DD	00H
	ORG $-96
__AVOID_FLOATING_POINT_LIBRARY_BUG$initializer$ DD FLAT:??__E_AVOID_FLOATING_POINT_LIBRARY_BUG@@YAXXZ
_gs_kAppStrTable$initializer$ DD FLAT:??__Egs_kAppStrTable@@YAXXZ
; Function compile flags: /Ogtp
; File d:\metin2\metin2\client_source_clean\client_source_clean\source\userinterface\userinterface.cpp
; File c:\program files (x86)\microsoft visual studio 12.0\vc\include\xstring
; File d:\metin2\metin2\client_source_clean\client_source_clean\source\userinterface\userinterface.cpp
;	COMDAT ?ApplicationStringTable_GetStringz@@YAPBDKPBD@Z
_TEXT	SEGMENT
?ApplicationStringTable_GetStringz@@YAPBDKPBD@Z PROC	; ApplicationStringTable_GetStringz, COMDAT
; _dwID$ = ecx
; _szKey$ = edx

; 150  : 	return ApplicationStringTable_GetString(dwID, szKey).c_str();

  00000	e8 00 00 00 00	 call	 ?ApplicationStringTable_GetString@@YAABV?$basic_string@DU?$char_traits@D@std@@V?$allocator@D@2@@std@@KPBD@Z ; ApplicationStringTable_GetString
; File c:\program files (x86)\microsoft visual studio 12.0\vc\include\xstring

; 520  : 			: this->_Bx._Buf);

  00005	83 78 14 10	 cmp	 DWORD PTR [eax+20], 16	; 00000010H
  00009	72 02		 jb	 SHORT $LN8@Applicatio
; File d:\metin2\metin2\client_source_clean\client_source_clean\source\userinterface\userinterface.cpp

; 150  : 	return ApplicationStringTable_GetString(dwID, szKey).c_str();

  0000b	8b 00		 mov	 eax, DWORD PTR [eax]
$LN8@Applicatio:

; 151  : }

  0000d	c3		 ret	 0
?ApplicationStringTable_GetStringz@@YAPBDKPBD@Z ENDP	; ApplicationStringTable_GetStringz
_TEXT	ENDS
; Function compile flags: /Ogtp
; File d:\metin2\metin2\client_source_clean\client_source_clean\source\userinterface\userinterface.cpp
; File c:\program files (x86)\microsoft visual studio 12.0\vc\include\iosfwd
; File d:\metin2\metin2\client_source_clean\client_source_clean\source\userinterface\userinterface.cpp
; File c:\program files (x86)\microsoft visual studio 12.0\vc\include\iosfwd
; File c:\program files (x86)\microsoft visual studio 12.0\vc\include\xstring
; File d:\metin2\metin2\client_source_clean\client_source_clean\source\userinterface\userinterface.cpp
;	COMDAT ?ApplicationStringTable_GetString@@YAABV?$basic_string@DU?$char_traits@D@std@@V?$allocator@D@2@@std@@K@Z
_TEXT	SEGMENT
_dwID$ = -520						; size = 4
_szBuffer$ = -516					; size = 512
__$ArrayPad$ = -4					; size = 4
?ApplicationStringTable_GetString@@YAABV?$basic_string@DU?$char_traits@D@std@@V?$allocator@D@2@@std@@K@Z PROC ; ApplicationStringTable_GetString, COMDAT
; _dwID$dead$ = ecx

; 138  : {

  00000	55		 push	 ebp
  00001	8b ec		 mov	 ebp, esp
  00003	81 ec 0c 02 00
	00		 sub	 esp, 524		; 0000020cH
  00009	a1 00 00 00 00	 mov	 eax, DWORD PTR ___security_cookie
  0000e	33 c5		 xor	 eax, ebp
  00010	89 45 fc	 mov	 DWORD PTR __$ArrayPad$[ebp], eax
  00013	56		 push	 esi

; 139  : 	char szBuffer[512];
; 140  : 
; 141  : 	LoadString(gs_kAppStrTable.m_hInstance, dwID, szBuffer, sizeof(szBuffer)-1);

  00014	68 ff 01 00 00	 push	 511			; 000001ffH
  00019	8d 85 fc fd ff
	ff		 lea	 eax, DWORD PTR _szBuffer$[ebp]
  0001f	c7 85 f8 fd ff
	ff 02 00 00 00	 mov	 DWORD PTR _dwID$[ebp], 2
  00029	50		 push	 eax
  0002a	6a 02		 push	 2
  0002c	ff 35 00 00 00
	00		 push	 DWORD PTR ?gs_kAppStrTable@@3UApplicationStringTable@@A
  00032	ff 15 00 00 00
	00		 call	 DWORD PTR __imp__LoadStringA@16

; 142  : 	std::string& rstLocale=gs_kAppStrTable.m_kMap_dwID_stLocale[dwID];

  00038	8d 85 f8 fd ff
	ff		 lea	 eax, DWORD PTR _dwID$[ebp]
  0003e	b9 04 00 00 00	 mov	 ecx, OFFSET ?gs_kAppStrTable@@3UApplicationStringTable@@A+4
  00043	50		 push	 eax
  00044	e8 00 00 00 00	 call	 ??A?$map@KV?$basic_string@DU?$char_traits@D@std@@V?$allocator@D@2@@std@@U?$less@K@2@V?$allocator@U?$pair@$$CBKV?$basic_string@DU?$char_traits@D@std@@V?$allocator@D@2@@std@@@std@@@2@@std@@QAEAAV?$basic_string@DU?$char_traits@D@std@@V?$allocator@D@2@@1@ABK@Z ; std::map<unsigned long,std::basic_string<char,std::char_traits<char>,std::allocator<char> >,std::less<unsigned long>,std::allocator<std::pair<unsigned long const ,std::basic_string<char,std::char_traits<char>,std::allocator<char> > > > >::operator[]
; File c:\program files (x86)\microsoft visual studio 12.0\vc\include\iosfwd

; 523  : 			: _CSTD strlen(_First));

  00049	80 bd fc fd ff
	ff 00		 cmp	 BYTE PTR _szBuffer$[ebp], 0
; File d:\metin2\metin2\client_source_clean\client_source_clean\source\userinterface\userinterface.cpp

; 142  : 	std::string& rstLocale=gs_kAppStrTable.m_kMap_dwID_stLocale[dwID];

  00050	8b f0		 mov	 esi, eax
; File c:\program files (x86)\microsoft visual studio 12.0\vc\include\iosfwd

; 523  : 			: _CSTD strlen(_First));

  00052	75 04		 jne	 SHORT $LN9@Applicatio
  00054	33 c9		 xor	 ecx, ecx
  00056	eb 12		 jmp	 SHORT $LN10@Applicatio
$LN9@Applicatio:
  00058	8d 8d fc fd ff
	ff		 lea	 ecx, DWORD PTR _szBuffer$[ebp]
  0005e	8d 51 01	 lea	 edx, DWORD PTR [ecx+1]
$LL11@Applicatio:
  00061	8a 01		 mov	 al, BYTE PTR [ecx]
  00063	41		 inc	 ecx
  00064	84 c0		 test	 al, al
  00066	75 f9		 jne	 SHORT $LL11@Applicatio
  00068	2b ca		 sub	 ecx, edx
$LN10@Applicatio:
; File c:\program files (x86)\microsoft visual studio 12.0\vc\include\xstring

; 1169 : 		return (assign(_Ptr, _Traits::length(_Ptr)));

  0006a	51		 push	 ecx
  0006b	8d 85 fc fd ff
	ff		 lea	 eax, DWORD PTR _szBuffer$[ebp]
  00071	8b ce		 mov	 ecx, esi
  00073	50		 push	 eax
  00074	e8 00 00 00 00	 call	 ?assign@?$basic_string@DU?$char_traits@D@std@@V?$allocator@D@2@@std@@QAEAAV12@PBDI@Z ; std::basic_string<char,std::char_traits<char>,std::allocator<char> >::assign
; File d:\metin2\metin2\client_source_clean\client_source_clean\source\userinterface\userinterface.cpp

; 146  : }

  00079	8b 4d fc	 mov	 ecx, DWORD PTR __$ArrayPad$[ebp]
  0007c	8b c6		 mov	 eax, esi
  0007e	33 cd		 xor	 ecx, ebp
  00080	5e		 pop	 esi
  00081	e8 00 00 00 00	 call	 @__security_check_cookie@4
  00086	8b e5		 mov	 esp, ebp
  00088	5d		 pop	 ebp
  00089	c3		 ret	 0
?ApplicationStringTable_GetString@@YAABV?$basic_string@DU?$char_traits@D@std@@V?$allocator@D@2@@std@@K@Z ENDP ; ApplicationStringTable_GetString
_TEXT	ENDS
; Function compile flags: /Ogtp
; File d:\metin2\metin2\client_source_clean\client_source_clean\source\userinterface\version.h
;	COMDAT ?METIN2_GET_VERSION@@YAHXZ
_TEXT	SEGMENT
?METIN2_GET_VERSION@@YAHXZ PROC				; METIN2_GET_VERSION, COMDAT

; 3    : int METIN2_GET_VERSION() { return 28249; }

  00000	b8 59 6e 00 00	 mov	 eax, 28249		; 00006e59H
  00005	c3		 ret	 0
?METIN2_GET_VERSION@@YAHXZ ENDP				; METIN2_GET_VERSION
_TEXT	ENDS
; Function compile flags: /Ogtp
; File d:\metin2\metin2\client_source_clean\client_source_clean\source\userinterface\userinterface.cpp
;	COMDAT ??__E_AVOID_FLOATING_POINT_LIBRARY_BUG@@YAXXZ
text$di	SEGMENT
??__E_AVOID_FLOATING_POINT_LIBRARY_BUG@@YAXXZ PROC	; `dynamic initializer for '_AVOID_FLOATING_POINT_LIBRARY_BUG'', COMDAT

; 25   : volatile int _AVOID_FLOATING_POINT_LIBRARY_BUG = _fltused;  

  00000	a1 00 00 00 00	 mov	 eax, DWORD PTR __fltused
  00005	a3 00 00 00 00	 mov	 DWORD PTR __AVOID_FLOATING_POINT_LIBRARY_BUG, eax
  0000a	c3		 ret	 0
??__E_AVOID_FLOATING_POINT_LIBRARY_BUG@@YAXXZ ENDP	; `dynamic initializer for '_AVOID_FLOATING_POINT_LIBRARY_BUG''
text$di	ENDS
; Function compile flags: /Ogtp
; File d:\metin2\metin2\client_source_clean\client_source_clean\source\userinterface\userinterface.cpp
; File c:\program files (x86)\microsoft visual studio 12.0\vc\include\xstring
; File c:\program files (x86)\microsoft visual studio 12.0\vc\include\iosfwd
; File c:\program files (x86)\microsoft visual studio 12.0\vc\include\xstring
; File d:\metin2\metin2\client_source_clean\client_source_clean\source\userinterface\userinterface.cpp
; File c:\program files (x86)\microsoft visual studio 12.0\vc\include\iosfwd
; File c:\program files (x86)\microsoft visual studio 12.0\vc\include\xstring
; File d:\metin2\metin2\client_source_clean\client_source_clean\source\userinterface\userinterface.cpp
; File c:\program files (x86)\microsoft visual studio 12.0\vc\include\xstring
; File d:\metin2\metin2\client_source_clean\client_source_clean\source\userinterface\userinterface.cpp
; File c:\program files (x86)\microsoft visual studio 12.0\vc\include\xstring
; File d:\metin2\metin2\client_source_clean\client_source_clean\source\userinterface\userinterface.cpp
; File c:\program files (x86)\microsoft visual studio 12.0\vc\include\xstring
; File c:\program files (x86)\microsoft visual studio 12.0\vc\include\xmemory0
; File d:\metin2\metin2\client_source_clean\client_source_clean\source\userinterface\userinterface.cpp
; File c:\program files (x86)\microsoft visual studio 12.0\vc\include\xstring
; File c:\program files (x86)\microsoft visual studio 12.0\vc\include\xmemory0
; File d:\metin2\metin2\client_source_clean\client_source_clean\source\userinterface\userinterface.cpp
;	COMDAT ?CheckPythonLibraryFilenames@@YA_NXZ
_TEXT	SEGMENT
_stFilename$2 = -44					; size = 24
__$ArrayPad$ = -20					; size = 4
__$EHRec$ = -12						; size = 12
?CheckPythonLibraryFilenames@@YA_NXZ PROC		; CheckPythonLibraryFilenames, COMDAT

; 81   : {

  00000	55		 push	 ebp
  00001	8b ec		 mov	 ebp, esp
  00003	83 e4 f8	 and	 esp, -8			; fffffff8H
  00006	6a ff		 push	 -1
  00008	68 00 00 00 00	 push	 __ehhandler$?CheckPythonLibraryFilenames@@YA_NXZ
  0000d	64 a1 00 00 00
	00		 mov	 eax, DWORD PTR fs:0
  00013	50		 push	 eax
  00014	83 ec 20	 sub	 esp, 32			; 00000020H
  00017	a1 00 00 00 00	 mov	 eax, DWORD PTR ___security_cookie
  0001c	33 c4		 xor	 eax, esp
  0001e	89 44 24 18	 mov	 DWORD PTR __$ArrayPad$[esp+44], eax
  00022	53		 push	 ebx
  00023	56		 push	 esi
  00024	57		 push	 edi
  00025	a1 00 00 00 00	 mov	 eax, DWORD PTR ___security_cookie
  0002a	33 c4		 xor	 eax, esp
  0002c	50		 push	 eax
  0002d	8d 44 24 30	 lea	 eax, DWORD PTR __$EHRec$[esp+60]
  00031	64 a3 00 00 00
	00		 mov	 DWORD PTR fs:0, eax

; 82   : 	for (int i = 0; *sc_apszPythonLibraryFilenames[i] != '\n'; ++i)

  00037	a1 00 00 00 00	 mov	 eax, DWORD PTR _sc_apszPythonLibraryFilenames
  0003c	33 ff		 xor	 edi, edi
  0003e	80 38 0a	 cmp	 BYTE PTR [eax], 10	; 0000000aH
  00041	0f 84 c8 00 00
	00		 je	 $LN2@CheckPytho
  00047	8b 1d 00 00 00
	00		 mov	 ebx, DWORD PTR __imp__MoveFileA@8
  0004d	be 00 00 00 00	 mov	 esi, OFFSET _sc_apszPythonLibraryFilenames
$LL4@CheckPytho:
; File c:\program files (x86)\microsoft visual studio 12.0\vc\include\xstring

; 1169 : 		return (assign(_Ptr, _Traits::length(_Ptr)));

  00052	6a 04		 push	 4
  00054	68 00 00 00 00	 push	 OFFSET ??_C@_04HOGMCHDB@lib?2?$AA@
  00059	8d 4c 24 18	 lea	 ecx, DWORD PTR _stFilename$2[esp+68]

; 2276 : 			{	// copy any leftovers to small buffer and deallocate
; 2277 : 			pointer _Ptr = this->_Bx._Ptr;
; 2278 : 			this->_Getal().destroy(&this->_Bx._Ptr);
; 2279 : 			if (0 < _Newsize)
; 2280 : 				_Traits::copy(this->_Bx._Buf,
; 2281 : 					_STD addressof(*_Ptr), _Newsize);
; 2282 : 			this->_Getal().deallocate(_Ptr, this->_Myres + 1);
; 2283 : 			}
; 2284 : 		this->_Myres = this->_BUF_SIZE - 1;

  0005d	c7 44 24 2c 0f
	00 00 00	 mov	 DWORD PTR _stFilename$2[esp+88], 15 ; 0000000fH

; 1170 : 		}
; 1171 : 
; 1172 : 	_Myt& assign(size_type _Count, _Elem _Ch)
; 1173 : 		{	// assign _Count * _Ch
; 1174 : 		if (_Count == npos)
; 1175 : 			_Xlen();	// result too long
; 1176 : 
; 1177 : 		if (_Grow(_Count))
; 1178 : 			{	// make room and assign new stuff
; 1179 : 			_Chassign(0, _Count, _Ch);
; 1180 : 			_Eos(_Count);
; 1181 : 			}
; 1182 : 		return (*this);
; 1183 : 		}
; 1184 : 
; 1185 : 	template<class _Iter>
; 1186 : 		typename enable_if<_Is_iterator<_Iter>::value,
; 1187 : 			_Myt&>::type
; 1188 : 		assign(_Iter _First, _Iter _Last)
; 1189 : 		{	// assign [_First, _Last), input iterators
; 1190 : 		return (replace(begin(), end(), _First, _Last));
; 1191 : 		}
; 1192 : 
; 1193 : 	_Myt& assign(const_pointer _First, const_pointer _Last)
; 1194 : 		{	// assign [_First, _Last), const pointers
; 1195 : 		return (replace(begin(), end(), _First, _Last));
; 1196 : 		}
; 1197 : 
; 1198 : 	_Myt& assign(const_iterator _First, const_iterator _Last)
; 1199 : 		{	// assign [_First, _Last), const_iterators
; 1200 : 		return (replace(begin(), end(), _First, _Last));
; 1201 : 		}
; 1202 : 
; 1203 : 	_Myt& insert(size_type _Off, const _Myt& _Right)
; 1204 : 		{	// insert _Right at _Off
; 1205 : 		return (insert(_Off, _Right, 0, npos));
; 1206 : 		}
; 1207 : 
; 1208 : 	_Myt& insert(size_type _Off,
; 1209 : 		const _Myt& _Right, size_type _Roff, size_type _Count)
; 1210 : 		{	// insert _Right [_Roff, _Roff + _Count) at _Off
; 1211 : 		if (this->_Mysize < _Off || _Right.size() < _Roff)
; 1212 : 			_Xran();	// _Off or _Roff off end
; 1213 : 		size_type _Num = _Right.size() - _Roff;
; 1214 : 		if (_Num < _Count)
; 1215 : 			_Count = _Num;	// trim _Count to size
; 1216 : 		if (npos - this->_Mysize <= _Count)
; 1217 : 			_Xlen();	// result too long
; 1218 : 
; 1219 : 		if (0 < _Count && _Grow(_Num = this->_Mysize + _Count))
; 1220 : 			{	// make room and insert new stuff
; 1221 : 			_Traits::move(this->_Myptr() + _Off + _Count,
; 1222 : 				this->_Myptr() + _Off,
; 1223 : 				this->_Mysize - _Off);	// empty out hole
; 1224 : 			if (this == &_Right)
; 1225 : 				_Traits::move(this->_Myptr() + _Off,
; 1226 : 					this->_Myptr() + (_Off < _Roff ? _Roff + _Count : _Roff),
; 1227 : 						_Count);	// substring
; 1228 : 			else
; 1229 : 				_Traits::copy(this->_Myptr() + _Off,
; 1230 : 					_Right._Myptr() + _Roff, _Count);	// fill hole
; 1231 : 			_Eos(_Num);
; 1232 : 			}
; 1233 : 		return (*this);
; 1234 : 		}
; 1235 : 
; 1236 : 	_Myt& insert(size_type _Off,
; 1237 : 		const _Elem *_Ptr, size_type _Count)
; 1238 : 		{	// insert [_Ptr, _Ptr + _Count) at _Off
; 1239 :  #if _ITERATOR_DEBUG_LEVEL == 2
; 1240 : 		if (_Count != 0)
; 1241 : 			_DEBUG_POINTER(_Ptr);
; 1242 :  #endif /* _ITERATOR_DEBUG_LEVEL == 2 */
; 1243 : 
; 1244 : 		if (_Inside(_Ptr))
; 1245 : 			return (insert(_Off, *this,
; 1246 : 				_Ptr - this->_Myptr(), _Count));	// substring
; 1247 : 		if (this->_Mysize < _Off)
; 1248 : 			_Xran();	// _Off off end
; 1249 : 		if (npos - this->_Mysize <= _Count)
; 1250 : 			_Xlen();	// result too long
; 1251 : 		size_type _Num;
; 1252 : 		if (0 < _Count && _Grow(_Num = this->_Mysize + _Count))
; 1253 : 			{	// make room and insert new stuff
; 1254 : 			_Traits::move(this->_Myptr() + _Off + _Count,
; 1255 : 				this->_Myptr() + _Off,
; 1256 : 				this->_Mysize - _Off);	// empty out hole
; 1257 : 			_Traits::copy(this->_Myptr() + _Off, _Ptr, _Count);	// fill hole
; 1258 : 			_Eos(_Num);
; 1259 : 			}
; 1260 : 		return (*this);
; 1261 : 		}
; 1262 : 
; 1263 : 	_Myt& insert(size_type _Off, const _Elem *_Ptr)
; 1264 : 		{	// insert [_Ptr, <null>) at _Off
; 1265 : 		_DEBUG_POINTER(_Ptr);
; 1266 : 		return (insert(_Off, _Ptr, _Traits::length(_Ptr)));
; 1267 : 		}
; 1268 : 
; 1269 : 	_Myt& insert(size_type _Off,
; 1270 : 		size_type _Count, _Elem _Ch)
; 1271 : 		{	// insert _Count * _Ch at _Off
; 1272 : 		if (this->_Mysize < _Off)
; 1273 : 			_Xran();	// _Off off end
; 1274 : 		if (npos - this->_Mysize <= _Count)
; 1275 : 			_Xlen();	// result too long
; 1276 : 		size_type _Num;
; 1277 : 		if (0 < _Count && _Grow(_Num = this->_Mysize + _Count))
; 1278 : 			{	// make room and insert new stuff
; 1279 : 			_Traits::move(this->_Myptr() + _Off + _Count,
; 1280 : 				this->_Myptr() + _Off,
; 1281 : 				this->_Mysize - _Off);	// empty out hole
; 1282 : 			_Chassign(_Off, _Count, _Ch);	// fill hole
; 1283 : 			_Eos(_Num);
; 1284 : 			}
; 1285 : 		return (*this);
; 1286 : 		}
; 1287 : 
; 1288 : 	iterator insert(const_iterator _Where)
; 1289 : 		{	// insert <null> at _Where
; 1290 : 		return (insert(_Where, _Elem()));
; 1291 : 		}
; 1292 : 
; 1293 : 	iterator insert(const_iterator _Where, _Elem _Ch)
; 1294 : 		{	// insert _Ch at _Where
; 1295 : 		size_type _Off = _Pdif(_Where, begin());
; 1296 : 		insert(_Off, 1, _Ch);
; 1297 : 		return (begin() + _Off);
; 1298 : 		}
; 1299 : 
; 1300 : 	iterator insert(const_iterator _Where, size_type _Count, _Elem _Ch)
; 1301 : 		{	// insert _Count * _Elem at _Where
; 1302 : 		size_type _Off = _Pdif(_Where, begin());
; 1303 : 		insert(_Off, _Count, _Ch);
; 1304 : 		return (begin() + _Off);
; 1305 : 		}
; 1306 : 
; 1307 : 	template<class _Iter>
; 1308 : 		typename enable_if<_Is_iterator<_Iter>::value,
; 1309 : 			iterator>::type
; 1310 : 		insert(const_iterator _Where, _Iter _First, _Iter _Last)
; 1311 : 		{	// insert [_First, _Last) at _Where, input iterators
; 1312 : 		size_type _Off = _Pdif(_Where, begin());
; 1313 : 		replace(_Where, _Where, _First, _Last);
; 1314 : 		return (begin() + _Off);
; 1315 : 		}
; 1316 : 
; 1317 : 	iterator insert(const_iterator _Where,
; 1318 : 		const_pointer _First, const_pointer _Last)
; 1319 : 		{	// insert [_First, _Last) at _Where, const pointers
; 1320 : 		size_type _Off = _Pdif(_Where, begin());
; 1321 : 		replace(_Where, _Where, _First, _Last);
; 1322 : 		return (begin() + _Off);
; 1323 : 		}
; 1324 : 
; 1325 : 	iterator insert(const_iterator _Where,
; 1326 : 		const_iterator _First, const_iterator _Last)
; 1327 : 		{	// insert [_First, _Last) at _Where, const_iterators
; 1328 : 		size_type _Off = _Pdif(_Where, begin());
; 1329 : 		replace(_Where, _Where, _First, _Last);
; 1330 : 		return (begin() + _Off);
; 1331 : 		}
; 1332 : 
; 1333 : 	_Myt& erase(size_type _Off = 0)
; 1334 : 		{	// erase elements [_Off, ...)
; 1335 : 		if (this->_Mysize < _Off)
; 1336 : 			_Xran();	// _Off off end
; 1337 : 		_Eos(_Off);
; 1338 : 		return (*this);
; 1339 : 		}
; 1340 : 
; 1341 : 	_Myt& erase(size_type _Off, size_type _Count)
; 1342 : 		{	// erase elements [_Off, _Off + _Count)
; 1343 : 		if (this->_Mysize < _Off)
; 1344 : 			_Xran();	// _Off off end
; 1345 : 		if (this->_Mysize - _Off <= _Count)
; 1346 : 			_Eos(_Off);	// erase elements [_Off, ...)
; 1347 : 		else if (0 < _Count)
; 1348 : 			{	// move elements down
; 1349 : 			value_type *_Ptr = this->_Myptr() + _Off;
; 1350 : 			size_type _Newsize = this->_Mysize - _Count;
; 1351 : 			_Traits::move(_Ptr, _Ptr + _Count, _Newsize - _Off);
; 1352 : 			_Eos(_Newsize);
; 1353 : 			}
; 1354 : 		return (*this);
; 1355 : 		}
; 1356 : 
; 1357 : 	iterator erase(const_iterator _Where)
; 1358 : 		{	// erase element at _Where
; 1359 : 		size_type _Count = _Pdif(_Where, begin());
; 1360 : 		erase(_Count, 1);
; 1361 : 		return (_STRING_ITERATOR(this->_Myptr() + _Count));
; 1362 : 		}
; 1363 : 
; 1364 : 	iterator erase(const_iterator _First, const_iterator _Last)
; 1365 : 		{	// erase substring [_First, _Last)
; 1366 : 		_DEBUG_RANGE(_First, _Last);
; 1367 : 		size_type _Count = _Pdif(_First, begin());
; 1368 : 		erase(_Count, _Pdif(_Last, _First));
; 1369 : 		return (_STRING_ITERATOR(this->_Myptr() + _Count));
; 1370 : 		}
; 1371 : 
; 1372 : 	void clear() _NOEXCEPT
; 1373 : 		{	// erase all
; 1374 : 		_Eos(0);
; 1375 : 		}
; 1376 : 
; 1377 : 	_Myt& replace(size_type _Off, size_type _N0, const _Myt& _Right)
; 1378 : 		{	// replace [_Off, _Off + _N0) with _Right
; 1379 : 		return (replace(_Off, _N0, _Right, 0, npos));
; 1380 : 		}
; 1381 : 
; 1382 : 	_Myt& replace(size_type _Off,
; 1383 : 		size_type _N0, const _Myt& _Right, size_type _Roff, size_type _Count)
; 1384 : 		{	// replace [_Off, _Off + _N0) with _Right [_Roff, _Roff + _Count)
; 1385 : 		if (this->_Mysize < _Off || _Right.size() < _Roff)
; 1386 : 			_Xran();	// _Off or _Roff off end
; 1387 : 		if (this->_Mysize - _Off < _N0)
; 1388 : 			_N0 = this->_Mysize - _Off;	// trim _N0 to size
; 1389 : 		size_type _Num = _Right.size() - _Roff;
; 1390 : 		if (_Num < _Count)
; 1391 : 			_Count = _Num;	// trim _Count to size
; 1392 : 		if (npos - _Count <= this->_Mysize - _N0)
; 1393 : 			_Xlen();	// result too long
; 1394 : 
; 1395 : 		size_type _Nm = this->_Mysize - _N0 - _Off;	// length of kept tail
; 1396 : 		size_type _Newsize = this->_Mysize + _Count - _N0;
; 1397 : 		if (this->_Mysize < _Newsize)
; 1398 : 			_Grow(_Newsize);
; 1399 : 
; 1400 : 		if (this != &_Right)
; 1401 : 			{	// no overlap, just move down and copy in new stuff
; 1402 : 			_Traits::move(this->_Myptr() + _Off + _Count,
; 1403 : 				this->_Myptr() + _Off + _N0, _Nm);	// empty hole
; 1404 : 			_Traits::copy(this->_Myptr() + _Off,
; 1405 : 				_Right._Myptr() + _Roff, _Count);	// fill hole
; 1406 : 			}
; 1407 : 		else if (_Count <= _N0)
; 1408 : 			{	// hole doesn't get larger, just copy in substring
; 1409 : 			_Traits::move(this->_Myptr() + _Off,
; 1410 : 				this->_Myptr() + _Roff, _Count);	// fill hole
; 1411 : 			_Traits::move(this->_Myptr() + _Off + _Count,
; 1412 : 				this->_Myptr() + _Off + _N0, _Nm);	// move tail down
; 1413 : 			}
; 1414 : 		else if (_Roff <= _Off)
; 1415 : 			{	// hole gets larger, substring begins before hole
; 1416 : 			_Traits::move(this->_Myptr() + _Off + _Count,
; 1417 : 				this->_Myptr() + _Off + _N0, _Nm);	// move tail down
; 1418 : 			_Traits::move(this->_Myptr() + _Off,
; 1419 : 				this->_Myptr() + _Roff, _Count);	// fill hole
; 1420 : 			}
; 1421 : 		else if (_Off + _N0 <= _Roff)
; 1422 : 			{	// hole gets larger, substring begins after hole
; 1423 : 			_Traits::move(this->_Myptr() + _Off + _Count,
; 1424 : 				this->_Myptr() + _Off + _N0, _Nm);	// move tail down
; 1425 : 			_Traits::move(this->_Myptr() + _Off,
; 1426 : 				this->_Myptr() + (_Roff + _Count - _N0),
; 1427 : 				_Count);	// fill hole
; 1428 : 			}
; 1429 : 		else
; 1430 : 			{	// hole gets larger, substring begins in hole
; 1431 : 			_Traits::move(this->_Myptr() + _Off,
; 1432 : 				this->_Myptr() + _Roff, _N0);	// fill old hole
; 1433 : 			_Traits::move(this->_Myptr() + _Off + _Count,
; 1434 : 				this->_Myptr() + _Off + _N0, _Nm);	// move tail down
; 1435 : 			_Traits::move(this->_Myptr() + _Off + _N0,
; 1436 : 				this->_Myptr() + _Roff + _Count,
; 1437 : 				_Count - _N0);	// fill rest of new hole
; 1438 : 			}
; 1439 : 
; 1440 : 		_Eos(_Newsize);
; 1441 : 		return (*this);
; 1442 : 		}
; 1443 : 
; 1444 : 	_Myt& replace(size_type _Off,
; 1445 : 		size_type _N0, const _Elem *_Ptr, size_type _Count)
; 1446 : 		{	// replace [_Off, _Off + _N0) with [_Ptr, _Ptr + _Count)
; 1447 :  #if _ITERATOR_DEBUG_LEVEL == 2
; 1448 : 		if (_Count != 0)
; 1449 : 			_DEBUG_POINTER(_Ptr);
; 1450 :  #endif /* _ITERATOR_DEBUG_LEVEL == 2 */
; 1451 : 
; 1452 : 		if (_Inside(_Ptr))
; 1453 : 			return (replace(_Off, _N0, *this,
; 1454 : 				_Ptr - this->_Myptr(),
; 1455 : 				_Count));	// substring, replace carefully
; 1456 : 		if (this->_Mysize < _Off)
; 1457 : 			_Xran();	// _Off off end
; 1458 : 		if (this->_Mysize - _Off < _N0)
; 1459 : 			_N0 = this->_Mysize - _Off;	// trim _N0 to size
; 1460 : 		if (npos - _Count <= this->_Mysize - _N0)
; 1461 : 			_Xlen();	// result too long
; 1462 : 		size_type _Nm = this->_Mysize - _N0 - _Off;
; 1463 : 
; 1464 : 		if (_Count < _N0)
; 1465 : 			_Traits::move(this->_Myptr() + _Off + _Count,
; 1466 : 				this->_Myptr() + _Off + _N0,
; 1467 : 				_Nm);	// smaller hole, move tail up
; 1468 : 		size_type _Num;
; 1469 : 		if ((0 < _Count || 0 < _N0)
; 1470 : 			&& _Grow(_Num = this->_Mysize + _Count - _N0))
; 1471 : 			{	// make room and rearrange
; 1472 : 			if (_N0 < _Count)
; 1473 : 				_Traits::move(this->_Myptr() + _Off + _Count,
; 1474 : 					this->_Myptr() + _Off + _N0, _Nm);	// move tail down
; 1475 : 			_Traits::copy(this->_Myptr() + _Off, _Ptr, _Count);	// fill hole
; 1476 : 			_Eos(_Num);
; 1477 : 			}
; 1478 : 		return (*this);
; 1479 : 		}
; 1480 : 
; 1481 : 	_Myt& replace(size_type _Off, size_type _N0, const _Elem *_Ptr)
; 1482 : 		{	// replace [_Off, _Off + _N0) with [_Ptr, <null>)
; 1483 : 		_DEBUG_POINTER(_Ptr);
; 1484 : 		return (replace(_Off, _N0, _Ptr, _Traits::length(_Ptr)));
; 1485 : 		}
; 1486 : 
; 1487 : 	_Myt& replace(size_type _Off,
; 1488 : 		size_type _N0, size_type _Count, _Elem _Ch)
; 1489 : 		{	// replace [_Off, _Off + _N0) with _Count * _Ch
; 1490 : 		if (this->_Mysize < _Off)
; 1491 : 			_Xran();	// _Off off end
; 1492 : 		if (this->_Mysize - _Off < _N0)
; 1493 : 			_N0 = this->_Mysize - _Off;	// trim _N0 to size
; 1494 : 		if (npos - _Count <= this->_Mysize - _N0)
; 1495 : 			_Xlen();	// result too long
; 1496 : 		size_type _Nm = this->_Mysize - _N0 - _Off;
; 1497 : 
; 1498 : 		if (_Count < _N0)
; 1499 : 			_Traits::move(this->_Myptr() + _Off + _Count,
; 1500 : 				this->_Myptr() + _Off + _N0,
; 1501 : 				_Nm);	// smaller hole, move tail up
; 1502 : 		size_type _Num;
; 1503 : 		if ((0 < _Count || 0 < _N0)
; 1504 : 			&& _Grow(_Num = this->_Mysize + _Count - _N0))
; 1505 : 			{	// make room and rearrange
; 1506 : 			if (_N0 < _Count)
; 1507 : 				_Traits::move(this->_Myptr() + _Off + _Count,
; 1508 : 					this->_Myptr() + _Off + _N0, _Nm);	// move tail down
; 1509 : 			_Chassign(_Off, _Count, _Ch);	// fill hole
; 1510 : 			_Eos(_Num);
; 1511 : 			}
; 1512 : 		return (*this);
; 1513 : 		}
; 1514 : 
; 1515 : 	_Myt& replace(const_iterator _First, const_iterator _Last,
; 1516 : 		const _Myt& _Right)
; 1517 : 		{	// replace [_First, _Last) with _Right
; 1518 : 		return (replace(
; 1519 : 			_Pdif(_First, begin()), _Pdif(_Last, _First), _Right));
; 1520 : 		}
; 1521 : 
; 1522 : 	_Myt& replace(const_iterator _First, const_iterator _Last,
; 1523 : 		const _Elem *_Ptr, size_type _Count)
; 1524 : 		{	// replace [_First, _Last) with [_Ptr, _Ptr + _Count)
; 1525 : 		return (replace(
; 1526 : 			_Pdif(_First, begin()), _Pdif(_Last, _First), _Ptr, _Count));
; 1527 : 		}
; 1528 : 
; 1529 : 	_Myt& replace(const_iterator _First, const_iterator _Last,
; 1530 : 		const _Elem *_Ptr)
; 1531 : 		{	// replace [_First, _Last) with [_Ptr, <null>)
; 1532 : 		return (replace(
; 1533 : 			_Pdif(_First, begin()), _Pdif(_Last, _First), _Ptr));
; 1534 : 		}
; 1535 : 
; 1536 : 	_Myt& replace(const_iterator _First, const_iterator _Last,
; 1537 : 		size_type _Count, _Elem _Ch)
; 1538 : 		{	// replace [_First, _Last) with _Count * _Ch
; 1539 : 		return (replace(
; 1540 : 			_Pdif(_First, begin()), _Pdif(_Last, _First), _Count, _Ch));
; 1541 : 		}
; 1542 : 
; 1543 : 	template<class _Iter>
; 1544 : 		typename enable_if<_Is_iterator<_Iter>::value,
; 1545 : 			_Myt&>::type
; 1546 : 		replace(const_iterator _First, const_iterator _Last,
; 1547 : 			_Iter _First2, _Iter _Last2)
; 1548 : 		{	// replace [_First, _Last) with [_First2, _Last2), input iterators
; 1549 : 		_Myt _Right(_First2, _Last2);
; 1550 : 		replace(_First, _Last, _Right);
; 1551 : 		return (*this);
; 1552 : 		}
; 1553 : 
; 1554 : 	_Myt& replace(const_iterator _First, const_iterator _Last,
; 1555 : 		const_pointer _First2, const_pointer _Last2)
; 1556 : 		{	// replace [_First, _Last) with [_First2, _Last2), const pointers
; 1557 : 		if (_First2 == _Last2)
; 1558 : 			erase(_Pdif(_First, begin()), _Pdif(_Last, _First));
; 1559 : 		else
; 1560 : 			replace(_Pdif(_First, begin()), _Pdif(_Last, _First),
; 1561 : 				&*_First2, _Last2 - _First2);
; 1562 : 		return (*this);
; 1563 : 		}
; 1564 : 
; 1565 : 	_Myt& replace(const_iterator _First, const_iterator _Last,
; 1566 : 		pointer _First2, pointer _Last2)
; 1567 : 		{	// replace [_First, _Last) with [_First2, _Last2), const pointers
; 1568 : 		if (_First2 == _Last2)
; 1569 : 			erase(_Pdif(_First, begin()), _Pdif(_Last, _First));
; 1570 : 		else
; 1571 : 			replace(_Pdif(_First, begin()), _Pdif(_Last, _First),
; 1572 : 				&*_First2, _Last2 - _First2);
; 1573 : 		return (*this);
; 1574 : 		}
; 1575 : 
; 1576 : 	_Myt& replace(const_iterator _First, const_iterator _Last,
; 1577 : 		const_iterator _First2, const_iterator _Last2)
; 1578 : 		{	// replace [_First, _Last) with [_First2, _Last2), const_iterators
; 1579 : 		if (_First2 == _Last2)
; 1580 : 			erase(_Pdif(_First, begin()), _Pdif(_Last, _First));
; 1581 : 		else
; 1582 : 			replace(_Pdif(_First, begin()), _Pdif(_Last, _First),
; 1583 : 				&*_First2, _Last2 - _First2);
; 1584 : 		return (*this);
; 1585 : 		}
; 1586 : 
; 1587 : 	_Myt& replace(const_iterator _First, const_iterator _Last,
; 1588 : 		iterator _First2, iterator _Last2)
; 1589 : 		{	// replace [_First, _Last) with [_First2, _Last2), const_iterators
; 1590 : 		if (_First2 == _Last2)
; 1591 : 			erase(_Pdif(_First, begin()), _Pdif(_Last, _First));
; 1592 : 		else
; 1593 : 			replace(_Pdif(_First, begin()), _Pdif(_Last, _First),
; 1594 : 				&*_First2, _Last2 - _First2);
; 1595 : 		return (*this);
; 1596 : 		}
; 1597 : 
; 1598 : 	iterator begin() _NOEXCEPT
; 1599 : 		{	// return iterator for beginning of mutable sequence
; 1600 : 		return (_STRING_ITERATOR(this->_Myptr()));
; 1601 : 		}
; 1602 : 
; 1603 : 	const_iterator begin() const _NOEXCEPT
; 1604 : 		{	// return iterator for beginning of nonmutable sequence
; 1605 : 		return (_STRING_CONST_ITERATOR(this->_Myptr()));
; 1606 : 		}
; 1607 : 
; 1608 : 	iterator end() _NOEXCEPT
; 1609 : 		{	// return iterator for end of mutable sequence
; 1610 : 		return (_STRING_ITERATOR(this->_Myptr() + this->_Mysize));
; 1611 : 		}
; 1612 : 
; 1613 : 	const_iterator end() const _NOEXCEPT
; 1614 : 		{	// return iterator for end of nonmutable sequence
; 1615 : 		return (_STRING_CONST_ITERATOR(this->_Myptr() + this->_Mysize));
; 1616 : 		}
; 1617 : 
; 1618 : 	reverse_iterator rbegin() _NOEXCEPT
; 1619 : 		{	// return iterator for beginning of reversed mutable sequence
; 1620 : 		return (reverse_iterator(end()));
; 1621 : 		}
; 1622 : 
; 1623 : 	const_reverse_iterator rbegin() const _NOEXCEPT
; 1624 : 		{	// return iterator for beginning of reversed nonmutable sequence
; 1625 : 		return (const_reverse_iterator(end()));
; 1626 : 		}
; 1627 : 
; 1628 : 	reverse_iterator rend() _NOEXCEPT
; 1629 : 		{	// return iterator for end of reversed mutable sequence
; 1630 : 		return (reverse_iterator(begin()));
; 1631 : 		}
; 1632 : 
; 1633 : 	const_reverse_iterator rend() const _NOEXCEPT
; 1634 : 		{	// return iterator for end of reversed nonmutable sequence
; 1635 : 		return (const_reverse_iterator(begin()));
; 1636 : 		}
; 1637 : 
; 1638 : 	const_iterator cbegin() const _NOEXCEPT
; 1639 : 		{	// return iterator for beginning of nonmutable sequence
; 1640 : 		return (((const _Myt *)this)->begin());
; 1641 : 		}
; 1642 : 
; 1643 : 	const_iterator cend() const _NOEXCEPT
; 1644 : 		{	// return iterator for end of nonmutable sequence
; 1645 : 		return (((const _Myt *)this)->end());
; 1646 : 		}
; 1647 : 
; 1648 : 	const_reverse_iterator crbegin() const _NOEXCEPT
; 1649 : 		{	// return iterator for beginning of reversed nonmutable sequence
; 1650 : 		return (((const _Myt *)this)->rbegin());
; 1651 : 		}
; 1652 : 
; 1653 : 	const_reverse_iterator crend() const _NOEXCEPT
; 1654 : 		{	// return iterator for end of reversed nonmutable sequence
; 1655 : 		return (((const _Myt *)this)->rend());
; 1656 : 		}
; 1657 : 
; 1658 : 	void shrink_to_fit()
; 1659 : 		{	// reduce capacity
; 1660 : 		if ((size() | this->_ALLOC_MASK) < capacity())
; 1661 : 			{	// worth shrinking, do it
; 1662 : 			_Myt _Tmp(*this);
; 1663 : 			swap(_Tmp);
; 1664 : 			}
; 1665 : 		}
; 1666 : 
; 1667 : 	reference at(size_type _Off)
; 1668 : 		{	// subscript mutable sequence with checking
; 1669 : 		if (this->_Mysize <= _Off)
; 1670 : 			_Xran();	// _Off off end
; 1671 : 		return (this->_Myptr()[_Off]);
; 1672 : 		}
; 1673 : 
; 1674 : 	const_reference at(size_type _Off) const
; 1675 : 		{	// subscript nonmutable sequence with checking
; 1676 : 		if (this->_Mysize <= _Off)
; 1677 : 			_Xran();	// _Off off end
; 1678 : 		return (this->_Myptr()[_Off]);
; 1679 : 		}
; 1680 : 
; 1681 : 	reference operator[](size_type _Off)
; 1682 : 		{	// subscript mutable sequence
; 1683 :  #if _ITERATOR_DEBUG_LEVEL == 2
; 1684 : 		if (this->_Mysize < _Off)	// sic
; 1685 : 			_DEBUG_ERROR("string subscript out of range");
; 1686 : 
; 1687 :  #elif _ITERATOR_DEBUG_LEVEL == 1
; 1688 : 		_SCL_SECURE_VALIDATE_RANGE(_Off <= this->_Mysize);	// sic
; 1689 :  #endif /* _ITERATOR_DEBUG_LEVEL == 2 */
; 1690 : 
; 1691 : 		return (this->_Myptr()[_Off]);
; 1692 : 		}
; 1693 : 
; 1694 : 	const_reference operator[](size_type _Off) const
; 1695 : 		{	// subscript nonmutable sequence
; 1696 :  #if _ITERATOR_DEBUG_LEVEL == 2
; 1697 : 		if (this->_Mysize < _Off)	// sic
; 1698 : 			_DEBUG_ERROR("string subscript out of range");
; 1699 : 
; 1700 :  #elif _ITERATOR_DEBUG_LEVEL == 1
; 1701 : 		_SCL_SECURE_VALIDATE_RANGE(_Off <= this->_Mysize);	// sic
; 1702 :  #endif /* _ITERATOR_DEBUG_LEVEL == 2 */
; 1703 : 
; 1704 : 		return (this->_Myptr()[_Off]);
; 1705 : 		}
; 1706 : 
; 1707 : 	void push_back(_Elem _Ch)
; 1708 : 		{	// insert element at end
; 1709 : 		insert(end(), _Ch);
; 1710 : 		}
; 1711 : 
; 1712 : 	void pop_back()
; 1713 : 		{	// erase element at end
; 1714 : 		erase(this->_Mysize - 1);	// throws if _Mysize == 0
; 1715 : 		}
; 1716 : 
; 1717 : 	reference front()
; 1718 : 		{	// return first element of mutable sequence
; 1719 : 		return (*begin());
; 1720 : 		}
; 1721 : 
; 1722 : 	const_reference front() const
; 1723 : 		{	// return first element of nonmutable sequence
; 1724 : 		return (*begin());
; 1725 : 		}
; 1726 : 
; 1727 : 	reference back()
; 1728 : 		{	// return last element of mutable sequence
; 1729 : 		return (*(end() - 1));
; 1730 : 		}
; 1731 : 
; 1732 : 	const_reference back() const
; 1733 : 		{	// return last element of nonmutable sequence
; 1734 : 		return (*(end() - 1));
; 1735 : 		}
; 1736 : 
; 1737 : 	const _Elem *c_str() const _NOEXCEPT
; 1738 : 		{	// return pointer to null-terminated nonmutable array
; 1739 : 		return (this->_Myptr());
; 1740 : 		}
; 1741 : 
; 1742 : 	const _Elem *data() const _NOEXCEPT
; 1743 : 		{	// return pointer to nonmutable array
; 1744 : 		return (c_str());
; 1745 : 		}
; 1746 : 
; 1747 : 	size_type length() const _NOEXCEPT
; 1748 : 		{	// return length of sequence
; 1749 : 		return (this->_Mysize);
; 1750 : 		}
; 1751 : 
; 1752 : 	size_type size() const _NOEXCEPT
; 1753 : 		{	// return length of sequence
; 1754 : 		return (this->_Mysize);
; 1755 : 		}
; 1756 : 
; 1757 : 	size_type max_size() const _NOEXCEPT
; 1758 : 		{	// return maximum possible length of sequence
; 1759 : 		size_type _Num = this->_Getal().max_size();
; 1760 : 		return (_Num <= 1 ? 1 : _Num - 1);
; 1761 : 		}
; 1762 : 
; 1763 : 	void resize(size_type _Newsize)
; 1764 : 		{	// determine new length, padding with null elements as needed
; 1765 : 		resize(_Newsize, _Elem());
; 1766 : 		}
; 1767 : 
; 1768 : 	void resize(size_type _Newsize, _Elem _Ch)
; 1769 : 		{	// determine new length, padding with _Ch elements as needed
; 1770 : 		if (_Newsize <= this->_Mysize)
; 1771 : 			_Eos(_Newsize);
; 1772 : 		else
; 1773 : 			append(_Newsize - this->_Mysize, _Ch);
; 1774 : 		}
; 1775 : 
; 1776 : 	size_type capacity() const _NOEXCEPT
; 1777 : 		{	// return current length of allocated storage
; 1778 : 		return (this->_Myres);
; 1779 : 		}
; 1780 : 
; 1781 : 	void reserve(size_type _Newcap = 0)
; 1782 : 		{	// determine new minimum length of allocated storage
; 1783 : 		if (this->_Mysize <= _Newcap && this->_Myres != _Newcap)
; 1784 : 			{	// change reservation
; 1785 : 			size_type _Size = this->_Mysize;
; 1786 : 			if (_Grow(_Newcap, true))
; 1787 : 				_Eos(_Size);
; 1788 : 			}
; 1789 : 		}
; 1790 : 
; 1791 : 	bool empty() const _NOEXCEPT
; 1792 : 		{	// test if sequence is empty
; 1793 : 		return (this->_Mysize == 0);
; 1794 : 		}
; 1795 : 
; 1796 : 	_SCL_INSECURE_DEPRECATE
; 1797 : 
; 1798 : 	size_type copy(_Elem *_Ptr,
; 1799 : 		size_type _Count, size_type _Off = 0) const
; 1800 : 		{	// copy [_Off, _Off + _Count) to [_Ptr, _Ptr + _Count)
; 1801 :  #if _ITERATOR_DEBUG_LEVEL == 2
; 1802 : 		if (_Count != 0)
; 1803 : 			_DEBUG_POINTER(_Ptr);
; 1804 :  #endif /* _ITERATOR_DEBUG_LEVEL == 2 */
; 1805 : 
; 1806 : 		if (this->_Mysize < _Off)
; 1807 : 			_Xran();	// _Off off end
; 1808 : 		if (this->_Mysize - _Off < _Count)
; 1809 : 			_Count = this->_Mysize - _Off;
; 1810 : 		_Traits::copy(_Ptr, this->_Myptr() + _Off, _Count);
; 1811 : 		return (_Count);
; 1812 : 		}
; 1813 : 
; 1814 : 	size_type _Copy_s(_Elem *_Dest, size_type _Dest_size,
; 1815 : 		size_type _Count, size_type _Off = 0) const
; 1816 : 		{	// copy [_Off, _Off + _Count) to [_Dest, _Dest + _Count)
; 1817 :  #if _ITERATOR_DEBUG_LEVEL == 2
; 1818 : 		if (_Count != 0)
; 1819 : 			_DEBUG_POINTER(_Dest);
; 1820 :  #endif /* _ITERATOR_DEBUG_LEVEL == 2 */
; 1821 : 
; 1822 : 		if (this->_Mysize < _Off)
; 1823 : 			_Xran();	// _Off off end
; 1824 : 		if (this->_Mysize - _Off < _Count)
; 1825 : 			_Count = this->_Mysize - _Off;
; 1826 : 		_Traits::_Copy_s(_Dest, _Dest_size, this->_Myptr() + _Off, _Count);
; 1827 : 		return (_Count);
; 1828 : 		}
; 1829 : 
; 1830 : 	void _Swap_bx(_Myt& _Right)
; 1831 : 		{	// exchange _Bx with _Right._Bx
; 1832 : 		if (this->_BUF_SIZE <= this->_Myres)
; 1833 : 			if (this->_BUF_SIZE <= _Right._Myres)
; 1834 : 				_Swap_adl(this->_Bx._Ptr, _Right._Bx._Ptr);
; 1835 : 			else
; 1836 : 				{	// swap large with small
; 1837 : 				pointer _Ptr = this->_Bx._Ptr;
; 1838 : 				this->_Getal().destroy(&this->_Bx._Ptr);
; 1839 : 				_Traits::copy(this->_Bx._Buf,
; 1840 : 					_Right._Bx._Buf, _Right._Mysize + 1);
; 1841 : 				this->_Getal().construct(&_Right._Bx._Ptr, _Ptr);
; 1842 : 				}
; 1843 : 		else
; 1844 : 			if (_Right._Myres < this->_BUF_SIZE)
; 1845 : 				_STD swap(this->_Bx._Buf, _Right._Bx._Buf);
; 1846 : 			else
; 1847 : 				{	// swap small with large
; 1848 : 				pointer _Ptr = _Right._Bx._Ptr;
; 1849 : 				this->_Getal().destroy(&_Right._Bx._Ptr);
; 1850 : 				_Traits::copy(_Right._Bx._Buf,
; 1851 : 					this->_Bx._Buf, this->_Mysize + 1);
; 1852 : 				this->_Getal().construct(&this->_Bx._Ptr, _Ptr);
; 1853 : 				}
; 1854 : 		}
; 1855 : 
; 1856 : 	void swap(_Myt& _Right)
; 1857 : 		{	// exchange contents with _Right
; 1858 : 		if (this == &_Right)
; 1859 : 			;	// same object, do nothing
; 1860 : 		else if (this->_Getal() == _Right._Getal())
; 1861 : 			{	// same allocator, swap control information
; 1862 : 			this->_Swap_all(_Right);
; 1863 : 			_Swap_bx(_Right);
; 1864 : 			_STD swap(this->_Mysize, _Right._Mysize);
; 1865 : 			_STD swap(this->_Myres, _Right._Myres);
; 1866 : 			}
; 1867 : 
; 1868 : 		else if (_Alty::propagate_on_container_swap::value)
; 1869 : 			{	// swap allocators and control information
; 1870 : 			this->_Swap_alloc(_Right);
; 1871 : 			_Swap_bx(_Right);
; 1872 : 			_STD swap(this->_Bx, _Right._Bx);	// pointer bitwise copyable?
; 1873 : 			_STD swap(this->_Mysize, _Right._Mysize);
; 1874 : 			_STD swap(this->_Myres, _Right._Myres);
; 1875 : 			}
; 1876 : 
; 1877 : 		else
; 1878 : 			{	// different allocator, do multiple assigns
; 1879 : 			_Myt _Tmp = *this;
; 1880 : 
; 1881 : 			*this = _Right;
; 1882 : 			_Right = _Tmp;
; 1883 : 			}
; 1884 : 		}
; 1885 : 
; 1886 : 	size_type find(const _Myt& _Right, size_type _Off = 0) const _NOEXCEPT
; 1887 : 		{	// look for _Right beginning at or after _Off
; 1888 : 		return (find(_Right._Myptr(), _Off, _Right.size()));
; 1889 : 		}
; 1890 : 
; 1891 : 	size_type find(const _Elem *_Ptr,
; 1892 : 		size_type _Off, size_type _Count) const
; 1893 : 		{	// look for [_Ptr, _Ptr + _Count) beginning at or after _Off
; 1894 :  #if _ITERATOR_DEBUG_LEVEL == 2
; 1895 : 		if (_Count != 0)
; 1896 : 			_DEBUG_POINTER(_Ptr);
; 1897 :  #endif /* _ITERATOR_DEBUG_LEVEL == 2 */
; 1898 : 
; 1899 : 		if (_Count == 0 && _Off <= this->_Mysize)
; 1900 : 			return (_Off);	// null string always matches (if inside string)
; 1901 : 
; 1902 : 		size_type _Nm;
; 1903 : 		if (_Off < this->_Mysize && _Count <= (_Nm = this->_Mysize - _Off))
; 1904 : 			{	// room for match, look for it
; 1905 : 			const _Elem *_Uptr, *_Vptr;
; 1906 : 			for (_Nm -= _Count - 1, _Vptr = this->_Myptr() + _Off;
; 1907 : 				(_Uptr = _Traits::find(_Vptr, _Nm, *_Ptr)) != 0;
; 1908 : 				_Nm -= _Uptr - _Vptr + 1, _Vptr = _Uptr + 1)
; 1909 : 				if (_Traits::compare(_Uptr, _Ptr, _Count) == 0)
; 1910 : 					return (_Uptr - this->_Myptr());	// found a match
; 1911 : 			}
; 1912 : 
; 1913 : 		return (npos);	// no match
; 1914 : 		}
; 1915 : 
; 1916 : 	size_type find(const _Elem *_Ptr, size_type _Off = 0) const
; 1917 : 		{	// look for [_Ptr, <null>) beginning at or after _Off
; 1918 : 		_DEBUG_POINTER(_Ptr);
; 1919 : 		return (find(_Ptr, _Off, _Traits::length(_Ptr)));
; 1920 : 		}
; 1921 : 
; 1922 : 	size_type find(_Elem _Ch, size_type _Off = 0) const
; 1923 : 		{	// look for _Ch at or after _Off
; 1924 : 		return (find((const _Elem *)&_Ch, _Off, 1));
; 1925 : 		}
; 1926 : 
; 1927 : 	size_type rfind(const _Myt& _Right, size_type _Off = npos) const _NOEXCEPT
; 1928 : 		{	// look for _Right beginning before _Off
; 1929 : 		return (rfind(_Right._Myptr(), _Off, _Right.size()));
; 1930 : 		}
; 1931 : 
; 1932 : 	size_type rfind(const _Elem *_Ptr,
; 1933 : 		size_type _Off, size_type _Count) const
; 1934 : 		{	// look for [_Ptr, _Ptr + _Count) beginning before _Off
; 1935 :  #if _ITERATOR_DEBUG_LEVEL == 2
; 1936 : 		if (_Count != 0)
; 1937 : 			_DEBUG_POINTER(_Ptr);
; 1938 :  #endif /* _ITERATOR_DEBUG_LEVEL == 2 */
; 1939 : 
; 1940 : 		if (_Count == 0)
; 1941 : 			return (_Off < this->_Mysize ? _Off
; 1942 : 				: this->_Mysize);	// null always matches
; 1943 : 		if (_Count <= this->_Mysize)
; 1944 : 			{	// room for match, look for it
; 1945 : 			const _Elem *_Uptr = this->_Myptr() +
; 1946 : 				(_Off < this->_Mysize - _Count ? _Off
; 1947 : 					: this->_Mysize - _Count);
; 1948 : 			for (; ; --_Uptr)
; 1949 : 				if (_Traits::eq(*_Uptr, *_Ptr)
; 1950 : 					&& _Traits::compare(_Uptr, _Ptr, _Count) == 0)
; 1951 : 					return (_Uptr - this->_Myptr());	// found a match
; 1952 : 				else if (_Uptr == this->_Myptr())
; 1953 : 					break;	// at beginning, no more chance for match
; 1954 : 			}
; 1955 : 
; 1956 : 		return (npos);	// no match
; 1957 : 		}
; 1958 : 
; 1959 : 	size_type rfind(const _Elem *_Ptr, size_type _Off = npos) const
; 1960 : 		{	// look for [_Ptr, <null>) beginning before _Off
; 1961 : 		_DEBUG_POINTER(_Ptr);
; 1962 : 		return (rfind(_Ptr, _Off, _Traits::length(_Ptr)));
; 1963 : 		}
; 1964 : 
; 1965 : 	size_type rfind(_Elem _Ch, size_type _Off = npos) const
; 1966 : 		{	// look for _Ch before _Off
; 1967 : 		return (rfind((const _Elem *)&_Ch, _Off, 1));
; 1968 : 		}
; 1969 : 
; 1970 : 	size_type find_first_of(const _Myt& _Right,
; 1971 : 		size_type _Off = 0) const _NOEXCEPT
; 1972 : 		{	// look for one of _Right at or after _Off
; 1973 : 		return (find_first_of(_Right._Myptr(), _Off, _Right.size()));
; 1974 : 		}
; 1975 : 
; 1976 : 	size_type find_first_of(const _Elem *_Ptr,
; 1977 : 		size_type _Off, size_type _Count) const
; 1978 : 		{	// look for one of [_Ptr, _Ptr + _Count) at or after _Off
; 1979 :  #if _ITERATOR_DEBUG_LEVEL == 2
; 1980 : 		if (_Count != 0)
; 1981 : 			_DEBUG_POINTER(_Ptr);
; 1982 :  #endif /* _ITERATOR_DEBUG_LEVEL == 2 */
; 1983 : 
; 1984 : 		if (0 < _Count && _Off < this->_Mysize)
; 1985 : 			{	// room for match, look for it
; 1986 : 			const _Elem *const _Vptr = this->_Myptr() + this->_Mysize;
; 1987 : 			for (const _Elem *_Uptr = this->_Myptr() + _Off;
; 1988 : 				_Uptr < _Vptr; ++_Uptr)
; 1989 : 				if (_Traits::find(_Ptr, _Count, *_Uptr) != 0)
; 1990 : 					return (_Uptr - this->_Myptr());	// found a match
; 1991 : 			}
; 1992 : 
; 1993 : 		return (npos);	// no match
; 1994 : 		}
; 1995 : 
; 1996 : 	size_type find_first_of(const _Elem *_Ptr,
; 1997 : 		size_type _Off = 0) const
; 1998 : 		{	// look for one of [_Ptr, <null>) at or after _Off
; 1999 : 		_DEBUG_POINTER(_Ptr);
; 2000 : 		return (find_first_of(_Ptr, _Off, _Traits::length(_Ptr)));
; 2001 : 		}
; 2002 : 
; 2003 : 	size_type find_first_of(_Elem _Ch,
; 2004 : 		size_type _Off = 0) const
; 2005 : 		{	// look for _Ch at or after _Off
; 2006 : 		return (find((const _Elem *)&_Ch, _Off, 1));
; 2007 : 		}
; 2008 : 
; 2009 : 	size_type find_last_of(const _Myt& _Right,
; 2010 : 		size_type _Off = npos) const _NOEXCEPT
; 2011 : 		{	// look for one of _Right before _Off
; 2012 : 		return (find_last_of(_Right._Myptr(), _Off, _Right.size()));
; 2013 : 		}
; 2014 : 
; 2015 : 	size_type find_last_of(const _Elem *_Ptr,
; 2016 : 		size_type _Off, size_type _Count) const
; 2017 : 		{	// look for one of [_Ptr, _Ptr + _Count) before _Off
; 2018 :  #if _ITERATOR_DEBUG_LEVEL == 2
; 2019 : 		if (_Count != 0)
; 2020 : 			_DEBUG_POINTER(_Ptr);
; 2021 :  #endif /* _ITERATOR_DEBUG_LEVEL == 2 */
; 2022 : 
; 2023 : 		if (0 < _Count && 0 < this->_Mysize)
; 2024 : 			{	// worth searching, do it
; 2025 : 			const _Elem *_Uptr = this->_Myptr()
; 2026 : 				+ (_Off < this->_Mysize ? _Off : this->_Mysize - 1);
; 2027 : 			for (; ; --_Uptr)
; 2028 : 				if (_Traits::find(_Ptr, _Count, *_Uptr) != 0)
; 2029 : 					return (_Uptr - this->_Myptr());	// found a match
; 2030 : 				else if (_Uptr == this->_Myptr())
; 2031 : 					break;	// at beginning, no more chance for match
; 2032 : 			}
; 2033 : 
; 2034 : 		return (npos);	// no match
; 2035 : 		}
; 2036 : 
; 2037 : 	size_type find_last_of(const _Elem *_Ptr,
; 2038 : 		size_type _Off = npos) const
; 2039 : 		{	// look for one of [_Ptr, <null>) before _Off
; 2040 : 		_DEBUG_POINTER(_Ptr);
; 2041 : 		return (find_last_of(_Ptr, _Off, _Traits::length(_Ptr)));
; 2042 : 		}
; 2043 : 
; 2044 : 	size_type find_last_of(_Elem _Ch,
; 2045 : 		size_type _Off = npos) const
; 2046 : 		{	// look for _Ch before _Off
; 2047 : 		return (rfind((const _Elem *)&_Ch, _Off, 1));
; 2048 : 		}
; 2049 : 
; 2050 : 	size_type find_first_not_of(const _Myt& _Right,
; 2051 : 		size_type _Off = 0) const _NOEXCEPT
; 2052 : 		{	// look for none of _Right at or after _Off
; 2053 : 		return (find_first_not_of(_Right._Myptr(), _Off,
; 2054 : 			_Right.size()));
; 2055 : 		}
; 2056 : 
; 2057 : 	size_type find_first_not_of(const _Elem *_Ptr,
; 2058 : 		size_type _Off, size_type _Count) const
; 2059 : 		{	// look for none of [_Ptr, _Ptr + _Count) at or after _Off
; 2060 :  #if _ITERATOR_DEBUG_LEVEL == 2
; 2061 : 		if (_Count != 0)
; 2062 : 			_DEBUG_POINTER(_Ptr);
; 2063 :  #endif /* _ITERATOR_DEBUG_LEVEL == 2 */
; 2064 : 
; 2065 : 		if (_Off < this->_Mysize)
; 2066 : 			{	// room for match, look for it
; 2067 : 			const _Elem *const _Vptr = this->_Myptr() + this->_Mysize;
; 2068 : 			for (const _Elem *_Uptr = this->_Myptr() + _Off;
; 2069 : 				_Uptr < _Vptr; ++_Uptr)
; 2070 : 				if (_Traits::find(_Ptr, _Count, *_Uptr) == 0)
; 2071 : 					return (_Uptr - this->_Myptr());
; 2072 : 			}
; 2073 : 		return (npos);
; 2074 : 		}
; 2075 : 
; 2076 : 	size_type find_first_not_of(const _Elem *_Ptr,
; 2077 : 		size_type _Off = 0) const
; 2078 : 		{	// look for one of [_Ptr, <null>) at or after _Off
; 2079 : 		_DEBUG_POINTER(_Ptr);
; 2080 : 		return (find_first_not_of(_Ptr, _Off, _Traits::length(_Ptr)));
; 2081 : 		}
; 2082 : 
; 2083 : 	size_type find_first_not_of(_Elem _Ch,
; 2084 : 		size_type _Off = 0) const
; 2085 : 		{	// look for non _Ch at or after _Off
; 2086 : 		return (find_first_not_of((const _Elem *)&_Ch, _Off, 1));
; 2087 : 		}
; 2088 : 
; 2089 : 	size_type find_last_not_of(const _Myt& _Right,
; 2090 : 		size_type _Off = npos) const _NOEXCEPT
; 2091 : 		{	// look for none of _Right before _Off
; 2092 : 		return (find_last_not_of(_Right._Myptr(), _Off, _Right.size()));
; 2093 : 		}
; 2094 : 
; 2095 : 	size_type find_last_not_of(const _Elem *_Ptr,
; 2096 : 		size_type _Off, size_type _Count) const
; 2097 : 		{	// look for none of [_Ptr, _Ptr + _Count) before _Off
; 2098 :  #if _ITERATOR_DEBUG_LEVEL == 2
; 2099 : 		if (_Count != 0)
; 2100 : 			_DEBUG_POINTER(_Ptr);
; 2101 :  #endif /* _ITERATOR_DEBUG_LEVEL == 2 */
; 2102 : 
; 2103 : 		if (0 < this->_Mysize)
; 2104 : 			{	// worth searching, do it
; 2105 : 			const _Elem *_Uptr = this->_Myptr()
; 2106 : 				+ (_Off < this->_Mysize ? _Off : this->_Mysize - 1);
; 2107 : 			for (; ; --_Uptr)
; 2108 : 				if (_Traits::find(_Ptr, _Count, *_Uptr) == 0)
; 2109 : 					return (_Uptr - this->_Myptr());
; 2110 : 				else if (_Uptr == this->_Myptr())
; 2111 : 					break;
; 2112 : 			}
; 2113 : 		return (npos);
; 2114 : 		}
; 2115 : 
; 2116 : 	size_type find_last_not_of(const _Elem *_Ptr,
; 2117 : 		size_type _Off = npos) const
; 2118 : 		{	// look for none of [_Ptr, <null>) before _Off
; 2119 : 		_DEBUG_POINTER(_Ptr);
; 2120 : 		return (find_last_not_of(_Ptr, _Off, _Traits::length(_Ptr)));
; 2121 : 		}
; 2122 : 
; 2123 : 	size_type find_last_not_of(_Elem _Ch,
; 2124 : 		size_type _Off = npos) const
; 2125 : 		{	// look for non _Ch before _Off
; 2126 : 		return (find_last_not_of((const _Elem *)&_Ch, _Off, 1));
; 2127 : 		}
; 2128 : 
; 2129 : 	_Myt substr(size_type _Off = 0, size_type _Count = npos) const
; 2130 : 		{	// return [_Off, _Off + _Count) as new string
; 2131 : 		return (_Myt(*this, _Off, _Count, get_allocator()));
; 2132 : 		}
; 2133 : 
; 2134 : 	int compare(const _Myt& _Right) const _NOEXCEPT
; 2135 : 		{	// compare [0, _Mysize) with _Right
; 2136 : 		return (compare(0, this->_Mysize, _Right._Myptr(), _Right.size()));
; 2137 : 		}
; 2138 : 
; 2139 : 	int compare(size_type _Off, size_type _N0,
; 2140 : 		const _Myt& _Right) const
; 2141 : 		{	// compare [_Off, _Off + _N0) with _Right
; 2142 : 		return (compare(_Off, _N0, _Right, 0, npos));
; 2143 : 		}
; 2144 : 
; 2145 : 	int compare(size_type _Off,
; 2146 : 		size_type _N0, const _Myt& _Right,
; 2147 : 		size_type _Roff, size_type _Count) const
; 2148 : 		{	// compare [_Off, _Off + _N0) with _Right [_Roff, _Roff + _Count)
; 2149 : 		if (_Right.size() < _Roff)
; 2150 : 			_Xran();	// _Off off end
; 2151 : 		if (_Right._Mysize - _Roff < _Count)
; 2152 : 			_Count = _Right._Mysize - _Roff;	// trim _Count to size
; 2153 : 		return (compare(_Off, _N0, _Right._Myptr() + _Roff, _Count));
; 2154 : 		}
; 2155 : 
; 2156 : 	int compare(const _Elem *_Ptr) const
; 2157 : 		{	// compare [0, _Mysize) with [_Ptr, <null>)
; 2158 : 		_DEBUG_POINTER(_Ptr);
; 2159 : 		return (compare(0, this->_Mysize, _Ptr, _Traits::length(_Ptr)));
; 2160 : 		}
; 2161 : 
; 2162 : 	int compare(size_type _Off, size_type _N0, const _Elem *_Ptr) const
; 2163 : 		{	// compare [_Off, _Off + _N0) with [_Ptr, <null>)
; 2164 : 		_DEBUG_POINTER(_Ptr);
; 2165 : 		return (compare(_Off, _N0, _Ptr, _Traits::length(_Ptr)));
; 2166 : 		}
; 2167 : 
; 2168 : 	int compare(size_type _Off,
; 2169 : 		size_type _N0, const _Elem *_Ptr, size_type _Count) const
; 2170 : 		{	// compare [_Off, _Off + _N0) with [_Ptr, _Ptr + _Count)
; 2171 :  #if _ITERATOR_DEBUG_LEVEL == 2
; 2172 : 		if (_Count != 0)
; 2173 : 			_DEBUG_POINTER(_Ptr);
; 2174 :  #endif /* _ITERATOR_DEBUG_LEVEL == 2 */
; 2175 : 
; 2176 : 		if (this->_Mysize < _Off)
; 2177 : 			_Xran();	// _Off off end
; 2178 : 		if (this->_Mysize - _Off < _N0)
; 2179 : 			_N0 = this->_Mysize - _Off;	// trim _N0 to size
; 2180 : 
; 2181 : 		size_type _Ans = _Traits::compare(this->_Myptr() + _Off, _Ptr,
; 2182 : 			_N0 < _Count ? _N0 : _Count);
; 2183 : 		return (_Ans != 0 ? (int)_Ans : _N0 < _Count ? -1
; 2184 : 			: _N0 == _Count ? 0 : +1);
; 2185 : 		}
; 2186 : 
; 2187 : 	allocator_type get_allocator() const _NOEXCEPT
; 2188 : 		{	// return allocator object for values
; 2189 : 		return (this->_Getal());
; 2190 : 		}
; 2191 : 
; 2192 : 	void _Chassign(size_type _Off, size_type _Count, _Elem _Ch)
; 2193 : 		{	// assign _Count copies of _Ch beginning at _Off
; 2194 : 		if (_Count == 1)
; 2195 : 			_Traits::assign(*(this->_Myptr() + _Off), _Ch);
; 2196 : 		else
; 2197 : 			_Traits::assign(this->_Myptr() + _Off, _Count, _Ch);
; 2198 : 		}
; 2199 : 
; 2200 : 	void _Copy(size_type _Newsize, size_type _Oldlen)
; 2201 : 		{	// copy _Oldlen elements to newly allocated buffer
; 2202 : 		size_type _Newres = _Newsize | this->_ALLOC_MASK;
; 2203 : 		if (max_size() < _Newres)
; 2204 : 			_Newres = _Newsize;	// undo roundup if too big
; 2205 : 		else if (this->_Myres / 2 <= _Newres / 3)
; 2206 : 			;
; 2207 : 		else if (this->_Myres <= max_size() - this->_Myres / 2)
; 2208 : 			_Newres = this->_Myres
; 2209 : 				+ this->_Myres / 2;	// grow exponentially if possible
; 2210 : 		else
; 2211 : 			_Newres = max_size();	// settle for max_size()
; 2212 : 
; 2213 : 		_Elem *_Ptr;
; 2214 : 		_TRY_BEGIN
; 2215 : 			_Ptr = this->_Getal().allocate(_Newres + 1);
; 2216 : 		_CATCH_ALL
; 2217 : 			_Newres = _Newsize;	// allocation failed, undo roundup and retry
; 2218 : 			_TRY_BEGIN
; 2219 : 				_Ptr = this->_Getal().allocate(_Newres + 1);
; 2220 : 			_CATCH_ALL
; 2221 : 			_Tidy(true);	// failed again, discard storage and reraise
; 2222 : 			_RERAISE;
; 2223 : 			_CATCH_END
; 2224 : 		_CATCH_END
; 2225 : 
; 2226 : 		if (0 < _Oldlen)
; 2227 : 			_Traits::copy(_Ptr, this->_Myptr(),
; 2228 : 				_Oldlen);	// copy existing elements
; 2229 : 		_Tidy(true);
; 2230 : 		this->_Getal().construct(&this->_Bx._Ptr, _Ptr);
; 2231 : 		this->_Myres = _Newres;
; 2232 : 		_Eos(_Oldlen);
; 2233 : 		}
; 2234 : 
; 2235 : 	void _Eos(size_type _Newsize)
; 2236 : 		{	// set new length and null terminator
; 2237 : 		_Traits::assign(this->_Myptr()[this->_Mysize = _Newsize], _Elem());

  00065	c7 44 24 28 00
	00 00 00	 mov	 DWORD PTR _stFilename$2[esp+84], 0
; File c:\program files (x86)\microsoft visual studio 12.0\vc\include\iosfwd

; 564  : 		_Left = _Right;

  0006d	c6 44 24 18 00	 mov	 BYTE PTR _stFilename$2[esp+68], 0
; File c:\program files (x86)\microsoft visual studio 12.0\vc\include\xstring

; 1169 : 		return (assign(_Ptr, _Traits::length(_Ptr)));

  00072	e8 00 00 00 00	 call	 ?assign@?$basic_string@DU?$char_traits@D@std@@V?$allocator@D@2@@std@@QAEAAV12@PBDI@Z ; std::basic_string<char,std::char_traits<char>,std::allocator<char> >::assign
; File d:\metin2\metin2\client_source_clean\client_source_clean\source\userinterface\userinterface.cpp

; 84   : 		std::string stFilename = "lib\\";

  00077	c7 44 24 38 00
	00 00 00	 mov	 DWORD PTR __$EHRec$[esp+68], 0

; 85   : 		stFilename += sc_apszPythonLibraryFilenames[i];

  0007f	8b 16		 mov	 edx, DWORD PTR [esi]
; File c:\program files (x86)\microsoft visual studio 12.0\vc\include\iosfwd

; 523  : 			: _CSTD strlen(_First));

  00081	80 3a 00	 cmp	 BYTE PTR [edx], 0
  00084	75 04		 jne	 SHORT $LN58@CheckPytho
  00086	33 c0		 xor	 eax, eax
  00088	eb 0f		 jmp	 SHORT $LN59@CheckPytho
$LN58@CheckPytho:
  0008a	8b c2		 mov	 eax, edx
  0008c	8d 70 01	 lea	 esi, DWORD PTR [eax+1]
  0008f	90		 npad	 1
$LL153@CheckPytho:
  00090	8a 08		 mov	 cl, BYTE PTR [eax]
  00092	40		 inc	 eax
  00093	84 c9		 test	 cl, cl
  00095	75 f9		 jne	 SHORT $LL153@CheckPytho
  00097	2b c6		 sub	 eax, esi
$LN59@CheckPytho:
; File c:\program files (x86)\microsoft visual studio 12.0\vc\include\xstring

; 1087 : 		return (append(_Ptr, _Traits::length(_Ptr)));

  00099	50		 push	 eax
  0009a	52		 push	 edx
  0009b	8d 4c 24 18	 lea	 ecx, DWORD PTR _stFilename$2[esp+68]
  0009f	e8 00 00 00 00	 call	 ?append@?$basic_string@DU?$char_traits@D@std@@V?$allocator@D@2@@std@@QAEAAV12@PBDI@Z ; std::basic_string<char,std::char_traits<char>,std::allocator<char> >::append

; 520  : 			: this->_Bx._Buf);

  000a4	83 7c 24 24 10	 cmp	 DWORD PTR _stFilename$2[esp+80], 16 ; 00000010H
  000a9	8d 44 24 10	 lea	 eax, DWORD PTR _stFilename$2[esp+60]
; File d:\metin2\metin2\client_source_clean\client_source_clean\source\userinterface\userinterface.cpp

; 87   : 		if (_access(stFilename.c_str(), 0) != 0)

  000ad	6a 00		 push	 0
; File c:\program files (x86)\microsoft visual studio 12.0\vc\include\xstring

; 520  : 			: this->_Bx._Buf);

  000af	0f 43 44 24 14	 cmovae	 eax, DWORD PTR _stFilename$2[esp+64]
; File d:\metin2\metin2\client_source_clean\client_source_clean\source\userinterface\userinterface.cpp

; 87   : 		if (_access(stFilename.c_str(), 0) != 0)

  000b4	50		 push	 eax
  000b5	e8 00 00 00 00	 call	 __access
  000ba	83 c4 08	 add	 esp, 8
  000bd	85 c0		 test	 eax, eax
  000bf	75 6e		 jne	 SHORT $LN149@CheckPytho
; File c:\program files (x86)\microsoft visual studio 12.0\vc\include\xstring

; 520  : 			: this->_Bx._Buf);

  000c1	83 7c 24 24 10	 cmp	 DWORD PTR _stFilename$2[esp+80], 16 ; 00000010H
  000c6	8d 74 24 10	 lea	 esi, DWORD PTR _stFilename$2[esp+60]
  000ca	8d 4c 24 10	 lea	 ecx, DWORD PTR _stFilename$2[esp+60]
  000ce	0f 43 74 24 10	 cmovae	 esi, DWORD PTR _stFilename$2[esp+60]
  000d3	0f 43 4c 24 10	 cmovae	 ecx, DWORD PTR _stFilename$2[esp+60]
; File d:\metin2\metin2\client_source_clean\client_source_clean\source\userinterface\userinterface.cpp

; 92   : 		MoveFile(stFilename.c_str(), stFilename.c_str());

  000d8	56		 push	 esi
  000d9	51		 push	 ecx
  000da	ff d3		 call	 ebx

; 93   : 	}

  000dc	c7 44 24 38 ff
	ff ff ff	 mov	 DWORD PTR __$EHRec$[esp+68], -1
; File c:\program files (x86)\microsoft visual studio 12.0\vc\include\xstring

; 2275 : 		else if (this->_BUF_SIZE <= this->_Myres)

  000e4	83 7c 24 24 10	 cmp	 DWORD PTR _stFilename$2[esp+80], 16 ; 00000010H
  000e9	72 0c		 jb	 SHORT $LN136@CheckPytho
; File c:\program files (x86)\microsoft visual studio 12.0\vc\include\xmemory0

; 573  : 		::operator delete(_Ptr);

  000eb	ff 74 24 10	 push	 DWORD PTR _stFilename$2[esp+60]
  000ef	e8 00 00 00 00	 call	 ??3@YAXPAX@Z		; operator delete
  000f4	83 c4 04	 add	 esp, 4
$LN136@CheckPytho:
; File d:\metin2\metin2\client_source_clean\client_source_clean\source\userinterface\userinterface.cpp

; 82   : 	for (int i = 0; *sc_apszPythonLibraryFilenames[i] != '\n'; ++i)

  000f7	47		 inc	 edi
  000f8	8b 04 bd 00 00
	00 00		 mov	 eax, DWORD PTR _sc_apszPythonLibraryFilenames[edi*4]
  000ff	8d 34 bd 00 00
	00 00		 lea	 esi, DWORD PTR _sc_apszPythonLibraryFilenames[edi*4]
  00106	80 38 0a	 cmp	 BYTE PTR [eax], 10	; 0000000aH
  00109	0f 85 43 ff ff
	ff		 jne	 $LL4@CheckPytho
$LN2@CheckPytho:

; 94   : 
; 95   : 	return true;

  0010f	b0 01		 mov	 al, 1
$LN5@CheckPytho:

; 96   : }

  00111	8b 4c 24 30	 mov	 ecx, DWORD PTR __$EHRec$[esp+60]
  00115	64 89 0d 00 00
	00 00		 mov	 DWORD PTR fs:0, ecx
  0011c	59		 pop	 ecx
  0011d	5f		 pop	 edi
  0011e	5e		 pop	 esi
  0011f	5b		 pop	 ebx
  00120	8b 4c 24 18	 mov	 ecx, DWORD PTR __$ArrayPad$[esp+44]
  00124	33 cc		 xor	 ecx, esp
  00126	e8 00 00 00 00	 call	 @__security_check_cookie@4
  0012b	8b e5		 mov	 esp, ebp
  0012d	5d		 pop	 ebp
  0012e	c3		 ret	 0
$LN149@CheckPytho:
; File c:\program files (x86)\microsoft visual studio 12.0\vc\include\xstring

; 2275 : 		else if (this->_BUF_SIZE <= this->_Myres)

  0012f	83 7c 24 24 10	 cmp	 DWORD PTR _stFilename$2[esp+80], 16 ; 00000010H
  00134	72 0c		 jb	 SHORT $LN88@CheckPytho
; File c:\program files (x86)\microsoft visual studio 12.0\vc\include\xmemory0

; 573  : 		::operator delete(_Ptr);

  00136	ff 74 24 10	 push	 DWORD PTR _stFilename$2[esp+60]
  0013a	e8 00 00 00 00	 call	 ??3@YAXPAX@Z		; operator delete
  0013f	83 c4 04	 add	 esp, 4
$LN88@CheckPytho:
; File d:\metin2\metin2\client_source_clean\client_source_clean\source\userinterface\userinterface.cpp

; 89   : 			return false;

  00142	32 c0		 xor	 al, al
  00144	eb cb		 jmp	 SHORT $LN5@CheckPytho
_TEXT	ENDS
;	COMDAT text$x
text$x	SEGMENT
__unwindfunclet$?CheckPythonLibraryFilenames@@YA_NXZ$0:
  00000	8d 4d d4	 lea	 ecx, DWORD PTR _stFilename$2[ebp]
  00003	e9 00 00 00 00	 jmp	 ??1?$basic_string@DU?$char_traits@D@std@@V?$allocator@D@2@@std@@QAE@XZ ; std::basic_string<char,std::char_traits<char>,std::allocator<char> >::~basic_string<char,std::char_traits<char>,std::allocator<char> >
__ehhandler$?CheckPythonLibraryFilenames@@YA_NXZ:
  00008	8b 54 24 08	 mov	 edx, DWORD PTR [esp+8]
  0000c	8d 42 d4	 lea	 eax, DWORD PTR [edx-44]
  0000f	8b 4a d0	 mov	 ecx, DWORD PTR [edx-48]
  00012	33 c8		 xor	 ecx, eax
  00014	e8 00 00 00 00	 call	 @__security_check_cookie@4
  00019	83 c0 0c	 add	 eax, 12			; 0000000cH
  0001c	8b 4a f8	 mov	 ecx, DWORD PTR [edx-8]
  0001f	33 c8		 xor	 ecx, eax
  00021	e8 00 00 00 00	 call	 @__security_check_cookie@4
  00026	b8 00 00 00 00	 mov	 eax, OFFSET __ehfuncinfo$?CheckPythonLibraryFilenames@@YA_NXZ
  0002b	e9 00 00 00 00	 jmp	 ___CxxFrameHandler3
text$x	ENDS
?CheckPythonLibraryFilenames@@YA_NXZ ENDP		; CheckPythonLibraryFilenames
; Function compile flags: /Ogtp
; File d:\metin2\metin2\client_source_clean\client_source_clean\source\userinterface\userinterface.cpp
; File c:\program files (x86)\microsoft visual studio 12.0\vc\include\xtree
; File d:\metin2\metin2\client_source_clean\client_source_clean\source\userinterface\userinterface.cpp
; File c:\program files (x86)\microsoft visual studio 12.0\vc\include\xtree
; File d:\metin2\metin2\client_source_clean\client_source_clean\source\userinterface\userinterface.cpp
;	COMDAT ??__Egs_kAppStrTable@@YAXXZ
text$di	SEGMENT
??__Egs_kAppStrTable@@YAXXZ PROC			; `dynamic initializer for 'gs_kAppStrTable'', COMDAT
; File c:\program files (x86)\microsoft visual studio 12.0\vc\include\xtree

; 773  : 		this->_Myhead = _Buyheadnode();

  00000	b9 04 00 00 00	 mov	 ecx, OFFSET ?gs_kAppStrTable@@3UApplicationStringTable@@A+4
  00005	e8 00 00 00 00	 call	 ?_Buyheadnode@?$_Tree_alloc@$0A@U?$_Tree_base_types@U?$pair@$$CBKV?$basic_string@DU?$char_traits@D@std@@V?$allocator@D@2@@std@@@std@@V?$allocator@U?$pair@$$CBKV?$basic_string@DU?$char_traits@D@std@@V?$allocator@D@2@@std@@@std@@@2@@std@@@std@@QAEPAU?$_Tree_node@U?$pair@$$CBKV?$basic_string@DU?$char_traits@D@std@@V?$allocator@D@2@@std@@@std@@PAX@2@XZ ; std::_Tree_alloc<0,std::_Tree_base_types<std::pair<unsigned long const ,std::basic_string<char,std::char_traits<char>,std::allocator<char> > >,std::allocator<std::pair<unsigned long const ,std::basic_string<char,std::char_traits<char>,std::allocator<char> > > > > >::_Buyheadnode
; File d:\metin2\metin2\client_source_clean\client_source_clean\source\userinterface\userinterface.cpp

; 102  : } gs_kAppStrTable;

  0000a	68 00 00 00 00	 push	 OFFSET ??__Fgs_kAppStrTable@@YAXXZ ; `dynamic atexit destructor for 'gs_kAppStrTable''
; File c:\program files (x86)\microsoft visual studio 12.0\vc\include\xtree

; 773  : 		this->_Myhead = _Buyheadnode();

  0000f	a3 04 00 00 00	 mov	 DWORD PTR ?gs_kAppStrTable@@3UApplicationStringTable@@A+4, eax
; File d:\metin2\metin2\client_source_clean\client_source_clean\source\userinterface\userinterface.cpp

; 102  : } gs_kAppStrTable;

  00014	e8 00 00 00 00	 call	 _atexit
  00019	59		 pop	 ecx
  0001a	c3		 ret	 0
??__Egs_kAppStrTable@@YAXXZ ENDP			; `dynamic initializer for 'gs_kAppStrTable''
text$di	ENDS
; Function compile flags: /Ogtp
; File c:\program files (x86)\microsoft visual studio 12.0\vc\include\xtree
; File c:\program files (x86)\microsoft visual studio 12.0\vc\include\xmemory0
;	COMDAT ??__Fgs_kAppStrTable@@YAXXZ
text$yd	SEGMENT
$T1 = -8						; size = 4
$T2 = -1						; size = 1
$T3 = -1						; size = 1
$T4 = -1						; size = 1
$T5 = -1						; size = 1
??__Fgs_kAppStrTable@@YAXXZ PROC			; `dynamic atexit destructor for 'gs_kAppStrTable'', COMDAT
  00000	55		 push	 ebp
  00001	8b ec		 mov	 ebp, esp
; File c:\program files (x86)\microsoft visual studio 12.0\vc\include\xtree

; 2230 : 		erase(begin(), end());

  00003	a1 04 00 00 00	 mov	 eax, DWORD PTR ?gs_kAppStrTable@@3UApplicationStringTable@@A+4
  00008	83 ec 08	 sub	 esp, 8
  0000b	b9 04 00 00 00	 mov	 ecx, OFFSET ?gs_kAppStrTable@@3UApplicationStringTable@@A+4
  00010	56		 push	 esi
  00011	50		 push	 eax
  00012	ff 30		 push	 DWORD PTR [eax]
  00014	8d 45 f8	 lea	 eax, DWORD PTR $T1[ebp]
  00017	50		 push	 eax
  00018	e8 00 00 00 00	 call	 ?erase@?$_Tree@V?$_Tmap_traits@KV?$basic_string@DU?$char_traits@D@std@@V?$allocator@D@2@@std@@U?$less@K@2@V?$allocator@U?$pair@$$CBKV?$basic_string@DU?$char_traits@D@std@@V?$allocator@D@2@@std@@@std@@@2@$0A@@std@@@std@@QAE?AV?$_Tree_iterator@V?$_Tree_val@U?$_Tree_simple_types@U?$pair@$$CBKV?$basic_string@DU?$char_traits@D@std@@V?$allocator@D@2@@std@@@std@@@std@@@std@@@2@V?$_Tree_const_iterator@V?$_Tree_val@U?$_Tree_simple_types@U?$pair@$$CBKV?$basic_string@DU?$char_traits@D@std@@V?$allocator@D@2@@std@@@std@@@std@@@std@@@2@0@Z ; std::_Tree<std::_Tmap_traits<unsigned long,std::basic_string<char,std::char_traits<char>,std::allocator<char> >,std::less<unsigned long>,std::allocator<std::pair<unsigned long const ,std::basic_string<char,std::char_traits<char>,std::allocator<char> > > >,0> >::erase

; 600  : 		}
; 601  : 
; 602  : 	static reference _Myval(_Nodeptr _Pnode)
; 603  : 		{	// return reference to value in node
; 604  : 		return ((reference)_Pnode->_Myval);
; 605  : 		}
; 606  : 
; 607  : 	static _Nodeptr _Max(_Nodeptr _Pnode)
; 608  : 		{	// return rightmost node in subtree at _Pnode
; 609  : 		while (!_Isnil(_Right(_Pnode)))
; 610  : 			_Pnode = _Right(_Pnode);
; 611  : 		return (_Pnode);
; 612  : 		}
; 613  : 
; 614  : 	static _Nodeptr _Min(_Nodeptr _Pnode)
; 615  : 		{	// return leftmost node in subtree at _Pnode
; 616  : 		while (!_Isnil(_Left(_Pnode)))
; 617  : 			_Pnode = _Left(_Pnode);
; 618  : 		return (_Pnode);
; 619  : 		}
; 620  : 
; 621  : 	_Nodeptr _Myhead;	// pointer to head node
; 622  : 	size_type _Mysize;	// number of elements
; 623  : 	};
; 624  : 
; 625  : 		// TEMPLATE CLASS _Tree_alloc
; 626  : template<bool _Al_has_storage,
; 627  : 	class _Alloc_types>
; 628  : 	class _Tree_alloc
; 629  : 		: public _Tree_val<typename _Alloc_types::_Val_types>
; 630  : 	{	// base class for tree to hold allocator with storage
; 631  : public:
; 632  : 	typename _Alloc_types::_Alnod_type _Alnod;	// allocator object
; 633  : 
; 634  : 	typedef _Tree_alloc<_Al_has_storage, _Alloc_types> _Myt;
; 635  : 	typedef typename _Alloc_types::_Alloc _Alloc;
; 636  : 	typedef typename _Alloc_types::_Alnod_type _Alty;
; 637  : 	typedef typename _Alloc_types::_Node _Node;
; 638  : 	typedef typename _Alloc_types::_Nodeptr _Nodeptr;
; 639  : 
; 640  :  #if _ITERATOR_DEBUG_LEVEL == 0
; 641  : 	_Tree_alloc(const _Alloc& _Al = _Alloc())
; 642  : 		: _Alnod(_Al)
; 643  : 		{	// construct head node, allocator from _Al
; 644  : 		this->_Myhead = _Buyheadnode();
; 645  : 		}
; 646  : 
; 647  : 	~_Tree_alloc() _NOEXCEPT
; 648  : 		{	// destroy head node
; 649  : 		_Freeheadnode(this->_Myhead);
; 650  : 		}
; 651  : 
; 652  : 	void _Change_alloc(const _Alty& _Al)
; 653  : 		{	// replace old allocator
; 654  : 		this->_Alnod = _Al;
; 655  : 		}
; 656  : 
; 657  : 	void _Swap_alloc(_Myt& _Right)
; 658  : 		{	// swap allocators
; 659  : 		_Swap_adl(this->_Alnod, _Right._Alnod);
; 660  : 		}
; 661  : 
; 662  :  #else /* _ITERATOR_DEBUG_LEVEL == 0 */
; 663  : 	_Tree_alloc(const _Alloc& _Al = _Alloc())
; 664  : 		: _Alnod(_Al)
; 665  : 		{	// construct allocators from _Al
; 666  : 		this->_Myhead = _Buyheadnode();
; 667  : 		_TRY_BEGIN
; 668  : 		_Alloc_proxy();
; 669  : 		_CATCH_ALL
; 670  : 		_Freeheadnode(this->_Myhead);
; 671  : 		_RERAISE;
; 672  : 		_CATCH_END
; 673  : 		}
; 674  : 
; 675  : 	~_Tree_alloc() _NOEXCEPT
; 676  : 		{	// destroy proxy
; 677  : 		_Freeheadnode(this->_Myhead);
; 678  : 		_Free_proxy();
; 679  : 		}
; 680  : 
; 681  : 	void _Change_alloc(const _Alty& _Al)
; 682  : 		{	// replace old allocator
; 683  : 		_Free_proxy();
; 684  : 		this->_Alnod = _Al;
; 685  : 		_Alloc_proxy();
; 686  : 		}
; 687  : 
; 688  : 	void _Swap_alloc(_Myt& _Right)
; 689  : 		{	// swap allocators
; 690  : 		_Swap_adl(this->_Alnod, _Right._Alnod);
; 691  : 		_Swap_adl(this->_Myproxy, _Right._Myproxy);
; 692  : 		}
; 693  : 
; 694  : 	void _Alloc_proxy()
; 695  : 		{	// construct proxy from _Alnod
; 696  : 		typename _Alty::template rebind<_Container_proxy>::other
; 697  : 			_Alproxy(this->_Alnod);
; 698  : 		this->_Myproxy = _Alproxy.allocate(1);
; 699  : 		_Alproxy.construct(this->_Myproxy, _Container_proxy());
; 700  : 		this->_Myproxy->_Mycont = this;
; 701  : 		}
; 702  : 
; 703  : 	void _Free_proxy()
; 704  : 		{	// destroy proxy
; 705  : 		typename _Alty::template rebind<_Container_proxy>::other
; 706  : 			_Alproxy(this->_Alnod);
; 707  : 		this->_Orphan_all();
; 708  : 		_Alproxy.destroy(this->_Myproxy);
; 709  : 		_Alproxy.deallocate(this->_Myproxy, 1);
; 710  : 		this->_Myproxy = 0;
; 711  : 		}
; 712  :  #endif /* _ITERATOR_DEBUG_LEVEL == 0 */
; 713  : 
; 714  : 	_Nodeptr _Buyheadnode()
; 715  : 		{	// get head node using current allocator
; 716  : 		_Nodeptr _Pnode = this->_Alnod.allocate(1);
; 717  : 
; 718  : 		_TRY_BEGIN
; 719  : 		this->_Alnod.construct(
; 720  : 			_STD addressof(this->_Left(_Pnode)), _Pnode);
; 721  : 		this->_Alnod.construct(
; 722  : 			_STD addressof(this->_Parent(_Pnode)), _Pnode);
; 723  : 		this->_Alnod.construct(
; 724  : 			_STD addressof(this->_Right(_Pnode)), _Pnode);
; 725  : 		_CATCH_ALL
; 726  : 		this->_Alnod.deallocate(_Pnode, 1);
; 727  : 		_RERAISE;
; 728  : 		_CATCH_END
; 729  : 
; 730  : 		this->_Color(_Pnode) = this->_Black;
; 731  : 		this->_Isnil(_Pnode) = true;
; 732  : 		return (_Pnode);
; 733  : 		}
; 734  : 
; 735  : 	void _Freeheadnode(_Nodeptr _Pnode)
; 736  : 		{	// free head node using current allocator
; 737  : 		this->_Alnod.destroy(
; 738  : 			_STD addressof(this->_Left(_Pnode)));
; 739  : 		this->_Alnod.destroy(
; 740  : 			_STD addressof(this->_Parent(_Pnode)));
; 741  : 		this->_Alnod.destroy(
; 742  : 			_STD addressof(this->_Right(_Pnode)));
; 743  : 		this->_Alnod.deallocate(_Pnode, 1);
; 744  : 		}
; 745  : 
; 746  : 	_Alty& _Getal()
; 747  : 		{	// get reference to allocator
; 748  : 		return (this->_Alnod);
; 749  : 		}
; 750  : 
; 751  : 	const _Alty& _Getal() const
; 752  : 		{	// get reference to allocator
; 753  : 		return (this->_Alnod);
; 754  : 		}
; 755  : 	};
; 756  : 
; 757  : 		// TEMPLATE CLASS _Tree_alloc
; 758  : template<class _Alloc_types>
; 759  : 	class _Tree_alloc<false, _Alloc_types>
; 760  : 		: public _Tree_val<typename _Alloc_types::_Val_types>
; 761  : 	{	// base class for tree to hold allocator with no storage
; 762  : public:
; 763  : 	typedef _Tree_alloc<false, _Alloc_types> _Myt;
; 764  : 	typedef _Tree_val<typename _Alloc_types::_Val_types> _Mybase;
; 765  : 	typedef typename _Alloc_types::_Alloc _Alloc;
; 766  : 	typedef typename _Alloc_types::_Alnod_type _Alty;
; 767  : 	typedef typename _Alloc_types::_Node _Node;
; 768  : 	typedef typename _Alloc_types::_Nodeptr _Nodeptr;
; 769  : 
; 770  :  #if _ITERATOR_DEBUG_LEVEL == 0
; 771  : 	_Tree_alloc(const _Alloc& = _Alloc())
; 772  : 		{	// construct head node, allocator from _Al
; 773  : 		this->_Myhead = _Buyheadnode();
; 774  : 		}
; 775  : 
; 776  : 	~_Tree_alloc() _NOEXCEPT
; 777  : 		{	// destroy head node
; 778  : 		_Freeheadnode(this->_Myhead);

  0001d	8b 35 04 00 00
	00		 mov	 esi, DWORD PTR ?gs_kAppStrTable@@3UApplicationStringTable@@A+4

; 864  : 		this->_Getal().deallocate(_Pnode, 1);
; 865  : 		}
; 866  : 
; 867  : 	_Alty _Getal() const
; 868  : 		{	// get allocator
; 869  : 		return (_Alty());

  00023	8d 4d ff	 lea	 ecx, DWORD PTR $T5[ebp]
  00026	e8 00 00 00 00	 call	 ??0?$_Wrap_alloc@V?$allocator@U?$_Tree_node@U?$pair@$$CBKV?$basic_string@DU?$char_traits@D@std@@V?$allocator@D@2@@std@@@std@@PAX@std@@@std@@@std@@QAE@XZ ; std::_Wrap_alloc<std::allocator<std::_Tree_node<std::pair<unsigned long const ,std::basic_string<char,std::char_traits<char>,std::allocator<char> > >,void *> > >::_Wrap_alloc<std::allocator<std::_Tree_node<std::pair<unsigned long const ,std::basic_string<char,std::char_traits<char>,std::allocator<char> > >,void *> > >

; 779  : 		}
; 780  : 
; 781  : 	void _Change_alloc(const _Alty&)
; 782  : 		{	// replace old allocator
; 783  : 		}
; 784  : 
; 785  : 	void _Swap_alloc(_Myt&)
; 786  : 		{	// swap allocators
; 787  : 		}
; 788  : 
; 789  :  #else /* _ITERATOR_DEBUG_LEVEL == 0 */
; 790  : 	_Tree_alloc(const _Alloc& = _Alloc())
; 791  : 		{	// construct allocators from _Al
; 792  : 		this->_Myhead = _Buyheadnode();
; 793  : 		_TRY_BEGIN
; 794  : 		_Alloc_proxy();
; 795  : 		_CATCH_ALL
; 796  : 		_Freeheadnode(this->_Myhead);
; 797  : 		_RERAISE;
; 798  : 		_CATCH_END
; 799  : 		}
; 800  : 
; 801  : 	~_Tree_alloc() _NOEXCEPT
; 802  : 		{	// destroy proxy
; 803  : 		_Freeheadnode(this->_Myhead);
; 804  : 		_Free_proxy();
; 805  : 		}
; 806  : 
; 807  : 	void _Change_alloc(const _Alty&)
; 808  : 		{	// replace old allocator
; 809  : 		}
; 810  : 
; 811  : 	void _Swap_alloc(_Myt&)
; 812  : 		{	// swap allocators
; 813  : 		}
; 814  : 
; 815  : 	void _Alloc_proxy()
; 816  : 		{	// construct proxy from _Alnod
; 817  : 		typename _Alty::template rebind<_Container_proxy>::other
; 818  : 			_Alproxy(_Getal());
; 819  : 		this->_Myproxy = _Alproxy.allocate(1);
; 820  : 		_Alproxy.construct(this->_Myproxy, _Container_proxy());
; 821  : 		this->_Myproxy->_Mycont = this;
; 822  : 		}
; 823  : 
; 824  : 	void _Free_proxy()
; 825  : 		{	// destroy proxy
; 826  : 		typename _Alty::template rebind<_Container_proxy>::other
; 827  : 			_Alproxy(_Getal());
; 828  : 		this->_Orphan_all();
; 829  : 		_Alproxy.destroy(this->_Myproxy);
; 830  : 		_Alproxy.deallocate(this->_Myproxy, 1);
; 831  : 		this->_Myproxy = 0;
; 832  : 		}
; 833  :  #endif /* _ITERATOR_DEBUG_LEVEL == 0 */
; 834  : 
; 835  : 	_Nodeptr _Buyheadnode()
; 836  : 		{	// get head node using current allocator
; 837  : 		_Nodeptr _Pnode = this->_Getal().allocate(1);
; 838  : 
; 839  : 		_TRY_BEGIN
; 840  : 		this->_Getal().construct(
; 841  : 			_STD addressof(this->_Left(_Pnode)), _Pnode);
; 842  : 		this->_Getal().construct(
; 843  : 			_STD addressof(this->_Parent(_Pnode)), _Pnode);
; 844  : 		this->_Getal().construct(
; 845  : 			_STD addressof(this->_Right(_Pnode)), _Pnode);
; 846  : 		_CATCH_ALL
; 847  : 		this->_Getal().deallocate(_Pnode, 1);
; 848  : 		_RERAISE;
; 849  : 		_CATCH_END
; 850  : 
; 851  : 		this->_Color(_Pnode) = this->_Black;
; 852  : 		this->_Isnil(_Pnode) = true;
; 853  : 		return (_Pnode);
; 854  : 		}
; 855  : 
; 856  : 	void _Freeheadnode(_Nodeptr _Pnode)
; 857  : 		{	// free head node using current allocator
; 858  : 		this->_Getal().destroy(
; 859  : 			_STD addressof(this->_Left(_Pnode)));

  0002b	56		 push	 esi
  0002c	8d 4d ff	 lea	 ecx, DWORD PTR $T5[ebp]
  0002f	e8 00 00 00 00	 call	 ??$destroy@PAU?$_Tree_node@U?$pair@$$CBKV?$basic_string@DU?$char_traits@D@std@@V?$allocator@D@2@@std@@@std@@PAX@std@@@?$_Wrap_alloc@V?$allocator@U?$_Tree_node@U?$pair@$$CBKV?$basic_string@DU?$char_traits@D@std@@V?$allocator@D@2@@std@@@std@@PAX@std@@@std@@@std@@QAEXPAPAU?$_Tree_node@U?$pair@$$CBKV?$basic_string@DU?$char_traits@D@std@@V?$allocator@D@2@@std@@@std@@PAX@1@@Z ; std::_Wrap_alloc<std::allocator<std::_Tree_node<std::pair<unsigned long const ,std::basic_string<char,std::char_traits<char>,std::allocator<char> > >,void *> > >::destroy<std::_Tree_node<std::pair<unsigned long const ,std::basic_string<char,std::char_traits<char>,std::allocator<char> > >,void *> *>

; 864  : 		this->_Getal().deallocate(_Pnode, 1);
; 865  : 		}
; 866  : 
; 867  : 	_Alty _Getal() const
; 868  : 		{	// get allocator
; 869  : 		return (_Alty());

  00034	8d 4d ff	 lea	 ecx, DWORD PTR $T2[ebp]
  00037	e8 00 00 00 00	 call	 ??0?$_Wrap_alloc@V?$allocator@U?$_Tree_node@U?$pair@$$CBKV?$basic_string@DU?$char_traits@D@std@@V?$allocator@D@2@@std@@@std@@PAX@std@@@std@@@std@@QAE@XZ ; std::_Wrap_alloc<std::allocator<std::_Tree_node<std::pair<unsigned long const ,std::basic_string<char,std::char_traits<char>,std::allocator<char> > >,void *> > >::_Wrap_alloc<std::allocator<std::_Tree_node<std::pair<unsigned long const ,std::basic_string<char,std::char_traits<char>,std::allocator<char> > >,void *> > >

; 594  : 		return ((_Nodepref)_Pnode->_Parent);

  0003c	8d 46 04	 lea	 eax, DWORD PTR [esi+4]

; 860  : 		this->_Getal().destroy(
; 861  : 			_STD addressof(this->_Parent(_Pnode)));

  0003f	50		 push	 eax
  00040	8d 4d ff	 lea	 ecx, DWORD PTR $T2[ebp]
  00043	e8 00 00 00 00	 call	 ??$destroy@PAU?$_Tree_node@U?$pair@$$CBKV?$basic_string@DU?$char_traits@D@std@@V?$allocator@D@2@@std@@@std@@PAX@std@@@?$_Wrap_alloc@V?$allocator@U?$_Tree_node@U?$pair@$$CBKV?$basic_string@DU?$char_traits@D@std@@V?$allocator@D@2@@std@@@std@@PAX@std@@@std@@@std@@QAEXPAPAU?$_Tree_node@U?$pair@$$CBKV?$basic_string@DU?$char_traits@D@std@@V?$allocator@D@2@@std@@@std@@PAX@1@@Z ; std::_Wrap_alloc<std::allocator<std::_Tree_node<std::pair<unsigned long const ,std::basic_string<char,std::char_traits<char>,std::allocator<char> > >,void *> > >::destroy<std::_Tree_node<std::pair<unsigned long const ,std::basic_string<char,std::char_traits<char>,std::allocator<char> > >,void *> *>

; 864  : 		this->_Getal().deallocate(_Pnode, 1);
; 865  : 		}
; 866  : 
; 867  : 	_Alty _Getal() const
; 868  : 		{	// get allocator
; 869  : 		return (_Alty());

  00048	8d 4d ff	 lea	 ecx, DWORD PTR $T4[ebp]
  0004b	e8 00 00 00 00	 call	 ??0?$_Wrap_alloc@V?$allocator@U?$_Tree_node@U?$pair@$$CBKV?$basic_string@DU?$char_traits@D@std@@V?$allocator@D@2@@std@@@std@@PAX@std@@@std@@@std@@QAE@XZ ; std::_Wrap_alloc<std::allocator<std::_Tree_node<std::pair<unsigned long const ,std::basic_string<char,std::char_traits<char>,std::allocator<char> > >,void *> > >::_Wrap_alloc<std::allocator<std::_Tree_node<std::pair<unsigned long const ,std::basic_string<char,std::char_traits<char>,std::allocator<char> > >,void *> > >

; 595  : 		}
; 596  : 
; 597  : 	static _Nodepref _Right(_Nodeptr _Pnode)
; 598  : 		{	// return reference to right pointer in node
; 599  : 		return ((_Nodepref)_Pnode->_Right);

  00050	8d 46 08	 lea	 eax, DWORD PTR [esi+8]

; 862  : 		this->_Getal().destroy(
; 863  : 			_STD addressof(this->_Right(_Pnode)));

  00053	50		 push	 eax
  00054	8d 4d ff	 lea	 ecx, DWORD PTR $T4[ebp]
  00057	e8 00 00 00 00	 call	 ??$destroy@PAU?$_Tree_node@U?$pair@$$CBKV?$basic_string@DU?$char_traits@D@std@@V?$allocator@D@2@@std@@@std@@PAX@std@@@?$_Wrap_alloc@V?$allocator@U?$_Tree_node@U?$pair@$$CBKV?$basic_string@DU?$char_traits@D@std@@V?$allocator@D@2@@std@@@std@@PAX@std@@@std@@@std@@QAEXPAPAU?$_Tree_node@U?$pair@$$CBKV?$basic_string@DU?$char_traits@D@std@@V?$allocator@D@2@@std@@@std@@PAX@1@@Z ; std::_Wrap_alloc<std::allocator<std::_Tree_node<std::pair<unsigned long const ,std::basic_string<char,std::char_traits<char>,std::allocator<char> > >,void *> > >::destroy<std::_Tree_node<std::pair<unsigned long const ,std::basic_string<char,std::char_traits<char>,std::allocator<char> > >,void *> *>

; 864  : 		this->_Getal().deallocate(_Pnode, 1);
; 865  : 		}
; 866  : 
; 867  : 	_Alty _Getal() const
; 868  : 		{	// get allocator
; 869  : 		return (_Alty());

  0005c	8d 4d ff	 lea	 ecx, DWORD PTR $T3[ebp]
  0005f	e8 00 00 00 00	 call	 ??0?$_Wrap_alloc@V?$allocator@U?$_Tree_node@U?$pair@$$CBKV?$basic_string@DU?$char_traits@D@std@@V?$allocator@D@2@@std@@@std@@PAX@std@@@std@@@std@@QAE@XZ ; std::_Wrap_alloc<std::allocator<std::_Tree_node<std::pair<unsigned long const ,std::basic_string<char,std::char_traits<char>,std::allocator<char> > >,void *> > >::_Wrap_alloc<std::allocator<std::_Tree_node<std::pair<unsigned long const ,std::basic_string<char,std::char_traits<char>,std::allocator<char> > >,void *> > >
; File c:\program files (x86)\microsoft visual studio 12.0\vc\include\xmemory0

; 573  : 		::operator delete(_Ptr);

  00064	56		 push	 esi
  00065	e8 00 00 00 00	 call	 ??3@YAXPAX@Z		; operator delete
  0006a	83 c4 04	 add	 esp, 4
  0006d	5e		 pop	 esi
  0006e	8b e5		 mov	 esp, ebp
  00070	5d		 pop	 ebp
  00071	c3		 ret	 0
??__Fgs_kAppStrTable@@YAXXZ ENDP			; `dynamic atexit destructor for 'gs_kAppStrTable''
text$yd	ENDS
; Function compile flags: /Ogtp
; File c:\program files (x86)\microsoft visual studio 12.0\vc\include\xtree
;	COMDAT ??0ApplicationStringTable@@QAE@XZ
_TEXT	SEGMENT
??0ApplicationStringTable@@QAE@XZ PROC			; ApplicationStringTable::ApplicationStringTable, COMDAT
; _this$dead$ = ecx

; 773  : 		this->_Myhead = _Buyheadnode();

  00000	b9 04 00 00 00	 mov	 ecx, OFFSET ?gs_kAppStrTable@@3UApplicationStringTable@@A+4

; 569  : 		this->_Myhead = 0;

  00005	c7 05 04 00 00
	00 00 00 00 00	 mov	 DWORD PTR ?gs_kAppStrTable@@3UApplicationStringTable@@A+4, 0

; 570  : 		this->_Mysize = 0;

  0000f	c7 05 08 00 00
	00 00 00 00 00	 mov	 DWORD PTR ?gs_kAppStrTable@@3UApplicationStringTable@@A+8, 0

; 773  : 		this->_Myhead = _Buyheadnode();

  00019	e8 00 00 00 00	 call	 ?_Buyheadnode@?$_Tree_alloc@$0A@U?$_Tree_base_types@U?$pair@$$CBKV?$basic_string@DU?$char_traits@D@std@@V?$allocator@D@2@@std@@@std@@V?$allocator@U?$pair@$$CBKV?$basic_string@DU?$char_traits@D@std@@V?$allocator@D@2@@std@@@std@@@2@@std@@@std@@QAEPAU?$_Tree_node@U?$pair@$$CBKV?$basic_string@DU?$char_traits@D@std@@V?$allocator@D@2@@std@@@std@@PAX@2@XZ ; std::_Tree_alloc<0,std::_Tree_base_types<std::pair<unsigned long const ,std::basic_string<char,std::char_traits<char>,std::allocator<char> > >,std::allocator<std::pair<unsigned long const ,std::basic_string<char,std::char_traits<char>,std::allocator<char> > > > > >::_Buyheadnode
  0001e	a3 04 00 00 00	 mov	 DWORD PTR ?gs_kAppStrTable@@3UApplicationStringTable@@A+4, eax
  00023	b8 00 00 00 00	 mov	 eax, OFFSET ?gs_kAppStrTable@@3UApplicationStringTable@@A ; gs_kAppStrTable
  00028	c3		 ret	 0
??0ApplicationStringTable@@QAE@XZ ENDP			; ApplicationStringTable::ApplicationStringTable
_TEXT	ENDS
; Function compile flags: /Ogtp
; File c:\program files (x86)\microsoft visual studio 12.0\vc\include\xtree
; File c:\program files (x86)\microsoft visual studio 12.0\vc\include\xmemory0
;	COMDAT ??1ApplicationStringTable@@QAE@XZ
_TEXT	SEGMENT
$T1 = -4						; size = 4
??1ApplicationStringTable@@QAE@XZ PROC			; ApplicationStringTable::~ApplicationStringTable, COMDAT
; _this$dead$ = ecx
  00000	55		 push	 ebp
  00001	8b ec		 mov	 ebp, esp
  00003	51		 push	 ecx
; File c:\program files (x86)\microsoft visual studio 12.0\vc\include\xtree

; 2230 : 		erase(begin(), end());

  00004	a1 04 00 00 00	 mov	 eax, DWORD PTR ?gs_kAppStrTable@@3UApplicationStringTable@@A+4
  00009	b9 04 00 00 00	 mov	 ecx, OFFSET ?gs_kAppStrTable@@3UApplicationStringTable@@A+4
  0000e	50		 push	 eax
  0000f	ff 30		 push	 DWORD PTR [eax]
  00011	8d 45 fc	 lea	 eax, DWORD PTR $T1[ebp]
  00014	50		 push	 eax
  00015	e8 00 00 00 00	 call	 ?erase@?$_Tree@V?$_Tmap_traits@KV?$basic_string@DU?$char_traits@D@std@@V?$allocator@D@2@@std@@U?$less@K@2@V?$allocator@U?$pair@$$CBKV?$basic_string@DU?$char_traits@D@std@@V?$allocator@D@2@@std@@@std@@@2@$0A@@std@@@std@@QAE?AV?$_Tree_iterator@V?$_Tree_val@U?$_Tree_simple_types@U?$pair@$$CBKV?$basic_string@DU?$char_traits@D@std@@V?$allocator@D@2@@std@@@std@@@std@@@std@@@2@V?$_Tree_const_iterator@V?$_Tree_val@U?$_Tree_simple_types@U?$pair@$$CBKV?$basic_string@DU?$char_traits@D@std@@V?$allocator@D@2@@std@@@std@@@std@@@std@@@2@0@Z ; std::_Tree<std::_Tmap_traits<unsigned long,std::basic_string<char,std::char_traits<char>,std::allocator<char> >,std::less<unsigned long>,std::allocator<std::pair<unsigned long const ,std::basic_string<char,std::char_traits<char>,std::allocator<char> > > >,0> >::erase
; File c:\program files (x86)\microsoft visual studio 12.0\vc\include\xmemory0

; 573  : 		::operator delete(_Ptr);

  0001a	ff 35 04 00 00
	00		 push	 DWORD PTR ?gs_kAppStrTable@@3UApplicationStringTable@@A+4
  00020	e8 00 00 00 00	 call	 ??3@YAXPAX@Z		; operator delete
  00025	83 c4 04	 add	 esp, 4
  00028	8b e5		 mov	 esp, ebp
  0002a	5d		 pop	 ebp
  0002b	c3		 ret	 0
??1ApplicationStringTable@@QAE@XZ ENDP			; ApplicationStringTable::~ApplicationStringTable
_TEXT	ENDS
; Function compile flags: /Ogtp
; File d:\metin2\metin2\client_source_clean\client_source_clean\source\userinterface\userinterface.cpp
;	COMDAT ?ApplicationStringTable_Initialize@@YAXPAUHINSTANCE__@@@Z
_TEXT	SEGMENT
?ApplicationStringTable_Initialize@@YAXPAUHINSTANCE__@@@Z PROC ; ApplicationStringTable_Initialize, COMDAT
; _hInstance$ = ecx

; 106  : 	gs_kAppStrTable.m_hInstance=hInstance;

  00000	89 0d 00 00 00
	00		 mov	 DWORD PTR ?gs_kAppStrTable@@3UApplicationStringTable@@A, ecx

; 107  : }

  00006	c3		 ret	 0
?ApplicationStringTable_Initialize@@YAXPAUHINSTANCE__@@@Z ENDP ; ApplicationStringTable_Initialize
_TEXT	ENDS
; Function compile flags: /Ogtp
; File d:\metin2\metin2\client_source_clean\client_source_clean\source\userinterface\userinterface.cpp
; File c:\program files (x86)\microsoft visual studio 12.0\vc\include\iosfwd
; File d:\metin2\metin2\client_source_clean\client_source_clean\source\userinterface\userinterface.cpp
; File c:\program files (x86)\microsoft visual studio 12.0\vc\include\iosfwd
; File c:\program files (x86)\microsoft visual studio 12.0\vc\include\xstring
; File d:\metin2\metin2\client_source_clean\client_source_clean\source\userinterface\userinterface.cpp
;	COMDAT ?ApplicationStringTable_GetString@@YAABV?$basic_string@DU?$char_traits@D@std@@V?$allocator@D@2@@std@@KPBD@Z
_TEXT	SEGMENT
_dwID$ = -1032						; size = 4
_szLocale$ = -1028					; size = 256
_szBuffer$ = -772					; size = 512
_szIniFileName$ = -260					; size = 256
__$ArrayPad$ = -4					; size = 4
?ApplicationStringTable_GetString@@YAABV?$basic_string@DU?$char_traits@D@std@@V?$allocator@D@2@@std@@KPBD@Z PROC ; ApplicationStringTable_GetString, COMDAT
; _dwID$ = ecx
; _szKey$ = edx

; 110  : {

  00000	55		 push	 ebp
  00001	8b ec		 mov	 ebp, esp
  00003	81 ec 08 04 00
	00		 sub	 esp, 1032		; 00000408H
  00009	a1 00 00 00 00	 mov	 eax, DWORD PTR ___security_cookie
  0000e	33 c5		 xor	 eax, ebp
  00010	89 45 fc	 mov	 DWORD PTR __$ArrayPad$[ebp], eax
  00013	56		 push	 esi
  00014	57		 push	 edi

; 111  : 	char szBuffer[512];
; 112  : 	char szIniFileName[256];
; 113  : 	char szLocale[256];
; 114  : 
; 115  : 	::GetCurrentDirectory(sizeof(szIniFileName), szIniFileName);

  00015	8d 85 fc fe ff
	ff		 lea	 eax, DWORD PTR _szIniFileName$[ebp]
  0001b	89 8d f8 fb ff
	ff		 mov	 DWORD PTR _dwID$[ebp], ecx
  00021	50		 push	 eax
  00022	68 00 01 00 00	 push	 256			; 00000100H
  00027	8b f2		 mov	 esi, edx
  00029	ff 15 00 00 00
	00		 call	 DWORD PTR __imp__GetCurrentDirectoryA@8

; 116  : 	if(szIniFileName[lstrlen(szIniFileName)-1] != '\\')

  0002f	8d 85 fc fe ff
	ff		 lea	 eax, DWORD PTR _szIniFileName$[ebp]
  00035	50		 push	 eax
  00036	ff 15 00 00 00
	00		 call	 DWORD PTR __imp__lstrlenA@4
  0003c	8d 8d fc fe ff
	ff		 lea	 ecx, DWORD PTR _szIniFileName$[ebp]
  00042	80 7c 08 ff 5c	 cmp	 BYTE PTR [eax+ecx-1], 92 ; 0000005cH
  00047	74 1a		 je	 SHORT $LN5@Applicatio

; 117  : 		strcat(szIniFileName, "\\");

  00049	8b f9		 mov	 edi, ecx
  0004b	4f		 dec	 edi
  0004c	8d 64 24 00	 npad	 4
$LL28@Applicatio:
  00050	8a 47 01	 mov	 al, BYTE PTR [edi+1]
  00053	8d 7f 01	 lea	 edi, DWORD PTR [edi+1]
  00056	84 c0		 test	 al, al
  00058	75 f6		 jne	 SHORT $LL28@Applicatio
  0005a	66 a1 00 00 00
	00		 mov	 ax, WORD PTR ??_C@_01KICIPPFI@?2?$AA@
  00060	66 89 07	 mov	 WORD PTR [edi], ax
$LN5@Applicatio:

; 118  : 	strcat(szIniFileName, "metin2client.dat");

  00063	8d 8d fc fe ff
	ff		 lea	 ecx, DWORD PTR _szIniFileName$[ebp]
  00069	49		 dec	 ecx
  0006a	8d 9b 00 00 00
	00		 npad	 6
$LL29@Applicatio:
  00070	8a 41 01	 mov	 al, BYTE PTR [ecx+1]
  00073	8d 49 01	 lea	 ecx, DWORD PTR [ecx+1]
  00076	84 c0		 test	 al, al
  00078	75 f6		 jne	 SHORT $LL29@Applicatio
  0007a	a1 00 00 00 00	 mov	 eax, DWORD PTR ??_C@_0BB@FPBAACEA@metin2client?4dat?$AA@
  0007f	89 01		 mov	 DWORD PTR [ecx], eax
  00081	a1 04 00 00 00	 mov	 eax, DWORD PTR ??_C@_0BB@FPBAACEA@metin2client?4dat?$AA@+4
  00086	89 41 04	 mov	 DWORD PTR [ecx+4], eax
  00089	a1 08 00 00 00	 mov	 eax, DWORD PTR ??_C@_0BB@FPBAACEA@metin2client?4dat?$AA@+8
  0008e	89 41 08	 mov	 DWORD PTR [ecx+8], eax
  00091	a1 0c 00 00 00	 mov	 eax, DWORD PTR ??_C@_0BB@FPBAACEA@metin2client?4dat?$AA@+12
  00096	89 41 0c	 mov	 DWORD PTR [ecx+12], eax
  00099	a0 10 00 00 00	 mov	 al, BYTE PTR ??_C@_0BB@FPBAACEA@metin2client?4dat?$AA@+16
  0009e	53		 push	 ebx
  0009f	88 41 10	 mov	 BYTE PTR [ecx+16], al

; 119  : 
; 120  : 	strcpy(szLocale, LocaleService_GetLocalePath());

  000a2	e8 00 00 00 00	 call	 ?LocaleService_GetLocalePath@@YAPBDXZ ; LocaleService_GetLocalePath
  000a7	8b d8		 mov	 ebx, eax
  000a9	8d bd fc fb ff
	ff		 lea	 edi, DWORD PTR _szLocale$[ebp]
  000af	8b d3		 mov	 edx, ebx
  000b1	2b fb		 sub	 edi, ebx
$LL8@Applicatio:
  000b3	8a 0a		 mov	 cl, BYTE PTR [edx]
  000b5	8d 52 01	 lea	 edx, DWORD PTR [edx+1]
  000b8	88 4c 17 ff	 mov	 BYTE PTR [edi+edx-1], cl
  000bc	84 c9		 test	 cl, cl
  000be	75 f3		 jne	 SHORT $LL8@Applicatio

; 121  : 	if(strnicmp(szLocale, "locale/", strlen("locale/")) == 0)

  000c0	6a 07		 push	 7
  000c2	8d 85 fc fb ff
	ff		 lea	 eax, DWORD PTR _szLocale$[ebp]
  000c8	68 00 00 00 00	 push	 OFFSET ??_C@_07GHKFPDHK@locale?1?$AA@
  000cd	50		 push	 eax
  000ce	e8 00 00 00 00	 call	 __strnicmp
  000d3	83 c4 0c	 add	 esp, 12			; 0000000cH
  000d6	85 c0		 test	 eax, eax
  000d8	75 18		 jne	 SHORT $LN4@Applicatio

; 122  : 		strcpy(szLocale, LocaleService_GetLocalePath() + strlen("locale/"));

  000da	8d 4b 07	 lea	 ecx, DWORD PTR [ebx+7]
  000dd	8d 95 fc fb ff
	ff		 lea	 edx, DWORD PTR _szLocale$[ebp]
  000e3	2b d1		 sub	 edx, ecx
$LL9@Applicatio:
  000e5	8a 01		 mov	 al, BYTE PTR [ecx]
  000e7	8d 49 01	 lea	 ecx, DWORD PTR [ecx+1]
  000ea	88 44 0a ff	 mov	 BYTE PTR [edx+ecx-1], al
  000ee	84 c0		 test	 al, al
  000f0	75 f3		 jne	 SHORT $LL9@Applicatio
$LN4@Applicatio:

; 123  : 	::GetPrivateProfileString(szLocale, szKey, NULL, szBuffer, sizeof(szBuffer)-1, szIniFileName);

  000f2	8b 3d 00 00 00
	00		 mov	 edi, DWORD PTR __imp__GetPrivateProfileStringA@24
  000f8	8d 85 fc fe ff
	ff		 lea	 eax, DWORD PTR _szIniFileName$[ebp]
  000fe	50		 push	 eax
  000ff	68 ff 01 00 00	 push	 511			; 000001ffH
  00104	8d 85 fc fc ff
	ff		 lea	 eax, DWORD PTR _szBuffer$[ebp]
  0010a	50		 push	 eax
  0010b	6a 00		 push	 0
  0010d	56		 push	 esi
  0010e	8d 85 fc fb ff
	ff		 lea	 eax, DWORD PTR _szLocale$[ebp]
  00114	50		 push	 eax
  00115	ff d7		 call	 edi

; 124  : 	if(szBuffer[0] == '\0')

  00117	80 bd fc fc ff
	ff 00		 cmp	 BYTE PTR _szBuffer$[ebp], 0
  0011e	5b		 pop	 ebx
  0011f	75 62		 jne	 SHORT $LN1@Applicatio

; 125  : 		LoadString(gs_kAppStrTable.m_hInstance, dwID, szBuffer, sizeof(szBuffer)-1);

  00121	68 ff 01 00 00	 push	 511			; 000001ffH
  00126	8d 85 fc fc ff
	ff		 lea	 eax, DWORD PTR _szBuffer$[ebp]
  0012c	50		 push	 eax
  0012d	ff b5 f8 fb ff
	ff		 push	 DWORD PTR _dwID$[ebp]
  00133	ff 35 00 00 00
	00		 push	 DWORD PTR ?gs_kAppStrTable@@3UApplicationStringTable@@A
  00139	ff 15 00 00 00
	00		 call	 DWORD PTR __imp__LoadStringA@16

; 126  : 	if(szBuffer[0] == '\0')

  0013f	80 bd fc fc ff
	ff 00		 cmp	 BYTE PTR _szBuffer$[ebp], 0
  00146	75 3b		 jne	 SHORT $LN1@Applicatio

; 127  : 		::GetPrivateProfileString("en", szKey, NULL, szBuffer, sizeof(szBuffer)-1, szIniFileName);

  00148	8d 85 fc fe ff
	ff		 lea	 eax, DWORD PTR _szIniFileName$[ebp]
  0014e	50		 push	 eax
  0014f	68 ff 01 00 00	 push	 511			; 000001ffH
  00154	8d 85 fc fc ff
	ff		 lea	 eax, DWORD PTR _szBuffer$[ebp]
  0015a	50		 push	 eax
  0015b	6a 00		 push	 0
  0015d	56		 push	 esi
  0015e	68 00 00 00 00	 push	 OFFSET ??_C@_02LFNMGJAP@en?$AA@
  00163	ff d7		 call	 edi

; 128  : 	if(szBuffer[0] == '\0')

  00165	80 bd fc fc ff
	ff 00		 cmp	 BYTE PTR _szBuffer$[ebp], 0
  0016c	75 15		 jne	 SHORT $LN1@Applicatio

; 129  : 		strcpy(szBuffer, szKey);

  0016e	8d 8d fc fc ff
	ff		 lea	 ecx, DWORD PTR _szBuffer$[ebp]
  00174	2b ce		 sub	 ecx, esi
$LL10@Applicatio:
  00176	8a 06		 mov	 al, BYTE PTR [esi]
  00178	8d 76 01	 lea	 esi, DWORD PTR [esi+1]
  0017b	88 44 31 ff	 mov	 BYTE PTR [ecx+esi-1], al
  0017f	84 c0		 test	 al, al
  00181	75 f3		 jne	 SHORT $LL10@Applicatio
$LN1@Applicatio:

; 131  : 	std::string& rstLocale=gs_kAppStrTable.m_kMap_dwID_stLocale[dwID];

  00183	8d 85 f8 fb ff
	ff		 lea	 eax, DWORD PTR _dwID$[ebp]
  00189	b9 04 00 00 00	 mov	 ecx, OFFSET ?gs_kAppStrTable@@3UApplicationStringTable@@A+4
  0018e	50		 push	 eax
  0018f	e8 00 00 00 00	 call	 ??A?$map@KV?$basic_string@DU?$char_traits@D@std@@V?$allocator@D@2@@std@@U?$less@K@2@V?$allocator@U?$pair@$$CBKV?$basic_string@DU?$char_traits@D@std@@V?$allocator@D@2@@std@@@std@@@2@@std@@QAEAAV?$basic_string@DU?$char_traits@D@std@@V?$allocator@D@2@@1@ABK@Z ; std::map<unsigned long,std::basic_string<char,std::char_traits<char>,std::allocator<char> >,std::less<unsigned long>,std::allocator<std::pair<unsigned long const ,std::basic_string<char,std::char_traits<char>,std::allocator<char> > > > >::operator[]
; File c:\program files (x86)\microsoft visual studio 12.0\vc\include\iosfwd

; 523  : 			: _CSTD strlen(_First));

  00194	80 bd fc fc ff
	ff 00		 cmp	 BYTE PTR _szBuffer$[ebp], 0
; File d:\metin2\metin2\client_source_clean\client_source_clean\source\userinterface\userinterface.cpp

; 131  : 	std::string& rstLocale=gs_kAppStrTable.m_kMap_dwID_stLocale[dwID];

  0019b	8b f0		 mov	 esi, eax
; File c:\program files (x86)\microsoft visual studio 12.0\vc\include\iosfwd

; 523  : 			: _CSTD strlen(_First));

  0019d	75 04		 jne	 SHORT $LN17@Applicatio
  0019f	33 c9		 xor	 ecx, ecx
  001a1	eb 16		 jmp	 SHORT $LN18@Applicatio
$LN17@Applicatio:
  001a3	8d 8d fc fc ff
	ff		 lea	 ecx, DWORD PTR _szBuffer$[ebp]
  001a9	8d 51 01	 lea	 edx, DWORD PTR [ecx+1]
  001ac	8d 64 24 00	 npad	 4
$LL30@Applicatio:
  001b0	8a 01		 mov	 al, BYTE PTR [ecx]
  001b2	41		 inc	 ecx
  001b3	84 c0		 test	 al, al
  001b5	75 f9		 jne	 SHORT $LL30@Applicatio
  001b7	2b ca		 sub	 ecx, edx
$LN18@Applicatio:
; File c:\program files (x86)\microsoft visual studio 12.0\vc\include\xstring

; 1169 : 		return (assign(_Ptr, _Traits::length(_Ptr)));

  001b9	51		 push	 ecx
  001ba	8d 85 fc fc ff
	ff		 lea	 eax, DWORD PTR _szBuffer$[ebp]
  001c0	8b ce		 mov	 ecx, esi
  001c2	50		 push	 eax
  001c3	e8 00 00 00 00	 call	 ?assign@?$basic_string@DU?$char_traits@D@std@@V?$allocator@D@2@@std@@QAEAAV12@PBDI@Z ; std::basic_string<char,std::char_traits<char>,std::allocator<char> >::assign
; File d:\metin2\metin2\client_source_clean\client_source_clean\source\userinterface\userinterface.cpp

; 135  : }

  001c8	8b 4d fc	 mov	 ecx, DWORD PTR __$ArrayPad$[ebp]
  001cb	8b c6		 mov	 eax, esi
  001cd	5f		 pop	 edi
  001ce	33 cd		 xor	 ecx, ebp
  001d0	5e		 pop	 esi
  001d1	e8 00 00 00 00	 call	 @__security_check_cookie@4
  001d6	8b e5		 mov	 esp, ebp
  001d8	5d		 pop	 ebp
  001d9	c3		 ret	 0
?ApplicationStringTable_GetString@@YAABV?$basic_string@DU?$char_traits@D@std@@V?$allocator@D@2@@std@@KPBD@Z ENDP ; ApplicationStringTable_GetString
_TEXT	ENDS
; Function compile flags: /Ogtp
; File d:\metin2\metin2\client_source_clean\client_source_clean\source\userinterface\userinterface.cpp
; File c:\program files (x86)\microsoft visual studio 12.0\vc\include\xstring
; File c:\program files (x86)\microsoft visual studio 12.0\vc\include\iosfwd
; File c:\program files (x86)\microsoft visual studio 12.0\vc\include\xstring
; File d:\metin2\metin2\client_source_clean\client_source_clean\source\userinterface\userinterface.cpp
; File c:\program files (x86)\microsoft visual studio 12.0\vc\include\xstring
; File c:\program files (x86)\microsoft visual studio 12.0\vc\include\iosfwd
; File c:\program files (x86)\microsoft visual studio 12.0\vc\include\xstring
; File d:\metin2\metin2\client_source_clean\client_source_clean\source\userinterface\userinterface.cpp
; File c:\program files (x86)\microsoft visual studio 12.0\vc\include\xstring
; File d:\metin2\metin2\client_source_clean\client_source_clean\source\userinterface\userinterface.cpp
; File c:\program files (x86)\microsoft visual studio 12.0\vc\include\xstring
; File d:\metin2\metin2\client_source_clean\client_source_clean\source\userinterface\userinterface.cpp
; File c:\program files (x86)\microsoft visual studio 12.0\vc\include\xstring
; File d:\metin2\metin2\client_source_clean\client_source_clean\source\userinterface\userinterface.cpp
; File c:\program files (x86)\microsoft visual studio 12.0\vc\include\xstring
; File d:\metin2\metin2\client_source_clean\client_source_clean\source\userinterface\userinterface.cpp
; File c:\program files (x86)\microsoft visual studio 12.0\vc\include\xstring
; File d:\metin2\metin2\client_source_clean\client_source_clean\source\userinterface\userinterface.cpp
; File c:\program files (x86)\microsoft visual studio 12.0\vc\include\xstring
; File d:\metin2\metin2\client_source_clean\client_source_clean\source\userinterface\userinterface.cpp
; File c:\program files (x86)\microsoft visual studio 12.0\vc\include\xstring
; File c:\program files (x86)\microsoft visual studio 12.0\vc\include\iosfwd
; File c:\program files (x86)\microsoft visual studio 12.0\vc\include\xstring
; File c:\program files (x86)\microsoft visual studio 12.0\vc\include\iosfwd
; File d:\metin2\metin2\client_source_clean\client_source_clean\source\userinterface\userinterface.cpp
; File c:\program files (x86)\microsoft visual studio 12.0\vc\include\xstring
; File c:\program files (x86)\microsoft visual studio 12.0\vc\include\xmemory0
; File c:\program files (x86)\microsoft visual studio 12.0\vc\include\xstring
; File c:\program files (x86)\microsoft visual studio 12.0\vc\include\iosfwd
; File c:\program files (x86)\microsoft visual studio 12.0\vc\include\xstring
; File c:\program files (x86)\microsoft visual studio 12.0\vc\include\xmemory0
; File d:\metin2\metin2\client_source_clean\client_source_clean\source\userinterface\userinterface.cpp
; File c:\program files (x86)\microsoft visual studio 12.0\vc\include\xstring
; File c:\program files (x86)\microsoft visual studio 12.0\vc\include\xmemory0
; File c:\program files (x86)\microsoft visual studio 12.0\vc\include\xstring
; File c:\program files (x86)\microsoft visual studio 12.0\vc\include\iosfwd
; File c:\program files (x86)\microsoft visual studio 12.0\vc\include\xstring
; File c:\program files (x86)\microsoft visual studio 12.0\vc\include\xmemory0
; File c:\program files (x86)\microsoft visual studio 12.0\vc\include\xstring
; File c:\program files (x86)\microsoft visual studio 12.0\vc\include\xstddef
; File c:\program files (x86)\microsoft visual studio 12.0\vc\include\xstring
; File d:\metin2\metin2\client_source_clean\client_source_clean\source\userinterface\userinterface.cpp
; File c:\program files (x86)\microsoft visual studio 12.0\vc\include\xstring
; File d:\metin2\metin2\client_source_clean\client_source_clean\source\userinterface\userinterface.cpp
; File c:\program files (x86)\microsoft visual studio 12.0\vc\include\xstring
; File c:\program files (x86)\microsoft visual studio 12.0\vc\include\xstddef
; File c:\program files (x86)\microsoft visual studio 12.0\vc\include\xstring
; File d:\metin2\metin2\client_source_clean\client_source_clean\source\userinterface\userinterface.cpp
; File c:\program files (x86)\microsoft visual studio 12.0\vc\include\xstring
; File d:\metin2\metin2\client_source_clean\client_source_clean\source\userinterface\userinterface.cpp
; File c:\program files (x86)\microsoft visual studio 12.0\vc\include\xstring
; File c:\program files (x86)\microsoft visual studio 12.0\vc\include\iosfwd
; File c:\program files (x86)\microsoft visual studio 12.0\vc\include\xstring
; File d:\metin2\metin2\client_source_clean\client_source_clean\source\userinterface\userinterface.cpp
; File c:\program files (x86)\microsoft visual studio 12.0\vc\include\xstring
; File c:\program files (x86)\microsoft visual studio 12.0\vc\include\xstddef
; File d:\metin2\metin2\client_source_clean\client_source_clean\source\userinterface\userinterface.cpp
; File c:\program files (x86)\microsoft visual studio 12.0\vc\include\xstring
; File c:\program files (x86)\microsoft visual studio 12.0\vc\include\xmemory0
; File c:\program files (x86)\microsoft visual studio 12.0\vc\include\xstring
; File c:\program files (x86)\microsoft visual studio 12.0\vc\include\iosfwd
; File c:\program files (x86)\microsoft visual studio 12.0\vc\include\xstring
; File c:\program files (x86)\microsoft visual studio 12.0\vc\include\xmemory0
; File d:\metin2\metin2\client_source_clean\client_source_clean\source\userinterface\userinterface.cpp
; File c:\program files (x86)\microsoft visual studio 12.0\vc\include\xstring
; File d:\metin2\metin2\client_source_clean\client_source_clean\source\userinterface\userinterface.cpp
; File c:\program files (x86)\microsoft visual studio 12.0\vc\include\xstring
; File c:\program files (x86)\microsoft visual studio 12.0\vc\include\xmemory0
; File c:\program files (x86)\microsoft visual studio 12.0\vc\include\xstring
; File c:\program files (x86)\microsoft visual studio 12.0\vc\include\iosfwd
; File c:\program files (x86)\microsoft visual studio 12.0\vc\include\xstring
; File c:\program files (x86)\microsoft visual studio 12.0\vc\include\xmemory0
; File c:\program files (x86)\microsoft visual studio 12.0\vc\include\xstring
; File c:\program files (x86)\microsoft visual studio 12.0\vc\include\iosfwd
; File d:\metin2\metin2\client_source_clean\client_source_clean\source\userinterface\userinterface.cpp
; File c:\program files (x86)\microsoft visual studio 12.0\vc\include\xstring
; File c:\program files (x86)\microsoft visual studio 12.0\vc\include\xmemory0
; File c:\program files (x86)\microsoft visual studio 12.0\vc\include\xstring
; File c:\program files (x86)\microsoft visual studio 12.0\vc\include\iosfwd
; File c:\program files (x86)\microsoft visual studio 12.0\vc\include\xstring
; File c:\program files (x86)\microsoft visual studio 12.0\vc\include\xmemory0
; File d:\metin2\metin2\client_source_clean\client_source_clean\source\userinterface\userinterface.cpp
;	COMDAT ?PackInitialize@@YA_NPBD@Z
_TEXT	SEGMENT
_TextLoader$ = -508					; size = 16
_pvData$ = -492						; size = 4
_file$ = -488						; size = 324
$T2 = -160						; size = 24
_stFolder$ = -136					; size = 24
$T3 = -112						; size = 24
$T4 = -112						; size = 24
$T5 = -112						; size = 24
_strTexCachePackName$ = -88				; size = 24
_strPackName$ = -64					; size = 24
_stFileName$ = -40					; size = 24
__$ArrayPad$ = -16					; size = 4
__$EHRec$ = -12						; size = 12
?PackInitialize@@YA_NPBD@Z PROC				; PackInitialize, COMDAT
; _c_pszFolder$dead$ = ecx

; 163  : {

  00000	55		 push	 ebp
  00001	8b ec		 mov	 ebp, esp
  00003	6a ff		 push	 -1
  00005	68 00 00 00 00	 push	 __ehhandler$?PackInitialize@@YA_NPBD@Z
  0000a	64 a1 00 00 00
	00		 mov	 eax, DWORD PTR fs:0
  00010	50		 push	 eax
  00011	81 ec f4 01 00
	00		 sub	 esp, 500		; 000001f4H
  00017	a1 00 00 00 00	 mov	 eax, DWORD PTR ___security_cookie
  0001c	33 c5		 xor	 eax, ebp
  0001e	89 45 f0	 mov	 DWORD PTR __$ArrayPad$[ebp], eax
  00021	53		 push	 ebx
  00022	56		 push	 esi
  00023	57		 push	 edi
  00024	50		 push	 eax
  00025	8d 45 f4	 lea	 eax, DWORD PTR __$EHRec$[ebp]
  00028	64 a3 00 00 00
	00		 mov	 DWORD PTR fs:0, eax

; 164  : 	NANOBEGIN

  0002e	eb		 DB	 -21			; ffffffebH
  0002f	03		 DB	 3
  00030	d6		 DB	 -42			; ffffffd6H
  00031	d7		 DB	 -41			; ffffffd7H
  00032	01		 DB	 1

; 165  : 	if (_access(c_pszFolder, 0) != 0)

  00033	6a 00		 push	 0
  00035	68 00 00 00 00	 push	 OFFSET ??_C@_04IPANLPFO@pack?$AA@
  0003a	e8 00 00 00 00	 call	 __access
  0003f	83 c4 08	 add	 esp, 8
  00042	85 c0		 test	 eax, eax
  00044	74 07		 je	 SHORT $LN6@PackInitia

; 166  : 		return true;

  00046	b0 01		 mov	 al, 1
  00048	e9 43 04 00 00	 jmp	 $LN7@PackInitia
$LN6@PackInitia:
; File c:\program files (x86)\microsoft visual studio 12.0\vc\include\xstring

; 1169 : 		return (assign(_Ptr, _Traits::length(_Ptr)));

  0004d	6a 04		 push	 4
  0004f	68 00 00 00 00	 push	 OFFSET ??_C@_04IPANLPFO@pack?$AA@
  00054	8d 8d 78 ff ff
	ff		 lea	 ecx, DWORD PTR _stFolder$[ebp]

; 2284 : 		this->_Myres = this->_BUF_SIZE - 1;

  0005a	c7 45 8c 0f 00
	00 00		 mov	 DWORD PTR _stFolder$[ebp+20], 15 ; 0000000fH

; 2160 : 		}
; 2161 : 
; 2162 : 	int compare(size_type _Off, size_type _N0, const _Elem *_Ptr) const
; 2163 : 		{	// compare [_Off, _Off + _N0) with [_Ptr, <null>)
; 2164 : 		_DEBUG_POINTER(_Ptr);
; 2165 : 		return (compare(_Off, _N0, _Ptr, _Traits::length(_Ptr)));
; 2166 : 		}
; 2167 : 
; 2168 : 	int compare(size_type _Off,
; 2169 : 		size_type _N0, const _Elem *_Ptr, size_type _Count) const
; 2170 : 		{	// compare [_Off, _Off + _N0) with [_Ptr, _Ptr + _Count)
; 2171 :  #if _ITERATOR_DEBUG_LEVEL == 2
; 2172 : 		if (_Count != 0)
; 2173 : 			_DEBUG_POINTER(_Ptr);
; 2174 :  #endif /* _ITERATOR_DEBUG_LEVEL == 2 */
; 2175 : 
; 2176 : 		if (this->_Mysize < _Off)
; 2177 : 			_Xran();	// _Off off end
; 2178 : 		if (this->_Mysize - _Off < _N0)
; 2179 : 			_N0 = this->_Mysize - _Off;	// trim _N0 to size
; 2180 : 
; 2181 : 		size_type _Ans = _Traits::compare(this->_Myptr() + _Off, _Ptr,
; 2182 : 			_N0 < _Count ? _N0 : _Count);
; 2183 : 		return (_Ans != 0 ? (int)_Ans : _N0 < _Count ? -1
; 2184 : 			: _N0 == _Count ? 0 : +1);
; 2185 : 		}
; 2186 : 
; 2187 : 	allocator_type get_allocator() const _NOEXCEPT
; 2188 : 		{	// return allocator object for values
; 2189 : 		return (this->_Getal());
; 2190 : 		}
; 2191 : 
; 2192 : 	void _Chassign(size_type _Off, size_type _Count, _Elem _Ch)
; 2193 : 		{	// assign _Count copies of _Ch beginning at _Off
; 2194 : 		if (_Count == 1)
; 2195 : 			_Traits::assign(*(this->_Myptr() + _Off), _Ch);
; 2196 : 		else
; 2197 : 			_Traits::assign(this->_Myptr() + _Off, _Count, _Ch);
; 2198 : 		}
; 2199 : 
; 2200 : 	void _Copy(size_type _Newsize, size_type _Oldlen)
; 2201 : 		{	// copy _Oldlen elements to newly allocated buffer
; 2202 : 		size_type _Newres = _Newsize | this->_ALLOC_MASK;
; 2203 : 		if (max_size() < _Newres)
; 2204 : 			_Newres = _Newsize;	// undo roundup if too big
; 2205 : 		else if (this->_Myres / 2 <= _Newres / 3)
; 2206 : 			;
; 2207 : 		else if (this->_Myres <= max_size() - this->_Myres / 2)
; 2208 : 			_Newres = this->_Myres
; 2209 : 				+ this->_Myres / 2;	// grow exponentially if possible
; 2210 : 		else
; 2211 : 			_Newres = max_size();	// settle for max_size()
; 2212 : 
; 2213 : 		_Elem *_Ptr;
; 2214 : 		_TRY_BEGIN
; 2215 : 			_Ptr = this->_Getal().allocate(_Newres + 1);
; 2216 : 		_CATCH_ALL
; 2217 : 			_Newres = _Newsize;	// allocation failed, undo roundup and retry
; 2218 : 			_TRY_BEGIN
; 2219 : 				_Ptr = this->_Getal().allocate(_Newres + 1);
; 2220 : 			_CATCH_ALL
; 2221 : 			_Tidy(true);	// failed again, discard storage and reraise
; 2222 : 			_RERAISE;
; 2223 : 			_CATCH_END
; 2224 : 		_CATCH_END
; 2225 : 
; 2226 : 		if (0 < _Oldlen)
; 2227 : 			_Traits::copy(_Ptr, this->_Myptr(),
; 2228 : 				_Oldlen);	// copy existing elements
; 2229 : 		_Tidy(true);
; 2230 : 		this->_Getal().construct(&this->_Bx._Ptr, _Ptr);
; 2231 : 		this->_Myres = _Newres;
; 2232 : 		_Eos(_Oldlen);
; 2233 : 		}
; 2234 : 
; 2235 : 	void _Eos(size_type _Newsize)
; 2236 : 		{	// set new length and null terminator
; 2237 : 		_Traits::assign(this->_Myptr()[this->_Mysize = _Newsize], _Elem());

  00061	c7 45 88 00 00
	00 00		 mov	 DWORD PTR _stFolder$[ebp+16], 0
; File c:\program files (x86)\microsoft visual studio 12.0\vc\include\iosfwd

; 564  : 		_Left = _Right;

  00068	c6 85 78 ff ff
	ff 00		 mov	 BYTE PTR _stFolder$[ebp], 0
; File c:\program files (x86)\microsoft visual studio 12.0\vc\include\xstring

; 1169 : 		return (assign(_Ptr, _Traits::length(_Ptr)));

  0006f	e8 00 00 00 00	 call	 ?assign@?$basic_string@DU?$char_traits@D@std@@V?$allocator@D@2@@std@@QAEAAV12@PBDI@Z ; std::basic_string<char,std::char_traits<char>,std::allocator<char> >::assign

; 1087 : 		return (append(_Ptr, _Traits::length(_Ptr)));

  00074	6a 01		 push	 1
  00076	68 00 00 00 00	 push	 OFFSET ??_C@_01KMDKNFGN@?1?$AA@
  0007b	8d 8d 78 ff ff
	ff		 lea	 ecx, DWORD PTR _stFolder$[ebp]
; File d:\metin2\metin2\client_source_clean\client_source_clean\source\userinterface\userinterface.cpp

; 168  : 	std::string stFolder(c_pszFolder);

  00081	c7 45 fc 00 00
	00 00		 mov	 DWORD PTR __$EHRec$[ebp+8], 0
; File c:\program files (x86)\microsoft visual studio 12.0\vc\include\xstring

; 1087 : 		return (append(_Ptr, _Traits::length(_Ptr)));

  00088	e8 00 00 00 00	 call	 ?append@?$basic_string@DU?$char_traits@D@std@@V?$allocator@D@2@@std@@QAEAAV12@PBDI@Z ; std::basic_string<char,std::char_traits<char>,std::allocator<char> >::append

; 726  : 		assign(_Right, 0, npos);

  0008d	6a ff		 push	 -1
  0008f	6a 00		 push	 0
  00091	8d 85 78 ff ff
	ff		 lea	 eax, DWORD PTR _stFolder$[ebp]

; 2284 : 		this->_Myres = this->_BUF_SIZE - 1;

  00097	c7 45 ec 0f 00
	00 00		 mov	 DWORD PTR _stFileName$[ebp+20], 15 ; 0000000fH

; 726  : 		assign(_Right, 0, npos);

  0009e	50		 push	 eax
  0009f	8d 4d d8	 lea	 ecx, DWORD PTR _stFileName$[ebp]

; 2160 : 		}
; 2161 : 
; 2162 : 	int compare(size_type _Off, size_type _N0, const _Elem *_Ptr) const
; 2163 : 		{	// compare [_Off, _Off + _N0) with [_Ptr, <null>)
; 2164 : 		_DEBUG_POINTER(_Ptr);
; 2165 : 		return (compare(_Off, _N0, _Ptr, _Traits::length(_Ptr)));
; 2166 : 		}
; 2167 : 
; 2168 : 	int compare(size_type _Off,
; 2169 : 		size_type _N0, const _Elem *_Ptr, size_type _Count) const
; 2170 : 		{	// compare [_Off, _Off + _N0) with [_Ptr, _Ptr + _Count)
; 2171 :  #if _ITERATOR_DEBUG_LEVEL == 2
; 2172 : 		if (_Count != 0)
; 2173 : 			_DEBUG_POINTER(_Ptr);
; 2174 :  #endif /* _ITERATOR_DEBUG_LEVEL == 2 */
; 2175 : 
; 2176 : 		if (this->_Mysize < _Off)
; 2177 : 			_Xran();	// _Off off end
; 2178 : 		if (this->_Mysize - _Off < _N0)
; 2179 : 			_N0 = this->_Mysize - _Off;	// trim _N0 to size
; 2180 : 
; 2181 : 		size_type _Ans = _Traits::compare(this->_Myptr() + _Off, _Ptr,
; 2182 : 			_N0 < _Count ? _N0 : _Count);
; 2183 : 		return (_Ans != 0 ? (int)_Ans : _N0 < _Count ? -1
; 2184 : 			: _N0 == _Count ? 0 : +1);
; 2185 : 		}
; 2186 : 
; 2187 : 	allocator_type get_allocator() const _NOEXCEPT
; 2188 : 		{	// return allocator object for values
; 2189 : 		return (this->_Getal());
; 2190 : 		}
; 2191 : 
; 2192 : 	void _Chassign(size_type _Off, size_type _Count, _Elem _Ch)
; 2193 : 		{	// assign _Count copies of _Ch beginning at _Off
; 2194 : 		if (_Count == 1)
; 2195 : 			_Traits::assign(*(this->_Myptr() + _Off), _Ch);
; 2196 : 		else
; 2197 : 			_Traits::assign(this->_Myptr() + _Off, _Count, _Ch);
; 2198 : 		}
; 2199 : 
; 2200 : 	void _Copy(size_type _Newsize, size_type _Oldlen)
; 2201 : 		{	// copy _Oldlen elements to newly allocated buffer
; 2202 : 		size_type _Newres = _Newsize | this->_ALLOC_MASK;
; 2203 : 		if (max_size() < _Newres)
; 2204 : 			_Newres = _Newsize;	// undo roundup if too big
; 2205 : 		else if (this->_Myres / 2 <= _Newres / 3)
; 2206 : 			;
; 2207 : 		else if (this->_Myres <= max_size() - this->_Myres / 2)
; 2208 : 			_Newres = this->_Myres
; 2209 : 				+ this->_Myres / 2;	// grow exponentially if possible
; 2210 : 		else
; 2211 : 			_Newres = max_size();	// settle for max_size()
; 2212 : 
; 2213 : 		_Elem *_Ptr;
; 2214 : 		_TRY_BEGIN
; 2215 : 			_Ptr = this->_Getal().allocate(_Newres + 1);
; 2216 : 		_CATCH_ALL
; 2217 : 			_Newres = _Newsize;	// allocation failed, undo roundup and retry
; 2218 : 			_TRY_BEGIN
; 2219 : 				_Ptr = this->_Getal().allocate(_Newres + 1);
; 2220 : 			_CATCH_ALL
; 2221 : 			_Tidy(true);	// failed again, discard storage and reraise
; 2222 : 			_RERAISE;
; 2223 : 			_CATCH_END
; 2224 : 		_CATCH_END
; 2225 : 
; 2226 : 		if (0 < _Oldlen)
; 2227 : 			_Traits::copy(_Ptr, this->_Myptr(),
; 2228 : 				_Oldlen);	// copy existing elements
; 2229 : 		_Tidy(true);
; 2230 : 		this->_Getal().construct(&this->_Bx._Ptr, _Ptr);
; 2231 : 		this->_Myres = _Newres;
; 2232 : 		_Eos(_Oldlen);
; 2233 : 		}
; 2234 : 
; 2235 : 	void _Eos(size_type _Newsize)
; 2236 : 		{	// set new length and null terminator
; 2237 : 		_Traits::assign(this->_Myptr()[this->_Mysize = _Newsize], _Elem());

  000a2	c7 45 e8 00 00
	00 00		 mov	 DWORD PTR _stFileName$[ebp+16], 0
; File c:\program files (x86)\microsoft visual studio 12.0\vc\include\iosfwd

; 564  : 		_Left = _Right;

  000a9	c6 45 d8 00	 mov	 BYTE PTR _stFileName$[ebp], 0
; File c:\program files (x86)\microsoft visual studio 12.0\vc\include\xstring

; 726  : 		assign(_Right, 0, npos);

  000ad	e8 00 00 00 00	 call	 ?assign@?$basic_string@DU?$char_traits@D@std@@V?$allocator@D@2@@std@@QAEAAV12@ABV12@II@Z ; std::basic_string<char,std::char_traits<char>,std::allocator<char> >::assign

; 1087 : 		return (append(_Ptr, _Traits::length(_Ptr)));

  000b2	6a 05		 push	 5
  000b4	68 00 00 00 00	 push	 OFFSET ??_C@_05FNNGFGLF@Index?$AA@
  000b9	8d 4d d8	 lea	 ecx, DWORD PTR _stFileName$[ebp]
; File d:\metin2\metin2\client_source_clean\client_source_clean\source\userinterface\userinterface.cpp

; 171  : 	std::string stFileName(stFolder);

  000bc	c6 45 fc 01	 mov	 BYTE PTR __$EHRec$[ebp+8], 1
; File c:\program files (x86)\microsoft visual studio 12.0\vc\include\xstring

; 1087 : 		return (append(_Ptr, _Traits::length(_Ptr)));

  000c0	e8 00 00 00 00	 call	 ?append@?$basic_string@DU?$char_traits@D@std@@V?$allocator@D@2@@std@@QAEAAV12@PBDI@Z ; std::basic_string<char,std::char_traits<char>,std::allocator<char> >::append
; File d:\metin2\metin2\client_source_clean\client_source_clean\source\userinterface\userinterface.cpp

; 174  : 	CMappedFile file;

  000c5	8d 8d 18 fe ff
	ff		 lea	 ecx, DWORD PTR _file$[ebp]
  000cb	e8 00 00 00 00	 call	 ??0CMappedFile@@QAE@XZ	; CMappedFile::CMappedFile

; 177  : 	if (!file.Create(stFileName.c_str(), &pvData, 0, 0))

  000d0	6a 00		 push	 0
  000d2	c6 45 fc 02	 mov	 BYTE PTR __$EHRec$[ebp+8], 2
  000d6	8d 8d 14 fe ff
	ff		 lea	 ecx, DWORD PTR _pvData$[ebp]
; File c:\program files (x86)\microsoft visual studio 12.0\vc\include\xstring

; 520  : 			: this->_Bx._Buf);

  000dc	83 7d ec 10	 cmp	 DWORD PTR _stFileName$[ebp+20], 16 ; 00000010H
  000e0	8d 45 d8	 lea	 eax, DWORD PTR _stFileName$[ebp]
; File d:\metin2\metin2\client_source_clean\client_source_clean\source\userinterface\userinterface.cpp

; 177  : 	if (!file.Create(stFileName.c_str(), &pvData, 0, 0))

  000e3	6a 00		 push	 0
; File c:\program files (x86)\microsoft visual studio 12.0\vc\include\xstring

; 520  : 			: this->_Bx._Buf);

  000e5	0f 43 45 d8	 cmovae	 eax, DWORD PTR _stFileName$[ebp]
; File d:\metin2\metin2\client_source_clean\client_source_clean\source\userinterface\userinterface.cpp

; 177  : 	if (!file.Create(stFileName.c_str(), &pvData, 0, 0))

  000e9	51		 push	 ecx
  000ea	50		 push	 eax
  000eb	8d 8d 18 fe ff
	ff		 lea	 ecx, DWORD PTR _file$[ebp]
  000f1	e8 00 00 00 00	 call	 ?Create@CMappedFile@@QAEHPBDPAPBXHH@Z ; CMappedFile::Create
  000f6	85 c0		 test	 eax, eax
  000f8	75 36		 jne	 SHORT $LN5@PackInitia
; File c:\program files (x86)\microsoft visual studio 12.0\vc\include\xstring

; 520  : 			: this->_Bx._Buf);

  000fa	83 7d ec 10	 cmp	 DWORD PTR _stFileName$[ebp+20], 16 ; 00000010H
  000fe	8d 45 d8	 lea	 eax, DWORD PTR _stFileName$[ebp]
  00101	0f 43 45 d8	 cmovae	 eax, DWORD PTR _stFileName$[ebp]
; File d:\metin2\metin2\client_source_clean\client_source_clean\source\userinterface\userinterface.cpp

; 179  : 		LogBoxf("FATAL ERROR! File not exist: %s", stFileName.c_str());

  00105	50		 push	 eax
  00106	68 00 00 00 00	 push	 OFFSET ??_C@_0CA@PJKENNIH@FATAL?5ERROR?$CB?5File?5not?5exist?3?5?$CFs?$AA@
  0010b	e8 00 00 00 00	 call	 ?LogBoxf@@YAXPBDZZ	; LogBoxf
; File c:\program files (x86)\microsoft visual studio 12.0\vc\include\xstring

; 520  : 			: this->_Bx._Buf);

  00110	83 7d ec 10	 cmp	 DWORD PTR _stFileName$[ebp+20], 16 ; 00000010H
  00114	8d 45 d8	 lea	 eax, DWORD PTR _stFileName$[ebp]
  00117	0f 43 45 d8	 cmovae	 eax, DWORD PTR _stFileName$[ebp]
; File d:\metin2\metin2\client_source_clean\client_source_clean\source\userinterface\userinterface.cpp

; 180  : 		TraceError("FATAL ERROR! File not exist: %s", stFileName.c_str());

  0011b	50		 push	 eax
  0011c	68 00 00 00 00	 push	 OFFSET ??_C@_0CA@PJKENNIH@FATAL?5ERROR?$CB?5File?5not?5exist?3?5?$CFs?$AA@
  00121	e8 00 00 00 00	 call	 ?TraceError@@YAXPBDZZ	; TraceError
  00126	83 c4 10	 add	 esp, 16			; 00000010H
  00129	b3 01		 mov	 bl, 1
  0012b	e9 18 03 00 00	 jmp	 $LN19@PackInitia
$LN5@PackInitia:

; 181  : 		return true;
; 182  : 	}
; 183  : 
; 184  : 	CMemoryTextFileLoader TextLoader;

  00130	8d 8d 04 fe ff
	ff		 lea	 ecx, DWORD PTR _TextLoader$[ebp]
  00136	e8 00 00 00 00	 call	 ??0CMemoryTextFileLoader@@QAE@XZ ; CMemoryTextFileLoader::CMemoryTextFileLoader
  0013b	c6 45 fc 03	 mov	 BYTE PTR __$EHRec$[ebp+8], 3

; 185  : 	TextLoader.Bind(file.Size(), pvData);

  0013f	8d 8d 18 fe ff
	ff		 lea	 ecx, DWORD PTR _file$[ebp]
  00145	ff b5 14 fe ff
	ff		 push	 DWORD PTR _pvData$[ebp]
  0014b	e8 00 00 00 00	 call	 ?Size@CMappedFile@@QAEKXZ ; CMappedFile::Size
  00150	50		 push	 eax
  00151	8d 8d 04 fe ff
	ff		 lea	 ecx, DWORD PTR _TextLoader$[ebp]
  00157	e8 00 00 00 00	 call	 ?Bind@CMemoryTextFileLoader@@QAEXHPBX@Z ; CMemoryTextFileLoader::Bind

; 186  : 
; 187  : 	bool bPackFirst = TRUE;
; 188  : 
; 189  : 	const std::string& strPackType = TextLoader.GetLineString(0);

  0015c	6a 00		 push	 0
  0015e	8d 8d 04 fe ff
	ff		 lea	 ecx, DWORD PTR _TextLoader$[ebp]
  00164	e8 00 00 00 00	 call	 ?GetLineString@CMemoryTextFileLoader@@QAEABV?$basic_string@DU?$char_traits@D@std@@V?$allocator@D@2@@std@@K@Z ; CMemoryTextFileLoader::GetLineString
  00169	8b f0		 mov	 esi, eax
; File c:\program files (x86)\microsoft visual studio 12.0\vc\include\xstring

; 2159 : 		return (compare(0, this->_Mysize, _Ptr, _Traits::length(_Ptr)));

  0016b	6a 04		 push	 4
  0016d	68 00 00 00 00	 push	 OFFSET ??_C@_04PMPMHNFI@FILE?$AA@
  00172	8b ce		 mov	 ecx, esi
  00174	ff 76 10	 push	 DWORD PTR [esi+16]
  00177	6a 00		 push	 0
  00179	e8 00 00 00 00	 call	 ?compare@?$basic_string@DU?$char_traits@D@std@@V?$allocator@D@2@@std@@QBEHIIPBDI@Z ; std::basic_string<char,std::char_traits<char>,std::allocator<char> >::compare
; File d:\metin2\metin2\client_source_clean\client_source_clean\source\userinterface\userinterface.cpp

; 191  : 	if (strPackType.compare("FILE") && strPackType.compare("PACK"))

  0017e	85 c0		 test	 eax, eax
  00180	74 24		 je	 SHORT $LN4@PackInitia
  00182	68 00 00 00 00	 push	 OFFSET ??_C@_04EDDHFNCG@PACK?$AA@
  00187	8b ce		 mov	 ecx, esi
  00189	e8 00 00 00 00	 call	 ?compare@?$basic_string@DU?$char_traits@D@std@@V?$allocator@D@2@@std@@QBEHPBD@Z ; std::basic_string<char,std::char_traits<char>,std::allocator<char> >::compare
  0018e	85 c0		 test	 eax, eax
  00190	74 14		 je	 SHORT $LN4@PackInitia

; 192  : 	{
; 193  : 		TraceError("Pack/Index has invalid syntax. First line must be 'PACK' or 'FILE'");

  00192	68 00 00 00 00	 push	 OFFSET ??_C@_0ED@CBACJNDK@Pack?1Index?5has?5invalid?5syntax?4?5F@
  00197	e8 00 00 00 00	 call	 ?TraceError@@YAXPBDZZ	; TraceError
  0019c	83 c4 04	 add	 esp, 4
  0019f	32 db		 xor	 bl, bl
  001a1	e9 93 02 00 00	 jmp	 $LN741@PackInitia
$LN4@PackInitia:

; 194  : 		return false;
; 195  : 	}
; 196  : 
; 197  : #ifdef _DISTRIBUTE
; 198  : 	Tracef(":  .\n");

  001a6	68 00 00 00 00	 push	 OFFSET ??_C@_0BG@FJMFFOHK@?$LO?K?$LI?$LC?3?5?F?Q?5?$LI?p?$LF?e?$MA?T?$LE?O?$LE?Y?4?6?$AA@
  001ab	e8 00 00 00 00	 call	 ?Tracef@@YAXPBDZZ	; Tracef
  001b0	83 c4 04	 add	 esp, 4

; 199  : 	
; 200  : 	//if (0 == strPackType.compare("FILE"))
; 201  : 	//{
; 202  : 	//	bPackFirst = FALSE;
; 203  : 	//	Tracef(":  .\n");
; 204  : 	//}
; 205  : 	//else
; 206  : 	//{
; 207  : 	//	Tracef(":  .\n");
; 208  : 	//}
; 209  : #else
; 210  : 	bPackFirst = FALSE;
; 211  : 	Tracef(":  .\n");
; 212  : #endif
; 213  : 
; 214  : 	CTextFileLoader::SetCacheMode();

  001b3	e8 00 00 00 00	 call	 ?SetCacheMode@CTextFileLoader@@SAXXZ ; CTextFileLoader::SetCacheMode

; 215  : #if defined(USE_RELATIVE_PATH)
; 216  : 	CEterPackManager::Instance().SetRelativePathMode();
; 217  : #endif
; 218  : 	CEterPackManager::Instance().SetCacheMode();

  001b8	8b 0d 00 00 00
	00		 mov	 ecx, DWORD PTR ?ms_singleton@?$CSingleton@VCEterPackManager@@@@0PAVCEterPackManager@@A ; CSingleton<CEterPackManager>::ms_singleton
  001be	e8 00 00 00 00	 call	 ?SetCacheMode@CEterPackManager@@QAEXXZ ; CEterPackManager::SetCacheMode

; 219  : 	CEterPackManager::Instance().SetSearchMode(bPackFirst);

  001c3	8b 0d 00 00 00
	00		 mov	 ecx, DWORD PTR ?ms_singleton@?$CSingleton@VCEterPackManager@@@@0PAVCEterPackManager@@A ; CSingleton<CEterPackManager>::ms_singleton
  001c9	6a 01		 push	 1
  001cb	e8 00 00 00 00	 call	 ?SetSearchMode@CEterPackManager@@QAEX_N@Z ; CEterPackManager::SetSearchMode

; 220  : 
; 221  : 	CSoundData::SetPackMode(); // Miles   

  001d0	e8 00 00 00 00	 call	 ?SetPackMode@CSoundData@@SAXXZ ; CSoundData::SetPackMode
; File c:\program files (x86)\microsoft visual studio 12.0\vc\include\xstring

; 2284 : 		this->_Myres = this->_BUF_SIZE - 1;

  001d5	c7 45 d4 0f 00
	00 00		 mov	 DWORD PTR _strPackName$[ebp+20], 15 ; 0000000fH

; 2160 : 		}
; 2161 : 
; 2162 : 	int compare(size_type _Off, size_type _N0, const _Elem *_Ptr) const
; 2163 : 		{	// compare [_Off, _Off + _N0) with [_Ptr, <null>)
; 2164 : 		_DEBUG_POINTER(_Ptr);
; 2165 : 		return (compare(_Off, _N0, _Ptr, _Traits::length(_Ptr)));
; 2166 : 		}
; 2167 : 
; 2168 : 	int compare(size_type _Off,
; 2169 : 		size_type _N0, const _Elem *_Ptr, size_type _Count) const
; 2170 : 		{	// compare [_Off, _Off + _N0) with [_Ptr, _Ptr + _Count)
; 2171 :  #if _ITERATOR_DEBUG_LEVEL == 2
; 2172 : 		if (_Count != 0)
; 2173 : 			_DEBUG_POINTER(_Ptr);
; 2174 :  #endif /* _ITERATOR_DEBUG_LEVEL == 2 */
; 2175 : 
; 2176 : 		if (this->_Mysize < _Off)
; 2177 : 			_Xran();	// _Off off end
; 2178 : 		if (this->_Mysize - _Off < _N0)
; 2179 : 			_N0 = this->_Mysize - _Off;	// trim _N0 to size
; 2180 : 
; 2181 : 		size_type _Ans = _Traits::compare(this->_Myptr() + _Off, _Ptr,
; 2182 : 			_N0 < _Count ? _N0 : _Count);
; 2183 : 		return (_Ans != 0 ? (int)_Ans : _N0 < _Count ? -1
; 2184 : 			: _N0 == _Count ? 0 : +1);
; 2185 : 		}
; 2186 : 
; 2187 : 	allocator_type get_allocator() const _NOEXCEPT
; 2188 : 		{	// return allocator object for values
; 2189 : 		return (this->_Getal());
; 2190 : 		}
; 2191 : 
; 2192 : 	void _Chassign(size_type _Off, size_type _Count, _Elem _Ch)
; 2193 : 		{	// assign _Count copies of _Ch beginning at _Off
; 2194 : 		if (_Count == 1)
; 2195 : 			_Traits::assign(*(this->_Myptr() + _Off), _Ch);
; 2196 : 		else
; 2197 : 			_Traits::assign(this->_Myptr() + _Off, _Count, _Ch);
; 2198 : 		}
; 2199 : 
; 2200 : 	void _Copy(size_type _Newsize, size_type _Oldlen)
; 2201 : 		{	// copy _Oldlen elements to newly allocated buffer
; 2202 : 		size_type _Newres = _Newsize | this->_ALLOC_MASK;
; 2203 : 		if (max_size() < _Newres)
; 2204 : 			_Newres = _Newsize;	// undo roundup if too big
; 2205 : 		else if (this->_Myres / 2 <= _Newres / 3)
; 2206 : 			;
; 2207 : 		else if (this->_Myres <= max_size() - this->_Myres / 2)
; 2208 : 			_Newres = this->_Myres
; 2209 : 				+ this->_Myres / 2;	// grow exponentially if possible
; 2210 : 		else
; 2211 : 			_Newres = max_size();	// settle for max_size()
; 2212 : 
; 2213 : 		_Elem *_Ptr;
; 2214 : 		_TRY_BEGIN
; 2215 : 			_Ptr = this->_Getal().allocate(_Newres + 1);
; 2216 : 		_CATCH_ALL
; 2217 : 			_Newres = _Newsize;	// allocation failed, undo roundup and retry
; 2218 : 			_TRY_BEGIN
; 2219 : 				_Ptr = this->_Getal().allocate(_Newres + 1);
; 2220 : 			_CATCH_ALL
; 2221 : 			_Tidy(true);	// failed again, discard storage and reraise
; 2222 : 			_RERAISE;
; 2223 : 			_CATCH_END
; 2224 : 		_CATCH_END
; 2225 : 
; 2226 : 		if (0 < _Oldlen)
; 2227 : 			_Traits::copy(_Ptr, this->_Myptr(),
; 2228 : 				_Oldlen);	// copy existing elements
; 2229 : 		_Tidy(true);
; 2230 : 		this->_Getal().construct(&this->_Bx._Ptr, _Ptr);
; 2231 : 		this->_Myres = _Newres;
; 2232 : 		_Eos(_Oldlen);
; 2233 : 		}
; 2234 : 
; 2235 : 	void _Eos(size_type _Newsize)
; 2236 : 		{	// set new length and null terminator
; 2237 : 		_Traits::assign(this->_Myptr()[this->_Mysize = _Newsize], _Elem());

  001dc	c7 45 d0 00 00
	00 00		 mov	 DWORD PTR _strPackName$[ebp+16], 0
; File c:\program files (x86)\microsoft visual studio 12.0\vc\include\iosfwd

; 564  : 		_Left = _Right;

  001e3	c6 45 c0 00	 mov	 BYTE PTR _strPackName$[ebp], 0
; File c:\program files (x86)\microsoft visual studio 12.0\vc\include\xstring

; 2284 : 		this->_Myres = this->_BUF_SIZE - 1;

  001e7	c7 45 bc 0f 00
	00 00		 mov	 DWORD PTR _strTexCachePackName$[ebp+20], 15 ; 0000000fH

; 2160 : 		}
; 2161 : 
; 2162 : 	int compare(size_type _Off, size_type _N0, const _Elem *_Ptr) const
; 2163 : 		{	// compare [_Off, _Off + _N0) with [_Ptr, <null>)
; 2164 : 		_DEBUG_POINTER(_Ptr);
; 2165 : 		return (compare(_Off, _N0, _Ptr, _Traits::length(_Ptr)));
; 2166 : 		}
; 2167 : 
; 2168 : 	int compare(size_type _Off,
; 2169 : 		size_type _N0, const _Elem *_Ptr, size_type _Count) const
; 2170 : 		{	// compare [_Off, _Off + _N0) with [_Ptr, _Ptr + _Count)
; 2171 :  #if _ITERATOR_DEBUG_LEVEL == 2
; 2172 : 		if (_Count != 0)
; 2173 : 			_DEBUG_POINTER(_Ptr);
; 2174 :  #endif /* _ITERATOR_DEBUG_LEVEL == 2 */
; 2175 : 
; 2176 : 		if (this->_Mysize < _Off)
; 2177 : 			_Xran();	// _Off off end
; 2178 : 		if (this->_Mysize - _Off < _N0)
; 2179 : 			_N0 = this->_Mysize - _Off;	// trim _N0 to size
; 2180 : 
; 2181 : 		size_type _Ans = _Traits::compare(this->_Myptr() + _Off, _Ptr,
; 2182 : 			_N0 < _Count ? _N0 : _Count);
; 2183 : 		return (_Ans != 0 ? (int)_Ans : _N0 < _Count ? -1
; 2184 : 			: _N0 == _Count ? 0 : +1);
; 2185 : 		}
; 2186 : 
; 2187 : 	allocator_type get_allocator() const _NOEXCEPT
; 2188 : 		{	// return allocator object for values
; 2189 : 		return (this->_Getal());
; 2190 : 		}
; 2191 : 
; 2192 : 	void _Chassign(size_type _Off, size_type _Count, _Elem _Ch)
; 2193 : 		{	// assign _Count copies of _Ch beginning at _Off
; 2194 : 		if (_Count == 1)
; 2195 : 			_Traits::assign(*(this->_Myptr() + _Off), _Ch);
; 2196 : 		else
; 2197 : 			_Traits::assign(this->_Myptr() + _Off, _Count, _Ch);
; 2198 : 		}
; 2199 : 
; 2200 : 	void _Copy(size_type _Newsize, size_type _Oldlen)
; 2201 : 		{	// copy _Oldlen elements to newly allocated buffer
; 2202 : 		size_type _Newres = _Newsize | this->_ALLOC_MASK;
; 2203 : 		if (max_size() < _Newres)
; 2204 : 			_Newres = _Newsize;	// undo roundup if too big
; 2205 : 		else if (this->_Myres / 2 <= _Newres / 3)
; 2206 : 			;
; 2207 : 		else if (this->_Myres <= max_size() - this->_Myres / 2)
; 2208 : 			_Newres = this->_Myres
; 2209 : 				+ this->_Myres / 2;	// grow exponentially if possible
; 2210 : 		else
; 2211 : 			_Newres = max_size();	// settle for max_size()
; 2212 : 
; 2213 : 		_Elem *_Ptr;
; 2214 : 		_TRY_BEGIN
; 2215 : 			_Ptr = this->_Getal().allocate(_Newres + 1);
; 2216 : 		_CATCH_ALL
; 2217 : 			_Newres = _Newsize;	// allocation failed, undo roundup and retry
; 2218 : 			_TRY_BEGIN
; 2219 : 				_Ptr = this->_Getal().allocate(_Newres + 1);
; 2220 : 			_CATCH_ALL
; 2221 : 			_Tidy(true);	// failed again, discard storage and reraise
; 2222 : 			_RERAISE;
; 2223 : 			_CATCH_END
; 2224 : 		_CATCH_END
; 2225 : 
; 2226 : 		if (0 < _Oldlen)
; 2227 : 			_Traits::copy(_Ptr, this->_Myptr(),
; 2228 : 				_Oldlen);	// copy existing elements
; 2229 : 		_Tidy(true);
; 2230 : 		this->_Getal().construct(&this->_Bx._Ptr, _Ptr);
; 2231 : 		this->_Myres = _Newres;
; 2232 : 		_Eos(_Oldlen);
; 2233 : 		}
; 2234 : 
; 2235 : 	void _Eos(size_type _Newsize)
; 2236 : 		{	// set new length and null terminator
; 2237 : 		_Traits::assign(this->_Myptr()[this->_Mysize = _Newsize], _Elem());

  001ee	c7 45 b8 00 00
	00 00		 mov	 DWORD PTR _strTexCachePackName$[ebp+16], 0
; File c:\program files (x86)\microsoft visual studio 12.0\vc\include\iosfwd

; 564  : 		_Left = _Right;

  001f5	c6 45 a8 00	 mov	 BYTE PTR _strTexCachePackName$[ebp], 0
; File d:\metin2\metin2\client_source_clean\client_source_clean\source\userinterface\userinterface.cpp

; 224  : 	for (DWORD i = 1; i < TextLoader.GetLineCount() - 1; i += 2)

  001f9	8d 8d 04 fe ff
	ff		 lea	 ecx, DWORD PTR _TextLoader$[ebp]
  001ff	c6 45 fc 05	 mov	 BYTE PTR __$EHRec$[ebp+8], 5
  00203	bb 01 00 00 00	 mov	 ebx, 1
  00208	e8 00 00 00 00	 call	 ?GetLineCount@CMemoryTextFileLoader@@QAEKXZ ; CMemoryTextFileLoader::GetLineCount
  0020d	48		 dec	 eax
  0020e	3b c3		 cmp	 eax, ebx
  00210	0f 86 3b 01 00
	00		 jbe	 $LN1@PackInitia
  00216	eb 08 8d a4 24
	00 00 00 00 90	 npad	 10
$LL3@PackInitia:

; 225  : 	{
; 226  : 		const std::string & c_rstFolder = TextLoader.GetLineString(i);

  00220	53		 push	 ebx
  00221	8d 8d 04 fe ff
	ff		 lea	 ecx, DWORD PTR _TextLoader$[ebp]
  00227	e8 00 00 00 00	 call	 ?GetLineString@CMemoryTextFileLoader@@QAEABV?$basic_string@DU?$char_traits@D@std@@V?$allocator@D@2@@std@@K@Z ; CMemoryTextFileLoader::GetLineString
  0022c	8b f0		 mov	 esi, eax

; 227  : 		const std::string & c_rstName = TextLoader.GetLineString(i + 1);

  0022e	8d 8d 04 fe ff
	ff		 lea	 ecx, DWORD PTR _TextLoader$[ebp]
  00234	8d 43 01	 lea	 eax, DWORD PTR [ebx+1]
  00237	50		 push	 eax
  00238	e8 00 00 00 00	 call	 ?GetLineString@CMemoryTextFileLoader@@QAEABV?$basic_string@DU?$char_traits@D@std@@V?$allocator@D@2@@std@@K@Z ; CMemoryTextFileLoader::GetLineString

; 228  : 
; 229  : 		strPackName = stFolder + c_rstName;

  0023d	50		 push	 eax
  0023e	8d 85 78 ff ff
	ff		 lea	 eax, DWORD PTR _stFolder$[ebp]
  00244	50		 push	 eax
  00245	8d 45 90	 lea	 eax, DWORD PTR $T5[ebp]
  00248	50		 push	 eax
  00249	e8 00 00 00 00	 call	 ??$?HDU?$char_traits@D@std@@V?$allocator@D@1@@std@@YA?AV?$basic_string@DU?$char_traits@D@std@@V?$allocator@D@2@@0@ABV10@0@Z ; std::operator+<char,std::char_traits<char>,std::allocator<char> >
  0024e	8b f8		 mov	 edi, eax
  00250	83 c4 0c	 add	 esp, 12			; 0000000cH
; File c:\program files (x86)\microsoft visual studio 12.0\vc\include\xstring

; 903  : 		if (this != &_Right)

  00253	8d 45 c0	 lea	 eax, DWORD PTR _strPackName$[ebp]
  00256	3b c7		 cmp	 eax, edi
  00258	74 2c		 je	 SHORT $LN233@PackInitia

; 2275 : 		else if (this->_BUF_SIZE <= this->_Myres)

  0025a	83 7d d4 10	 cmp	 DWORD PTR _strPackName$[ebp+20], 16 ; 00000010H
  0025e	72 0b		 jb	 SHORT $LN257@PackInitia
; File c:\program files (x86)\microsoft visual studio 12.0\vc\include\xmemory0

; 573  : 		::operator delete(_Ptr);

  00260	ff 75 c0	 push	 DWORD PTR _strPackName$[ebp]
  00263	e8 00 00 00 00	 call	 ??3@YAXPAX@Z		; operator delete
  00268	83 c4 04	 add	 esp, 4
$LN257@PackInitia:
; File c:\program files (x86)\microsoft visual studio 12.0\vc\include\xstring

; 914  : 				_Assign_rv(_STD forward<_Myt>(_Right));

  0026b	57		 push	 edi
  0026c	8d 4d c0	 lea	 ecx, DWORD PTR _strPackName$[ebp]

; 2284 : 		this->_Myres = this->_BUF_SIZE - 1;

  0026f	c7 45 d4 0f 00
	00 00		 mov	 DWORD PTR _strPackName$[ebp+20], 15 ; 0000000fH

; 2160 : 		}
; 2161 : 
; 2162 : 	int compare(size_type _Off, size_type _N0, const _Elem *_Ptr) const
; 2163 : 		{	// compare [_Off, _Off + _N0) with [_Ptr, <null>)
; 2164 : 		_DEBUG_POINTER(_Ptr);
; 2165 : 		return (compare(_Off, _N0, _Ptr, _Traits::length(_Ptr)));
; 2166 : 		}
; 2167 : 
; 2168 : 	int compare(size_type _Off,
; 2169 : 		size_type _N0, const _Elem *_Ptr, size_type _Count) const
; 2170 : 		{	// compare [_Off, _Off + _N0) with [_Ptr, _Ptr + _Count)
; 2171 :  #if _ITERATOR_DEBUG_LEVEL == 2
; 2172 : 		if (_Count != 0)
; 2173 : 			_DEBUG_POINTER(_Ptr);
; 2174 :  #endif /* _ITERATOR_DEBUG_LEVEL == 2 */
; 2175 : 
; 2176 : 		if (this->_Mysize < _Off)
; 2177 : 			_Xran();	// _Off off end
; 2178 : 		if (this->_Mysize - _Off < _N0)
; 2179 : 			_N0 = this->_Mysize - _Off;	// trim _N0 to size
; 2180 : 
; 2181 : 		size_type _Ans = _Traits::compare(this->_Myptr() + _Off, _Ptr,
; 2182 : 			_N0 < _Count ? _N0 : _Count);
; 2183 : 		return (_Ans != 0 ? (int)_Ans : _N0 < _Count ? -1
; 2184 : 			: _N0 == _Count ? 0 : +1);
; 2185 : 		}
; 2186 : 
; 2187 : 	allocator_type get_allocator() const _NOEXCEPT
; 2188 : 		{	// return allocator object for values
; 2189 : 		return (this->_Getal());
; 2190 : 		}
; 2191 : 
; 2192 : 	void _Chassign(size_type _Off, size_type _Count, _Elem _Ch)
; 2193 : 		{	// assign _Count copies of _Ch beginning at _Off
; 2194 : 		if (_Count == 1)
; 2195 : 			_Traits::assign(*(this->_Myptr() + _Off), _Ch);
; 2196 : 		else
; 2197 : 			_Traits::assign(this->_Myptr() + _Off, _Count, _Ch);
; 2198 : 		}
; 2199 : 
; 2200 : 	void _Copy(size_type _Newsize, size_type _Oldlen)
; 2201 : 		{	// copy _Oldlen elements to newly allocated buffer
; 2202 : 		size_type _Newres = _Newsize | this->_ALLOC_MASK;
; 2203 : 		if (max_size() < _Newres)
; 2204 : 			_Newres = _Newsize;	// undo roundup if too big
; 2205 : 		else if (this->_Myres / 2 <= _Newres / 3)
; 2206 : 			;
; 2207 : 		else if (this->_Myres <= max_size() - this->_Myres / 2)
; 2208 : 			_Newres = this->_Myres
; 2209 : 				+ this->_Myres / 2;	// grow exponentially if possible
; 2210 : 		else
; 2211 : 			_Newres = max_size();	// settle for max_size()
; 2212 : 
; 2213 : 		_Elem *_Ptr;
; 2214 : 		_TRY_BEGIN
; 2215 : 			_Ptr = this->_Getal().allocate(_Newres + 1);
; 2216 : 		_CATCH_ALL
; 2217 : 			_Newres = _Newsize;	// allocation failed, undo roundup and retry
; 2218 : 			_TRY_BEGIN
; 2219 : 				_Ptr = this->_Getal().allocate(_Newres + 1);
; 2220 : 			_CATCH_ALL
; 2221 : 			_Tidy(true);	// failed again, discard storage and reraise
; 2222 : 			_RERAISE;
; 2223 : 			_CATCH_END
; 2224 : 		_CATCH_END
; 2225 : 
; 2226 : 		if (0 < _Oldlen)
; 2227 : 			_Traits::copy(_Ptr, this->_Myptr(),
; 2228 : 				_Oldlen);	// copy existing elements
; 2229 : 		_Tidy(true);
; 2230 : 		this->_Getal().construct(&this->_Bx._Ptr, _Ptr);
; 2231 : 		this->_Myres = _Newres;
; 2232 : 		_Eos(_Oldlen);
; 2233 : 		}
; 2234 : 
; 2235 : 	void _Eos(size_type _Newsize)
; 2236 : 		{	// set new length and null terminator
; 2237 : 		_Traits::assign(this->_Myptr()[this->_Mysize = _Newsize], _Elem());

  00276	c7 45 d0 00 00
	00 00		 mov	 DWORD PTR _strPackName$[ebp+16], 0
; File c:\program files (x86)\microsoft visual studio 12.0\vc\include\iosfwd

; 564  : 		_Left = _Right;

  0027d	c6 45 c0 00	 mov	 BYTE PTR _strPackName$[ebp], 0
; File c:\program files (x86)\microsoft visual studio 12.0\vc\include\xstring

; 914  : 				_Assign_rv(_STD forward<_Myt>(_Right));

  00281	e8 00 00 00 00	 call	 ?_Assign_rv@?$basic_string@DU?$char_traits@D@std@@V?$allocator@D@2@@std@@QAEX$$QAV12@@Z ; std::basic_string<char,std::char_traits<char>,std::allocator<char> >::_Assign_rv
$LN233@PackInitia:

; 2275 : 		else if (this->_BUF_SIZE <= this->_Myres)

  00286	83 7d a4 10	 cmp	 DWORD PTR $T5[ebp+20], 16 ; 00000010H
  0028a	72 0b		 jb	 SHORT $LN367@PackInitia
; File c:\program files (x86)\microsoft visual studio 12.0\vc\include\xmemory0

; 573  : 		::operator delete(_Ptr);

  0028c	ff 75 90	 push	 DWORD PTR $T5[ebp]
  0028f	e8 00 00 00 00	 call	 ??3@YAXPAX@Z		; operator delete
  00294	83 c4 04	 add	 esp, 4
$LN367@PackInitia:
; File d:\metin2\metin2\client_source_clean\client_source_clean\source\userinterface\userinterface.cpp

; 230  : 		strTexCachePackName = strPackName + "_texcache";

  00297	68 00 00 00 00	 push	 OFFSET ??_C@_09ODEGJGJI@_texcache?$AA@
  0029c	8d 45 c0	 lea	 eax, DWORD PTR _strPackName$[ebp]
  0029f	50		 push	 eax
  002a0	8d 45 90	 lea	 eax, DWORD PTR $T4[ebp]
  002a3	50		 push	 eax
  002a4	e8 00 00 00 00	 call	 ??$?HDU?$char_traits@D@std@@V?$allocator@D@1@@std@@YA?AV?$basic_string@DU?$char_traits@D@std@@V?$allocator@D@2@@0@ABV10@PBD@Z ; std::operator+<char,std::char_traits<char>,std::allocator<char> >
  002a9	8b f8		 mov	 edi, eax
  002ab	83 c4 0c	 add	 esp, 12			; 0000000cH
; File c:\program files (x86)\microsoft visual studio 12.0\vc\include\xstring

; 903  : 		if (this != &_Right)

  002ae	8d 45 a8	 lea	 eax, DWORD PTR _strTexCachePackName$[ebp]
  002b1	3b c7		 cmp	 eax, edi
  002b3	74 2c		 je	 SHORT $LN379@PackInitia

; 2275 : 		else if (this->_BUF_SIZE <= this->_Myres)

  002b5	83 7d bc 10	 cmp	 DWORD PTR _strTexCachePackName$[ebp+20], 16 ; 00000010H
  002b9	72 0b		 jb	 SHORT $LN403@PackInitia
; File c:\program files (x86)\microsoft visual studio 12.0\vc\include\xmemory0

; 573  : 		::operator delete(_Ptr);

  002bb	ff 75 a8	 push	 DWORD PTR _strTexCachePackName$[ebp]
  002be	e8 00 00 00 00	 call	 ??3@YAXPAX@Z		; operator delete
  002c3	83 c4 04	 add	 esp, 4
$LN403@PackInitia:
; File c:\program files (x86)\microsoft visual studio 12.0\vc\include\xstring

; 914  : 				_Assign_rv(_STD forward<_Myt>(_Right));

  002c6	57		 push	 edi
  002c7	8d 4d a8	 lea	 ecx, DWORD PTR _strTexCachePackName$[ebp]

; 2284 : 		this->_Myres = this->_BUF_SIZE - 1;

  002ca	c7 45 bc 0f 00
	00 00		 mov	 DWORD PTR _strTexCachePackName$[ebp+20], 15 ; 0000000fH

; 2160 : 		}
; 2161 : 
; 2162 : 	int compare(size_type _Off, size_type _N0, const _Elem *_Ptr) const
; 2163 : 		{	// compare [_Off, _Off + _N0) with [_Ptr, <null>)
; 2164 : 		_DEBUG_POINTER(_Ptr);
; 2165 : 		return (compare(_Off, _N0, _Ptr, _Traits::length(_Ptr)));
; 2166 : 		}
; 2167 : 
; 2168 : 	int compare(size_type _Off,
; 2169 : 		size_type _N0, const _Elem *_Ptr, size_type _Count) const
; 2170 : 		{	// compare [_Off, _Off + _N0) with [_Ptr, _Ptr + _Count)
; 2171 :  #if _ITERATOR_DEBUG_LEVEL == 2
; 2172 : 		if (_Count != 0)
; 2173 : 			_DEBUG_POINTER(_Ptr);
; 2174 :  #endif /* _ITERATOR_DEBUG_LEVEL == 2 */
; 2175 : 
; 2176 : 		if (this->_Mysize < _Off)
; 2177 : 			_Xran();	// _Off off end
; 2178 : 		if (this->_Mysize - _Off < _N0)
; 2179 : 			_N0 = this->_Mysize - _Off;	// trim _N0 to size
; 2180 : 
; 2181 : 		size_type _Ans = _Traits::compare(this->_Myptr() + _Off, _Ptr,
; 2182 : 			_N0 < _Count ? _N0 : _Count);
; 2183 : 		return (_Ans != 0 ? (int)_Ans : _N0 < _Count ? -1
; 2184 : 			: _N0 == _Count ? 0 : +1);
; 2185 : 		}
; 2186 : 
; 2187 : 	allocator_type get_allocator() const _NOEXCEPT
; 2188 : 		{	// return allocator object for values
; 2189 : 		return (this->_Getal());
; 2190 : 		}
; 2191 : 
; 2192 : 	void _Chassign(size_type _Off, size_type _Count, _Elem _Ch)
; 2193 : 		{	// assign _Count copies of _Ch beginning at _Off
; 2194 : 		if (_Count == 1)
; 2195 : 			_Traits::assign(*(this->_Myptr() + _Off), _Ch);
; 2196 : 		else
; 2197 : 			_Traits::assign(this->_Myptr() + _Off, _Count, _Ch);
; 2198 : 		}
; 2199 : 
; 2200 : 	void _Copy(size_type _Newsize, size_type _Oldlen)
; 2201 : 		{	// copy _Oldlen elements to newly allocated buffer
; 2202 : 		size_type _Newres = _Newsize | this->_ALLOC_MASK;
; 2203 : 		if (max_size() < _Newres)
; 2204 : 			_Newres = _Newsize;	// undo roundup if too big
; 2205 : 		else if (this->_Myres / 2 <= _Newres / 3)
; 2206 : 			;
; 2207 : 		else if (this->_Myres <= max_size() - this->_Myres / 2)
; 2208 : 			_Newres = this->_Myres
; 2209 : 				+ this->_Myres / 2;	// grow exponentially if possible
; 2210 : 		else
; 2211 : 			_Newres = max_size();	// settle for max_size()
; 2212 : 
; 2213 : 		_Elem *_Ptr;
; 2214 : 		_TRY_BEGIN
; 2215 : 			_Ptr = this->_Getal().allocate(_Newres + 1);
; 2216 : 		_CATCH_ALL
; 2217 : 			_Newres = _Newsize;	// allocation failed, undo roundup and retry
; 2218 : 			_TRY_BEGIN
; 2219 : 				_Ptr = this->_Getal().allocate(_Newres + 1);
; 2220 : 			_CATCH_ALL
; 2221 : 			_Tidy(true);	// failed again, discard storage and reraise
; 2222 : 			_RERAISE;
; 2223 : 			_CATCH_END
; 2224 : 		_CATCH_END
; 2225 : 
; 2226 : 		if (0 < _Oldlen)
; 2227 : 			_Traits::copy(_Ptr, this->_Myptr(),
; 2228 : 				_Oldlen);	// copy existing elements
; 2229 : 		_Tidy(true);
; 2230 : 		this->_Getal().construct(&this->_Bx._Ptr, _Ptr);
; 2231 : 		this->_Myres = _Newres;
; 2232 : 		_Eos(_Oldlen);
; 2233 : 		}
; 2234 : 
; 2235 : 	void _Eos(size_type _Newsize)
; 2236 : 		{	// set new length and null terminator
; 2237 : 		_Traits::assign(this->_Myptr()[this->_Mysize = _Newsize], _Elem());

  002d1	c7 45 b8 00 00
	00 00		 mov	 DWORD PTR _strTexCachePackName$[ebp+16], 0
; File c:\program files (x86)\microsoft visual studio 12.0\vc\include\iosfwd

; 564  : 		_Left = _Right;

  002d8	c6 45 a8 00	 mov	 BYTE PTR _strTexCachePackName$[ebp], 0
; File c:\program files (x86)\microsoft visual studio 12.0\vc\include\xstring

; 914  : 				_Assign_rv(_STD forward<_Myt>(_Right));

  002dc	e8 00 00 00 00	 call	 ?_Assign_rv@?$basic_string@DU?$char_traits@D@std@@V?$allocator@D@2@@std@@QAEX$$QAV12@@Z ; std::basic_string<char,std::char_traits<char>,std::allocator<char> >::_Assign_rv
$LN379@PackInitia:

; 2275 : 		else if (this->_BUF_SIZE <= this->_Myres)

  002e1	83 7d a4 10	 cmp	 DWORD PTR $T4[ebp+20], 16 ; 00000010H
  002e5	72 0b		 jb	 SHORT $LN513@PackInitia
; File c:\program files (x86)\microsoft visual studio 12.0\vc\include\xmemory0

; 573  : 		::operator delete(_Ptr);

  002e7	ff 75 90	 push	 DWORD PTR $T4[ebp]
  002ea	e8 00 00 00 00	 call	 ??3@YAXPAX@Z		; operator delete
  002ef	83 c4 04	 add	 esp, 4
$LN513@PackInitia:
; File c:\program files (x86)\microsoft visual studio 12.0\vc\include\xstring

; 520  : 			: this->_Bx._Buf);

  002f2	83 7e 14 10	 cmp	 DWORD PTR [esi+20], 16	; 00000010H
  002f6	72 04		 jb	 SHORT $LN529@PackInitia
; File c:\program files (x86)\microsoft visual studio 12.0\vc\include\xstddef

; 95   : 		reinterpret_cast<const volatile char&>(_Val)))));

  002f8	8b 0e		 mov	 ecx, DWORD PTR [esi]
; File c:\program files (x86)\microsoft visual studio 12.0\vc\include\xstring

; 520  : 			: this->_Bx._Buf);

  002fa	eb 02		 jmp	 SHORT $LN530@PackInitia
$LN529@PackInitia:
  002fc	8b ce		 mov	 ecx, esi
$LN530@PackInitia:
  002fe	83 7d d4 10	 cmp	 DWORD PTR _strPackName$[ebp+20], 16 ; 00000010H
  00302	8d 45 c0	 lea	 eax, DWORD PTR _strPackName$[ebp]
; File d:\metin2\metin2\client_source_clean\client_source_clean\source\userinterface\userinterface.cpp

; 232  : 		CEterPackManager::Instance().RegisterPack(strPackName.c_str(), c_rstFolder.c_str());

  00305	6a 00		 push	 0
; File c:\program files (x86)\microsoft visual studio 12.0\vc\include\xstring

; 520  : 			: this->_Bx._Buf);

  00307	0f 43 45 c0	 cmovae	 eax, DWORD PTR _strPackName$[ebp]
; File d:\metin2\metin2\client_source_clean\client_source_clean\source\userinterface\userinterface.cpp

; 232  : 		CEterPackManager::Instance().RegisterPack(strPackName.c_str(), c_rstFolder.c_str());

  0030b	51		 push	 ecx
  0030c	8b 0d 00 00 00
	00		 mov	 ecx, DWORD PTR ?ms_singleton@?$CSingleton@VCEterPackManager@@@@0PAVCEterPackManager@@A ; CSingleton<CEterPackManager>::ms_singleton
  00312	50		 push	 eax
  00313	e8 00 00 00 00	 call	 ?RegisterPack@CEterPackManager@@QAE_NPBD0PBE@Z ; CEterPackManager::RegisterPack
; File c:\program files (x86)\microsoft visual studio 12.0\vc\include\xstring

; 520  : 			: this->_Bx._Buf);

  00318	83 7e 14 10	 cmp	 DWORD PTR [esi+20], 16	; 00000010H
  0031c	72 02		 jb	 SHORT $LN548@PackInitia
; File c:\program files (x86)\microsoft visual studio 12.0\vc\include\xstddef

; 95   : 		reinterpret_cast<const volatile char&>(_Val)))));

  0031e	8b 36		 mov	 esi, DWORD PTR [esi]
$LN548@PackInitia:
; File c:\program files (x86)\microsoft visual studio 12.0\vc\include\xstring

; 520  : 			: this->_Bx._Buf);

  00320	83 7d bc 10	 cmp	 DWORD PTR _strTexCachePackName$[ebp+20], 16 ; 00000010H
  00324	8d 45 a8	 lea	 eax, DWORD PTR _strTexCachePackName$[ebp]
; File d:\metin2\metin2\client_source_clean\client_source_clean\source\userinterface\userinterface.cpp

; 233  : 		CEterPackManager::Instance().RegisterPack(strTexCachePackName.c_str(), c_rstFolder.c_str());

  00327	8b 0d 00 00 00
	00		 mov	 ecx, DWORD PTR ?ms_singleton@?$CSingleton@VCEterPackManager@@@@0PAVCEterPackManager@@A ; CSingleton<CEterPackManager>::ms_singleton
; File c:\program files (x86)\microsoft visual studio 12.0\vc\include\xstring

; 520  : 			: this->_Bx._Buf);

  0032d	0f 43 45 a8	 cmovae	 eax, DWORD PTR _strTexCachePackName$[ebp]
; File d:\metin2\metin2\client_source_clean\client_source_clean\source\userinterface\userinterface.cpp

; 233  : 		CEterPackManager::Instance().RegisterPack(strTexCachePackName.c_str(), c_rstFolder.c_str());

  00331	6a 00		 push	 0
  00333	56		 push	 esi
  00334	50		 push	 eax
  00335	e8 00 00 00 00	 call	 ?RegisterPack@CEterPackManager@@QAE_NPBD0PBE@Z ; CEterPackManager::RegisterPack
  0033a	8d 8d 04 fe ff
	ff		 lea	 ecx, DWORD PTR _TextLoader$[ebp]
  00340	83 c3 02	 add	 ebx, 2
  00343	e8 00 00 00 00	 call	 ?GetLineCount@CMemoryTextFileLoader@@QAEKXZ ; CMemoryTextFileLoader::GetLineCount
  00348	48		 dec	 eax
  00349	3b d8		 cmp	 ebx, eax
  0034b	0f 82 cf fe ff
	ff		 jb	 $LL3@PackInitia
$LN1@PackInitia:
; File c:\program files (x86)\microsoft visual studio 12.0\vc\include\xstring

; 1169 : 		return (assign(_Ptr, _Traits::length(_Ptr)));

  00351	6a 04		 push	 4
  00353	68 00 00 00 00	 push	 OFFSET ??_C@_04NBFCGMPH@root?$AA@
  00358	8d 8d 60 ff ff
	ff		 lea	 ecx, DWORD PTR $T2[ebp]

; 2284 : 		this->_Myres = this->_BUF_SIZE - 1;

  0035e	c7 85 74 ff ff
	ff 0f 00 00 00	 mov	 DWORD PTR $T2[ebp+20], 15 ; 0000000fH

; 2160 : 		}
; 2161 : 
; 2162 : 	int compare(size_type _Off, size_type _N0, const _Elem *_Ptr) const
; 2163 : 		{	// compare [_Off, _Off + _N0) with [_Ptr, <null>)
; 2164 : 		_DEBUG_POINTER(_Ptr);
; 2165 : 		return (compare(_Off, _N0, _Ptr, _Traits::length(_Ptr)));
; 2166 : 		}
; 2167 : 
; 2168 : 	int compare(size_type _Off,
; 2169 : 		size_type _N0, const _Elem *_Ptr, size_type _Count) const
; 2170 : 		{	// compare [_Off, _Off + _N0) with [_Ptr, _Ptr + _Count)
; 2171 :  #if _ITERATOR_DEBUG_LEVEL == 2
; 2172 : 		if (_Count != 0)
; 2173 : 			_DEBUG_POINTER(_Ptr);
; 2174 :  #endif /* _ITERATOR_DEBUG_LEVEL == 2 */
; 2175 : 
; 2176 : 		if (this->_Mysize < _Off)
; 2177 : 			_Xran();	// _Off off end
; 2178 : 		if (this->_Mysize - _Off < _N0)
; 2179 : 			_N0 = this->_Mysize - _Off;	// trim _N0 to size
; 2180 : 
; 2181 : 		size_type _Ans = _Traits::compare(this->_Myptr() + _Off, _Ptr,
; 2182 : 			_N0 < _Count ? _N0 : _Count);
; 2183 : 		return (_Ans != 0 ? (int)_Ans : _N0 < _Count ? -1
; 2184 : 			: _N0 == _Count ? 0 : +1);
; 2185 : 		}
; 2186 : 
; 2187 : 	allocator_type get_allocator() const _NOEXCEPT
; 2188 : 		{	// return allocator object for values
; 2189 : 		return (this->_Getal());
; 2190 : 		}
; 2191 : 
; 2192 : 	void _Chassign(size_type _Off, size_type _Count, _Elem _Ch)
; 2193 : 		{	// assign _Count copies of _Ch beginning at _Off
; 2194 : 		if (_Count == 1)
; 2195 : 			_Traits::assign(*(this->_Myptr() + _Off), _Ch);
; 2196 : 		else
; 2197 : 			_Traits::assign(this->_Myptr() + _Off, _Count, _Ch);
; 2198 : 		}
; 2199 : 
; 2200 : 	void _Copy(size_type _Newsize, size_type _Oldlen)
; 2201 : 		{	// copy _Oldlen elements to newly allocated buffer
; 2202 : 		size_type _Newres = _Newsize | this->_ALLOC_MASK;
; 2203 : 		if (max_size() < _Newres)
; 2204 : 			_Newres = _Newsize;	// undo roundup if too big
; 2205 : 		else if (this->_Myres / 2 <= _Newres / 3)
; 2206 : 			;
; 2207 : 		else if (this->_Myres <= max_size() - this->_Myres / 2)
; 2208 : 			_Newres = this->_Myres
; 2209 : 				+ this->_Myres / 2;	// grow exponentially if possible
; 2210 : 		else
; 2211 : 			_Newres = max_size();	// settle for max_size()
; 2212 : 
; 2213 : 		_Elem *_Ptr;
; 2214 : 		_TRY_BEGIN
; 2215 : 			_Ptr = this->_Getal().allocate(_Newres + 1);
; 2216 : 		_CATCH_ALL
; 2217 : 			_Newres = _Newsize;	// allocation failed, undo roundup and retry
; 2218 : 			_TRY_BEGIN
; 2219 : 				_Ptr = this->_Getal().allocate(_Newres + 1);
; 2220 : 			_CATCH_ALL
; 2221 : 			_Tidy(true);	// failed again, discard storage and reraise
; 2222 : 			_RERAISE;
; 2223 : 			_CATCH_END
; 2224 : 		_CATCH_END
; 2225 : 
; 2226 : 		if (0 < _Oldlen)
; 2227 : 			_Traits::copy(_Ptr, this->_Myptr(),
; 2228 : 				_Oldlen);	// copy existing elements
; 2229 : 		_Tidy(true);
; 2230 : 		this->_Getal().construct(&this->_Bx._Ptr, _Ptr);
; 2231 : 		this->_Myres = _Newres;
; 2232 : 		_Eos(_Oldlen);
; 2233 : 		}
; 2234 : 
; 2235 : 	void _Eos(size_type _Newsize)
; 2236 : 		{	// set new length and null terminator
; 2237 : 		_Traits::assign(this->_Myptr()[this->_Mysize = _Newsize], _Elem());

  00368	c7 85 70 ff ff
	ff 00 00 00 00	 mov	 DWORD PTR $T2[ebp+16], 0
; File c:\program files (x86)\microsoft visual studio 12.0\vc\include\iosfwd

; 564  : 		_Left = _Right;

  00372	c6 85 60 ff ff
	ff 00		 mov	 BYTE PTR $T2[ebp], 0
; File c:\program files (x86)\microsoft visual studio 12.0\vc\include\xstring

; 1169 : 		return (assign(_Ptr, _Traits::length(_Ptr)));

  00379	e8 00 00 00 00	 call	 ?assign@?$basic_string@DU?$char_traits@D@std@@V?$allocator@D@2@@std@@QAEAAV12@PBDI@Z ; std::basic_string<char,std::char_traits<char>,std::allocator<char> >::assign
; File d:\metin2\metin2\client_source_clean\client_source_clean\source\userinterface\userinterface.cpp

; 236  : 	CEterPackManager::Instance().RegisterRootPack((stFolder + std::string("root")).c_str());

  0037e	8d 85 60 ff ff
	ff		 lea	 eax, DWORD PTR $T2[ebp]
  00384	c6 45 fc 06	 mov	 BYTE PTR __$EHRec$[ebp+8], 6
  00388	50		 push	 eax
  00389	8d 95 78 ff ff
	ff		 lea	 edx, DWORD PTR _stFolder$[ebp]
  0038f	8d 4d 90	 lea	 ecx, DWORD PTR $T3[ebp]
  00392	e8 00 00 00 00	 call	 ??$?HDU?$char_traits@D@std@@V?$allocator@D@1@@std@@YA?AV?$basic_string@DU?$char_traits@D@std@@V?$allocator@D@2@@0@ABV10@$$QAV10@@Z ; std::operator+<char,std::char_traits<char>,std::allocator<char> >
  00397	83 c4 04	 add	 esp, 4
  0039a	c6 45 fc 07	 mov	 BYTE PTR __$EHRec$[ebp+8], 7
; File c:\program files (x86)\microsoft visual studio 12.0\vc\include\xstring

; 520  : 			: this->_Bx._Buf);

  0039e	83 78 14 10	 cmp	 DWORD PTR [eax+20], 16	; 00000010H
  003a2	72 02		 jb	 SHORT $LN610@PackInitia
; File c:\program files (x86)\microsoft visual studio 12.0\vc\include\xstddef

; 95   : 		reinterpret_cast<const volatile char&>(_Val)))));

  003a4	8b 00		 mov	 eax, DWORD PTR [eax]
$LN610@PackInitia:
; File d:\metin2\metin2\client_source_clean\client_source_clean\source\userinterface\userinterface.cpp

; 236  : 	CEterPackManager::Instance().RegisterRootPack((stFolder + std::string("root")).c_str());

  003a6	8b 0d 00 00 00
	00		 mov	 ecx, DWORD PTR ?ms_singleton@?$CSingleton@VCEterPackManager@@@@0PAVCEterPackManager@@A ; CSingleton<CEterPackManager>::ms_singleton
  003ac	50		 push	 eax
  003ad	e8 00 00 00 00	 call	 ?RegisterRootPack@CEterPackManager@@QAEXPBD@Z ; CEterPackManager::RegisterRootPack
; File c:\program files (x86)\microsoft visual studio 12.0\vc\include\xstring

; 2275 : 		else if (this->_BUF_SIZE <= this->_Myres)

  003b2	83 7d a4 10	 cmp	 DWORD PTR $T3[ebp+20], 16 ; 00000010H
  003b6	72 0b		 jb	 SHORT $LN635@PackInitia
; File c:\program files (x86)\microsoft visual studio 12.0\vc\include\xmemory0

; 573  : 		::operator delete(_Ptr);

  003b8	ff 75 90	 push	 DWORD PTR $T3[ebp]
  003bb	e8 00 00 00 00	 call	 ??3@YAXPAX@Z		; operator delete
  003c0	83 c4 04	 add	 esp, 4
$LN635@PackInitia:
; File c:\program files (x86)\microsoft visual studio 12.0\vc\include\xstring

; 2275 : 		else if (this->_BUF_SIZE <= this->_Myres)

  003c3	83 bd 74 ff ff
	ff 10		 cmp	 DWORD PTR $T2[ebp+20], 16 ; 00000010H

; 2284 : 		this->_Myres = this->_BUF_SIZE - 1;

  003ca	c7 45 a4 0f 00
	00 00		 mov	 DWORD PTR $T3[ebp+20], 15 ; 0000000fH

; 2160 : 		}
; 2161 : 
; 2162 : 	int compare(size_type _Off, size_type _N0, const _Elem *_Ptr) const
; 2163 : 		{	// compare [_Off, _Off + _N0) with [_Ptr, <null>)
; 2164 : 		_DEBUG_POINTER(_Ptr);
; 2165 : 		return (compare(_Off, _N0, _Ptr, _Traits::length(_Ptr)));
; 2166 : 		}
; 2167 : 
; 2168 : 	int compare(size_type _Off,
; 2169 : 		size_type _N0, const _Elem *_Ptr, size_type _Count) const
; 2170 : 		{	// compare [_Off, _Off + _N0) with [_Ptr, _Ptr + _Count)
; 2171 :  #if _ITERATOR_DEBUG_LEVEL == 2
; 2172 : 		if (_Count != 0)
; 2173 : 			_DEBUG_POINTER(_Ptr);
; 2174 :  #endif /* _ITERATOR_DEBUG_LEVEL == 2 */
; 2175 : 
; 2176 : 		if (this->_Mysize < _Off)
; 2177 : 			_Xran();	// _Off off end
; 2178 : 		if (this->_Mysize - _Off < _N0)
; 2179 : 			_N0 = this->_Mysize - _Off;	// trim _N0 to size
; 2180 : 
; 2181 : 		size_type _Ans = _Traits::compare(this->_Myptr() + _Off, _Ptr,
; 2182 : 			_N0 < _Count ? _N0 : _Count);
; 2183 : 		return (_Ans != 0 ? (int)_Ans : _N0 < _Count ? -1
; 2184 : 			: _N0 == _Count ? 0 : +1);
; 2185 : 		}
; 2186 : 
; 2187 : 	allocator_type get_allocator() const _NOEXCEPT
; 2188 : 		{	// return allocator object for values
; 2189 : 		return (this->_Getal());
; 2190 : 		}
; 2191 : 
; 2192 : 	void _Chassign(size_type _Off, size_type _Count, _Elem _Ch)
; 2193 : 		{	// assign _Count copies of _Ch beginning at _Off
; 2194 : 		if (_Count == 1)
; 2195 : 			_Traits::assign(*(this->_Myptr() + _Off), _Ch);
; 2196 : 		else
; 2197 : 			_Traits::assign(this->_Myptr() + _Off, _Count, _Ch);
; 2198 : 		}
; 2199 : 
; 2200 : 	void _Copy(size_type _Newsize, size_type _Oldlen)
; 2201 : 		{	// copy _Oldlen elements to newly allocated buffer
; 2202 : 		size_type _Newres = _Newsize | this->_ALLOC_MASK;
; 2203 : 		if (max_size() < _Newres)
; 2204 : 			_Newres = _Newsize;	// undo roundup if too big
; 2205 : 		else if (this->_Myres / 2 <= _Newres / 3)
; 2206 : 			;
; 2207 : 		else if (this->_Myres <= max_size() - this->_Myres / 2)
; 2208 : 			_Newres = this->_Myres
; 2209 : 				+ this->_Myres / 2;	// grow exponentially if possible
; 2210 : 		else
; 2211 : 			_Newres = max_size();	// settle for max_size()
; 2212 : 
; 2213 : 		_Elem *_Ptr;
; 2214 : 		_TRY_BEGIN
; 2215 : 			_Ptr = this->_Getal().allocate(_Newres + 1);
; 2216 : 		_CATCH_ALL
; 2217 : 			_Newres = _Newsize;	// allocation failed, undo roundup and retry
; 2218 : 			_TRY_BEGIN
; 2219 : 				_Ptr = this->_Getal().allocate(_Newres + 1);
; 2220 : 			_CATCH_ALL
; 2221 : 			_Tidy(true);	// failed again, discard storage and reraise
; 2222 : 			_RERAISE;
; 2223 : 			_CATCH_END
; 2224 : 		_CATCH_END
; 2225 : 
; 2226 : 		if (0 < _Oldlen)
; 2227 : 			_Traits::copy(_Ptr, this->_Myptr(),
; 2228 : 				_Oldlen);	// copy existing elements
; 2229 : 		_Tidy(true);
; 2230 : 		this->_Getal().construct(&this->_Bx._Ptr, _Ptr);
; 2231 : 		this->_Myres = _Newres;
; 2232 : 		_Eos(_Oldlen);
; 2233 : 		}
; 2234 : 
; 2235 : 	void _Eos(size_type _Newsize)
; 2236 : 		{	// set new length and null terminator
; 2237 : 		_Traits::assign(this->_Myptr()[this->_Mysize = _Newsize], _Elem());

  003d1	c7 45 a0 00 00
	00 00		 mov	 DWORD PTR $T3[ebp+16], 0
; File c:\program files (x86)\microsoft visual studio 12.0\vc\include\iosfwd

; 564  : 		_Left = _Right;

  003d8	c6 45 90 00	 mov	 BYTE PTR $T3[ebp], 0
; File c:\program files (x86)\microsoft visual studio 12.0\vc\include\xstring

; 2275 : 		else if (this->_BUF_SIZE <= this->_Myres)

  003dc	72 0e		 jb	 SHORT $LN667@PackInitia
; File c:\program files (x86)\microsoft visual studio 12.0\vc\include\xmemory0

; 573  : 		::operator delete(_Ptr);

  003de	ff b5 60 ff ff
	ff		 push	 DWORD PTR $T2[ebp]
  003e4	e8 00 00 00 00	 call	 ??3@YAXPAX@Z		; operator delete
  003e9	83 c4 04	 add	 esp, 4
$LN667@PackInitia:
; File d:\metin2\metin2\client_source_clean\client_source_clean\source\userinterface\userinterface.cpp

; 237  : 	NANOEND

  003ec	eb		 DB	 -21			; ffffffebH
  003ed	03		 DB	 3
  003ee	d6		 DB	 -42			; ffffffd6H
  003ef	d7		 DB	 -41			; ffffffd7H
  003f0	00		 DB	 0
; File c:\program files (x86)\microsoft visual studio 12.0\vc\include\xstring

; 2275 : 		else if (this->_BUF_SIZE <= this->_Myres)

  003f1	83 7d bc 10	 cmp	 DWORD PTR _strTexCachePackName$[ebp+20], 16 ; 00000010H
; File d:\metin2\metin2\client_source_clean\client_source_clean\source\userinterface\userinterface.cpp

; 238  : 	return true;

  003f5	b3 01		 mov	 bl, 1
; File c:\program files (x86)\microsoft visual studio 12.0\vc\include\xstring

; 2275 : 		else if (this->_BUF_SIZE <= this->_Myres)

  003f7	72 0b		 jb	 SHORT $LN699@PackInitia
; File c:\program files (x86)\microsoft visual studio 12.0\vc\include\xmemory0

; 573  : 		::operator delete(_Ptr);

  003f9	ff 75 a8	 push	 DWORD PTR _strTexCachePackName$[ebp]
  003fc	e8 00 00 00 00	 call	 ??3@YAXPAX@Z		; operator delete
  00401	83 c4 04	 add	 esp, 4
$LN699@PackInitia:
; File c:\program files (x86)\microsoft visual studio 12.0\vc\include\xstring

; 2275 : 		else if (this->_BUF_SIZE <= this->_Myres)

  00404	83 7d d4 10	 cmp	 DWORD PTR _strPackName$[ebp+20], 16 ; 00000010H

; 2284 : 		this->_Myres = this->_BUF_SIZE - 1;

  00408	c7 45 bc 0f 00
	00 00		 mov	 DWORD PTR _strTexCachePackName$[ebp+20], 15 ; 0000000fH

; 2160 : 		}
; 2161 : 
; 2162 : 	int compare(size_type _Off, size_type _N0, const _Elem *_Ptr) const
; 2163 : 		{	// compare [_Off, _Off + _N0) with [_Ptr, <null>)
; 2164 : 		_DEBUG_POINTER(_Ptr);
; 2165 : 		return (compare(_Off, _N0, _Ptr, _Traits::length(_Ptr)));
; 2166 : 		}
; 2167 : 
; 2168 : 	int compare(size_type _Off,
; 2169 : 		size_type _N0, const _Elem *_Ptr, size_type _Count) const
; 2170 : 		{	// compare [_Off, _Off + _N0) with [_Ptr, _Ptr + _Count)
; 2171 :  #if _ITERATOR_DEBUG_LEVEL == 2
; 2172 : 		if (_Count != 0)
; 2173 : 			_DEBUG_POINTER(_Ptr);
; 2174 :  #endif /* _ITERATOR_DEBUG_LEVEL == 2 */
; 2175 : 
; 2176 : 		if (this->_Mysize < _Off)
; 2177 : 			_Xran();	// _Off off end
; 2178 : 		if (this->_Mysize - _Off < _N0)
; 2179 : 			_N0 = this->_Mysize - _Off;	// trim _N0 to size
; 2180 : 
; 2181 : 		size_type _Ans = _Traits::compare(this->_Myptr() + _Off, _Ptr,
; 2182 : 			_N0 < _Count ? _N0 : _Count);
; 2183 : 		return (_Ans != 0 ? (int)_Ans : _N0 < _Count ? -1
; 2184 : 			: _N0 == _Count ? 0 : +1);
; 2185 : 		}
; 2186 : 
; 2187 : 	allocator_type get_allocator() const _NOEXCEPT
; 2188 : 		{	// return allocator object for values
; 2189 : 		return (this->_Getal());
; 2190 : 		}
; 2191 : 
; 2192 : 	void _Chassign(size_type _Off, size_type _Count, _Elem _Ch)
; 2193 : 		{	// assign _Count copies of _Ch beginning at _Off
; 2194 : 		if (_Count == 1)
; 2195 : 			_Traits::assign(*(this->_Myptr() + _Off), _Ch);
; 2196 : 		else
; 2197 : 			_Traits::assign(this->_Myptr() + _Off, _Count, _Ch);
; 2198 : 		}
; 2199 : 
; 2200 : 	void _Copy(size_type _Newsize, size_type _Oldlen)
; 2201 : 		{	// copy _Oldlen elements to newly allocated buffer
; 2202 : 		size_type _Newres = _Newsize | this->_ALLOC_MASK;
; 2203 : 		if (max_size() < _Newres)
; 2204 : 			_Newres = _Newsize;	// undo roundup if too big
; 2205 : 		else if (this->_Myres / 2 <= _Newres / 3)
; 2206 : 			;
; 2207 : 		else if (this->_Myres <= max_size() - this->_Myres / 2)
; 2208 : 			_Newres = this->_Myres
; 2209 : 				+ this->_Myres / 2;	// grow exponentially if possible
; 2210 : 		else
; 2211 : 			_Newres = max_size();	// settle for max_size()
; 2212 : 
; 2213 : 		_Elem *_Ptr;
; 2214 : 		_TRY_BEGIN
; 2215 : 			_Ptr = this->_Getal().allocate(_Newres + 1);
; 2216 : 		_CATCH_ALL
; 2217 : 			_Newres = _Newsize;	// allocation failed, undo roundup and retry
; 2218 : 			_TRY_BEGIN
; 2219 : 				_Ptr = this->_Getal().allocate(_Newres + 1);
; 2220 : 			_CATCH_ALL
; 2221 : 			_Tidy(true);	// failed again, discard storage and reraise
; 2222 : 			_RERAISE;
; 2223 : 			_CATCH_END
; 2224 : 		_CATCH_END
; 2225 : 
; 2226 : 		if (0 < _Oldlen)
; 2227 : 			_Traits::copy(_Ptr, this->_Myptr(),
; 2228 : 				_Oldlen);	// copy existing elements
; 2229 : 		_Tidy(true);
; 2230 : 		this->_Getal().construct(&this->_Bx._Ptr, _Ptr);
; 2231 : 		this->_Myres = _Newres;
; 2232 : 		_Eos(_Oldlen);
; 2233 : 		}
; 2234 : 
; 2235 : 	void _Eos(size_type _Newsize)
; 2236 : 		{	// set new length and null terminator
; 2237 : 		_Traits::assign(this->_Myptr()[this->_Mysize = _Newsize], _Elem());

  0040f	c7 45 b8 00 00
	00 00		 mov	 DWORD PTR _strTexCachePackName$[ebp+16], 0
; File c:\program files (x86)\microsoft visual studio 12.0\vc\include\iosfwd

; 564  : 		_Left = _Right;

  00416	c6 45 a8 00	 mov	 BYTE PTR _strTexCachePackName$[ebp], 0
; File c:\program files (x86)\microsoft visual studio 12.0\vc\include\xstring

; 2275 : 		else if (this->_BUF_SIZE <= this->_Myres)

  0041a	72 0b		 jb	 SHORT $LN731@PackInitia
; File c:\program files (x86)\microsoft visual studio 12.0\vc\include\xmemory0

; 573  : 		::operator delete(_Ptr);

  0041c	ff 75 c0	 push	 DWORD PTR _strPackName$[ebp]
  0041f	e8 00 00 00 00	 call	 ??3@YAXPAX@Z		; operator delete
  00424	83 c4 04	 add	 esp, 4
$LN731@PackInitia:
; File c:\program files (x86)\microsoft visual studio 12.0\vc\include\xstring

; 2284 : 		this->_Myres = this->_BUF_SIZE - 1;

  00427	c7 45 d4 0f 00
	00 00		 mov	 DWORD PTR _strPackName$[ebp+20], 15 ; 0000000fH

; 2160 : 		}
; 2161 : 
; 2162 : 	int compare(size_type _Off, size_type _N0, const _Elem *_Ptr) const
; 2163 : 		{	// compare [_Off, _Off + _N0) with [_Ptr, <null>)
; 2164 : 		_DEBUG_POINTER(_Ptr);
; 2165 : 		return (compare(_Off, _N0, _Ptr, _Traits::length(_Ptr)));
; 2166 : 		}
; 2167 : 
; 2168 : 	int compare(size_type _Off,
; 2169 : 		size_type _N0, const _Elem *_Ptr, size_type _Count) const
; 2170 : 		{	// compare [_Off, _Off + _N0) with [_Ptr, _Ptr + _Count)
; 2171 :  #if _ITERATOR_DEBUG_LEVEL == 2
; 2172 : 		if (_Count != 0)
; 2173 : 			_DEBUG_POINTER(_Ptr);
; 2174 :  #endif /* _ITERATOR_DEBUG_LEVEL == 2 */
; 2175 : 
; 2176 : 		if (this->_Mysize < _Off)
; 2177 : 			_Xran();	// _Off off end
; 2178 : 		if (this->_Mysize - _Off < _N0)
; 2179 : 			_N0 = this->_Mysize - _Off;	// trim _N0 to size
; 2180 : 
; 2181 : 		size_type _Ans = _Traits::compare(this->_Myptr() + _Off, _Ptr,
; 2182 : 			_N0 < _Count ? _N0 : _Count);
; 2183 : 		return (_Ans != 0 ? (int)_Ans : _N0 < _Count ? -1
; 2184 : 			: _N0 == _Count ? 0 : +1);
; 2185 : 		}
; 2186 : 
; 2187 : 	allocator_type get_allocator() const _NOEXCEPT
; 2188 : 		{	// return allocator object for values
; 2189 : 		return (this->_Getal());
; 2190 : 		}
; 2191 : 
; 2192 : 	void _Chassign(size_type _Off, size_type _Count, _Elem _Ch)
; 2193 : 		{	// assign _Count copies of _Ch beginning at _Off
; 2194 : 		if (_Count == 1)
; 2195 : 			_Traits::assign(*(this->_Myptr() + _Off), _Ch);
; 2196 : 		else
; 2197 : 			_Traits::assign(this->_Myptr() + _Off, _Count, _Ch);
; 2198 : 		}
; 2199 : 
; 2200 : 	void _Copy(size_type _Newsize, size_type _Oldlen)
; 2201 : 		{	// copy _Oldlen elements to newly allocated buffer
; 2202 : 		size_type _Newres = _Newsize | this->_ALLOC_MASK;
; 2203 : 		if (max_size() < _Newres)
; 2204 : 			_Newres = _Newsize;	// undo roundup if too big
; 2205 : 		else if (this->_Myres / 2 <= _Newres / 3)
; 2206 : 			;
; 2207 : 		else if (this->_Myres <= max_size() - this->_Myres / 2)
; 2208 : 			_Newres = this->_Myres
; 2209 : 				+ this->_Myres / 2;	// grow exponentially if possible
; 2210 : 		else
; 2211 : 			_Newres = max_size();	// settle for max_size()
; 2212 : 
; 2213 : 		_Elem *_Ptr;
; 2214 : 		_TRY_BEGIN
; 2215 : 			_Ptr = this->_Getal().allocate(_Newres + 1);
; 2216 : 		_CATCH_ALL
; 2217 : 			_Newres = _Newsize;	// allocation failed, undo roundup and retry
; 2218 : 			_TRY_BEGIN
; 2219 : 				_Ptr = this->_Getal().allocate(_Newres + 1);
; 2220 : 			_CATCH_ALL
; 2221 : 			_Tidy(true);	// failed again, discard storage and reraise
; 2222 : 			_RERAISE;
; 2223 : 			_CATCH_END
; 2224 : 		_CATCH_END
; 2225 : 
; 2226 : 		if (0 < _Oldlen)
; 2227 : 			_Traits::copy(_Ptr, this->_Myptr(),
; 2228 : 				_Oldlen);	// copy existing elements
; 2229 : 		_Tidy(true);
; 2230 : 		this->_Getal().construct(&this->_Bx._Ptr, _Ptr);
; 2231 : 		this->_Myres = _Newres;
; 2232 : 		_Eos(_Oldlen);
; 2233 : 		}
; 2234 : 
; 2235 : 	void _Eos(size_type _Newsize)
; 2236 : 		{	// set new length and null terminator
; 2237 : 		_Traits::assign(this->_Myptr()[this->_Mysize = _Newsize], _Elem());

  0042e	c7 45 d0 00 00
	00 00		 mov	 DWORD PTR _strPackName$[ebp+16], 0
; File c:\program files (x86)\microsoft visual studio 12.0\vc\include\iosfwd

; 564  : 		_Left = _Right;

  00435	c6 45 c0 00	 mov	 BYTE PTR _strPackName$[ebp], 0
$LN741@PackInitia:
; File d:\metin2\metin2\client_source_clean\client_source_clean\source\userinterface\userinterface.cpp

; 238  : 	return true;

  00439	8d 8d 04 fe ff
	ff		 lea	 ecx, DWORD PTR _TextLoader$[ebp]
  0043f	c6 45 fc 02	 mov	 BYTE PTR __$EHRec$[ebp+8], 2
  00443	e8 00 00 00 00	 call	 ??1CMemoryTextFileLoader@@UAE@XZ ; CMemoryTextFileLoader::~CMemoryTextFileLoader
$LN19@PackInitia:
  00448	8d 8d 18 fe ff
	ff		 lea	 ecx, DWORD PTR _file$[ebp]
  0044e	c6 45 fc 01	 mov	 BYTE PTR __$EHRec$[ebp+8], 1
  00452	e8 00 00 00 00	 call	 ??1CMappedFile@@UAE@XZ	; CMappedFile::~CMappedFile
; File c:\program files (x86)\microsoft visual studio 12.0\vc\include\xstring

; 2275 : 		else if (this->_BUF_SIZE <= this->_Myres)

  00457	83 7d ec 10	 cmp	 DWORD PTR _stFileName$[ebp+20], 16 ; 00000010H
  0045b	72 0b		 jb	 SHORT $LN763@PackInitia
; File c:\program files (x86)\microsoft visual studio 12.0\vc\include\xmemory0

; 573  : 		::operator delete(_Ptr);

  0045d	ff 75 d8	 push	 DWORD PTR _stFileName$[ebp]
  00460	e8 00 00 00 00	 call	 ??3@YAXPAX@Z		; operator delete
  00465	83 c4 04	 add	 esp, 4
$LN763@PackInitia:
; File c:\program files (x86)\microsoft visual studio 12.0\vc\include\xstring

; 2275 : 		else if (this->_BUF_SIZE <= this->_Myres)

  00468	83 7d 8c 10	 cmp	 DWORD PTR _stFolder$[ebp+20], 16 ; 00000010H

; 2284 : 		this->_Myres = this->_BUF_SIZE - 1;

  0046c	c7 45 ec 0f 00
	00 00		 mov	 DWORD PTR _stFileName$[ebp+20], 15 ; 0000000fH

; 2160 : 		}
; 2161 : 
; 2162 : 	int compare(size_type _Off, size_type _N0, const _Elem *_Ptr) const
; 2163 : 		{	// compare [_Off, _Off + _N0) with [_Ptr, <null>)
; 2164 : 		_DEBUG_POINTER(_Ptr);
; 2165 : 		return (compare(_Off, _N0, _Ptr, _Traits::length(_Ptr)));
; 2166 : 		}
; 2167 : 
; 2168 : 	int compare(size_type _Off,
; 2169 : 		size_type _N0, const _Elem *_Ptr, size_type _Count) const
; 2170 : 		{	// compare [_Off, _Off + _N0) with [_Ptr, _Ptr + _Count)
; 2171 :  #if _ITERATOR_DEBUG_LEVEL == 2
; 2172 : 		if (_Count != 0)
; 2173 : 			_DEBUG_POINTER(_Ptr);
; 2174 :  #endif /* _ITERATOR_DEBUG_LEVEL == 2 */
; 2175 : 
; 2176 : 		if (this->_Mysize < _Off)
; 2177 : 			_Xran();	// _Off off end
; 2178 : 		if (this->_Mysize - _Off < _N0)
; 2179 : 			_N0 = this->_Mysize - _Off;	// trim _N0 to size
; 2180 : 
; 2181 : 		size_type _Ans = _Traits::compare(this->_Myptr() + _Off, _Ptr,
; 2182 : 			_N0 < _Count ? _N0 : _Count);
; 2183 : 		return (_Ans != 0 ? (int)_Ans : _N0 < _Count ? -1
; 2184 : 			: _N0 == _Count ? 0 : +1);
; 2185 : 		}
; 2186 : 
; 2187 : 	allocator_type get_allocator() const _NOEXCEPT
; 2188 : 		{	// return allocator object for values
; 2189 : 		return (this->_Getal());
; 2190 : 		}
; 2191 : 
; 2192 : 	void _Chassign(size_type _Off, size_type _Count, _Elem _Ch)
; 2193 : 		{	// assign _Count copies of _Ch beginning at _Off
; 2194 : 		if (_Count == 1)
; 2195 : 			_Traits::assign(*(this->_Myptr() + _Off), _Ch);
; 2196 : 		else
; 2197 : 			_Traits::assign(this->_Myptr() + _Off, _Count, _Ch);
; 2198 : 		}
; 2199 : 
; 2200 : 	void _Copy(size_type _Newsize, size_type _Oldlen)
; 2201 : 		{	// copy _Oldlen elements to newly allocated buffer
; 2202 : 		size_type _Newres = _Newsize | this->_ALLOC_MASK;
; 2203 : 		if (max_size() < _Newres)
; 2204 : 			_Newres = _Newsize;	// undo roundup if too big
; 2205 : 		else if (this->_Myres / 2 <= _Newres / 3)
; 2206 : 			;
; 2207 : 		else if (this->_Myres <= max_size() - this->_Myres / 2)
; 2208 : 			_Newres = this->_Myres
; 2209 : 				+ this->_Myres / 2;	// grow exponentially if possible
; 2210 : 		else
; 2211 : 			_Newres = max_size();	// settle for max_size()
; 2212 : 
; 2213 : 		_Elem *_Ptr;
; 2214 : 		_TRY_BEGIN
; 2215 : 			_Ptr = this->_Getal().allocate(_Newres + 1);
; 2216 : 		_CATCH_ALL
; 2217 : 			_Newres = _Newsize;	// allocation failed, undo roundup and retry
; 2218 : 			_TRY_BEGIN
; 2219 : 				_Ptr = this->_Getal().allocate(_Newres + 1);
; 2220 : 			_CATCH_ALL
; 2221 : 			_Tidy(true);	// failed again, discard storage and reraise
; 2222 : 			_RERAISE;
; 2223 : 			_CATCH_END
; 2224 : 		_CATCH_END
; 2225 : 
; 2226 : 		if (0 < _Oldlen)
; 2227 : 			_Traits::copy(_Ptr, this->_Myptr(),
; 2228 : 				_Oldlen);	// copy existing elements
; 2229 : 		_Tidy(true);
; 2230 : 		this->_Getal().construct(&this->_Bx._Ptr, _Ptr);
; 2231 : 		this->_Myres = _Newres;
; 2232 : 		_Eos(_Oldlen);
; 2233 : 		}
; 2234 : 
; 2235 : 	void _Eos(size_type _Newsize)
; 2236 : 		{	// set new length and null terminator
; 2237 : 		_Traits::assign(this->_Myptr()[this->_Mysize = _Newsize], _Elem());

  00473	c7 45 e8 00 00
	00 00		 mov	 DWORD PTR _stFileName$[ebp+16], 0
; File c:\program files (x86)\microsoft visual studio 12.0\vc\include\iosfwd

; 564  : 		_Left = _Right;

  0047a	c6 45 d8 00	 mov	 BYTE PTR _stFileName$[ebp], 0
; File c:\program files (x86)\microsoft visual studio 12.0\vc\include\xstring

; 2275 : 		else if (this->_BUF_SIZE <= this->_Myres)

  0047e	72 0e		 jb	 SHORT $LN795@PackInitia
; File c:\program files (x86)\microsoft visual studio 12.0\vc\include\xmemory0

; 573  : 		::operator delete(_Ptr);

  00480	ff b5 78 ff ff
	ff		 push	 DWORD PTR _stFolder$[ebp]
  00486	e8 00 00 00 00	 call	 ??3@YAXPAX@Z		; operator delete
  0048b	83 c4 04	 add	 esp, 4
$LN795@PackInitia:
; File d:\metin2\metin2\client_source_clean\client_source_clean\source\userinterface\userinterface.cpp

; 238  : 	return true;

  0048e	8a c3		 mov	 al, bl
$LN7@PackInitia:

; 239  : }

  00490	8b 4d f4	 mov	 ecx, DWORD PTR __$EHRec$[ebp]
  00493	64 89 0d 00 00
	00 00		 mov	 DWORD PTR fs:0, ecx
  0049a	59		 pop	 ecx
  0049b	5f		 pop	 edi
  0049c	5e		 pop	 esi
  0049d	5b		 pop	 ebx
  0049e	8b 4d f0	 mov	 ecx, DWORD PTR __$ArrayPad$[ebp]
  004a1	33 cd		 xor	 ecx, ebp
  004a3	e8 00 00 00 00	 call	 @__security_check_cookie@4
  004a8	8b e5		 mov	 esp, ebp
  004aa	5d		 pop	 ebp
  004ab	c3		 ret	 0
_TEXT	ENDS
;	COMDAT text$x
text$x	SEGMENT
__unwindfunclet$?PackInitialize@@YA_NPBD@Z$0:
  00000	8d 8d 78 ff ff
	ff		 lea	 ecx, DWORD PTR _stFolder$[ebp]
  00006	e9 00 00 00 00	 jmp	 ??1?$basic_string@DU?$char_traits@D@std@@V?$allocator@D@2@@std@@QAE@XZ ; std::basic_string<char,std::char_traits<char>,std::allocator<char> >::~basic_string<char,std::char_traits<char>,std::allocator<char> >
__unwindfunclet$?PackInitialize@@YA_NPBD@Z$1:
  0000b	8d 4d d8	 lea	 ecx, DWORD PTR _stFileName$[ebp]
  0000e	e9 00 00 00 00	 jmp	 ??1?$basic_string@DU?$char_traits@D@std@@V?$allocator@D@2@@std@@QAE@XZ ; std::basic_string<char,std::char_traits<char>,std::allocator<char> >::~basic_string<char,std::char_traits<char>,std::allocator<char> >
__unwindfunclet$?PackInitialize@@YA_NPBD@Z$2:
  00013	8d 8d 18 fe ff
	ff		 lea	 ecx, DWORD PTR _file$[ebp]
  00019	e9 00 00 00 00	 jmp	 ??1CMappedFile@@UAE@XZ	; CMappedFile::~CMappedFile
__unwindfunclet$?PackInitialize@@YA_NPBD@Z$3:
  0001e	8d 8d 04 fe ff
	ff		 lea	 ecx, DWORD PTR _TextLoader$[ebp]
  00024	e9 00 00 00 00	 jmp	 ??1CMemoryTextFileLoader@@UAE@XZ ; CMemoryTextFileLoader::~CMemoryTextFileLoader
__unwindfunclet$?PackInitialize@@YA_NPBD@Z$4:
  00029	8d 4d c0	 lea	 ecx, DWORD PTR _strPackName$[ebp]
  0002c	e9 00 00 00 00	 jmp	 ??1?$basic_string@DU?$char_traits@D@std@@V?$allocator@D@2@@std@@QAE@XZ ; std::basic_string<char,std::char_traits<char>,std::allocator<char> >::~basic_string<char,std::char_traits<char>,std::allocator<char> >
__unwindfunclet$?PackInitialize@@YA_NPBD@Z$5:
  00031	8d 4d a8	 lea	 ecx, DWORD PTR _strTexCachePackName$[ebp]
  00034	e9 00 00 00 00	 jmp	 ??1?$basic_string@DU?$char_traits@D@std@@V?$allocator@D@2@@std@@QAE@XZ ; std::basic_string<char,std::char_traits<char>,std::allocator<char> >::~basic_string<char,std::char_traits<char>,std::allocator<char> >
__unwindfunclet$?PackInitialize@@YA_NPBD@Z$8:
  00039	8d 8d 60 ff ff
	ff		 lea	 ecx, DWORD PTR $T2[ebp]
  0003f	e9 00 00 00 00	 jmp	 ??1?$basic_string@DU?$char_traits@D@std@@V?$allocator@D@2@@std@@QAE@XZ ; std::basic_string<char,std::char_traits<char>,std::allocator<char> >::~basic_string<char,std::char_traits<char>,std::allocator<char> >
__unwindfunclet$?PackInitialize@@YA_NPBD@Z$9:
  00044	8d 4d 90	 lea	 ecx, DWORD PTR $T3[ebp]
  00047	e9 00 00 00 00	 jmp	 ??1?$basic_string@DU?$char_traits@D@std@@V?$allocator@D@2@@std@@QAE@XZ ; std::basic_string<char,std::char_traits<char>,std::allocator<char> >::~basic_string<char,std::char_traits<char>,std::allocator<char> >
__ehhandler$?PackInitialize@@YA_NPBD@Z:
  0004c	8b 54 24 08	 mov	 edx, DWORD PTR [esp+8]
  00050	8d 42 0c	 lea	 eax, DWORD PTR [edx+12]
  00053	8b 8a fc fd ff
	ff		 mov	 ecx, DWORD PTR [edx-516]
  00059	33 c8		 xor	 ecx, eax
  0005b	e8 00 00 00 00	 call	 @__security_check_cookie@4
  00060	8b 4a fc	 mov	 ecx, DWORD PTR [edx-4]
  00063	33 c8		 xor	 ecx, eax
  00065	e8 00 00 00 00	 call	 @__security_check_cookie@4
  0006a	b8 00 00 00 00	 mov	 eax, OFFSET __ehfuncinfo$?PackInitialize@@YA_NPBD@Z
  0006f	e9 00 00 00 00	 jmp	 ___CxxFrameHandler3
text$x	ENDS
?PackInitialize@@YA_NPBD@Z ENDP				; PackInitialize
; Function compile flags: /Ogtp
; File d:\metin2\metin2\client_source_clean\client_source_clean\source\userinterface\userinterface.cpp
; File c:\program files (x86)\microsoft visual studio 12.0\vc\include\xstring
; File c:\program files (x86)\microsoft visual studio 12.0\vc\include\iosfwd
; File c:\program files (x86)\microsoft visual studio 12.0\vc\include\xstring
; File d:\metin2\metin2\client_source_clean\client_source_clean\source\userinterface\userinterface.cpp
; File c:\program files (x86)\microsoft visual studio 12.0\vc\include\xstring
; File d:\metin2\metin2\client_source_clean\client_source_clean\source\userinterface\userinterface.cpp
; File c:\program files (x86)\microsoft visual studio 12.0\vc\include\xstring
; File d:\metin2\metin2\client_source_clean\client_source_clean\source\userinterface\userinterface.cpp
; File c:\program files (x86)\microsoft visual studio 12.0\vc\include\xstring
; File c:\program files (x86)\microsoft visual studio 12.0\vc\include\xmemory0
; File d:\metin2\metin2\client_source_clean\client_source_clean\source\userinterface\userinterface.cpp
; File c:\program files (x86)\microsoft visual studio 12.0\vc\include\xstring
; File c:\program files (x86)\microsoft visual studio 12.0\vc\include\xmemory0
; File c:\program files (x86)\microsoft visual studio 12.0\vc\include\xstring
; File c:\program files (x86)\microsoft visual studio 12.0\vc\include\iosfwd
; File d:\metin2\metin2\client_source_clean\client_source_clean\source\userinterface\userinterface.cpp
; File c:\program files (x86)\microsoft visual studio 12.0\vc\include\xstring
; File c:\program files (x86)\microsoft visual studio 12.0\vc\include\iosfwd
; File c:\program files (x86)\microsoft visual studio 12.0\vc\include\vector
; File d:\metin2\metin2\client_source_clean\client_source_clean\source\userinterface\userinterface.cpp
; File c:\program files (x86)\microsoft visual studio 12.0\vc\include\vector
; File d:\metin2\metin2\client_source_clean\client_source_clean\source\userinterface\userinterface.cpp
; File c:\program files (x86)\microsoft visual studio 12.0\vc\include\vector
; File d:\metin2\metin2\client_source_clean\client_source_clean\source\userinterface\userinterface.cpp
; File c:\program files (x86)\microsoft visual studio 12.0\vc\include\xstring
; File d:\metin2\metin2\client_source_clean\client_source_clean\source\userinterface\userinterface.cpp
; File c:\program files (x86)\microsoft visual studio 12.0\vc\include\vector
; File c:\program files (x86)\microsoft visual studio 12.0\vc\include\xstring
; File c:\program files (x86)\microsoft visual studio 12.0\vc\include\xstddef
; File d:\metin2\metin2\client_source_clean\client_source_clean\source\userinterface\userinterface.cpp
; File c:\program files (x86)\microsoft visual studio 12.0\vc\include\vector
; File d:\metin2\metin2\client_source_clean\client_source_clean\source\userinterface\userinterface.cpp
; File c:\program files (x86)\microsoft visual studio 12.0\vc\include\iosfwd
; File c:\program files (x86)\microsoft visual studio 12.0\vc\include\xstring
; File d:\metin2\metin2\client_source_clean\client_source_clean\source\userinterface\userinterface.cpp
; File c:\program files (x86)\microsoft visual studio 12.0\vc\include\xstring
; File c:\program files (x86)\microsoft visual studio 12.0\vc\include\xmemory0
; File d:\metin2\metin2\client_source_clean\client_source_clean\source\userinterface\userinterface.cpp
; File c:\program files (x86)\microsoft visual studio 12.0\vc\include\vector
; File d:\metin2\metin2\client_source_clean\client_source_clean\source\userinterface\userinterface.cpp
; File c:\program files (x86)\microsoft visual studio 12.0\vc\include\xstring
; File d:\metin2\metin2\client_source_clean\client_source_clean\source\userinterface\userinterface.cpp
; File c:\program files (x86)\microsoft visual studio 12.0\vc\include\iosfwd
; File c:\program files (x86)\microsoft visual studio 12.0\vc\include\xstring
; File d:\metin2\metin2\client_source_clean\client_source_clean\source\userinterface\userinterface.cpp
; File c:\program files (x86)\microsoft visual studio 12.0\vc\include\xstring
; File d:\metin2\metin2\client_source_clean\client_source_clean\source\userinterface\userinterface.cpp
; File c:\program files (x86)\microsoft visual studio 12.0\vc\include\vector
; File d:\metin2\metin2\client_source_clean\client_source_clean\source\userinterface\userinterface.cpp
; File c:\program files (x86)\microsoft visual studio 12.0\vc\include\vector
; File c:\program files (x86)\microsoft visual studio 12.0\vc\include\xmemory0
; File c:\program files (x86)\microsoft visual studio 12.0\vc\include\vector
; File c:\program files (x86)\microsoft visual studio 12.0\vc\include\xstring
; File c:\program files (x86)\microsoft visual studio 12.0\vc\include\xmemory0
; File c:\program files (x86)\microsoft visual studio 12.0\vc\include\xstring
; File c:\program files (x86)\microsoft visual studio 12.0\vc\include\iosfwd
; File d:\metin2\metin2\client_source_clean\client_source_clean\source\userinterface\userinterface.cpp
; File c:\program files (x86)\microsoft visual studio 12.0\vc\include\vector
; File c:\program files (x86)\microsoft visual studio 12.0\vc\include\xmemory0
; File c:\program files (x86)\microsoft visual studio 12.0\vc\include\vector
; File c:\program files (x86)\microsoft visual studio 12.0\vc\include\xstring
; File c:\program files (x86)\microsoft visual studio 12.0\vc\include\xmemory0
; File c:\program files (x86)\microsoft visual studio 12.0\vc\include\xstring
; File c:\program files (x86)\microsoft visual studio 12.0\vc\include\iosfwd
; File c:\program files (x86)\microsoft visual studio 12.0\vc\include\xstring
; File c:\program files (x86)\microsoft visual studio 12.0\vc\include\xmemory0
; File c:\program files (x86)\microsoft visual studio 12.0\vc\include\vector
; File d:\metin2\metin2\client_source_clean\client_source_clean\source\userinterface\userinterface.cpp
; File c:\program files (x86)\microsoft visual studio 12.0\vc\include\vector
; File d:\metin2\metin2\client_source_clean\client_source_clean\source\userinterface\userinterface.cpp
; File c:\program files (x86)\microsoft visual studio 12.0\vc\include\vector
; File d:\metin2\metin2\client_source_clean\client_source_clean\source\userinterface\userinterface.cpp
;	COMDAT ?RunMainScript@@YA_NAAVCPythonLauncher@@PBD@Z
_TEXT	SEGMENT
_pyLauncher$GSCopy$1$ = -372				; size = 4
__Cat$2 = -372						; size = 1
__Cat$3 = -372						; size = 1
__Alval$4 = -365					; size = 1
__Alval$5 = -365					; size = 1
_stVec$6 = -364						; size = 12
_stVec$7 = -364						; size = 12
$T8 = -352						; size = 24
$T9 = -352						; size = 24
_stCmdLine$10 = -328					; size = 24
_stRegisterCmdLine$11 = -304				; size = 24
_stRegisterDebugFlag$12 = -304				; size = 24
_buf$13 = -280						; size = 260
__$ArrayPad$ = -16					; size = 4
__$EHRec$ = -12						; size = 12
?RunMainScript@@YA_NAAVCPythonLauncher@@PBD@Z PROC	; RunMainScript, COMDAT
; _pyLauncher$ = ecx
; _lpCmdLine$ = edx

; 242  : {

  00000	55		 push	 ebp
  00001	8b ec		 mov	 ebp, esp
  00003	6a ff		 push	 -1
  00005	68 00 00 00 00	 push	 __ehhandler$?RunMainScript@@YA_NAAVCPythonLauncher@@PBD@Z
  0000a	64 a1 00 00 00
	00		 mov	 eax, DWORD PTR fs:0
  00010	50		 push	 eax
  00011	81 ec 6c 01 00
	00		 sub	 esp, 364		; 0000016cH
  00017	a1 00 00 00 00	 mov	 eax, DWORD PTR ___security_cookie
  0001c	33 c5		 xor	 eax, ebp
  0001e	89 45 f0	 mov	 DWORD PTR __$ArrayPad$[ebp], eax
  00021	53		 push	 ebx
  00022	56		 push	 esi
  00023	57		 push	 edi
  00024	50		 push	 eax
  00025	8d 45 f4	 lea	 eax, DWORD PTR __$EHRec$[ebp]
  00028	64 a3 00 00 00
	00		 mov	 DWORD PTR fs:0, eax
  0002e	8b da		 mov	 ebx, edx
  00030	8b f1		 mov	 esi, ecx
  00032	89 b5 8c fe ff
	ff		 mov	 DWORD PTR _pyLauncher$GSCopy$1$[ebp], esi

; 243  : 	initpack();

  00038	e8 00 00 00 00	 call	 ?initpack@@YAXXZ	; initpack

; 244  : 	initdbg();

  0003d	e8 00 00 00 00	 call	 ?initdbg@@YAXXZ		; initdbg

; 245  : 	initime();

  00042	e8 00 00 00 00	 call	 ?initime@@YAXXZ		; initime

; 246  : 	initgrp();

  00047	e8 00 00 00 00	 call	 ?initgrp@@YAXXZ		; initgrp

; 247  : 	initgrpImage();

  0004c	e8 00 00 00 00	 call	 ?initgrpImage@@YAXXZ	; initgrpImage

; 248  : 	initgrpText();

  00051	e8 00 00 00 00	 call	 ?initgrpText@@YAXXZ	; initgrpText

; 249  : 	initwndMgr();

  00056	e8 00 00 00 00	 call	 ?initwndMgr@@YAXXZ	; initwndMgr

; 250  : 	/////////////////////////////////////////////
; 251  : 	initudp();
; 252  : 	initapp();

  0005b	e8 00 00 00 00	 call	 ?initapp@@YAXXZ		; initapp

; 253  : 	initsystem();

  00060	e8 00 00 00 00	 call	 ?initsystem@@YAXXZ	; initsystem

; 254  : 	initchr();

  00065	e8 00 00 00 00	 call	 ?initchr@@YAXXZ		; initchr

; 255  : 	initchrmgr();

  0006a	e8 00 00 00 00	 call	 ?initchrmgr@@YAXXZ	; initchrmgr

; 256  : 	initPlayer();

  0006f	e8 00 00 00 00	 call	 ?initPlayer@@YAXXZ	; initPlayer

; 257  : 	initItem();

  00074	e8 00 00 00 00	 call	 ?initItem@@YAXXZ	; initItem

; 258  : 	initNonPlayer();

  00079	e8 00 00 00 00	 call	 ?initNonPlayer@@YAXXZ	; initNonPlayer

; 259  : 	initTrade();

  0007e	e8 00 00 00 00	 call	 ?initTrade@@YAXXZ	; initTrade

; 260  : 	initChat();

  00083	e8 00 00 00 00	 call	 ?initChat@@YAXXZ	; initChat

; 261  : 	initTextTail();

  00088	e8 00 00 00 00	 call	 ?initTextTail@@YAXXZ	; initTextTail

; 262  : 	initnet();

  0008d	e8 00 00 00 00	 call	 ?initnet@@YAXXZ		; initnet

; 263  : 	initMiniMap();

  00092	e8 00 00 00 00	 call	 ?initMiniMap@@YAXXZ	; initMiniMap

; 264  : 	initProfiler();

  00097	e8 00 00 00 00	 call	 ?initProfiler@@YAXXZ	; initProfiler

; 265  : 	initEvent();

  0009c	e8 00 00 00 00	 call	 ?initEvent@@YAXXZ	; initEvent

; 266  : 	initeffect();

  000a1	e8 00 00 00 00	 call	 ?initeffect@@YAXXZ	; initeffect

; 267  : 	initfly();

  000a6	e8 00 00 00 00	 call	 ?initfly@@YAXXZ		; initfly

; 268  : 	initsnd();

  000ab	e8 00 00 00 00	 call	 ?initsnd@@YAXXZ		; initsnd

; 269  : 	initeventmgr();

  000b0	e8 00 00 00 00	 call	 ?initeventmgr@@YAXXZ	; initeventmgr

; 270  : 	initshop();

  000b5	e8 00 00 00 00	 call	 ?initshop@@YAXXZ	; initshop

; 271  : 	initskill();

  000ba	e8 00 00 00 00	 call	 ?initskill@@YAXXZ	; initskill

; 272  : 	initquest();

  000bf	e8 00 00 00 00	 call	 ?initquest@@YAXXZ	; initquest

; 273  : 	initBackground();

  000c4	e8 00 00 00 00	 call	 ?initBackground@@YAXXZ	; initBackground

; 274  : 	initMessenger();

  000c9	e8 00 00 00 00	 call	 ?initMessenger@@YAXXZ	; initMessenger

; 275  : 	initsafebox();

  000ce	e8 00 00 00 00	 call	 ?initsafebox@@YAXXZ	; initsafebox

; 276  : 	initguild();

  000d3	e8 00 00 00 00	 call	 ?initguild@@YAXXZ	; initguild

; 277  : 	initServerStateChecker();

  000d8	e8 00 00 00 00	 call	 ?initServerStateChecker@@YAXXZ ; initServerStateChecker

; 278  : 
; 279  : 	NANOBEGIN

  000dd	eb		 DB	 -21			; ffffffebH
  000de	03		 DB	 3
  000df	d6		 DB	 -42			; ffffffd6H
  000e0	d7		 DB	 -41			; ffffffd7H
  000e1	01		 DB	 1
; File c:\program files (x86)\microsoft visual studio 12.0\vc\include\xstring

; 2284 : 		this->_Myres = this->_BUF_SIZE - 1;

  000e2	c7 85 e4 fe ff
	ff 0f 00 00 00	 mov	 DWORD PTR _stRegisterDebugFlag$12[ebp+20], 15 ; 0000000fH

; 2160 : 		}
; 2161 : 
; 2162 : 	int compare(size_type _Off, size_type _N0, const _Elem *_Ptr) const
; 2163 : 		{	// compare [_Off, _Off + _N0) with [_Ptr, <null>)
; 2164 : 		_DEBUG_POINTER(_Ptr);
; 2165 : 		return (compare(_Off, _N0, _Ptr, _Traits::length(_Ptr)));
; 2166 : 		}
; 2167 : 
; 2168 : 	int compare(size_type _Off,
; 2169 : 		size_type _N0, const _Elem *_Ptr, size_type _Count) const
; 2170 : 		{	// compare [_Off, _Off + _N0) with [_Ptr, _Ptr + _Count)
; 2171 :  #if _ITERATOR_DEBUG_LEVEL == 2
; 2172 : 		if (_Count != 0)
; 2173 : 			_DEBUG_POINTER(_Ptr);
; 2174 :  #endif /* _ITERATOR_DEBUG_LEVEL == 2 */
; 2175 : 
; 2176 : 		if (this->_Mysize < _Off)
; 2177 : 			_Xran();	// _Off off end
; 2178 : 		if (this->_Mysize - _Off < _N0)
; 2179 : 			_N0 = this->_Mysize - _Off;	// trim _N0 to size
; 2180 : 
; 2181 : 		size_type _Ans = _Traits::compare(this->_Myptr() + _Off, _Ptr,
; 2182 : 			_N0 < _Count ? _N0 : _Count);
; 2183 : 		return (_Ans != 0 ? (int)_Ans : _N0 < _Count ? -1
; 2184 : 			: _N0 == _Count ? 0 : +1);
; 2185 : 		}
; 2186 : 
; 2187 : 	allocator_type get_allocator() const _NOEXCEPT
; 2188 : 		{	// return allocator object for values
; 2189 : 		return (this->_Getal());
; 2190 : 		}
; 2191 : 
; 2192 : 	void _Chassign(size_type _Off, size_type _Count, _Elem _Ch)
; 2193 : 		{	// assign _Count copies of _Ch beginning at _Off
; 2194 : 		if (_Count == 1)
; 2195 : 			_Traits::assign(*(this->_Myptr() + _Off), _Ch);
; 2196 : 		else
; 2197 : 			_Traits::assign(this->_Myptr() + _Off, _Count, _Ch);
; 2198 : 		}
; 2199 : 
; 2200 : 	void _Copy(size_type _Newsize, size_type _Oldlen)
; 2201 : 		{	// copy _Oldlen elements to newly allocated buffer
; 2202 : 		size_type _Newres = _Newsize | this->_ALLOC_MASK;
; 2203 : 		if (max_size() < _Newres)
; 2204 : 			_Newres = _Newsize;	// undo roundup if too big
; 2205 : 		else if (this->_Myres / 2 <= _Newres / 3)
; 2206 : 			;
; 2207 : 		else if (this->_Myres <= max_size() - this->_Myres / 2)
; 2208 : 			_Newres = this->_Myres
; 2209 : 				+ this->_Myres / 2;	// grow exponentially if possible
; 2210 : 		else
; 2211 : 			_Newres = max_size();	// settle for max_size()
; 2212 : 
; 2213 : 		_Elem *_Ptr;
; 2214 : 		_TRY_BEGIN
; 2215 : 			_Ptr = this->_Getal().allocate(_Newres + 1);
; 2216 : 		_CATCH_ALL
; 2217 : 			_Newres = _Newsize;	// allocation failed, undo roundup and retry
; 2218 : 			_TRY_BEGIN
; 2219 : 				_Ptr = this->_Getal().allocate(_Newres + 1);
; 2220 : 			_CATCH_ALL
; 2221 : 			_Tidy(true);	// failed again, discard storage and reraise
; 2222 : 			_RERAISE;
; 2223 : 			_CATCH_END
; 2224 : 		_CATCH_END
; 2225 : 
; 2226 : 		if (0 < _Oldlen)
; 2227 : 			_Traits::copy(_Ptr, this->_Myptr(),
; 2228 : 				_Oldlen);	// copy existing elements
; 2229 : 		_Tidy(true);
; 2230 : 		this->_Getal().construct(&this->_Bx._Ptr, _Ptr);
; 2231 : 		this->_Myres = _Newres;
; 2232 : 		_Eos(_Oldlen);
; 2233 : 		}
; 2234 : 
; 2235 : 	void _Eos(size_type _Newsize)
; 2236 : 		{	// set new length and null terminator
; 2237 : 		_Traits::assign(this->_Myptr()[this->_Mysize = _Newsize], _Elem());

  000ec	c7 85 e0 fe ff
	ff 00 00 00 00	 mov	 DWORD PTR _stRegisterDebugFlag$12[ebp+16], 0
; File c:\program files (x86)\microsoft visual studio 12.0\vc\include\iosfwd

; 564  : 		_Left = _Right;

  000f6	c6 85 d0 fe ff
	ff 00		 mov	 BYTE PTR _stRegisterDebugFlag$12[ebp], 0
; File c:\program files (x86)\microsoft visual studio 12.0\vc\include\xstring

; 1169 : 		return (assign(_Ptr, _Traits::length(_Ptr)));

  000fd	6a 0d		 push	 13			; 0000000dH
  000ff	68 00 00 00 00	 push	 OFFSET ??_C@_0O@GIEHGGHC@__DEBUG__?5?$DN?50?$AA@
  00104	8d 8d d0 fe ff
	ff		 lea	 ecx, DWORD PTR _stRegisterDebugFlag$12[ebp]
; File d:\metin2\metin2\client_source_clean\client_source_clean\source\userinterface\userinterface.cpp

; 283  : 		std::string stRegisterDebugFlag;

  0010a	c7 45 fc 00 00
	00 00		 mov	 DWORD PTR __$EHRec$[ebp+8], 0
; File c:\program files (x86)\microsoft visual studio 12.0\vc\include\xstring

; 1169 : 		return (assign(_Ptr, _Traits::length(_Ptr)));

  00111	e8 00 00 00 00	 call	 ?assign@?$basic_string@DU?$char_traits@D@std@@V?$allocator@D@2@@std@@QAEAAV12@PBDI@Z ; std::basic_string<char,std::char_traits<char>,std::allocator<char> >::assign

; 520  : 			: this->_Bx._Buf);

  00116	83 bd e4 fe ff
	ff 10		 cmp	 DWORD PTR _stRegisterDebugFlag$12[ebp+20], 16 ; 00000010H
  0011d	8d 85 d0 fe ff
	ff		 lea	 eax, DWORD PTR _stRegisterDebugFlag$12[ebp]
; File d:\metin2\metin2\client_source_clean\client_source_clean\source\userinterface\userinterface.cpp

; 291  : 		if (!pyLauncher.RunLine(stRegisterDebugFlag.c_str()))

  00123	8b ce		 mov	 ecx, esi
; File c:\program files (x86)\microsoft visual studio 12.0\vc\include\xstring

; 520  : 			: this->_Bx._Buf);

  00125	0f 43 85 d0 fe
	ff ff		 cmovae	 eax, DWORD PTR _stRegisterDebugFlag$12[ebp]
; File d:\metin2\metin2\client_source_clean\client_source_clean\source\userinterface\userinterface.cpp

; 291  : 		if (!pyLauncher.RunLine(stRegisterDebugFlag.c_str()))

  0012c	50		 push	 eax
  0012d	e8 00 00 00 00	 call	 ?RunLine@CPythonLauncher@@QAE_NPBD@Z ; CPythonLauncher::RunLine
  00132	84 c0		 test	 al, al
  00134	75 2b		 jne	 SHORT $LN8@RunMainScr

; 292  : 		{
; 293  : 			TraceError("RegisterDebugFlag Error");

  00136	68 00 00 00 00	 push	 OFFSET ??_C@_0BI@JAFKHBD@RegisterDebugFlag?5Error?$AA@
  0013b	e8 00 00 00 00	 call	 ?TraceError@@YAXPBDZZ	; TraceError
  00140	83 c4 04	 add	 esp, 4
$LN545@RunMainScr:
; File c:\program files (x86)\microsoft visual studio 12.0\vc\include\xstring

; 2275 : 		else if (this->_BUF_SIZE <= this->_Myres)

  00143	83 bd e4 fe ff
	ff 10		 cmp	 DWORD PTR _stRegisterDebugFlag$12[ebp+20], 16 ; 00000010H
  0014a	72 0e		 jb	 SHORT $LN92@RunMainScr
; File c:\program files (x86)\microsoft visual studio 12.0\vc\include\xmemory0

; 573  : 		::operator delete(_Ptr);

  0014c	ff b5 d0 fe ff
	ff		 push	 DWORD PTR _stRegisterDebugFlag$12[ebp]
  00152	e8 00 00 00 00	 call	 ??3@YAXPAX@Z		; operator delete
  00157	83 c4 04	 add	 esp, 4
$LN92@RunMainScr:
; File d:\metin2\metin2\client_source_clean\client_source_clean\source\userinterface\userinterface.cpp

; 294  : 			return false;

  0015a	32 c0		 xor	 al, al
  0015c	e9 58 04 00 00	 jmp	 $LN9@RunMainScr
$LN8@RunMainScr:
; File c:\program files (x86)\microsoft visual studio 12.0\vc\include\xstring

; 2275 : 		else if (this->_BUF_SIZE <= this->_Myres)

  00161	83 bd e4 fe ff
	ff 10		 cmp	 DWORD PTR _stRegisterDebugFlag$12[ebp+20], 16 ; 00000010H
  00168	72 0e		 jb	 SHORT $LN124@RunMainScr
; File c:\program files (x86)\microsoft visual studio 12.0\vc\include\xmemory0

; 573  : 		::operator delete(_Ptr);

  0016a	ff b5 d0 fe ff
	ff		 push	 DWORD PTR _stRegisterDebugFlag$12[ebp]
  00170	e8 00 00 00 00	 call	 ??3@YAXPAX@Z		; operator delete
  00175	83 c4 04	 add	 esp, 4
$LN124@RunMainScr:
; File c:\program files (x86)\microsoft visual studio 12.0\vc\include\xstring

; 2284 : 		this->_Myres = this->_BUF_SIZE - 1;

  00178	c7 85 e4 fe ff
	ff 0f 00 00 00	 mov	 DWORD PTR _stRegisterCmdLine$11[ebp+20], 15 ; 0000000fH

; 2160 : 		}
; 2161 : 
; 2162 : 	int compare(size_type _Off, size_type _N0, const _Elem *_Ptr) const
; 2163 : 		{	// compare [_Off, _Off + _N0) with [_Ptr, <null>)
; 2164 : 		_DEBUG_POINTER(_Ptr);
; 2165 : 		return (compare(_Off, _N0, _Ptr, _Traits::length(_Ptr)));
; 2166 : 		}
; 2167 : 
; 2168 : 	int compare(size_type _Off,
; 2169 : 		size_type _N0, const _Elem *_Ptr, size_type _Count) const
; 2170 : 		{	// compare [_Off, _Off + _N0) with [_Ptr, _Ptr + _Count)
; 2171 :  #if _ITERATOR_DEBUG_LEVEL == 2
; 2172 : 		if (_Count != 0)
; 2173 : 			_DEBUG_POINTER(_Ptr);
; 2174 :  #endif /* _ITERATOR_DEBUG_LEVEL == 2 */
; 2175 : 
; 2176 : 		if (this->_Mysize < _Off)
; 2177 : 			_Xran();	// _Off off end
; 2178 : 		if (this->_Mysize - _Off < _N0)
; 2179 : 			_N0 = this->_Mysize - _Off;	// trim _N0 to size
; 2180 : 
; 2181 : 		size_type _Ans = _Traits::compare(this->_Myptr() + _Off, _Ptr,
; 2182 : 			_N0 < _Count ? _N0 : _Count);
; 2183 : 		return (_Ans != 0 ? (int)_Ans : _N0 < _Count ? -1
; 2184 : 			: _N0 == _Count ? 0 : +1);
; 2185 : 		}
; 2186 : 
; 2187 : 	allocator_type get_allocator() const _NOEXCEPT
; 2188 : 		{	// return allocator object for values
; 2189 : 		return (this->_Getal());
; 2190 : 		}
; 2191 : 
; 2192 : 	void _Chassign(size_type _Off, size_type _Count, _Elem _Ch)
; 2193 : 		{	// assign _Count copies of _Ch beginning at _Off
; 2194 : 		if (_Count == 1)
; 2195 : 			_Traits::assign(*(this->_Myptr() + _Off), _Ch);
; 2196 : 		else
; 2197 : 			_Traits::assign(this->_Myptr() + _Off, _Count, _Ch);
; 2198 : 		}
; 2199 : 
; 2200 : 	void _Copy(size_type _Newsize, size_type _Oldlen)
; 2201 : 		{	// copy _Oldlen elements to newly allocated buffer
; 2202 : 		size_type _Newres = _Newsize | this->_ALLOC_MASK;
; 2203 : 		if (max_size() < _Newres)
; 2204 : 			_Newres = _Newsize;	// undo roundup if too big
; 2205 : 		else if (this->_Myres / 2 <= _Newres / 3)
; 2206 : 			;
; 2207 : 		else if (this->_Myres <= max_size() - this->_Myres / 2)
; 2208 : 			_Newres = this->_Myres
; 2209 : 				+ this->_Myres / 2;	// grow exponentially if possible
; 2210 : 		else
; 2211 : 			_Newres = max_size();	// settle for max_size()
; 2212 : 
; 2213 : 		_Elem *_Ptr;
; 2214 : 		_TRY_BEGIN
; 2215 : 			_Ptr = this->_Getal().allocate(_Newres + 1);
; 2216 : 		_CATCH_ALL
; 2217 : 			_Newres = _Newsize;	// allocation failed, undo roundup and retry
; 2218 : 			_TRY_BEGIN
; 2219 : 				_Ptr = this->_Getal().allocate(_Newres + 1);
; 2220 : 			_CATCH_ALL
; 2221 : 			_Tidy(true);	// failed again, discard storage and reraise
; 2222 : 			_RERAISE;
; 2223 : 			_CATCH_END
; 2224 : 		_CATCH_END
; 2225 : 
; 2226 : 		if (0 < _Oldlen)
; 2227 : 			_Traits::copy(_Ptr, this->_Myptr(),
; 2228 : 				_Oldlen);	// copy existing elements
; 2229 : 		_Tidy(true);
; 2230 : 		this->_Getal().construct(&this->_Bx._Ptr, _Ptr);
; 2231 : 		this->_Myres = _Newres;
; 2232 : 		_Eos(_Oldlen);
; 2233 : 		}
; 2234 : 
; 2235 : 	void _Eos(size_type _Newsize)
; 2236 : 		{	// set new length and null terminator
; 2237 : 		_Traits::assign(this->_Myptr()[this->_Mysize = _Newsize], _Elem());

  00182	c7 85 e0 fe ff
	ff 00 00 00 00	 mov	 DWORD PTR _stRegisterCmdLine$11[ebp+16], 0
; File c:\program files (x86)\microsoft visual studio 12.0\vc\include\iosfwd

; 564  : 		_Left = _Right;

  0018c	c6 85 d0 fe ff
	ff 00		 mov	 BYTE PTR _stRegisterCmdLine$11[ebp], 0
; File d:\metin2\metin2\client_source_clean\client_source_clean\source\userinterface\userinterface.cpp

; 300  : 		std::string stRegisterCmdLine;

  00193	c7 45 fc 01 00
	00 00		 mov	 DWORD PTR __$EHRec$[ebp+8], 1
; File c:\program files (x86)\microsoft visual studio 12.0\vc\include\xstring

; 2284 : 		this->_Myres = this->_BUF_SIZE - 1;

  0019a	c7 85 cc fe ff
	ff 0f 00 00 00	 mov	 DWORD PTR _stCmdLine$10[ebp+20], 15 ; 0000000fH

; 2160 : 		}
; 2161 : 
; 2162 : 	int compare(size_type _Off, size_type _N0, const _Elem *_Ptr) const
; 2163 : 		{	// compare [_Off, _Off + _N0) with [_Ptr, <null>)
; 2164 : 		_DEBUG_POINTER(_Ptr);
; 2165 : 		return (compare(_Off, _N0, _Ptr, _Traits::length(_Ptr)));
; 2166 : 		}
; 2167 : 
; 2168 : 	int compare(size_type _Off,
; 2169 : 		size_type _N0, const _Elem *_Ptr, size_type _Count) const
; 2170 : 		{	// compare [_Off, _Off + _N0) with [_Ptr, _Ptr + _Count)
; 2171 :  #if _ITERATOR_DEBUG_LEVEL == 2
; 2172 : 		if (_Count != 0)
; 2173 : 			_DEBUG_POINTER(_Ptr);
; 2174 :  #endif /* _ITERATOR_DEBUG_LEVEL == 2 */
; 2175 : 
; 2176 : 		if (this->_Mysize < _Off)
; 2177 : 			_Xran();	// _Off off end
; 2178 : 		if (this->_Mysize - _Off < _N0)
; 2179 : 			_N0 = this->_Mysize - _Off;	// trim _N0 to size
; 2180 : 
; 2181 : 		size_type _Ans = _Traits::compare(this->_Myptr() + _Off, _Ptr,
; 2182 : 			_N0 < _Count ? _N0 : _Count);
; 2183 : 		return (_Ans != 0 ? (int)_Ans : _N0 < _Count ? -1
; 2184 : 			: _N0 == _Count ? 0 : +1);
; 2185 : 		}
; 2186 : 
; 2187 : 	allocator_type get_allocator() const _NOEXCEPT
; 2188 : 		{	// return allocator object for values
; 2189 : 		return (this->_Getal());
; 2190 : 		}
; 2191 : 
; 2192 : 	void _Chassign(size_type _Off, size_type _Count, _Elem _Ch)
; 2193 : 		{	// assign _Count copies of _Ch beginning at _Off
; 2194 : 		if (_Count == 1)
; 2195 : 			_Traits::assign(*(this->_Myptr() + _Off), _Ch);
; 2196 : 		else
; 2197 : 			_Traits::assign(this->_Myptr() + _Off, _Count, _Ch);
; 2198 : 		}
; 2199 : 
; 2200 : 	void _Copy(size_type _Newsize, size_type _Oldlen)
; 2201 : 		{	// copy _Oldlen elements to newly allocated buffer
; 2202 : 		size_type _Newres = _Newsize | this->_ALLOC_MASK;
; 2203 : 		if (max_size() < _Newres)
; 2204 : 			_Newres = _Newsize;	// undo roundup if too big
; 2205 : 		else if (this->_Myres / 2 <= _Newres / 3)
; 2206 : 			;
; 2207 : 		else if (this->_Myres <= max_size() - this->_Myres / 2)
; 2208 : 			_Newres = this->_Myres
; 2209 : 				+ this->_Myres / 2;	// grow exponentially if possible
; 2210 : 		else
; 2211 : 			_Newres = max_size();	// settle for max_size()
; 2212 : 
; 2213 : 		_Elem *_Ptr;
; 2214 : 		_TRY_BEGIN
; 2215 : 			_Ptr = this->_Getal().allocate(_Newres + 1);
; 2216 : 		_CATCH_ALL
; 2217 : 			_Newres = _Newsize;	// allocation failed, undo roundup and retry
; 2218 : 			_TRY_BEGIN
; 2219 : 				_Ptr = this->_Getal().allocate(_Newres + 1);
; 2220 : 			_CATCH_ALL
; 2221 : 			_Tidy(true);	// failed again, discard storage and reraise
; 2222 : 			_RERAISE;
; 2223 : 			_CATCH_END
; 2224 : 		_CATCH_END
; 2225 : 
; 2226 : 		if (0 < _Oldlen)
; 2227 : 			_Traits::copy(_Ptr, this->_Myptr(),
; 2228 : 				_Oldlen);	// copy existing elements
; 2229 : 		_Tidy(true);
; 2230 : 		this->_Getal().construct(&this->_Bx._Ptr, _Ptr);
; 2231 : 		this->_Myres = _Newres;
; 2232 : 		_Eos(_Oldlen);
; 2233 : 		}
; 2234 : 
; 2235 : 	void _Eos(size_type _Newsize)
; 2236 : 		{	// set new length and null terminator
; 2237 : 		_Traits::assign(this->_Myptr()[this->_Mysize = _Newsize], _Elem());

  001a4	c7 85 c8 fe ff
	ff 00 00 00 00	 mov	 DWORD PTR _stCmdLine$10[ebp+16], 0
; File c:\program files (x86)\microsoft visual studio 12.0\vc\include\iosfwd

; 564  : 		_Left = _Right;

  001ae	c6 85 b8 fe ff
	ff 00		 mov	 BYTE PTR _stCmdLine$10[ebp], 0
; File c:\program files (x86)\microsoft visual studio 12.0\vc\include\vector

; 482  : 		_Myfirst = pointer();

  001b5	c7 85 94 fe ff
	ff 00 00 00 00	 mov	 DWORD PTR _stVec$7[ebp], 0

; 483  : 		_Mylast = pointer();

  001bf	c7 85 98 fe ff
	ff 00 00 00 00	 mov	 DWORD PTR _stVec$7[ebp+4], 0

; 484  : 		_Myend = pointer();

  001c9	c7 85 9c fe ff
	ff 00 00 00 00	 mov	 DWORD PTR _stVec$7[ebp+8], 0
; File d:\metin2\metin2\client_source_clean\client_source_clean\source\userinterface\userinterface.cpp

; 309  : 		SplitLine(lpCmdLine,seperator,&stVec);

  001d3	8d 85 94 fe ff
	ff		 lea	 eax, DWORD PTR _stVec$7[ebp]
  001d9	c6 45 fc 03	 mov	 BYTE PTR __$EHRec$[ebp+8], 3
  001dd	50		 push	 eax
  001de	68 00 00 00 00	 push	 OFFSET ??_C@_01CLKCMJKC@?5?$AA@
  001e3	53		 push	 ebx
  001e4	e8 00 00 00 00	 call	 ?SplitLine@@YA_NPBD0PAV?$vector@V?$basic_string@DU?$char_traits@D@std@@V?$allocator@D@2@@std@@V?$allocator@V?$basic_string@DU?$char_traits@D@std@@V?$allocator@D@2@@std@@@2@@std@@@Z ; SplitLine
; File c:\program files (x86)\microsoft visual studio 12.0\vc\include\vector

; 1148 : 		return (this->_Mylast - this->_Myfirst);

  001e9	8b bd 98 fe ff
	ff		 mov	 edi, DWORD PTR _stVec$7[ebp+4]
  001ef	b8 ab aa aa 2a	 mov	 eax, 715827883		; 2aaaaaabH
  001f4	8b b5 94 fe ff
	ff		 mov	 esi, DWORD PTR _stVec$7[ebp]
  001fa	8b cf		 mov	 ecx, edi
  001fc	2b ce		 sub	 ecx, esi
; File d:\metin2\metin2\client_source_clean\client_source_clean\source\userinterface\userinterface.cpp

; 309  : 		SplitLine(lpCmdLine,seperator,&stVec);

  001fe	83 c4 0c	 add	 esp, 12			; 0000000cH
; File c:\program files (x86)\microsoft visual studio 12.0\vc\include\vector

; 1148 : 		return (this->_Mylast - this->_Myfirst);

  00201	f7 e9		 imul	 ecx
  00203	c1 fa 02	 sar	 edx, 2
  00206	8b c2		 mov	 eax, edx
  00208	c1 e8 1f	 shr	 eax, 31			; 0000001fH
  0020b	03 c2		 add	 eax, edx
; File d:\metin2\metin2\client_source_clean\client_source_clean\source\userinterface\userinterface.cpp

; 310  : 		if (CmdSize == stVec.size() && stVec[0]==loginMark)

  0020d	83 f8 03	 cmp	 eax, 3
  00210	0f 85 d2 00 00
	00		 jne	 $LN7@RunMainScr
; File c:\program files (x86)\microsoft visual studio 12.0\vc\include\xstring

; 2159 : 		return (compare(0, this->_Mysize, _Ptr, _Traits::length(_Ptr)));

  00216	50		 push	 eax
  00217	68 00 00 00 00	 push	 OFFSET ??_C@_03MCGAAIEM@?9cs?$AA@
  0021c	ff 76 10	 push	 DWORD PTR [esi+16]
  0021f	8b ce		 mov	 ecx, esi
  00221	6a 00		 push	 0
  00223	e8 00 00 00 00	 call	 ?compare@?$basic_string@DU?$char_traits@D@std@@V?$allocator@D@2@@std@@QBEHIIPBDI@Z ; std::basic_string<char,std::char_traits<char>,std::allocator<char> >::compare

; 2285 : 		_Eos(_Newsize);
; 2286 : 		}
; 2287 : 
; 2288 : 	__declspec(noreturn) void _Xlen() const
; 2289 : 		{	// report a length_error
; 2290 : 		_Xlength_error("string too long");
; 2291 : 		}
; 2292 : 
; 2293 : 	__declspec(noreturn) void _Xran() const
; 2294 : 		{	// report an out_of_range error
; 2295 : 		_Xout_of_range("invalid string position");
; 2296 : 		}
; 2297 : 	};
; 2298 : 
; 2299 : 		// STATIC npos OBJECT
; 2300 : template<class _Elem,
; 2301 : 	class _Traits,
; 2302 : 	class _Alloc>
; 2303 : 	_PGLOBAL const typename basic_string<_Elem, _Traits, _Alloc>::size_type
; 2304 : 		basic_string<_Elem, _Traits, _Alloc>::npos =
; 2305 : 			(typename basic_string<_Elem, _Traits, _Alloc>::size_type)(-1);
; 2306 : 
; 2307 : 		// basic_string TEMPLATE OPERATORS
; 2308 : 
; 2309 : template<class _Elem,
; 2310 : 	class _Traits,
; 2311 : 	class _Alloc> inline
; 2312 : 	void swap(basic_string<_Elem, _Traits, _Alloc>& _Left,
; 2313 : 		basic_string<_Elem, _Traits, _Alloc>& _Right)
; 2314 : 	{	// swap _Left and _Right strings
; 2315 : 	_Left.swap(_Right);
; 2316 : 	}
; 2317 : 
; 2318 : template<class _Elem,
; 2319 : 	class _Traits,
; 2320 : 	class _Alloc> inline
; 2321 : 	basic_string<_Elem, _Traits, _Alloc> operator+(
; 2322 : 		const basic_string<_Elem, _Traits, _Alloc>& _Left,
; 2323 : 		const basic_string<_Elem, _Traits, _Alloc>& _Right)
; 2324 : 	{	// return string + string
; 2325 : 	basic_string<_Elem, _Traits, _Alloc> _Ans;
; 2326 : 	_Ans.reserve(_Left.size() + _Right.size());
; 2327 : 	_Ans += _Left;
; 2328 : 	_Ans += _Right;
; 2329 : 	return (_Ans);
; 2330 : 	}
; 2331 : 
; 2332 : template<class _Elem,
; 2333 : 	class _Traits,
; 2334 : 	class _Alloc> inline
; 2335 : 	basic_string<_Elem, _Traits, _Alloc> operator+(
; 2336 : 		const _Elem *_Left,
; 2337 : 		const basic_string<_Elem, _Traits, _Alloc>& _Right)
; 2338 : 	{	// return NTCS + string
; 2339 : 	basic_string<_Elem, _Traits, _Alloc> _Ans;
; 2340 : 	_Ans.reserve(_Traits::length(_Left) + _Right.size());
; 2341 : 	_Ans += _Left;
; 2342 : 	_Ans += _Right;
; 2343 : 	return (_Ans);
; 2344 : 	}
; 2345 : 
; 2346 : template<class _Elem,
; 2347 : 	class _Traits,
; 2348 : 	class _Alloc> inline
; 2349 : 	basic_string<_Elem, _Traits, _Alloc> operator+(
; 2350 : 		const _Elem _Left,
; 2351 : 		const basic_string<_Elem, _Traits, _Alloc>& _Right)
; 2352 : 	{	// return character + string
; 2353 : 	basic_string<_Elem, _Traits, _Alloc> _Ans;
; 2354 : 	_Ans.reserve(1 + _Right.size());
; 2355 : 	_Ans += _Left;
; 2356 : 	_Ans += _Right;
; 2357 : 	return (_Ans);
; 2358 : 	}
; 2359 : 
; 2360 : template<class _Elem,
; 2361 : 	class _Traits,
; 2362 : 	class _Alloc> inline
; 2363 : 	basic_string<_Elem, _Traits, _Alloc> operator+(
; 2364 : 		const basic_string<_Elem, _Traits, _Alloc>& _Left,
; 2365 : 		const _Elem *_Right)
; 2366 : 	{	// return string + NTCS
; 2367 : 	basic_string<_Elem, _Traits, _Alloc> _Ans;
; 2368 : 	_Ans.reserve(_Left.size() + _Traits::length(_Right));
; 2369 : 	_Ans += _Left;
; 2370 : 	_Ans += _Right;
; 2371 : 	return (_Ans);
; 2372 : 	}
; 2373 : 
; 2374 : template<class _Elem,
; 2375 : 	class _Traits,
; 2376 : 	class _Alloc> inline
; 2377 : 	basic_string<_Elem, _Traits, _Alloc> operator+(
; 2378 : 		const basic_string<_Elem, _Traits, _Alloc>& _Left,
; 2379 : 		const _Elem _Right)
; 2380 : 	{	// return string + character
; 2381 : 	basic_string<_Elem, _Traits, _Alloc> _Ans;
; 2382 : 	_Ans.reserve(_Left.size() + 1);
; 2383 : 	_Ans += _Left;
; 2384 : 	_Ans += _Right;
; 2385 : 	return (_Ans);
; 2386 : 	}
; 2387 : 
; 2388 : template<class _Elem,
; 2389 : 	class _Traits,
; 2390 : 	class _Alloc> inline
; 2391 : 	basic_string<_Elem, _Traits, _Alloc> operator+(
; 2392 : 		const basic_string<_Elem, _Traits, _Alloc>& _Left,
; 2393 : 		basic_string<_Elem, _Traits, _Alloc>&& _Right)
; 2394 : 	{	// return string + string
; 2395 : 	return (_STD move(_Right.insert(0, _Left)));
; 2396 : 	}
; 2397 : 
; 2398 : template<class _Elem,
; 2399 : 	class _Traits,
; 2400 : 	class _Alloc> inline
; 2401 : 	basic_string<_Elem, _Traits, _Alloc> operator+(
; 2402 : 		basic_string<_Elem, _Traits, _Alloc>&& _Left,
; 2403 : 		const basic_string<_Elem, _Traits, _Alloc>& _Right)
; 2404 : 	{	// return string + string
; 2405 : 	return (_STD move(_Left.append(_Right)));
; 2406 : 	}
; 2407 : 
; 2408 : template<class _Elem,
; 2409 : 	class _Traits,
; 2410 : 	class _Alloc> inline
; 2411 : 	basic_string<_Elem, _Traits, _Alloc> operator+(
; 2412 : 		basic_string<_Elem, _Traits, _Alloc>&& _Left,
; 2413 : 		basic_string<_Elem, _Traits, _Alloc>&& _Right)
; 2414 : 	{	// return string + string
; 2415 : 	if (_Right.size() <= _Left.capacity() - _Left.size()
; 2416 : 		|| _Right.capacity() - _Right.size() < _Left.size())
; 2417 : 		return (_STD move(_Left.append(_Right)));
; 2418 : 	else
; 2419 : 		return (_STD move(_Right.insert(0, _Left)));
; 2420 : 	}
; 2421 : 
; 2422 : template<class _Elem,
; 2423 : 	class _Traits,
; 2424 : 	class _Alloc> inline
; 2425 : 	basic_string<_Elem, _Traits, _Alloc> operator+(
; 2426 : 		const _Elem *_Left,
; 2427 : 		basic_string<_Elem, _Traits, _Alloc>&& _Right)
; 2428 : 	{	// return NTCS + string
; 2429 : 	return (_STD move(_Right.insert(0, _Left)));
; 2430 : 	}
; 2431 : 
; 2432 : template<class _Elem,
; 2433 : 	class _Traits,
; 2434 : 	class _Alloc> inline
; 2435 : 	basic_string<_Elem, _Traits, _Alloc> operator+(
; 2436 : 		const _Elem _Left,
; 2437 : 		basic_string<_Elem, _Traits, _Alloc>&& _Right)
; 2438 : 	{	// return character + string
; 2439 : 	return (_STD move(_Right.insert(0, 1, _Left)));
; 2440 : 	}
; 2441 : 
; 2442 : template<class _Elem,
; 2443 : 	class _Traits,
; 2444 : 	class _Alloc> inline
; 2445 : 	basic_string<_Elem, _Traits, _Alloc> operator+(
; 2446 : 		basic_string<_Elem, _Traits, _Alloc>&& _Left,
; 2447 : 		const _Elem *_Right)
; 2448 : 	{	// return string + NTCS
; 2449 : 	return (_STD move(_Left.append(_Right)));
; 2450 : 	}
; 2451 : 
; 2452 : template<class _Elem,
; 2453 : 	class _Traits,
; 2454 : 	class _Alloc> inline
; 2455 : 	basic_string<_Elem, _Traits, _Alloc> operator+(
; 2456 : 		basic_string<_Elem, _Traits, _Alloc>&& _Left,
; 2457 : 		const _Elem _Right)
; 2458 : 	{	// return string + character
; 2459 : 	return (_STD move(_Left.append(1, _Right)));
; 2460 : 	}
; 2461 : 
; 2462 : template<class _Elem,
; 2463 : 	class _Traits,
; 2464 : 	class _Alloc> inline
; 2465 : 	bool operator==(
; 2466 : 		const basic_string<_Elem, _Traits, _Alloc>& _Left,
; 2467 : 		const basic_string<_Elem, _Traits, _Alloc>& _Right)
; 2468 : 	{	// test for string equality
; 2469 : 	return (_Left.compare(_Right) == 0);
; 2470 : 	}
; 2471 : 
; 2472 : template<class _Elem,
; 2473 : 	class _Traits,
; 2474 : 	class _Alloc> inline
; 2475 : 	bool operator==(
; 2476 : 		const _Elem * _Left,
; 2477 : 		const basic_string<_Elem, _Traits, _Alloc>& _Right)
; 2478 : 	{	// test for NTCS vs. string equality
; 2479 : 	return (_Right.compare(_Left) == 0);
; 2480 : 	}
; 2481 : 
; 2482 : template<class _Elem,
; 2483 : 	class _Traits,
; 2484 : 	class _Alloc> inline
; 2485 : 	bool operator==(
; 2486 : 		const basic_string<_Elem, _Traits, _Alloc>& _Left,
; 2487 : 		const _Elem *_Right)
; 2488 : 	{	// test for string vs. NTCS equality
; 2489 : 	return (_Left.compare(_Right) == 0);

  00228	85 c0		 test	 eax, eax
; File d:\metin2\metin2\client_source_clean\client_source_clean\source\userinterface\userinterface.cpp

; 310  : 		if (CmdSize == stVec.size() && stVec[0]==loginMark)

  0022a	0f 85 ac 00 00
	00		 jne	 $LN542@RunMainScr
; File c:\program files (x86)\microsoft visual studio 12.0\vc\include\vector

; 1209 : 		return (*(this->_Myfirst + _Pos));

  00230	8b 85 94 fe ff
	ff		 mov	 eax, DWORD PTR _stVec$7[ebp]
  00236	83 c0 30	 add	 eax, 48			; 00000030H
; File c:\program files (x86)\microsoft visual studio 12.0\vc\include\xstring

; 520  : 			: this->_Bx._Buf);

  00239	83 78 14 10	 cmp	 DWORD PTR [eax+20], 16	; 00000010H
  0023d	72 02		 jb	 SHORT $LN239@RunMainScr
; File c:\program files (x86)\microsoft visual studio 12.0\vc\include\xstddef

; 95   : 		reinterpret_cast<const volatile char&>(_Val)))));

  0023f	8b 00		 mov	 eax, DWORD PTR [eax]
$LN239@RunMainScr:
; File d:\metin2\metin2\client_source_clean\client_source_clean\source\userinterface\userinterface.cpp

; 313  : 			base64_decode(stVec[2].c_str(),buf);

  00241	8d 8d e8 fe ff
	ff		 lea	 ecx, DWORD PTR _buf$13[ebp]
  00247	51		 push	 ecx
  00248	50		 push	 eax
  00249	e8 00 00 00 00	 call	 ?base64_decode@@YAXPBDPAD@Z ; base64_decode
; File c:\program files (x86)\microsoft visual studio 12.0\vc\include\vector

; 1209 : 		return (*(this->_Myfirst + _Pos));

  0024e	8b b5 94 fe ff
	ff		 mov	 esi, DWORD PTR _stVec$7[ebp]
; File d:\metin2\metin2\client_source_clean\client_source_clean\source\userinterface\userinterface.cpp

; 313  : 			base64_decode(stVec[2].c_str(),buf);

  00254	83 c4 08	 add	 esp, 8
; File c:\program files (x86)\microsoft visual studio 12.0\vc\include\iosfwd

; 523  : 			: _CSTD strlen(_First));

  00257	80 bd e8 fe ff
	ff 00		 cmp	 BYTE PTR _buf$13[ebp], 0
  0025e	75 04		 jne	 SHORT $LN250@RunMainScr
  00260	33 c9		 xor	 ecx, ecx
  00262	eb 15		 jmp	 SHORT $LN251@RunMainScr
$LN250@RunMainScr:
  00264	8d 8d e8 fe ff
	ff		 lea	 ecx, DWORD PTR _buf$13[ebp]
  0026a	8d 51 01	 lea	 edx, DWORD PTR [ecx+1]
  0026d	8d 49 00	 npad	 3
$LL540@RunMainScr:
  00270	8a 01		 mov	 al, BYTE PTR [ecx]
  00272	41		 inc	 ecx
  00273	84 c0		 test	 al, al
  00275	75 f9		 jne	 SHORT $LL540@RunMainScr
  00277	2b ca		 sub	 ecx, edx
$LN251@RunMainScr:
; File c:\program files (x86)\microsoft visual studio 12.0\vc\include\xstring

; 1169 : 		return (assign(_Ptr, _Traits::length(_Ptr)));

  00279	51		 push	 ecx
  0027a	8d 85 e8 fe ff
	ff		 lea	 eax, DWORD PTR _buf$13[ebp]
  00280	50		 push	 eax
  00281	8d 4e 30	 lea	 ecx, DWORD PTR [esi+48]
  00284	e8 00 00 00 00	 call	 ?assign@?$basic_string@DU?$char_traits@D@std@@V?$allocator@D@2@@std@@QAEAAV12@PBDI@Z ; std::basic_string<char,std::char_traits<char>,std::allocator<char> >::assign
; File d:\metin2\metin2\client_source_clean\client_source_clean\source\userinterface\userinterface.cpp

; 315  : 			string_join(seperator,stVec,&stCmdLine);

  00289	68 00 00 00 00	 push	 OFFSET ??_C@_01CLKCMJKC@?5?$AA@
  0028e	8d 8d a0 fe ff
	ff		 lea	 ecx, DWORD PTR $T9[ebp]
  00294	e8 00 00 00 00	 call	 ??0?$basic_string@DU?$char_traits@D@std@@V?$allocator@D@2@@std@@QAE@PBD@Z ; std::basic_string<char,std::char_traits<char>,std::allocator<char> >::basic_string<char,std::char_traits<char>,std::allocator<char> >
  00299	c6 45 fc 04	 mov	 BYTE PTR __$EHRec$[ebp+8], 4
$LN544@RunMainScr:
  0029d	8d 85 b8 fe ff
	ff		 lea	 eax, DWORD PTR _stCmdLine$10[ebp]
  002a3	50		 push	 eax
  002a4	8d 95 94 fe ff
	ff		 lea	 edx, DWORD PTR _stVec$7[ebp]
  002aa	8d 8d a0 fe ff
	ff		 lea	 ecx, DWORD PTR $T9[ebp]
  002b0	e8 00 00 00 00	 call	 ??$string_join@V?$vector@V?$basic_string@DU?$char_traits@D@std@@V?$allocator@D@2@@std@@V?$allocator@V?$basic_string@DU?$char_traits@D@std@@V?$allocator@D@2@@std@@@2@@std@@@@YAXABV?$basic_string@DU?$char_traits@D@std@@V?$allocator@D@2@@std@@ABV?$vector@V?$basic_string@DU?$char_traits@D@std@@V?$allocator@D@2@@std@@V?$allocator@V?$basic_string@DU?$char_traits@D@std@@V?$allocator@D@2@@std@@@2@@1@PAV01@@Z ; string_join<std::vector<std::basic_string<char,std::char_traits<char>,std::allocator<char> >,std::allocator<std::basic_string<char,std::char_traits<char>,std::allocator<char> > > > >
  002b5	83 c4 04	 add	 esp, 4
  002b8	c6 45 fc 03	 mov	 BYTE PTR __$EHRec$[ebp+8], 3
; File c:\program files (x86)\microsoft visual studio 12.0\vc\include\xstring

; 2275 : 		else if (this->_BUF_SIZE <= this->_Myres)

  002bc	83 bd b4 fe ff
	ff 10		 cmp	 DWORD PTR $T9[ebp+20], 16 ; 00000010H
  002c3	0f 82 9d 00 00
	00		 jb	 $LN344@RunMainScr
; File c:\program files (x86)\microsoft visual studio 12.0\vc\include\xmemory0

; 573  : 		::operator delete(_Ptr);

  002c9	ff b5 a0 fe ff
	ff		 push	 DWORD PTR $T9[ebp]
  002cf	e8 00 00 00 00	 call	 ??3@YAXPAX@Z		; operator delete
  002d4	83 c4 04	 add	 esp, 4
; File d:\metin2\metin2\client_source_clean\client_source_clean\source\userinterface\userinterface.cpp

; 317  : 		else if (CmdSize <= stVec.size() && stVec[0]==loginMark_NonEncode)

  002d7	e9 8a 00 00 00	 jmp	 $LN344@RunMainScr
$LN542@RunMainScr:
  002dc	8b bd 98 fe ff
	ff		 mov	 edi, DWORD PTR _stVec$7[ebp+4]
  002e2	8b b5 94 fe ff
	ff		 mov	 esi, DWORD PTR _stVec$7[ebp]
$LN7@RunMainScr:
; File c:\program files (x86)\microsoft visual studio 12.0\vc\include\vector

; 1148 : 		return (this->_Mylast - this->_Myfirst);

  002e8	2b fe		 sub	 edi, esi
  002ea	b8 ab aa aa 2a	 mov	 eax, 715827883		; 2aaaaaabH
  002ef	f7 ef		 imul	 edi
  002f1	c1 fa 02	 sar	 edx, 2
  002f4	8b c2		 mov	 eax, edx
  002f6	c1 e8 1f	 shr	 eax, 31			; 0000001fH
  002f9	03 c2		 add	 eax, edx
; File d:\metin2\metin2\client_source_clean\client_source_clean\source\userinterface\userinterface.cpp

; 317  : 		else if (CmdSize <= stVec.size() && stVec[0]==loginMark_NonEncode)

  002fb	83 f8 03	 cmp	 eax, 3
  002fe	72 40		 jb	 SHORT $LN5@RunMainScr
; File c:\program files (x86)\microsoft visual studio 12.0\vc\include\xstring

; 2159 : 		return (compare(0, this->_Mysize, _Ptr, _Traits::length(_Ptr)));

  00300	6a 04		 push	 4
  00302	68 00 00 00 00	 push	 OFFSET ??_C@_04JFPGDMCL@?9ncs?$AA@
  00307	ff 76 10	 push	 DWORD PTR [esi+16]
  0030a	8b ce		 mov	 ecx, esi
  0030c	6a 00		 push	 0
  0030e	e8 00 00 00 00	 call	 ?compare@?$basic_string@DU?$char_traits@D@std@@V?$allocator@D@2@@std@@QBEHIIPBDI@Z ; std::basic_string<char,std::char_traits<char>,std::allocator<char> >::compare

; 2285 : 		_Eos(_Newsize);
; 2286 : 		}
; 2287 : 
; 2288 : 	__declspec(noreturn) void _Xlen() const
; 2289 : 		{	// report a length_error
; 2290 : 		_Xlength_error("string too long");
; 2291 : 		}
; 2292 : 
; 2293 : 	__declspec(noreturn) void _Xran() const
; 2294 : 		{	// report an out_of_range error
; 2295 : 		_Xout_of_range("invalid string position");
; 2296 : 		}
; 2297 : 	};
; 2298 : 
; 2299 : 		// STATIC npos OBJECT
; 2300 : template<class _Elem,
; 2301 : 	class _Traits,
; 2302 : 	class _Alloc>
; 2303 : 	_PGLOBAL const typename basic_string<_Elem, _Traits, _Alloc>::size_type
; 2304 : 		basic_string<_Elem, _Traits, _Alloc>::npos =
; 2305 : 			(typename basic_string<_Elem, _Traits, _Alloc>::size_type)(-1);
; 2306 : 
; 2307 : 		// basic_string TEMPLATE OPERATORS
; 2308 : 
; 2309 : template<class _Elem,
; 2310 : 	class _Traits,
; 2311 : 	class _Alloc> inline
; 2312 : 	void swap(basic_string<_Elem, _Traits, _Alloc>& _Left,
; 2313 : 		basic_string<_Elem, _Traits, _Alloc>& _Right)
; 2314 : 	{	// swap _Left and _Right strings
; 2315 : 	_Left.swap(_Right);
; 2316 : 	}
; 2317 : 
; 2318 : template<class _Elem,
; 2319 : 	class _Traits,
; 2320 : 	class _Alloc> inline
; 2321 : 	basic_string<_Elem, _Traits, _Alloc> operator+(
; 2322 : 		const basic_string<_Elem, _Traits, _Alloc>& _Left,
; 2323 : 		const basic_string<_Elem, _Traits, _Alloc>& _Right)
; 2324 : 	{	// return string + string
; 2325 : 	basic_string<_Elem, _Traits, _Alloc> _Ans;
; 2326 : 	_Ans.reserve(_Left.size() + _Right.size());
; 2327 : 	_Ans += _Left;
; 2328 : 	_Ans += _Right;
; 2329 : 	return (_Ans);
; 2330 : 	}
; 2331 : 
; 2332 : template<class _Elem,
; 2333 : 	class _Traits,
; 2334 : 	class _Alloc> inline
; 2335 : 	basic_string<_Elem, _Traits, _Alloc> operator+(
; 2336 : 		const _Elem *_Left,
; 2337 : 		const basic_string<_Elem, _Traits, _Alloc>& _Right)
; 2338 : 	{	// return NTCS + string
; 2339 : 	basic_string<_Elem, _Traits, _Alloc> _Ans;
; 2340 : 	_Ans.reserve(_Traits::length(_Left) + _Right.size());
; 2341 : 	_Ans += _Left;
; 2342 : 	_Ans += _Right;
; 2343 : 	return (_Ans);
; 2344 : 	}
; 2345 : 
; 2346 : template<class _Elem,
; 2347 : 	class _Traits,
; 2348 : 	class _Alloc> inline
; 2349 : 	basic_string<_Elem, _Traits, _Alloc> operator+(
; 2350 : 		const _Elem _Left,
; 2351 : 		const basic_string<_Elem, _Traits, _Alloc>& _Right)
; 2352 : 	{	// return character + string
; 2353 : 	basic_string<_Elem, _Traits, _Alloc> _Ans;
; 2354 : 	_Ans.reserve(1 + _Right.size());
; 2355 : 	_Ans += _Left;
; 2356 : 	_Ans += _Right;
; 2357 : 	return (_Ans);
; 2358 : 	}
; 2359 : 
; 2360 : template<class _Elem,
; 2361 : 	class _Traits,
; 2362 : 	class _Alloc> inline
; 2363 : 	basic_string<_Elem, _Traits, _Alloc> operator+(
; 2364 : 		const basic_string<_Elem, _Traits, _Alloc>& _Left,
; 2365 : 		const _Elem *_Right)
; 2366 : 	{	// return string + NTCS
; 2367 : 	basic_string<_Elem, _Traits, _Alloc> _Ans;
; 2368 : 	_Ans.reserve(_Left.size() + _Traits::length(_Right));
; 2369 : 	_Ans += _Left;
; 2370 : 	_Ans += _Right;
; 2371 : 	return (_Ans);
; 2372 : 	}
; 2373 : 
; 2374 : template<class _Elem,
; 2375 : 	class _Traits,
; 2376 : 	class _Alloc> inline
; 2377 : 	basic_string<_Elem, _Traits, _Alloc> operator+(
; 2378 : 		const basic_string<_Elem, _Traits, _Alloc>& _Left,
; 2379 : 		const _Elem _Right)
; 2380 : 	{	// return string + character
; 2381 : 	basic_string<_Elem, _Traits, _Alloc> _Ans;
; 2382 : 	_Ans.reserve(_Left.size() + 1);
; 2383 : 	_Ans += _Left;
; 2384 : 	_Ans += _Right;
; 2385 : 	return (_Ans);
; 2386 : 	}
; 2387 : 
; 2388 : template<class _Elem,
; 2389 : 	class _Traits,
; 2390 : 	class _Alloc> inline
; 2391 : 	basic_string<_Elem, _Traits, _Alloc> operator+(
; 2392 : 		const basic_string<_Elem, _Traits, _Alloc>& _Left,
; 2393 : 		basic_string<_Elem, _Traits, _Alloc>&& _Right)
; 2394 : 	{	// return string + string
; 2395 : 	return (_STD move(_Right.insert(0, _Left)));
; 2396 : 	}
; 2397 : 
; 2398 : template<class _Elem,
; 2399 : 	class _Traits,
; 2400 : 	class _Alloc> inline
; 2401 : 	basic_string<_Elem, _Traits, _Alloc> operator+(
; 2402 : 		basic_string<_Elem, _Traits, _Alloc>&& _Left,
; 2403 : 		const basic_string<_Elem, _Traits, _Alloc>& _Right)
; 2404 : 	{	// return string + string
; 2405 : 	return (_STD move(_Left.append(_Right)));
; 2406 : 	}
; 2407 : 
; 2408 : template<class _Elem,
; 2409 : 	class _Traits,
; 2410 : 	class _Alloc> inline
; 2411 : 	basic_string<_Elem, _Traits, _Alloc> operator+(
; 2412 : 		basic_string<_Elem, _Traits, _Alloc>&& _Left,
; 2413 : 		basic_string<_Elem, _Traits, _Alloc>&& _Right)
; 2414 : 	{	// return string + string
; 2415 : 	if (_Right.size() <= _Left.capacity() - _Left.size()
; 2416 : 		|| _Right.capacity() - _Right.size() < _Left.size())
; 2417 : 		return (_STD move(_Left.append(_Right)));
; 2418 : 	else
; 2419 : 		return (_STD move(_Right.insert(0, _Left)));
; 2420 : 	}
; 2421 : 
; 2422 : template<class _Elem,
; 2423 : 	class _Traits,
; 2424 : 	class _Alloc> inline
; 2425 : 	basic_string<_Elem, _Traits, _Alloc> operator+(
; 2426 : 		const _Elem *_Left,
; 2427 : 		basic_string<_Elem, _Traits, _Alloc>&& _Right)
; 2428 : 	{	// return NTCS + string
; 2429 : 	return (_STD move(_Right.insert(0, _Left)));
; 2430 : 	}
; 2431 : 
; 2432 : template<class _Elem,
; 2433 : 	class _Traits,
; 2434 : 	class _Alloc> inline
; 2435 : 	basic_string<_Elem, _Traits, _Alloc> operator+(
; 2436 : 		const _Elem _Left,
; 2437 : 		basic_string<_Elem, _Traits, _Alloc>&& _Right)
; 2438 : 	{	// return character + string
; 2439 : 	return (_STD move(_Right.insert(0, 1, _Left)));
; 2440 : 	}
; 2441 : 
; 2442 : template<class _Elem,
; 2443 : 	class _Traits,
; 2444 : 	class _Alloc> inline
; 2445 : 	basic_string<_Elem, _Traits, _Alloc> operator+(
; 2446 : 		basic_string<_Elem, _Traits, _Alloc>&& _Left,
; 2447 : 		const _Elem *_Right)
; 2448 : 	{	// return string + NTCS
; 2449 : 	return (_STD move(_Left.append(_Right)));
; 2450 : 	}
; 2451 : 
; 2452 : template<class _Elem,
; 2453 : 	class _Traits,
; 2454 : 	class _Alloc> inline
; 2455 : 	basic_string<_Elem, _Traits, _Alloc> operator+(
; 2456 : 		basic_string<_Elem, _Traits, _Alloc>&& _Left,
; 2457 : 		const _Elem _Right)
; 2458 : 	{	// return string + character
; 2459 : 	return (_STD move(_Left.append(1, _Right)));
; 2460 : 	}
; 2461 : 
; 2462 : template<class _Elem,
; 2463 : 	class _Traits,
; 2464 : 	class _Alloc> inline
; 2465 : 	bool operator==(
; 2466 : 		const basic_string<_Elem, _Traits, _Alloc>& _Left,
; 2467 : 		const basic_string<_Elem, _Traits, _Alloc>& _Right)
; 2468 : 	{	// test for string equality
; 2469 : 	return (_Left.compare(_Right) == 0);
; 2470 : 	}
; 2471 : 
; 2472 : template<class _Elem,
; 2473 : 	class _Traits,
; 2474 : 	class _Alloc> inline
; 2475 : 	bool operator==(
; 2476 : 		const _Elem * _Left,
; 2477 : 		const basic_string<_Elem, _Traits, _Alloc>& _Right)
; 2478 : 	{	// test for NTCS vs. string equality
; 2479 : 	return (_Right.compare(_Left) == 0);
; 2480 : 	}
; 2481 : 
; 2482 : template<class _Elem,
; 2483 : 	class _Traits,
; 2484 : 	class _Alloc> inline
; 2485 : 	bool operator==(
; 2486 : 		const basic_string<_Elem, _Traits, _Alloc>& _Left,
; 2487 : 		const _Elem *_Right)
; 2488 : 	{	// test for string vs. NTCS equality
; 2489 : 	return (_Left.compare(_Right) == 0);

  00313	85 c0		 test	 eax, eax
; File d:\metin2\metin2\client_source_clean\client_source_clean\source\userinterface\userinterface.cpp

; 317  : 		else if (CmdSize <= stVec.size() && stVec[0]==loginMark_NonEncode)

  00315	75 29		 jne	 SHORT $LN5@RunMainScr

; 318  : 		{
; 319  : 			stVec[0] = loginMark;

  00317	8b 8d 94 fe ff
	ff		 mov	 ecx, DWORD PTR _stVec$7[ebp]
  0031d	68 00 00 00 00	 push	 OFFSET ??_C@_03MCGAAIEM@?9cs?$AA@
  00322	e8 00 00 00 00	 call	 ??4?$basic_string@DU?$char_traits@D@std@@V?$allocator@D@2@@std@@QAEAAV01@PBD@Z ; std::basic_string<char,std::char_traits<char>,std::allocator<char> >::operator=

; 320  : 			string_join(" ",stVec,&stCmdLine);

  00327	68 00 00 00 00	 push	 OFFSET ??_C@_01CLKCMJKC@?5?$AA@
  0032c	8d 8d a0 fe ff
	ff		 lea	 ecx, DWORD PTR $T8[ebp]
  00332	e8 00 00 00 00	 call	 ??0?$basic_string@DU?$char_traits@D@std@@V?$allocator@D@2@@std@@QAE@PBD@Z ; std::basic_string<char,std::char_traits<char>,std::allocator<char> >::basic_string<char,std::char_traits<char>,std::allocator<char> >
  00337	c6 45 fc 05	 mov	 BYTE PTR __$EHRec$[ebp+8], 5

; 321  : 		}
; 322  : 		else

  0033b	e9 5d ff ff ff	 jmp	 $LN544@RunMainScr
$LN5@RunMainScr:
; File c:\program files (x86)\microsoft visual studio 12.0\vc\include\iosfwd

; 523  : 			: _CSTD strlen(_First));

  00340	80 3b 00	 cmp	 BYTE PTR [ebx], 0
  00343	75 04		 jne	 SHORT $LN336@RunMainScr
  00345	33 c9		 xor	 ecx, ecx
  00347	eb 10		 jmp	 SHORT $LN337@RunMainScr
$LN336@RunMainScr:
  00349	8b cb		 mov	 ecx, ebx
  0034b	8d 51 01	 lea	 edx, DWORD PTR [ecx+1]
  0034e	8b ff		 npad	 2
$LL541@RunMainScr:
  00350	8a 01		 mov	 al, BYTE PTR [ecx]
  00352	41		 inc	 ecx
  00353	84 c0		 test	 al, al
  00355	75 f9		 jne	 SHORT $LL541@RunMainScr
  00357	2b ca		 sub	 ecx, edx
$LN337@RunMainScr:
; File c:\program files (x86)\microsoft visual studio 12.0\vc\include\xstring

; 1169 : 		return (assign(_Ptr, _Traits::length(_Ptr)));

  00359	51		 push	 ecx
  0035a	53		 push	 ebx
  0035b	8d 8d b8 fe ff
	ff		 lea	 ecx, DWORD PTR _stCmdLine$10[ebp]
  00361	e8 00 00 00 00	 call	 ?assign@?$basic_string@DU?$char_traits@D@std@@V?$allocator@D@2@@std@@QAEAAV12@PBDI@Z ; std::basic_string<char,std::char_traits<char>,std::allocator<char> >::assign
$LN344@RunMainScr:
  00366	6a 13		 push	 19			; 00000013H
  00368	68 00 00 00 00	 push	 OFFSET ??_C@_0BE@FPKDPBJI@__COMMAND_LINE__?5?$DN?5?$AA@
  0036d	8d 8d d0 fe ff
	ff		 lea	 ecx, DWORD PTR _stRegisterCmdLine$11[ebp]
  00373	e8 00 00 00 00	 call	 ?assign@?$basic_string@DU?$char_traits@D@std@@V?$allocator@D@2@@std@@QAEAAV12@PBDI@Z ; std::basic_string<char,std::char_traits<char>,std::allocator<char> >::assign

; 521  : 		}
; 522  : 
; 523  : 	union _Bxty
; 524  : 		{	// storage for small buffer or pointer to larger one
; 525  : 		value_type _Buf[_BUF_SIZE];
; 526  : 		pointer _Ptr;
; 527  : 		char _Alias[_BUF_SIZE];	// to permit aliasing
; 528  : 		} _Bx;
; 529  : 
; 530  : 	size_type _Mysize;	// current length of string
; 531  : 	size_type _Myres;	// current storage reserved for string
; 532  : 	};
; 533  : 
; 534  : 		// TEMPLATE CLASS _String_alloc
; 535  : template<bool _Al_has_storage,
; 536  : 	class _Alloc_types>
; 537  : 	class _String_alloc
; 538  : 		: public _String_val<typename _Alloc_types::_Val_types>
; 539  : 	{	// base class for basic_string to hold allocator with storage
; 540  : public:
; 541  : 	typename _Alloc_types::_Alty _Alval;	// allocator object
; 542  : 
; 543  : 	typedef _String_alloc<_Al_has_storage, _Alloc_types> _Myt;
; 544  : 	typedef typename _Alloc_types::_Alloc _Alloc;
; 545  : 	typedef typename _Alloc_types::_Alty _Alty;
; 546  : 
; 547  :  #if _ITERATOR_DEBUG_LEVEL == 0
; 548  : 	_String_alloc(const _Alloc& _Al = _Alloc())
; 549  : 		: _Alval(_Al)
; 550  : 		{	// construct allocator from _Al
; 551  : 		}
; 552  : 
; 553  : 	void _Change_alloc(const _Alty& _Al)
; 554  : 		{	// replace old allocator
; 555  : 		this->_Alval = _Al;
; 556  : 		}
; 557  : 
; 558  : 	void _Swap_alloc(_Myt& _Right)
; 559  : 		{	// swap allocators
; 560  : 		_Swap_adl(this->_Alval, _Right._Alval);
; 561  : 		}
; 562  : 
; 563  :  #else /* _ITERATOR_DEBUG_LEVEL == 0 */
; 564  : 	_String_alloc(const _Alloc& _Al = _Alloc())
; 565  : 		: _Alval(_Al)
; 566  : 		{	// construct allocator from _Al
; 567  : 		_Alloc_proxy();
; 568  : 		}
; 569  : 
; 570  : 	~_String_alloc() _NOEXCEPT
; 571  : 		{	// destroy the object
; 572  : 		_Free_proxy();
; 573  : 		}
; 574  : 
; 575  : 	void _Change_alloc(const _Alty& _Al)
; 576  : 		{	// replace old allocator
; 577  : 		_Free_proxy();
; 578  : 		this->_Alval = _Al;
; 579  : 		_Alloc_proxy();
; 580  : 		}
; 581  : 
; 582  : 	void _Swap_alloc(_Myt& _Right)
; 583  : 		{	// swap allocators
; 584  : 		_Swap_adl(this->_Alval, _Right._Alval);
; 585  : 		_Swap_adl(this->_Myproxy, _Right._Myproxy);
; 586  : 		}
; 587  : 
; 588  : 	void _Alloc_proxy()
; 589  : 		{	// construct proxy from _Alval
; 590  : 		typename _Alloc::template rebind<_Container_proxy>::other
; 591  : 			_Alproxy(this->_Alval);
; 592  : 		this->_Myproxy = _Alproxy.allocate(1);
; 593  : 		_Alproxy.construct(this->_Myproxy, _Container_proxy());
; 594  : 		this->_Myproxy->_Mycont = this;
; 595  : 		}
; 596  : 
; 597  : 	void _Free_proxy()
; 598  : 		{	// destroy proxy
; 599  : 		typename _Alloc::template rebind<_Container_proxy>::other
; 600  : 			_Alproxy(this->_Alval);
; 601  : 		this->_Orphan_all();
; 602  : 		_Alproxy.destroy(this->_Myproxy);
; 603  : 		_Alproxy.deallocate(this->_Myproxy, 1);
; 604  : 		this->_Myproxy = 0;
; 605  : 		}
; 606  :  #endif /* _ITERATOR_DEBUG_LEVEL == 0 */
; 607  : 
